(dp0
(S'student'
p1
S'[[con]]'
p2
tp3
F0.005847953216374269
s(S'worked'
p4
S'[[con]]'
p5
tp6
F0.011695906432748537
s(S'studied'
p7
S'where'
p8
tp9
F0.001949317738791423
s(S'had'
p10
S'taught'
p11
tp12
F0.001949317738791423
s(S'having'
p13
S'studied'
p14
tp15
F0.001949317738791423
s(S'[[prp]]'
p16
S'student'
p17
tp18
F0.001949317738791423
s(S'awards'
p19
S'that'
p20
tp21
F0.001949317738791423
s(S'worked'
p22
S'[[num]]'
p23
tp24
F0.001949317738791423
s(S'[[adj]]'
p25
S'study'
p26
tp27
F0.003898635477582846
s(S'gave'
p28
S'[[pro]]'
p29
tp30
F0.001949317738791423
s(S'well'
p31
S'received'
p32
tp33
F0.003898635477582846
s(S'[[prp]]'
p34
S'studies'
p35
tp36
F0.001949317738791423
s(S'worked'
p37
S'as'
p38
tp39
F0.021442495126705652
s(S'employed'
p40
S'by'
p41
tp42
F0.009746588693957114
s(S'followed'
p43
S'[[det]]'
p44
tp45
F0.001949317738791423
s(S'[[pro]]'
p46
S'taught'
p47
tp48
F0.001949317738791423
s(S'worked'
p49
S'under'
p50
tp51
F0.01949317738791423
s(S'worked'
p52
S'by'
p53
tp54
F0.005847953216374269
s(S'taught'
p55
S'from'
p56
tp57
F0.001949317738791423
s(S'student'
p58
S'of'
p59
tp60
F0.005847953216374269
s(S'first'
p61
S'worked'
p62
tp63
F0.003898635477582846
s(S'received'
p64
S'while'
p65
tp66
F0.001949317738791423
s(S'received'
p67
S'by'
p68
tp69
F0.007797270955165692
s(S'received'
p70
S'[[num]]'
p71
tp72
F0.001949317738791423
s(S'[[con]]'
p73
g43
tp74
F0.001949317738791423
s(S'studied'
p75
S'there'
p76
tp77
F0.001949317738791423
s(S'worked'
p78
S'on'
p79
tp80
F0.003898635477582846
s(S'who'
p81
S'received'
p82
tp83
F0.001949317738791423
s(S's'
p84
S'assistant'
p85
tp86
F0.001949317738791423
s(S'[[adj]]'
p87
S'assistant'
p88
tp89
F0.009746588693957114
s(S'worked'
p90
S'when'
p91
tp92
F0.001949317738791423
s(S'[[adj]]'
p93
S'received'
p94
tp95
F0.001949317738791423
s(S'has'
p96
g52
tp97
F0.023391812865497075
s(S'worked'
p98
S'then'
p99
tp100
F0.001949317738791423
s(S'taught'
p101
S'by'
p102
tp103
F0.007797270955165692
s(S'taught'
p104
S'that'
p105
tp106
F0.001949317738791423
s(S'doctorate'
p107
g13
tp108
F0.001949317738791423
s(S'worked'
p109
S'where'
p110
tp111
F0.005847953216374269
s(S'later'
p112
g4
tp113
F0.01364522417153996
s(S'received'
p114
g19
tp115
F0.001949317738791423
s(S'[[adj]]'
p116
S'history'
p117
tp118
F0.001949317738791423
s(S'taught'
p119
S'in'
p120
tp121
F0.001949317738791423
s(S'employed'
p122
S'in'
p123
tp124
F0.001949317738791423
s(S'began'
p125
S'singing'
p126
tp127
F0.001949317738791423
s(S'has'
p128
S'studied'
p129
tp130
F0.005847953216374269
s(S'first'
p131
S'studied'
p132
tp133
F0.003898635477582846
s(S'had'
p134
S'studied'
p135
tp136
F0.007797270955165692
s(S'worked'
p137
S'again'
p138
tp139
F0.003898635477582846
s(S'then'
p140
S'worked'
p141
tp142
F0.021442495126705652
s(g35
S'in'
p143
tp144
F0.001949317738791423
s(S'was'
p145
S'assistant'
p146
tp147
F0.003898635477582846
s(S'received'
p148
S'to'
p149
tp150
F0.001949317738791423
s(S'worked'
p151
S'after'
p152
tp153
F0.001949317738791423
s(S'employed'
p154
S'on'
p155
tp156
F0.001949317738791423
s(S'[[det]]'
p157
g107
tp158
F0.003898635477582846
s(S'assistant'
p159
S'[[con]]'
p160
tp161
F0.005847953216374269
s(S'studied'
p162
S'as'
p163
tp164
F0.003898635477582846
s(S'employed'
p165
S'[[det]]'
p166
tp167
F0.003898635477582846
s(g84
S'study'
p168
tp169
F0.001949317738791423
s(S'[[adj]]'
p170
g58
tp171
F0.005847953216374269
s(S'worked'
p172
S'mostly'
p173
tp174
F0.001949317738791423
s(S'who'
p175
S'studied'
p176
tp177
F0.001949317738791423
s(S'worked'
p178
S'among'
p179
tp180
F0.005847953216374269
s(S'been'
p181
S'employed'
p182
tp183
F0.001949317738791423
s(S'also'
p184
S'studied'
p185
tp186
F0.011695906432748537
s(g129
S'with'
p187
tp188
F0.025341130604288498
s(S'worked'
p189
S'was'
p190
tp191
F0.001949317738791423
s(S'[[pro]]'
p192
S'received'
p193
tp194
F0.001949317738791423
s(S'worked'
p195
S'before'
p196
tp197
F0.005847953216374269
s(S'to'
p198
S'study'
p199
tp200
F0.007797270955165692
s(S'[[adj]]'
p201
S'studied'
p202
tp203
F0.001949317738791423
s(S'worked'
p204
S'there'
p205
tp206
F0.001949317738791423
s(S'received'
p207
g157
tp208
F0.01949317738791423
s(S'have'
p209
S'studied'
p210
tp211
F0.005847953216374269
s(S'taught'
p212
S'[[con]]'
p213
tp214
F0.001949317738791423
s(S'assistant'
p215
S'for'
p216
tp217
F0.003898635477582846
s(g20
g28
tp218
F0.001949317738791423
s(S'have'
p219
S'worked'
p220
tp221
F0.005847953216374269
s(S'worked'
p222
S'along'
p223
tp224
F0.011695906432748537
s(S'had'
p225
S'worked'
p226
tp227
F0.009746588693957114
s(S'[[det]]'
p228
S'opportunity'
p229
tp230
F0.001949317738791423
s(S'had'
p231
S'employed'
p232
tp233
F0.001949317738791423
s(S'also'
p234
S'received'
p235
tp236
F0.011695906432748537
s(S'received'
p237
S'from'
p238
tp239
F0.003898635477582846
s(S'studied'
p240
S'under'
p241
tp242
F0.023391812865497075
s(S'[[num]]'
p243
S'worked'
p244
tp245
F0.003898635477582846
s(S'[[num]]'
p246
S'received'
p247
tp248
F0.001949317738791423
s(S'often'
p249
S'worked'
p250
tp251
F0.003898635477582846
s(S'taught'
p252
S'where'
p253
tp254
F0.001949317738791423
s(S'received'
p255
S'[[adj]]'
p256
tp257
F0.005847953216374269
s(S'taught'
p258
S'before'
p259
tp260
F0.001949317738791423
s(S'also'
p261
S'taught'
p262
tp263
F0.003898635477582846
s(S'that'
p264
S'worked'
p265
tp266
F0.003898635477582846
s(S'taught'
p267
S'[[pro]]'
p268
tp269
F0.001949317738791423
s(S'[[con]]'
p270
S'assistant'
p271
tp272
F0.001949317738791423
s(S'received'
p273
S'[[prp]]'
p274
tp275
F0.009746588693957114
s(S'employed'
p276
S'[[adj]]'
p277
tp278
F0.001949317738791423
s(S'worked'
p279
S'later'
p280
tp281
F0.003898635477582846
s(S'[[con]]'
p282
S'received'
p283
tp284
F0.001949317738791423
s(S'study'
p285
S'[[con]]'
p286
tp287
F0.003898635477582846
s(S'[[det]]'
p288
S'worked'
p289
tp290
F0.001949317738791423
s(S'then'
p291
S'studied'
p292
tp293
F0.003898635477582846
s(S'study'
p294
S'with'
p295
tp296
F0.005847953216374269
s(S'stage'
p297
S'career'
p298
tp299
F0.001949317738791423
s(g62
S'with'
p300
tp301
F0.03508771929824561
s(S'is'
p302
S'employed'
p303
tp304
F0.003898635477582846
s(S'studied'
p305
g116
tp306
F0.003898635477582846
s(S'became'
p307
g159
tp308
F0.005847953216374269
s(S'as'
p309
g101
tp310
F0.003898635477582846
s(g298
S'where'
p311
tp312
F0.001949317738791423
s(S'formerly'
p313
g37
tp314
F0.001949317738791423
s(S'then'
p315
S'received'
p316
tp317
F0.003898635477582846
s(S'studied'
p318
S'later'
p319
tp320
F0.001949317738791423
s(S'assistant'
p321
S'of'
p322
tp323
F0.007797270955165692
s(S'studied'
p324
S'to'
p325
tp326
F0.001949317738791423
s(S'[[prp]]'
p327
S'study'
p328
tp329
F0.001949317738791423
s(S'[[num]]'
p330
S'studied'
p331
tp332
F0.001949317738791423
s(S'studied'
p333
S'first'
p334
tp335
F0.001949317738791423
s(S'while'
p336
S'worked'
p337
tp338
F0.001949317738791423
s(S'[[adj]]'
p339
S'employed'
p340
tp341
F0.001949317738791423
s(S'later'
p342
S'received'
p343
tp344
F0.007797270955165692
s(S'[[prp]]'
p345
S'[[adj]]'
p346
tp347
F0.001949317738791423
s(S'worked'
p348
S'for'
p349
tp350
F0.005847953216374269
s(S'was'
p351
S'employed'
p352
tp353
F0.01364522417153996
s(S'was'
p354
g119
tp355
F0.009746588693957114
s(S'when'
p356
S'received'
p357
tp358
F0.003898635477582846
s(g29
g228
tp359
F0.001949317738791423
s(S'[[mod]]'
p360
g294
tp361
F0.005847953216374269
s(S'[[det]]'
p362
S'study'
p363
tp364
F0.003898635477582846
s(S'worked'
p365
S'until'
p366
tp367
F0.003898635477582846
s(g185
S'[[det]]'
p368
tp369
F0.005847953216374269
s(S'doctorate'
p370
S'where'
p371
tp372
F0.005847953216374269
s(S'as'
p373
S'worked'
p374
tp375
F0.001949317738791423
s(S'worked'
p376
S'first'
p377
tp378
F0.001949317738791423
s(S'who'
p379
S'worked'
p380
tp381
F0.005847953216374269
s(S'where'
p382
S'received'
p383
tp384
F0.003898635477582846
s(S'also'
p385
g165
tp386
F0.005847953216374269
s(S'received'
p387
S'with'
p388
tp389
F0.001949317738791423
s(S'also'
p390
S'worked'
p391
tp392
F0.023391812865497075
s(S'who'
p393
S'taught'
p394
tp395
F0.001949317738791423
s(S'employed'
p396
S'to'
p397
tp398
F0.003898635477582846
s(g346
S'doctorate'
p399
tp400
F0.001949317738791423
s(S'continue'
p401
g34
tp402
F0.001949317738791423
s(S'employed'
p403
S'as'
p404
tp405
F0.005847953216374269
s(S'employed'
p406
S'with'
p407
tp408
F0.003898635477582846
s(S'was'
p409
S'received'
p410
tp411
F0.007797270955165692
s(S'worked'
p412
S'mainly'
p413
tp414
F0.003898635477582846
s(S'where'
p415
S'taught'
p416
tp417
F0.001949317738791423
s(S'assistant'
p418
S'to'
p419
tp420
F0.007797270955165692
s(S'[[prp]]'
p421
S'assistant'
p422
tp423
F0.001949317738791423
s(S'taught'
p424
S'to'
p425
tp426
F0.001949317738791423
s(g229
S'to'
p427
tp428
F0.001949317738791423
s(S'later'
p429
S'studied'
p430
tp431
F0.005847953216374269
s(S'[[con]]'
p432
S'student'
p433
tp434
F0.001949317738791423
s(S'[[det]]'
p435
S'assistant'
p436
tp437
F0.009746588693957114
s(S'[[det]]'
p438
S'student'
p439
tp440
F0.011695906432748537
s(S'received'
p441
S'of'
p442
tp443
F0.001949317738791423
s(S'[[con]]'
p444
S'worked'
p445
tp446
F0.011695906432748537
s(S'student'
p447
S'[[det]]'
p448
tp449
F0.001949317738791423
s(S'study'
p450
S'under'
p451
tp452
F0.005847953216374269
s(S'[[con]]'
p453
S'taught'
p454
tp455
F0.001949317738791423
s(g44
g297
tp456
F0.001949317738791423
s(S'studied'
p457
S'[[num]]'
p458
tp459
F0.001949317738791423
s(S'where'
p460
S'studied'
p461
tp462
F0.01364522417153996
s(S'that'
p463
S'received'
p464
tp465
F0.001949317738791423
s(S'have'
p466
S'received'
p467
tp468
F0.003898635477582846
s(S'mainly'
p469
g49
tp470
F0.001949317738791423
s(g439
S'to'
p471
tp472
F0.001949317738791423
s(S'worked'
p473
S'[[det]]'
p474
tp475
F0.001949317738791423
s(g84
S'worked'
p476
tp477
F0.003898635477582846
s(S'studied'
p478
S'[[con]]'
p479
tp480
F0.003898635477582846
s(S'since'
p481
S'worked'
p482
tp483
F0.003898635477582846
s(S'received'
p484
S'was'
p485
tp486
F0.001949317738791423
s(S'[[con]]'
p487
S'studied'
p488
tp489
F0.005847953216374269
s(S'where'
p490
S'worked'
p491
tp492
F0.015594541910331383
s(S'which'
p493
S'received'
p494
tp495
F0.003898635477582846
s(g328
S'of'
p496
tp497
F0.009746588693957114
s(S'worked'
p498
S'while'
p499
tp500
F0.001949317738791423
s(g427
g401
tp501
F0.001949317738791423
s(S'had'
p502
S'received'
p503
tp504
F0.005847953216374269
s(S'[[adj]]'
p505
g348
tp506
F0.003898635477582846
s(S'received'
p507
S'under'
p508
tp509
F0.003898635477582846
s(g143
S'where'
p510
tp511
F0.001949317738791423
s(S'received'
p512
S'as'
p513
tp514
F0.001949317738791423
s(g445
S'[[prp]]'
p515
tp516
F0.001949317738791423
s(g274
g370
tp517
F0.001949317738791423
s(g141
S'to'
p518
tp519
F0.011695906432748537
s(S'employed'
p520
S'at'
p521
tp522
F0.001949317738791423
s(S'whom'
p523
S'worked'
p524
tp525
F0.001949317738791423
s(S'student'
p526
S'where'
p527
tp528
F0.001949317738791423
s(S'while'
p529
S'received'
p530
tp531
F0.001949317738791423
s(S'received'
p532
S'more'
p533
tp534
F0.001949317738791423
s(S'worked'
p535
S'together'
p536
tp537
F0.005847953216374269
s(S'[[con]]'
p538
S'study'
p539
tp540
F0.001949317738791423
s(g32
S'[[con]]'
p541
tp542
F0.005847953216374269
s(S'again'
p543
S'worked'
p544
tp545
F0.003898635477582846
s(g391
S'[[adj]]'
p546
tp547
F0.005847953216374269
s(g126
g73
tp548
F0.001949317738791423
s(S'which'
p549
S'worked'
p550
tp551
F0.001949317738791423
s(S'worked'
p552
S'from'
p553
tp554
F0.005847953216374269
s(S'as'
p555
S'assistant'
p556
tp557
F0.001949317738791423
s(S'studied'
p558
S'history'
p559
tp560
F0.001949317738791423
s(S'currently'
p561
g403
tp562
F0.003898635477582846
s(g352
S'[[con]]'
p563
tp564
F0.001949317738791423
s.