(dp0
(S'form'
p1
S'as'
p2
tp3
F0.008
s(S'has'
p4
S'established'
p5
tp6
F0.008
s(S'to'
p7
S'form'
p8
tp9
F0.056
s(S'affiliated'
p10
S'to'
p11
tp12
F0.056
s(S'established'
p13
S'under'
p14
tp15
F0.008
s(S'[[adj]]'
p16
S'teaching'
p17
tp18
F0.016
s(S'hospital'
p19
S'for'
p20
tp21
F0.016
s(S'[[adj]]'
p22
g1
tp23
F0.008
s(S'established'
p24
S'as'
p25
tp26
F0.024
s(S'venture'
p27
S'of'
p28
tp29
F0.008
s(S'college'
p30
S'[[det]]'
p31
tp32
F0.008
s(S'college'
p33
S'of'
p34
tp35
F0.024
s(S'established'
p36
S'with'
p37
tp38
F0.008
s(S'college'
p39
S's'
p40
tp41
F0.008
s(S'[[adj]]'
p42
S'colleges'
p43
tp44
F0.016
s(g17
g19
tp45
F0.032
s(S'established'
p46
S'at'
p47
tp48
F0.008
s(S'college'
p49
S'[[con]]'
p50
tp51
F0.008
s(S'venture'
p52
S'[[con]]'
p53
tp54
F0.008
s(S'established'
p55
S'when'
p56
tp57
F0.008
s(S'[[adj]]'
p58
S'college'
p59
tp60
F0.056
s(S'college'
p61
S'at'
p62
tp63
F0.016
s(S'form'
p64
S'[[det]]'
p65
tp66
F0.008
s(S'[[adj]]'
p67
g52
tp68
F0.04
s(S'is'
p69
S'affiliated'
p70
tp71
F0.024
s(S'colleges'
p72
S'in'
p73
tp74
F0.008
s(S'established'
p75
S'[[prp]]'
p76
tp77
F0.008
s(S'venture'
p78
S'between'
p79
tp80
F0.008
s(S'form'
p81
S'in'
p82
tp83
F0.008
s(S'[[con]]'
p84
S'established'
p85
tp86
F0.008
s(S'is'
p87
S'approved'
p88
tp89
F0.008
s(S'[[det]]'
p90
S'teaching'
p91
tp92
F0.016
s(S'[[num]]'
p93
S'colleges'
p94
tp95
F0.024
s(S'[[con]]'
p96
S'affiliated'
p97
tp98
F0.024
s(S'[[adj]]'
p99
S'established'
p100
tp101
F0.008
s(S'college'
p102
S'affiliated'
p103
tp104
F0.016
s(S'of'
p105
S'established'
p106
tp107
F0.008
s(g94
S'of'
p108
tp109
F0.016
s(S'form'
p110
S'[[num]]'
p111
tp112
F0.008
s(S'been'
p113
g10
tp114
F0.008
s(S'[[det]]'
p115
S'colleges'
p116
tp117
F0.008
s(S'became'
p118
S'affiliated'
p119
tp120
F0.016
s(S'was'
p121
g55
tp122
F0.064
s(S'established'
p123
S'by'
p124
tp125
F0.016
s(S'venture'
p126
S'with'
p127
tp128
F0.008
s(S'was'
p129
S'affiliated'
p130
tp131
F0.008
s(S'be'
p132
S'established'
p133
tp134
F0.016
s(g119
S'with'
p135
tp136
F0.056
s(S'form'
p137
S'part'
p138
tp139
F0.008
s(S'is'
p140
S'established'
p141
tp142
F0.008
s(S'form'
p143
S'of'
p144
tp145
F0.008
s(S'established'
p146
S'[[num]]'
p147
tp148
F0.008
s(S'established'
p149
S'in'
p150
tp151
F0.008
s(S'established'
p152
S'[[con]]'
p153
tp154
F0.008
s(g8
S'[[con]]'
p155
tp156
F0.008
s(S'not'
p157
S'affiliated'
p158
tp159
F0.008
s(S'[[det]]'
p160
g33
tp161
F0.024
s(S'also'
p162
S'affiliated'
p163
tp164
F0.008
s(S'established'
p165
S'[[det]]'
p166
tp167
F0.008
s(S'[[det]]'
p168
g149
tp169
F0.016
s(g133
S'after'
p170
tp171
F0.008
s(g88
S'[[con]]'
p172
tp173
F0.008
s(S'hospital'
p174
S'of'
p175
tp176
F0.016
s.