(dp0
(S'album'
p1
S'[[det]]'
p2
tp3
F0.010638297872340425
s(S'debut'
p4
S'album'
p5
tp6
F0.010638297872340425
s(S'[[adj]]'
p7
S'album'
p8
tp9
F0.0851063829787234
s(S'best'
p10
S'album'
p11
tp12
F0.005319148936170213
s(S'[[con]]'
p13
S'is'
p14
tp15
F0.005319148936170213
s(S'[[prp]]'
p16
g4
tp17
F0.010638297872340425
s(S'album'
p18
S'after'
p19
tp20
F0.005319148936170213
s(S'be'
p21
S'released'
p22
tp23
F0.005319148936170213
s(S'song'
p24
S'featured'
p25
tp26
F0.005319148936170213
s(S'album'
p27
S'released'
p28
tp29
F0.02127659574468085
s(S'song'
p30
S'from'
p31
tp32
F0.0425531914893617
s(S'album'
p33
S'[[num]]'
p34
tp35
F0.010638297872340425
s(S'from'
p36
S'[[det]]'
p37
tp38
F0.015957446808510637
s(S'in'
p39
S'[[adj]]'
p40
tp41
F0.005319148936170213
s(S'album'
p42
S'that'
p43
tp44
F0.005319148936170213
s(S'to'
p45
S'album'
p46
tp47
F0.005319148936170213
s(S'song'
p48
S'[[num]]'
p49
tp50
F0.005319148936170213
s(S'song'
p51
S'by'
p52
tp53
F0.031914893617021274
s(S'album'
p54
S'[[pro]]'
p55
tp56
F0.005319148936170213
s(S'released'
p57
S'as'
p58
tp59
F0.010638297872340425
s(S'by'
p60
S'[[det]]'
p61
tp62
F0.010638297872340425
s(S'for'
p63
S'album'
p64
tp65
F0.005319148936170213
s(S'[[adj]]'
p66
S'released'
p67
tp68
F0.02127659574468085
s(S'song'
p69
S'on'
p70
tp71
F0.010638297872340425
s(S'[[con]]'
p72
S'[[num]]'
p73
tp74
F0.005319148936170213
s(S'[[det]]'
p75
S'rock'
p76
tp77
F0.005319148936170213
s(S'released'
p78
S'on'
p79
tp80
F0.010638297872340425
s(g14
S'featured'
p81
tp82
F0.005319148936170213
s(g73
S'album'
p83
tp84
F0.06914893617021277
s(S'album'
p85
S'for'
p86
tp87
F0.005319148936170213
s(g79
S'[[det]]'
p88
tp89
F0.005319148936170213
s(g61
S'album'
p90
tp91
F0.05319148936170213
s(g67
S'from'
p92
tp93
F0.03723404255319149
s(S'[[det]]'
p94
S'song'
p95
tp96
F0.09574468085106383
s(S'on'
p97
S'[[num]]'
p98
tp99
F0.02127659574468085
s(g95
g72
tp100
F0.015957446808510637
s(S'from'
p101
S'[[num]]'
p102
tp103
F0.015957446808510637
s(S'song'
p104
S'of'
p105
tp106
F0.005319148936170213
s(S'by'
p107
S'band'
p108
tp109
F0.005319148936170213
s(S'was'
p110
S'released'
p111
tp112
F0.031914893617021274
s(S'[[prp]]'
p113
S'album'
p114
tp115
F0.010638297872340425
s(g76
S'band'
p116
tp117
F0.010638297872340425
s(S'from'
p118
g16
tp119
F0.015957446808510637
s(S'album'
p120
S'from'
p121
tp122
F0.005319148936170213
s(S'album'
p123
S'at'
p124
tp125
F0.005319148936170213
s(g52
S'[[num]]'
p126
tp127
F0.005319148936170213
s(S'album'
p128
S'in'
p129
tp130
F0.010638297872340425
s(g108
S'featured'
p131
tp132
F0.005319148936170213
s(S'[[con]]'
p133
S'album'
p134
tp135
F0.005319148936170213
s(S'from'
p136
S'album'
p137
tp138
F0.005319148936170213
s(g31
g7
tp139
F0.02127659574468085
s(S'album'
p140
S'on'
p141
tp142
F0.010638297872340425
s(g58
S'[[adj]]'
p143
tp144
F0.010638297872340425
s(S'of'
p145
S'album'
p146
tp147
F0.005319148936170213
s(S'album'
p148
S'[[con]]'
p149
tp150
F0.015957446808510637
s(S'by'
p151
S'featured'
p152
tp153
F0.005319148936170213
s(S'to'
p154
S'song'
p155
tp156
F0.005319148936170213
s(S'album'
p157
S'as'
p158
tp159
F0.010638297872340425
s(S'[[adj]]'
p160
S'song'
p161
tp162
F0.015957446808510637
s(S'album'
p163
S'to'
p164
tp165
F0.005319148936170213
s(S'on'
p166
S'[[prp]]'
p167
tp168
F0.005319148936170213
s(g11
S'since'
p169
tp170
F0.010638297872340425
s(S'by'
p171
S'rock'
p172
tp173
F0.005319148936170213
s(g131
g97
tp174
F0.02127659574468085
s(S'released'
p175
g39
tp176
F0.010638297872340425
s(S'in'
p177
S'album'
p178
tp179
F0.005319148936170213
s(S'album'
p180
S'was'
p181
tp182
F0.005319148936170213
s(g116
g57
tp183
F0.005319148936170213
s(S'band'
p184
S'from'
p185
tp186
F0.005319148936170213
s.