(dp0
(S'nominated'
p1
S'with'
p2
tp3
F0.003937007874015748
s(S'appointed'
p4
S'with'
p5
tp6
F0.007874015748031496
s(S'were'
p7
S'appointed'
p8
tp9
F0.007874015748031496
s(S'appointed'
p10
S'first'
p11
tp12
F0.003937007874015748
s(S'later'
p13
S'appointed'
p14
tp15
F0.023622047244094488
s(S'[[con]]'
p16
S'nominated'
p17
tp18
F0.003937007874015748
s(S'appointed'
p19
S'[[con]]'
p20
tp21
F0.031496062992125984
s(S'appointed'
p22
S'[[pro]]'
p23
tp24
F0.007874015748031496
s(S'be'
p25
S'appointed'
p26
tp27
F0.023622047244094488
s(S'then'
p28
g19
tp29
F0.023622047244094488
s(S'was'
p30
S'summoned'
p31
tp32
F0.007874015748031496
s(S'that'
p33
S'appointed'
p34
tp35
F0.003937007874015748
s(S'[[adj]]'
p36
S'appointed'
p37
tp38
F0.007874015748031496
s(S'nominated'
p39
S'by'
p40
tp41
F0.023622047244094488
s(S'nominated'
p42
S'[[num]]'
p43
tp44
F0.003937007874015748
s(S'instead'
p45
S'appointed'
p46
tp47
F0.007874015748031496
s(S'appointed'
p48
S'was'
p49
tp50
F0.003937007874015748
s(S'nominated'
p51
S'[[pro]]'
p52
tp53
F0.003937007874015748
s(g31
S'representing'
p54
tp55
F0.003937007874015748
s(S'[[det]]'
p56
S'advice'
p57
tp58
F0.01968503937007874
s(S'recommendation'
p59
S'of'
p60
tp61
F0.011811023622047244
s(S'nominated'
p62
S'as'
p63
tp64
F0.01968503937007874
s(S'appointed'
p65
S'[[adj]]'
p66
tp67
F0.011811023622047244
s(S'nominated'
p68
S'for'
p69
tp70
F0.015748031496062992
s(S'appointed'
p71
S'under'
p72
tp73
F0.003937007874015748
s(S'on'
p74
S'[[det]]'
p75
tp76
F0.011811023622047244
s(S'[[det]]'
p77
S'[[adj]]'
p78
tp79
F0.003937007874015748
s(S'had'
p80
S'appointed'
p81
tp82
F0.01968503937007874
s(S'summoned'
p83
S'[[det]]'
p84
tp85
F0.003937007874015748
s(S'is'
p86
S'appointed'
p87
tp88
F0.031496062992125984
s(S'been'
p89
S'appointed'
p90
tp91
F0.015748031496062992
s(S'nominated'
p92
S'[[adj]]'
p93
tp94
F0.007874015748031496
s(g78
S'division'
p95
tp96
F0.003937007874015748
s(g54
g77
tp97
F0.003937007874015748
s(S'[[det]]'
p98
S'nominated'
p99
tp100
F0.003937007874015748
s(S'[[num]]'
p101
S'appointed'
p102
tp103
F0.007874015748031496
s(S'being'
p104
S'nominated'
p105
tp106
F0.003937007874015748
s(g75
g59
tp107
F0.011811023622047244
s(S'[[con]]'
p108
S'appointed'
p109
tp110
F0.015748031496062992
s(S'again'
p111
S'nominated'
p112
tp113
F0.007874015748031496
s(S'appointed'
p114
S'[[det]]'
p115
tp116
F0.051181102362204724
s(S'of'
p117
S'representing'
p118
tp119
F0.003937007874015748
s(S'appointed'
p120
S'after'
p121
tp122
F0.007874015748031496
s(S'when'
p123
S'appointed'
p124
tp125
F0.003937007874015748
s(S'appointed'
p126
S'when'
p127
tp128
F0.007874015748031496
s(S'appointed'
p129
S'in'
p130
tp131
F0.007874015748031496
s(S'nominated'
p132
S'to'
p133
tp134
F0.007874015748031496
s(g95
g56
tp135
F0.003937007874015748
s(S'been'
p136
g39
tp137
F0.011811023622047244
s(S'appointed'
p138
S'[[num]]'
p139
tp140
F0.003937007874015748
s(S'also'
p141
S'nominated'
p142
tp143
F0.011811023622047244
s(S'appointed'
p144
S'[[prp]]'
p145
tp146
F0.007874015748031496
s(g57
S'of'
p147
tp148
F0.01968503937007874
s(S'had'
p149
S'nominated'
p150
tp151
F0.007874015748031496
s(g81
S'to'
p152
tp153
F0.031496062992125984
s(S'appointed'
p154
S'where'
p155
tp156
F0.007874015748031496
s(S'first'
p157
g126
tp158
F0.015748031496062992
s(g109
S'as'
p159
tp160
F0.051181102362204724
s(S'appointed'
p161
S'by'
p162
tp163
F0.05511811023622047
s(S'to'
p164
S'[[det]]'
p165
tp166
F0.007874015748031496
s(S'appointed'
p167
g74
tp168
F0.011811023622047244
s(S'was'
p169
g120
tp170
F0.07480314960629922
s(S'also'
p171
S'appointed'
p172
tp173
F0.023622047244094488
s(S'appointed'
p174
S'before'
p175
tp176
F0.003937007874015748
s(S'be'
p177
g68
tp178
F0.007874015748031496
s(S'nominated'
p179
S'again'
p180
tp181
F0.003937007874015748
s(S'which'
p182
S'nominated'
p183
tp184
F0.003937007874015748
s(S'who'
p185
S'appointed'
p186
tp187
F0.003937007874015748
s(S'[[det]]'
p188
S'appointed'
p189
tp190
F0.011811023622047244
s(S'is'
p191
S'nominated'
p192
tp193
F0.007874015748031496
s(S'being'
p194
S'appointed'
p195
tp196
F0.01968503937007874
s(S'was'
p197
S'nominated'
p198
tp199
F0.031496062992125984
s(S'appointed'
p200
S'of'
p201
tp202
F0.003937007874015748
s(S'again'
p203
S'appointed'
p204
tp205
F0.011811023622047244
s(S'nominated'
p206
S'[[con]]'
p207
tp208
F0.011811023622047244
s.