(dp0
(S'jazz'
p1
S'musician'
p2
tp3
F0.001145475372279496
s(S'production'
p4
S'by'
p5
tp6
F0.000572737686139748
s(S'[[adj]]'
p7
S'released'
p8
tp9
F0.003436426116838488
s(S'lineup'
p10
S'of'
p11
tp12
F0.001145475372279496
s(S'song'
p13
S'[[mod]]'
p14
tp15
F0.000572737686139748
s(S'[[det]]'
p16
S'soundtrack'
p17
tp18
F0.001145475372279496
s(S'that'
p19
S'recorded'
p20
tp21
F0.000572737686139748
s(S'recorded'
p22
S'produced'
p23
tp24
F0.000572737686139748
s(S'song'
p25
S'with'
p26
tp27
F0.000572737686139748
s(S'of'
p28
S'recorded'
p29
tp30
F0.000572737686139748
s(S'by'
p31
S'released'
p32
tp33
F0.001145475372279496
s(S'song'
p34
S'performed'
p35
tp36
F0.001145475372279496
s(S'is'
p37
S'released'
p38
tp39
F0.000572737686139748
s(S'been'
p40
S'designed'
p41
tp42
F0.000572737686139748
s(S'video'
p43
S'released'
p44
tp45
F0.000572737686139748
s(S's'
p46
S'written'
p47
tp48
F0.000572737686139748
s(S'by'
p49
S'alternative'
p50
tp51
F0.002290950744558992
s(S'written'
p52
S'[[con]]'
p53
tp54
F0.0074455899198167235
s(g46
S'[[adj]]'
p55
tp56
F0.000572737686139748
s(S'song'
p57
S'pop'
p58
tp59
F0.000572737686139748
s(S'release'
p60
S'by'
p61
tp62
F0.001145475372279496
s(S'designed'
p63
S'with'
p64
tp65
F0.000572737686139748
s(S'[[adj]]'
p66
S'featured'
p67
tp68
F0.000572737686139748
s(S'album'
p69
S'jazz'
p70
tp71
F0.000572737686139748
s(S'[[det]]'
p72
S'metal'
p73
tp74
F0.000572737686139748
s(S'released'
p75
S'to'
p76
tp77
F0.000572737686139748
s(S'[[num]]'
p78
S'debut'
p79
tp80
F0.000572737686139748
s(S'[[det]]'
p81
S'collaboration'
p82
tp83
F0.002290950744558992
s(S'[[det]]'
p84
S'rock'
p85
tp86
F0.004009163802978236
s(S'album'
p87
S'as'
p88
tp89
F0.000572737686139748
s(S'by'
p90
S'[[adj]]'
p91
tp92
F0.01718213058419244
s(S'music'
p93
S'album'
p94
tp95
F0.000572737686139748
s(S'jazz'
p96
S'album'
p97
tp98
F0.002290950744558992
s(S'from'
p99
S'rock'
p100
tp101
F0.001145475372279496
s(S'recorded'
p102
S'by'
p103
tp104
F0.009736540664375716
s(S'[[adj]]'
p105
S'praise'
p106
tp107
F0.001145475372279496
s(S'is'
p108
S'written'
p109
tp110
F0.001145475372279496
s(S'song'
p111
S'[[det]]'
p112
tp113
F0.001145475372279496
s(S'is'
p114
S'[[adj]]'
p115
tp116
F0.000572737686139748
s(S'recorded'
p117
S'[[con]]'
p118
tp119
F0.002290950744558992
s(S'musician'
p120
S'released'
p121
tp122
F0.000572737686139748
s(S'[[det]]'
p123
S'produced'
p124
tp125
F0.000572737686139748
s(S'then'
p126
S'produced'
p127
tp128
F0.000572737686139748
s(S'released'
p129
S'which'
p130
tp131
F0.000572737686139748
s(S'album'
p132
S'singer'
p133
tp134
F0.001145475372279496
s(S'album'
p135
S'in'
p136
tp137
F0.001145475372279496
s(S'of'
p138
S'music'
p139
tp140
F0.000572737686139748
s(S'also'
p141
S'impressed'
p142
tp143
F0.000572737686139748
s(S'album'
p144
S'released'
p145
tp146
F0.017754868270332187
s(S'from'
p147
S'country'
p148
tp149
F0.000572737686139748
s(S'was'
p150
S'coproduced'
p151
tp152
F0.001718213058419244
s(S'released'
p153
S'[[num]]'
p154
tp155
F0.000572737686139748
s(S'also'
p156
S'released'
p157
tp158
F0.001145475372279496
s(S'[[det]]'
p159
S'singer'
p160
tp161
F0.001145475372279496
s(S'[[adj]]'
p162
S'produced'
p163
tp164
F0.000572737686139748
s(S'[[prp]]'
p165
S'[[adj]]'
p166
tp167
F0.000572737686139748
s(S'[[det]]'
p168
S'alternative'
p169
tp170
F0.001718213058419244
s(S'later'
p171
S'covered'
p172
tp173
F0.000572737686139748
s(S'song'
p174
S'[[con]]'
p175
tp176
F0.001718213058419244
s(S'by'
p177
S'recording'
p178
tp179
F0.000572737686139748
s(S'[[det]]'
p180
S'released'
p181
tp182
F0.001145475372279496
s(S'rock'
p183
S'[[con]]'
p184
tp185
F0.000572737686139748
s(S'was'
p186
S'designed'
p187
tp188
F0.003436426116838488
s(S'debut'
p189
S'solo'
p190
tp191
F0.001145475372279496
s(S'designed'
p192
S'to'
p193
tp194
F0.000572737686139748
s(S'pop'
p195
S'rock'
p196
tp197
F0.000572737686139748
s(S'[[det]]'
p198
S'thrash'
p199
tp200
F0.000572737686139748
s(S'country'
p201
S'singer'
p202
tp203
F0.001145475372279496
s(S'by'
p204
S'soul'
p205
tp206
F0.000572737686139748
s(S'album'
p207
S'that'
p208
tp209
F0.001145475372279496
s(S'performed'
p210
S'[[con]]'
p211
tp212
F0.000572737686139748
s(S'[[con]]'
p213
S'songwriter'
p214
tp215
F0.000572737686139748
s(S'[[adj]]'
p216
S'written'
p217
tp218
F0.000572737686139748
s(S'written'
p219
S'to'
p220
tp221
F0.000572737686139748
s(S'[[adj]]'
p222
S'jazz'
p223
tp224
F0.000572737686139748
s(S'[[det]]'
p225
S'group'
p226
tp227
F0.000572737686139748
s(S'jazz'
p228
S'pianist'
p229
tp230
F0.001145475372279496
s(S'was'
p231
S'released'
p232
tp233
F0.010882016036655211
s(S'[[con]]'
p234
S'songs'
p235
tp236
F0.000572737686139748
s(g35
S'by'
p237
tp238
F0.002290950744558992
s(S'is'
p239
S'featured'
p240
tp241
F0.000572737686139748
s(S'[[num]]'
p242
S'written'
p243
tp244
F0.001145475372279496
s(S'band'
p245
g46
tp246
F0.000572737686139748
s(S'written'
p247
S'about'
p248
tp249
F0.000572737686139748
s(S'recorded'
p250
g165
tp251
F0.000572737686139748
s(S'released'
p252
S'under'
p253
tp254
F0.000572737686139748
s(S'collaboration'
p255
S'[[con]]'
p256
tp257
F0.000572737686139748
s(S'is'
p258
S'album'
p259
tp260
F0.001145475372279496
s(S'was'
p261
S'recorded'
p262
tp263
F0.004009163802978236
s(S'[[num]]'
p264
S'released'
p265
tp266
F0.001145475372279496
s(S'[[adj]]'
p267
S'label'
p268
tp269
F0.000572737686139748
s(S'was'
p270
S'produced'
p271
tp272
F0.005154639175257732
s(S'worship'
p273
S'album'
p274
tp275
F0.001145475372279496
s(g139
S'by'
p276
tp277
F0.000572737686139748
s(S'[[adj]]'
p278
S'success'
p279
tp280
F0.000572737686139748
s(S'[[det]]'
p281
g43
tp282
F0.000572737686139748
s(S'[[det]]'
p283
S'pop'
p284
tp285
F0.0028636884306987398
s(S'composed'
p286
S'by'
p287
tp288
F0.001718213058419244
s(S'is'
p289
S'[[det]]'
p290
tp291
F0.001145475372279496
s(S'[[adj]]'
p292
S'designed'
p293
tp294
F0.000572737686139748
s(g279
S'for'
p295
tp296
F0.000572737686139748
s(S'not'
p297
S'released'
p298
tp299
F0.001718213058419244
s(S'of'
p300
S'for'
p301
tp302
F0.000572737686139748
s(g172
S'by'
p303
tp304
F0.001145475372279496
s(S'[[num]]'
p305
S'compilation'
p306
tp307
F0.000572737686139748
s(S'children'
p308
S'by'
p309
tp310
F0.000572737686139748
s(S'been'
p311
S'recorded'
p312
tp313
F0.001718213058419244
s(S'released'
p314
S'[[con]]'
p315
tp316
F0.006300114547537228
s(S'was'
p317
S'written'
p318
tp319
F0.004581901489117984
s(S'produced'
p320
S'with'
p321
tp322
F0.000572737686139748
s(S'saxophonist'
p323
S'recorded'
p324
tp325
F0.001145475372279496
s(S'is'
p326
S'designed'
p327
tp328
F0.000572737686139748
s(S'punk'
p329
S'band'
p330
tp331
F0.000572737686139748
s(S'album'
p332
S'was'
p333
tp334
F0.000572737686139748
s(S'been'
p335
S'released'
p336
tp337
F0.000572737686139748
s(S'songs'
p338
S'by'
p339
tp340
F0.000572737686139748
s(S'indie'
p341
S'rock'
p342
tp343
F0.003436426116838488
s(S'[[adj]]'
p344
S'studio'
p345
tp346
F0.03150057273768614
s(S'produced'
p347
S'by'
p348
tp349
F0.012027491408934709
s(g46
S'released'
p350
tp351
F0.000572737686139748
s(S'[[adj]]'
p352
S'compilation'
p353
tp354
F0.001145475372279496
s(S'song'
p355
S'of'
p356
tp357
F0.000572737686139748
s(S'singer'
p358
S'written'
p359
tp360
F0.000572737686139748
s(S'produced'
p361
S'[[con]]'
p362
tp363
F0.001145475372279496
s(S'coproduced'
p364
S'with'
p365
tp366
F0.001145475372279496
s(S'debut'
p367
S'studio'
p368
tp369
F0.003436426116838488
s(S'is'
p370
S'revealed'
p371
tp372
F0.000572737686139748
s(S'album'
p373
S'where'
p374
tp375
F0.000572737686139748
s(S'released'
p376
S'with'
p377
tp378
F0.001718213058419244
s(S'song'
p379
S'on'
p380
tp381
F0.000572737686139748
s(S'[[det]]'
p382
S'country'
p383
tp384
F0.000572737686139748
s(S'[[det]]'
p385
S'studio'
p386
tp387
F0.004009163802978236
s(S'featured'
p388
S'[[det]]'
p389
tp390
F0.001718213058419244
s(S'is'
p391
S'composed'
p392
tp393
F0.001145475372279496
s(S'by'
p394
S'group'
p395
tp396
F0.000572737686139748
s(S'[[num]]'
p397
S'produced'
p398
tp399
F0.001145475372279496
s(S'[[con]]'
p400
S'was'
p401
tp402
F0.0028636884306987398
s(S'performed'
p403
S'with'
p404
tp405
F0.000572737686139748
s(g318
S'by'
p406
tp407
F0.016036655211912942
s(S'that'
p408
g317
tp409
F0.001145475372279496
s(S'singer'
p410
g213
tp411
F0.001145475372279496
s(S'of'
p412
S'[[det]]'
p413
tp414
F0.002290950744558992
s(S'[[con]]'
p415
g403
tp416
F0.002290950744558992
s(S'also'
p417
S'featured'
p418
tp419
F0.001718213058419244
s(S'[[num]]'
p420
g96
tp421
F0.000572737686139748
s(S'that'
p422
S'featured'
p423
tp424
F0.001145475372279496
s(S'album'
p425
S'after'
p426
tp427
F0.000572737686139748
s(g127
S'at'
p428
tp429
F0.000572737686139748
s(S'was'
p430
g286
tp431
F0.001145475372279496
s(S'released'
p432
S'in'
p433
tp434
F0.006300114547537228
s(S'album'
p435
S'for'
p436
tp437
F0.000572737686139748
s(S'[[adj]]'
p438
S'debut'
p439
tp440
F0.001145475372279496
s(S'album'
p441
S'[[con]]'
p442
tp443
F0.001145475372279496
s(g301
g308
tp444
F0.000572737686139748
s(S'was'
p445
S'recording'
p446
tp447
F0.000572737686139748
s(S'by'
p448
S'death'
p449
tp450
F0.001145475372279496
s(S'album'
p451
S'rock'
p452
tp453
F0.000572737686139748
s(S'from'
p454
S'[[adj]]'
p455
tp456
F0.001145475372279496
s(g423
S'[[con]]'
p457
tp458
F0.001718213058419244
s(S'by'
p459
g341
tp460
F0.003436426116838488
s(S'by'
p461
S'country'
p462
tp463
F0.009736540664375716
s(S'in'
p464
S'released'
p465
tp466
F0.000572737686139748
s(S'featured'
p467
S'production'
p468
tp469
F0.001145475372279496
s(S'band'
p470
S'released'
p471
tp472
F0.001145475372279496
s(S'release'
p473
S'as'
p474
tp475
F0.000572737686139748
s(S'length'
p476
S'release'
p477
tp478
F0.000572737686139748
s(S'band'
p479
S'album'
p480
tp481
F0.001145475372279496
s(S'[[con]]'
p482
g273
tp483
F0.001145475372279496
s(S'debut'
p484
S'album'
p485
tp486
F0.015463917525773196
s(S'by'
p487
S'punk'
p488
tp489
F0.001145475372279496
s(S'contained'
p490
S'[[det]]'
p491
tp492
F0.000572737686139748
s(S'article'
p493
S'is'
p494
tp495
F0.000572737686139748
s(g262
S'with'
p496
tp497
F0.001718213058419244
s(S'rock'
p498
S'band'
p499
tp500
F0.025200458190148912
s(g151
S'by'
p501
tp502
F0.000572737686139748
s(S'[[con]]'
p503
g467
tp504
F0.001145475372279496
s(S'that'
p505
S'released'
p506
tp507
F0.000572737686139748
s(g392
S'with'
p508
tp509
F0.000572737686139748
s(S'originally'
p510
S'recorded'
p511
tp512
F0.000572737686139748
s(S'song'
p513
S'written'
p514
tp515
F0.016036655211912942
s(S'[[det]]'
p516
S'solo'
p517
tp518
F0.001145475372279496
s(S'album'
p519
S'with'
p520
tp521
F0.001718213058419244
s(S'been'
p522
S'covered'
p523
tp524
F0.001718213058419244
s(g133
S'released'
p525
tp526
F0.001718213058419244
s(S'be'
p527
S'written'
p528
tp529
F0.000572737686139748
s(S'which'
p530
S'featured'
p531
tp532
F0.000572737686139748
s(S'compilation'
p533
S'album'
p534
tp535
F0.004581901489117984
s(S'[[det]]'
p536
S'title'
p537
tp538
F0.0028636884306987398
s(S'[[det]]'
p539
S'power'
p540
tp541
F0.001145475372279496
s(g271
S'from'
p542
tp543
F0.000572737686139748
s(g169
S'rock'
p544
tp545
F0.004009163802978236
s(S'[[det]]'
p546
g87
tp547
F0.023482245131729668
s(S'be'
p548
S'viewed'
p549
tp550
F0.000572737686139748
s(S'[[det]]'
p551
S'songs'
p552
tp553
F0.000572737686139748
s(g205
S'singer'
p554
tp555
F0.000572737686139748
s(g91
S'metal'
p556
tp557
F0.006872852233676976
s(S'were'
p558
S'designed'
p559
tp560
F0.000572737686139748
s(S'of'
p561
S'songs'
p562
tp563
F0.000572737686139748
s(S'[[det]]'
p564
S'tribute'
p565
tp566
F0.000572737686139748
s(S'[[adj]]'
p567
g102
tp568
F0.000572737686139748
s(S'[[adj]]'
p569
S'rock'
p570
tp571
F0.006872852233676976
s(S'death'
p572
S'metal'
p573
tp574
F0.005154639175257732
s(S'[[det]]'
p575
g484
tp576
F0.018327605956471937
s(S'be'
p577
S'produced'
p578
tp579
F0.000572737686139748
s(S'of'
p580
S'country'
p581
tp582
F0.001145475372279496
s(S'ref'
p583
S'gt'
p584
tp585
F0.000572737686139748
s(S'pop'
p586
S'group'
p587
tp588
F0.001145475372279496
s(S'known'
p589
g114
tp590
F0.001145475372279496
s(S'[[adj]]'
p591
g373
tp592
F0.03665521191294387
s(g471
S'by'
p593
tp594
F0.022909507445589918
s(S'[[det]]'
p595
g572
tp596
F0.001718213058419244
s(S'song'
p597
S'from'
p598
tp599
F0.001718213058419244
s(S'also'
p600
g589
tp601
F0.001145475372279496
s(S'lt'
p602
g583
tp603
F0.000572737686139748
s(S'release'
p604
S'in'
p605
tp606
F0.000572737686139748
s(S'of'
p607
S'albums'
p608
tp609
F0.000572737686139748
s(S'song'
p610
g46
tp611
F0.000572737686139748
s(S'by'
p612
S'singer'
p613
tp614
F0.008018327605956471
s(S'songs'
p615
S'[[con]]'
p616
tp617
F0.000572737686139748
s(S'country'
p618
S'artist'
p619
tp620
F0.000572737686139748
s(S'[[num]]'
p621
S'designed'
p622
tp623
F0.001145475372279496
s(S'[[adj]]'
p624
S'death'
p625
tp626
F0.001718213058419244
s(S'of'
p627
S'album'
p628
tp629
F0.001145475372279496
s(S'songs'
p630
g602
tp631
F0.000572737686139748
s(S'[[adj]]'
p632
S'collected'
p633
tp634
F0.000572737686139748
s(S'[[adj]]'
p635
g355
tp636
F0.008018327605956471
s(g17
S'album'
p637
tp638
F0.001718213058419244
s(g418
S'as'
p639
tp640
F0.000572737686139748
s(S'designed'
p641
S'for'
p642
tp643
F0.000572737686139748
s(S'also'
p644
S'coproduced'
p645
tp646
F0.000572737686139748
s(S'pop'
p647
S'singer'
p648
tp649
F0.004009163802978236
s(S'released'
p650
S'is'
p651
tp652
F0.000572737686139748
s(S'had'
p653
S'recorded'
p654
tp655
F0.001145475372279496
s(S'album'
p656
S'recorded'
p657
tp658
F0.004009163802978236
s(S'[[adj]]'
p659
S'band'
p660
tp661
F0.003436426116838488
s(S'song'
p662
S'by'
p663
tp664
F0.012600229095074456
s(S'on'
p665
g267
tp666
F0.000572737686139748
s(S'by'
p667
S'singersongwriter'
p668
tp669
F0.003436426116838488
s(S'jazz'
p670
S'saxophonist'
p671
tp672
F0.0028636884306987398
s(g284
S'song'
p673
tp674
F0.002290950744558992
s(S'released'
p675
S'on'
p676
tp677
F0.005154639175257732
s(S'[[num]]'
p678
S'solo'
p679
tp680
F0.000572737686139748
s(g491
S'[[adj]]'
p681
tp682
F0.000572737686139748
s(S'by'
p683
g647
tp684
F0.0057273768613974796
s(S'[[det]]'
p685
g662
tp686
F0.023482245131729668
s(S'was'
p687
S'covered'
p688
tp689
F0.000572737686139748
s(g14
S'written'
p690
tp691
F0.000572737686139748
s(S'by'
p692
S'band'
p693
tp694
F0.0028636884306987398
s(S'designed'
p695
S'[[con]]'
p696
tp697
F0.000572737686139748
s(S'music'
p698
S'artist'
p699
tp700
F0.004581901489117984
s(g556
S'band'
p701
tp702
F0.021191294387170677
s(S'in'
p703
S'[[num]]'
p704
tp705
F0.000572737686139748
s(S'been'
p706
S'written'
p707
tp708
F0.001145475372279496
s(g187
S'by'
p709
tp710
F0.004581901489117984
s(S'[[adj]]'
p711
S'group'
p712
tp713
F0.001145475372279496
s(g488
S'rock'
p714
tp715
F0.002290950744558992
s(g552
S'with'
p716
tp717
F0.000572737686139748
s(S'later'
p718
g75
tp719
F0.001145475372279496
s(g565
S'album'
p720
tp721
F0.000572737686139748
s(S'be'
p722
S'released'
p723
tp724
F0.0028636884306987398
s(S'[[det]]'
p725
S'punk'
p726
tp727
F0.001718213058419244
s(S'by'
p728
g595
tp729
F0.017754868270332187
s(g106
g482
tp730
F0.001145475372279496
s(S'featured'
p731
S'by'
p732
tp733
F0.000572737686139748
s(S'have'
p734
S'featured'
p735
tp736
F0.001145475372279496
s(S'by'
p737
S'pianist'
p738
tp739
F0.000572737686139748
s(g633
S'by'
p740
tp741
F0.000572737686139748
s(S'not'
p742
S'written'
p743
tp744
F0.000572737686139748
s(S'[[det]]'
p745
S'musician'
p746
tp747
F0.000572737686139748
s(S'first'
p748
g347
tp749
F0.001145475372279496
s(S'revealed'
p750
S'that'
p751
tp752
F0.001145475372279496
s(S'[[det]]'
p753
S'singersongwriter'
p754
tp755
F0.000572737686139748
s(S'[[det]]'
p756
S'designed'
p757
tp758
F0.000572737686139748
s(S'is'
p759
S'produced'
p760
tp761
F0.000572737686139748
s(S'by'
p762
g498
tp763
F0.005154639175257732
s(S'featured'
p764
S'where'
p765
tp766
F0.000572737686139748
s(S'[[det]]'
p767
g533
tp768
F0.0028636884306987398
s(S'covered'
p769
S'[[con]]'
p770
tp771
F0.000572737686139748
s(S'release'
p772
S'from'
p773
tp774
F0.001145475372279496
s(g142
S'with'
p775
tp776
F0.000572737686139748
s(S'solo'
p777
S'studio'
p778
tp779
F0.000572737686139748
s(g232
S'as'
p780
tp781
F0.000572737686139748
s(S'by'
p782
S'artist'
p783
tp784
F0.001145475372279496
s(S'were'
p785
S'produced'
p786
tp787
F0.000572737686139748
s(S'[[prp]]'
p788
S'project'
p789
tp790
F0.000572737686139748
s(g82
S'between'
p791
tp792
F0.001145475372279496
s(S'rock'
p793
S'song'
p794
tp795
F0.001718213058419244
s(S'[[det]]'
p796
S'based'
p797
tp798
F0.000572737686139748
s(S'[[det]]'
p799
S'band'
p800
tp801
F0.006300114547537228
s(S'featured'
p802
S'[[adj]]'
p803
tp804
F0.001145475372279496
s(S'from'
p805
S'band'
p806
tp807
F0.000572737686139748
s(S'by'
p808
S'musician'
p809
tp810
F0.0028636884306987398
s(S'by'
p811
S'thrash'
p812
tp813
F0.000572737686139748
s(S'from'
p814
S'album'
p815
tp816
F0.001718213058419244
s(S'[[num]]'
p817
S'song'
p818
tp819
F0.003436426116838488
s(S'release'
p820
S'with'
p821
tp822
F0.000572737686139748
s(S'album'
p823
S'to'
p824
tp825
F0.001145475372279496
s(S'[[num]]'
p826
S'studio'
p827
tp828
F0.001718213058419244
s(S'album'
p829
S'of'
p830
tp831
F0.0074455899198167235
s(S'from'
p832
S'[[det]]'
p833
tp834
F0.001718213058419244
s(g468
S'from'
p835
tp836
F0.000572737686139748
s(S'by'
p837
S'metal'
p838
tp839
F0.002290950744558992
s(S'written'
p840
S'for'
p841
tp842
F0.001145475372279496
s(S'[[con]]'
p843
S'released'
p844
tp845
F0.001145475372279496
s(S'recorded'
p846
S'during'
p847
tp848
F0.000572737686139748
s(S'[[num]]'
p849
S'album'
p850
tp851
F0.006872852233676976
s(S'[[det]]'
p852
g10
tp853
F0.001145475372279496
s(S'[[adj]]'
p854
S'solo'
p855
tp856
F0.004009163802978236
s(S'[[det]]'
p857
S'jazz'
p858
tp859
F0.001718213058419244
s(S'featured'
p860
S'[[pro]]'
p861
tp862
F0.000572737686139748
s(S'[[adj]]'
p863
S'length'
p864
tp865
F0.001145475372279496
s(S'released'
p866
S'produced'
p867
tp868
F0.000572737686139748
s(S'collaboration'
p869
S'with'
p870
tp871
F0.000572737686139748
s(g537
g412
tp872
F0.0028636884306987398
s(S'by'
p873
S'power'
p874
tp875
F0.002290950744558992
s(g383
S'album'
p876
tp877
F0.000572737686139748
s(S'[[con]]'
p878
S'compiled'
p879
tp880
F0.000572737686139748
s(g312
S'as'
p881
tp882
F0.000572737686139748
s(S'covered'
p883
S'[[adj]]'
p884
tp885
F0.000572737686139748
s(S'[[num]]'
p886
S'featured'
p887
tp888
F0.000572737686139748
s(S'[[num]]'
p889
S'soundtrack'
p890
tp891
F0.000572737686139748
s(S'[[adj]]'
p892
g60
tp893
F0.004009163802978236
s(g148
g698
tp894
F0.00859106529209622
s(S'by'
p895
S'rapper'
p896
tp897
F0.0028636884306987398
s(S'[[det]]'
p898
g93
tp899
F0.000572737686139748
s(g549
S'as'
p900
tp901
F0.000572737686139748
s(g850
S'by'
p902
tp903
F0.09106529209621993
s(S'song'
p904
S'recorded'
p905
tp906
F0.001718213058419244
s(g178
S'artist'
p907
tp908
F0.000572737686139748
s(S'were'
p909
S'written'
p910
tp911
F0.000572737686139748
s(S'rock'
p912
S'group'
p913
tp914
F0.001145475372279496
s(S'were'
p915
g432
tp916
F0.000572737686139748
s(S'was'
p917
S'album'
p918
tp919
F0.001145475372279496
s(g797
S'band'
p920
tp921
F0.000572737686139748
s(S'by'
p922
S'jazz'
p923
tp924
F0.006300114547537228
s(g345
S'album'
p925
tp926
F0.041237113402061855
s(S'album'
p927
S'[[det]]'
p928
tp929
F0.000572737686139748
s(S'[[con]]'
p930
g510
tp931
F0.000572737686139748
s(S'of'
p932
S'singer'
p933
tp934
F0.000572737686139748
s(S'[[adj]]'
p935
S'collaboration'
p936
tp937
F0.000572737686139748
s(S'album'
p938
S'from'
p939
tp940
F0.011454753722794959
s(S'[[con]]'
p941
S'recorded'
p942
tp943
F0.0028636884306987398
s(g517
S'album'
p944
tp945
F0.006872852233676976
s(g864
S'album'
p946
tp947
F0.000572737686139748
s(S'[[con]]'
p948
S'produced'
p949
tp950
F0.003436426116838488
s(g824
S'be'
p951
tp952
F0.001145475372279496
s(S'released'
p953
S'[[adj]]'
p954
tp955
F0.000572737686139748
s(S'song'
p956
g408
tp957
F0.001145475372279496
s(S'on'
p958
S'label'
p959
tp960
F0.000572737686139748
s(g879
S'by'
p961
tp962
F0.000572737686139748
s(S'was'
p963
S'collected'
p964
tp965
F0.000572737686139748
s(S'roll'
p966
S'song'
p967
tp968
F0.000572737686139748
s(S'music'
p969
S'singer'
p970
tp971
F0.004009163802978236
s(g184
g966
tp972
F0.000572737686139748
s(S'recorded'
p973
S'for'
p974
tp975
F0.001145475372279496
s(S'thrash'
p976
S'metal'
p977
tp978
F0.001718213058419244
s(g874
S'metal'
p979
tp980
F0.003436426116838488
s(S'released'
p981
S'was'
p982
tp983
F0.000572737686139748
s(S'was'
p984
g750
tp985
F0.000572737686139748
s(g109
S'that'
p986
tp987
F0.001145475372279496
s(g211
S'written'
p988
tp989
F0.001145475372279496
s(S'[[con]]'
p990
S'from'
p991
tp992
F0.000572737686139748
s(S'by'
p993
S'guitarist'
p994
tp995
F0.001145475372279496
s(g681
g630
tp996
F0.000572737686139748
s.