(dp0
(S'[[det]]'
p1
S'length'
p2
tp3
F0.009174311926605505
s(S'is'
p4
S'built'
p5
tp6
F0.01834862385321101
s(S'in'
p7
S'built'
p8
tp9
F0.009174311926605505
s(S'built'
p10
S'is'
p11
tp12
F0.009174311926605505
s(S'been'
p13
S'produced'
p14
tp15
F0.009174311926605505
s(S'sold'
p16
S'most'
p17
tp18
F0.009174311926605505
s(S'[[num]]'
p19
S'built'
p20
tp21
F0.009174311926605505
s(S'imported'
p22
S'to'
p23
tp24
F0.009174311926605505
s(S'was'
p25
S'manufactured'
p26
tp27
F0.009174311926605505
s(S'launched'
p28
S'on'
p29
tp30
F0.009174311926605505
s(S'produced'
p31
S'[[con]]'
p32
tp33
F0.01834862385321101
s(S'launched'
p34
S'[[num]]'
p35
tp36
F0.009174311926605505
s(S'is'
p37
S'launched'
p38
tp39
F0.01834862385321101
s(S'produced'
p40
S'at'
p41
tp42
F0.03669724770642202
s(S'sold'
p43
S'in'
p44
tp45
F0.06422018348623854
s(S'launched'
p46
S'from'
p47
tp48
F0.01834862385321101
s(S'built'
p49
S'[[det]]'
p50
tp51
F0.009174311926605505
s(S'built'
p52
S'by'
p53
tp54
F0.01834862385321101
s(S'were'
p55
g52
tp56
F0.01834862385321101
s(S'built'
p57
S'[[prp]]'
p58
tp59
F0.009174311926605505
s(S'is'
p60
S'sold'
p61
tp62
F0.009174311926605505
s(S'was'
p63
S'assembled'
p64
tp65
F0.009174311926605505
s(S'was'
p66
S'sold'
p67
tp68
F0.01834862385321101
s(S'been'
p69
S'launched'
p70
tp71
F0.009174311926605505
s(S'built'
p72
S'near'
p73
tp74
F0.01834862385321101
s(g26
S'in'
p75
tp76
F0.03669724770642202
s(g67
S'[[num]]'
p77
tp78
F0.009174311926605505
s(S'be'
p79
g43
tp80
F0.009174311926605505
s(g20
S'in'
p81
tp82
F0.07339449541284404
s(S'[[adj]]'
p83
S'sold'
p84
tp85
F0.009174311926605505
s(S'[[det]]'
p86
S'built'
p87
tp88
F0.009174311926605505
s(S'was'
p89
S'imported'
p90
tp91
F0.009174311926605505
s(S'launched'
p92
S'in'
p93
tp94
F0.03669724770642202
s(S'launched'
p95
S'[[pro]]'
p96
tp97
F0.009174311926605505
s(S'first'
p98
S'produced'
p99
tp100
F0.009174311926605505
s(S'assembled'
p101
S'at'
p102
tp103
F0.009174311926605505
s(S'produced'
p104
S'in'
p105
tp106
F0.045871559633027525
s(S'be'
p107
S'built'
p108
tp109
F0.009174311926605505
s(S'been'
p110
S'sold'
p111
tp112
F0.009174311926605505
s(S'be'
p113
g92
tp114
F0.009174311926605505
s(S'built'
p115
S'[[num]]'
p116
tp117
F0.009174311926605505
s(S'was'
p118
S'launched'
p119
tp120
F0.045871559633027525
s(S'was'
p121
S'built'
p122
tp123
F0.045871559633027525
s(S'being'
p124
S'produced'
p125
tp126
F0.009174311926605505
s(S'been'
p127
S'built'
p128
tp129
F0.01834862385321101
s(S'was'
p130
S'produced'
p131
tp132
F0.027522935779816515
s(S'is'
p133
g31
tp134
F0.027522935779816515
s(S'then'
p135
S'produced'
p136
tp137
F0.009174311926605505
s(S'imported'
p138
S'from'
p139
tp140
F0.01834862385321101
s(g119
S'by'
p141
tp142
F0.009174311926605505
s(S'[[con]]'
p143
S'manufactured'
p144
tp145
F0.009174311926605505
s(S'also'
p146
S'sold'
p147
tp148
F0.009174311926605505
s(g64
S'in'
p149
tp150
F0.01834862385321101
s(S'built'
p151
S'along'
p152
tp153
F0.009174311926605505
s(S'built'
p154
S'at'
p155
tp156
F0.009174311926605505
s(g2
S'of'
p157
tp158
F0.009174311926605505
s(S'has'
p159
S'built'
p160
tp161
F0.009174311926605505
s(S'[[adj]]'
p162
S'built'
p163
tp164
F0.009174311926605505
s(S'built'
p165
S'[[con]]'
p166
tp167
F0.009174311926605505
s(S'is'
p168
S'manufactured'
p169
tp170
F0.009174311926605505
s.