(dp0
(S'television'
p1
S'drama'
p2
tp3
F0.0004065040650406504
s(S'[[adj]]'
p4
S'adventure'
p5
tp6
F0.0008130081300813008
s(S'[[det]]'
p7
S'thriller'
p8
tp9
F0.0012195121951219512
s(S'thriller'
p10
S'directed'
p11
tp12
F0.0012195121951219512
s(S'gt'
p13
S'[[con]]'
p14
tp15
F0.0008130081300813008
s(S'with'
p16
S'[[det]]'
p17
tp18
F0.0016260162601626016
s(S'[[adj]]'
p19
S'created'
p20
tp21
F0.0004065040650406504
s(S'be'
p22
S'written'
p23
tp24
F0.0004065040650406504
s(S'[[adj]]'
p25
S'romance'
p26
tp27
F0.0004065040650406504
s(S'comedy'
p28
S'horror'
p29
tp30
F0.0004065040650406504
s(S'by'
p31
S'[[con]]'
p32
tp33
F0.01869918699186992
s(S's'
p34
S'book'
p35
tp36
F0.0012195121951219512
s(S'[[num]]'
p37
S'starring'
p38
tp39
F0.0008130081300813008
s(S'novel'
p40
S'by'
p41
tp42
F0.0065040650406504065
s(S'[[num]]'
p43
S'written'
p44
tp45
F0.0008130081300813008
s(S'film'
p46
S'[[con]]'
p47
tp48
F0.0008130081300813008
s(S'[[num]]'
p49
S'horror'
p50
tp51
F0.005284552845528455
s(S'[[adj]]'
p52
S'cast'
p53
tp54
F0.0004065040650406504
s(S'was'
p55
S'directed'
p56
tp57
F0.0004065040650406504
s(S'adapted'
p58
S'[[num]]'
p59
tp60
F0.0004065040650406504
s(S'mystery'
p61
S'crime'
p62
tp63
F0.0004065040650406504
s(S'fantasy'
p64
S'adventure'
p65
tp66
F0.0004065040650406504
s(S'[[det]]'
p67
S'children'
p68
tp69
F0.0012195121951219512
s(S'adapted'
p70
S'into'
p71
tp72
F0.0008130081300813008
s(S'film'
p73
S'in'
p74
tp75
F0.0004065040650406504
s(S'directed'
p76
S'that'
p77
tp78
F0.0004065040650406504
s(S'about'
p79
S'directed'
p80
tp81
F0.0008130081300813008
s(S'[[det]]'
p82
S'sports'
p83
tp84
F0.0004065040650406504
s(S'fantasy'
p85
S'novel'
p86
tp87
F0.0008130081300813008
s(S'based'
p88
S'was'
p89
tp90
F0.0004065040650406504
s(S'[[det]]'
p91
S'collection'
p92
tp93
F0.0004065040650406504
s(S'was'
p94
S'written'
p95
tp96
F0.004471544715447155
s(S'directed'
p97
S'based'
p98
tp99
F0.0008130081300813008
s(S'feature'
p100
S'film'
p101
tp102
F0.004471544715447155
s(S'starring'
p103
S'with'
p104
tp105
F0.0008130081300813008
s(S'[[adj]]'
p106
S'[[con]]'
p107
tp108
F0.0008130081300813008
s(S'[[det]]'
p109
S'cult'
p110
tp111
F0.0004065040650406504
s(S'based'
p112
S'by'
p113
tp114
F0.002845528455284553
s(S'[[con]]'
p115
S'book'
p116
tp117
F0.0004065040650406504
s(S'[[adj]]'
p118
S'comedy'
p119
tp120
F0.012195121951219513
s(S'television'
p121
S'film'
p122
tp123
F0.0012195121951219512
s(S'was'
p124
S'released'
p125
tp126
F0.0004065040650406504
s(S'gt'
p127
S'made'
p128
tp129
F0.0004065040650406504
s(g77
S'starred'
p130
tp131
F0.0004065040650406504
s(S'edited'
p132
S'[[con]]'
p133
tp134
F0.0004065040650406504
s(S'comedy'
p135
S'crime'
p136
tp137
F0.0004065040650406504
s(S'anthology'
p138
S'edited'
p139
tp140
F0.0008130081300813008
s(S'documentary'
p141
S'directed'
p142
tp143
F0.0008130081300813008
s(S'[[det]]'
p144
S'novel'
p145
tp146
F0.0024390243902439024
s(S'[[num]]'
p147
S'war'
p148
tp149
F0.0020325203252032522
s(S'[[det]]'
p150
S'adventure'
p151
tp152
F0.0004065040650406504
s(S'fantasy'
p153
S'film'
p154
tp155
F0.0016260162601626016
s(g50
S'film'
p156
tp157
F0.00975609756097561
s(S'[[num]]'
p158
S'crime'
p159
tp160
F0.00894308943089431
s(S'[[num]]'
p161
S'comedydrama'
p162
tp163
F0.003658536585365854
s(S'comedy'
p164
S'directed'
p165
tp166
F0.0016260162601626016
s(S'adapted'
p167
S'as'
p168
tp169
F0.0004065040650406504
s(S'book'
p170
g34
tp171
F0.0004065040650406504
s(S'by'
p172
S'author'
p173
tp174
F0.0012195121951219512
s(S'[[num]]'
p175
S'road'
p176
tp177
F0.0008130081300813008
s(S'[[adj]]'
p178
S'crime'
p179
tp180
F0.0020325203252032522
s(g168
S'[[det]]'
p181
tp182
F0.0004065040650406504
s(S'into'
p183
S'[[det]]'
p184
tp185
F0.0004065040650406504
s(S'romance'
p186
S'film'
p187
tp188
F0.0020325203252032522
s(S'based'
p189
S'from'
p190
tp191
F0.0004065040650406504
s(S'was'
p192
g70
tp193
F0.0016260162601626016
s(S'illustrated'
p194
S'by'
p195
tp196
F0.0008130081300813008
s(S'by'
p197
S'writer'
p198
tp199
F0.0012195121951219512
s(S'based'
p200
S'upon'
p201
tp202
F0.0004065040650406504
s(S'[[adj]]'
p203
S'history'
p204
tp205
F0.0004065040650406504
s(g34
S'written'
p206
tp207
F0.0004065040650406504
s(g156
S'from'
p208
tp209
F0.0008130081300813008
s(S'[[con]]'
p210
S'lyrics'
p211
tp212
F0.0012195121951219512
s(S'gt'
p213
S'de'
p214
tp215
F0.0004065040650406504
s(S'[[con]]'
p216
S'action'
p217
tp218
F0.0004065040650406504
s(S'[[num]]'
p219
S'book'
p220
tp221
F0.0008130081300813008
s(S'written'
p222
S'[[con]]'
p223
tp224
F0.027642276422764227
s(S'written'
p225
S'directed'
p226
tp227
F0.0012195121951219512
s(S'[[det]]'
p228
g141
tp229
F0.0012195121951219512
s(S'[[det]]'
p230
S'fantasy'
p231
tp232
F0.0004065040650406504
s(S'film'
p233
S'[[adj]]'
p234
tp235
F0.0020325203252032522
s(S'produced'
p236
S'by'
p237
tp238
F0.006097560975609756
s(S'[[con]]'
p239
S'starring'
p240
tp241
F0.05569105691056911
s(g53
S'comedydrama'
p242
tp243
F0.0004065040650406504
s(S'[[adj]]'
p244
S'directed'
p245
tp246
F0.0008130081300813008
s(S'[[num]]'
p247
S'novel'
p248
tp249
F0.0020325203252032522
s(S'produced'
p250
S'[[con]]'
p251
tp252
F0.005284552845528455
s(S'[[num]]'
p253
S'detective'
p254
tp255
F0.0008130081300813008
s(S'based'
p256
S'[[con]]'
p257
tp258
F0.0008130081300813008
s(S'written'
p259
S'for'
p260
tp261
F0.0004065040650406504
s(S'lyrics'
p262
S'[[con]]'
p263
tp264
F0.0016260162601626016
s(S'[[con]]'
p265
S'crime'
p266
tp267
F0.0004065040650406504
s(g119
S'film'
p268
tp269
F0.026422764227642278
s(g139
S'by'
p270
tp271
F0.0012195121951219512
s(S'film'
p272
S'that'
p273
tp274
F0.0004065040650406504
s(S'[[det]]'
p275
S'script'
p276
tp277
F0.0004065040650406504
s(S'by'
p278
S'produced'
p279
tp280
F0.0004065040650406504
s(S'[[num]]'
p281
g100
tp282
F0.002845528455284553
s(S'action'
p283
S'thriller'
p284
tp285
F0.0016260162601626016
s(S'is'
p286
S'film'
p287
tp288
F0.0004065040650406504
s(S'[[num]]'
p289
S'based'
p290
tp291
F0.0012195121951219512
s(S'action'
p292
S'written'
p293
tp294
F0.0008130081300813008
s(S'assassination'
p295
g216
tp296
F0.0004065040650406504
s(S'adapted'
p297
S'by'
p298
tp299
F0.0004065040650406504
s(S'drama'
p300
S'film'
p301
tp302
F0.023983739837398373
s(g176
S'movie'
p303
tp304
F0.0008130081300813008
s(S'[[adj]]'
p305
S'action'
p306
tp307
F0.0016260162601626016
s(S'directed'
p308
S'as'
p309
tp310
F0.0004065040650406504
s(S'by'
p311
S'[[adj]]'
p312
tp313
F0.0008130081300813008
s(S'not'
p314
S'based'
p315
tp316
F0.0004065040650406504
s(S'by'
p317
S'starring'
p318
tp319
F0.013414634146341463
s(S'[[det]]'
p320
S'war'
p321
tp322
F0.0004065040650406504
s(S'gt'
p323
S'of'
p324
tp325
F0.0004065040650406504
s(S'[[num]]'
p326
S'language'
p327
tp328
F0.0016260162601626016
s(S'thriller'
p329
S'film'
p330
tp331
F0.013821138211382113
s(S'[[num]]'
p332
g283
tp333
F0.00934959349593496
s(g208
S'directed'
p334
tp335
F0.0004065040650406504
s(S'as'
p336
S'[[num]]'
p337
tp338
F0.0004065040650406504
s(g34
S'picture'
p339
tp340
F0.0004065040650406504
s(S'[[num]]'
p341
S'produced'
p342
tp343
F0.0004065040650406504
s(S'directed'
p344
S'which'
p345
tp346
F0.0004065040650406504
s(S'[[adj]]'
p347
S'mystery'
p348
tp349
F0.0004065040650406504
s(S'is'
p350
S'[[num]]'
p351
tp352
F0.005691056910569106
s(S'[[con]]'
p353
S'featuring'
p354
tp355
F0.0032520325203252032
s(S'[[det]]'
p356
S'drama'
p357
tp358
F0.0012195121951219512
s(S'comedy'
p359
S'action'
p360
tp361
F0.0004065040650406504
s(S'starred'
p362
S'by'
p363
tp364
F0.0004065040650406504
s(S'[[det]]'
p365
S'mystery'
p366
tp367
F0.0004065040650406504
s(S'of'
p368
S'directed'
p369
tp370
F0.0004065040650406504
s(S'is'
p371
S'written'
p372
tp373
F0.0008130081300813008
s(S'[[adj]]'
p374
S'fantasy'
p375
tp376
F0.0008130081300813008
s(S'written'
p377
S'by'
p378
tp379
F0.018292682926829267
s(S'drama'
p380
S'thriller'
p381
tp382
F0.0004065040650406504
s(S'gt'
p383
S'with'
p384
tp385
F0.0004065040650406504
s(S'film'
p386
g250
tp387
F0.0032520325203252032
s(S'[[adj]]'
p388
S'film'
p389
tp390
F0.013008130081300813
s(S'family'
p391
S'comedy'
p392
tp393
F0.0008130081300813008
s(S'is'
p394
S'[[adj]]'
p395
tp396
F0.0008130081300813008
s(g110
S'[[num]]'
p397
tp398
F0.0004065040650406504
s(S'[[det]]'
p399
S'gentleman'
p400
tp401
F0.0004065040650406504
s(S'[[det]]'
p402
g170
tp403
F0.0024390243902439024
s(S'film'
p404
S'noir'
p405
tp406
F0.0012195121951219512
s(S'[[adj]]'
p407
S'documentary'
p408
tp409
F0.0004065040650406504
s(S'directed'
p410
S'starring'
p411
tp412
F0.012195121951219513
s(S'gt'
p413
S'also'
p414
tp415
F0.0004065040650406504
s(S'is'
p416
g200
tp417
F0.0020325203252032522
s(g211
S'by'
p418
tp419
F0.0016260162601626016
s(S'drama'
p420
S'starring'
p421
tp422
F0.0004065040650406504
s(S'gt'
p423
S'[[adj]]'
p424
tp425
F0.0008130081300813008
s(g83
S'drama'
p426
tp427
F0.0004065040650406504
s(S'[[con]]'
p428
S'stars'
p429
tp430
F0.0016260162601626016
s(S'known'
p431
g394
tp432
F0.0040650406504065045
s(S'[[num]]'
p433
g61
tp434
F0.0024390243902439024
s(S'gt'
p435
S'see'
p436
tp437
F0.0004065040650406504
s(S'produced'
p438
S'directed'
p439
tp440
F0.0008130081300813008
s(S'[[adj]]'
p441
S'horror'
p442
tp443
F0.0016260162601626016
s(S'by'
p444
S'gt'
p445
tp446
F0.0004065040650406504
s(S'[[pro]]'
p447
S'gt'
p448
tp449
F0.0004065040650406504
s(S'collection'
p450
S'of'
p451
tp452
F0.0004065040650406504
s(S'action'
p453
S'comedy'
p454
tp455
F0.0020325203252032522
s(S'film'
p456
S'comedy'
p457
tp458
F0.0004065040650406504
s(g240
S'[[con]]'
p459
tp460
F0.031300813008130084
s(S'documentary'
p461
S'film'
p462
tp463
F0.002845528455284553
s(g351
S'film'
p464
tp465
F0.02032520325203252
s(S'released'
p466
S'is'
p467
tp468
F0.0004065040650406504
s(S'[[num]]'
p469
S'adventure'
p470
tp471
F0.002845528455284553
s(S'screenplay'
p472
S'written'
p473
tp474
F0.0004065040650406504
s(g470
S'film'
p475
tp476
F0.004471544715447155
s(S'[[adj]]'
p477
g262
tp478
F0.0016260162601626016
s(S'drama'
p479
S'directed'
p480
tp481
F0.0008130081300813008
s(S'[[con]]'
p482
S'directed'
p483
tp484
F0.03008130081300813
s(g254
S'film'
p485
tp486
F0.0008130081300813008
s(g71
S'[[num]]'
p487
tp488
F0.0004065040650406504
s(S'[[con]]'
p489
g236
tp490
F0.005691056910569106
s(S'[[adj]]'
p491
S'novel'
p492
tp493
F0.0020325203252032522
s(S'[[det]]'
p494
S'color'
p495
tp496
F0.0008130081300813008
s(S'were'
p497
S'created'
p498
tp499
F0.0004065040650406504
s(S'originally'
p500
S'developed'
p501
tp502
F0.0004065040650406504
s(S'based'
p503
S'directed'
p504
tp505
F0.0004065040650406504
s(S'book'
p506
S'written'
p507
tp508
F0.002845528455284553
s(S'[[num]]'
p509
S'fantasy'
p510
tp511
F0.0020325203252032522
s(S'originally'
p512
S'created'
p513
tp514
F0.0004065040650406504
s(S'[[det]]'
p515
g456
tp516
F0.004471544715447155
s(S'[[adj]]'
p517
S'book'
p518
tp519
F0.0016260162601626016
s(S'[[num]]'
p520
S'movie'
p521
tp522
F0.0024390243902439024
s(S'[[num]]'
p523
g461
tp524
F0.0020325203252032522
s(S'[[num]]'
p525
g423
tp526
F0.0004065040650406504
s(S'comedy'
p527
S'family'
p528
tp529
F0.0004065040650406504
s(g327
S'film'
p530
tp531
F0.0024390243902439024
s(S'[[adj]]'
p532
g138
tp533
F0.0004065040650406504
s(S'[[det]]'
p534
S'crime'
p535
tp536
F0.0004065040650406504
s(g92
S'by'
p537
tp538
F0.0008130081300813008
s(S'mystery'
p539
S'film'
p540
tp541
F0.002845528455284553
s(S'created'
p542
S'by'
p543
tp544
F0.0024390243902439024
s(S'based'
p545
S'on'
p546
tp547
F0.0012195121951219512
s(S'crime'
p548
S'thriller'
p549
tp550
F0.0016260162601626016
s(S'were'
p551
S'written'
p552
tp553
F0.0004065040650406504
s(S'directed'
p554
g16
tp555
F0.0016260162601626016
s(S'[[det]]'
p556
S'written'
p557
tp558
F0.0004065040650406504
s(S'was'
p559
g256
tp560
F0.0008130081300813008
s(g68
g34
tp561
F0.0016260162601626016
s(g268
S'directed'
p562
tp563
F0.09634146341463415
s(g345
S'starred'
p564
tp565
F0.0004065040650406504
s(S'directed'
p566
S'written'
p567
tp568
F0.0040650406504065045
s(S'written'
p569
S'produced'
p570
tp571
F0.0008130081300813008
s(g510
S'action'
p572
tp573
F0.0004065040650406504
s(S'drama'
p574
S'[[adj]]'
p575
tp576
F0.0008130081300813008
s(S'[[con]]'
p577
g132
tp578
F0.0008130081300813008
s(S'created'
p579
S'with'
p580
tp581
F0.0004065040650406504
s(S'film'
p582
S'is'
p583
tp584
F0.0004065040650406504
s(S'was'
p585
g542
tp586
F0.0008130081300813008
s(S'[[num]]'
p587
g121
tp588
F0.0016260162601626016
s(S'directed'
p589
S'by'
p590
tp591
F0.07032520325203252
s(S'created'
p592
S'[[con]]'
p593
tp594
F0.0004065040650406504
s(g572
S'film'
p595
tp596
F0.007723577235772358
s(g303
S'directed'
p597
tp598
F0.0024390243902439024
s(S'film'
p599
S'written'
p600
tp601
F0.022357723577235773
s(S'known'
p602
g336
tp603
F0.0004065040650406504
s(S'film'
p604
g124
tp605
F0.0004065040650406504
s(g405
S'starring'
p606
tp607
F0.0004065040650406504
s(S'in'
p608
g37
tp609
F0.0008130081300813008
s(g521
S'[[con]]'
p610
tp611
F0.0004065040650406504
s(S'been'
p612
S'written'
p613
tp614
F0.0008130081300813008
s(g273
S'was'
p615
tp616
F0.0004065040650406504
s(S'also'
p617
g431
tp618
F0.003658536585365854
s(S'film'
p619
S'stars'
p620
tp621
F0.0004065040650406504
s(g148
S'film'
p622
tp623
F0.002845528455284553
s(g339
S'book'
p624
tp625
F0.0004065040650406504
s(S'film'
p626
g368
tp627
F0.0004065040650406504
s(S'[[num]]'
p628
g391
tp629
F0.0020325203252032522
s(S'[[adj]]'
p630
S'based'
p631
tp632
F0.0004065040650406504
s(g162
S'film'
p633
tp634
F0.005691056910569106
s(S'film'
p635
g503
tp636
F0.0008130081300813008
s(S'[[con]]'
p637
g362
tp638
F0.0004065040650406504
s(g159
S'drama'
p639
tp640
F0.0024390243902439024
s(g562
g239
tp641
F0.04796747967479675
s(S'[[det]]'
p642
S'horror'
p643
tp644
F0.0008130081300813008
s(S'[[con]]'
p645
g194
tp646
F0.0008130081300813008
s(g220
S'by'
p647
tp648
F0.002845528455284553
s(S'is'
p649
S'created'
p650
tp651
F0.0004065040650406504
s(S'from'
p652
S'written'
p653
tp654
F0.0004065040650406504
s(S'film'
p655
g79
tp656
F0.0008130081300813008
s(S'[[adj]]'
p657
S'written'
p658
tp659
F0.0012195121951219512
s(S'written'
p660
S'to'
p661
tp662
F0.0004065040650406504
s(S'[[det]]'
p663
S'play'
p664
tp665
F0.0004065040650406504
s(S'[[adj]]'
p666
S'drama'
p667
tp668
F0.008130081300813009
s(S'[[num]]'
p669
g164
tp670
F0.013008130081300813
s(g204
S'novel'
p671
tp672
F0.0004065040650406504
s(g518
S'in'
p673
tp674
F0.0004065040650406504
s(g17
S'screenplay'
p675
tp676
F0.0008130081300813008
s(g664
g297
tp677
F0.0004065040650406504
s(S'[[num]]'
p678
g300
tp679
F0.011788617886178862
s(g234
S'starring'
p680
tp681
F0.0004065040650406504
s(S'by'
p682
S'[[det]]'
p683
tp684
F0.0008130081300813008
s(S'starring'
p685
S'[[det]]'
p686
tp687
F0.0008130081300813008
s(g683
S'writer'
p688
tp689
F0.0008130081300813008
s(S'movie'
p690
S'produced'
p691
tp692
F0.0004065040650406504
s(S'comedy'
p693
S'written'
p694
tp695
F0.0004065040650406504
s(S'[[adj]]'
p696
S'feature'
p697
tp698
F0.0008130081300813008
s(S'novel'
p699
S'written'
p700
tp701
F0.0016260162601626016
s(S'authored'
p702
S'by'
p703
tp704
F0.0004065040650406504
s(S'[[num]]'
p705
S'children'
p706
tp707
F0.0004065040650406504
s(S'comedy'
p708
S'drama'
p709
tp710
F0.0012195121951219512
s(S'film'
p711
S'released'
p712
tp713
F0.0012195121951219512
s(S'starring'
p714
S'as'
p715
tp716
F0.0012195121951219512
s(g400
S'[[num]]'
p717
tp718
F0.0004065040650406504
s(S'gt'
p719
S'by'
p720
tp721
F0.0004065040650406504
s(S'made'
p722
S'by'
p723
tp724
F0.0004065040650406504
s(S'[[adj]]'
p725
g329
tp726
F0.002845528455284553
s(S'[[det]]'
p727
S'language'
p728
tp729
F0.0008130081300813008
s(g457
S'starring'
p730
tp731
F0.0008130081300813008
s(S'film'
p732
g479
tp733
F0.0004065040650406504
s(S'comedy'
p734
g388
tp735
F0.0020325203252032522
s(S'article'
p736
g350
tp737
F0.0004065040650406504
s(S'gt'
p738
S'[[pro]]'
p739
tp740
F0.0004065040650406504
s(S'not'
p741
S'written'
p742
tp743
F0.0004065040650406504
s(S'[[num]]'
p744
S'thriller'
p745
tp746
F0.007317073170731708
s(S'written'
p747
S'about'
p748
tp749
F0.0004065040650406504
s(S'[[con]]'
p750
S'[[det]]'
p751
tp752
F0.0008130081300813008
s(S'was'
p753
g500
tp754
F0.0008130081300813008
s(g179
S'film'
p755
tp756
F0.00853658536585366
s(S'arts'
p757
S'film'
p758
tp759
F0.0012195121951219512
s(S'gt'
p760
S'[[num]]'
p761
tp762
F0.0004065040650406504
s(g312
S'author'
p763
tp764
F0.0008130081300813008
s(g530
S'starring'
p765
tp766
F0.032520325203252036
s(g372
S'that'
p767
tp768
F0.0008130081300813008
s(g501
S'by'
p769
tp770
F0.0004065040650406504
s(S'produced'
p771
S'with'
p772
tp773
F0.0004065040650406504
s(g263
S'[[adj]]'
p774
tp775
F0.0008130081300813008
s(S'aka'
p776
S'is'
p777
tp778
F0.0012195121951219512
s(S'family'
p779
S'adventure'
p780
tp781
F0.0004065040650406504
s(S'book'
p782
g210
tp783
F0.0004065040650406504
s(S'family'
p784
S'film'
p785
tp786
F0.0012195121951219512
s(S'[[con]]'
p787
S'written'
p788
tp789
F0.00853658536585366
s(S'[[num]]'
p790
g186
tp791
F0.0016260162601626016
s(S'film'
p792
S'featuring'
p793
tp794
F0.0016260162601626016
s(g429
S'[[con]]'
p795
tp796
F0.0008130081300813008
s(S'[[det]]'
p797
g295
tp798
F0.0004065040650406504
s(S'titled'
p799
S'is'
p800
tp801
F0.0004065040650406504
s(g495
S'film'
p802
tp803
F0.0008130081300813008
s(g793
S'[[con]]'
p804
tp805
F0.0004065040650406504
s(S'[[adj]]'
p806
g450
tp807
F0.0008130081300813008
s(g712
S'starring'
p808
tp809
F0.0016260162601626016
s(S'[[det]]'
p810
S'starring'
p811
tp812
F0.0004065040650406504
s(S'with'
p813
S'lyrics'
p814
tp815
F0.0004065040650406504
s(S'noir'
p816
S'directed'
p817
tp818
F0.0008130081300813008
s(S'film'
p819
g722
tp820
F0.0004065040650406504
s(S'by'
p821
g619
tp822
F0.0004065040650406504
s(S'directed'
p823
S'produced'
p824
tp825
F0.0016260162601626016
s(S'gt'
p826
S'was'
p827
tp828
F0.0004065040650406504
s(S'[[adj]]'
p829
g757
tp830
F0.0012195121951219512
s(S'[[det]]'
p831
g734
tp832
F0.0024390243902439024
s(S'released'
p833
g608
tp834
F0.0004065040650406504
s(S'directed'
p835
S'gt'
p836
tp837
F0.0004065040650406504
s(g151
g833
tp838
F0.0004065040650406504
s(S'[[det]]'
p839
S'anthology'
p840
tp841
F0.0004065040650406504
s(S'starring'
p842
S'directed'
p843
tp844
F0.0008130081300813008
s.