(dp0
(S'were'
p1
S'based'
p2
tp3
F0.037037037037037035
s(S'was'
p4
S'based'
p5
tp6
F0.14814814814814814
s(S'[[num]]'
p7
S'based'
p8
tp9
F0.037037037037037035
s(S'is'
p10
S'based'
p11
tp12
F0.14814814814814814
s(S'been'
p13
S'based'
p14
tp15
F0.037037037037037035
s(g5
S'from'
p16
tp17
F0.037037037037037035
s(S'be'
p18
S'based'
p19
tp20
F0.07407407407407407
s(S'based'
p21
S'with'
p22
tp23
F0.037037037037037035
s(S'based'
p24
S'[[con]]'
p25
tp26
F0.07407407407407407
s(S'based'
p27
S'upon'
p28
tp29
F0.07407407407407407
s(S'now'
p30
S'based'
p31
tp32
F0.037037037037037035
s(S'based'
p33
S'at'
p34
tp35
F0.07407407407407407
s(g19
S'on'
p36
tp37
F0.18518518518518517
s.