(dp0
(S'founded'
p1
S'to'
p2
tp3
F0.008333333333333333
s(S'[[num]]'
p4
S'founded'
p5
tp6
F0.008333333333333333
s(S'[[det]]'
p7
S'founded'
p8
tp9
F0.008333333333333333
s(S'[[con]]'
p10
S'founded'
p11
tp12
F0.016666666666666666
s(S'formed'
p13
S'after'
p14
tp15
F0.008333333333333333
s(S'consisting'
p16
S'of'
p17
tp18
F0.025
s(S'announced'
p19
S'[[pro]]'
p20
tp21
F0.008333333333333333
s(S'formed'
p22
S'with'
p23
tp24
F0.016666666666666666
s(S'was'
p25
S'led'
p26
tp27
F0.016666666666666666
s(S'formed'
p28
S'[[con]]'
p29
tp30
F0.008333333333333333
s(S'lead'
p31
S'singer'
p32
tp33
F0.025
s(S'founded'
p34
S'under'
p35
tp36
F0.008333333333333333
s(S'were'
p37
S'led'
p38
tp39
F0.008333333333333333
s(S'composed'
p40
S'of'
p41
tp42
F0.016666666666666666
s(S'[[det]]'
p43
S'duo'
p44
tp45
F0.008333333333333333
s(S'been'
p46
S'founded'
p47
tp48
F0.008333333333333333
s(S'group'
p49
S'consisting'
p50
tp51
F0.016666666666666666
s(S'[[con]]'
p52
S'led'
p53
tp54
F0.008333333333333333
s(S'were'
p55
S'founded'
p56
tp57
F0.016666666666666666
s(S'after'
p58
S'announced'
p59
tp60
F0.008333333333333333
s(S'guitarist'
p61
S'[[con]]'
p62
tp63
F0.008333333333333333
s(S'year'
p64
S'with'
p65
tp66
F0.008333333333333333
s(S'[[con]]'
p67
S'formed'
p68
tp69
F0.008333333333333333
s(S'also'
p70
S'announced'
p71
tp72
F0.008333333333333333
s(S'[[det]]'
p73
S'rap'
p74
tp75
F0.016666666666666666
s(S'announced'
p76
S'by'
p77
tp78
F0.016666666666666666
s(S'is'
p79
S'led'
p80
tp81
F0.008333333333333333
s(S'[[adj]]'
p82
S'lead'
p83
tp84
F0.008333333333333333
s(S'[[det]]'
p85
S'bassist'
p86
tp87
F0.008333333333333333
s(S'consisted'
p88
S'[[con]]'
p89
tp90
F0.008333333333333333
s(S'has'
p91
S'announced'
p92
tp93
F0.008333333333333333
s(S'[[con]]'
p94
S'guitarist'
p95
tp96
F0.008333333333333333
s(S'currently'
p97
S'consists'
p98
tp99
F0.008333333333333333
s(S'is'
p100
S'composed'
p101
tp102
F0.016666666666666666
s(S'also'
p103
S'founded'
p104
tp105
F0.008333333333333333
s(S'composed'
p106
S'with'
p107
tp108
F0.008333333333333333
s(S'consists'
p109
S'of'
p110
tp111
F0.008333333333333333
s(S'announced'
p112
S'had'
p113
tp114
F0.008333333333333333
s(S'is'
p115
S'formed'
p116
tp117
F0.008333333333333333
s(S'announced'
p118
S'[[prp]]'
p119
tp120
F0.008333333333333333
s(S'was'
p121
g22
tp122
F0.03333333333333333
s(S'consisted'
p123
S'of'
p124
tp125
F0.008333333333333333
s(S'were'
p126
g28
tp127
F0.025
s(S'[[det]]'
p128
g64
tp129
F0.008333333333333333
s(g62
S'vocalist'
p130
tp131
F0.008333333333333333
s(S'which'
p132
S'founded'
p133
tp134
F0.008333333333333333
s(S'then'
p135
S'led'
p136
tp137
F0.008333333333333333
s(S'founded'
p138
S'with'
p139
tp140
F0.016666666666666666
s(S'[[con]]'
p141
S'bassist'
p142
tp143
F0.008333333333333333
s(S'simply'
p144
S'is'
p145
tp146
F0.008333333333333333
s(S's'
p147
S'lead'
p148
tp149
F0.008333333333333333
s(S'now'
p150
S'led'
p151
tp152
F0.008333333333333333
s(S'[[adj]]'
p153
S'duo'
p154
tp155
F0.008333333333333333
s(g92
S'that'
p156
tp157
F0.03333333333333333
s(S'was'
p158
g76
tp159
F0.008333333333333333
s(S'led'
p160
S'by'
p161
tp162
F0.058333333333333334
s(S'founded'
p163
S'for'
p164
tp165
F0.008333333333333333
s(S'bassist'
p166
S'[[con]]'
p167
tp168
F0.008333333333333333
s(S'[[adj]]'
p169
g106
tp170
F0.008333333333333333
s(S'announced'
p171
S'[[adj]]'
p172
tp173
F0.008333333333333333
s(S'bandmates'
p174
S'[[con]]'
p175
tp176
F0.008333333333333333
s(S'by'
p177
S'vocalist'
p178
tp179
F0.008333333333333333
s(S'is'
p180
S'founded'
p181
tp182
F0.016666666666666666
s(S'was'
p183
g138
tp184
F0.05
s(g181
S'by'
p185
tp186
F0.06666666666666667
s(g116
S'by'
p187
tp188
F0.041666666666666664
s(g74
g49
tp189
F0.016666666666666666
s(S'tours'
p190
g128
tp191
F0.008333333333333333
s(S'had'
p192
S'announced'
p193
tp194
F0.008333333333333333
s(g44
S'of'
p195
tp196
F0.016666666666666666
s(S'vocalist'
p197
g94
tp198
F0.008333333333333333
s(S'[[adj]]'
p199
S'consisting'
p200
tp201
F0.008333333333333333
s(g145
S'[[det]]'
p202
tp203
F0.008333333333333333
s.