(dp0
(S'declared'
p1
S'that'
p2
tp3
F0.05555555555555555
s(S'when'
p4
S'declared'
p5
tp6
F0.027777777777777776
s(S'declared'
p7
S'by'
p8
tp9
F0.05555555555555555
s(S'declared'
p10
S'[[det]]'
p11
tp12
F0.05555555555555555
s(S'had'
p13
S'declared'
p14
tp15
F0.05555555555555555
s(S'[[con]]'
p16
S'declared'
p17
tp18
F0.08333333333333333
s(S'was'
p19
S'canonized'
p20
tp21
F0.027777777777777776
s(S'was'
p22
S'beatified'
p23
tp24
F0.027777777777777776
s(S'declared'
p25
S'[[con]]'
p26
tp27
F0.027777777777777776
s(S'declared'
p28
S'[[adj]]'
p29
tp30
F0.08333333333333333
s(S'also'
p31
S'declared'
p32
tp33
F0.027777777777777776
s(S'was'
p34
g7
tp35
F0.1388888888888889
s(S'declared'
p36
S'as'
p37
tp38
F0.027777777777777776
s(S'that'
p39
S'declared'
p40
tp41
F0.027777777777777776
s(S'declared'
p42
S'[[pro]]'
p43
tp44
F0.05555555555555555
s(S'declared'
p45
S'[[prp]]'
p46
tp47
F0.027777777777777776
s(S'been'
p48
S'declared'
p49
tp50
F0.027777777777777776
s(g20
S'by'
p51
tp52
F0.05555555555555555
s(S'[[adj]]'
p53
S'declared'
p54
tp55
F0.027777777777777776
s(S'declared'
p56
S'to'
p57
tp58
F0.05555555555555555
s(S'is'
p59
S'declared'
p60
tp61
F0.027777777777777776
s.