(dp0
(S'of'
p1
S'now'
p2
tp3
F0.002770083102493075
s(S'now'
p4
S'serves'
p5
tp6
F0.002770083102493075
s(S'[[det]]'
p7
S'member'
p8
tp9
F0.024930747922437674
s(S'became'
p10
S'director'
p11
tp12
F0.013850415512465374
s(S'serves'
p13
S'as'
p14
tp15
F0.0110803324099723
s(S'as'
p16
S'member'
p17
tp18
F0.008310249307479225
s(S'also'
p19
S'served'
p20
tp21
F0.024930747922437674
s(S'board'
p22
S'member'
p23
tp24
F0.01662049861495845
s(S'of'
p25
S'directors'
p26
tp27
F0.0110803324099723
s(S'[[adj]]'
p28
S'member'
p29
tp30
F0.00554016620498615
s(S'board'
p31
S'directors'
p32
tp33
F0.030470914127423823
s(S'on'
p34
S'[[adj]]'
p35
tp36
F0.013850415512465374
s(S'[[det]]'
p37
S'boards'
p38
tp39
F0.027700831024930747
s(S'director'
p40
S'for'
p41
tp42
F0.01662049861495845
s(S'become'
p43
S'director'
p44
tp45
F0.008310249307479225
s(S'trustees'
p46
S'of'
p47
tp48
F0.01662049861495845
s(S'[[det]]'
p49
S'director'
p50
tp51
F0.019390581717451522
s(g20
S'as'
p52
tp53
F0.019390581717451522
s(S'is'
p54
S'director'
p55
tp56
F0.013850415512465374
s(S'then'
p57
S'director'
p58
tp59
F0.002770083102493075
s(S'has'
p60
S'served'
p61
tp62
F0.008310249307479225
s(S'serves'
p63
S'on'
p64
tp65
F0.04986149584487535
s(g29
S'[[con]]'
p66
tp67
F0.002770083102493075
s(S'director'
p68
S'[[det]]'
p69
tp70
F0.019390581717451522
s(S'[[det]]'
p71
g31
tp72
F0.09418282548476455
s(g23
S'of'
p73
tp74
F0.01662049861495845
s(S'served'
p75
S'[[con]]'
p76
tp77
F0.002770083102493075
s(S'member'
p78
S'board'
p79
tp80
F0.002770083102493075
s(g52
g7
tp81
F0.019390581717451522
s(S'on'
p82
g37
tp83
F0.07479224376731301
s(S'[[det]]'
p84
S'[[adj]]'
p85
tp86
F0.002770083102493075
s(S'of'
p87
S'trustees'
p88
tp89
F0.013850415512465374
s(S'boards'
p90
S'[[con]]'
p91
tp92
F0.00554016620498615
s(S'also'
p93
S'serves'
p94
tp95
F0.0110803324099723
s(S'board'
p96
g46
tp97
F0.01662049861495845
s(S'director'
p98
S'to'
p99
tp100
F0.002770083102493075
s(g38
S'of'
p101
tp102
F0.024930747922437674
s(S'director'
p103
S'[[num]]'
p104
tp105
F0.002770083102493075
s(S'[[con]]'
p106
S'director'
p107
tp108
F0.00554016620498615
s(S'[[con]]'
p109
S'[[det]]'
p110
tp111
F0.008310249307479225
s(S'trustees'
p112
S'now'
p113
tp114
F0.002770083102493075
s(S'director'
p115
S'[[con]]'
p116
tp117
F0.01662049861495845
s(g8
S'[[det]]'
p118
tp119
F0.0332409972299169
s(S'director'
p120
S'on'
p121
tp122
F0.002770083102493075
s(S'board'
p123
S'of'
p124
tp125
F0.0332409972299169
s(g26
S'for'
p126
tp127
F0.008310249307479225
s(g35
S'boards'
p128
tp129
F0.013850415512465374
s(S'currently'
p130
S'sits'
p131
tp132
F0.00554016620498615
s(S'currently'
p133
S'serves'
p134
tp135
F0.0110803324099723
s(S'boards'
p136
S'[[det]]'
p137
tp138
F0.00554016620498615
s(S'as'
p139
S'[[adj]]'
p140
tp141
F0.002770083102493075
s(g131
g82
tp142
F0.008310249307479225
s(g85
S'board'
p143
tp144
F0.002770083102493075
s(S'known'
p145
S'as'
p146
tp147
F0.00554016620498615
s(S'director'
p148
S'of'
p149
tp150
F0.030470914127423823
s(S'was'
p151
S'director'
p152
tp153
F0.01662049861495845
s(S'sits'
p154
S'[[det]]'
p155
tp156
F0.002770083102493075
s(S'as'
p157
S'director'
p158
tp159
F0.002770083102493075
s(S'[[con]]'
p160
S'serves'
p161
tp162
F0.00554016620498615
s(S'[[adj]]'
p163
S'director'
p164
tp165
F0.0221606648199446
s(g32
S'of'
p166
tp167
F0.030470914127423823
s(g2
g145
tp168
F0.00554016620498615
s(S'director'
p169
S'at'
p170
tp171
F0.019390581717451522
s(S'also'
p172
g148
tp173
F0.002770083102493075
s(S'also'
p174
S'sits'
p175
tp176
F0.002770083102493075
s(S'served'
p177
S'on'
p178
tp179
F0.030470914127423823
s.