(dp0
(S'[[adj]]'
p1
S'living'
p2
tp3
F0.02631578947368421
s(S'living'
p4
S'at'
p5
tp6
F0.07894736842105263
s(S'now'
p7
S'living'
p8
tp9
F0.02631578947368421
s(S'[[det]]'
p10
S'living'
p11
tp12
F0.02631578947368421
s(S'living'
p13
S'in'
p14
tp15
F0.3684210526315789
s(S'were'
p16
S'living'
p17
tp18
F0.02631578947368421
s(S'[[num]]'
p19
S'living'
p20
tp21
F0.02631578947368421
s(S'still'
p22
S'living'
p23
tp24
F0.02631578947368421
s(S'been'
p25
g4
tp26
F0.07894736842105263
s(S'after'
p27
S'living'
p28
tp29
F0.02631578947368421
s(S'was'
p30
S'living'
p31
tp32
F0.07894736842105263
s(S'is'
p33
S'living'
p34
tp35
F0.05263157894736842
s(S'[[con]]'
p36
g13
tp37
F0.02631578947368421
s(S'currently'
p38
S'living'
p39
tp40
F0.05263157894736842
s(g31
S'on'
p41
tp42
F0.02631578947368421
s(S'while'
p43
S'living'
p44
tp45
F0.05263157894736842
s.