(dp0
(S'church'
p1
S'[[det]]'
p2
tp3
F0.08333333333333333
s(S'[[det]]'
p4
S'church'
p5
tp6
F0.16666666666666666
s(S'church'
p7
S'in'
p8
tp9
F0.25
s(S'church'
p10
S'at'
p11
tp12
F0.08333333333333333
s(g5
S'on'
p13
tp14
F0.08333333333333333
s(S'[[adj]]'
p15
g1
tp16
F0.3333333333333333
s.