(dp0
(S'[[num]]'
p1
S'campuses'
p2
tp3
F0.12903225806451613
s(S'university'
p4
S'located'
p5
tp6
F0.06451612903225806
s(S'with'
p7
g1
tp8
F0.03225806451612903
s(S'campuses'
p9
S'[[con]]'
p10
tp11
F0.0967741935483871
s(S'[[det]]'
p12
S'university'
p13
tp14
F0.06451612903225806
s(S'[[adj]]'
p15
S'campuses'
p16
tp17
F0.03225806451612903
s(g13
g7
tp18
F0.06451612903225806
s(S'has'
p19
S'campuses'
p20
tp21
F0.0967741935483871
s(S'[[adj]]'
p22
S'university'
p23
tp24
F0.06451612903225806
s(g5
S'in'
p25
tp26
F0.06451612903225806
s(S'with'
p27
S'campuses'
p28
tp29
F0.06451612903225806
s(g2
S'in'
p30
tp31
F0.22580645161290322
s.