(dp0
(S'[[mod]]'
p1
S'train'
p2
tp3
F0.013513513513513514
s(S'also'
p4
S'coached'
p5
tp6
F0.013513513513513514
s(S'had'
p7
S'coached'
p8
tp9
F0.013513513513513514
s(S'train'
p10
S'under'
p11
tp12
F0.013513513513513514
s(S'where'
p13
S'trained'
p14
tp15
F0.013513513513513514
s(S'change'
p16
S'to'
p17
tp18
F0.013513513513513514
s(S'trained'
p19
S'by'
p20
tp21
F0.06756756756756757
s(S'trained'
p22
S'[[det]]'
p23
tp24
F0.013513513513513514
s(S'train'
p25
S'with'
p26
tp27
F0.013513513513513514
s(S'train'
p28
S'[[det]]'
p29
tp30
F0.013513513513513514
s(S'was'
p31
S'coached'
p32
tp33
F0.02702702702702703
s(S'later'
p34
S'coached'
p35
tp36
F0.013513513513513514
s(S'to'
p37
g25
tp38
F0.06756756756756757
s(S'be'
p39
S'trained'
p40
tp41
F0.013513513513513514
s(S'coached'
p42
S'by'
p43
tp44
F0.04054054054054054
s(S'coached'
p45
S'before'
p46
tp47
F0.013513513513513514
s(S'was'
p48
S'trained'
p49
tp50
F0.06756756756756757
s(S'trained'
p51
S'for'
p52
tp53
F0.013513513513513514
s(S'[[con]]'
p54
S'coached'
p55
tp56
F0.013513513513513514
s(S'is'
p57
g19
tp58
F0.013513513513513514
s(S'been'
p59
S'trained'
p60
tp61
F0.013513513513513514
s(S'[[det]]'
p62
S'coaching'
p63
tp64
F0.013513513513513514
s(S'trained'
p65
S'[[con]]'
p66
tp67
F0.04054054054054054
s(S'coached'
p68
S'[[num]]'
p69
tp70
F0.013513513513513514
s(S'[[con]]'
p71
S'trained'
p72
tp73
F0.013513513513513514
s(S'is'
p74
g42
tp75
F0.013513513513513514
s(S'coached'
p76
S'[[con]]'
p77
tp78
F0.013513513513513514
s(S'trained'
p79
S'under'
p80
tp81
F0.06756756756756757
s(S'train'
p82
S'for'
p83
tp84
F0.013513513513513514
s(S'trained'
p85
S'to'
p86
tp87
F0.013513513513513514
s(g5
S'[[adj]]'
p88
tp89
F0.02702702702702703
s(S'has'
p90
g76
tp91
F0.02702702702702703
s(S'had'
p92
S'trained'
p93
tp94
F0.013513513513513514
s(S'announced'
p95
g62
tp96
F0.013513513513513514
s(S'also'
p97
S'trained'
p98
tp99
F0.08108108108108109
s(S'train'
p100
S'[[adj]]'
p101
tp102
F0.013513513513513514
s(S'trained'
p103
S'with'
p104
tp105
F0.05405405405405406
s(g63
g16
tp106
F0.013513513513513514
s(S'trained'
p107
S'[[adj]]'
p108
tp109
F0.02702702702702703
s(S'has'
p110
g103
tp111
F0.04054054054054054
s.