(dp0
(S'first'
p1
S'appeared'
p2
tp3
F0.01990049751243781
s(S'also'
p4
S'created'
p5
tp6
F0.017412935323383085
s(S'when'
p7
S'created'
p8
tp9
F0.0024875621890547263
s(S'hosted'
p10
S'by'
p11
tp12
F0.017412935323383085
s(S'[[adj]]'
p13
S'created'
p14
tp15
F0.004975124378109453
s(S'show'
p16
S'created'
p17
tp18
F0.0024875621890547263
s(S'be'
p19
S'written'
p20
tp21
F0.0024875621890547263
s(S'created'
p22
S'with'
p23
tp24
F0.004975124378109453
s(S'appears'
p25
S'[[con]]'
p26
tp27
F0.0024875621890547263
s(S'[[num]]'
p28
S'performed'
p29
tp30
F0.007462686567164179
s(S'[[num]]'
p31
S'written'
p32
tp33
F0.004975124378109453
s(S'[[adj]]'
p34
S'appears'
p35
tp36
F0.0024875621890547263
s(S'that'
p37
S'aired'
p38
tp39
F0.0024875621890547263
s(S'has'
p40
S'performed'
p41
tp42
F0.029850746268656716
s(S'originally'
p43
S'presented'
p44
tp45
F0.0024875621890547263
s(S'performed'
p46
S'[[det]]'
p47
tp48
F0.012437810945273632
s(S'hosted'
p49
S'[[con]]'
p50
tp51
F0.0024875621890547263
s(S'created'
p52
S'as'
p53
tp54
F0.0024875621890547263
s(S'produced'
p55
S'[[adj]]'
p56
tp57
F0.0024875621890547263
s(S'with'
p58
S'created'
p59
tp60
F0.0024875621890547263
s(S'show'
p61
S'hosted'
p62
tp63
F0.0024875621890547263
s(S'was'
p64
S'written'
p65
tp66
F0.01990049751243781
s(S'created'
p67
S'[[det]]'
p68
tp69
F0.014925373134328358
s(S'[[det]]'
p70
S'created'
p71
tp72
F0.0024875621890547263
s(S'performed'
p73
S'as'
p74
tp75
F0.007462686567164179
s(S'[[adj]]'
p76
S'aired'
p77
tp78
F0.0024875621890547263
s(S'first'
p79
S'performed'
p80
tp81
F0.007462686567164179
s(S'created'
p82
S'[[adj]]'
p83
tp84
F0.004975124378109453
s(S'be'
p85
S'produced'
p86
tp87
F0.0024875621890547263
s(S'produced'
p88
S'by'
p89
tp90
F0.009950248756218905
s(S'that'
p91
S'created'
p92
tp93
F0.0024875621890547263
s(S'aired'
p94
S'on'
p95
tp96
F0.01990049751243781
s(S'by'
p97
S'writer'
p98
tp99
F0.012437810945273632
s(g41
S'from'
p100
tp101
F0.0024875621890547263
s(S'since'
p102
S'performed'
p103
tp104
F0.0024875621890547263
s(S'[[adj]]'
p105
S'television'
p106
tp107
F0.0024875621890547263
s(S'written'
p108
S'[[con]]'
p109
tp110
F0.0024875621890547263
s(S'[[num]]'
p111
S'created'
p112
tp113
F0.007462686567164179
s(S'aired'
p114
S'by'
p115
tp116
F0.0024875621890547263
s(S'been'
p117
S'written'
p118
tp119
F0.004975124378109453
s(S'character'
p120
S'created'
p121
tp122
F0.004975124378109453
s(S'performed'
p123
S'[[pro]]'
p124
tp125
F0.0024875621890547263
s(S'[[adj]]'
p126
g120
tp127
F0.0024875621890547263
s(S'was'
p128
S'aired'
p129
tp130
F0.004975124378109453
s(S'written'
p131
S'for'
p132
tp133
F0.0024875621890547263
s(S'performed'
p134
S'[[num]]'
p135
tp136
F0.0024875621890547263
s(S'debuted'
p137
S'[[con]]'
p138
tp139
F0.0024875621890547263
s(S'has'
p140
S'created'
p141
tp142
F0.0024875621890547263
s(S'debuted'
p143
S'[[num]]'
p144
tp145
F0.0024875621890547263
s(S'performed'
p146
S'before'
p147
tp148
F0.007462686567164179
s(S'performed'
p149
S'for'
p150
tp151
F0.012437810945273632
s(g44
S'by'
p152
tp153
F0.0024875621890547263
s(S'performed'
p154
S'with'
p155
tp156
F0.02736318407960199
s(S'is'
p157
S'aired'
p158
tp159
F0.0024875621890547263
s(S'[[num]]'
p160
S'produced'
p161
tp162
F0.0024875621890547263
s(S'[[adj]]'
p163
S'performed'
p164
tp165
F0.0024875621890547263
s(S'[[con]]'
p166
S'was'
p167
tp168
F0.009950248756218905
s(S'was'
p169
S'hosted'
p170
tp171
F0.009950248756218905
s(S's'
p172
S'written'
p173
tp174
F0.0024875621890547263
s(S'is'
p175
S'written'
p176
tp177
F0.004975124378109453
s(S'where'
p178
S'performed'
p179
tp180
F0.004975124378109453
s(g176
S'by'
p181
tp182
F0.029850746268656716
s(S'as'
p183
S'performed'
p184
tp185
F0.0024875621890547263
s(S'character'
p186
S'of'
p187
tp188
F0.0024875621890547263
s(S'[[num]]'
p189
S'was'
p190
tp191
F0.01990049751243781
s(S'hosted'
p192
S'with'
p193
tp194
F0.0024875621890547263
s(S'[[con]]'
p195
S'performed'
p196
tp197
F0.014925373134328358
s(S'which'
p198
S'created'
p199
tp200
F0.0024875621890547263
s(S'created'
p201
S'for'
p202
tp203
F0.0024875621890547263
s(S'[[adj]]'
p204
g10
tp205
F0.0024875621890547263
s(S'performed'
p206
S'on'
p207
tp208
F0.007462686567164179
s(S'[[con]]'
p209
S'were'
p210
tp211
F0.0024875621890547263
s(S'performed'
p212
S'to'
p213
tp214
F0.007462686567164179
s(g210
S'created'
p215
tp216
F0.007462686567164179
s(S'created'
p217
S'of'
p218
tp219
F0.004975124378109453
s(S'created'
p220
S'along'
p221
tp222
F0.004975124378109453
s(S'performed'
p223
S'was'
p224
tp225
F0.0024875621890547263
s(S'[[con]]'
p226
S'hosted'
p227
tp228
F0.0024875621890547263
s(S'[[adj]]'
p229
g88
tp230
F0.0024875621890547263
s(S'[[con]]'
p231
S'written'
p232
tp233
F0.004975124378109453
s(S'created'
p234
S'[[num]]'
p235
tp236
F0.009950248756218905
s(g172
S'performed'
p237
tp238
F0.004975124378109453
s(S'created'
p239
S'by'
p240
tp241
F0.07711442786069651
s(S'had'
p242
S'created'
p243
tp244
F0.0024875621890547263
s(S'were'
p245
S'written'
p246
tp247
F0.0024875621890547263
s(S'then'
p248
S'performed'
p249
tp250
F0.0024875621890547263
s(g80
S'in'
p251
tp252
F0.004975124378109453
s(S'created'
p253
S'under'
p254
tp255
F0.0024875621890547263
s(g35
S'[[num]]'
p256
tp257
F0.004975124378109453
s(S'often'
p258
S'performed'
p259
tp260
F0.007462686567164179
s(S'is'
p261
S'hosted'
p262
tp263
F0.004975124378109453
s(g167
g239
tp264
F0.06218905472636816
s(g68
S'character'
p265
tp266
F0.007462686567164179
s(S'created'
p267
g231
tp268
F0.009950248756218905
s(S'show'
p269
S'aired'
p270
tp271
F0.0024875621890547263
s(S'had'
p272
S'performed'
p273
tp274
F0.009950248756218905
s(S'[[det]]'
p275
S'performed'
p276
tp277
F0.004975124378109453
s(S'first'
p278
g25
tp279
F0.004975124378109453
s(S'performed'
p280
S'[[adj]]'
p281
tp282
F0.007462686567164179
s(S'aired'
p283
S'[[adj]]'
p284
tp285
F0.0024875621890547263
s(S'was'
p286
g55
tp287
F0.0024875621890547263
s(S'[[con]]'
p288
S'artist'
p289
tp290
F0.004975124378109453
s(g98
S'[[con]]'
p291
tp292
F0.007462686567164179
s(S'appeared'
p293
S'by'
p294
tp295
F0.0024875621890547263
s(S'have'
p296
S'appeared'
p297
tp298
F0.0024875621890547263
s(S'created'
p299
S'to'
p300
tp301
F0.0024875621890547263
s(S'[[adj]]'
p302
S'appeared'
p303
tp304
F0.007462686567164179
s(S'performed'
p305
S'along'
p306
tp307
F0.004975124378109453
s(S'aired'
p308
S'[[det]]'
p309
tp310
F0.0024875621890547263
s(S'television'
p311
S'series'
p312
tp313
F0.004975124378109453
s(S'is'
p314
S'created'
p315
tp316
F0.004975124378109453
s(g303
g189
tp317
F0.01990049751243781
s(S'performed'
p318
S'[[con]]'
p319
tp320
F0.009950248756218905
s(S'[[adj]]'
p321
S'written'
p322
tp323
F0.0024875621890547263
s(S'written'
p324
S'to'
p325
tp326
F0.0024875621890547263
s(S'also'
p327
S'aired'
p328
tp329
F0.0024875621890547263
s(S'also'
p330
g154
tp331
F0.029850746268656716
s(S'created'
p332
S'[[prp]]'
p333
tp334
F0.0024875621890547263
s(S'show'
p335
S'produced'
p336
tp337
F0.0024875621890547263
s(S'first'
p338
S'aired'
p339
tp340
F0.007462686567164179
s(g312
S'created'
p341
tp342
F0.004975124378109453
s(S'television'
p343
S'game'
p344
tp345
F0.0024875621890547263
s(S'performed'
p346
S'by'
p347
tp348
F0.01990049751243781
s(S'performed'
p349
S'under'
p350
tp351
F0.004975124378109453
s(g344
g16
tp352
F0.0024875621890547263
s(S'[[det]]'
p353
g311
tp354
F0.004975124378109453
s(g65
S'with'
p355
tp356
F0.0024875621890547263
s(S'later'
p357
S'performed'
p358
tp359
F0.0024875621890547263
s(S'created'
p360
S'was'
p361
tp362
F0.0024875621890547263
s(S'[[con]]'
p363
S'created'
p364
tp365
F0.007462686567164179
s(S'have'
p366
S'performed'
p367
tp368
F0.0024875621890547263
s(S'not'
p369
S'written'
p370
tp371
F0.0024875621890547263
s(S'appeared'
p372
g166
tp373
F0.007462686567164179
s(S'written'
p374
S'about'
p375
tp376
F0.0024875621890547263
s(S'was'
p377
g43
tp378
F0.0024875621890547263
s(S'written'
p379
S'that'
p380
tp381
F0.004975124378109453
s(S'which'
p382
S'performed'
p383
tp384
F0.0024875621890547263
s(S'performed'
p385
S'together'
p386
tp387
F0.007462686567164179
s(S'[[num]]'
p388
S'hosted'
p389
tp390
F0.004975124378109453
s(S'is'
p391
S'produced'
p392
tp393
F0.0024875621890547263
s(S'been'
p394
S'created'
p395
tp396
F0.004975124378109453
s(g339
S'in'
p397
tp398
F0.004975124378109453
s(g364
S'[[pro]]'
p399
tp400
F0.007462686567164179
s.