(dp0
(S'which'
p1
S'crosses'
p2
tp3
F0.023255813953488372
s(S'[[adj]]'
p4
S'bridge'
p5
tp6
F0.06976744186046512
s(S'is'
p7
S'built'
p8
tp9
F0.023255813953488372
s(S'built'
p10
S'over'
p11
tp12
F0.023255813953488372
s(S'crosses'
p13
S'over'
p14
tp15
F0.023255813953488372
s(S'[[num]]'
p16
S'crosses'
p17
tp18
F0.023255813953488372
s(S'where'
p19
S'crosses'
p20
tp21
F0.023255813953488372
s(S'crosses'
p22
S'[[det]]'
p23
tp24
F0.13953488372093023
s(g8
S'on'
p25
tp26
F0.023255813953488372
s(S'crossing'
p27
S'over'
p28
tp29
F0.023255813953488372
s(S'[[adj]]'
p30
S'crossing'
p31
tp32
F0.023255813953488372
s(S'[[con]]'
p33
S'crosses'
p34
tp35
F0.023255813953488372
s(S'[[det]]'
p36
S'bridge'
p37
tp38
F0.046511627906976744
s(g5
S'over'
p39
tp40
F0.06976744186046512
s(S'built'
p41
S'along'
p42
tp43
F0.023255813953488372
s(S'was'
p44
g41
tp45
F0.06976744186046512
s(S'crossing'
p46
S'[[det]]'
p47
tp48
F0.06976744186046512
s(S'by'
p49
g46
tp50
F0.023255813953488372
s(S'spans'
p51
S'[[det]]'
p52
tp53
F0.023255813953488372
s(S'bridge'
p54
S'on'
p55
tp56
F0.023255813953488372
s(S'[[det]]'
p57
S'crossing'
p58
tp59
F0.023255813953488372
s(g58
S'of'
p60
tp61
F0.046511627906976744
s(S'then'
p62
S'crosses'
p63
tp64
F0.023255813953488372
s(S'spanning'
p65
S'[[det]]'
p66
tp67
F0.023255813953488372
s(S'before'
p68
S'crossing'
p69
tp70
F0.023255813953488372
s(S'bridge'
p71
S'across'
p72
tp73
F0.046511627906976744
s(S'built'
p74
S'across'
p75
tp76
F0.023255813953488372
s.