(dp0
(S'murdered'
p1
S'[[con]]'
p2
tp3
F0.1111111111111111
s(S'was'
p4
g1
tp5
F0.16666666666666666
s(S'been'
p6
S'murdered'
p7
tp8
F0.05555555555555555
s(S'that'
p9
S'murdered'
p10
tp11
F0.05555555555555555
s(S'is'
p12
S'murdered'
p13
tp14
F0.1111111111111111
s(S'had'
p15
S'murdered'
p16
tp17
F0.1111111111111111
s(g7
S'by'
p18
tp19
F0.2222222222222222
s(g16
S'[[det]]'
p20
tp21
F0.1111111111111111
s(S'[[con]]'
p22
S'murdered'
p23
tp24
F0.05555555555555555
s.