(dp0
(S'replaced'
p1
S'[[con]]'
p2
tp3
F0.00463678516228748
s(S'with'
p4
S'led'
p5
tp6
F0.0015455950540958269
s(S'was'
p7
S'elected'
p8
tp9
F0.0030911901081916537
s(S'match'
p10
S'at'
p11
tp12
F0.0015455950540958269
s(S'successor'
p13
S'of'
p14
tp15
F0.0077279752704791345
s(S'met'
p16
S'by'
p17
tp18
F0.00463678516228748
s(S'that'
p19
S'succeeded'
p20
tp21
F0.0015455950540958269
s(S'appointed'
p22
S'first'
p23
tp24
F0.0015455950540958269
s(S'leader'
p25
S'is'
p26
tp27
F0.0015455950540958269
s(S'first'
p28
S'appointed'
p29
tp30
F0.0061823802163833074
s(S'explained'
p31
S'how'
p32
tp33
F0.0015455950540958269
s(S'declared'
p34
S'to'
p35
tp36
F0.0030911901081916537
s(S'was'
p37
S'met'
p38
tp39
F0.0030911901081916537
s(S'soon'
p40
S'replaced'
p41
tp42
F0.0030911901081916537
s(S'[[num]]'
p43
S'met'
p44
tp45
F0.0015455950540958269
s(S'[[con]]'
p46
S'ahead'
p47
tp48
F0.0015455950540958269
s(S'succeeded'
p49
S'[[prp]]'
p50
tp51
F0.0015455950540958269
s(S'declared'
p52
S'that'
p53
tp54
F0.0030911901081916537
s(S'winning'
p55
S'[[det]]'
p56
tp57
F0.0015455950540958269
s(S'[[det]]'
p58
S'successor'
p59
tp60
F0.00463678516228748
s(S'led'
p61
S'where'
p62
tp63
F0.0015455950540958269
s(S'has'
p64
S'replaced'
p65
tp66
F0.0015455950540958269
s(S'declared'
p67
S'[[con]]'
p68
tp69
F0.0015455950540958269
s(S'just'
p70
S'ahead'
p71
tp72
F0.0015455950540958269
s(S'[[det]]'
p73
S'championship'
p74
tp75
F0.0015455950540958269
s(S'been'
p76
S'declared'
p77
tp78
F0.0015455950540958269
s(S'took'
p79
S'[[det]]'
p80
tp81
F0.0030911901081916537
s(S'appointed'
p82
S'under'
p83
tp84
F0.0015455950540958269
s(S'when'
p85
S'appointed'
p86
tp87
F0.0015455950540958269
s(S'with'
p88
S'getting'
p89
tp90
F0.0015455950540958269
s(S'[[prp]]'
p91
S'leader'
p92
tp93
F0.0030911901081916537
s(S'also'
p94
S'led'
p95
tp96
F0.0015455950540958269
s(S'has'
p97
S'explained'
p98
tp99
F0.0015455950540958269
s(S'ahead'
p100
S'[[con]]'
p101
tp102
F0.0015455950540958269
s(S'[[num]]'
p103
S'led'
p104
tp105
F0.0030911901081916537
s(S'declared'
p106
S'[[det]]'
p107
tp108
F0.0030911901081916537
s(S'was'
p109
S'leader'
p110
tp111
F0.0030911901081916537
s(S'declared'
p112
S'[[pro]]'
p113
tp114
F0.0030911901081916537
s(S'appointed'
p115
S'where'
p116
tp117
F0.0030911901081916537
s(S'be'
p118
S'led'
p119
tp120
F0.0015455950540958269
s(S'had'
p121
S'led'
p122
tp123
F0.0015455950540958269
s(S'met'
p124
S'up'
p125
tp126
F0.0030911901081916537
s(S'[[prp]]'
p127
S'successor'
p128
tp129
F0.0061823802163833074
s(S'carried'
p130
S'[[det]]'
p131
tp132
F0.0015455950540958269
s(S'later'
p133
S'appointed'
p134
tp135
F0.00927357032457496
s(S'appointed'
p136
S'[[prp]]'
p137
tp138
F0.0030911901081916537
s(S'that'
p139
S'declared'
p140
tp141
F0.0015455950540958269
s(S'who'
p142
S'met'
p143
tp144
F0.0015455950540958269
s(S'leader'
p145
S'with'
p146
tp147
F0.0015455950540958269
s(S'had'
p148
S'replaced'
p149
tp150
F0.0061823802163833074
s(g56
g10
tp151
F0.0015455950540958269
s(S'successor'
p152
S'as'
p153
tp154
F0.0061823802163833074
s(S'also'
p155
S'appointed'
p156
tp157
F0.00927357032457496
s(S'have'
p158
S'met'
p159
tp160
F0.00463678516228748
s(S'when'
p161
S'succeeded'
p162
tp163
F0.0015455950540958269
s(S'[[con]]'
p164
S'declared'
p165
tp166
F0.00463678516228748
s(S'[[con]]'
p167
g1
tp168
F0.00927357032457496
s(S'leader'
p169
S'when'
p170
tp171
F0.0015455950540958269
s(S'succeeded'
p172
S'[[pro]]'
p173
tp174
F0.00463678516228748
s(S'be'
p175
S'succeeded'
p176
tp177
F0.0015455950540958269
s(S'have'
p178
S'succeeded'
p179
tp180
F0.0030911901081916537
s(S'as'
p181
S'successor'
p182
tp183
F0.0030911901081916537
s(S'when'
p184
S'met'
p185
tp186
F0.0015455950540958269
s(S'[[adj]]'
p187
S'leader'
p188
tp189
F0.00463678516228748
s(S'where'
p190
S'succeeded'
p191
tp192
F0.0015455950540958269
s(S'later'
p193
S'succeeded'
p194
tp195
F0.0030911901081916537
s(S'that'
p196
S'replaced'
p197
tp198
F0.0015455950540958269
s(S'leader'
p199
S'to'
p200
tp201
F0.0030911901081916537
s(S'appointed'
p202
S'after'
p203
tp204
F0.0030911901081916537
s(S'explained'
p205
S'to'
p206
tp207
F0.0015455950540958269
s(S'is'
p208
S'led'
p209
tp210
F0.0015455950540958269
s(S'met'
p211
S'where'
p212
tp213
F0.0015455950540958269
s(S'explained'
p214
S'[[prp]]'
p215
tp216
F0.0015455950540958269
s(S'ahead'
p217
S'[[det]]'
p218
tp219
F0.0015455950540958269
s(S'led'
p220
S'off'
p221
tp222
F0.0015455950540958269
s(S'ahead'
p223
S'of'
p224
tp225
F0.010819165378670788
s(S'replaced'
p226
S'who'
p227
tp228
F0.0015455950540958269
s(S'met'
p229
S'again'
p230
tp231
F0.0015455950540958269
s(S'[[adj]]'
p232
S'met'
p233
tp234
F0.00463678516228748
s(S'were'
p235
S'appointed'
p236
tp237
F0.0030911901081916537
s(S'where'
p238
S'replaced'
p239
tp240
F0.0015455950540958269
s(S'met'
p241
S'when'
p242
tp243
F0.00463678516228748
s(S'[[adj]]'
p244
S'led'
p245
tp246
F0.0030911901081916537
s(S'being'
p247
S'succeeded'
p248
tp249
F0.0015455950540958269
s(S'succeeded'
p250
S'to'
p251
tp252
F0.0030911901081916537
s(S'successor'
p253
S'to'
p254
tp255
F0.00463678516228748
s(S'then'
p256
S'appointed'
p257
tp258
F0.00927357032457496
s(S'met'
p259
S'[[pro]]'
p260
tp261
F0.0015455950540958269
s(S'succeeded'
p262
S'as'
p263
tp264
F0.013910355486862442
s(S'is'
p265
g16
tp266
F0.0015455950540958269
s(S'[[adj]]'
p267
S'ahead'
p268
tp269
F0.0030911901081916537
s(S'margin'
p270
S'over'
p271
tp272
F0.0015455950540958269
s(S'was'
p273
S'declared'
p274
tp275
F0.0077279752704791345
s(S'[[con]]'
p276
S'leader'
p277
tp278
F0.0015455950540958269
s(S'explained'
p279
S'[[det]]'
p280
tp281
F0.0015455950540958269
s(S'[[adj]]'
p282
S'declared'
p283
tp284
F0.0015455950540958269
s(S'met'
p285
S'at'
p286
tp287
F0.0015455950540958269
s(S'[[num]]'
p288
S'succeeded'
p289
tp290
F0.0015455950540958269
s(S'replaced'
p291
S'while'
p292
tp293
F0.0030911901081916537
s(S'is'
p294
S'appointed'
p295
tp296
F0.010819165378670788
s(S'met'
p297
S'while'
p298
tp299
F0.00463678516228748
s(S'when'
p300
S'declared'
p301
tp302
F0.0015455950540958269
s(S'leader'
p303
S'was'
p304
tp305
F0.0015455950540958269
s(S'led'
p306
S'with'
p307
tp308
F0.0015455950540958269
s(S'leader'
p309
S'as'
p310
tp311
F0.0015455950540958269
s(S'[[num]]'
p312
S'appointed'
p313
tp314
F0.0030911901081916537
s(S'instead'
p315
S'appointed'
p316
tp317
F0.0030911901081916537
s(S'led'
p318
S'as'
p319
tp320
F0.0015455950540958269
s(S'led'
p321
S'from'
p322
tp323
F0.0030911901081916537
s(S'appointed'
p324
S'was'
p325
tp326
F0.0015455950540958269
s(S'regained'
p327
g73
tp328
F0.0015455950540958269
s(S'appointed'
p329
S'[[num]]'
p330
tp331
F0.0015455950540958269
s(S'soon'
p332
S'met'
p333
tp334
F0.0030911901081916537
s(S'was'
p335
S'replaced'
p336
tp337
F0.013910355486862442
s(S'is'
p338
S'replaced'
p339
tp340
F0.00463678516228748
s(S's'
p341
S'successor'
p342
tp343
F0.0061823802163833074
s(S'succeeded'
p344
S'when'
p345
tp346
F0.0015455950540958269
s(S'whom'
p347
S'met'
p348
tp349
F0.0015455950540958269
s(S'led'
p350
S'by'
p351
tp352
F0.0077279752704791345
s(S'which'
p353
S'replaced'
p354
tp355
F0.0030911901081916537
s(S'when'
p356
S'replaced'
p357
tp358
F0.0015455950540958269
s(S'appointed'
p359
S'by'
p360
tp361
F0.021638330757341576
s(S'[[con]]'
p362
S'set'
p363
tp364
F0.0015455950540958269
s(S'succeeded'
p365
S'after'
p366
tp367
F0.0015455950540958269
s(S'lead'
p368
g88
tp369
F0.0015455950540958269
s(S'appointed'
p370
S'before'
p371
tp372
F0.0015455950540958269
s(S'had'
p373
S'succeeded'
p374
tp375
F0.0061823802163833074
s(S'replaced'
p376
S'[[adj]]'
p377
tp378
F0.0030911901081916537
s(S'when'
p379
S'led'
p380
tp381
F0.0015455950540958269
s(S'later'
p382
S'replaced'
p383
tp384
F0.0061823802163833074
s(g74
S'by'
p385
tp386
F0.0015455950540958269
s(S'again'
p387
S'appointed'
p388
tp389
F0.00463678516228748
s(S'[[pro]]'
p390
S'met'
p391
tp392
F0.0015455950540958269
s(g80
S'lead'
p393
tp394
F0.0030911901081916537
s(S'be'
p395
S'replaced'
p396
tp397
F0.00463678516228748
s(S'is'
p398
S'declared'
p399
tp400
F0.0015455950540958269
s(S'appointed'
p401
S'with'
p402
tp403
F0.0030911901081916537
s(S'later'
p404
S'met'
p405
tp406
F0.0030911901081916537
s(g274
S'by'
p407
tp408
F0.0030911901081916537
s(S'[[con]]'
p409
S'explained'
p410
tp411
F0.0015455950540958269
s(S'met'
p412
S'who'
p413
tp414
F0.0015455950540958269
s(S'met'
p415
S'[[adj]]'
p416
tp417
F0.0061823802163833074
s(g209
S'to'
p418
tp419
F0.0030911901081916537
s(S'was'
p420
g202
tp421
F0.021638330757341576
s(S'being'
p422
S'replaced'
p423
tp424
F0.0030911901081916537
s(S'who'
p425
S'replaced'
p426
tp427
F0.0015455950540958269
s(S'appointed'
p428
S'of'
p429
tp430
F0.0015455950540958269
s(S'be'
p431
S'appointed'
p432
tp433
F0.00927357032457496
s(S'led'
p434
S'[[det]]'
p435
tp436
F0.0015455950540958269
s(g363
S'off'
p437
tp438
F0.0015455950540958269
s(S'[[num]]'
p439
S'ahead'
p440
tp441
F0.0015455950540958269
s(S'led'
p442
S'for'
p443
tp444
F0.0015455950540958269
s(S'met'
p445
S'[[prp]]'
p446
tp447
F0.0030911901081916537
s(S'appointed'
p448
S'[[det]]'
p449
tp450
F0.01854714064914992
s(S'was'
p451
S'followed'
p452
tp453
F0.0015455950540958269
s(S'met'
p454
S'with'
p455
tp456
F0.015455950540958269
s(S'[[con]]'
p457
S'met'
p458
tp459
F0.00927357032457496
s(S'with'
p460
S'leader'
p461
tp462
F0.0015455950540958269
s(S'which'
p463
S'met'
p464
tp465
F0.0015455950540958269
s(g393
g223
tp466
F0.0015455950540958269
s(S'while'
p467
S'led'
p468
tp469
F0.0015455950540958269
s(S'appointed'
p470
S'[[adj]]'
p471
tp472
F0.00463678516228748
s(S'which'
p473
S'led'
p474
tp475
F0.0030911901081916537
s(S'led'
p476
S'[[con]]'
p477
tp478
F0.0030911901081916537
s(S'declared'
p479
S'[[prp]]'
p480
tp481
F0.0015455950540958269
s(S'[[pro]]'
p482
S'led'
p483
tp484
F0.0015455950540958269
s(S'had'
p485
S'declared'
p486
tp487
F0.0030911901081916537
s(S'appointed'
p488
S'in'
p489
tp490
F0.0030911901081916537
s(S'met'
p491
S'[[det]]'
p492
tp493
F0.010819165378670788
s(S'[[det]]'
p494
g309
tp495
F0.00927357032457496
s(S'[[con]]'
p496
S'appointed'
p497
tp498
F0.0061823802163833074
s(S'[[det]]'
p499
S'met'
p500
tp501
F0.0015455950540958269
s(S'succeeded'
p502
S'[[adj]]'
p503
tp504
F0.0015455950540958269
s(S'then'
p505
S'met'
p506
tp507
F0.0030911901081916537
s(S'also'
p508
S'declared'
p509
tp510
F0.0015455950540958269
s(S'declared'
p511
S'[[adj]]'
p512
tp513
F0.00463678516228748
s(S'as'
p514
S'leader'
p515
tp516
F0.0015455950540958269
s(S'[[det]]'
p517
S'led'
p518
tp519
F0.0030911901081916537
s(S'now'
p520
S'led'
p521
tp522
F0.0030911901081916537
s(S'replaced'
p523
S'after'
p524
tp525
F0.0030911901081916537
s(S'after'
p526
S'met'
p527
tp528
F0.0015455950540958269
s(S'replaced'
p529
S'[[prp]]'
p530
tp531
F0.0015455950540958269
s(S'[[con]]'
p532
g262
tp533
F0.0030911901081916537
s(S'also'
p534
S'met'
p535
tp536
F0.010819165378670788
s(S'led'
p537
S'after'
p538
tp539
F0.0015455950540958269
s(S'later'
p540
S'explained'
p541
tp542
F0.0015455950540958269
s(S'replaced'
p543
S'when'
p544
tp545
F0.0015455950540958269
s(g497
S'as'
p546
tp547
F0.02009273570324575
s(S'for'
p548
S'leader'
p549
tp550
F0.0015455950540958269
s(S'succeeded'
p551
S'[[num]]'
p552
tp553
F0.0015455950540958269
s(g89
S'ahead'
p554
tp555
F0.0015455950540958269
s(g131
S'county'
p556
tp557
F0.0015455950540958269
s(S'has'
p558
S'met'
p559
tp560
F0.00463678516228748
s(S'that'
p561
S'led'
p562
tp563
F0.0015455950540958269
s(S'succeeded'
p564
S'who'
p565
tp566
F0.0030911901081916537
s(g257
S'[[con]]'
p567
tp568
F0.012364760432766615
s(S'succeeded'
p569
S'[[con]]'
p570
tp571
F0.0030911901081916537
s(S'where'
p572
S'led'
p573
tp574
F0.0015455950540958269
s(S'that'
p575
S'met'
p576
tp577
F0.0015455950540958269
s(S'met'
p578
S'after'
p579
tp580
F0.0015455950540958269
s(S'then'
p581
S'replaced'
p582
tp583
F0.0061823802163833074
s(S'[[con]]'
p584
S'led'
p585
tp586
F0.0015455950540958269
s(S'were'
p587
S'champions'
p588
tp589
F0.0015455950540958269
s(S'where'
p590
g454
tp591
F0.0077279752704791345
s(S'by'
p592
S'leader'
p593
tp594
F0.0015455950540958269
s(S'[[adj]]'
p595
S'replaced'
p596
tp597
F0.0015455950540958269
s(S'in'
p598
g451
tp599
F0.0015455950540958269
s(S'succeeded'
p600
S'[[det]]'
p601
tp602
F0.0015455950540958269
s(S'also'
p603
S'replaced'
p604
tp605
F0.00463678516228748
s(S'replaced'
p606
S'with'
p607
tp608
F0.012364760432766615
s(S'had'
p609
S'met'
p610
tp611
F0.010819165378670788
s(S'successor'
p612
S'[[con]]'
p613
tp614
F0.0061823802163833074
s(S'won'
p615
g598
tp616
F0.0015455950540958269
s(g339
S'as'
p617
tp618
F0.010819165378670788
s(S'first'
p619
S'met'
p620
tp621
F0.00927357032457496
s(S'[[adj]]'
p622
S'appointed'
p623
tp624
F0.0030911901081916537
s(S'who'
p625
S'succeeded'
p626
tp627
F0.0015455950540958269
s(S'never'
p628
S'met'
p629
tp630
F0.0015455950540958269
s(g452
S'by'
p631
tp632
F0.0015455950540958269
s(S'that'
p633
S'appointed'
p634
tp635
F0.0015455950540958269
s(S'also'
p636
S'succeeded'
p637
tp638
F0.0030911901081916537
s(S'succeeded'
p639
S'with'
p640
tp641
F0.0015455950540958269
s(S'succeeded'
p642
S'on'
p643
tp644
F0.0015455950540958269
s(S'met'
p645
S'[[num]]'
p646
tp647
F0.0015455950540958269
s(g556
g270
tp648
F0.0015455950540958269
s(g41
S'by'
p649
tp650
F0.02009273570324575
s(g354
S'[[det]]'
p651
tp652
F0.00463678516228748
s(g374
S'in'
p653
tp654
F0.00463678516228748
s(S'by'
p655
S'successor'
p656
tp657
F0.0015455950540958269
s(S'of'
p658
g350
tp659
F0.0015455950540958269
s(S'met'
p660
S'[[con]]'
p661
tp662
F0.013910355486862442
s(S'had'
p663
S'appointed'
p664
tp665
F0.0077279752704791345
s(S'being'
p666
S'appointed'
p667
tp668
F0.0077279752704791345
s(S'appointed'
p669
S'[[pro]]'
p670
tp671
F0.0030911901081916537
s(S'that'
p672
S'leader'
p673
tp674
F0.0015455950540958269
s(S'was'
p675
S'succeeded'
p676
tp677
F0.013910355486862442
s(S'been'
p678
S'appointed'
p679
tp680
F0.0061823802163833074
s(S'led'
p681
S'[[adj]]'
p682
tp683
F0.0015455950540958269
s(S'met'
p684
S'as'
p685
tp686
F0.0015455950540958269
s(g336
S'in'
p687
tp688
F0.0030911901081916537
s(S'who'
p689
g442
tp690
F0.0030911901081916537
s(g248
S'by'
p691
tp692
F0.00927357032457496
s(g98
S'that'
p693
tp694
F0.00463678516228748
s(S'[[con]]'
p695
S'successor'
p696
tp697
F0.0030911901081916537
s(S'replaced'
p698
S'[[pro]]'
p699
tp700
F0.00463678516228748
s(g610
S'through'
p701
tp702
F0.0030911901081916537
s(S'were'
p703
g606
tp704
F0.0030911901081916537
s(S'of'
p705
S'leader'
p706
tp707
F0.0015455950540958269
s(g29
S'when'
p708
tp709
F0.0030911901081916537
s(S'[[det]]'
p710
S'replaced'
p711
tp712
F0.0015455950540958269
s(S'[[adj]]'
p713
g253
tp714
F0.0061823802163833074
s(S'been'
p715
S'replaced'
p716
tp717
F0.0015455950540958269
s(S'went'
p718
S'ahead'
p719
tp720
F0.0015455950540958269
s(S'declared'
p721
S'as'
p722
tp723
F0.0015455950540958269
s(g664
S'to'
p724
tp725
F0.00927357032457496
s(g385
g55
tp726
F0.0015455950540958269
s(S'passed'
p727
g362
tp728
F0.0015455950540958269
s(S'became'
p729
S'leader'
p730
tp731
F0.0030911901081916537
s(S'[[det]]'
p732
S'appointed'
p733
tp734
F0.00463678516228748
s(g8
S'leader'
p735
tp736
F0.0030911901081916537
s(S'is'
p737
S'succeeded'
p738
tp739
F0.0030911901081916537
s(S'[[pro]]'
p740
S'replaced'
p741
tp742
F0.0015455950540958269
s(S'who'
p743
S'appointed'
p744
tp745
F0.0015455950540958269
s(S'leader'
p746
S'[[con]]'
p747
tp748
F0.00927357032457496
s(S'then'
p749
S'succeeded'
p750
tp751
F0.00463678516228748
s(S'met'
p752
S'from'
p753
tp754
F0.0015455950540958269
s(S'replaced'
p755
S'from'
p756
tp757
F0.0015455950540958269
s(S'successor'
p758
S'in'
p759
tp760
F0.0030911901081916537
s.