(dp0
(S'[[adj]]'
p1
S'adventure'
p2
tp3
F0.0019083969465648854
s(S'been'
p4
S'played'
p5
tp6
F0.0019083969465648854
s(S'published'
p7
S'[[con]]'
p8
tp9
F0.003816793893129771
s(S'[[adj]]'
p10
S'created'
p11
tp12
F0.0019083969465648854
s(S'played'
p13
S'between'
p14
tp15
F0.0057251908396946565
s(S'wrestling'
p16
S'video'
p17
tp18
F0.0019083969465648854
s(S'later'
p19
S'ported'
p20
tp21
F0.0019083969465648854
s(S'[[adj]]'
p22
S'played'
p23
tp24
F0.0019083969465648854
s(g8
S'developed'
p25
tp26
F0.003816793893129771
s(S'[[det]]'
p27
S'sports'
p28
tp29
F0.0057251908396946565
s(S'released'
p30
S'[[con]]'
p31
tp32
F0.0019083969465648854
s(S'[[det]]'
p33
S'computer'
p34
tp35
F0.0057251908396946565
s(S'action'
p36
S'video'
p37
tp38
F0.0019083969465648854
s(S'[[det]]'
p39
S'console'
p40
tp41
F0.003816793893129771
s(S'was'
p42
S'released'
p43
tp44
F0.007633587786259542
s(S'is'
p45
S'released'
p46
tp47
F0.0019083969465648854
s(S'game'
p48
S'created'
p49
tp50
F0.0019083969465648854
s(S'for'
p51
S'[[det]]'
p52
tp53
F0.0019083969465648854
s(g2
S'video'
p54
tp55
F0.0019083969465648854
s(S'was'
p56
S'ported'
p57
tp58
F0.0019083969465648854
s(S'[[det]]'
p59
S'adventure'
p60
tp61
F0.0019083969465648854
s(S'[[pro]]'
p62
S'[[adj]]'
p63
tp64
F0.0019083969465648854
s(S'played'
p65
S'with'
p66
tp67
F0.0019083969465648854
s(g40
S'[[adj]]'
p68
tp69
F0.003816793893129771
s(S'racing'
p70
S'game'
p71
tp72
F0.0019083969465648854
s(S'actionadventure'
p73
S'video'
p74
tp75
F0.007633587786259542
s(S'series'
p76
S'on'
p77
tp78
F0.0019083969465648854
s(S'played'
p79
S'on'
p80
tp81
F0.0019083969465648854
s(S'[[det]]'
p82
S'puzzle'
p83
tp84
F0.0057251908396946565
s(S'produced'
p85
S'by'
p86
tp87
F0.003816793893129771
s(S'[[adj]]'
p88
g16
tp89
F0.0019083969465648854
s(S'was'
p90
S'contested'
p91
tp92
F0.0019083969465648854
s(S'game'
p93
S'by'
p94
tp95
F0.009541984732824428
s(S'racing'
p96
S'video'
p97
tp98
F0.0057251908396946565
s(S'game'
p99
S'developed'
p100
tp101
F0.10114503816793893
s(S'known'
p102
S'is'
p103
tp104
F0.003816793893129771
s(S'game'
p105
S'published'
p106
tp107
F0.003816793893129771
s(S'published'
p108
S'from'
p109
tp110
F0.0019083969465648854
s(S'released'
p111
S'by'
p112
tp113
F0.04007633587786259
s(S'series'
p114
S'between'
p115
tp116
F0.0019083969465648854
s(S'being'
p117
S'developed'
p118
tp119
F0.0019083969465648854
s(S'sports'
p120
S'game'
p121
tp122
F0.003816793893129771
s(S'[[adj]]'
p123
S'run'
p124
tp125
F0.0019083969465648854
s(S'[[adj]]'
p126
g114
tp127
F0.0019083969465648854
s(S'action'
p128
S'[[adj]]'
p129
tp130
F0.003816793893129771
s(S'[[pro]]'
p131
S'released'
p132
tp133
F0.0019083969465648854
s(S'arcade'
p134
g48
tp135
F0.0019083969465648854
s(S'[[con]]'
p136
g111
tp137
F0.007633587786259542
s(S'[[det]]'
p138
g96
tp139
F0.0057251908396946565
s(S'strategy'
p140
S'computer'
p141
tp142
F0.003816793893129771
s(S'played'
p143
S'in'
p144
tp145
F0.003816793893129771
s(S'sciencefiction'
p146
S'[[adj]]'
p147
tp148
F0.0019083969465648854
s(S'action'
p149
S'game'
p150
tp151
F0.0019083969465648854
s(S'[[con]]'
p152
S'was'
p153
tp154
F0.003816793893129771
s(S'[[det]]'
p155
S'developed'
p156
tp157
F0.003816793893129771
s(S'of'
p158
S'series'
p159
tp160
F0.0019083969465648854
s(S'that'
p161
g42
tp162
F0.0057251908396946565
s(S'[[det]]'
p163
S'firstperson'
p164
tp165
F0.0057251908396946565
s(S'shoot'
p166
g131
tp167
F0.003816793893129771
s(S'[[det]]'
p168
S'game'
p169
tp170
F0.013358778625954198
s(S'played'
p171
S'against'
p172
tp173
F0.0019083969465648854
s(S'was'
p174
S'announced'
p175
tp176
F0.0019083969465648854
s(S'were'
p177
S'published'
p178
tp179
F0.0019083969465648854
s(S'game'
p180
g85
tp181
F0.003816793893129771
s(S'game'
p182
g51
tp183
F0.0019083969465648854
s(S'still'
p184
S'played'
p185
tp186
F0.0019083969465648854
s(S'be'
p187
S'released'
p188
tp189
F0.0019083969465648854
s(g91
S'by'
p190
tp191
F0.0019083969465648854
s(S'later'
p192
S'published'
p193
tp194
F0.0019083969465648854
s(g5
S'at'
p195
tp196
F0.0057251908396946565
s(g164
S'shooter'
p197
tp198
F0.0057251908396946565
s(S'[[adj]]'
p199
S'developed'
p200
tp201
F0.003816793893129771
s(S'were'
p202
S'created'
p203
tp204
F0.0019083969465648854
s(S'[[num]]'
p205
g13
tp206
F0.0019083969465648854
s(S'series'
p207
S'against'
p208
tp209
F0.0019083969465648854
s(S'[[adj]]'
p210
S'video'
p211
tp212
F0.007633587786259542
s(S'was'
p213
g7
tp214
F0.009541984732824428
s(g175
S'by'
p215
tp216
F0.0019083969465648854
s(S'also'
p217
S'released'
p218
tp219
F0.0019083969465648854
s(g124
S'[[con]]'
p220
tp221
F0.0019083969465648854
s(S'defending'
p222
S'champion'
p223
tp224
F0.0019083969465648854
s(S'been'
p225
S'developed'
p226
tp227
F0.0019083969465648854
s(S'created'
p228
S'by'
p229
tp230
F0.011450381679389313
s(S'is'
p231
S'developed'
p232
tp233
F0.003816793893129771
s(g52
S'released'
p234
tp235
F0.0019083969465648854
s(S'[[det]]'
p236
g36
tp237
F0.007633587786259542
s(S'were'
p238
S'released'
p239
tp240
F0.0019083969465648854
s(S'game'
p241
S'released'
p242
tp243
F0.011450381679389313
s(S'developed'
p244
S'published'
p245
tp246
F0.0019083969465648854
s(S'shooter'
p247
S'video'
p248
tp249
F0.011450381679389313
s(S'created'
p250
S'with'
p251
tp252
F0.0019083969465648854
s(S'was'
p253
g228
tp254
F0.0057251908396946565
s(S'created'
p255
S'[[con]]'
p256
tp257
F0.0019083969465648854
s(g220
S'video'
p258
tp259
F0.0019083969465648854
s(g34
g99
tp260
F0.013358778625954198
s(S'[[adj]]'
p261
S'strategy'
p262
tp263
F0.009541984732824428
s(S'is'
p264
S'played'
p265
tp266
F0.0057251908396946565
s(S'game'
p267
g161
tp268
F0.007633587786259542
s(g83
S'video'
p269
tp270
F0.003816793893129771
s(S'later'
p271
S'released'
p272
tp273
F0.003816793893129771
s(S'strategy'
p274
S'game'
p275
tp276
F0.003816793893129771
s(S'television'
p277
S'series'
p278
tp279
F0.0019083969465648854
s(S'is'
p280
S'created'
p281
tp282
F0.0019083969465648854
s(S'[[con]]'
p283
S'published'
p284
tp285
F0.05916030534351145
s(S'[[det]]'
p286
g222
tp287
F0.0019083969465648854
s(g190
g286
tp288
F0.0019083969465648854
s(g262
S'video'
p289
tp290
F0.0019083969465648854
s(g68
S'game'
p291
tp292
F0.02480916030534351
s(S'developed'
p293
S'[[con]]'
p294
tp295
F0.06870229007633588
s(S'game'
p296
S'show'
p297
tp298
F0.003816793893129771
s(S'[[det]]'
p299
g277
tp300
F0.0019083969465648854
s(S'[[adj]]'
p301
g247
tp302
F0.003816793893129771
s(S'[[num]]'
p303
S'video'
p304
tp305
F0.0019083969465648854
s(S'game'
p306
S'between'
p307
tp308
F0.003816793893129771
s(S'was'
p309
S'developed'
p310
tp311
F0.01717557251908397
s(S'published'
p312
S'in'
p313
tp314
F0.0019083969465648854
s(g310
S'by'
p315
tp316
F0.07251908396946564
s(g60
S'game'
p317
tp318
F0.0019083969465648854
s(S'[[num]]'
p319
S'computer'
p320
tp321
F0.003816793893129771
s(S'[[adj]]'
p322
g70
tp323
F0.0019083969465648854
s(S'[[det]]'
p324
g73
tp325
F0.003816793893129771
s(S'[[det]]'
p326
g146
tp327
F0.0019083969465648854
s(g284
S'by'
p328
tp329
F0.07061068702290077
s(g278
S'developed'
p330
tp331
F0.0019083969465648854
s(S'puzzle'
p332
S'game'
p333
tp334
F0.0019083969465648854
s(g28
S'video'
p335
tp336
F0.0019083969465648854
s(S'[[det]]'
p337
S'video'
p338
tp339
F0.022900763358778626
s(g272
S'in'
p340
tp341
F0.0019083969465648854
s(S'video'
p342
S'game'
p343
tp344
F0.08015267175572519
s(S'was'
p345
g171
tp346
F0.009541984732824428
s(g103
S'[[det]]'
p347
tp348
F0.003816793893129771
s.