(dp0
(S'adapted'
p1
S'directed'
p2
tp3
F0.00034458993797381116
s(S'television'
p4
S'drama'
p5
tp6
F0.00034458993797381116
s(S'[[num]]'
p7
S'directed'
p8
tp9
F0.00034458993797381116
s(S'[[adj]]'
p10
S'adventure'
p11
tp12
F0.0006891798759476223
s(S'[[det]]'
p13
S'thriller'
p14
tp15
F0.0010337698139214334
s(S'thriller'
p16
S'directed'
p17
tp18
F0.0010337698139214334
s(S'gt'
p19
S'[[con]]'
p20
tp21
F0.00034458993797381116
s(S'with'
p22
S'[[det]]'
p23
tp24
F0.0013783597518952446
s(S'is'
p25
S'produced'
p26
tp27
F0.00034458993797381116
s(S'[[adj]]'
p28
S'created'
p29
tp30
F0.00034458993797381116
s(S'into'
p31
S'[[det]]'
p32
tp33
F0.00034458993797381116
s(S'comedy'
p34
S'horror'
p35
tp36
F0.00034458993797381116
s(S'by'
p37
S'[[con]]'
p38
tp39
F0.01826326671261199
s(S'fiction'
p40
S'horror'
p41
tp42
F0.0006891798759476223
s(S'made'
p43
S'by'
p44
tp45
F0.00034458993797381116
s(S'[[num]]'
p46
S'written'
p47
tp48
F0.0010337698139214334
s(S'[[num]]'
p49
S'motion'
p50
tp51
F0.0013783597518952446
s(S'from'
p52
S'directed'
p53
tp54
F0.0006891798759476223
s(S'[[adj]]'
p55
S'cast'
p56
tp57
F0.00034458993797381116
s(S'[[adj]]'
p58
S'documentary'
p59
tp60
F0.00034458993797381116
s(S'adapted'
p61
S'[[num]]'
p62
tp63
F0.00034458993797381116
s(S'mystery'
p64
S'crime'
p65
tp66
F0.00034458993797381116
s(S'fantasy'
p67
S'adventure'
p68
tp69
F0.00034458993797381116
s(S'[[adj]]'
p70
S'era'
p71
tp72
F0.0006891798759476223
s(S'adapted'
p73
S'into'
p74
tp75
F0.0006891798759476223
s(S'film'
p76
S'in'
p77
tp78
F0.00034458993797381116
s(S'directed'
p79
S'that'
p80
tp81
F0.00034458993797381116
s(S'about'
p82
S'directed'
p83
tp84
F0.0006891798759476223
s(S'[[det]]'
p85
S'sports'
p86
tp87
F0.00034458993797381116
s(S'as'
p88
S'[[det]]'
p89
tp90
F0.00034458993797381116
s(S'[[con]]'
p91
S'starred'
p92
tp93
F0.0017229496898690559
s(S'directed'
p94
S'based'
p95
tp96
F0.0006891798759476223
s(S'feature'
p97
S'film'
p98
tp99
F0.005168849069607168
s(S'starring'
p100
S'with'
p101
tp102
F0.0006891798759476223
s(S'adapted'
p103
S'by'
p104
tp105
F0.00034458993797381116
s(S'directed'
p106
S'about'
p107
tp108
F0.00034458993797381116
s(S'[[adj]]'
p109
S'[[con]]'
p110
tp111
F0.0006891798759476223
s(S'[[det]]'
p112
S'cult'
p113
tp114
F0.00034458993797381116
s(g95
S'by'
p115
tp116
F0.0010337698139214334
s(S'was'
p117
S'written'
p118
tp119
F0.005168849069607168
s(S'[[adj]]'
p120
S'comedy'
p121
tp122
F0.010682288077188146
s(S'television'
p123
S'film'
p124
tp125
F0.0017229496898690559
s(S'was'
p126
S'released'
p127
tp128
F0.00034458993797381116
s(S'was'
p129
S'film'
p130
tp131
F0.00034458993797381116
s(g80
S'starred'
p132
tp133
F0.00034458993797381116
s(S'edited'
p134
S'[[con]]'
p135
tp136
F0.00034458993797381116
s(S'comedy'
p137
S'crime'
p138
tp139
F0.00034458993797381116
s(S'film'
p140
S'of'
p141
tp142
F0.00034458993797381116
s(S'documentary'
p143
S'directed'
p144
tp145
F0.0006891798759476223
s(S'first'
p146
S'produced'
p147
tp148
F0.0006891798759476223
s(S'family'
p149
S'film'
p150
tp151
F0.0010337698139214334
s(S'[[det]]'
p152
S'adventure'
p153
tp154
F0.00034458993797381116
s(S'fantasy'
p155
S'film'
p156
tp157
F0.0013783597518952446
s(S'science'
p158
S'film'
p159
tp160
F0.00034458993797381116
s(S'[[num]]'
p161
S'crime'
p162
tp163
F0.00861474844934528
s(S'[[num]]'
p164
S'comedydrama'
p165
tp166
F0.0031013094417643005
s(S'comedy'
p167
S'directed'
p168
tp169
F0.002067539627842867
s(S'adapted'
p170
g88
tp171
F0.00034458993797381116
s(S'horror'
p172
S'film'
p173
tp174
F0.009648518263266712
s(S'[[num]]'
p175
S'road'
p176
tp177
F0.0006891798759476223
s(S'[[adj]]'
p178
S'crime'
p179
tp180
F0.0017229496898690559
s(S'romance'
p181
S'film'
p182
tp183
F0.002067539627842867
s(S'be'
p184
S'produced'
p185
tp186
F0.00034458993797381116
s(S'was'
p187
g73
tp188
F0.002067539627842867
s(S'film'
p189
S'[[con]]'
p190
tp191
F0.0010337698139214334
s(S'[[det]]'
p192
S'language'
p193
tp194
F0.0006891798759476223
s(S'film'
p195
S'with'
p196
tp197
F0.00034458993797381116
s(S'stars'
p198
S'as'
p199
tp200
F0.00034458993797381116
s(S'[[adj]]'
p201
S'debut'
p202
tp203
F0.00034458993797381116
s(S'[[con]]'
p204
S'featuring'
p205
tp206
F0.0027567195037904893
s(S'[[det]]'
p207
S'directed'
p208
tp209
F0.00034458993797381116
s(S'[[det]]'
p210
S'feature'
p211
tp212
F0.0013783597518952446
s(S'[[adj]]'
p213
S'film'
p214
tp215
F0.015851137146795313
s(S'film'
p216
S'written'
p217
tp218
F0.022053756030323914
s(S'[[con]]'
p219
S'action'
p220
tp221
F0.00034458993797381116
s(S'known'
p222
S'is'
p223
tp224
F0.0034458993797381117
s(S'written'
p225
S'produced'
p226
tp227
F0.0006891798759476223
s(S'written'
p228
S'[[con]]'
p229
tp230
F0.028256374913852515
s(S'written'
p231
S'directed'
p232
tp233
F0.0017229496898690559
s(S'[[num]]'
p234
S'science'
p235
tp236
F0.002412129565816678
s(S'directed'
p237
S'at'
p238
tp239
F0.00034458993797381116
s(S'film'
p240
S'[[adj]]'
p241
tp242
F0.0017229496898690559
s(S'[[con]]'
p243
S'is'
p244
tp245
F0.00034458993797381116
s(S'produced'
p246
S'by'
p247
tp248
F0.009993108201240523
s(S'[[con]]'
p249
S'starring'
p250
tp251
F0.052033080634045485
s(S'produced'
p252
S'[[con]]'
p253
tp254
F0.006891798759476223
s(S'[[num]]'
p255
S'detective'
p256
tp257
F0.0006891798759476223
s(S'also'
p258
g222
tp259
F0.0031013094417643005
s(S'written'
p260
S'for'
p261
tp262
F0.00034458993797381116
s(S'[[con]]'
p263
S'crime'
p264
tp265
F0.00034458993797381116
s(g121
S'film'
p266
tp267
F0.02308752584424535
s(S'edited'
p268
S'by'
p269
tp270
F0.00034458993797381116
s(S'film'
p271
S'that'
p272
tp273
F0.0013783597518952446
s(S'by'
p274
S'produced'
p275
tp276
F0.00034458993797381116
s(S'[[num]]'
p277
g97
tp278
F0.002412129565816678
s(S'action'
p279
S'thriller'
p280
tp281
F0.0013783597518952446
s(S'is'
p282
S'film'
p283
tp284
F0.00034458993797381116
s(S'action'
p285
S'written'
p286
tp287
F0.0006891798759476223
s(S'assassination'
p288
g219
tp289
F0.00034458993797381116
s(S'film'
p290
g43
tp291
F0.0013783597518952446
s(S'drama'
p292
S'film'
p293
tp294
F0.022398345968297727
s(g176
S'movie'
p295
tp296
F0.0006891798759476223
s(S'[[adj]]'
p297
S'action'
p298
tp299
F0.0013783597518952446
s(S'made'
p300
S'[[con]]'
p301
tp302
F0.00034458993797381116
s(S'directed'
p303
S'as'
p304
tp305
F0.0006891798759476223
s(S'by'
p306
S'starring'
p307
tp308
F0.012749827705031013
s(S'[[det]]'
p309
S'war'
p310
tp311
F0.00034458993797381116
s(S'[[con]]'
p312
g103
tp313
F0.00034458993797381116
s(S'thriller'
p314
S'film'
p315
tp316
F0.012405237767057202
s(S'[[num]]'
p317
g279
tp318
F0.008270158511371467
s(S'thriller'
p319
S'written'
p320
tp321
F0.00034458993797381116
s(S'as'
p322
S'[[num]]'
p323
tp324
F0.00034458993797381116
s(S'fiction'
p325
S'film'
p326
tp327
F0.0013783597518952446
s(S'film'
p328
S'for'
p329
tp330
F0.00034458993797381116
s(S'[[num]]'
p331
S'produced'
p332
tp333
F0.0006891798759476223
s(S'directed'
p334
S'which'
p335
tp336
F0.00034458993797381116
s(g202
S'of'
p337
tp338
F0.00034458993797381116
s(S'is'
p339
S'[[num]]'
p340
tp341
F0.004824259131633356
s(S'[[det]]'
p342
S'drama'
p343
tp344
F0.0010337698139214334
s(S'comedy'
p345
S'action'
p346
tp347
F0.00034458993797381116
s(g92
S'by'
p348
tp349
F0.00034458993797381116
s(S'was'
p350
S'directed'
p351
tp352
F0.009648518263266712
s(S'[[con]]'
p353
S'was'
p354
tp355
F0.0010337698139214334
s(S'is'
p356
S'written'
p357
tp358
F0.0010337698139214334
s(S'[[adj]]'
p359
S'fantasy'
p360
tp361
F0.00034458993797381116
s(S'written'
p362
S'by'
p363
tp364
F0.016195727084769126
s(S'released'
p365
S'starring'
p366
tp367
F0.0013783597518952446
s(S'film'
p368
g252
tp369
F0.0034458993797381117
s(g173
g52
tp370
F0.0013783597518952446
s(S'family'
p371
S'comedy'
p372
tp373
F0.0006891798759476223
s(g223
S'[[adj]]'
p374
tp375
F0.0006891798759476223
s(g113
S'[[num]]'
p376
tp377
F0.00034458993797381116
s(S'[[det]]'
p378
S'gentleman'
p379
tp380
F0.00034458993797381116
s(S'collaboration'
p381
S'with'
p382
tp383
F0.00034458993797381116
s(S'film'
p384
S'noir'
p385
tp386
F0.0013783597518952446
s(S'[[con]]'
p387
S'based'
p388
tp389
F0.00034458993797381116
s(S'directed'
p390
S'starring'
p391
tp392
F0.01171605789110958
s(S'produced'
p393
S'with'
p394
tp395
F0.0010337698139214334
s(S'film'
p396
S'where'
p397
tp398
F0.00034458993797381116
s(g86
S'drama'
p399
tp400
F0.00034458993797381116
s(S'[[con]]'
p401
S'stars'
p402
tp403
F0.004135079255685734
s(S'[[det]]'
p404
S'soundtrack'
p405
tp406
F0.0010337698139214334
s(S'[[det]]'
p407
S'collaboration'
p408
tp409
F0.0013783597518952446
s(S'starring'
p410
S'directed'
p411
tp412
F0.0006891798759476223
s(S'[[num]]'
p413
S'mystery'
p414
tp415
F0.002412129565816678
s(S'[[adj]]'
p416
S'mystery'
p417
tp418
F0.00034458993797381116
s(S'produced'
p419
S'directed'
p420
tp421
F0.0013783597518952446
s(S'[[adj]]'
p422
S'horror'
p423
tp424
F0.0017229496898690559
s(S'[[det]]'
p425
S'horror'
p426
tp427
F0.0010337698139214334
s(S'[[adj]]'
p428
S'science'
p429
tp430
F0.00034458993797381116
s(S'were'
p431
S'written'
p432
tp433
F0.00034458993797381116
s(S'[[num]]'
p434
g123
tp435
F0.0017229496898690559
s(S'film'
p436
S'comedy'
p437
tp438
F0.00034458993797381116
s(g250
S'[[con]]'
p439
tp440
F0.03135768435561682
s(S'documentary'
p441
S'film'
p442
tp443
F0.004135079255685734
s(g340
S'film'
p444
tp445
F0.02377670572019297
s(S'[[con]]'
p446
S'also'
p447
tp448
F0.0006891798759476223
s(S'released'
p449
S'is'
p450
tp451
F0.00034458993797381116
s(S'[[det]]'
p452
S'science'
p453
tp454
F0.00034458993797381116
s(S'picture'
p455
S'drama'
p456
tp457
F0.00034458993797381116
s(S'[[num]]'
p458
S'adventure'
p459
tp460
F0.002412129565816678
s(g459
S'film'
p461
tp462
F0.003790489317711923
s(g272
g117
tp463
F0.0010337698139214334
s(g405
S'album'
p464
tp465
F0.0006891798759476223
s(S'drama'
p466
S'directed'
p467
tp468
F0.002067539627842867
s(S'[[con]]'
p469
S'directed'
p470
tp471
F0.03273604410751206
s(S'adapted'
p472
S'[[con]]'
p473
tp474
F0.0006891798759476223
s(S'is'
p475
g237
tp476
F0.0027567195037904893
s(S'[[det]]'
p477
S'script'
p478
tp479
F0.00034458993797381116
s(S'[[det]]'
p480
S'color'
p481
tp482
F0.0006891798759476223
s(S'were'
p483
S'created'
p484
tp485
F0.00034458993797381116
s(S'[[num]]'
p486
S'language'
p487
tp488
F0.0013783597518952446
s(S'based'
p489
S'directed'
p490
tp491
F0.00034458993797381116
s(g141
S'directed'
p492
tp493
F0.00034458993797381116
s(S'[[num]]'
p494
S'fantasy'
p495
tp496
F0.0017229496898690559
s(S'been'
p497
S'written'
p498
tp499
F0.0006891798759476223
s(S'action'
p500
S'comedy'
p501
tp502
F0.0017229496898690559
s(S'[[num]]'
p503
S'movie'
p504
tp505
F0.002412129565816678
s(S'[[num]]'
p506
g441
tp507
F0.0031013094417643005
s(S'screenplay'
p508
S'written'
p509
tp510
F0.00034458993797381116
s(S'comedy'
p511
S'family'
p512
tp513
F0.00034458993797381116
s(g487
S'film'
p514
tp515
F0.002067539627842867
s(S'produced'
p516
S'from'
p517
tp518
F0.00034458993797381116
s(S'[[adj]]'
p519
S'directed'
p520
tp521
F0.0010337698139214334
s(S'[[det]]'
p522
S'crime'
p523
tp524
F0.00034458993797381116
s(S'[[adj]]'
p525
S'produced'
p526
tp527
F0.0006891798759476223
s(S'produced'
p528
S'at'
p529
tp530
F0.00034458993797381116
s(S'[[det]]'
p531
g201
tp532
F0.00034458993797381116
s(S'mystery'
p533
S'film'
p534
tp535
F0.002412129565816678
s(S's'
p536
S'written'
p537
tp538
F0.0006891798759476223
s(S'crime'
p539
S'thriller'
p540
tp541
F0.0013783597518952446
s(S'[[num]]'
p542
g371
tp543
F0.0017229496898690559
s(S'directed'
p544
g22
tp545
F0.002067539627842867
s(S'[[det]]'
p546
S'written'
p547
tp548
F0.00034458993797381116
s(S'comedy'
p549
g213
tp550
F0.0017229496898690559
s(g74
S'[[num]]'
p551
tp552
F0.00034458993797381116
s(g266
S'directed'
p553
tp554
F0.09200551343900758
s(g408
S'between'
p555
tp556
F0.0006891798759476223
s(S'made'
p557
S'directed'
p558
tp559
F0.00034458993797381116
s(g447
S'stars'
p560
tp561
F0.0006891798759476223
s(g335
S'starred'
p562
tp563
F0.00034458993797381116
s(S'directed'
p564
S'written'
p565
tp566
F0.004135079255685734
s(S'[[adj]]'
p567
S'movie'
p568
tp569
F0.0006891798759476223
s(g495
S'action'
p570
tp571
F0.00034458993797381116
s(S'drama'
p572
S'[[adj]]'
p573
tp574
F0.0006891798759476223
s(S'film'
p575
S'by'
p576
tp577
F0.003790489317711923
s(S'[[con]]'
p578
g134
tp579
F0.0006891798759476223
s(S'created'
p580
S'with'
p581
tp582
F0.00034458993797381116
s(S'picture'
p583
S'starring'
p584
tp585
F0.0006891798759476223
s(S'was'
p586
S'created'
p587
tp588
F0.0006891798759476223
s(S'starring'
p589
S'[[det]]'
p590
tp591
F0.0010337698139214334
s(S'directed'
p592
S'by'
p593
tp594
F0.0833907649896623
s(S'created'
p595
S'[[con]]'
p596
tp597
F0.00034458993797381116
s(S'by'
p598
S'director'
p599
tp600
F0.0010337698139214334
s(g570
S'film'
p601
tp602
F0.006891798759476223
s(g295
S'directed'
p603
tp604
F0.004135079255685734
s(g587
S'by'
p605
tp606
F0.0017229496898690559
s(S'known'
p607
g322
tp608
F0.00034458993797381116
s(g235
S'fiction'
p609
tp610
F0.0027567195037904893
s(g385
S'starring'
p611
tp612
F0.00034458993797381116
s(S'in'
p613
S'[[num]]'
p614
tp615
F0.0006891798759476223
s(g504
S'[[con]]'
p616
tp617
F0.00034458993797381116
s(S'[[det]]'
p618
g143
tp619
F0.0013783597518952446
s(S'film'
p620
S'stars'
p621
tp622
F0.00034458993797381116
s(S'war'
p623
S'film'
p624
tp625
F0.002412129565816678
s(S'[[adj]]'
p626
S'motion'
p627
tp628
F0.00034458993797381116
s(S'[[adj]]'
p629
S'collaboration'
p630
tp631
F0.00034458993797381116
s(S'[[det]]'
p632
S'mystery'
p633
tp634
F0.00034458993797381116
s(g165
S'film'
p635
tp636
F0.005168849069607168
s(S'film'
p637
g489
tp638
F0.0006891798759476223
s(S'starred'
p639
S'as'
p640
tp641
F0.00034458993797381116
s(g162
S'drama'
p642
tp643
F0.0031013094417643005
s(S'then'
p644
g528
tp645
F0.00034458993797381116
s(g553
g249
tp646
F0.05272226050999311
s(S'soundtrack'
p647
S'directed'
p648
tp649
F0.00034458993797381116
s(S'[[con]]'
p650
g246
tp651
F0.006891798759476223
s(S'titled'
p652
S'is'
p653
tp654
F0.00034458993797381116
s(S'by'
p655
g620
tp656
F0.0006891798759476223
s(g609
S'thriller'
p657
tp658
F0.00034458993797381116
s(S'film'
p659
g82
tp660
F0.0013783597518952446
s(S'[[adj]]'
p661
S'written'
p662
tp663
F0.0013783597518952446
s(S'written'
p664
S'to'
p665
tp666
F0.00034458993797381116
s(g627
S'picture'
p667
tp668
F0.002412129565816678
s(S'film'
p669
g126
tp670
F0.00034458993797381116
s(S'is'
p671
S'created'
p672
tp673
F0.00034458993797381116
s(S'[[adj]]'
p674
S'drama'
p675
tp676
F0.007925568573397657
s(S'[[num]]'
p677
g167
tp678
F0.012060647829083391
s(g71
S'motion'
p679
tp680
F0.0006891798759476223
s(g23
S'screenplay'
p681
tp682
F0.0006891798759476223
s(g56
S'comedydrama'
p683
tp684
F0.00034458993797381116
s(S'[[adj]]'
p685
S'romance'
p686
tp687
F0.00034458993797381116
s(g464
S'directed'
p688
tp689
F0.0006891798759476223
s(S'[[det]]'
p690
S'film'
p691
tp692
F0.006547208821502412
s(S'[[num]]'
p693
g292
tp694
F0.01171605789110958
s(g241
S'starring'
p695
tp696
F0.00034458993797381116
s(S'[[num]]'
p697
g172
tp698
F0.004479669193659545
s(S'marks'
p699
g531
tp700
F0.00034458993797381116
s(S'[[det]]'
p701
g288
tp702
F0.00034458993797381116
s(S'was'
p703
S'produced'
p704
tp705
F0.0027567195037904893
s(S'comedy'
p706
S'written'
p707
tp708
F0.00034458993797381116
s(S'[[adj]]'
p709
S'feature'
p710
tp711
F0.0006891798759476223
s(S'movie'
p712
S'produced'
p713
tp714
F0.00034458993797381116
s(g614
S'starring'
p715
tp716
F0.0006891798759476223
s(S'comedy'
p717
S'drama'
p718
tp719
F0.0010337698139214334
s(S'[[det]]'
p720
S'television'
p721
tp722
F0.00034458993797381116
s(S'film'
p723
g365
tp724
F0.0010337698139214334
s(S'starring'
p725
S'as'
p726
tp727
F0.0017229496898690559
s(g379
S'[[num]]'
p728
tp729
F0.00034458993797381116
s(S'[[adj]]'
p730
g314
tp731
F0.0027567195037904893
s(g667
S'directed'
p732
tp733
F0.0010337698139214334
s(g642
g228
tp734
F0.00034458993797381116
s(g437
S'starring'
p735
tp736
F0.0006891798759476223
s(S'film'
p737
S'drama'
p738
tp739
F0.00034458993797381116
s(S'article'
p740
g339
tp741
F0.00034458993797381116
s(S'not'
p742
S'written'
p743
tp744
F0.00034458993797381116
s(S'[[num]]'
p745
S'thriller'
p746
tp747
F0.006202618883528601
s(S'written'
p748
S'about'
p749
tp750
F0.00034458993797381116
s(S'from'
p751
S'written'
p752
tp753
F0.00034458993797381116
s(g179
S'film'
p754
tp755
F0.007236388697450034
s(S'arts'
p756
S'film'
p757
tp758
F0.0010337698139214334
s(S'family'
p759
S'adventure'
p760
tp761
F0.00034458993797381116
s(g514
S'starring'
p762
tp763
F0.03308063404548587
s(S'written'
p764
S'that'
p765
tp766
F0.0006891798759476223
s(S'drama'
p767
S'starring'
p768
tp769
F0.0006891798759476223
s(S'be'
p770
S'written'
p771
tp772
F0.00034458993797381116
s(S'film'
p773
S'is'
p774
tp775
F0.00034458993797381116
s(g190
S'[[adj]]'
p776
tp777
F0.00034458993797381116
s(S'were'
p778
S'produced'
p779
tp780
F0.00034458993797381116
s(S'aka'
p781
S'is'
p782
tp783
F0.0010337698139214334
s(S'collaboration'
p784
S'[[con]]'
p785
tp786
F0.00034458993797381116
s(g256
S'film'
p787
tp788
F0.0006891798759476223
s(S'[[num]]'
p789
g623
tp790
F0.0017229496898690559
s(S'[[con]]'
p791
g362
tp792
F0.009648518263266712
s(S'[[det]]'
p793
S'produced'
p794
tp795
F0.00034458993797381116
s(S'[[num]]'
p796
g181
tp797
F0.0017229496898690559
s(S'film'
p798
S'featuring'
p799
tp800
F0.0013783597518952446
s(g402
S'[[con]]'
p801
tp802
F0.002412129565816678
s(g481
S'film'
p803
tp804
F0.0006891798759476223
s(g799
S'[[con]]'
p805
tp806
F0.00034458993797381116
s(S'drama'
p807
S'thriller'
p808
tp809
F0.00034458993797381116
s(S'[[det]]'
p810
S'movie'
p811
tp812
F0.00034458993797381116
s(S'[[det]]'
p813
S'starring'
p814
tp815
F0.00034458993797381116
s(S'noir'
p816
S'directed'
p817
tp818
F0.0010337698139214334
s(S'starred'
p819
S'[[con]]'
p820
tp821
F0.0006891798759476223
s(S'directed'
p822
S'produced'
p823
tp824
F0.002067539627842867
s(S'[[adj]]'
p825
g756
tp826
F0.0010337698139214334
s(S'[[det]]'
p827
g549
tp828
F0.002067539627842867
s(S'released'
p829
g613
tp830
F0.00034458993797381116
s(g414
S'thriller'
p831
tp832
F0.00034458993797381116
s(S'directed'
p833
g19
tp834
F0.00034458993797381116
s(g153
g829
tp835
F0.00034458993797381116
s(S'fiction'
p836
S'directed'
p837
tp838
F0.00034458993797381116
s.