(dp0
(S'were'
p1
S'discovered'
p2
tp3
F0.1
s(S'was'
p4
S'discovered'
p5
tp6
F0.2
s(S'is'
p7
S'discovered'
p8
tp9
F0.2
s(g2
S'by'
p10
tp11
F0.3
s(S'discovered'
p12
S'on'
p13
tp14
F0.1
s(S'discovered'
p15
S'that'
p16
tp17
F0.1
s.