(dp0
(S'not'
p1
S'released'
p2
tp3
F0.015209125475285171
s(S'published'
p4
S'[[con]]'
p5
tp6
F0.0038022813688212928
s(S'[[adj]]'
p7
S'released'
p8
tp9
F0.034220532319391636
s(S'was'
p10
S'licensed'
p11
tp12
F0.0038022813688212928
s(S'that'
p13
S'aired'
p14
tp15
F0.0038022813688212928
s(S'released'
p16
S'as'
p17
tp18
F0.019011406844106463
s(S'were'
p19
S'produced'
p20
tp21
F0.0038022813688212928
s(S'produced'
p22
S'from'
p23
tp24
F0.0038022813688212928
s(S'film'
p25
S'in'
p26
tp27
F0.0038022813688212928
s(S'released'
p28
S'[[con]]'
p29
tp30
F0.011406844106463879
s(S'distributed'
p31
S'by'
p32
tp33
F0.019011406844106463
s(S'by'
p34
S'released'
p35
tp36
F0.0038022813688212928
s(S'distributed'
p37
S'through'
p38
tp39
F0.0038022813688212928
s(S'was'
p40
g16
tp41
F0.053231939163498096
s(S'is'
p42
S'released'
p43
tp44
F0.011406844106463879
s(S'of'
p45
S'released'
p46
tp47
F0.0038022813688212928
s(S'was'
p48
S'distributed'
p49
tp50
F0.011406844106463879
s(S'[[adj]]'
p51
S'aired'
p52
tp53
F0.0038022813688212928
s(S'is'
p54
S'licensed'
p55
tp56
F0.0076045627376425855
s(S'been'
p57
S'released'
p58
tp59
F0.015209125475285171
s(S'be'
p60
S'produced'
p61
tp62
F0.0038022813688212928
s(S'produced'
p63
S'by'
p64
tp65
F0.030418250950570342
s(S's'
p66
S'released'
p67
tp68
F0.0076045627376425855
s(g26
S'series'
p69
tp70
F0.0038022813688212928
s(S'produced'
p71
S'at'
p72
tp73
F0.0038022813688212928
s(S'released'
p74
S'from'
p75
tp76
F0.0038022813688212928
s(S'aired'
p77
S'by'
p78
tp79
F0.0038022813688212928
s(S'be'
p80
S'distributed'
p81
tp82
F0.0076045627376425855
s(g8
S'by'
p83
tp84
F0.07604562737642585
s(S'produced'
p85
S'[[con]]'
p86
tp87
F0.015209125475285171
s(S'being'
p88
S'developed'
p89
tp90
F0.0038022813688212928
s(S'was'
p91
S'aired'
p92
tp93
F0.0076045627376425855
s(g55
S'by'
p94
tp95
F0.0076045627376425855
s(S'aired'
p96
S'on'
p97
tp98
F0.030418250950570342
s(S'comedy'
p99
S'film'
p100
tp101
F0.0038022813688212928
s(S'distributed'
p102
S'in'
p103
tp104
F0.0038022813688212928
s(S'released'
p105
S'to'
p106
tp107
F0.011406844106463879
s(S'released'
p108
S'with'
p109
tp110
F0.0038022813688212928
s(S'[[con]]'
p111
S'released'
p112
tp113
F0.022813688212927757
s(S'film'
p114
S'made'
p115
tp116
F0.0038022813688212928
s(S'film'
p117
S'series'
p118
tp119
F0.0038022813688212928
s(S'is'
p120
S'aired'
p121
tp122
F0.0038022813688212928
s(S'[[num]]'
p123
S'produced'
p124
tp125
F0.0038022813688212928
s(S'released'
p126
S'[[det]]'
p127
tp128
F0.0076045627376425855
s(S'[[det]]'
p129
S'developed'
p130
tp131
F0.0038022813688212928
s(S'[[adj]]'
p132
g114
tp133
F0.011406844106463879
s(S'also'
p134
S'released'
p135
tp136
F0.015209125475285171
s(S'[[det]]'
p137
S'produced'
p138
tp139
F0.0076045627376425855
s(S'were'
p140
S'published'
p141
tp142
F0.0038022813688212928
s(S'[[num]]'
p143
g25
tp144
F0.0076045627376425855
s(S'later'
p145
S'published'
p146
tp147
F0.0038022813688212928
s(S'had'
p148
S'released'
p149
tp150
F0.0038022813688212928
s(S'[[adj]]'
p151
S'developed'
p152
tp153
F0.0038022813688212928
s(S'[[con]]'
p154
S'is'
p155
tp156
F0.0038022813688212928
s(S'was'
p157
S'published'
p158
tp159
F0.011406844106463879
s(S'released'
p160
S'on'
p161
tp162
F0.04182509505703422
s(S'released'
p163
S'at'
p164
tp165
F0.0076045627376425855
s(S'been'
p166
S'developed'
p167
tp168
F0.0038022813688212928
s(S'being'
p169
S'produced'
p170
tp171
F0.0038022813688212928
s(S'is'
p172
S'developed'
p173
tp174
F0.0038022813688212928
s(S'[[det]]'
p175
S'released'
p176
tp177
F0.015209125475285171
s(S'airing'
p178
S'on'
p179
tp180
F0.0038022813688212928
s(S'were'
p181
S'released'
p182
tp183
F0.015209125475285171
s(S'released'
p184
S'through'
p185
tp186
F0.015209125475285171
s(S'[[con]]'
p187
S'published'
p188
tp189
F0.0038022813688212928
s(S'collaboration'
p190
S'between'
p191
tp192
F0.0038022813688212928
s(g100
S'by'
p193
tp194
F0.0038022813688212928
s(S'show'
p195
S'aired'
p196
tp197
F0.0038022813688212928
s(S'was'
p198
g85
tp199
F0.026615969581749048
s(S'[[adj]]'
p200
g190
tp201
F0.0038022813688212928
s(S'began'
p202
g178
tp203
F0.0038022813688212928
s(S'later'
p204
g105
tp205
F0.015209125475285171
s(S'aired'
p206
S'[[det]]'
p207
tp208
F0.0038022813688212928
s(S'released'
p209
S'[[adj]]'
p210
tp211
F0.0038022813688212928
s(S'[[adj]]'
p212
S'communities'
p213
tp214
F0.0038022813688212928
s(S'be'
p215
S'released'
p216
tp217
F0.019011406844106463
s(S'was'
p218
S'filmed'
p219
tp220
F0.0038022813688212928
s(S'also'
p221
S'aired'
p222
tp223
F0.0038022813688212928
s(S'aired'
p224
S'[[adj]]'
p225
tp226
F0.0038022813688212928
s(S'[[num]]'
p227
g99
tp228
F0.0076045627376425855
s(S'first'
p229
S'aired'
p230
tp231
F0.011406844106463879
s(S'comedy'
p232
g132
tp233
F0.0038022813688212928
s(g219
S'[[con]]'
p234
tp235
F0.0038022813688212928
s(S'released'
p236
S'after'
p237
tp238
F0.0038022813688212928
s(S'to'
p239
S'be'
p240
tp241
F0.0038022813688212928
s(S'developed'
p242
S'[[con]]'
p243
tp244
F0.0076045627376425855
s(S'film'
p245
S'released'
p246
tp247
F0.011406844106463879
s(g213
S'[[adj]]'
p248
tp249
F0.0038022813688212928
s(S'licensed'
p250
S'to'
p251
tp252
F0.0038022813688212928
s(g158
S'from'
p253
tp254
F0.0038022813688212928
s(S'released'
p255
S'was'
p256
tp257
F0.0038022813688212928
s(S'that'
p258
S'released'
p259
tp260
F0.0038022813688212928
s(S'was'
p261
S'developed'
p262
tp263
F0.0076045627376425855
s(S'is'
p264
S'distributed'
p265
tp266
F0.0076045627376425855
s(g262
S'by'
p267
tp268
F0.022813688212927757
s(S'film'
p269
g239
tp270
F0.0038022813688212928
s(S'released'
p271
S'under'
p272
tp273
F0.0076045627376425855
s(S'[[num]]'
p274
S'released'
p275
tp276
F0.0076045627376425855
s(S'in'
p277
S'released'
p278
tp279
F0.0038022813688212928
s(g155
g63
tp280
F0.0076045627376425855
s(g141
S'by'
p281
tp282
F0.015209125475285171
s(S'aired'
p283
S'in'
p284
tp285
F0.0076045627376425855
s(S'been'
p286
g250
tp287
F0.0038022813688212928
s(g182
S'in'
p288
tp289
F0.022813688212927757
s(g86
S'distributed'
p290
tp291
F0.0076045627376425855
s.