(dp0
(S'chairman'
p1
S'[[con]]'
p2
tp3
F0.02247191011235955
s(S'promoted'
p4
S'to'
p5
tp6
F0.0149812734082397
s(S'chairman'
p7
S'[[det]]'
p8
tp9
F0.026217228464419477
s(S'had'
p10
S'taught'
p11
tp12
F0.00749063670411985
s(S'advisor'
p13
S'of'
p14
tp15
F0.011235955056179775
s(S'then'
p16
S'promoted'
p17
tp18
F0.011235955056179775
s(S'taught'
p19
S'from'
p20
tp21
F0.003745318352059925
s(S'was'
p22
S'chairman'
p23
tp24
F0.0299625468164794
s(S'also'
p25
S'promoted'
p26
tp27
F0.003745318352059925
s(S'supervised'
p28
S'[[det]]'
p29
tp30
F0.003745318352059925
s(S'[[adj]]'
p31
S'students'
p32
tp33
F0.00749063670411985
s(S'[[adj]]'
p34
g13
tp35
F0.0149812734082397
s(S'been'
p36
S'promoted'
p37
tp38
F0.011235955056179775
s(S'[[adj]]'
p39
S'supervisor'
p40
tp41
F0.003745318352059925
s(S'acted'
p42
S'[[adj]]'
p43
tp44
F0.00749063670411985
s(g26
S'at'
p45
tp46
F0.011235955056179775
s(S'was'
p47
S'promoted'
p48
tp49
F0.04119850187265917
s(S'[[adj]]'
p50
S'chairman'
p51
tp52
F0.0149812734082397
s(S'recently'
p53
S'retired'
p54
tp55
F0.003745318352059925
s(g32
S'including'
p56
tp57
F0.0149812734082397
s(S'professor'
p58
S'emeritus'
p59
tp60
F0.003745318352059925
s(S'promoted'
p61
S'when'
p62
tp63
F0.003745318352059925
s(S'taught'
p64
S'in'
p65
tp66
F0.0149812734082397
s(S'acted'
p67
S'[[det]]'
p68
tp69
F0.00749063670411985
s(S'promoted'
p70
S'as'
p71
tp72
F0.00749063670411985
s(S'advisor'
p73
S'to'
p74
tp75
F0.011235955056179775
s(S'[[det]]'
p76
S'advisor'
p77
tp78
F0.0149812734082397
s(S'[[con]]'
p79
S'chairman'
p80
tp81
F0.003745318352059925
s(S'acted'
p82
S'with'
p83
tp84
F0.011235955056179775
s(S'taught'
p85
S'as'
p86
tp87
F0.011235955056179775
s(S'chairman'
p88
S'at'
p89
tp90
F0.0149812734082397
s(S'acted'
p91
S'to'
p92
tp93
F0.0149812734082397
s(S'taught'
p94
S'[[con]]'
p95
tp96
F0.018726591760299626
s(S'supervisor'
p97
S'of'
p98
tp99
F0.00749063670411985
s(g48
S'[[det]]'
p100
tp101
F0.011235955056179775
s(S'chairman'
p102
S'of'
p103
tp104
F0.03745318352059925
s(S'become'
p105
S'chairman'
p106
tp107
F0.011235955056179775
s(S'also'
p108
S'taught'
p109
tp110
F0.0299625468164794
s(g59
S'prior'
p111
tp112
F0.003745318352059925
s(S'later'
p113
S'taught'
p114
tp115
F0.011235955056179775
s(g23
S'to'
p116
tp117
F0.00749063670411985
s(S'[[con]]'
p118
S'acted'
p119
tp120
F0.0149812734082397
s(S'promoted'
p121
S'from'
p122
tp123
F0.003745318352059925
s(S'acted'
p124
S'at'
p125
tp126
F0.003745318352059925
s(S'promoted'
p127
S'[[adj]]'
p128
tp129
F0.003745318352059925
s(S'supervised'
p130
S'by'
p131
tp132
F0.003745318352059925
s(g56
S'[[con]]'
p133
tp134
F0.00749063670411985
s(S'[[det]]'
p135
g97
tp136
F0.003745318352059925
s(S'[[det]]'
p137
g102
tp138
F0.0299625468164794
s(S'also'
p139
S'chairman'
p140
tp141
F0.011235955056179775
s(S'is'
p142
S'chairman'
p143
tp144
F0.0149812734082397
s(S'taught'
p145
S'[[adj]]'
p146
tp147
F0.011235955056179775
s(S'as'
p148
S'chairman'
p149
tp150
F0.003745318352059925
s(S'was'
p151
S'taught'
p152
tp153
F0.003745318352059925
s(S'taught'
p154
S'at'
p155
tp156
F0.0449438202247191
s(S'has'
p157
S'acted'
p158
tp159
F0.00749063670411985
s(S'were'
p160
g70
tp161
F0.003745318352059925
s(S'[[det]]'
p162
S'promoted'
p163
tp164
F0.003745318352059925
s(S'promoted'
p165
S'with'
p166
tp167
F0.00749063670411985
s(S'first'
p168
S'taught'
p169
tp170
F0.00749063670411985
s(S'chairman'
p171
S'in'
p172
tp173
F0.00749063670411985
s(S'then'
p174
S'taught'
p175
tp176
F0.0149812734082397
s(g111
S'to'
p177
tp178
F0.003745318352059925
s(S'where'
p179
S'taught'
p180
tp181
F0.00749063670411985
s(S'promoted'
p182
S'by'
p183
tp184
F0.003745318352059925
s(S'advisor'
p185
S'[[con]]'
p186
tp187
F0.011235955056179775
s(S'chairman'
p188
S'for'
p189
tp190
F0.00749063670411985
s(S'promoted'
p191
S'in'
p192
tp193
F0.00749063670411985
s(S'acted'
p194
S'[[con]]'
p195
tp196
F0.00749063670411985
s(S'[[con]]'
p197
S'taught'
p198
tp199
F0.00749063670411985
s(S'be'
p200
g4
tp201
F0.003745318352059925
s(S'acted'
p202
S'for'
p203
tp204
F0.003745318352059925
s(S'acted'
p205
S'as'
p206
tp207
F0.018726591760299626
s(g177
S'had'
p208
tp209
F0.003745318352059925
s(S'acted'
p210
S'by'
p211
tp212
F0.00749063670411985
s(S'promoted'
p213
S'for'
p214
tp215
F0.003745318352059925
s(S'is'
p216
S'taught'
p217
tp218
F0.003745318352059925
s(S'promoted'
p219
S'[[con]]'
p220
tp221
F0.00749063670411985
s(S'acted'
p222
S'in'
p223
tp224
F0.003745318352059925
s(S'had'
p225
S'acted'
p226
tp227
F0.011235955056179775
s(S'taught'
p228
S'[[num]]'
p229
tp230
F0.00749063670411985
s(g54
g58
tp231
F0.003745318352059925
s(S'taught'
p232
S'[[det]]'
p233
tp234
F0.011235955056179775
s(S'taught'
p235
S'for'
p236
tp237
F0.011235955056179775
s(S'also'
p238
g194
tp239
F0.033707865168539325
s(S'chairman'
p240
S'on'
p241
tp242
F0.011235955056179775
s(g109
S'to'
p243
tp244
F0.00749063670411985
s(S'has'
p245
g232
tp246
F0.0299625468164794
s(S'that'
p247
S'acted'
p248
tp249
F0.003745318352059925
s(S'became'
p250
S'chairman'
p251
tp252
F0.018726591760299626
s.