(dp0
(S'in'
p1
S'[[det]]'
p2
tp3
F0.08737864077669903
s(S'flowering'
p4
S'plant'
p5
tp6
F0.07766990291262135
s(S'[[det]]'
p7
S'plant'
p8
tp9
F0.019417475728155338
s(S'species'
p10
S'in'
p11
tp12
F0.038834951456310676
s(S'[[adj]]'
p13
S'shrub'
p14
tp15
F0.019417475728155338
s(S'shrub'
p16
S'[[det]]'
p17
tp18
F0.009708737864077669
s(S'in'
p19
S'known'
p20
tp21
F0.009708737864077669
s(S'flowering'
p22
S'tree'
p23
tp24
F0.019417475728155338
s(S'of'
p25
g4
tp26
F0.08737864077669903
s(S'[[det]]'
p27
S'species'
p28
tp29
F0.1262135922330097
s(g28
g25
tp30
F0.11650485436893204
s(g2
S'family'
p31
tp32
F0.10679611650485436
s(S'of'
p33
S'plant'
p34
tp35
F0.009708737864077669
s(g8
g10
tp36
F0.019417475728155338
s(g23
S'in'
p37
tp38
F0.02912621359223301
s(S'[[adj]]'
p39
S'plant'
p40
tp41
F0.009708737864077669
s(S'[[det]]'
p42
S'shrub'
p43
tp44
F0.009708737864077669
s(g20
S'by'
p45
tp46
F0.009708737864077669
s(S'commonly'
p47
S'known'
p48
tp49
F0.009708737864077669
s(S'of'
p50
S'[[det]]'
p51
tp52
F0.009708737864077669
s(S'is'
p53
S'[[det]]'
p54
tp55
F0.02912621359223301
s(g34
g1
tp56
F0.08737864077669903
s(S'[[det]]'
p57
S'flowering'
p58
tp59
F0.019417475728155338
s(g48
g53
tp60
F0.02912621359223301
s(S'of'
p61
S'tree'
p62
tp63
F0.009708737864077669
s.