(dp0
(S'not'
p1
S'released'
p2
tp3
F0.03636363636363636
s(S'be'
p4
S'released'
p5
tp6
F0.03636363636363636
s(S'[[adj]]'
p7
S'released'
p8
tp9
F0.09090909090909091
s(S'had'
p10
S'released'
p11
tp12
F0.01818181818181818
s(S'[[det]]'
p13
S'released'
p14
tp15
F0.01818181818181818
s(S'released'
p16
S'to'
p17
tp18
F0.03636363636363636
s(S'released'
p19
S'as'
p20
tp21
F0.07272727272727272
s(S'released'
p22
S'[[det]]'
p23
tp24
F0.03636363636363636
s(S'released'
p25
S'with'
p26
tp27
F0.01818181818181818
s(S'[[con]]'
p28
S'released'
p29
tp30
F0.01818181818181818
s(S'released'
p31
S'after'
p32
tp33
F0.01818181818181818
s(S'released'
p34
S'on'
p35
tp36
F0.14545454545454545
s(S'released'
p37
S'at'
p38
tp39
F0.01818181818181818
s(S'released'
p40
S'[[con]]'
p41
tp42
F0.01818181818181818
s(S'released'
p43
S'was'
p44
tp45
F0.01818181818181818
s(S'was'
p46
g16
tp47
F0.14545454545454545
s(S'is'
p48
S'released'
p49
tp50
F0.03636363636363636
s(S'were'
p51
S'released'
p52
tp53
F0.03636363636363636
s(S'of'
p54
S'released'
p55
tp56
F0.01818181818181818
s(S'also'
p57
S'released'
p58
tp59
F0.03636363636363636
s(S'been'
p60
g40
tp61
F0.03636363636363636
s(S'[[num]]'
p62
S'released'
p63
tp64
F0.01818181818181818
s(S'in'
p65
S'released'
p66
tp67
F0.01818181818181818
s(S's'
p68
g34
tp69
F0.01818181818181818
s(g5
S'in'
p70
tp71
F0.01818181818181818
s(S'released'
p72
S'from'
p73
tp74
F0.01818181818181818
s.