(dp0
(S'founded'
p1
S'to'
p2
tp3
F0.006711409395973154
s(S'[[adj]]'
p4
S'universities'
p5
tp6
F0.006711409395973154
s(S'[[con]]'
p7
S'founded'
p8
tp9
F0.013422818791946308
s(S'been'
p10
S'founded'
p11
tp12
F0.006711409395973154
s(S'established'
p13
S'under'
p14
tp15
F0.006711409395973154
s(S'then'
p16
S'owned'
p17
tp18
F0.006711409395973154
s(S'formed'
p19
S'with'
p20
tp21
F0.013422818791946308
s(S'was'
p22
S'incorporated'
p23
tp24
F0.013422818791946308
s(S'formed'
p25
S'[[con]]'
p26
tp27
F0.006711409395973154
s(S'[[con]]'
p28
S'owned'
p29
tp30
F0.006711409395973154
s(S'tours'
p31
S'[[det]]'
p32
tp33
F0.006711409395973154
s(S'founder'
p34
S'[[con]]'
p35
tp36
F0.006711409395973154
s(S'established'
p37
S'with'
p38
tp39
F0.006711409395973154
s(S'started'
p40
S'with'
p41
tp42
F0.006711409395973154
s(S'label'
p43
S'formed'
p44
tp45
F0.013422818791946308
s(S'cofounded'
p46
S'[[con]]'
p47
tp48
F0.006711409395973154
s(S'was'
p49
S'cofounded'
p50
tp51
F0.013422818791946308
s(S'label'
p52
S'founded'
p53
tp54
F0.020134228187919462
s(S'owned'
p55
S'by'
p56
tp57
F0.04697986577181208
s(S'formed'
p58
S'after'
p59
tp60
F0.006711409395973154
s(S'owned'
p61
S'[[num]]'
p62
tp63
F0.013422818791946308
s(S'[[num]]'
p64
S'universities'
p65
tp66
F0.013422818791946308
s(S'were'
p67
S'founded'
p68
tp69
F0.013422818791946308
s(S'year'
p70
S'with'
p71
tp72
F0.006711409395973154
s(S'[[con]]'
p73
S'formed'
p74
tp75
F0.006711409395973154
s(S'founded'
p76
S'under'
p77
tp78
F0.006711409395973154
s(S'where'
p79
S'started'
p80
tp81
F0.006711409395973154
s(S'[[adj]]'
p82
S'record'
p83
tp84
F0.020134228187919462
s(S's'
p85
S'founder'
p86
tp87
F0.013422818791946308
s(S'started'
p88
S'by'
p89
tp90
F0.020134228187919462
s(S'[[adj]]'
p91
S'talent'
p92
tp93
F0.013422818791946308
s(S'label'
p94
g88
tp95
F0.006711409395973154
s(S'also'
p96
S'founded'
p97
tp98
F0.006711409395973154
s(S'formerly'
p99
S'owned'
p100
tp101
F0.020134228187919462
s(S'is'
p102
S'established'
p103
tp104
F0.006711409395973154
s(S'[[det]]'
p105
S'owned'
p106
tp107
F0.006711409395973154
s(S'[[num]]'
p108
S'founded'
p109
tp110
F0.006711409395973154
s(S'is'
p111
S'formed'
p112
tp113
F0.006711409395973154
s(S'later'
p114
S'owned'
p115
tp116
F0.006711409395973154
s(S'was'
p117
g19
tp118
F0.020134228187919462
s(S'were'
p119
g25
tp120
F0.020134228187919462
s(g32
g70
tp121
F0.006711409395973154
s(S'artist'
p122
S'record'
p123
tp124
F0.006711409395973154
s(S'which'
p125
S'founded'
p126
tp127
F0.006711409395973154
s(S'founded'
p128
S'with'
p129
tp130
F0.013422818791946308
s(S'formed'
p131
S'in'
p132
tp133
F0.006711409395973154
s(g92
S'[[con]]'
p134
tp135
F0.006711409395973154
s(S'was'
p136
S'established'
p137
tp138
F0.03355704697986577
s(S'[[num]]'
p139
g55
tp140
F0.006711409395973154
s(S'been'
p141
S'owned'
p142
tp143
F0.006711409395973154
s(g23
S'[[con]]'
p144
tp145
F0.006711409395973154
s(S'[[det]]'
p146
g122
tp147
F0.006711409395973154
s(S'which'
p148
S'owned'
p149
tp150
F0.006711409395973154
s(S'also'
p151
S'owned'
p152
tp153
F0.006711409395973154
s(S'established'
p154
S'to'
p155
tp156
F0.006711409395973154
s(S'when'
p157
S'started'
p158
tp159
F0.006711409395973154
s(S'[[num]]'
p160
S'established'
p161
tp162
F0.006711409395973154
s(S'founded'
p163
S'for'
p164
tp165
F0.006711409395973154
s(S'[[det]]'
p166
S'record'
p167
tp168
F0.013422818791946308
s(S'had'
p169
S'owned'
p170
tp171
F0.006711409395973154
s(S'now'
p172
S'owned'
p173
tp174
F0.013422818791946308
s(S'was'
p175
g128
tp176
F0.040268456375838924
s(S'[[prp]]'
p177
S'founder'
p178
tp179
F0.006711409395973154
s(S'is'
p180
S'founded'
p181
tp182
F0.013422818791946308
s(S'[[det]]'
p183
S'founded'
p184
tp185
F0.006711409395973154
s(g181
S'by'
p186
tp187
F0.0738255033557047
s(g112
S'by'
p188
tp189
F0.03355704697986577
s(S'been'
p190
S'established'
p191
tp192
F0.006711409395973154
s(S'is'
p193
S'owned'
p194
tp195
F0.013422818791946308
s(g83
g94
tp196
F0.040268456375838924
s(S'was'
p197
S'owned'
p198
tp199
F0.013422818791946308
s(S'incorporated'
p200
S'by'
p201
tp202
F0.006711409395973154
s(g50
S'by'
p203
tp204
F0.013422818791946308
s(S'established'
p205
S'by'
p206
tp207
F0.026845637583892617
s(S'[[con]]'
p208
S'founder'
p209
tp210
F0.006711409395973154
s(g137
S'after'
p211
tp212
F0.006711409395973154
s(g194
S'[[con]]'
p213
tp214
F0.026845637583892617
s(g65
S'in'
p215
tp216
F0.006711409395973154
s(S'was'
p217
g40
tp218
F0.013422818791946308
s.