(dp0
(S'founded'
p1
S'after'
p2
tp3
F0.0028735632183908046
s(S'including'
p4
S'what'
p5
tp6
F0.005747126436781609
s(S'offices'
p7
S'[[con]]'
p8
tp9
F0.0028735632183908046
s(S'states'
p10
S'[[con]]'
p11
tp12
F0.0028735632183908046
s(S'became'
p13
S'[[adj]]'
p14
tp15
F0.0028735632183908046
s(S'[[det]]'
p16
S'states'
p17
tp18
F0.005747126436781609
s(S'were'
p19
S'founded'
p20
tp21
F0.0028735632183908046
s(S'founded'
p22
S'is'
p23
tp24
F0.0028735632183908046
s(S'founded'
p25
S'from'
p26
tp27
F0.0028735632183908046
s(S'largest'
p28
S'of'
p29
tp30
F0.0028735632183908046
s(S'now'
p31
S'located'
p32
tp33
F0.0028735632183908046
s(S'based'
p34
S'out'
p35
tp36
F0.005747126436781609
s(S'is'
p37
S'typically'
p38
tp39
F0.0028735632183908046
s(S'also'
p40
S'operates'
p41
tp42
F0.008620689655172414
s(S'were'
p43
S'based'
p44
tp45
F0.0028735632183908046
s(S'been'
p46
S'located'
p47
tp48
F0.0028735632183908046
s(S'in'
p49
S'founded'
p50
tp51
F0.0028735632183908046
s(S'laws'
p52
S'of'
p53
tp54
F0.0028735632183908046
s(S'election'
p55
S'in'
p56
tp57
F0.0028735632183908046
s(S'[[prp]]'
p58
S'headquarters'
p59
tp60
F0.028735632183908046
s(S'founded'
p61
S'in'
p62
tp63
F0.017241379310344827
s(S'has'
p64
S'headquarters'
p65
tp66
F0.005747126436781609
s(g59
S'to'
p67
tp68
F0.008620689655172414
s(S'based'
p69
S'in'
p70
tp71
F0.03735632183908046
s(S'located'
p72
S'in'
p73
tp74
F0.034482758620689655
s(S's'
p75
S'factory'
p76
tp77
F0.0028735632183908046
s(S'merged'
p78
S'from'
p79
tp80
F0.0028735632183908046
s(S'contained'
p81
S'[[num]]'
p82
tp83
F0.0028735632183908046
s(S'were'
p84
S'merged'
p85
tp86
F0.0028735632183908046
s(S'currently'
p87
S'located'
p88
tp89
F0.0028735632183908046
s(S'[[det]]'
p90
S'merged'
p91
tp92
F0.0028735632183908046
s(S'located'
p93
S'[[det]]'
p94
tp95
F0.005747126436781609
s(S'known'
p96
S'[[det]]'
p97
tp98
F0.0028735632183908046
s(S'[[det]]'
p99
S'largest'
p100
tp101
F0.014367816091954023
s(g5
S'today'
p102
tp103
F0.005747126436781609
s(S'is'
p104
S'headquartered'
p105
tp106
F0.014367816091954023
s(S'founded'
p107
S'[[det]]'
p108
tp109
F0.0028735632183908046
s(S'[[adj]]'
p110
S'territories'
p111
tp112
F0.0028735632183908046
s(S'merged'
p113
S'[[det]]'
p114
tp115
F0.0028735632183908046
s(S'are'
p116
S'based'
p117
tp118
F0.0028735632183908046
s(S'[[con]]'
p119
S'merged'
p120
tp121
F0.011494252873563218
s(S'founded'
p122
S'when'
p123
tp124
F0.0028735632183908046
s(S'factories'
p125
S'in'
p126
tp127
F0.005747126436781609
s(S'founded'
p128
S'[[num]]'
p129
tp130
F0.0028735632183908046
s(S'[[con]]'
p131
S'is'
p132
tp133
F0.0028735632183908046
s(S'[[adj]]'
p134
S'offices'
p135
tp136
F0.005747126436781609
s(S'based'
p137
S'near'
p138
tp139
F0.0028735632183908046
s(S'[[adj]]'
p140
g96
tp141
F0.0028735632183908046
s(S'merged'
p142
S'[[con]]'
p143
tp144
F0.008620689655172414
s(g75
S'based'
p145
tp146
F0.0028735632183908046
s(S'founded'
p147
S'[[con]]'
p148
tp149
F0.011494252873563218
s(S'with'
p150
S'headquarters'
p151
tp152
F0.0028735632183908046
s(S'rest'
p153
S'to'
p154
tp155
F0.0028735632183908046
s(S'outlets'
p156
S'in'
p157
tp158
F0.005747126436781609
s(S'[[num]]'
p159
S'based'
p160
tp161
F0.0028735632183908046
s(S'operates'
p162
S'in'
p163
tp164
F0.011494252873563218
s(S'experienced'
p165
S'[[adj]]'
p166
tp167
F0.0028735632183908046
s(S'[[adj]]'
p168
S'factory'
p169
tp170
F0.0028735632183908046
s(S'[[prp]]'
p171
S'offices'
p172
tp173
F0.0028735632183908046
s(S'producer'
p174
S'with'
p175
tp176
F0.0028735632183908046
s(S'also'
p177
S'located'
p178
tp179
F0.0028735632183908046
s(S'of'
p180
S'located'
p181
tp182
F0.0028735632183908046
s(S'factories'
p183
S'[[con]]'
p184
tp185
F0.0028735632183908046
s(S'offices'
p186
S'in'
p187
tp188
F0.020114942528735632
s(S'headquarters'
p189
S'in'
p190
tp191
F0.020114942528735632
s(S'merged'
p192
S'in'
p193
tp194
F0.0028735632183908046
s(S'founded'
p195
S'for'
p196
tp197
F0.0028735632183908046
s(S'portions'
p198
S'of'
p199
tp200
F0.0028735632183908046
s(S'is'
p201
g137
tp202
F0.011494252873563218
s(S'[[det]]'
p203
S'founded'
p204
tp205
F0.005747126436781609
s(S'[[adj]]'
p206
S'headquarters'
p207
tp208
F0.011494252873563218
s(S'operates'
p209
S'[[num]]'
p210
tp211
F0.0028735632183908046
s(S'had'
p212
S'merged'
p213
tp214
F0.005747126436781609
s(S'located'
p215
S'between'
p216
tp217
F0.0028735632183908046
s(S'which'
p218
S'merged'
p219
tp220
F0.0028735632183908046
s(g75
g189
tp221
F0.005747126436781609
s(S'[[con]]'
p222
S'located'
p223
tp224
F0.0028735632183908046
s(S'operates'
p225
S'[[adj]]'
p226
tp227
F0.0028735632183908046
s(S'largest'
p228
S'in'
p229
tp230
F0.005747126436781609
s(S'founded'
p231
S'on'
p232
tp233
F0.0028735632183908046
s(g14
g174
tp234
F0.0028735632183908046
s(S'founded'
p235
S'at'
p236
tp237
F0.005747126436781609
s(S'operates'
p238
S'from'
p239
tp240
F0.0028735632183908046
s(S'quickly'
p241
g13
tp242
F0.0028735632183908046
s(S'be'
p243
S'merged'
p244
tp245
F0.008620689655172414
s(S'also'
p246
S'based'
p247
tp248
F0.0028735632183908046
s(S'has'
p249
g7
tp250
F0.005747126436781609
s(S'[[det]]'
p251
S'company'
p252
tp253
F0.0028735632183908046
s(S'as'
p254
g198
tp255
F0.0028735632183908046
s(S'founded'
p256
S'under'
p257
tp258
F0.0028735632183908046
s(S'of'
p259
S'founded'
p260
tp261
F0.0028735632183908046
s(S'[[adj]]'
p262
S'founded'
p263
tp264
F0.0028735632183908046
s(S'[[prp]]'
p265
S'[[adj]]'
p266
tp267
F0.005747126436781609
s(g148
S'currently'
p268
tp269
F0.0028735632183908046
s(S'headquartered'
p270
S'in'
p271
tp272
F0.022988505747126436
s(g105
S'with'
p273
tp274
F0.0028735632183908046
s(S'currently'
p275
S'headquartered'
p276
tp277
F0.005747126436781609
s(S'founded'
p278
S'as'
p279
tp280
F0.008620689655172414
s(S'was'
p281
S'based'
p282
tp283
F0.0028735632183908046
s(S'merged'
p284
S'[[prp]]'
p285
tp286
F0.0028735632183908046
s(S'headquarters'
p287
S'from'
p288
tp289
F0.011494252873563218
s(S'[[det]]'
p290
S'[[adj]]'
p291
tp292
F0.005747126436781609
s(S'[[adj]]'
p293
S'outlets'
p294
tp295
F0.005747126436781609
s(S'largest'
p296
S'[[con]]'
p297
tp298
F0.0028735632183908046
s(g75
S'located'
p299
tp300
F0.005747126436781609
s(S'operates'
p301
S'out'
p302
tp303
F0.0028735632183908046
s(S'[[det]]'
p304
S'number'
p305
tp306
F0.0028735632183908046
s(S'[[adj]]'
p307
S'states'
p308
tp309
F0.0028735632183908046
s(S'had'
p310
g186
tp311
F0.0028735632183908046
s(S'was'
p312
g142
tp313
F0.014367816091954023
s(S'merged'
p314
S'with'
p315
tp316
F0.02586206896551724
s(S'miles'
p317
g4
tp318
F0.005747126436781609
s(S'be'
p319
g69
tp320
F0.0028735632183908046
s(S'founded'
p321
S'was'
p322
tp323
F0.0028735632183908046
s(S'[[con]]'
p324
S'offices'
p325
tp326
F0.0028735632183908046
s(g102
g16
tp327
F0.005747126436781609
s(S'largest'
p328
S'[[adj]]'
p329
tp330
F0.005747126436781609
s(S'when'
p331
S'merged'
p332
tp333
F0.005747126436781609
s(S'[[adj]]'
p334
S'based'
p335
tp336
F0.005747126436781609
s(S'headquartered'
p337
S'[[con]]'
p338
tp339
F0.005747126436781609
s(S'founded'
p340
S'to'
p341
tp342
F0.0028735632183908046
s(g82
g10
tp343
F0.0028735632183908046
s(g76
S'in'
p344
tp345
F0.008620689655172414
s(S'been'
p346
S'founded'
p347
tp348
F0.0028735632183908046
s(S'later'
p349
S'merged'
p350
tp351
F0.008620689655172414
s(S'located'
p352
S'at'
p353
tp354
F0.0028735632183908046
s(S'headquarters'
p355
S'[[det]]'
p356
tp357
F0.0028735632183908046
s(S'[[num]]'
p358
g72
tp359
F0.0028735632183908046
s(S'[[num]]'
p360
S'offices'
p361
tp362
F0.0028735632183908046
s(S'[[con]]'
p363
S'headquartered'
p364
tp365
F0.005747126436781609
s(S'currently'
p366
g162
tp367
F0.0028735632183908046
s(g97
S'frontier'
p368
tp369
F0.0028735632183908046
s(S'then'
p370
S'merged'
p371
tp372
F0.005747126436781609
s(S'[[adj]]'
p373
S'largest'
p374
tp375
F0.005747126436781609
s(S'[[adj]]'
p376
g352
tp377
F0.008620689655172414
s(S'[[det]]'
p378
S'located'
p379
tp380
F0.0028735632183908046
s(g252
S'based'
p381
tp382
F0.008620689655172414
s(S'is'
p383
S'located'
p384
tp385
F0.008620689655172414
s(S'states'
p386
S'of'
p387
tp388
F0.0028735632183908046
s(S'merged'
p389
S'to'
p390
tp391
F0.008620689655172414
s(S'with'
p392
S'offices'
p393
tp394
F0.0028735632183908046
s(S'added'
p395
g290
tp396
F0.005747126436781609
s(S'had'
p397
g395
tp398
F0.005747126436781609
s(S'operates'
p399
S'to'
p400
tp401
F0.0028735632183908046
s(S'[[adj]]'
p402
g55
tp403
F0.0028735632183908046
s(S'in'
p404
S'located'
p405
tp406
F0.0028735632183908046
s(S'now'
p407
S'operates'
p408
tp409
F0.0028735632183908046
s(g17
g254
tp410
F0.0028735632183908046
s(g11
g110
tp411
F0.0028735632183908046
s(S'[[adj]]'
p412
S'factories'
p413
tp414
F0.005747126436781609
s(S'was'
p415
S'located'
p416
tp417
F0.0028735632183908046
s(S'founded'
p418
S'with'
p419
tp420
F0.0028735632183908046
s(S'located'
p421
S'near'
p422
tp423
F0.005747126436781609
s(S'[[det]]'
p424
g153
tp425
F0.0028735632183908046
s(S'located'
p426
S'of'
p427
tp428
F0.0028735632183908046
s(S'was'
p429
g128
tp430
F0.05172413793103448
s(S'is'
p431
S'founded'
p432
tp433
F0.011494252873563218
s(g291
g317
tp434
F0.005747126436781609
s(S'moved'
p435
S'[[prp]]'
p436
tp437
F0.017241379310344827
s(g305
g424
tp438
F0.0028735632183908046
s(g350
S'into'
p439
tp440
F0.020114942528735632
s(S'[[adj]]'
p441
S'company'
p442
tp443
F0.0028735632183908046
s(g38
g307
tp444
F0.0028735632183908046
s(S'was'
p445
S'headquartered'
p446
tp447
F0.008620689655172414
s(S'headquarters'
p448
S'at'
p449
tp450
F0.0028735632183908046
s.