(dp0
(S'game'
p1
S'[[con]]'
p2
tp3
F0.07142857142857142
s(S'[[det]]'
p4
S'game'
p5
tp6
F0.21428571428571427
s(S'game'
p7
S'in'
p8
tp9
F0.07142857142857142
s(S'[[adj]]'
p10
g1
tp11
F0.2857142857142857
s(S'game'
p12
S'show'
p13
tp14
F0.07142857142857142
s(S'game'
p15
S'by'
p16
tp17
F0.07142857142857142
s(S'game'
p18
S'of'
p19
tp20
F0.14285714285714285
s(S'[[num]]'
p21
S'game'
p22
tp23
F0.07142857142857142
s.