(dp0
(S'in'
p1
S'[[det]]'
p2
tp3
F0.041666666666666664
s(S'was'
p4
S'located'
p5
tp6
F0.041666666666666664
s(S'is'
p7
S'located'
p8
tp9
F0.16666666666666666
s(S'[[det]]'
p10
S'campus'
p11
tp12
F0.20833333333333334
s(g11
S'of'
p13
tp14
F0.16666666666666666
s(S'at'
p15
g10
tp16
F0.041666666666666664
s(S'located'
p17
S'on'
p18
tp19
F0.125
s(g8
g15
tp20
F0.041666666666666664
s(g18
S'[[det]]'
p21
tp22
F0.125
s(S'located'
p23
g1
tp24
F0.041666666666666664
s.