(dp0
(S'[[adj]]'
p1
S'editions'
p2
tp3
F0.011111111111111112
s(S'published'
p4
S'[[con]]'
p5
tp6
F0.011111111111111112
s(S'newspaper'
p7
S'based'
p8
tp9
F0.022222222222222223
s(S'originally'
p10
S'published'
p11
tp12
F0.011111111111111112
s(S'published'
p13
S'at'
p14
tp15
F0.011111111111111112
s(S'[[adj]]'
p16
S'newspapers'
p17
tp18
F0.011111111111111112
s(S'newspaper'
p19
S'in'
p20
tp21
F0.06666666666666667
s(S'is'
p22
S'building'
p23
tp24
F0.011111111111111112
s(S'newspaper'
p25
S'which'
p26
tp27
F0.011111111111111112
s(S'largest'
p28
S'newspaper'
p29
tp30
F0.022222222222222223
s(S'[[adj]]'
p31
S'largest'
p32
tp33
F0.011111111111111112
s(S'building'
p34
S'on'
p35
tp36
F0.011111111111111112
s(S'[[adj]]'
p37
S'student'
p38
tp39
F0.022222222222222223
s(S'of'
p40
S'building'
p41
tp42
F0.011111111111111112
s(S'be'
p43
S'published'
p44
tp45
F0.011111111111111112
s(S'was'
p46
S'published'
p47
tp48
F0.011111111111111112
s(S'[[adj]]'
p49
S'newspaper'
p50
tp51
F0.08888888888888889
s(S'published'
p52
S'[[adj]]'
p53
tp54
F0.011111111111111112
s(S'is'
p55
S'published'
p56
tp57
F0.03333333333333333
s(S'building'
p58
S'in'
p59
tp60
F0.03333333333333333
s(S'editions'
p61
S'in'
p62
tp63
F0.022222222222222223
s(S'published'
p64
S'from'
p65
tp66
F0.011111111111111112
s(S'has'
p67
g4
tp68
F0.011111111111111112
s(S'[[adj]]'
p69
g58
tp70
F0.011111111111111112
s(S'was'
p71
g10
tp72
F0.011111111111111112
s(S'[[det]]'
p73
S'building'
p74
tp75
F0.022222222222222223
s(g56
S'in'
p76
tp77
F0.08888888888888889
s(S'of'
p78
S'newspapers'
p79
tp80
F0.011111111111111112
s(g17
S'in'
p81
tp82
F0.011111111111111112
s(g8
S'in'
p83
tp84
F0.022222222222222223
s(S'in'
p85
S'building'
p86
tp87
F0.011111111111111112
s(S'newspaper'
p88
g43
tp89
F0.011111111111111112
s(S'[[num]]'
p90
S'editions'
p91
tp92
F0.022222222222222223
s(S'[[adj]]'
p93
S'published'
p94
tp95
F0.011111111111111112
s(S'[[det]]'
p96
S'newspaper'
p97
tp98
F0.05555555555555555
s(S'newspaper'
p99
S'of'
p100
tp101
F0.044444444444444446
s(S'student'
p102
S'newspaper'
p103
tp104
F0.044444444444444446
s(S'being'
p105
g13
tp106
F0.011111111111111112
s(S'[[det]]'
p107
S'largest'
p108
tp109
F0.022222222222222223
s(S'[[det]]'
p110
g102
tp111
F0.022222222222222223
s(g108
S'[[adj]]'
p112
tp113
F0.011111111111111112
s(S'newspaper'
p114
S'published'
p115
tp116
F0.06666666666666667
s(S'was'
p117
S'building'
p118
tp119
F0.011111111111111112
s.