(dp0
(S'flights'
p1
S'[[con]]'
p2
tp3
F0.00228310502283105
s(S'headquartered'
p4
S'at'
p5
tp6
F0.00684931506849315
s(S'scheduled'
p7
S'services'
p8
tp9
F0.01598173515981735
s(S'operates'
p10
S'between'
p11
tp12
F0.00228310502283105
s(S'cities'
p13
S'in'
p14
tp15
F0.00228310502283105
s(S'were'
p16
S'based'
p17
tp18
F0.00228310502283105
s(S'[[adj]]'
p19
S'services'
p20
tp21
F0.01141552511415525
s(S'[[adj]]'
p22
S'flights'
p23
tp24
F0.0091324200913242
s(S'flights'
p25
S'to'
p26
tp27
F0.00684931506849315
s(S'trains'
p28
S'between'
p29
tp30
F0.00228310502283105
s(S'[[det]]'
p31
S'direction'
p32
tp33
F0.00228310502283105
s(S'[[num]]'
p34
S'established'
p35
tp36
F0.00228310502283105
s(S'airline'
p37
S'company'
p38
tp39
F0.00228310502283105
s(S'provides'
p40
S'service'
p41
tp42
F0.0045662100456621
s(S'system'
p43
S'operating'
p44
tp45
F0.00228310502283105
s(S'studios'
p46
S'in'
p47
tp48
F0.00228310502283105
s(S'were'
p49
S'founded'
p50
tp51
F0.00228310502283105
s(S'founded'
p52
S'is'
p53
tp54
F0.00228310502283105
s(S'founded'
p55
S'from'
p56
tp57
F0.00228310502283105
s(S'service'
p58
S'at'
p59
tp60
F0.00228310502283105
s(g8
S'from'
p61
tp62
F0.0045662100456621
s(S'rail'
p63
g43
tp64
F0.00228310502283105
s(S's'
p65
S'office'
p66
tp67
F0.00228310502283105
s(S'[[con]]'
p68
S'cargo'
p69
tp70
F0.00228310502283105
s(S'based'
p71
S'out'
p72
tp73
F0.00684931506849315
s(S'also'
p74
S'operates'
p75
tp76
F0.0045662100456621
s(S'flights'
p77
S'in'
p78
tp79
F0.00228310502283105
s(S'operates'
p80
S'services'
p81
tp82
F0.00228310502283105
s(S'services'
p83
S'[[con]]'
p84
tp85
F0.00228310502283105
s(S'[[prp]]'
p86
S'headquarters'
p87
tp88
F0.02511415525114155
s(S'founded'
p89
S'in'
p90
tp91
F0.0136986301369863
s(S'has'
p92
S'headquarters'
p93
tp94
F0.0045662100456621
s(g87
S'to'
p95
tp96
F0.00684931506849315
s(S'based'
p97
S'in'
p98
tp99
F0.0365296803652968
s(g65
S'service'
p100
tp101
F0.00684931506849315
s(S'operated'
p102
S'flights'
p103
tp104
F0.0045662100456621
s(S'office'
p105
S'at'
p106
tp107
F0.00228310502283105
s(g20
S'between'
p108
tp109
F0.0045662100456621
s(S'airline'
p110
S'headquartered'
p111
tp112
F0.0045662100456621
s(S'operated'
p113
S'scheduled'
p114
tp115
F0.0091324200913242
s(S'operates'
p116
S'from'
p117
tp118
F0.00228310502283105
s(S'established'
p119
S'in'
p120
tp121
F0.0136986301369863
s(S'has'
p122
S'operated'
p123
tp124
F0.00228310502283105
s(S'to'
p125
S'fly'
p126
tp127
F0.00228310502283105
s(S'charter'
p128
S'flights'
p129
tp130
F0.0045662100456621
s(S'that'
p131
S'operated'
p132
tp133
F0.00228310502283105
s(S'is'
p134
S'headquartered'
p135
tp136
F0.01141552511415525
s(S'[[con]]'
p137
S'charter'
p138
tp139
F0.0045662100456621
s(S'founded'
p140
S'[[det]]'
p141
tp142
F0.00228310502283105
s(S'are'
p143
S'based'
p144
tp145
F0.00228310502283105
s(S'[[mod]]'
p146
S'fly'
p147
tp148
F0.00228310502283105
s(S'established'
p149
S'[[det]]'
p150
tp151
F0.00228310502283105
s(S'by'
p152
g46
tp153
F0.00228310502283105
s(S'[[det]]'
p154
S'service'
p155
tp156
F0.00228310502283105
s(S'[[adj]]'
p157
S'passenger'
p158
tp159
F0.0045662100456621
s(S'founded'
p160
S'[[num]]'
p161
tp162
F0.00228310502283105
s(S'headquarters'
p163
S'[[con]]'
p164
tp165
F0.00228310502283105
s(g123
S'between'
p166
tp167
F0.00228310502283105
s(S'[[adj]]'
p168
S'offices'
p169
tp170
F0.0045662100456621
s(S'in'
p171
g31
tp172
F0.00228310502283105
s(S'based'
p173
S'near'
p174
tp175
F0.00228310502283105
s(S'association'
p176
S'of'
p177
tp178
F0.0045662100456621
s(S'began'
p179
S'service'
p180
tp181
F0.00684931506849315
s(g65
S'based'
p182
tp183
F0.00228310502283105
s(S'operations'
p184
S'to'
p185
tp186
F0.00228310502283105
s(S'with'
p187
S'headquarters'
p188
tp189
F0.00228310502283105
s(S'airline'
p190
g71
tp191
F0.0136986301369863
s(S'power'
p192
S'in'
p193
tp194
F0.00228310502283105
s(g138
S'services'
p195
tp196
F0.0045662100456621
s(S'daily'
p197
g171
tp198
F0.00228310502283105
s(S'[[con]]'
p199
S'offices'
p200
tp201
F0.00228310502283105
s(S'[[adj]]'
p202
S'airline'
p203
tp204
F0.0091324200913242
s(S'operated'
p205
S'[[det]]'
p206
tp207
F0.00228310502283105
s(S'airline'
p208
S'with'
p209
tp210
F0.00228310502283105
s(S'airline'
p211
S'in'
p212
tp213
F0.00228310502283105
s(S'party'
p214
S'for'
p215
tp216
F0.00228310502283105
s(S'[[adj]]'
p217
S'flag'
p218
tp219
F0.00228310502283105
s(S'[[prp]]'
p220
S'offices'
p221
tp222
F0.00228310502283105
s(S'on'
p223
S'[[det]]'
p224
tp225
F0.0045662100456621
s(S'[[num]]'
p226
S'routes'
p227
tp228
F0.00228310502283105
s(S'[[det]]'
p229
S'party'
p230
tp231
F0.00228310502283105
s(S'established'
p232
S'on'
p233
tp234
F0.00228310502283105
s(S'operates'
p235
S'out'
p236
tp237
F0.0045662100456621
s(S'offices'
p238
S'in'
p239
tp240
F0.01598173515981735
s(S'headquarters'
p241
S'in'
p242
tp243
F0.01598173515981735
s(S'is'
p244
S'established'
p245
tp246
F0.0045662100456621
s(S'service'
p247
S'for'
p248
tp249
F0.00228310502283105
s(S'operates'
p250
S'[[det]]'
p251
tp252
F0.00228310502283105
s(S'[[det]]'
p253
S'cargo'
p254
tp255
F0.00228310502283105
s(S'operated'
p256
S'on'
p257
tp258
F0.00228310502283105
s(g155
S'to'
p259
tp260
F0.0182648401826484
s(S'be'
p261
g119
tp262
F0.00228310502283105
s(S'scheduled'
p263
g137
tp264
F0.0045662100456621
s(S'flights'
p265
S'between'
p266
tp267
F0.01141552511415525
s(S'scheduled'
p268
S'[[adj]]'
p269
tp270
F0.00684931506849315
s(S'is'
p271
g173
tp272
F0.0091324200913242
s(S'[[det]]'
p273
S'founded'
p274
tp275
F0.00228310502283105
s(S'established'
p276
S'[[con]]'
p277
tp278
F0.00228310502283105
s(S'[[adj]]'
p279
S'headquarters'
p280
tp281
F0.0091324200913242
s(S'operated'
p282
S'from'
p283
tp284
F0.0045662100456621
s(S'[[det]]'
p285
g190
tp286
F0.0136986301369863
s(S'operates'
p287
S'[[num]]'
p288
tp289
F0.00228310502283105
s(S'service'
p290
S'in'
p291
tp292
F0.00228310502283105
s(g195
S'in'
p293
tp294
F0.0045662100456621
s(S'was'
p295
g149
tp296
F0.0136986301369863
s(S'party'
p297
S'of'
p298
tp299
F0.00228310502283105
s(g209
S'[[prp]]'
p300
tp301
F0.00228310502283105
s(g69
S'airline'
p302
tp303
F0.0045662100456621
s(g65
g241
tp304
F0.0045662100456621
s(S'[[adj]]'
p305
g297
tp306
F0.0091324200913242
s(S'charter'
p307
S'airline'
p308
tp309
F0.00228310502283105
s(S'operates'
p310
S'[[adj]]'
p311
tp312
F0.0091324200913242
s(S'service'
p313
S'of'
p314
tp315
F0.00228310502283105
s(S'founded'
p316
S'on'
p317
tp318
F0.00228310502283105
s(S'[[adj]]'
p319
S'office'
p320
tp321
F0.00228310502283105
s(S'has'
p322
S'established'
p323
tp324
F0.00228310502283105
s(S'founded'
p325
S'at'
p326
tp327
F0.00228310502283105
s(S'destinations'
p328
S'in'
p329
tp330
F0.00228310502283105
s(S'[[det]]'
p331
S'law'
p332
tp333
F0.00228310502283105
s(S'based'
p334
S'at'
p335
tp336
F0.00228310502283105
s(S'operated'
p337
S'[[num]]'
p338
tp339
F0.00228310502283105
s(S'[[prp]]'
p340
S'head'
p341
tp342
F0.01141552511415525
s(S'also'
p343
S'based'
p344
tp345
F0.00228310502283105
s(S'[[det]]'
p346
S'association'
p347
tp348
F0.0045662100456621
s(S'[[adj]]'
p349
S'established'
p350
tp351
F0.00228310502283105
s(S'offices'
p352
S'[[con]]'
p353
tp354
F0.00228310502283105
s(S'has'
p355
g352
tp356
F0.0045662100456621
s(S'services'
p357
S'to'
p358
tp359
F0.01598173515981735
s(S'[[det]]'
p360
g28
tp361
F0.00228310502283105
s(S'supported'
p362
g152
tp363
F0.00228310502283105
s(S'routes'
p364
S'to'
p365
tp366
F0.00228310502283105
s(S'of'
p367
S'founded'
p368
tp369
F0.00228310502283105
s(S'[[adj]]'
p370
S'founded'
p371
tp372
F0.00228310502283105
s(S'[[prp]]'
p373
S'[[adj]]'
p374
tp375
F0.0045662100456621
s(g126
S'from'
p376
tp377
F0.00228310502283105
s(S'[[adj]]'
p378
S'association'
p379
tp380
F0.00684931506849315
s(S'headquartered'
p381
S'in'
p382
tp383
F0.0182648401826484
s(S'headquartered'
p384
S'with'
p385
tp386
F0.00228310502283105
s(S'currently'
p387
S'headquartered'
p388
tp389
F0.00228310502283105
s(S'party'
p390
S'in'
p391
tp392
F0.00684931506849315
s(g224
S'grounds'
p393
tp394
F0.0045662100456621
s(S'was'
p395
S'based'
p396
tp397
F0.00228310502283105
s(g393
S'of'
p398
tp399
F0.0045662100456621
s(S'headquarters'
p400
S'from'
p401
tp402
F0.0091324200913242
s(S'[[det]]'
p403
S'[[adj]]'
p404
tp405
F0.00228310502283105
s(S'operated'
p406
S'[[prp]]'
p407
tp408
F0.00228310502283105
s(S'had'
p409
S'operated'
p410
tp411
F0.00228310502283105
s(S'routes'
p412
S'in'
p413
tp414
F0.00228310502283105
s(S'operated'
p415
S'when'
p416
tp417
F0.00228310502283105
s(S'with'
p418
S'service'
p419
tp420
F0.00228310502283105
s(S'in'
p421
S'association'
p422
tp423
F0.00228310502283105
s(S'had'
p424
g238
tp425
F0.00228310502283105
s(S'service'
p426
S'on'
p427
tp428
F0.00228310502283105
s(S'operates'
p429
g7
tp430
F0.01141552511415525
s(S'be'
p431
S'based'
p432
tp433
F0.00228310502283105
s(S'to'
p434
g328
tp435
F0.00228310502283105
s(S'charter'
p436
g68
tp437
F0.00228310502283105
s(g422
S'with'
p438
tp439
F0.00228310502283105
s(S'been'
p440
S'established'
p441
tp442
F0.00228310502283105
s(S'[[adj]]'
p443
S'based'
p444
tp445
F0.0045662100456621
s(S'[[num]]'
p446
S'offices'
p447
tp448
F0.00228310502283105
s(S'headquartered'
p449
S'[[con]]'
p450
tp451
F0.0045662100456621
s(S'established'
p452
S'[[num]]'
p453
tp454
F0.00228310502283105
s(S'[[det]]'
p455
S'operated'
p456
tp457
F0.00228310502283105
s(S'service'
p458
S'from'
p459
tp460
F0.0091324200913242
s(g341
S'office'
p461
tp462
F0.01141552511415525
s(S'been'
p463
S'founded'
p464
tp465
F0.00228310502283105
s(S'passenger'
p466
S'[[con]]'
p467
tp468
F0.00228310502283105
s(g379
S'in'
p469
tp470
F0.00228310502283105
s(g461
g223
tp471
F0.0045662100456621
s(S'routes'
p472
S'from'
p473
tp474
F0.0045662100456621
s(S'headquarters'
p475
S'[[det]]'
p476
tp477
F0.00228310502283105
s(S'service'
p478
S'between'
p479
tp480
F0.0136986301369863
s(S'[[adj]]'
p481
g472
tp482
F0.00228310502283105
s(S'operations'
p483
S'from'
p484
tp485
F0.00228310502283105
s(S'[[con]]'
p486
S'headquartered'
p487
tp488
F0.00228310502283105
s(S'currently'
p489
g235
tp490
F0.00228310502283105
s(S'[[num]]'
p491
S'flights'
p492
tp493
F0.00228310502283105
s(g456
S'out'
p494
tp495
F0.00228310502283105
s(g245
S'at'
p496
tp497
F0.0045662100456621
s(S'provides'
p498
S'services'
p499
tp500
F0.0045662100456621
s(g158
g63
tp501
F0.00228310502283105
s(S'routes'
p502
S'between'
p503
tp504
F0.00228310502283105
s(S'language'
p505
g362
tp506
F0.00228310502283105
s(S'[[prp]]'
p507
g197
tp508
F0.00228310502283105
s(S'[[adj]]'
p509
g478
tp510
F0.0228310502283105
s(S'with'
p511
S'offices'
p512
tp513
F0.00228310502283105
s(g132
S'in'
p514
tp515
F0.00228310502283105
s(S'began'
p516
S'[[adj]]'
p517
tp518
F0.00684931506849315
s(S'to'
p519
g13
tp520
F0.00228310502283105
s(S'services'
p521
S'at'
p522
tp523
F0.00228310502283105
s(S'[[det]]'
p524
g505
tp525
F0.00228310502283105
s(S'party'
p526
S'with'
p527
tp528
F0.00228310502283105
s(S'commenced'
p529
g483
tp530
F0.0045662100456621
s(S'office'
p531
S'in'
p532
tp533
F0.0045662100456621
s(S'flights'
p534
S'from'
p535
tp536
F0.00684931506849315
s(S'[[det]]'
p537
g307
tp538
F0.0045662100456621
s(S'also'
p539
g337
tp540
F0.00228310502283105
s(g467
S'[[adj]]'
p541
tp542
F0.00228310502283105
s(S'firm'
p543
S'based'
p544
tp545
F0.00228310502283105
s(S'[[num]]'
p546
S'based'
p547
tp548
F0.00228310502283105
s(S'firm'
p549
S'headquartered'
p550
tp551
F0.00228310502283105
s(S'began'
p552
g403
tp553
F0.00228310502283105
s(g38
S'based'
p554
tp555
F0.00228310502283105
s(S'law'
p556
g549
tp557
F0.0045662100456621
s(S'[[det]]'
p558
S'flag'
p559
tp560
F0.00228310502283105
s(S'[[adj]]'
p561
g556
tp562
F0.00228310502283105
s(S'was'
p563
g160
tp564
F0.01141552511415525
s(S'operated'
p565
S'to'
p566
tp567
F0.00228310502283105
s(S'is'
p568
g325
tp569
F0.0045662100456621
s(S'moved'
p570
S'[[prp]]'
p571
tp572
F0.0136986301369863
s(g44
g507
tp573
F0.00228310502283105
s(S'was'
p574
S'headquartered'
p575
tp576
F0.0091324200913242
s(S'headquarters'
p577
S'at'
p578
tp579
F0.00228310502283105
s.