(dp0
(S'headquartered'
p1
S'at'
p2
tp3
F0.02
s(S'operates'
p4
S'between'
p5
tp6
F0.006666666666666667
s(S'[[adj]]'
p7
S'services'
p8
tp9
F0.006666666666666667
s(S'[[adj]]'
p10
S'flights'
p11
tp12
F0.006666666666666667
s(S'flights'
p13
S'to'
p14
tp15
F0.006666666666666667
s(S'provides'
p16
S'service'
p17
tp18
F0.013333333333333334
s(S'service'
p19
S'at'
p20
tp21
F0.006666666666666667
s(S'services'
p22
S'from'
p23
tp24
F0.013333333333333334
s(S'operates'
p25
S'[[prp]]'
p26
tp27
F0.006666666666666667
s(S'also'
p28
S'operates'
p29
tp30
F0.02
s(S'were'
p31
S'based'
p32
tp33
F0.006666666666666667
s(S'announced'
p34
S'[[pro]]'
p35
tp36
F0.006666666666666667
s(S'services'
p37
S'[[con]]'
p38
tp39
F0.006666666666666667
s(S'hub'
p40
S'at'
p41
tp42
F0.006666666666666667
s(S'based'
p43
S'in'
p44
tp45
F0.006666666666666667
s(S's'
p46
S'service'
p47
tp48
F0.006666666666666667
s(S'services'
p49
S'between'
p50
tp51
F0.006666666666666667
s(S'to'
p52
S'operate'
p53
tp54
F0.013333333333333334
s(S'based'
p55
S'[[adj]]'
p56
tp57
F0.006666666666666667
s(S'begin'
p58
S'service'
p59
tp60
F0.006666666666666667
s(S'charter'
p61
S'flights'
p62
tp63
F0.013333333333333334
s(S'is'
p64
S'headquartered'
p65
tp66
F0.013333333333333334
s(S'are'
p67
g43
tp68
F0.013333333333333334
s(S'[[det]]'
p69
S'service'
p70
tp71
F0.013333333333333334
s(S'began'
p72
S'service'
p73
tp74
F0.02
s(S'operates'
p75
S'out'
p76
tp77
F0.006666666666666667
s(S'based'
p78
S'[[con]]'
p79
tp80
F0.006666666666666667
s(S'[[num]]'
p81
S'based'
p82
tp83
F0.006666666666666667
s(S'based'
p84
S'around'
p85
tp86
F0.006666666666666667
s(g29
S'on'
p87
tp88
F0.013333333333333334
s(S'on'
p89
S'[[det]]'
p90
tp91
F0.006666666666666667
s(S'been'
p92
S'based'
p93
tp94
F0.006666666666666667
s(S'[[det]]'
p95
S'operation'
p96
tp97
F0.006666666666666667
s(S'operation'
p98
S'at'
p99
tp100
F0.006666666666666667
s(S'service'
p101
S'for'
p102
tp103
F0.006666666666666667
s(S'[[mod]]'
p104
g58
tp105
F0.006666666666666667
s(S'operates'
p106
S'[[det]]'
p107
tp108
F0.02
s(g70
S'to'
p109
tp110
F0.04666666666666667
s(S'flights'
p111
S'between'
p112
tp113
F0.006666666666666667
s(S'operates'
p114
S'[[con]]'
p115
tp116
F0.006666666666666667
s(S'[[det]]'
p117
S'airline'
p118
tp119
F0.006666666666666667
s(S'operates'
p120
S'[[num]]'
p121
tp122
F0.02
s(g73
S'in'
p123
tp124
F0.006666666666666667
s(S'also'
p125
S'began'
p126
tp127
F0.006666666666666667
s(S'operates'
p128
S'[[adj]]'
p129
tp130
F0.006666666666666667
s(S'hub'
p131
S'in'
p132
tp133
F0.006666666666666667
s(S'based'
p134
S'at'
p135
tp136
F0.08666666666666667
s(S'[[prp]]'
p137
S'head'
p138
tp139
F0.006666666666666667
s(g8
S'to'
p140
tp141
F0.013333333333333334
s(S'operate'
p142
S'[[num]]'
p143
tp144
F0.006666666666666667
s(S'operate'
p145
S'out'
p146
tp147
F0.006666666666666667
s(g65
S'with'
p148
tp149
F0.006666666666666667
s(S'[[con]]'
p150
S'based'
p151
tp152
F0.006666666666666667
s(g90
S'grounds'
p153
tp154
F0.006666666666666667
s(S'was'
p155
S'based'
p156
tp157
F0.013333333333333334
s(g153
S'of'
p158
tp159
F0.006666666666666667
s(g35
g104
tp160
F0.006666666666666667
s(S'[[adj]]'
p161
S'hub'
p162
tp163
F0.006666666666666667
s(S'with'
p164
S'service'
p165
tp166
F0.006666666666666667
s(S'is'
p167
g84
tp168
F0.02666666666666667
s(S'service'
p169
S'on'
p170
tp171
F0.006666666666666667
s(S'operates'
p172
S'at'
p173
tp174
F0.006666666666666667
s(S'airline'
p175
S'based'
p176
tp177
F0.013333333333333334
s(S'[[adj]]'
p178
g134
tp179
F0.006666666666666667
s(S'[[mod]]'
p180
S'operate'
p181
tp182
F0.006666666666666667
s(S'headquartered'
p183
S'[[con]]'
p184
tp185
F0.006666666666666667
s(g17
S'from'
p186
tp187
F0.03333333333333333
s(g138
S'office'
p188
tp189
F0.006666666666666667
s(g188
g89
tp190
F0.006666666666666667
s(S'[[det]]'
p191
S'based'
p192
tp193
F0.006666666666666667
s(S'service'
p194
S'between'
p195
tp196
F0.02
s(S'currently'
p197
g120
tp198
F0.02
s(S'[[det]]'
p199
g131
tp200
F0.006666666666666667
s(S'provides'
p201
g22
tp202
F0.013333333333333334
s(S'[[adj]]'
p203
g101
tp204
F0.04
s(S'began'
p205
S'[[adj]]'
p206
tp207
F0.013333333333333334
s(S'operate'
p208
S'[[det]]'
p209
tp210
F0.02
s(S'operates'
p211
S'to'
p212
tp213
F0.006666666666666667
s(S'currently'
p214
S'based'
p215
tp216
F0.006666666666666667
s(S'now'
p217
S'operates'
p218
tp219
F0.006666666666666667
s(S'flights'
p220
S'from'
p221
tp222
F0.013333333333333334
s(S'operate'
p223
S'from'
p224
tp225
F0.006666666666666667
s(S'[[adj]]'
p226
g175
tp227
F0.006666666666666667
s(S'also'
p228
S'operate'
p229
tp230
F0.006666666666666667
s(S'began'
p231
S'[[det]]'
p232
tp233
F0.006666666666666667
s(S'operate'
p234
S'[[adj]]'
p235
tp236
F0.006666666666666667
s(S'[[prp]]'
p237
S'services'
p238
tp239
F0.006666666666666667
s(S'was'
p240
S'headquartered'
p241
tp242
F0.02
s.