(dp0
(S'development'
p1
S'committee'
p2
tp3
F0.00392156862745098
s(S'cities'
p4
S'in'
p5
tp6
F0.011764705882352941
s(S'including'
p7
S'what'
p8
tp9
F0.00784313725490196
s(S'located'
p10
S'in'
p11
tp12
F0.054901960784313725
s(S'capital'
p13
S'in'
p14
tp15
F0.00392156862745098
s(S'states'
p16
S'[[con]]'
p17
tp18
F0.00392156862745098
s(S'[[con]]'
p19
S'municipality'
p20
tp21
F0.00392156862745098
s(S'[[det]]'
p22
S'neighborhood'
p23
tp24
F0.01568627450980392
s(S'now'
p25
S'located'
p26
tp27
F0.00784313725490196
s(S'added'
p28
S'[[det]]'
p29
tp30
F0.00784313725490196
s(S'cities'
p31
S'of'
p32
tp33
F0.00392156862745098
s(S'is'
p34
S'typically'
p35
tp36
F0.00392156862745098
s(S'[[num]]'
p37
S'cities'
p38
tp39
F0.00392156862745098
s(S'[[num]]'
p40
g16
tp41
F0.00392156862745098
s(S'been'
p42
S'located'
p43
tp44
F0.00392156862745098
s(S'located'
p45
S'just'
p46
tp47
F0.00392156862745098
s(S'on'
p48
S'[[det]]'
p49
tp50
F0.00392156862745098
s(S'laws'
p51
S'of'
p52
tp53
F0.00784313725490196
s(S'election'
p54
S'in'
p55
tp56
F0.00392156862745098
s(S'capital'
p57
S'[[con]]'
p58
tp59
F0.00784313725490196
s(S'[[adj]]'
p60
S'area'
p61
tp62
F0.00784313725490196
s(S'[[det]]'
p63
S'city'
p64
tp65
F0.01568627450980392
s(S'city'
p66
S'of'
p67
tp68
F0.01568627450980392
s(S'largest'
p69
g66
tp70
F0.027450980392156862
s(S'became'
p71
S'[[adj]]'
p72
tp73
F0.00392156862745098
s(S'contained'
p74
g40
tp75
F0.00392156862745098
s(g61
S'in'
p76
tp77
F0.00784313725490196
s(S'rest'
p78
S'to'
p79
tp80
F0.00392156862745098
s(S'currently'
p81
S'located'
p82
tp83
F0.00392156862745098
s(S'area'
p84
S'within'
p85
tp86
F0.00392156862745098
s(S'located'
p87
S'[[det]]'
p88
tp89
F0.00784313725490196
s(S'known'
p90
S'[[det]]'
p91
tp92
F0.00392156862745098
s(S'[[det]]'
p93
g69
tp94
F0.0196078431372549
s(g8
S'today'
p95
tp96
F0.00784313725490196
s(S'also'
p97
S'located'
p98
tp99
F0.00784313725490196
s(S'[[adj]]'
p100
S'territories'
p101
tp102
F0.00392156862745098
s(S'suburb'
p103
S'in'
p104
tp105
F0.00392156862745098
s(S'[[det]]'
p106
S'district'
p107
tp108
F0.0196078431372549
s(g107
S'of'
p109
tp110
F0.01568627450980392
s(S'of'
p111
S'cities'
p112
tp113
F0.00392156862745098
s(S'in'
p114
S'[[det]]'
p115
tp116
F0.0196078431372549
s(S'[[adj]]'
p117
g90
tp118
F0.00392156862745098
s(S'was'
p119
S'incorporated'
p120
tp121
F0.00784313725490196
s(S'school'
p122
S'in'
p123
tp124
F0.00392156862745098
s(g11
S'[[adj]]'
p125
tp126
F0.00392156862745098
s(S'neighborhood'
p127
S'of'
p128
tp129
F0.00392156862745098
s(S'[[adj]]'
p130
g57
tp131
F0.00784313725490196
s(S'[[adj]]'
p132
S'city'
p133
tp134
F0.00784313725490196
s(S'was'
p135
S'located'
p136
tp137
F0.011764705882352941
s(S'city'
p138
S'[[con]]'
p139
tp140
F0.00392156862745098
s(S'experienced'
p141
S'[[adj]]'
p142
tp143
F0.00392156862745098
s(S'alternative'
p144
S'[[adj]]'
p145
tp146
F0.00392156862745098
s(g49
S'island'
p147
tp148
F0.00392156862745098
s(S'[[det]]'
p149
S'location'
p150
tp151
F0.00392156862745098
s(S'state'
p152
S'of'
p153
tp154
F0.0196078431372549
s(S'producer'
p155
S'with'
p156
tp157
F0.00392156862745098
s(S'community'
p158
S'of'
p159
tp160
F0.00392156862745098
s(S'[[det]]'
p161
S'municipality'
p162
tp163
F0.00392156862745098
s(S'states'
p164
S'as'
p165
tp166
F0.00392156862745098
s(S'[[det]]'
p167
S'suburb'
p168
tp169
F0.00784313725490196
s(S'suburb'
p170
S'of'
p171
tp172
F0.00392156862745098
s(S'[[det]]'
p173
S'town'
p174
tp175
F0.00392156862745098
s(S'[[adj]]'
p176
S'cities'
p177
tp178
F0.00784313725490196
s(S'portions'
p179
S'of'
p180
tp181
F0.00392156862745098
s(S'city'
p182
S'in'
p183
tp184
F0.027450980392156862
s(S'district'
p185
S'in'
p186
tp187
F0.00392156862745098
s(S'[[det]]'
p188
g78
tp189
F0.00392156862745098
s(S'located'
p190
S'between'
p191
tp192
F0.00392156862745098
s(S'formerly'
p193
S'located'
p194
tp195
F0.00392156862745098
s(g2
S'in'
p196
tp197
F0.00392156862745098
s(S'[[con]]'
p198
S'located'
p199
tp200
F0.00392156862745098
s(g72
g155
tp201
F0.00392156862745098
s(S'quickly'
p202
g71
tp203
F0.00392156862745098
s(S'[[det]]'
p204
g84
tp205
F0.011764705882352941
s(S'county'
p206
S'of'
p207
tp208
F0.00392156862745098
s(g125
g158
tp209
F0.00392156862745098
s(S'located'
p210
S'[[adj]]'
p211
tp212
F0.00392156862745098
s(g165
g179
tp213
F0.00392156862745098
s(S'capital'
p214
S'of'
p215
tp216
F0.01568627450980392
s(S'district'
p217
S'[[con]]'
p218
tp219
F0.00392156862745098
s(g29
S'[[adj]]'
p220
tp221
F0.00784313725490196
s(S'[[det]]'
p222
S'headquarters'
p223
tp224
F0.00392156862745098
s(S'[[det]]'
p225
g144
tp226
F0.00392156862745098
s(S'miles'
p227
g7
tp228
F0.00784313725490196
s(S'city'
p229
S'on'
p230
tp231
F0.00392156862745098
s(g115
g152
tp232
F0.0196078431372549
s(S'[[num]]'
p233
S'located'
p234
tp235
F0.00392156862745098
s(S'[[det]]'
p236
S'village'
p237
tp238
F0.00784313725490196
s(S'largest'
p239
S'[[con]]'
p240
tp241
F0.00392156862745098
s(S'county'
p242
S'in'
p243
tp244
F0.00392156862745098
s(S'[[adj]]'
p245
S'neighborhood'
p246
tp247
F0.00392156862745098
s(S'[[det]]'
p248
S'number'
p249
tp250
F0.00392156862745098
s(S'[[det]]'
p251
g164
tp252
F0.00784313725490196
s(S'capital'
p253
S'[[det]]'
p254
tp255
F0.00392156862745098
s(S'[[det]]'
p256
g214
tp257
F0.023529411764705882
s(g95
g251
tp258
F0.00784313725490196
s(S'of'
p259
S'located'
p260
tp261
F0.00392156862745098
s(g120
S'under'
p262
tp263
F0.00784313725490196
s(g223
S'of'
p264
tp265
F0.00392156862745098
s(g20
S'in'
p266
tp267
F0.00392156862745098
s(g145
g122
tp268
F0.00392156862745098
s(g174
g19
tp269
F0.00392156862745098
s(g150
g222
tp270
F0.00392156862745098
s(S'located'
p271
S'[[num]]'
p272
tp273
F0.00392156862745098
s(S'[[adj]]'
p274
g103
tp275
F0.00392156862745098
s(S'located'
p276
S'at'
p277
tp278
F0.00784313725490196
s(g91
S'frontier'
p279
tp280
F0.00392156862745098
s(S'had'
p281
g28
tp282
F0.00784313725490196
s(S'article'
p283
S'is'
p284
tp285
F0.00392156862745098
s(S'[[det]]'
p286
S'located'
p287
tp288
F0.00392156862745098
s(S'is'
p289
g87
tp290
F0.011764705882352941
s(S'states'
p291
S'of'
p292
tp293
F0.00392156862745098
s(g168
S'on'
p294
tp295
F0.00392156862745098
s(S'[[adj]]'
p296
g185
tp297
F0.00784313725490196
s(g246
S'in'
p298
tp299
F0.011764705882352941
s(S'[[adj]]'
p300
S'states'
p301
tp302
F0.00392156862745098
s(g237
g1
tp303
F0.00392156862745098
s(S'[[adj]]'
p304
S'largest'
p305
tp306
F0.00784313725490196
s(S'village'
p307
g48
tp308
F0.00392156862745098
s(S'[[adj]]'
p309
g54
tp310
F0.00392156862745098
s(S'in'
p311
S'located'
p312
tp313
F0.00392156862745098
s(g139
S'[[det]]'
p314
tp315
F0.00392156862745098
s(S'district'
p316
S'[[det]]'
p317
tp318
F0.00784313725490196
s(S'[[adj]]'
p319
S'business'
p320
tp321
F0.00392156862745098
s(g240
g132
tp322
F0.00784313725490196
s(S's'
p323
S'located'
p324
tp325
F0.00784313725490196
s(S'in'
p326
S'district'
p327
tp328
F0.00392156862745098
s(S'area'
p329
S'of'
p330
tp331
F0.00784313725490196
s(g324
S'near'
p332
tp333
F0.00784313725490196
s(S'related'
p334
S'to'
p335
tp336
F0.00392156862745098
s(S'located'
p337
S'of'
p338
tp339
F0.00784313725490196
s(g335
S'[[det]]'
p340
tp341
F0.00392156862745098
s(S'[[det]]'
p342
g206
tp343
F0.00784313725490196
s(g220
g227
tp344
F0.00784313725490196
s(g320
S'district'
p345
tp346
F0.00392156862745098
s(g147
S'of'
p347
tp348
F0.00392156862745098
s(S'[[adj]]'
p349
g276
tp350
F0.011764705882352941
s(S'[[adj]]'
p351
g283
tp352
F0.00392156862745098
s(g249
g188
tp353
F0.00392156862745098
s(g262
S'[[adj]]'
p354
tp355
F0.00784313725490196
s(g354
S'laws'
p356
tp357
F0.00784313725490196
s(g35
g300
tp358
F0.00392156862745098
s(g162
g10
tp359
F0.00392156862745098
s.