(dp0
(S'land'
p1
S'battle'
p2
tp3
F0.018518518518518517
s(S'battles'
p4
S'[[det]]'
p5
tp6
F0.009259259259259259
s(S'[[adj]]'
p7
S'confrontation'
p8
tp9
F0.009259259259259259
s(S'[[adj]]'
p10
S'operation'
p11
tp12
F0.018518518518518517
s(S'battle'
p13
S'with'
p14
tp15
F0.009259259259259259
s(S'engagement'
p16
S'of'
p17
tp18
F0.018518518518518517
s(S'fought'
p19
S'during'
p20
tp21
F0.037037037037037035
s(S'battle'
p22
S'between'
p23
tp24
F0.009259259259259259
s(S'place'
p25
S'as'
p26
tp27
F0.009259259259259259
s(S'fought'
p28
S'was'
p29
tp30
F0.009259259259259259
s(S'battles'
p31
S'of'
p32
tp33
F0.009259259259259259
s(S'battles'
p34
S'[[con]]'
p35
tp36
F0.009259259259259259
s(S'[[adj]]'
p37
S'land'
p38
tp39
F0.009259259259259259
s(S'battle'
p40
S'fought'
p41
tp42
F0.037037037037037035
s(S'place'
p43
S'during'
p44
tp45
F0.009259259259259259
s(S'[[det]]'
p46
g16
tp47
F0.018518518518518517
s(S'battle'
p48
S'[[det]]'
p49
tp50
F0.027777777777777776
s(S'[[det]]'
p51
S'event'
p52
tp53
F0.009259259259259259
s(S's'
p54
g13
tp55
F0.009259259259259259
s(S'battle'
p56
S'during'
p57
tp58
F0.018518518518518517
s(S'engagement'
p59
S'in'
p60
tp61
F0.009259259259259259
s(S'was'
p62
S'fought'
p63
tp64
F0.037037037037037035
s(S'battle'
p65
S'in'
p66
tp67
F0.018518518518518517
s(S'event'
p68
S'of'
p69
tp70
F0.009259259259259259
s(S'of'
p71
S'fought'
p72
tp73
F0.009259259259259259
s(S'battle'
p74
S'of'
p75
tp76
F0.06481481481481481
s(S'[[con]]'
p77
S'fought'
p78
tp79
F0.009259259259259259
s(S'fought'
p80
S'as'
p81
tp82
F0.018518518518518517
s(S'[[det]]'
p83
S'end'
p84
tp85
F0.009259259259259259
s(g78
S'[[det]]'
p86
tp87
F0.018518518518518517
s(S'[[adj]]'
p88
g31
tp89
F0.027777777777777776
s(S'[[adj]]'
p90
g48
tp91
F0.09259259259259259
s(S'place'
p92
S'on'
p93
tp94
F0.009259259259259259
s(S'event'
p95
S'at'
p96
tp97
F0.027777777777777776
s(S'[[det]]'
p98
g1
tp99
F0.009259259259259259
s(S'to'
p100
S'battle'
p101
tp102
F0.018518518518518517
s(S'event'
p103
S'[[con]]'
p104
tp105
F0.009259259259259259
s(S'[[det]]'
p106
S'cavalry'
p107
tp108
F0.009259259259259259
s(S'battles'
p109
S'in'
p110
tp111
F0.009259259259259259
s(S'took'
p112
g92
tp113
F0.027777777777777776
s(S'[[adj]]'
p114
S'event'
p115
tp116
F0.037037037037037035
s(S'[[det]]'
p117
S'fought'
p118
tp119
F0.009259259259259259
s(S'fought'
p120
S'in'
p121
tp122
F0.009259259259259259
s(S'[[det]]'
p123
S'largest'
p124
tp125
F0.009259259259259259
s(g84
S'of'
p126
tp127
F0.009259259259259259
s(g54
S'event'
p128
tp129
F0.018518518518518517
s(S'operation'
p130
S'of'
p131
tp132
F0.009259259259259259
s(S'[[adj]]'
p133
S'engagement'
p134
tp135
F0.027777777777777776
s(S'then'
p136
S'fought'
p137
tp138
F0.009259259259259259
s(g124
S'[[adj]]'
p139
tp140
F0.009259259259259259
s(S'battle'
p141
S'[[con]]'
p142
tp143
F0.009259259259259259
s(S'occurred'
p144
S'during'
p145
tp146
F0.009259259259259259
s(S'fought'
p147
S'[[num]]'
p148
tp149
F0.009259259259259259
s(S'[[det]]'
p150
g74
tp151
F0.07407407407407407
s.