(dp0
(S's'
p1
S'capital'
p2
tp3
F0.17647058823529413
s(S'capital'
p4
S'from'
p5
tp6
F0.058823529411764705
s(S'[[adj]]'
p7
S'cities'
p8
tp9
F0.058823529411764705
s(g1
S'largest'
p10
tp11
F0.029411764705882353
s(S'[[adj]]'
p12
S'artist'
p13
tp14
F0.029411764705882353
s(g1
S'north'
p15
tp16
F0.029411764705882353
s(S'cities'
p17
S'[[con]]'
p18
tp19
F0.029411764705882353
s(S'capital'
p20
S'city'
p21
tp22
F0.058823529411764705
s(S'capital'
p23
S'in'
p24
tp25
F0.029411764705882353
s(S'capital'
p26
S'[[con]]'
p27
tp28
F0.029411764705882353
s(S'capital'
p29
S'of'
p30
tp31
F0.029411764705882353
s(S'artist'
p32
S'based'
p33
tp34
F0.058823529411764705
s(g33
S'in'
p35
tp36
F0.058823529411764705
s(S'[[adj]]'
p37
S'largest'
p38
tp39
F0.029411764705882353
s(S'moves'
p40
S'[[prp]]'
p41
tp42
F0.029411764705882353
s(g38
S'city'
p43
tp44
F0.058823529411764705
s(g15
S'of'
p45
tp46
F0.029411764705882353
s(S'[[det]]'
p47
g32
tp48
F0.029411764705882353
s(S'[[prp]]'
p49
S'capital'
p50
tp51
F0.058823529411764705
s(S'[[adj]]'
p52
S'capital'
p53
tp54
F0.058823529411764705
s(S'city'
p55
S'of'
p56
tp57
F0.029411764705882353
s.