(dp0
(S'is'
p1
S'launched'
p2
tp3
F0.05263157894736842
s(S'was'
p4
S'launched'
p5
tp6
F0.3157894736842105
s(S'launched'
p7
S'at'
p8
tp9
F0.10526315789473684
s(S'launched'
p10
S'[[con]]'
p11
tp12
F0.05263157894736842
s(S'launched'
p13
S'[[num]]'
p14
tp15
F0.05263157894736842
s(g5
S'to'
p16
tp17
F0.10526315789473684
s(S'launched'
p18
S'from'
p19
tp20
F0.10526315789473684
s(S'launched'
p21
S'as'
p22
tp23
F0.10526315789473684
s(S'be'
p24
S'launched'
p25
tp26
F0.05263157894736842
s(S'[[det]]'
p27
S'launched'
p28
tp29
F0.05263157894736842
s.