(dp0
(S'gt'
p1
S'named'
p2
tp3
F0.1111111111111111
s(S'gt'
p4
S'had'
p5
tp6
F0.1111111111111111
s(S's'
p7
S'president'
p8
tp9
F0.1111111111111111
s(S'[[num]]'
p10
S'ref'
p11
tp12
F0.1111111111111111
s(S'ref'
p13
g1
tp14
F0.2222222222222222
s(S'gt'
p15
S'lt'
p16
tp17
F0.1111111111111111
s(g16
g13
tp18
F0.1111111111111111
s(S'lt'
p19
g10
tp20
F0.1111111111111111
s.