(dp0
(S'has'
p1
S'operations'
p2
tp3
F0.004201680672268907
s(S'[[adj]]'
p4
S'locations'
p5
tp6
F0.004201680672268907
s(S'offices'
p7
S'[[con]]'
p8
tp9
F0.004201680672268907
s(S'theater'
p10
S'in'
p11
tp12
F0.008403361344537815
s(S'were'
p13
S'founded'
p14
tp15
F0.004201680672268907
s(S'founded'
p16
S'is'
p17
tp18
F0.008403361344537815
s(S'founded'
p19
S'from'
p20
tp21
F0.004201680672268907
s(S'now'
p22
S'located'
p23
tp24
F0.004201680672268907
s(S'based'
p25
S'out'
p26
tp27
F0.008403361344537815
s(S'facility'
p28
S'in'
p29
tp30
F0.012605042016806723
s(S'were'
p31
S'based'
p32
tp33
F0.004201680672268907
s(S'been'
p34
S'located'
p35
tp36
F0.004201680672268907
s(S'[[prp]]'
p37
S'headquarters'
p38
tp39
F0.04201680672268908
s(S'founded'
p40
S'in'
p41
tp42
F0.025210084033613446
s(S'has'
p43
S'headquarters'
p44
tp45
F0.008403361344537815
s(g38
S'to'
p46
tp47
F0.012605042016806723
s(S'based'
p48
S'in'
p49
tp50
F0.06722689075630252
s(S'locations'
p51
S'in'
p52
tp53
F0.01680672268907563
s(S'located'
p54
S'in'
p55
tp56
F0.046218487394957986
s(S'currently'
p57
S'located'
p58
tp59
F0.004201680672268907
s(S'established'
p60
S'in'
p61
tp62
F0.012605042016806723
s(S'is'
p63
S'headquartered'
p64
tp65
F0.025210084033613446
s(S'founded'
p66
S'[[det]]'
p67
tp68
F0.004201680672268907
s(S'are'
p69
S'based'
p70
tp71
F0.004201680672268907
s(S'is'
p72
S'established'
p73
tp74
F0.004201680672268907
s(S'founded'
p75
S'[[num]]'
p76
tp77
F0.004201680672268907
s(S'has'
p78
S'established'
p79
tp80
F0.004201680672268907
s(S'[[con]]'
p81
S'is'
p82
tp83
F0.012605042016806723
s(S'[[adj]]'
p84
S'offices'
p85
tp86
F0.008403361344537815
s(S'based'
p87
S'near'
p88
tp89
F0.004201680672268907
s(S's'
p90
S'based'
p91
tp92
F0.004201680672268907
s(S'founded'
p93
S'[[con]]'
p94
tp95
F0.01680672268907563
s(S'operations'
p96
S'to'
p97
tp98
F0.004201680672268907
s(S'moved'
p99
S'[[prp]]'
p100
tp101
F0.025210084033613446
s(S'[[det]]'
p102
g28
tp103
F0.004201680672268907
s(S'was'
p104
S'located'
p105
tp106
F0.004201680672268907
s(S'[[adj]]'
p107
S'facility'
p108
tp109
F0.004201680672268907
s(S'[[prp]]'
p110
S'offices'
p111
tp112
F0.004201680672268907
s(S'also'
p113
S'located'
p114
tp115
F0.004201680672268907
s(S'offices'
p116
S'in'
p117
tp118
F0.029411764705882353
s(S'headquarters'
p119
S'in'
p120
tp121
F0.029411764705882353
s(g79
S'[[det]]'
p122
tp123
F0.004201680672268907
s(S'be'
p124
S'established'
p125
tp126
F0.004201680672268907
s(S'is'
p127
g87
tp128
F0.025210084033613446
s(S'[[det]]'
p129
S'founded'
p130
tp131
F0.004201680672268907
s(S'established'
p132
S'[[con]]'
p133
tp134
F0.004201680672268907
s(S'[[adj]]'
p135
S'headquarters'
p136
tp137
F0.01680672268907563
s(S'for'
p138
S'operations'
p139
tp140
F0.004201680672268907
s(S'established'
p141
S'on'
p142
tp143
F0.004201680672268907
s(S'located'
p144
S'between'
p145
tp146
F0.004201680672268907
s(S'[[num]]'
p147
S'locations'
p148
tp149
F0.008403361344537815
s(g90
g119
tp150
F0.008403361344537815
s(S'had'
p151
S'established'
p152
tp153
F0.004201680672268907
s(S'[[con]]'
p154
S'located'
p155
tp156
F0.004201680672268907
s(S'founded'
p157
S'on'
p158
tp159
F0.004201680672268907
s(S'founded'
p160
S'at'
p161
tp162
F0.004201680672268907
s(S'with'
p163
S'headquarters'
p164
tp165
F0.004201680672268907
s(S'also'
p166
S'based'
p167
tp168
F0.004201680672268907
s(S'[[adj]]'
p169
S'established'
p170
tp171
F0.004201680672268907
s(S'has'
p172
S'offices'
p173
tp174
F0.008403361344537815
s(S'[[det]]'
p175
S'company'
p176
tp177
F0.004201680672268907
s(S'of'
p178
S'founded'
p179
tp180
F0.004201680672268907
s(S'[[adj]]'
p181
S'founded'
p182
tp183
F0.004201680672268907
s(S'[[prp]]'
p184
S'[[adj]]'
p185
tp186
F0.008403361344537815
s(S'[[adj]]'
p187
g10
tp188
F0.004201680672268907
s(S'headquartered'
p189
S'in'
p190
tp191
F0.03361344537815126
s(S'headquartered'
p192
S'with'
p193
tp194
F0.004201680672268907
s(S'currently'
p195
S'headquartered'
p196
tp197
F0.004201680672268907
s(S'[[num]]'
p198
g54
tp199
F0.004201680672268907
s(S'headquarters'
p200
S'from'
p201
tp202
F0.01680672268907563
s(g90
S'located'
p203
tp204
F0.004201680672268907
s(S'[[adj]]'
p205
S'operations'
p206
tp207
F0.008403361344537815
s(S'operations'
p208
S'in'
p209
tp210
F0.02100840336134454
s(g90
S'operations'
p211
tp212
F0.004201680672268907
s(S'had'
p213
g116
tp214
F0.004201680672268907
s(S'be'
p215
g48
tp216
F0.004201680672268907
s(S'has'
p217
g51
tp218
F0.004201680672268907
s(S'[[con]]'
p219
S'offices'
p220
tp221
F0.004201680672268907
s(S'[[adj]]'
p222
S'based'
p223
tp224
F0.008403361344537815
s(S'headquartered'
p225
S'[[con]]'
p226
tp227
F0.008403361344537815
s(S'established'
p228
S'[[num]]'
p229
tp230
F0.004201680672268907
s(S'[[det]]'
p231
S'theater'
p232
tp233
F0.004201680672268907
s(S'been'
p234
S'founded'
p235
tp236
F0.004201680672268907
s(S'located'
p237
S'at'
p238
tp239
F0.004201680672268907
s(S'headquarters'
p240
S'[[det]]'
p241
tp242
F0.004201680672268907
s(S'was'
p243
S'based'
p244
tp245
F0.004201680672268907
s(S'[[num]]'
p246
S'offices'
p247
tp248
F0.004201680672268907
s(S'[[con]]'
p249
S'headquartered'
p250
tp251
F0.008403361344537815
s(S'established'
p252
S'at'
p253
tp254
F0.008403361344537815
s(g176
S'based'
p255
tp256
F0.012605042016806723
s(S'is'
p257
S'located'
p258
tp259
F0.008403361344537815
s(S'with'
p260
S'offices'
p261
tp262
F0.004201680672268907
s(S'in'
p263
S'located'
p264
tp265
F0.004201680672268907
s(S'opens'
p266
S'in'
p267
tp268
F0.004201680672268907
s(S'was'
p269
g228
tp270
F0.02100840336134454
s(S'[[num]]'
p271
S'based'
p272
tp273
F0.004201680672268907
s(S'located'
p274
S'near'
p275
tp276
F0.004201680672268907
s(S'located'
p277
S'of'
p278
tp279
F0.004201680672268907
s(S'was'
p280
g75
tp281
F0.04201680672268908
s(S'is'
p282
g160
tp283
F0.008403361344537815
s(S'[[adj]]'
p284
g237
tp285
F0.012605042016806723
s(S'now'
p286
S'based'
p287
tp288
F0.004201680672268907
s(S'[[adj]]'
p289
S'company'
p290
tp291
F0.004201680672268907
s(g94
g286
tp292
F0.004201680672268907
s(S'was'
p293
S'headquartered'
p294
tp295
F0.012605042016806723
s(S'headquarters'
p296
S'at'
p297
tp298
F0.004201680672268907
s.