(dp0
(S'network'
p1
S'of'
p2
tp3
F0.011834319526627219
s(S'[[adj]]'
p4
S'products'
p5
tp6
F0.005917159763313609
s(S'theater'
p7
S'in'
p8
tp9
F0.011834319526627219
s(S'[[adj]]'
p10
S'channel'
p11
tp12
F0.005917159763313609
s(S'[[det]]'
p13
S'companies'
p14
tp15
F0.005917159763313609
s(S'[[num]]'
p16
S'people'
p17
tp18
F0.011834319526627219
s(S'largest'
p19
S'company'
p20
tp21
F0.005917159763313609
s(S'founded'
p22
S'from'
p23
tp24
F0.005917159763313609
s(S'operator'
p25
S'in'
p26
tp27
F0.005917159763313609
s(S'based'
p28
S'out'
p29
tp30
F0.005917159763313609
s(S'network'
p31
S'in'
p32
tp33
F0.01775147928994083
s(S'be'
p34
S'viewed'
p35
tp36
F0.011834319526627219
s(S'facility'
p37
S'in'
p38
tp39
F0.011834319526627219
s(S'also'
p40
S'operates'
p41
tp42
F0.01775147928994083
s(g11
S'in'
p43
tp44
F0.011834319526627219
s(S'[[prp]]'
p45
S'headquarters'
p46
tp47
F0.011834319526627219
s(S'founded'
p48
S'in'
p49
tp50
F0.023668639053254437
s(S'based'
p51
S'in'
p52
tp53
F0.08284023668639054
s(S'[[det]]'
p54
S'products'
p55
tp56
F0.005917159763313609
s(S'largest'
p57
S'chain'
p58
tp59
F0.011834319526627219
s(S'[[det]]'
p60
g1
tp61
F0.011834319526627219
s(S'manufacturer'
p62
S'of'
p63
tp64
F0.005917159763313609
s(S'[[det]]'
p65
S'largest'
p66
tp67
F0.03550295857988166
s(S'is'
p68
S'headquartered'
p69
tp70
F0.01775147928994083
s(S'founded'
p71
S'[[num]]'
p72
tp73
F0.005917159763313609
s(S'headquarters'
p74
S'[[con]]'
p75
tp76
F0.005917159763313609
s(S'[[adj]]'
p77
S'offices'
p78
tp79
F0.005917159763313609
s(S'operates'
p80
S'out'
p81
tp82
F0.005917159763313609
s(g35
S'by'
p83
tp84
F0.005917159763313609
s(S'operates'
p85
S'from'
p86
tp87
F0.005917159763313609
s(S'employs'
p88
g16
tp89
F0.011834319526627219
s(S'chain'
p90
S'of'
p91
tp92
F0.005917159763313609
s(S'outlets'
p93
S'in'
p94
tp95
F0.011834319526627219
s(S'[[num]]'
p96
S'based'
p97
tp98
F0.005917159763313609
s(S'operates'
p99
S'in'
p100
tp101
F0.023668639053254437
s(S'[[adj]]'
p102
g37
tp103
F0.005917159763313609
s(g78
S'in'
p104
tp105
F0.005917159763313609
s(g46
S'in'
p106
tp107
F0.011834319526627219
s(S'[[det]]'
p108
S'motion'
p109
tp110
F0.005917159763313609
s(g17
S'as'
p111
tp112
F0.005917159763313609
s(g58
S'in'
p113
tp114
F0.023668639053254437
s(S'is'
p115
S'based'
p116
tp117
F0.011834319526627219
s(S'[[det]]'
p118
S'founded'
p119
tp120
F0.005917159763313609
s(S'manufacturer'
p121
S'based'
p122
tp123
F0.01775147928994083
s(S'operates'
p124
S'[[num]]'
p125
tp126
F0.005917159763313609
s(S's'
p127
S'headquarters'
p128
tp129
F0.005917159763313609
s(S'operates'
p130
S'[[adj]]'
p131
tp132
F0.005917159763313609
s(S'largest'
p133
S'in'
p134
tp135
F0.011834319526627219
s(S'founded'
p136
S'on'
p137
tp138
F0.005917159763313609
s(S'company'
p139
S'in'
p140
tp141
F0.029585798816568046
s(S'picture'
p142
S'studio'
p143
tp144
F0.005917159763313609
s(g143
S'in'
p145
tp146
F0.005917159763313609
s(S'[[det]]'
p147
S'company'
p148
tp149
F0.011834319526627219
s(S'[[prp]]'
p150
S'products'
p151
tp152
F0.005917159763313609
s(S'[[adj]]'
p153
S'founded'
p154
tp155
F0.005917159763313609
s(S'[[adj]]'
p156
S'theater'
p157
tp158
F0.011834319526627219
s(S'headquartered'
p159
S'in'
p160
tp161
F0.01775147928994083
s(g69
S'with'
p162
tp163
F0.005917159763313609
s(S'currently'
p164
S'headquartered'
p165
tp166
F0.005917159763313609
s(g55
S'in'
p167
tp168
F0.023668639053254437
s(S'was'
p169
S'based'
p170
tp171
F0.005917159763313609
s(S'[[adj]]'
p172
S'outlets'
p173
tp174
F0.011834319526627219
s(g127
g51
tp175
F0.005917159763313609
s(S'[[adj]]'
p176
S'manufacturer'
p177
tp178
F0.005917159763313609
s(g157
S'of'
p179
tp180
F0.005917159763313609
s(S'smaller'
p181
g77
tp182
F0.005917159763313609
s(S'be'
p183
S'based'
p184
tp185
F0.005917159763313609
s(g66
S'[[adj]]'
p186
tp187
F0.011834319526627219
s(S'[[adj]]'
p188
S'based'
p189
tp190
F0.005917159763313609
s(S'headquartered'
p191
S'[[con]]'
p192
tp193
F0.005917159763313609
s(S'largest'
p194
g25
tp195
F0.005917159763313609
s(S'of'
p196
S'companies'
p197
tp198
F0.005917159763313609
s(S'[[det]]'
p199
S'theater'
p200
tp201
F0.011834319526627219
s(g109
g142
tp202
F0.005917159763313609
s(S'[[adj]]'
p203
g31
tp204
F0.011834319526627219
s(S'currently'
p205
g99
tp206
F0.005917159763313609
s(S'[[adj]]'
p207
S'largest'
p208
tp209
F0.011834319526627219
s(S'[[det]]'
p210
g62
tp211
F0.011834319526627219
s(g148
S'based'
p212
tp213
F0.01775147928994083
s(S'[[num]]'
p214
S'largest'
p215
tp216
F0.005917159763313609
s(S'people'
p217
S'in'
p218
tp219
F0.005917159763313609
s(S'plants'
p220
S'in'
p221
tp222
F0.005917159763313609
s(S'operates'
p223
S'to'
p224
tp225
F0.005917159763313609
s(S'now'
p226
S'operates'
p227
tp228
F0.005917159763313609
s(S'[[adj]]'
p229
S'companies'
p230
tp231
F0.011834319526627219
s(g63
S'based'
p232
tp233
F0.005917159763313609
s(g230
S'in'
p234
tp235
F0.011834319526627219
s(S'[[det]]'
p236
S'chain'
p237
tp238
F0.011834319526627219
s(S'was'
p239
g71
tp240
F0.023668639053254437
s(S'is'
p241
S'founded'
p242
tp243
F0.005917159763313609
s(S'released'
p244
S'[[pro]]'
p245
tp246
F0.005917159763313609
s(S'[[adj]]'
p247
S'company'
p248
tp249
F0.01775147928994083
s(S'released'
p250
S'in'
p251
tp252
F0.005917159763313609
s.