(dp0
(S'[[adj]]'
p1
S'lyrics'
p2
tp3
F0.14285714285714285
s(S'[[con]]'
p4
S'lyrics'
p5
tp6
F0.14285714285714285
s(S'with'
p7
S'lyrics'
p8
tp9
F0.14285714285714285
s(g5
S'by'
p10
tp11
F0.42857142857142855
s(S'authored'
p12
S'by'
p13
tp14
F0.14285714285714285
s.