(dp0
(S'are'
p1
S'owned'
p2
tp3
F0.027777777777777776
s(S'owned'
p4
S'[[num]]'
p5
tp6
F0.027777777777777776
s(S'still'
p7
S'owned'
p8
tp9
F0.027777777777777776
s(S'now'
p10
S'owned'
p11
tp12
F0.05555555555555555
s(S'owned'
p13
S'[[con]]'
p14
tp15
F0.027777777777777776
s(S'maintained'
p16
S'by'
p17
tp18
F0.05555555555555555
s(S'is'
p19
S'maintained'
p20
tp21
F0.05555555555555555
s(S'not'
p22
S'owned'
p23
tp24
F0.027777777777777776
s(S'[[con]]'
p25
S'owned'
p26
tp27
F0.027777777777777776
s(S'is'
p28
S'owned'
p29
tp30
F0.1111111111111111
s(S'was'
p31
S'owned'
p32
tp33
F0.027777777777777776
s(S'currently'
p34
S'owned'
p35
tp36
F0.027777777777777776
s(S'been'
p37
S'owned'
p38
tp39
F0.027777777777777776
s(S'[[det]]'
p40
S'owned'
p41
tp42
F0.05555555555555555
s(S'also'
p43
S'owned'
p44
tp45
F0.027777777777777776
s(g44
S'by'
p46
tp47
F0.3611111111111111
s(S'formerly'
p48
S'owned'
p49
tp50
F0.027777777777777776
s.