(dp0
(S'was'
p1
S'returned'
p2
tp3
F0.007751937984496124
s(S'[[det]]'
p4
S'returned'
p5
tp6
F0.007751937984496124
s(S'founded'
p7
S'[[num]]'
p8
tp9
F0.007751937984496124
s(S'had'
p10
S'arrived'
p11
tp12
F0.023255813953488372
s(S'has'
p13
S'arrived'
p14
tp15
F0.007751937984496124
s(S'then'
p16
S'set'
p17
tp18
F0.007751937984496124
s(S'with'
p19
S'founded'
p20
tp21
F0.007751937984496124
s(S'died'
p22
S'of'
p23
tp24
F0.007751937984496124
s(S'founded'
p25
S'in'
p26
tp27
F0.031007751937984496
s(S'[[pro]]'
p28
S'arrived'
p29
tp30
F0.007751937984496124
s(S'returned'
p31
S'once'
p32
tp33
F0.007751937984496124
s(S'again'
p34
S'returned'
p35
tp36
F0.007751937984496124
s(S'died'
p37
S'to'
p38
tp39
F0.007751937984496124
s(S'arrived'
p40
S'in'
p41
tp42
F0.06201550387596899
s(S'arrived'
p43
S'after'
p44
tp45
F0.007751937984496124
s(S'patron'
p46
S'saint'
p47
tp48
F0.031007751937984496
s(S'first'
p49
g40
tp50
F0.007751937984496124
s(S'set'
p51
S'about'
p52
tp53
F0.007751937984496124
s(S'arrived'
p54
S'from'
p55
tp56
F0.015503875968992248
s(S'set'
p57
S'off'
p58
tp59
F0.015503875968992248
s(S'just'
p60
S'returned'
p61
tp62
F0.007751937984496124
s(S'died'
p63
S'just'
p64
tp65
F0.007751937984496124
s(S'[[con]]'
p66
S'died'
p67
tp68
F0.015503875968992248
s(S'set'
p69
S'at'
p70
tp71
F0.007751937984496124
s(S'[[num]]'
p72
S'died'
p73
tp74
F0.007751937984496124
s(S'died'
p75
S'at'
p76
tp77
F0.03875968992248062
s(S'[[num]]'
p78
S'returned'
p79
tp80
F0.007751937984496124
s(S'soon'
p81
S'returned'
p82
tp83
F0.007751937984496124
s(g17
S'out'
p84
tp85
F0.015503875968992248
s(S'then'
p86
S'returned'
p87
tp88
F0.007751937984496124
s(S'set'
p89
S'[[prp]]'
p90
tp91
F0.007751937984496124
s(S'[[adj]]'
p92
S'returned'
p93
tp94
F0.007751937984496124
s(S'died'
p95
S'from'
p96
tp97
F0.007751937984496124
s(S'also'
p98
g25
tp99
F0.007751937984496124
s(S'returned'
p100
S'[[pro]]'
p101
tp102
F0.007751937984496124
s(S'returned'
p103
S'by'
p104
tp105
F0.007751937984496124
s(S'have'
p106
S'died'
p107
tp108
F0.007751937984496124
s(S'returned'
p109
S'before'
p110
tp111
F0.007751937984496124
s(S'died'
p112
S'[[adj]]'
p113
tp114
F0.007751937984496124
s(S'who'
p115
S'died'
p116
tp117
F0.007751937984496124
s(S'set'
p118
S'in'
p119
tp120
F0.007751937984496124
s(S'died'
p121
S'on'
p122
tp123
F0.007751937984496124
s(S'which'
p124
S'returned'
p125
tp126
F0.007751937984496124
s(S'has'
p127
S'founded'
p128
tp129
F0.007751937984496124
s(S'died'
p130
S'[[det]]'
p131
tp132
F0.007751937984496124
s(g47
S'of'
p133
tp134
F0.015503875968992248
s(S'[[con]]'
p135
S'returned'
p136
tp137
F0.015503875968992248
s(S'when'
p138
S'died'
p139
tp140
F0.015503875968992248
s(S'founded'
p141
S'[[adj]]'
p142
tp143
F0.007751937984496124
s(S'[[adj]]'
p144
S'died'
p145
tp146
F0.007751937984496124
s(S'[[pro]]'
p147
S'returned'
p148
tp149
F0.007751937984496124
s(g87
S'in'
p150
tp151
F0.031007751937984496
s(S'[[det]]'
p152
g46
tp153
F0.023255813953488372
s(S'died'
p154
S'soon'
p155
tp156
F0.007751937984496124
s(S'later'
p157
S'founded'
p158
tp159
F0.007751937984496124
s(S'have'
p160
S'arrived'
p161
tp162
F0.007751937984496124
s(S'in'
p163
S'died'
p164
tp165
F0.007751937984496124
s(S'died'
p166
S'near'
p167
tp168
F0.007751937984496124
s(S'saint'
p169
S'[[con]]'
p170
tp171
F0.007751937984496124
s(S'later'
p172
g75
tp173
F0.015503875968992248
s(S'[[adj]]'
p174
S'arrived'
p175
tp176
F0.007751937984496124
s(g5
S'to'
p177
tp178
F0.08527131782945736
s(S'[[con]]'
p179
S'founded'
p180
tp181
F0.007751937984496124
s(S'[[pro]]'
p182
S'died'
p183
tp184
F0.007751937984496124
s(g107
S'in'
p185
tp186
F0.07751937984496124
s(S'arrived'
p187
S'back'
p188
tp189
F0.007751937984496124
s(g158
S'[[det]]'
p190
tp191
F0.007751937984496124
s(S'had'
p192
S'returned'
p193
tp194
F0.007751937984496124
s(S'[[con]]'
p195
S'set'
p196
tp197
F0.007751937984496124
s(g61
S'from'
p198
tp199
F0.007751937984496124
s(S'who'
p200
S'arrived'
p201
tp202
F0.007751937984496124
s(S'so'
p203
S'returned'
p204
tp205
F0.007751937984496124
s(S'died'
p206
S'while'
p207
tp208
F0.007751937984496124
s(S'arrived'
p209
S'to'
p210
tp211
F0.015503875968992248
s(S'arrived'
p212
S'for'
p213
tp214
F0.007751937984496124
s(S'had'
p215
S'died'
p216
tp217
F0.015503875968992248
s.