(dp0
(S'river'
p1
S'[[con]]'
p2
tp3
F0.029411764705882353
s(S'[[adj]]'
p4
S'river'
p5
tp6
F0.08823529411764706
s(S'river'
p7
S'on'
p8
tp9
F0.029411764705882353
s(S'[[adj]]'
p10
S'longest'
p11
tp12
F0.029411764705882353
s(S'[[adj]]'
p13
S'boundary'
p14
tp15
F0.029411764705882353
s(S'river'
p16
S'in'
p17
tp18
F0.11764705882352941
s(g14
S'between'
p19
tp20
F0.058823529411764705
s(S'longest'
p21
S'river'
p22
tp23
F0.058823529411764705
s(S'boundary'
p24
S'with'
p25
tp26
F0.029411764705882353
s(S'forms'
p27
S'[[det]]'
p28
tp29
F0.11764705882352941
s(S'[[det]]'
p30
g21
tp31
F0.029411764705882353
s(S'[[det]]'
p32
g13
tp33
F0.029411764705882353
s(S'[[det]]'
p34
S'river'
p35
tp36
F0.14705882352941177
s(g28
g24
tp37
F0.08823529411764706
s(S'rises'
p38
S'in'
p39
tp40
F0.029411764705882353
s(g5
S'of'
p41
tp42
F0.058823529411764705
s(g35
S'[[det]]'
p43
tp44
F0.029411764705882353
s.