(dp0
(S'flows'
p1
S'where'
p2
tp3
F0.029411764705882353
s(S'[[adj]]'
p4
S'tributary'
p5
tp6
F0.08823529411764706
s(S'then'
p7
S'joins'
p8
tp9
F0.029411764705882353
s(S'which'
p10
S'joins'
p11
tp12
F0.029411764705882353
s(S'flows'
p13
S'in'
p14
tp15
F0.029411764705882353
s(S'[[con]]'
p16
S'joins'
p17
tp18
F0.058823529411764705
s(S'then'
p19
g1
tp20
F0.029411764705882353
s(g2
S'joins'
p21
tp22
F0.058823529411764705
s(S'[[det]]'
p23
S'joins'
p24
tp25
F0.029411764705882353
s(S'tributary'
p26
S'[[det]]'
p27
tp28
F0.058823529411764705
s(g14
S'[[adj]]'
p29
tp30
F0.029411764705882353
s(S'[[det]]'
p31
S'tributary'
p32
tp33
F0.11764705882352941
s(S'joins'
p34
S'with'
p35
tp36
F0.029411764705882353
s(g21
S'[[det]]'
p37
tp38
F0.20588235294117646
s(g5
S'of'
p39
tp40
F0.08823529411764706
s(S'flows'
p41
g16
tp42
F0.029411764705882353
s(g29
S'direction'
p43
tp44
F0.029411764705882353
s(S'tributary'
p45
S'[[con]]'
p46
tp47
F0.029411764705882353
s.