(dp0
(S'television'
p1
S'drama'
p2
tp3
F0.0004014452027298274
s(S'[[adj]]'
p4
S'adventure'
p5
tp6
F0.0008028904054596548
s(S'[[det]]'
p7
S'thriller'
p8
tp9
F0.0012043356081894822
s(S'thriller'
p10
S'directed'
p11
tp12
F0.0012043356081894822
s(S'gt'
p13
S'[[con]]'
p14
tp15
F0.0004014452027298274
s(S'with'
p16
S'[[det]]'
p17
tp18
F0.0016057808109193096
s(S'is'
p19
S'written'
p20
tp21
F0.0004014452027298274
s(S'into'
p22
S'[[det]]'
p23
tp24
F0.0004014452027298274
s(S'comedy'
p25
S'horror'
p26
tp27
F0.0004014452027298274
s(S'by'
p28
S'[[con]]'
p29
tp30
F0.02007226013649137
s(S'made'
p31
S'by'
p32
tp33
F0.0004014452027298274
s(S'[[num]]'
p34
S'written'
p35
tp36
F0.0004014452027298274
s(S'from'
p37
S'directed'
p38
tp39
F0.0004014452027298274
s(S'[[adj]]'
p40
S'cast'
p41
tp42
F0.0004014452027298274
s(S'adapted'
p43
S'[[num]]'
p44
tp45
F0.0004014452027298274
s(S'mystery'
p46
S'crime'
p47
tp48
F0.0004014452027298274
s(S'fantasy'
p49
S'adventure'
p50
tp51
F0.0004014452027298274
s(S'adapted'
p52
S'into'
p53
tp54
F0.0008028904054596548
s(S'film'
p55
S'in'
p56
tp57
F0.0004014452027298274
s(S'directed'
p58
S'that'
p59
tp60
F0.0004014452027298274
s(S'about'
p61
S'directed'
p62
tp63
F0.0008028904054596548
s(S'[[det]]'
p64
S'sports'
p65
tp66
F0.0004014452027298274
s(S'as'
p67
S'[[det]]'
p68
tp69
F0.0004014452027298274
s(S'[[con]]'
p70
S'starred'
p71
tp72
F0.0004014452027298274
s(S'directed'
p73
S'based'
p74
tp75
F0.0008028904054596548
s(S'feature'
p76
S'film'
p77
tp78
F0.00602167804094741
s(S'starring'
p79
S'with'
p80
tp81
F0.0008028904054596548
s(S'scored'
p82
S'by'
p83
tp84
F0.0004014452027298274
s(S'directed'
p85
S'about'
p86
tp87
F0.0004014452027298274
s(S'[[adj]]'
p88
S'[[con]]'
p89
tp90
F0.0008028904054596548
s(S'[[det]]'
p91
S'cult'
p92
tp93
F0.0004014452027298274
s(g74
S'by'
p94
tp95
F0.0012043356081894822
s(S'was'
p96
S'written'
p97
tp98
F0.0028101164191087916
s(S'[[adj]]'
p99
S'comedy'
p100
tp101
F0.01204335608189482
s(S'television'
p102
S'film'
p103
tp104
F0.0012043356081894822
s(S'was'
p105
S'released'
p106
tp107
F0.0004014452027298274
s(g59
S'starred'
p108
tp109
F0.0004014452027298274
s(S'edited'
p110
S'[[con]]'
p111
tp112
F0.0004014452027298274
s(S'comedy'
p113
S'crime'
p114
tp115
F0.0004014452027298274
s(S'film'
p116
S'of'
p117
tp118
F0.0004014452027298274
s(S'documentary'
p119
S'directed'
p120
tp121
F0.0008028904054596548
s(S'family'
p122
S'film'
p123
tp124
F0.0012043356081894822
s(S'[[det]]'
p125
S'adventure'
p126
tp127
F0.0004014452027298274
s(S'fantasy'
p128
S'film'
p129
tp130
F0.0016057808109193096
s(S'[[num]]'
p131
S'crime'
p132
tp133
F0.010036130068245684
s(S'[[num]]'
p134
S'comedydrama'
p135
tp136
F0.0036130068245684463
s(S'comedy'
p137
S'directed'
p138
tp139
F0.0016057808109193096
s(S'adapted'
p140
g67
tp141
F0.0004014452027298274
s(S'horror'
p142
S'film'
p143
tp144
F0.010437575270975512
s(S'[[num]]'
p145
S'road'
p146
tp147
F0.0008028904054596548
s(S'[[adj]]'
p148
S'crime'
p149
tp150
F0.002007226013649137
s(S'romance'
p151
S'film'
p152
tp153
F0.0024086712163789645
s(S'was'
p154
g52
tp155
F0.0016057808109193096
s(S'film'
p156
S'[[con]]'
p157
tp158
F0.0008028904054596548
s(S'drama'
p159
S'written'
p160
tp161
F0.0004014452027298274
s(S'[[con]]'
p162
S'featuring'
p163
tp164
F0.003211561621838619
s(S'[[det]]'
p165
S'directed'
p166
tp167
F0.0004014452027298274
s(S'[[det]]'
p168
S'feature'
p169
tp170
F0.0016057808109193096
s(S'[[adj]]'
p171
S'film'
p172
tp173
F0.012846246487354477
s(S'film'
p174
S'written'
p175
tp176
F0.02448815736651947
s(S'[[con]]'
p177
S'action'
p178
tp179
F0.0004014452027298274
s(S'known'
p180
S'is'
p181
tp182
F0.004014452027298274
s(S'written'
p183
S'[[con]]'
p184
tp185
F0.03251706142111602
s(g97
S'directed'
p186
tp187
F0.002007226013649137
s(S'directed'
p188
S'at'
p189
tp190
F0.0004014452027298274
s(S'film'
p191
S'[[adj]]'
p192
tp193
F0.002007226013649137
s(S'produced'
p194
S'by'
p195
tp196
F0.0076274588518667205
s(S'[[con]]'
p197
S'starring'
p198
tp199
F0.05941389000401445
s(S'produced'
p200
S'[[con]]'
p201
tp202
F0.0076274588518667205
s(S'[[num]]'
p203
S'detective'
p204
tp205
F0.0008028904054596548
s(S'also'
p206
g180
tp207
F0.0036130068245684463
s(S'[[con]]'
p208
S'crime'
p209
tp210
F0.0004014452027298274
s(g100
S'film'
p211
tp212
F0.026896828582898435
s(S'edited'
p213
S'by'
p214
tp215
F0.0004014452027298274
s(S'film'
p216
S'that'
p217
tp218
F0.0004014452027298274
s(S'by'
p219
S'produced'
p220
tp221
F0.0004014452027298274
s(S'[[num]]'
p222
g76
tp223
F0.0028101164191087916
s(S'action'
p224
S'thriller'
p225
tp226
F0.0016057808109193096
s(S'is'
p227
S'film'
p228
tp229
F0.0004014452027298274
s(S'action'
p230
S'written'
p231
tp232
F0.0008028904054596548
s(S'assassination'
p233
g177
tp234
F0.0004014452027298274
s(S'film'
p235
g31
tp236
F0.0004014452027298274
s(S'drama'
p237
S'film'
p238
tp239
F0.02609393817743878
s(g146
S'movie'
p240
tp241
F0.0008028904054596548
s(S'[[adj]]'
p242
S'action'
p243
tp244
F0.0016057808109193096
s(S'directed'
p245
S'as'
p246
tp247
F0.0004014452027298274
s(S'by'
p248
S'starring'
p249
tp250
F0.01364913689281413
s(S'[[det]]'
p251
S'war'
p252
tp253
F0.0004014452027298274
s(S'thriller'
p254
S'film'
p255
tp256
F0.014050582095543959
s(S'[[num]]'
p257
g224
tp258
F0.009634684865515858
s(S'noir'
p259
S'directed'
p260
tp261
F0.0012043356081894822
s(S'as'
p262
S'[[num]]'
p263
tp264
F0.0004014452027298274
s(S'[[adj]]'
p265
S'movie'
p266
tp267
F0.0004014452027298274
s(S'[[num]]'
p268
S'produced'
p269
tp270
F0.0004014452027298274
s(S'directed'
p271
S'which'
p272
tp273
F0.0004014452027298274
s(S'is'
p274
S'[[num]]'
p275
tp276
F0.005620232838217583
s(S'[[det]]'
p277
S'drama'
p278
tp279
F0.0012043356081894822
s(S'comedy'
p280
S'action'
p281
tp282
F0.0004014452027298274
s(g71
S'by'
p283
tp284
F0.0004014452027298274
s(S'was'
p285
S'directed'
p286
tp287
F0.005218787635487756
s(S'[[con]]'
p288
S'was'
p289
tp290
F0.0004014452027298274
s(S'[[con]]'
p291
S'based'
p292
tp293
F0.0004014452027298274
s(S'thriller'
p294
S'written'
p295
tp296
F0.0004014452027298274
s(S'[[adj]]'
p297
S'fantasy'
p298
tp299
F0.0004014452027298274
s(S'written'
p300
S'by'
p301
tp302
F0.012846246487354477
s(S'features'
p303
S'songs'
p304
tp305
F0.0004014452027298274
s(S'released'
p306
S'starring'
p307
tp308
F0.0016057808109193096
s(S'film'
p309
g200
tp310
F0.004014452027298274
s(g143
g37
tp311
F0.0008028904054596548
s(S'family'
p312
S'comedy'
p313
tp314
F0.0008028904054596548
s(g181
S'[[adj]]'
p315
tp316
F0.0008028904054596548
s(g92
S'[[num]]'
p317
tp318
F0.0004014452027298274
s(S'[[det]]'
p319
S'gentleman'
p320
tp321
F0.0004014452027298274
s(S'film'
p322
S'noir'
p323
tp324
F0.0016057808109193096
s(S'[[adj]]'
p325
S'documentary'
p326
tp327
F0.0004014452027298274
s(S'directed'
p328
S'starring'
p329
tp330
F0.013247691690084303
s(S'produced'
p331
S'with'
p332
tp333
F0.0008028904054596548
s(g65
S'drama'
p334
tp335
F0.0004014452027298274
s(S'[[con]]'
p336
S'stars'
p337
tp338
F0.002007226013649137
s(S'starring'
p339
S'directed'
p340
tp341
F0.0008028904054596548
s(S'[[num]]'
p342
g46
tp343
F0.0028101164191087916
s(S'[[adj]]'
p344
S'mystery'
p345
tp346
F0.0004014452027298274
s(S'produced'
p347
S'directed'
p348
tp349
F0.0016057808109193096
s(S'[[adj]]'
p350
S'horror'
p351
tp352
F0.002007226013649137
s(S'[[det]]'
p353
S'horror'
p354
tp355
F0.0012043356081894822
s(S'[[num]]'
p356
g102
tp357
F0.0016057808109193096
s(S'film'
p358
S'comedy'
p359
tp360
F0.0004014452027298274
s(g198
S'[[con]]'
p361
tp362
F0.0337213970293055
s(S'documentary'
p363
S'film'
p364
tp365
F0.003211561621838619
s(g275
S'film'
p366
tp367
F0.02127659574468085
s(S'released'
p368
S'is'
p369
tp370
F0.0004014452027298274
s(S'[[num]]'
p371
S'adventure'
p372
tp373
F0.0028101164191087916
s(g372
S'film'
p374
tp375
F0.004415897230028101
s(g217
S'was'
p376
tp377
F0.0004014452027298274
s(S'drama'
p378
S'directed'
p379
tp380
F0.0016057808109193096
s(S'[[con]]'
p381
S'directed'
p382
tp383
F0.037334403853873946
s(S'is'
p384
g188
tp385
F0.0016057808109193096
s(S'[[det]]'
p386
S'script'
p387
tp388
F0.0004014452027298274
s(S'[[det]]'
p389
S'color'
p390
tp391
F0.0008028904054596548
s(S'[[num]]'
p392
S'language'
p393
tp394
F0.0016057808109193096
s(S'based'
p395
S'directed'
p396
tp397
F0.0004014452027298274
s(g117
S'directed'
p398
tp399
F0.0004014452027298274
s(S'[[num]]'
p400
S'fantasy'
p401
tp402
F0.002007226013649137
s(S'action'
p403
S'comedy'
p404
tp405
F0.002007226013649137
s(S'[[num]]'
p406
S'movie'
p407
tp408
F0.0024086712163789645
s(S'[[num]]'
p409
g363
tp410
F0.0024086712163789645
s(S'screenplay'
p411
S'written'
p412
tp413
F0.0004014452027298274
s(S'comedy'
p414
S'family'
p415
tp416
F0.0004014452027298274
s(g393
S'film'
p417
tp418
F0.0024086712163789645
s(S'[[adj]]'
p419
S'directed'
p420
tp421
F0.0012043356081894822
s(S'[[det]]'
p422
S'crime'
p423
tp424
F0.0004014452027298274
s(S'[[adj]]'
p425
S'produced'
p426
tp427
F0.0004014452027298274
s(S'mystery'
p428
S'film'
p429
tp430
F0.0028101164191087916
s(S's'
p431
S'written'
p432
tp433
F0.0004014452027298274
s(S'crime'
p434
S'thriller'
p435
tp436
F0.0016057808109193096
s(S'[[num]]'
p437
g312
tp438
F0.002007226013649137
s(S'directed'
p439
g16
tp440
F0.002007226013649137
s(S'[[det]]'
p441
S'written'
p442
tp443
F0.0004014452027298274
s(S'comedy'
p444
g171
tp445
F0.002007226013649137
s(g53
S'[[num]]'
p446
tp447
F0.0004014452027298274
s(g211
S'directed'
p448
tp449
F0.09995985547972702
s(g272
S'starred'
p450
tp451
F0.0004014452027298274
s(S'directed'
p452
S'written'
p453
tp454
F0.004817342432757929
s(S'written'
p455
S'produced'
p456
tp457
F0.0008028904054596548
s(g401
S'action'
p458
tp459
F0.0004014452027298274
s(S'drama'
p460
S'[[adj]]'
p461
tp462
F0.0008028904054596548
s(S'[[con]]'
p463
g110
tp464
F0.0008028904054596548
s(S'starring'
p465
S'[[det]]'
p466
tp467
F0.0008028904054596548
s(S'directed'
p468
S'by'
p469
tp470
F0.08189482135688479
s(S'created'
p471
S'[[con]]'
p472
tp473
F0.0004014452027298274
s(g458
S'film'
p474
tp475
F0.008028904054596548
s(g240
S'directed'
p476
tp477
F0.003211561621838619
s(S'known'
p478
g262
tp479
F0.0004014452027298274
s(g323
S'starring'
p480
tp481
F0.0004014452027298274
s(S'in'
p482
S'[[num]]'
p483
tp484
F0.0008028904054596548
s(g407
S'[[con]]'
p485
tp486
F0.0004014452027298274
s(S'[[det]]'
p487
g119
tp488
F0.0012043356081894822
s(S'film'
p489
S'stars'
p490
tp491
F0.0004014452027298274
s(S'war'
p492
S'film'
p493
tp494
F0.0028101164191087916
s(S'[[det]]'
p495
S'mystery'
p496
tp497
F0.0004014452027298274
s(g135
S'film'
p498
tp499
F0.00602167804094741
s(S'film'
p500
g395
tp501
F0.0008028904054596548
s(g132
S'drama'
p502
tp503
F0.0036130068245684463
s(g448
g197
tp504
F0.055399437976716176
s(S'[[con]]'
p505
g194
tp506
F0.0076274588518667205
s(S'titled'
p507
S'is'
p508
tp509
F0.0004014452027298274
s(S'by'
p510
g489
tp511
F0.0004014452027298274
s(S'film'
p512
g61
tp513
F0.0008028904054596548
s(S'[[adj]]'
p514
S'written'
p515
tp516
F0.0012043356081894822
s(S'film'
p517
g105
tp518
F0.0004014452027298274
s(S'[[adj]]'
p519
S'drama'
p520
tp521
F0.008831794460056202
s(S'[[num]]'
p522
g137
tp523
F0.01364913689281413
s(g17
S'screenplay'
p524
tp525
F0.0008028904054596548
s(g41
S'comedydrama'
p526
tp527
F0.0004014452027298274
s(S'[[adj]]'
p528
S'romance'
p529
tp530
F0.0004014452027298274
s(S'[[det]]'
p531
g358
tp532
F0.005218787635487756
s(S'[[num]]'
p533
g237
tp534
F0.013247691690084303
s(g192
S'starring'
p535
tp536
F0.0004014452027298274
s(S'[[num]]'
p537
g142
tp538
F0.005218787635487756
s(S'[[det]]'
p539
g233
tp540
F0.0004014452027298274
s(S'was'
p541
S'produced'
p542
tp543
F0.0012043356081894822
s(S'comedy'
p544
S'written'
p545
tp546
F0.0004014452027298274
s(S'[[adj]]'
p547
S'feature'
p548
tp549
F0.0008028904054596548
s(S'movie'
p550
S'produced'
p551
tp552
F0.0004014452027298274
s(g483
S'starring'
p553
tp554
F0.0008028904054596548
s(S'comedy'
p555
S'drama'
p556
tp557
F0.0012043356081894822
s(S'film'
p558
g306
tp559
F0.0012043356081894822
s(S'starring'
p560
S'as'
p561
tp562
F0.0012043356081894822
s(g320
S'[[num]]'
p563
tp564
F0.0004014452027298274
s(S'[[adj]]'
p565
g254
tp566
F0.003211561621838619
s(S'[[det]]'
p567
S'language'
p568
tp569
F0.0008028904054596548
s(g359
S'starring'
p570
tp571
F0.0008028904054596548
s(S'film'
p572
g378
tp573
F0.0004014452027298274
s(S'article'
p574
g274
tp575
F0.0004014452027298274
s(S'[[num]]'
p576
S'thriller'
p577
tp578
F0.0072260136491368926
s(S'from'
p579
S'written'
p580
tp581
F0.0004014452027298274
s(g149
S'film'
p582
tp583
F0.008430349257326376
s(S'arts'
p584
S'film'
p585
tp586
F0.0012043356081894822
s(S'family'
p587
S'adventure'
p588
tp589
F0.0004014452027298274
s(g417
S'starring'
p590
tp591
F0.03412284223203533
s(S'drama'
p592
S'starring'
p593
tp594
F0.0004014452027298274
s(S'was'
p595
g82
tp596
F0.0004014452027298274
s(S'film'
p597
S'is'
p598
tp599
F0.0004014452027298274
s(g157
S'[[adj]]'
p600
tp601
F0.0004014452027298274
s(S'aka'
p602
S'is'
p603
tp604
F0.0012043356081894822
s(g204
S'film'
p605
tp606
F0.0008028904054596548
s(S'[[num]]'
p607
g492
tp608
F0.002007226013649137
s(S'[[con]]'
p609
g300
tp610
F0.010839020473705338
s(S'[[num]]'
p611
g151
tp612
F0.002007226013649137
s(S'film'
p613
S'featuring'
p614
tp615
F0.0016057808109193096
s(g337
S'[[con]]'
p616
tp617
F0.0008028904054596548
s(g390
S'film'
p618
tp619
F0.0008028904054596548
s(g614
S'[[con]]'
p620
tp621
F0.0004014452027298274
s(S'drama'
p622
S'thriller'
p623
tp624
F0.0004014452027298274
s(S'[[det]]'
p625
S'starring'
p626
tp627
F0.0004014452027298274
s(S'[[num]]'
p628
S'directed'
p629
tp630
F0.0004014452027298274
s(S'directed'
p631
S'produced'
p632
tp633
F0.0024086712163789645
s(S'[[adj]]'
p634
g584
tp635
F0.0012043356081894822
s(S'[[det]]'
p636
g444
tp637
F0.0024086712163789645
s(S'released'
p638
g482
tp639
F0.0004014452027298274
s(S'mystery'
p640
S'thriller'
p641
tp642
F0.0004014452027298274
s(S'directed'
p643
g13
tp644
F0.0004014452027298274
s(g126
g638
tp645
F0.0004014452027298274
s.