(dp0
(S'[[con]]'
p1
S'music'
p2
tp3
F0.04
s(S'music'
p4
S'[[con]]'
p5
tp6
F0.08
s(S'lyrics'
p7
S'by'
p8
tp9
F0.2
s(S'[[adj]]'
p10
S'music'
p11
tp12
F0.08
s(S'[[det]]'
p13
S'lyrics'
p14
tp15
F0.04
s(S'music'
p16
S'by'
p17
tp18
F0.2
s(S'[[adj]]'
p19
S'lyrics'
p20
tp21
F0.08
s(S'with'
p22
g16
tp23
F0.04
s(S'lyrics'
p24
g1
tp25
F0.04
s(g14
S'music'
p26
tp27
F0.04
s(S'[[con]]'
p28
g7
tp29
F0.12
s(S'with'
p30
S'lyrics'
p31
tp32
F0.04
s.