(dp0
(S'television'
p1
S'drama'
p2
tp3
F0.00041186161449752884
s(S'[[num]]'
p4
S'directed'
p5
tp6
F0.00041186161449752884
s(S'[[adj]]'
p7
S'adventure'
p8
tp9
F0.0008237232289950577
s(S'[[det]]'
p10
S'thriller'
p11
tp12
F0.0012355848434925864
s(S'thriller'
p13
S'directed'
p14
tp15
F0.0012355848434925864
s(S'gt'
p16
S'[[con]]'
p17
tp18
F0.00041186161449752884
s(S'with'
p19
S'[[det]]'
p20
tp21
F0.0016474464579901153
s(S'into'
p22
S'[[det]]'
p23
tp24
F0.00041186161449752884
s(S'comedy'
p25
S'horror'
p26
tp27
F0.00041186161449752884
s(S'by'
p28
S'[[con]]'
p29
tp30
F0.02059308072487644
s(S'made'
p31
S'by'
p32
tp33
F0.00041186161449752884
s(S'by'
p34
S'actor'
p35
tp36
F0.00041186161449752884
s(S'from'
p37
S'directed'
p38
tp39
F0.00041186161449752884
s(S'[[adj]]'
p40
S'cast'
p41
tp42
F0.00041186161449752884
s(S'[[adj]]'
p43
S'documentary'
p44
tp45
F0.00041186161449752884
s(S'adapted'
p46
S'[[num]]'
p47
tp48
F0.00041186161449752884
s(S'mystery'
p49
S'crime'
p50
tp51
F0.00041186161449752884
s(S'fantasy'
p52
S'adventure'
p53
tp54
F0.00041186161449752884
s(S'hosted'
p55
S'with'
p56
tp57
F0.00041186161449752884
s(S'adapted'
p58
S'into'
p59
tp60
F0.0008237232289950577
s(S'film'
p61
S'in'
p62
tp63
F0.00041186161449752884
s(S'hosted'
p64
S'[[con]]'
p65
tp66
F0.00041186161449752884
s(S'directed'
p67
S'that'
p68
tp69
F0.00041186161449752884
s(S'about'
p70
S'directed'
p71
tp72
F0.0008237232289950577
s(S'[[det]]'
p73
S'sports'
p74
tp75
F0.00041186161449752884
s(S'as'
p76
S'[[det]]'
p77
tp78
F0.00041186161449752884
s(S'[[con]]'
p79
S'starred'
p80
tp81
F0.00041186161449752884
s(S'directed'
p82
S'based'
p83
tp84
F0.0008237232289950577
s(S'feature'
p85
S'film'
p86
tp87
F0.006177924217462933
s(S'starring'
p88
S'with'
p89
tp90
F0.0008237232289950577
s(S'[[det]]'
p91
S'war'
p92
tp93
F0.00041186161449752884
s(S'show'
p94
S'hosted'
p95
tp96
F0.00041186161449752884
s(S'[[adj]]'
p97
S'[[con]]'
p98
tp99
F0.0008237232289950577
s(S'[[det]]'
p100
S'cult'
p101
tp102
F0.00041186161449752884
s(g83
S'by'
p103
tp104
F0.0012355848434925864
s(S'was'
p105
S'written'
p106
tp107
F0.0016474464579901153
s(S'[[adj]]'
p108
S'comedy'
p109
tp110
F0.012355848434925865
s(S'television'
p111
S'film'
p112
tp113
F0.0012355848434925864
s(S'was'
p114
S'released'
p115
tp116
F0.00041186161449752884
s(g68
S'starred'
p117
tp118
F0.00041186161449752884
s(S'edited'
p119
S'[[con]]'
p120
tp121
F0.00041186161449752884
s(S'comedy'
p122
S'crime'
p123
tp124
F0.00041186161449752884
s(S'film'
p125
S'of'
p126
tp127
F0.00041186161449752884
s(S'documentary'
p128
S'directed'
p129
tp130
F0.0008237232289950577
s(S'family'
p131
S'film'
p132
tp133
F0.0012355848434925864
s(S'[[det]]'
p134
S'adventure'
p135
tp136
F0.00041186161449752884
s(S'fantasy'
p137
S'film'
p138
tp139
F0.0016474464579901153
s(S'[[num]]'
p140
S'crime'
p141
tp142
F0.01029654036243822
s(S'[[num]]'
p143
S'comedydrama'
p144
tp145
F0.0037067545304777594
s(S'comedy'
p146
S'directed'
p147
tp148
F0.0016474464579901153
s(S'adapted'
p149
g76
tp150
F0.00041186161449752884
s(S'horror'
p151
S'film'
p152
tp153
F0.01070840197693575
s(S'[[num]]'
p154
S'road'
p155
tp156
F0.0008237232289950577
s(S'[[adj]]'
p157
S'crime'
p158
tp159
F0.002059308072487644
s(S'romance'
p160
S'film'
p161
tp162
F0.002471169686985173
s(S'was'
p163
g58
tp164
F0.0016474464579901153
s(S'film'
p165
S'[[con]]'
p166
tp167
F0.0008237232289950577
s(S'[[det]]'
p168
S'language'
p169
tp170
F0.0008237232289950577
s(S'hosted'
p171
S'by'
p172
tp173
F0.002883031301482702
s(S'[[con]]'
p174
S'featuring'
p175
tp176
F0.0032948929159802307
s(S'[[det]]'
p177
S'directed'
p178
tp179
F0.00041186161449752884
s(S'[[det]]'
p180
S'feature'
p181
tp182
F0.0016474464579901153
s(S'[[adj]]'
p183
S'film'
p184
tp185
F0.013179571663920923
s(S'film'
p186
S'written'
p187
tp188
F0.02512355848434926
s(S'[[con]]'
p189
S'action'
p190
tp191
F0.00041186161449752884
s(S'known'
p192
S'is'
p193
tp194
F0.004118616144975288
s(S'written'
p195
S'produced'
p196
tp197
F0.0008237232289950577
s(S'written'
p198
S'[[con]]'
p199
tp200
F0.030477759472817133
s(S'written'
p201
S'directed'
p202
tp203
F0.0016474464579901153
s(S'directed'
p204
S'at'
p205
tp206
F0.00041186161449752884
s(S'film'
p207
S'[[adj]]'
p208
tp209
F0.002059308072487644
s(S'produced'
p210
S'by'
p211
tp212
F0.006177924217462933
s(S'[[con]]'
p213
S'starring'
p214
tp215
F0.060955518945634266
s(S'produced'
p216
S'[[con]]'
p217
tp218
F0.005766062602965404
s(S'[[num]]'
p219
S'detective'
p220
tp221
F0.0008237232289950577
s(S'also'
p222
g192
tp223
F0.0037067545304777594
s(S'[[con]]'
p224
S'crime'
p225
tp226
F0.00041186161449752884
s(g109
S'film'
p227
tp228
F0.02759472817133443
s(S'edited'
p229
S'by'
p230
tp231
F0.00041186161449752884
s(S'film'
p232
S'that'
p233
tp234
F0.00041186161449752884
s(S'by'
p235
S'produced'
p236
tp237
F0.00041186161449752884
s(S'[[num]]'
p238
g85
tp239
F0.002883031301482702
s(S'action'
p240
S'thriller'
p241
tp242
F0.0016474464579901153
s(S'is'
p243
S'film'
p244
tp245
F0.00041186161449752884
s(S'action'
p246
S'written'
p247
tp248
F0.0008237232289950577
s(S'assassination'
p249
g189
tp250
F0.00041186161449752884
s(S'film'
p251
g31
tp252
F0.00041186161449752884
s(S'drama'
p253
S'film'
p254
tp255
F0.026771004942339374
s(g155
S'movie'
p256
tp257
F0.0008237232289950577
s(S'[[adj]]'
p258
S'action'
p259
tp260
F0.0016474464579901153
s(S'directed'
p261
S'as'
p262
tp263
F0.00041186161449752884
s(S'by'
p264
S'starring'
p265
tp266
F0.01400329489291598
s(S'comedy'
p267
S'action'
p268
tp269
F0.00041186161449752884
s(S'thriller'
p270
S'film'
p271
tp272
F0.014415156507413509
s(S'[[num]]'
p273
g240
tp274
F0.009884678747940691
s(S'thriller'
p275
S'written'
p276
tp277
F0.00041186161449752884
s(S'as'
p278
S'[[num]]'
p279
tp280
F0.00041186161449752884
s(S'was'
p281
S'hosted'
p282
tp283
F0.0016474464579901153
s(S'[[num]]'
p284
S'produced'
p285
tp286
F0.00041186161449752884
s(S'directed'
p287
S'which'
p288
tp289
F0.00041186161449752884
s(S'is'
p290
S'[[num]]'
p291
tp292
F0.005766062602965404
s(S'[[det]]'
p293
S'drama'
p294
tp295
F0.0012355848434925864
s(S'is'
p296
S'narrated'
p297
tp298
F0.0008237232289950577
s(g80
S'by'
p299
tp300
F0.00041186161449752884
s(S'was'
p301
S'directed'
p302
tp303
F0.002059308072487644
s(S'[[adj]]'
p304
S'fantasy'
p305
tp306
F0.00041186161449752884
s(S'written'
p307
S'by'
p308
tp309
F0.011532125205930808
s(S'released'
p310
S'starring'
p311
tp312
F0.0016474464579901153
s(S'film'
p313
g216
tp314
F0.004118616144975288
s(g152
g37
tp315
F0.0008237232289950577
s(S'family'
p316
S'comedy'
p317
tp318
F0.0008237232289950577
s(g193
S'[[adj]]'
p319
tp320
F0.0008237232289950577
s(g101
S'[[num]]'
p321
tp322
F0.00041186161449752884
s(S'[[det]]'
p323
S'gentleman'
p324
tp325
F0.00041186161449752884
s(S'film'
p326
S'noir'
p327
tp328
F0.0016474464579901153
s(S'[[con]]'
p329
S'based'
p330
tp331
F0.00041186161449752884
s(S'directed'
p332
S'starring'
p333
tp334
F0.013591433278418451
s(S'produced'
p335
S'with'
p336
tp337
F0.00041186161449752884
s(g74
S'drama'
p338
tp339
F0.00041186161449752884
s(S'[[con]]'
p340
S'stars'
p341
tp342
F0.002059308072487644
s(S'directed'
p343
S'about'
p344
tp345
F0.00041186161449752884
s(S'starring'
p346
S'directed'
p347
tp348
F0.0008237232289950577
s(S'[[num]]'
p349
S'mystery'
p350
tp351
F0.002883031301482702
s(S'[[adj]]'
p352
S'mystery'
p353
tp354
F0.00041186161449752884
s(S'produced'
p355
S'directed'
p356
tp357
F0.0012355848434925864
s(S'[[adj]]'
p358
S'horror'
p359
tp360
F0.002059308072487644
s(S'[[det]]'
p361
S'horror'
p362
tp363
F0.0012355848434925864
s(S'[[num]]'
p364
g111
tp365
F0.0016474464579901153
s(S'[[adj]]'
p366
g171
tp367
F0.00041186161449752884
s(S'film'
p368
S'comedy'
p369
tp370
F0.00041186161449752884
s(g214
S'[[con]]'
p371
tp372
F0.03459637561779242
s(S'documentary'
p373
S'film'
p374
tp375
F0.0032948929159802307
s(g291
S'film'
p376
tp377
F0.02182866556836903
s(S'released'
p378
S'is'
p379
tp380
F0.00041186161449752884
s(S'[[num]]'
p381
S'adventure'
p382
tp383
F0.002883031301482702
s(S'[[con]]'
p384
S'hosted'
p385
tp386
F0.00041186161449752884
s(g382
S'film'
p387
tp388
F0.004530477759472817
s(g233
g105
tp389
F0.00041186161449752884
s(S'drama'
p390
S'directed'
p391
tp392
F0.0016474464579901153
s(S'[[con]]'
p393
S'directed'
p394
tp395
F0.03418451400329489
s(S'is'
p396
S'directed'
p397
tp398
F0.0008237232289950577
s(S'[[det]]'
p399
S'script'
p400
tp401
F0.00041186161449752884
s(S'[[det]]'
p402
S'color'
p403
tp404
F0.0008237232289950577
s(S'[[num]]'
p405
S'language'
p406
tp407
F0.0016474464579901153
s(S'based'
p408
S'directed'
p409
tp410
F0.00041186161449752884
s(g126
S'directed'
p411
tp412
F0.00041186161449752884
s(S'[[num]]'
p413
S'fantasy'
p414
tp415
F0.002059308072487644
s(S'action'
p416
S'comedy'
p417
tp418
F0.002059308072487644
s(S'[[num]]'
p419
S'movie'
p420
tp421
F0.002471169686985173
s(S'[[num]]'
p422
g373
tp423
F0.002471169686985173
s(S'screenplay'
p424
S'written'
p425
tp426
F0.00041186161449752884
s(S'comedy'
p427
S'family'
p428
tp429
F0.00041186161449752884
s(g406
S'film'
p430
tp431
F0.002471169686985173
s(S'[[adj]]'
p432
S'directed'
p433
tp434
F0.0012355848434925864
s(S'[[det]]'
p435
S'crime'
p436
tp437
F0.00041186161449752884
s(S'mystery'
p438
S'film'
p439
tp440
F0.002883031301482702
s(S'crime'
p441
S'thriller'
p442
tp443
F0.0016474464579901153
s(S'[[num]]'
p444
g316
tp445
F0.002059308072487644
s(S'directed'
p446
g19
tp447
F0.002059308072487644
s(S'[[det]]'
p448
S'written'
p449
tp450
F0.00041186161449752884
s(S'comedy'
p451
g183
tp452
F0.002059308072487644
s(g59
S'[[num]]'
p453
tp454
F0.00041186161449752884
s(g227
S'directed'
p455
tp456
F0.10255354200988467
s(S'[[num]]'
p457
S'hosted'
p458
tp459
F0.0008237232289950577
s(g288
S'starred'
p460
tp461
F0.00041186161449752884
s(S'directed'
p462
S'written'
p463
tp464
F0.004530477759472817
s(S'[[adj]]'
p465
S'movie'
p466
tp467
F0.00041186161449752884
s(g414
S'action'
p468
tp469
F0.00041186161449752884
s(S'drama'
p470
S'[[adj]]'
p471
tp472
F0.0008237232289950577
s(S'[[con]]'
p473
g119
tp474
F0.0008237232289950577
s(S'is'
p475
S'hosted'
p476
tp477
F0.0008237232289950577
s(S'starring'
p478
S'[[det]]'
p479
tp480
F0.0008237232289950577
s(S'directed'
p481
S'by'
p482
tp483
F0.07948929159802307
s(S'created'
p484
S'[[con]]'
p485
tp486
F0.00041186161449752884
s(g468
S'film'
p487
tp488
F0.008237232289950576
s(g256
S'directed'
p489
tp490
F0.0032948929159802307
s(S'known'
p491
g278
tp492
F0.00041186161449752884
s(g327
S'starring'
p493
tp494
F0.00041186161449752884
s(S'in'
p495
S'[[num]]'
p496
tp497
F0.0008237232289950577
s(g420
S'[[con]]'
p498
tp499
F0.00041186161449752884
s(S'[[det]]'
p500
g128
tp501
F0.0012355848434925864
s(S'film'
p502
S'stars'
p503
tp504
F0.00041186161449752884
s(S'war'
p505
S'film'
p506
tp507
F0.002883031301482702
s(S'[[det]]'
p508
S'mystery'
p509
tp510
F0.00041186161449752884
s(g144
S'film'
p511
tp512
F0.006177924217462933
s(S'film'
p513
g408
tp514
F0.0008237232289950577
s(g297
S'by'
p515
tp516
F0.0012355848434925864
s(g141
S'drama'
p517
tp518
F0.0037067545304777594
s(g455
g213
tp519
F0.05313014827018122
s(S'[[con]]'
p520
g210
tp521
F0.005766062602965404
s(S'titled'
p522
S'is'
p523
tp524
F0.00041186161449752884
s(S'by'
p525
g502
tp526
F0.00041186161449752884
s(S'film'
p527
g70
tp528
F0.0008237232289950577
s(S'[[adj]]'
p529
S'written'
p530
tp531
F0.0008237232289950577
s(S'film'
p532
g114
tp533
F0.00041186161449752884
s(S'[[adj]]'
p534
S'drama'
p535
tp536
F0.009060955518945634
s(S'[[num]]'
p537
g146
tp538
F0.01400329489291598
s(g20
S'screenplay'
p539
tp540
F0.0008237232289950577
s(g41
S'comedydrama'
p541
tp542
F0.00041186161449752884
s(S'[[adj]]'
p543
S'romance'
p544
tp545
F0.00041186161449752884
s(S'[[det]]'
p546
S'film'
p547
tp548
F0.005354200988467875
s(S'article'
p549
g290
tp550
F0.00041186161449752884
s(g208
S'starring'
p551
tp552
F0.00041186161449752884
s(S'[[num]]'
p553
g151
tp554
F0.005354200988467875
s(S'[[det]]'
p555
g249
tp556
F0.00041186161449752884
s(S'comedy'
p557
S'written'
p558
tp559
F0.00041186161449752884
s(S'[[adj]]'
p560
S'feature'
p561
tp562
F0.0008237232289950577
s(S'movie'
p563
S'produced'
p564
tp565
F0.00041186161449752884
s(g496
S'starring'
p566
tp567
F0.0008237232289950577
s(S'comedy'
p568
S'drama'
p569
tp570
F0.0012355848434925864
s(S'film'
p571
g310
tp572
F0.0012355848434925864
s(S'starring'
p573
S'as'
p574
tp575
F0.0012355848434925864
s(g324
S'[[num]]'
p576
tp577
F0.00041186161449752884
s(S'[[adj]]'
p578
g270
tp579
F0.0032948929159802307
s(g517
g198
tp580
F0.00041186161449752884
s(g369
S'starring'
p581
tp582
F0.0008237232289950577
s(S'film'
p583
S'drama'
p584
tp585
F0.00041186161449752884
s(S'[[num]]'
p586
g253
tp587
F0.013591433278418451
s(S'[[num]]'
p588
S'thriller'
p589
tp590
F0.007413509060955519
s(S'from'
p591
S'written'
p592
tp593
F0.00041186161449752884
s(g158
S'film'
p594
tp595
F0.008649093904448105
s(S'arts'
p596
S'film'
p597
tp598
F0.0012355848434925864
s(S'family'
p599
S'adventure'
p600
tp601
F0.00041186161449752884
s(g430
S'starring'
p602
tp603
F0.03500823723228995
s(S'drama'
p604
S'starring'
p605
tp606
F0.00041186161449752884
s(S'film'
p607
S'is'
p608
tp609
F0.00041186161449752884
s(g166
S'[[adj]]'
p610
tp611
F0.00041186161449752884
s(S'aka'
p612
S'is'
p613
tp614
F0.0012355848434925864
s(g220
S'film'
p615
tp616
F0.0008237232289950577
s(S'[[num]]'
p617
g505
tp618
F0.002059308072487644
s(S'[[con]]'
p619
g307
tp620
F0.009884678747940691
s(S'[[num]]'
p621
g160
tp622
F0.002059308072487644
s(S'film'
p623
S'featuring'
p624
tp625
F0.0016474464579901153
s(g341
S'[[con]]'
p626
tp627
F0.0008237232289950577
s(g403
S'film'
p628
tp629
F0.0008237232289950577
s(g624
S'[[con]]'
p630
tp631
F0.00041186161449752884
s(S'drama'
p632
S'thriller'
p633
tp634
F0.00041186161449752884
s(S'[[det]]'
p635
S'starring'
p636
tp637
F0.00041186161449752884
s(S'noir'
p638
S'directed'
p639
tp640
F0.0012355848434925864
s(S'directed'
p641
S'produced'
p642
tp643
F0.0016474464579901153
s(S'[[adj]]'
p644
g596
tp645
F0.0012355848434925864
s(S'[[det]]'
p646
g451
tp647
F0.002471169686985173
s(S'released'
p648
g495
tp649
F0.00041186161449752884
s(g350
S'thriller'
p650
tp651
F0.00041186161449752884
s(S'directed'
p652
g16
tp653
F0.00041186161449752884
s(g135
g648
tp654
F0.00041186161449752884
s.