(dp0
(S'television'
p1
S'drama'
p2
tp3
F0.009708737864077669
s(S'also'
p4
S'airs'
p5
tp6
F0.0048543689320388345
s(S's'
p7
S'television'
p8
tp9
F0.0048543689320388345
s(S'shown'
p10
S'at'
p11
tp12
F0.019417475728155338
s(S'been'
p13
S'played'
p14
tp15
F0.0048543689320388345
s(S'screened'
p16
S'on'
p17
tp18
F0.0048543689320388345
s(S'played'
p19
S'between'
p20
tp21
F0.014563106796116505
s(S'that'
p22
S'aired'
p23
tp24
F0.009708737864077669
s(S'[[det]]'
p25
S'television'
p26
tp27
F0.019417475728155338
s(S'[[det]]'
p28
S'children'
p29
tp30
F0.0048543689320388345
s(S'be'
p31
S'broadcast'
p32
tp33
F0.0048543689320388345
s(S'[[adj]]'
p34
S'played'
p35
tp36
F0.0048543689320388345
s(S'[[det]]'
p37
S'sitcom'
p38
tp39
F0.0048543689320388345
s(S'airs'
p40
S'on'
p41
tp42
F0.009708737864077669
s(S'drama'
p43
S'television'
p44
tp45
F0.0048543689320388345
s(S'produced'
p46
S'in'
p47
tp48
F0.0048543689320388345
s(S'produced'
p49
S'with'
p50
tp51
F0.0048543689320388345
s(S'was'
p52
S'contested'
p53
tp54
F0.0048543689320388345
s(S'premiered'
p55
S'[[con]]'
p56
tp57
F0.0048543689320388345
s(S'[[adj]]'
p58
S'aired'
p59
tp60
F0.0048543689320388345
s(S'being'
p61
S'shown'
p62
tp63
F0.0048543689320388345
s(S'series'
p64
S'on'
p65
tp66
F0.0048543689320388345
s(S'played'
p67
S'on'
p68
tp69
F0.0048543689320388345
s(g2
S'series'
p70
tp71
F0.009708737864077669
s(S'be'
p72
S'produced'
p73
tp74
F0.0048543689320388345
s(S'broadcast'
p75
S'from'
p76
tp77
F0.0048543689320388345
s(S'produced'
p78
S'by'
p79
tp80
F0.06796116504854369
s(S'aired'
p81
S'on'
p82
tp83
F0.043689320388349516
s(S'was'
p84
S'shown'
p85
tp86
F0.014563106796116505
s(S'[[adj]]'
p87
g1
tp88
F0.014563106796116505
s(S'aired'
p89
S'by'
p90
tp91
F0.0048543689320388345
s(S'shown'
p92
S'on'
p93
tp94
F0.03398058252427184
s(S'series'
p95
S'between'
p96
tp97
F0.0048543689320388345
s(S'was'
p98
S'aired'
p99
tp100
F0.009708737864077669
s(S'[[adj]]'
p101
g95
tp102
F0.0048543689320388345
s(S'is'
p103
S'shown'
p104
tp105
F0.009708737864077669
s(S'[[adj]]'
p106
S'anime'
p107
tp108
F0.0048543689320388345
s(S'[[det]]'
p109
S'broadcast'
p110
tp111
F0.0048543689320388345
s(S'[[adj]]'
p112
S'broadcast'
p113
tp114
F0.0048543689320388345
s(S'played'
p115
S'in'
p116
tp117
F0.009708737864077669
s(S'is'
p118
S'aired'
p119
tp120
F0.0048543689320388345
s(S'[[num]]'
p121
S'produced'
p122
tp123
F0.0048543689320388345
s(S'[[det]]'
p124
g43
tp125
F0.009708737864077669
s(S'of'
p126
S'series'
p127
tp128
F0.0048543689320388345
s(S'shown'
p129
S'in'
p130
tp131
F0.009708737864077669
s(g38
S'that'
p132
tp133
F0.0048543689320388345
s(S'was'
p134
S'premiered'
p135
tp136
F0.0048543689320388345
s(S'produced'
p137
S'for'
p138
tp139
F0.009708737864077669
s(S'played'
p140
S'against'
p141
tp142
F0.0048543689320388345
s(S'[[det]]'
p143
S'produced'
p144
tp145
F0.009708737864077669
s(S'then'
p146
S'produced'
p147
tp148
F0.0048543689320388345
s(S'also'
p149
S'shown'
p150
tp151
F0.014563106796116505
s(S'is'
p152
S'played'
p153
tp154
F0.014563106796116505
s(S'premiered'
p155
S'on'
p156
tp157
F0.0048543689320388345
s(S'still'
p158
S'played'
p159
tp160
F0.0048543689320388345
s(S'played'
p161
S'with'
p162
tp163
F0.0048543689320388345
s(S'was'
p164
S'canceled'
p165
tp166
F0.009708737864077669
s(S'broadcast'
p167
S'with'
p168
tp169
F0.0048543689320388345
s(S'shown'
p170
S'[[con]]'
p171
tp172
F0.0048543689320388345
s(S'currently'
p173
S'airs'
p174
tp175
F0.0048543689320388345
s(S'[[num]]'
p176
g19
tp177
F0.0048543689320388345
s(S'series'
p178
S'against'
p179
tp180
F0.0048543689320388345
s(S'product'
p181
S'of'
p182
tp183
F0.0048543689320388345
s(S'[[num]]'
p184
S'television'
p185
tp186
F0.0048543689320388345
s(S'broadcast'
p187
S'by'
p188
tp189
F0.009708737864077669
s(S'also'
p190
S'produced'
p191
tp192
F0.009708737864077669
s(S'television'
p193
S'show'
p194
tp195
F0.0048543689320388345
s(g29
g7
tp196
F0.0048543689320388345
s(S'airing'
p197
S'on'
p198
tp199
F0.009708737864077669
s(S'canceled'
p200
S'by'
p201
tp202
F0.009708737864077669
s(S'produced'
p203
S'[[con]]'
p204
tp205
F0.009708737864077669
s(S'created'
p206
S'[[con]]'
p207
tp208
F0.0048543689320388345
s(S'show'
p209
S'aired'
p210
tp211
F0.0048543689320388345
s(S'[[det]]'
p212
S'defending'
p213
tp214
F0.0048543689320388345
s(g53
S'by'
p215
tp216
F0.0048543689320388345
s(S'drama'
p217
S'produced'
p218
tp219
F0.0048543689320388345
s(S'aired'
p220
S'[[adj]]'
p221
tp222
F0.0048543689320388345
s(S'broadcast'
p223
S'[[adj]]'
p224
tp225
F0.0048543689320388345
s(g213
S'champion'
p226
tp227
F0.0048543689320388345
s(S'began'
p228
S'airing'
p229
tp230
F0.0048543689320388345
s(S'also'
p231
S'broadcast'
p232
tp233
F0.009708737864077669
s(g14
S'at'
p234
tp235
F0.014563106796116505
s(g207
S'produced'
p236
tp237
F0.0048543689320388345
s(S'aired'
p238
S'[[det]]'
p239
tp240
F0.0048543689320388345
s(g26
S'series'
p241
tp242
F0.03398058252427184
s(S'broadcast'
p243
S'in'
p244
tp245
F0.0048543689320388345
s(S'also'
p246
S'aired'
p247
tp248
F0.0048543689320388345
s(S'[[det]]'
p249
g181
tp250
F0.0048543689320388345
s(S'[[con]]'
p251
g16
tp252
F0.0048543689320388345
s(S'first'
p253
S'aired'
p254
tp255
F0.014563106796116505
s(S'been'
p256
S'shown'
p257
tp258
F0.009708737864077669
s(S'series'
p259
g206
tp260
F0.0048543689320388345
s(g215
g212
tp261
F0.0048543689320388345
s(S'was'
p262
S'broadcast'
p263
tp264
F0.019417475728155338
s(S'is'
p265
S'broadcast'
p266
tp267
F0.019417475728155338
s(S'series'
p268
S'made'
p269
tp270
F0.0048543689320388345
s(g85
S'[[adj]]'
p271
tp272
F0.0048543689320388345
s(S'[[adj]]'
p273
g92
tp274
F0.009708737864077669
s(S'been'
p275
S'broadcast'
p276
tp277
F0.0048543689320388345
s(S'broadcast'
p278
S'on'
p279
tp280
F0.03398058252427184
s(g70
g78
tp281
F0.03398058252427184
s(g135
S'at'
p282
tp283
F0.0048543689320388345
s(g182
g106
tp284
F0.0048543689320388345
s(S'was'
p285
g137
tp286
F0.014563106796116505
s(S'is'
p287
S'produced'
p288
tp289
F0.009708737864077669
s(S'aired'
p290
S'in'
p291
tp292
F0.009708737864077669
s(S'was'
p293
g140
tp294
F0.024271844660194174
s.