(dp0
(S'in'
p1
S'won'
p2
tp3
F0.002044989775051125
s(S'novel'
p4
S'about'
p5
tp6
F0.002044989775051125
s(S'to'
p7
S'book'
p8
tp9
F0.002044989775051125
s(S'wrote'
p10
S'in'
p11
tp12
F0.006134969325153374
s(S'wrote'
p13
S'most'
p14
tp15
F0.002044989775051125
s(S's'
p16
S'book'
p17
tp18
F0.026584867075664622
s(S'from'
p19
S'gt'
p20
tp21
F0.002044989775051125
s(S'novel'
p22
S'by'
p23
tp24
F0.002044989775051125
s(S'won'
p25
S'[[adj]]'
p26
tp27
F0.002044989775051125
s(S'[[prp]]'
p28
S'novel'
p29
tp30
F0.00408997955010225
s(S'appearance'
p31
S'as'
p32
tp33
F0.002044989775051125
s(S'novel'
p34
S'in'
p35
tp36
F0.0081799591002045
s(S'[[adj]]'
p37
S'won'
p38
tp39
F0.00408997955010225
s(S'film'
p40
S'in'
p41
tp42
F0.002044989775051125
s(S'novel'
p43
S'[[num]]'
p44
tp45
F0.00408997955010225
s(S'won'
p46
S'[[prp]]'
p47
tp48
F0.010224948875255624
s(S'film'
p49
S'[[num]]'
p50
tp51
F0.0081799591002045
s(g16
S'[[con]]'
p52
tp53
F0.002044989775051125
s(S'worked'
p54
S'on'
p55
tp56
F0.002044989775051125
s(S'film'
p57
S'of'
p58
tp59
F0.010224948875255624
s(S'wrote'
p60
S'[[con]]'
p61
tp62
F0.00408997955010225
s(S'book'
p63
g16
tp64
F0.00408997955010225
s(S'[[det]]'
p65
S'novel'
p66
tp67
F0.002044989775051125
s(S'that'
p68
S'won'
p69
tp70
F0.006134969325153374
s(S'novel'
p71
S'as'
p72
tp73
F0.002044989775051125
s(S'then'
p74
S'wrote'
p75
tp76
F0.006134969325153374
s(S'book'
p77
S'at'
p78
tp79
F0.00408997955010225
s(S'has'
p80
g54
tp81
F0.002044989775051125
s(S'novel'
p82
S'which'
p83
tp84
F0.00408997955010225
s(g29
S'[[con]]'
p85
tp86
F0.010224948875255624
s(S'[[prp]]'
p87
S'appearance'
p88
tp89
F0.00408997955010225
s(S'also'
p90
g10
tp91
F0.02044989775051125
s(S'had'
p92
S'won'
p93
tp94
F0.016359918200409
s(S'film'
p95
S'with'
p96
tp97
F0.002044989775051125
s(S'[[adj]]'
p98
S'film'
p99
tp100
F0.018404907975460124
s(g16
S'film'
p101
tp102
F0.014314928425357873
s(S'[[num]]'
p103
S'book'
p104
tp105
F0.010224948875255624
s(S'wrote'
p106
S'on'
p107
tp108
F0.002044989775051125
s(S'also'
p109
S'won'
p110
tp111
F0.022494887525562373
s(S'[[pro]]'
p112
S'won'
p113
tp114
F0.00408997955010225
s(S'film'
p115
S'[[adj]]'
p116
tp117
F0.00408997955010225
s(S'novel'
p118
S'[[adj]]'
p119
tp120
F0.002044989775051125
s(S'film'
p121
S'[[con]]'
p122
tp123
F0.010224948875255624
s(S'to'
p124
S'film'
p125
tp126
F0.002044989775051125
s(S'[[num]]'
p127
S'novel'
p128
tp129
F0.010224948875255624
s(S'film'
p130
S'[[det]]'
p131
tp132
F0.010224948875255624
s(S'book'
p133
S'about'
p134
tp135
F0.006134969325153374
s(S'novel'
p136
S'[[det]]'
p137
tp138
F0.006134969325153374
s(S'wrote'
p139
S'from'
p140
tp141
F0.002044989775051125
s(S'novel'
p142
S'to'
p143
tp144
F0.002044989775051125
s(S'since'
p145
S'won'
p146
tp147
F0.002044989775051125
s(S'won'
p148
S'of'
p149
tp150
F0.00408997955010225
s(g16
g34
tp151
F0.022494887525562373
s(S'have'
p152
S'won'
p153
tp154
F0.002044989775051125
s(S'wrote'
p155
S'[[det]]'
p156
tp157
F0.010224948875255624
s(g55
S'[[det]]'
p158
tp159
F0.002044989775051125
s(S'book'
p160
S'on'
p161
tp162
F0.006134969325153374
s(S'film'
p163
S'for'
p164
tp165
F0.00408997955010225
s(S'won'
p166
S'as'
p167
tp168
F0.006134969325153374
s(S'book'
p169
S'[[det]]'
p170
tp171
F0.006134969325153374
s(S'won'
p172
S'for'
p173
tp174
F0.02044989775051125
s(g158
S'drama'
p175
tp176
F0.00408997955010225
s(S'book'
p177
S'to'
p178
tp179
F0.006134969325153374
s(S'[[adj]]'
p180
S'appearance'
p181
tp182
F0.010224948875255624
s(S'won'
p183
S'[[con]]'
p184
tp185
F0.016359918200409
s(S'appearance'
p186
S'in'
p187
tp188
F0.012269938650306749
s(S'wrote'
p189
g16
tp190
F0.00408997955010225
s(S'[[det]]'
p191
S'book'
p192
tp193
F0.0081799591002045
s(S'gt'
p194
S'[[adj]]'
p195
tp196
F0.002044989775051125
s(S'appearance'
p197
S'during'
p198
tp199
F0.00408997955010225
s(S'[[det]]'
p200
S'gt'
p201
tp202
F0.002044989775051125
s(S'for'
p203
S'film'
p204
tp205
F0.002044989775051125
s(S'in'
p206
S'novel'
p207
tp208
F0.002044989775051125
s(S'won'
p209
S'[[pro]]'
p210
tp211
F0.00408997955010225
s(S'then'
p212
S'won'
p213
tp214
F0.006134969325153374
s(S'gt'
p215
S'[[det]]'
p216
tp217
F0.002044989775051125
s(S'wrote'
p218
S'[[prp]]'
p219
tp220
F0.00408997955010225
s(S'wrote'
p221
S'as'
p222
tp223
F0.00408997955010225
s(S'won'
p224
S'[[num]]'
p225
tp226
F0.014314928425357873
s(S'[[prp]]'
p227
S'film'
p228
tp229
F0.002044989775051125
s(S'won'
p230
S'was'
p231
tp232
F0.002044989775051125
s(S'[[num]]'
p233
g49
tp234
F0.010224948875255624
s(S'first'
p235
S'won'
p236
tp237
F0.00408997955010225
s(S'won'
p238
S'twice'
p239
tp240
F0.006134969325153374
s(S'book'
p241
S'from'
p242
tp243
F0.002044989775051125
s(S'wrote'
p244
S'which'
p245
tp246
F0.002044989775051125
s(S'wrote'
p247
S'[[num]]'
p248
tp249
F0.00408997955010225
s(S'in'
p250
S'gt'
p251
tp252
F0.002044989775051125
s(S'novel'
p253
S'of'
p254
tp255
F0.0081799591002045
s(g16
S'won'
p256
tp257
F0.002044989775051125
s(S'book'
p258
S'[[adj]]'
p259
tp260
F0.00408997955010225
s(S'appearance'
p261
S'on'
p262
tp263
F0.010224948875255624
s(S'[[adj]]'
p264
g253
tp265
F0.016359918200409
s(S'film'
p266
S'as'
p267
tp268
F0.00408997955010225
s(S'where'
p269
S'won'
p270
tp271
F0.00408997955010225
s(S'[[det]]'
p272
S'wrote'
p273
tp274
F0.002044989775051125
s(S'[[adj]]'
p275
S'book'
p276
tp277
F0.022494887525562373
s(S'of'
p278
S'gt'
p279
tp280
F0.002044989775051125
s(S'[[num]]'
p281
g194
tp282
F0.00408997955010225
s(S'in'
p283
S'[[det]]'
p284
tp285
F0.002044989775051125
s(S'novel'
p286
S'with'
p287
tp288
F0.00408997955010225
s(S'[[adj]]'
p289
S'gt'
p290
tp291
F0.002044989775051125
s(S'[[con]]'
p292
S'won'
p293
tp294
F0.014314928425357873
s(S'twice'
p295
S'won'
p296
tp297
F0.006134969325153374
s(g16
S'gt'
p298
tp299
F0.002044989775051125
s(S'[[det]]'
p300
g121
tp301
F0.016359918200409
s(S'wrote'
p302
S'at'
p303
tp304
F0.002044989775051125
s(S'of'
p305
S'novel'
p306
tp307
F0.002044989775051125
s(S'gt'
p308
S'are'
p309
tp310
F0.002044989775051125
s(g93
S'at'
p311
tp312
F0.016359918200409
s(S'wrote'
p313
S'after'
p314
tp315
F0.002044989775051125
s(S'film'
p316
S'on'
p317
tp318
F0.002044989775051125
s(S'wrote'
p319
S'of'
p320
tp321
F0.002044989775051125
s(S'wrote'
p322
S'[[mod]]'
p323
tp324
F0.002044989775051125
s(S'who'
p325
g172
tp326
F0.00408997955010225
s(S'as'
p327
S'won'
p328
tp329
F0.002044989775051125
s(S'[[num]]'
p330
S'appearance'
p331
tp332
F0.002044989775051125
s(S'[[num]]'
p333
S'won'
p334
tp335
F0.006134969325153374
s(S'[[pro]]'
p336
S'book'
p337
tp338
F0.006134969325153374
s(S'has'
p339
S'won'
p340
tp341
F0.02044989775051125
s(S'[[prp]]'
p342
S'book'
p343
tp344
F0.0081799591002045
s(S'which'
p345
S'won'
p346
tp347
F0.012269938650306749
s(S'again'
p348
S'won'
p349
tp350
F0.002044989775051125
s(S'while'
p351
S'won'
p352
tp353
F0.002044989775051125
s(S'won'
p354
S'in'
p355
tp356
F0.012269938650306749
s(g276
S'in'
p357
tp358
F0.006134969325153374
s(S'appearance'
p359
S'of'
p360
tp361
F0.002044989775051125
s(S'appearance'
p362
S'at'
p363
tp364
F0.006134969325153374
s(g17
S'of'
p365
tp366
F0.012269938650306749
s(S'won'
p367
S'with'
p368
tp369
F0.002044989775051125
s(S'later'
p370
S'wrote'
p371
tp372
F0.0081799591002045
s(g16
g31
tp373
F0.010224948875255624
s(S'film'
p374
S'after'
p375
tp376
F0.00408997955010225
s(S'wrote'
p377
S'was'
p378
tp379
F0.002044989775051125
s(S'p'
p380
S'gt'
p381
tp382
F0.002044989775051125
s(S'already'
p383
S'won'
p384
tp385
F0.002044989775051125
s(S'won'
p386
S'on'
p387
tp388
F0.0081799591002045
s(S'with'
p389
S'won'
p390
tp391
F0.00408997955010225
s(S'[[con]]'
p392
S'wrote'
p393
tp394
F0.006134969325153374
s(S'appearance'
p395
S'[[con]]'
p396
tp397
F0.002044989775051125
s(g296
S'[[det]]'
p398
tp399
F0.05930470347648262
s(S'book'
p400
S'for'
p401
tp402
F0.00408997955010225
s(S'gt'
p403
S'in'
p404
tp405
F0.002044989775051125
s(S'gt'
p406
S'[[num]]'
p407
tp408
F0.002044989775051125
s(S'appearance'
p409
S'[[det]]'
p410
tp411
F0.002044989775051125
s(S'film'
p412
S'to'
p413
tp414
F0.002044989775051125
s(S'[[pro]]'
p415
S'gt'
p416
tp417
F0.002044989775051125
s(S'[[det]]'
p418
g409
tp419
F0.010224948875255624
s(g343
S'[[con]]'
p420
tp421
F0.010224948875255624
s(S'later'
p422
S'won'
p423
tp424
F0.006134969325153374
s(S'[[det]]'
p425
S'won'
p426
tp427
F0.00408997955010225
s(S'wrote'
p428
S'for'
p429
tp430
F0.012269938650306749
s(S'gt'
p431
S'to'
p432
tp433
F0.002044989775051125
s(S'where'
p434
g428
tp435
F0.002044989775051125
s(S'[[con]]'
p436
S'gt'
p437
tp438
F0.002044989775051125
s(S'when'
p439
S'won'
p440
tp441
F0.00408997955010225
s(S'book'
p442
S'[[num]]'
p443
tp444
F0.006134969325153374
s(S'after'
p445
S'won'
p446
tp447
F0.002044989775051125
s(S'never'
p448
g386
tp449
F0.00408997955010225
s.