(dp0
(S'commanded'
p1
S'by'
p2
tp3
F0.3333333333333333
s(S'was'
p4
S'commanded'
p5
tp6
F0.3333333333333333
s(S'consisted'
p7
S'[[con]]'
p8
tp9
F0.16666666666666666
s(S'consisted'
p10
S'of'
p11
tp12
F0.16666666666666666
s.