(dp0
(S'be'
p1
S'operated'
p2
tp3
F0.002544529262086514
s(S'home'
p4
S'[[num]]'
p5
tp6
F0.002544529262086514
s(S'built'
p7
S'up'
p8
tp9
F0.002544529262086514
s(S'formerly'
p10
S'operated'
p11
tp12
F0.002544529262086514
s(S'built'
p13
S'on'
p14
tp15
F0.002544529262086514
s(S'built'
p16
S'was'
p17
tp18
F0.002544529262086514
s(S'currently'
p19
S'home'
p20
tp21
F0.002544529262086514
s(S'[[con]]'
p22
S'operated'
p23
tp24
F0.022900763358778626
s(S'used'
p25
S'on'
p26
tp27
F0.007633587786259542
s(S'were'
p28
S'built'
p29
tp30
F0.002544529262086514
s(S'base'
p31
S'for'
p32
tp33
F0.005089058524173028
s(S'[[det]]'
p34
S'purchased'
p35
tp36
F0.002544529262086514
s(S'[[det]]'
p37
S'used'
p38
tp39
F0.002544529262086514
s(S'then'
p40
S'used'
p41
tp42
F0.002544529262086514
s(S'chartered'
p43
S'[[con]]'
p44
tp45
F0.002544529262086514
s(S'now'
p46
S'owned'
p47
tp48
F0.005089058524173028
s(S'operated'
p49
S'until'
p50
tp51
F0.002544529262086514
s(g29
S'for'
p52
tp53
F0.017811704834605598
s(S'ferry'
p54
S'operated'
p55
tp56
F0.005089058524173028
s(S'built'
p57
S'as'
p58
tp59
F0.005089058524173028
s(S'delivered'
p60
S'to'
p61
tp62
F0.002544529262086514
s(S'used'
p63
S'at'
p64
tp65
F0.002544529262086514
s(S'be'
p66
S'built'
p67
tp68
F0.005089058524173028
s(S'[[num]]'
p69
S'operated'
p70
tp71
F0.005089058524173028
s(S'purchased'
p72
S'[[det]]'
p73
tp74
F0.002544529262086514
s(S'also'
p75
S'owned'
p76
tp77
F0.002544529262086514
s(S'was'
p78
g57
tp79
F0.017811704834605598
s(S'image'
p80
S'is'
p81
tp82
F0.002544529262086514
s(S'[[adj]]'
p83
S'home'
p84
tp85
F0.01272264631043257
s(S'service'
p86
S'with'
p87
tp88
F0.002544529262086514
s(S'chartered'
p89
S'to'
p90
tp91
F0.005089058524173028
s(S'being'
p92
S'sold'
p93
tp94
F0.005089058524173028
s(S'home'
p95
S'when'
p96
tp97
F0.002544529262086514
s(S'built'
p98
S'at'
p99
tp100
F0.002544529262086514
s(S'owned'
p101
g22
tp102
F0.02544529262086514
s(S'now'
p103
S'used'
p104
tp105
F0.002544529262086514
s(S'are'
p106
S'operated'
p107
tp108
F0.002544529262086514
s(S'was'
p109
S'operated'
p110
tp111
F0.002544529262086514
s(S'ship'
p112
g101
tp113
F0.007633587786259542
s(S'built'
p114
S'around'
p115
tp116
F0.002544529262086514
s(S'[[con]]'
p117
S'is'
p118
tp119
F0.002544529262086514
s(S'operated'
p120
S'with'
p121
tp122
F0.010178117048346057
s(S'now'
p123
S'operated'
p124
tp125
F0.002544529262086514
s(S'been'
p126
S'home'
p127
tp128
F0.002544529262086514
s(S'[[con]]'
p129
S'owned'
p130
tp131
F0.002544529262086514
s(S'[[adj]]'
p132
S'built'
p133
tp134
F0.005089058524173028
s(S'purchased'
p135
S'by'
p136
tp137
F0.010178117048346057
s(S'was'
p138
g43
tp139
F0.007633587786259542
s(S'sold'
p140
S'in'
p141
tp142
F0.010178117048346057
s(S'owned'
p143
S'by'
p144
tp145
F0.04071246819338423
s(S'formerly'
p146
S'owned'
p147
tp148
F0.002544529262086514
s(S'then'
p149
g135
tp150
F0.002544529262086514
s(S'still'
p151
S'owned'
p152
tp153
F0.002544529262086514
s(S'is'
p154
S'sold'
p155
tp156
F0.002544529262086514
s(S'[[det]]'
p157
S'home'
p158
tp159
F0.017811704834605598
s(S'home'
p160
S'of'
p161
tp162
F0.01272264631043257
s(S'[[con]]'
p163
S'was'
p164
tp165
F0.002544529262086514
s(S'are'
p166
S'sold'
p167
tp168
F0.002544529262086514
s(S'currently'
p169
S'owned'
p170
tp171
F0.005089058524173028
s(S'purchased'
p172
S'for'
p173
tp174
F0.002544529262086514
s(S'currently'
p175
S'operated'
p176
tp177
F0.002544529262086514
s(S'still'
p178
S'used'
p179
tp180
F0.002544529262086514
s(S'[[adj]]'
p181
S'sold'
p182
tp183
F0.005089058524173028
s(S'[[con]]'
p184
S'built'
p185
tp186
F0.002544529262086514
s(S'service'
p187
S'for'
p188
tp189
F0.002544529262086514
s(S'[[adj]]'
p190
g54
tp191
F0.005089058524173028
s(S'image'
p192
S'operated'
p193
tp194
F0.002544529262086514
s(S'been'
p195
S'sold'
p196
tp197
F0.002544529262086514
s(S'been'
p198
S'owned'
p199
tp200
F0.005089058524173028
s(S'operated'
p201
S'on'
p202
tp203
F0.002544529262086514
s(S'was'
p204
S'entered'
p205
tp206
F0.002544529262086514
s(S'entered'
p207
g187
tp208
F0.007633587786259542
s(S'home'
p209
S'[[con]]'
p210
tp211
F0.007633587786259542
s(S'handed'
p212
S'over'
p213
tp214
F0.002544529262086514
s(S'been'
p215
S'built'
p216
tp217
F0.002544529262086514
s(S'transferred'
p218
S'to'
p219
tp220
F0.002544529262086514
s(S'name'
p221
S'used'
p222
tp223
F0.002544529262086514
s(S'also'
p224
S'used'
p225
tp226
F0.005089058524173028
s(S'was'
p227
S'owned'
p228
tp229
F0.005089058524173028
s(S'ship'
p230
g80
tp231
F0.005089058524173028
s(g155
S'by'
p232
tp233
F0.01272264631043257
s(S'built'
p234
S'[[con]]'
p235
tp236
F0.002544529262086514
s(S'[[det]]'
p237
S'base'
p238
tp239
F0.007633587786259542
s(S'also'
p240
S'built'
p241
tp242
F0.002544529262086514
s(S'is'
p243
S'built'
p244
tp245
F0.007633587786259542
s(S'be'
p246
S'used'
p247
tp248
F0.005089058524173028
s(g164
g218
tp249
F0.002544529262086514
s(S'later'
p250
S'used'
p251
tp252
F0.002544529262086514
s(S'sold'
p253
S'[[con]]'
p254
tp255
F0.002544529262086514
s(S'became'
p256
S'home'
p257
tp258
F0.002544529262086514
s(S'used'
p259
S'with'
p260
tp261
F0.002544529262086514
s(S'sold'
p262
S'[[adj]]'
p263
tp264
F0.002544529262086514
s(S'was'
p265
g160
tp266
F0.010178117048346057
s(S'built'
p267
S'by'
p268
tp269
F0.020356234096692113
s(S'being'
p270
S'used'
p271
tp272
F0.002544529262086514
s(S'built'
p273
S'after'
p274
tp275
F0.002544529262086514
s(S'was'
p276
g172
tp277
F0.007633587786259542
s(S'was'
p278
S'used'
p279
tp280
F0.01272264631043257
s(S'also'
p281
S'home'
p282
tp283
F0.002544529262086514
s(S'ferry'
p284
S'owned'
p285
tp286
F0.005089058524173028
s(S'built'
p287
S'with'
p288
tp289
F0.002544529262086514
s(S'built'
p290
S'in'
p291
tp292
F0.002544529262086514
s(S'sold'
p293
S'[[det]]'
p294
tp295
F0.002544529262086514
s(S'handed'
p296
S'to'
p297
tp298
F0.002544529262086514
s(S'only'
p299
S'used'
p300
tp301
F0.002544529262086514
s(S'used'
p302
S'[[con]]'
p303
tp304
F0.002544529262086514
s(g84
S'for'
p305
tp306
F0.005089058524173028
s(S'is'
p307
g120
tp308
F0.017811704834605598
s(S'class'
p309
S'cruise'
p310
tp311
F0.002544529262086514
s(S'used'
p312
S'for'
p313
tp314
F0.002544529262086514
s(S'is'
p315
g25
tp316
F0.007633587786259542
s(S'[[det]]'
p317
g267
tp318
F0.007633587786259542
s(S'were'
p319
S'sold'
p320
tp321
F0.005089058524173028
s(S'be'
p322
S'home'
p323
tp324
F0.002544529262086514
s(S'sold'
p325
S'to'
p326
tp327
F0.010178117048346057
s(S'[[det]]'
p328
g309
tp329
F0.002544529262086514
s(S'were'
p330
S'purchased'
p331
tp332
F0.002544529262086514
s(S'[[num]]'
p333
S'used'
p334
tp335
F0.002544529262086514
s(S'been'
p336
g312
tp337
F0.007633587786259542
s(S'not'
p338
S'owned'
p339
tp340
F0.002544529262086514
s(S'ship'
p341
S'for'
p342
tp343
F0.002544529262086514
s(S'was'
p344
S'handed'
p345
tp346
F0.007633587786259542
s(S'when'
p347
S'purchased'
p348
tp349
F0.002544529262086514
s(S'mainly'
p350
S'used'
p351
tp352
F0.002544529262086514
s(S'[[det]]'
p353
S'operated'
p354
tp355
F0.005089058524173028
s(S'are'
p356
S'owned'
p357
tp358
F0.002544529262086514
s(S'ship'
p359
S'operated'
p360
tp361
F0.002544529262086514
s(S'base'
p362
S'of'
p363
tp364
F0.005089058524173028
s(S'cruise'
p365
g359
tp366
F0.015267175572519083
s(S'sold'
p367
S'most'
p368
tp369
F0.002544529262086514
s(S'[[num]]'
p370
S'built'
p371
tp372
F0.005089058524173028
s(S'later'
p373
S'purchased'
p374
tp375
F0.002544529262086514
s(S'[[con]]'
p376
S'used'
p377
tp378
F0.002544529262086514
s(S'sold'
p379
S'for'
p380
tp381
F0.002544529262086514
s(S'operated'
p382
S'under'
p383
tp384
F0.002544529262086514
s(S'used'
p385
S'from'
p386
tp387
F0.002544529262086514
s(S'owned'
p388
S'[[num]]'
p389
tp390
F0.002544529262086514
s(g360
S'by'
p391
tp392
F0.06361323155216285
s(S'also'
p393
g262
tp394
F0.005089058524173028
s(S'[[det]]'
p395
S'sold'
p396
tp397
F0.002544529262086514
s(S'used'
p398
S'as'
p399
tp400
F0.002544529262086514
s(S'be'
p401
g140
tp402
F0.007633587786259542
s(S'[[det]]'
p403
g365
tp404
F0.01272264631043257
s(S'home'
p405
S'[[det]]'
p406
tp407
F0.010178117048346057
s(S'home'
p408
S'to'
p409
tp410
F0.022900763358778626
s(S's'
p411
S'home'
p412
tp413
F0.002544529262086514
s(S'[[adj]]'
p414
g31
tp415
F0.007633587786259542
s(S'[[adj]]'
p416
S'operated'
p417
tp418
F0.002544529262086514
s(S'currently'
p419
S'used'
p420
tp421
F0.002544529262086514
s(S'also'
p422
S'operated'
p423
tp424
F0.002544529262086514
s(S'was'
p425
g60
tp426
F0.002544529262086514
s(g247
S'by'
p427
tp428
F0.04580152671755725
s(g320
S'off'
p429
tp430
F0.005089058524173028
s(S'chartered'
p431
S'by'
p432
tp433
F0.005089058524173028
s(g205
g163
tp434
F0.002544529262086514
s(S'now'
p435
S'home'
p436
tp437
F0.002544529262086514
s(S'been'
p438
S'operated'
p439
tp440
F0.002544529262086514
s(S'is'
p441
S'home'
p442
tp443
F0.007633587786259542
s(S'not'
p444
S'used'
p445
tp446
F0.002544529262086514
s(S'is'
p447
S'owned'
p448
tp449
F0.017811704834605598
s(S'[[det]]'
p450
S'owned'
p451
tp452
F0.007633587786259542
s(S'operated'
p453
S'[[con]]'
p454
tp455
F0.005089058524173028
s(S'was'
p456
g379
tp457
F0.017811704834605598
s(S'once'
p458
S'used'
p459
tp460
F0.002544529262086514
s(S'[[det]]'
p461
S'ferry'
p462
tp463
F0.005089058524173028
s(S'had'
p464
g72
tp465
F0.002544529262086514
s.