(dp0
(S'[[mod]]'
p1
S'join'
p2
tp3
F0.004780114722753346
s(S'joined'
p4
S'then'
p5
tp6
F0.0019120458891013384
s(S'left'
p7
S'for'
p8
tp9
F0.004780114722753346
s(S'[[det]]'
p10
S'issue'
p11
tp12
F0.0009560229445506692
s(S'was'
p13
S'elected'
p14
tp15
F0.03441682600382409
s(S'head'
p16
S'[[det]]'
p17
tp18
F0.0057361376673040155
s(S'left'
p19
S'as'
p20
tp21
F0.0009560229445506692
s(S'was'
p22
S'member'
p23
tp24
F0.006692160611854685
s(S'appointed'
p25
S'first'
p26
tp27
F0.0009560229445506692
s(S'when'
p28
S'served'
p29
tp30
F0.0009560229445506692
s(S'joined'
p31
S'now'
p32
tp33
F0.0009560229445506692
s(S'[[det]]'
p34
S'head'
p35
tp36
F0.0057361376673040155
s(S'of'
p37
S'member'
p38
tp39
F0.0009560229445506692
s(S'served'
p40
S'later'
p41
tp42
F0.0009560229445506692
s(S'until'
p43
S'joined'
p44
tp45
F0.0019120458891013384
s(S'prevent'
p46
g10
tp47
F0.0009560229445506692
s(S'left'
p48
S'with'
p49
tp50
F0.0009560229445506692
s(S'served'
p51
S'as'
p52
tp53
F0.009560229445506692
s(S'[[con]]'
p54
S'joined'
p55
tp56
F0.0057361376673040155
s(S'also'
p57
S'elected'
p58
tp59
F0.0019120458891013384
s(S'joined'
p60
S'was'
p61
tp62
F0.0009560229445506692
s(S'joined'
p63
S'[[pro]]'
p64
tp65
F0.0009560229445506692
s(S'is'
p66
S'elected'
p67
tp68
F0.0009560229445506692
s(S'became'
p69
S'member'
p70
tp71
F0.0028680688336520078
s(S'[[det]]'
p72
S'member'
p73
tp74
F0.040152963671128104
s(S'to'
p75
S'join'
p76
tp77
F0.0057361376673040155
s(S'before'
p78
S'joined'
p79
tp80
F0.0009560229445506692
s(S'left'
p81
S'go'
p82
tp83
F0.0009560229445506692
s(S'as'
p84
S'[[det]]'
p85
tp86
F0.0076481835564053535
s(S'just'
p87
S'left'
p88
tp89
F0.0019120458891013384
s(S'left'
p90
S'because'
p91
tp92
F0.0009560229445506692
s(S'joined'
p93
S'who'
p94
tp95
F0.0009560229445506692
s(S'left'
p96
S'[[adj]]'
p97
tp98
F0.0019120458891013384
s(S'member'
p99
S's'
p100
tp101
F0.0009560229445506692
s(S'also'
p102
S'led'
p103
tp104
F0.0028680688336520078
s(S'later'
p105
S'joined'
p106
tp107
F0.0038240917782026767
s(S'joined'
p108
S'which'
p109
tp110
F0.0009560229445506692
s(S'member'
p111
S'to'
p112
tp113
F0.0009560229445506692
s(S'[[det]]'
p114
S'left'
p115
tp116
F0.0019120458891013384
s(S'later'
p117
S'elected'
p118
tp119
F0.0009560229445506692
s(S'[[num]]'
p120
S'led'
p121
tp122
F0.0009560229445506692
s(S'served'
p123
S'first'
p124
tp125
F0.0009560229445506692
s(S'was'
p126
S'leader'
p127
tp128
F0.0028680688336520078
s(S'[[con]]'
p129
g117
tp130
F0.0009560229445506692
s(S'as'
p131
S'led'
p132
tp133
F0.0009560229445506692
s(S'led'
p134
S'[[prp]]'
p135
tp136
F0.0009560229445506692
s(S'left'
p137
S'to'
p138
tp139
F0.0038240917782026767
s(S'led'
p140
S'at'
p141
tp142
F0.0019120458891013384
s(S'formerly'
p143
S'served'
p144
tp145
F0.0038240917782026767
s(S'first'
p146
S'joined'
p147
tp148
F0.0028680688336520078
s(S'served'
p149
S'on'
p150
tp151
F0.008604206500956023
s(S'to'
p152
S'serve'
p153
tp154
F0.0009560229445506692
s(S'join'
p155
S'at'
p156
tp157
F0.0019120458891013384
s(S'appointed'
p158
S'as'
p159
tp160
F0.006692160611854685
s(S'[[con]]'
p161
S'served'
p162
tp163
F0.0057361376673040155
s(S'appointed'
p164
S'[[prp]]'
p165
tp166
F0.0009560229445506692
s(S'who'
p167
S'joined'
p168
tp169
F0.0028680688336520078
s(S'elected'
p170
g84
tp171
F0.0124282982791587
s(S'joined'
p172
S'when'
p173
tp174
F0.0009560229445506692
s(S'head'
p175
S'for'
p176
tp177
F0.0019120458891013384
s(S'was'
p178
S'head'
p179
tp180
F0.006692160611854685
s(S'bid'
p181
S'to'
p182
tp183
F0.0028680688336520078
s(S'[[adj]]'
p184
S'joined'
p185
tp186
F0.0019120458891013384
s(S'joined'
p187
S'[[prp]]'
p188
tp189
F0.0009560229445506692
s(S'joined'
p190
S'with'
p191
tp192
F0.0009560229445506692
s(S'joined'
p193
g100
tp194
F0.0009560229445506692
s(S'been'
p195
S'appointed'
p196
tp197
F0.006692160611854685
s(S'since'
p198
S'left'
p199
tp200
F0.0019120458891013384
s(S'served'
p201
S'[[con]]'
p202
tp203
F0.004780114722753346
s(S'[[adj]]'
p204
S'leader'
p205
tp206
F0.0038240917782026767
s(S'joined'
p207
S'at'
p208
tp209
F0.0038240917782026767
s(S'appointed'
p210
S'at'
p211
tp212
F0.008604206500956023
s(g100
S'bid'
p213
tp214
F0.0009560229445506692
s(S'appointed'
p215
S'for'
p216
tp217
F0.0028680688336520078
s(S'leader'
p218
S'to'
p219
tp220
F0.0009560229445506692
s(S'[[pro]]'
p221
S'served'
p222
tp223
F0.0009560229445506692
s(S'then'
p224
S'head'
p225
tp226
F0.0009560229445506692
s(S'then'
p227
S'served'
p228
tp229
F0.0076481835564053535
s(S'member'
p230
S'of'
p231
tp232
F0.027724665391969407
s(S'leader'
p233
S'of'
p234
tp235
F0.011472275334608031
s(S'had'
p236
S'led'
p237
tp238
F0.0019120458891013384
s(S'to'
p239
g46
tp240
F0.0009560229445506692
s(g153
S'as'
p241
tp242
F0.0009560229445506692
s(S'who'
p243
S'left'
p244
tp245
F0.0009560229445506692
s(S'also'
p246
S'served'
p247
tp248
F0.014340344168260038
s(S'member'
p249
S'during'
p250
tp251
F0.0009560229445506692
s(S'left'
p252
S'while'
p253
tp254
F0.0009560229445506692
s(S'head'
p255
S'to'
p256
tp257
F0.0019120458891013384
s(S'of'
p258
S'served'
p259
tp260
F0.0009560229445506692
s(S'member'
p261
S'when'
p262
tp263
F0.0009560229445506692
s(S'that'
p264
g140
tp265
F0.0019120458891013384
s(S'[[con]]'
p266
S'led'
p267
tp268
F0.0028680688336520078
s(S'who'
p269
S'served'
p270
tp271
F0.0038240917782026767
s(g35
S'in'
p272
tp273
F0.0009560229445506692
s(S'also'
p274
S'appointed'
p275
tp276
F0.0076481835564053535
s(S'head'
p277
S'at'
p278
tp279
F0.008604206500956023
s(S'[[con]]'
p280
S'leader'
p281
tp282
F0.0009560229445506692
s(S'became'
p283
S'head'
p284
tp285
F0.004780114722753346
s(S'[[con]]'
p286
S'head'
p287
tp288
F0.0009560229445506692
s(S'left'
p289
S'when'
p290
tp291
F0.0009560229445506692
s(S'[[adj]]'
p292
S'served'
p293
tp294
F0.0038240917782026767
s(S'member'
p295
S'has'
p296
tp297
F0.0009560229445506692
s(S'member'
p298
S'at'
p299
tp300
F0.004780114722753346
s(S'left'
p301
S'[[con]]'
p302
tp303
F0.0038240917782026767
s(S'lead'
p304
S'in'
p305
tp306
F0.0009560229445506692
s(S'is'
p307
S'appointed'
p308
tp309
F0.0038240917782026767
s(S'so'
p310
S'left'
p311
tp312
F0.0009560229445506692
s(S'left'
p313
S'is'
p314
tp315
F0.0009560229445506692
s(S'[[det]]'
p316
S'judge'
p317
tp318
F0.0009560229445506692
s(S'become'
p319
S'leader'
p320
tp321
F0.0009560229445506692
s(S'join'
p322
S'[[det]]'
p323
tp324
F0.0028680688336520078
s(S'later'
p325
S'join'
p326
tp327
F0.0009560229445506692
s(S'appointed'
p328
S'[[num]]'
p329
tp330
F0.0019120458891013384
s(S'[[con]]'
p331
S'was'
p332
tp333
F0.0038240917782026767
s(S'[[num]]'
p334
S'left'
p335
tp336
F0.0009560229445506692
s(S'joined'
p337
S'from'
p338
tp339
F0.0038240917782026767
s(S'appointed'
p340
S'[[det]]'
p341
tp342
F0.0038240917782026767
s(S'led'
p343
S'was'
p344
tp345
F0.0009560229445506692
s(S'[[det]]'
p346
S'join'
p347
tp348
F0.0009560229445506692
s(g275
S'on'
p349
tp350
F0.0019120458891013384
s(S'[[pro]]'
p351
S'joined'
p352
tp353
F0.0009560229445506692
s(S'had'
p354
S'appointed'
p355
tp356
F0.0009560229445506692
s(S'appointed'
p357
S'[[con]]'
p358
tp359
F0.0038240917782026767
s(S'also'
p360
S'joined'
p361
tp362
F0.0009560229445506692
s(S'joined'
p363
S'before'
p364
tp365
F0.0009560229445506692
s(S'member'
p366
S'as'
p367
tp368
F0.0019120458891013384
s(S'served'
p369
S'[[det]]'
p370
tp371
F0.0057361376673040155
s(S'of'
p372
S'joined'
p373
tp374
F0.0009560229445506692
s(S'[[adj]]'
p375
g16
tp376
F0.004780114722753346
s(S'led'
p377
S'[[det]]'
p378
tp379
F0.014340344168260038
s(S'[[det]]'
p380
S'matter'
p381
tp382
F0.0009560229445506692
s(g144
S'to'
p383
tp384
F0.0057361376673040155
s(S'had'
p385
S'joined'
p386
tp387
F0.004780114722753346
s(S'has'
p388
S'left'
p389
tp390
F0.0028680688336520078
s(S'appointed'
p391
S'before'
p392
tp393
F0.0009560229445506692
s(g73
S'until'
p394
tp395
F0.0009560229445506692
s(S'leader'
p396
S'at'
p397
tp398
F0.0019120458891013384
s(S'as'
p399
S'[[adj]]'
p400
tp401
F0.0019120458891013384
s(S'nominated'
p402
g152
tp403
F0.0009560229445506692
s(S'member'
p404
S'which'
p405
tp406
F0.0009560229445506692
s(S'when'
p407
S'led'
p408
tp409
F0.0009560229445506692
s(S'being'
p410
S'appointed'
p411
tp412
F0.0038240917782026767
s(S'first'
p413
S'served'
p414
tp415
F0.0019120458891013384
s(S'again'
p416
S'appointed'
p417
tp418
F0.0019120458891013384
s(S'[[det]]'
p419
S'served'
p420
tp421
F0.0019120458891013384
s(g381
g239
tp422
F0.0009560229445506692
s(S'served'
p423
S'with'
p424
tp425
F0.011472275334608031
s(g317
S'of'
p426
tp427
F0.0009560229445506692
s(S'led'
p428
S'into'
p429
tp430
F0.0009560229445506692
s(S'while'
p431
S'joined'
p432
tp433
F0.0009560229445506692
s(S'joined'
p434
S'[[con]]'
p435
tp436
F0.0028680688336520078
s(S'[[det]]'
p437
S'elected'
p438
tp439
F0.0038240917782026767
s(g14
S'[[det]]'
p440
tp441
F0.014340344168260038
s(S'member'
p442
S'from'
p443
tp444
F0.0019120458891013384
s(S'is'
p445
S'member'
p446
tp447
F0.0028680688336520078
s(S'led'
p448
S'to'
p449
tp450
F0.0009560229445506692
s(S'later'
p451
S'appointed'
p452
tp453
F0.004780114722753346
s(S'joined'
p454
S'for'
p455
tp456
F0.0009560229445506692
s(S'as'
p457
S'member'
p458
tp459
F0.0028680688336520078
s(S'joined'
p460
S'[[det]]'
p461
tp462
F0.021032504780114723
s(S'member'
p463
S'[[adj]]'
p464
tp465
F0.0019120458891013384
s(S'appointed'
p466
S'[[adj]]'
p467
tp468
F0.0019120458891013384
s(S'joined'
p469
S'de'
p470
tp471
F0.0009560229445506692
s(S'be'
p472
S'appointed'
p473
tp474
F0.0028680688336520078
s(S'leader'
p475
S'for'
p476
tp477
F0.0019120458891013384
s(S'instead'
p478
S'appointed'
p479
tp480
F0.0009560229445506692
s(S'member'
p481
S'who'
p482
tp483
F0.0009560229445506692
s(S'soon'
p484
S'left'
p485
tp486
F0.0019120458891013384
s(S'again'
p487
S'served'
p488
tp489
F0.0019120458891013384
s(S'served'
p490
S'from'
p491
tp492
F0.0019120458891013384
s(S'then'
p493
S'joined'
p494
tp495
F0.010516252390057362
s(S'has'
p496
g51
tp497
F0.01338432122370937
s(S'led'
p498
S'[[con]]'
p499
tp500
F0.0009560229445506692
s(S'again'
p501
S'led'
p502
tp503
F0.0019120458891013384
s(S'elected'
p504
S'to'
p505
tp506
F0.0038240917782026767
s(S'which'
p507
S'led'
p508
tp509
F0.0019120458891013384
s(S'served'
p510
S'[[adj]]'
p511
tp512
F0.0038240917782026767
s(S'has'
p513
S'led'
p514
tp515
F0.0009560229445506692
s(S'joined'
p516
S'side'
p517
tp518
F0.0028680688336520078
s(g440
S'[[adj]]'
p519
tp520
F0.0028680688336520078
s(S'had'
p521
g7
tp522
F0.004780114722753346
s(g293
S'at'
p523
tp524
F0.008604206500956023
s(S'joined'
p525
S'[[num]]'
p526
tp527
F0.0019120458891013384
s(g247
S'of'
p528
tp529
F0.0019120458891013384
s(S'have'
p530
S'left'
p531
tp532
F0.0009560229445506692
s(S'served'
p533
S'then'
p534
tp535
F0.0009560229445506692
s(S'served'
p536
S'until'
p537
tp538
F0.0019120458891013384
s(S'have'
p539
S'served'
p540
tp541
F0.0009560229445506692
s(S'joined'
p542
S'in'
p543
tp544
F0.0009560229445506692
s(S'as'
p545
S'head'
p546
tp547
F0.0009560229445506692
s(g494
S'on'
p548
tp549
F0.0028680688336520078
s(S'[[det]]'
p550
g396
tp551
F0.008604206500956023
s(S'never'
p552
S'left'
p553
tp554
F0.0009560229445506692
s(S'[[con]]'
p555
g158
tp556
F0.0038240917782026767
s(S'made'
p557
S'head'
p558
tp559
F0.0019120458891013384
s(S'member'
p560
S'[[det]]'
p561
tp562
F0.0124282982791587
s(S'[[adj]]'
p563
S'elected'
p564
tp565
F0.0009560229445506692
s(S'as'
p566
g233
tp567
F0.0019120458891013384
s(S'joined'
p568
S'that'
p569
tp570
F0.0009560229445506692
s(g182
g304
tp571
F0.0028680688336520078
s(S'also'
p572
S'member'
p573
tp574
F0.0019120458891013384
s(S'left'
p575
S'take'
p576
tp577
F0.0009560229445506692
s(S'served'
p578
S'now'
p579
tp580
F0.0009560229445506692
s(S'joined'
p581
S'after'
p582
tp583
F0.0009560229445506692
s(S'left'
p584
S'[[det]]'
p585
tp586
F0.011472275334608031
s(S'left'
p587
S'[[num]]'
p588
tp589
F0.0009560229445506692
s(S'led'
p590
S'over'
p591
tp592
F0.0009560229445506692
s(S'soon'
p593
S'joined'
p594
tp595
F0.0019120458891013384
s(S'left'
p596
g100
tp597
F0.0009560229445506692
s(S'served'
p598
S'before'
p599
tp600
F0.0028680688336520078
s(S'when'
p601
S'joined'
p602
tp603
F0.0019120458891013384
s(g162
S'for'
p604
tp605
F0.008604206500956023
s(S'[[pro]]'
p606
S'led'
p607
tp608
F0.0009560229445506692
s(S'member'
p609
S'on'
p610
tp611
F0.0019120458891013384
s(S'was'
p612
g391
tp613
F0.01338432122370937
s(S'left'
p614
S'out'
p615
tp616
F0.0009560229445506692
s(S'appointed'
p617
S'was'
p618
tp619
F0.0009560229445506692
s(S'appointed'
p620
S'in'
p621
tp622
F0.0028680688336520078
s(g473
S'of'
p623
tp624
F0.010516252390057362
s(S'where'
p625
S'joined'
p626
tp627
F0.0019120458891013384
s(S'then'
p628
S'left'
p629
tp630
F0.004780114722753346
s(S'joined'
p631
S'becoming'
p632
tp633
F0.0009560229445506692
s(S'later'
p634
S'left'
p635
tp636
F0.0028680688336520078
s(S'served'
p637
S'again'
p638
tp639
F0.0009560229445506692
s(S'served'
p640
S'becoming'
p641
tp642
F0.0009560229445506692
s(S'led'
p643
S'for'
p644
tp645
F0.0009560229445506692
s(S'had'
p646
S'served'
p647
tp648
F0.0057361376673040155
s(S'was'
p649
g48
tp650
F0.0019120458891013384
s(S'to'
p651
S'head'
p652
tp653
F0.0028680688336520078
s(S'become'
p654
S'head'
p655
tp656
F0.0019120458891013384
s(S'appointed'
p657
S'[[pro]]'
p658
tp659
F0.004780114722753346
s(S'of'
p660
S'[[det]]'
p661
tp662
F0.0009560229445506692
s(S'then'
p663
g328
tp664
F0.0057361376673040155
s(S'with'
p665
S'joined'
p666
tp667
F0.0019120458891013384
s(g505
S'[[det]]'
p668
tp669
F0.0019120458891013384
s(S'[[num]]'
p670
S'served'
p671
tp672
F0.0038240917782026767
s(S'[[adj]]'
p673
S'appointed'
p674
tp675
F0.0019120458891013384
s(S'served'
p676
S'where'
p677
tp678
F0.0009560229445506692
s(S'join'
p679
S'[[adj]]'
p680
tp681
F0.0019120458891013384
s(g11
S'[[prp]]'
p682
tp683
F0.0009560229445506692
s(g2
S'up'
p684
tp685
F0.0019120458891013384
s(S'member'
p686
S'[[num]]'
p687
tp688
F0.0038240917782026767
s(S'[[con]]'
p689
S'member'
p690
tp691
F0.0028680688336520078
s(S'[[con]]'
p692
g584
tp693
F0.0019120458891013384
s(g682
S'position'
p694
tp695
F0.0009560229445506692
s(g694
S'as'
p696
tp697
F0.0009560229445506692
s(S'is'
p698
S'head'
p699
tp700
F0.0028680688336520078
s(g115
S'of'
p701
tp702
F0.0019120458891013384
s(S'led'
p703
S'against'
p704
tp705
F0.0009560229445506692
s(S'member'
p706
S'[[con]]'
p707
tp708
F0.01338432122370937
s(S'head'
p709
S'[[con]]'
p710
tp711
F0.0028680688336520078
s(S'of'
p712
S'appointed'
p713
tp714
F0.0009560229445506692
s(S'leader'
p715
S'[[con]]'
p716
tp717
F0.0028680688336520078
s(S'of'
p718
S'led'
p719
tp720
F0.0009560229445506692
s(S'lead'
p721
S'[[det]]'
p722
tp723
F0.0019120458891013384
s(S'was'
p724
g207
tp725
F0.0038240917782026767
s(S'left'
p726
S'at'
p727
tp728
F0.0009560229445506692
s(S'where'
p729
S'served'
p730
tp731
F0.0019120458891013384
s(S'joined'
p732
S'[[adj]]'
p733
tp734
F0.0028680688336520078
s(S'joined'
p735
S'later'
p736
tp737
F0.0009560229445506692
s(S'member'
p738
S'for'
p739
tp740
F0.0076481835564053535
s(S'leader'
p741
S'[[det]]'
p742
tp743
F0.0028680688336520078
s(S'served'
p744
S'there'
p745
tp746
F0.0009560229445506692
s(S'who'
p747
S'led'
p748
tp749
F0.0009560229445506692
s(S'[[con]]'
p750
S'[[det]]'
p751
tp752
F0.0028680688336520078
s(S'again'
p753
g460
tp754
F0.0019120458891013384
s(S'elected'
p755
S'[[adj]]'
p756
tp757
F0.0009560229445506692
s(S'been'
p758
S'elected'
p759
tp760
F0.0019120458891013384
s(S'then'
p761
S'led'
p762
tp763
F0.0019120458891013384
s(S'has'
p764
S'joined'
p765
tp766
F0.0019120458891013384
s(S'first'
p767
S'appointed'
p768
tp769
F0.0009560229445506692
s(S'joined'
p770
S'to'
p771
tp772
F0.0019120458891013384
s(S'appointed'
p773
S'when'
p774
tp775
F0.0009560229445506692
s(S'where'
p776
g377
tp777
F0.0009560229445506692
s(S'[[con]]'
p778
S'[[adj]]'
p779
tp780
F0.0009560229445506692
s(S'twice'
p781
S'served'
p782
tp783
F0.0019120458891013384
s(S'to'
p784
S'member'
p785
tp786
F0.0009560229445506692
s(S'also'
p787
S'left'
p788
tp789
F0.0009560229445506692
s(S'leader'
p790
S'in'
p791
tp792
F0.0028680688336520078
s(S'led'
p793
S'[[num]]'
p794
tp795
F0.0009560229445506692
s(S'[[num]]'
p796
S'joined'
p797
tp798
F0.0009560229445506692
s(S'[[num]]'
p799
S'member'
p800
tp801
F0.0009560229445506692
s(S'appointed'
p802
S'to'
p803
tp804
F0.011472275334608031
s(S'as'
p805
S'joined'
p806
tp807
F0.0009560229445506692
s(S'served'
p808
S'[[num]]'
p809
tp810
F0.0019120458891013384
s(S'later'
p811
S'led'
p812
tp813
F0.0009560229445506692
s(S'have'
p814
S'joined'
p815
tp816
F0.0009560229445506692
s(S'became'
p817
S'leader'
p818
tp819
F0.0019120458891013384
s(S'[[det]]'
p820
S'appointed'
p821
tp822
F0.0009560229445506692
s(g67
S'leader'
p823
tp824
F0.0028680688336520078
s(S'when'
p825
S'left'
p826
tp827
F0.0009560229445506692
s(g23
S'in'
p828
tp829
F0.0038240917782026767
s(S'instead'
p830
S'joined'
p831
tp832
F0.0019120458891013384
s(S'[[adj]]'
p833
g706
tp834
F0.019120458891013385
s(g284
S'of'
p835
tp836
F0.010516252390057362
s(S'elected'
p837
g750
tp838
F0.0038240917782026767
s(g55
S'of'
p839
tp840
F0.0038240917782026767
s(S'elected'
p841
S'member'
p842
tp843
F0.006692160611854685
s(S'later'
p844
g201
tp845
F0.0076481835564053535
s(S'was'
p846
S'served'
p847
tp848
F0.0009560229445506692
s(S'join'
p849
S'[[num]]'
p850
tp851
F0.0009560229445506692
s(S'served'
p852
S'in'
p853
tp854
F0.015296367112810707
s.