(dp0
(S'broadcasts'
p1
S'[[con]]'
p2
tp3
F0.0009881422924901185
s(S'built'
p4
S'up'
p5
tp6
F0.0009881422924901185
s(S'also'
p7
S'bought'
p8
tp9
F0.0009881422924901185
s(S'formerly'
p10
S'operated'
p11
tp12
F0.0009881422924901185
s(S'currently'
p13
S'home'
p14
tp15
F0.0009881422924901185
s(S'were'
p16
S'built'
p17
tp18
F0.0009881422924901185
s(S'stadium'
p19
S'in'
p20
tp21
F0.001976284584980237
s(S'base'
p22
S'for'
p23
tp24
F0.001976284584980237
s(S'announced'
p25
S'[[mod]]'
p26
tp27
F0.0009881422924901185
s(S'[[det]]'
p28
S'used'
p29
tp30
F0.0009881422924901185
s(S'bought'
p31
S'back'
p32
tp33
F0.0009881422924901185
s(S'also'
p34
S'published'
p35
tp36
F0.0009881422924901185
s(S'on'
p37
S'[[num]]'
p38
tp39
F0.0009881422924901185
s(S'purchased'
p40
S'[[con]]'
p41
tp42
F0.001976284584980237
s(S'delivered'
p43
S'to'
p44
tp45
F0.0009881422924901185
s(S'[[det]]'
p46
S'terminus'
p47
tp48
F0.001976284584980237
s(S'be'
p49
S'built'
p50
tp51
F0.001976284584980237
s(S'based'
p52
S'in'
p53
tp54
F0.0009881422924901185
s(S'purchased'
p55
S'[[det]]'
p56
tp57
F0.001976284584980237
s(S'[[det]]'
p58
S'subsidiary'
p59
tp60
F0.005928853754940711
s(S'sold'
p61
S'for'
p62
tp63
F0.0009881422924901185
s(S'then'
p64
S'owned'
p65
tp66
F0.0009881422924901185
s(S'being'
p67
S'sold'
p68
tp69
F0.001976284584980237
s(S'home'
p70
S'when'
p71
tp72
F0.0009881422924901185
s(S'display'
p73
S'in'
p74
tp75
F0.0009881422924901185
s(S'then'
p76
S'bought'
p77
tp78
F0.001976284584980237
s(S'has'
p79
S'established'
p80
tp81
F0.0009881422924901185
s(S'[[con]]'
p82
S'is'
p83
tp84
F0.001976284584980237
s(S'now'
p85
S'operated'
p86
tp87
F0.0009881422924901185
s(S'bought'
p88
S'[[pro]]'
p89
tp90
F0.0009881422924901185
s(S'has'
p91
S'acquired'
p92
tp93
F0.0009881422924901185
s(S'when'
p94
S'acquired'
p95
tp96
F0.0009881422924901185
s(S'was'
p97
g61
tp98
F0.00691699604743083
s(S'[[con]]'
p99
S'was'
p100
tp101
F0.0009881422924901185
s(S'are'
p102
S'sold'
p103
tp104
F0.0009881422924901185
s(S'[[det]]'
p105
S'cruiseferry'
p106
tp107
F0.0009881422924901185
s(S'passenger'
p108
S'operated'
p109
tp110
F0.0009881422924901185
s(S'[[con]]'
p111
S'purchased'
p112
tp113
F0.0009881422924901185
s(S'was'
p114
S'entered'
p115
tp116
F0.0009881422924901185
s(S'entered'
p117
S'service'
p118
tp119
F0.0029644268774703555
s(S'announced'
p120
S'[[adj]]'
p121
tp122
F0.0009881422924901185
s(S'now'
p123
S'owned'
p124
tp125
F0.001976284584980237
s(S'[[adj]]'
p126
S'taken'
p127
tp128
F0.0009881422924901185
s(S'commonly'
p129
S'known'
p130
tp131
F0.0009881422924901185
s(S'terminus'
p132
S'at'
p133
tp134
F0.0009881422924901185
s(S'had'
p135
S'merged'
p136
tp137
F0.001976284584980237
s(S'bought'
p138
S'[[adj]]'
p139
tp140
F0.0009881422924901185
s(S'[[det]]'
p141
S'base'
p142
tp143
F0.0029644268774703555
s(S'also'
p144
S'built'
p145
tp146
F0.0009881422924901185
s(S'is'
p147
S'built'
p148
tp149
F0.0029644268774703555
s(S'published'
p150
S'with'
p151
tp152
F0.0009881422924901185
s(S'[[con]]'
p153
S'were'
p154
tp155
F0.0009881422924901185
s(S'been'
p156
S'used'
p157
tp158
F0.0029644268774703555
s(S'has'
p159
S'sold'
p160
tp161
F0.0009881422924901185
s(S'subsidiary'
p162
g153
tp163
F0.0009881422924901185
s(S'which'
p164
S'served'
p165
tp166
F0.0009881422924901185
s(S'acquired'
p167
S'in'
p168
tp169
F0.0009881422924901185
s(S'was'
p170
S'published'
p171
tp172
F0.003952569169960474
s(S'be'
p173
S'established'
p174
tp175
F0.001976284584980237
s(S'[[mod]]'
p176
S'sell'
p177
tp178
F0.001976284584980237
s(S'[[con]]'
p179
S'managed'
p180
tp181
F0.001976284584980237
s(S'run'
p182
S'by'
p183
tp184
F0.0009881422924901185
s(S'announced'
p185
S'on'
p186
tp187
F0.0009881422924901185
s(S'only'
p188
S'used'
p189
tp190
F0.0009881422924901185
s(S'[[adj]]'
p191
S'form'
p192
tp193
F0.0009881422924901185
s(S'form'
p194
S'[[con]]'
p195
tp196
F0.0009881422924901185
s(S'station'
p197
S'[[con]]'
p198
tp199
F0.0009881422924901185
s(S'is'
p200
S'used'
p201
tp202
F0.0029644268774703555
s(S'subsidiary'
p203
S'of'
p204
tp205
F0.011857707509881422
s(S'[[det]]'
p206
S'built'
p207
tp208
F0.0029644268774703555
s(S'selling'
p209
S'to'
p210
tp211
F0.0009881422924901185
s(S'field'
p212
S'for'
p213
tp214
F0.0009881422924901185
s(S'was'
p215
S'merged'
p216
tp217
F0.004940711462450593
s(S'later'
p218
S'bought'
p219
tp220
F0.001976284584980237
s(S'were'
p221
S'purchased'
p222
tp223
F0.001976284584980237
s(S'[[num]]'
p224
S'used'
p225
tp226
F0.0009881422924901185
s(S'is'
p227
S'taken'
p228
tp229
F0.0009881422924901185
s(S'were'
p230
S'bought'
p231
tp232
F0.0009881422924901185
s(S'[[con]]'
p233
g182
tp234
F0.0009881422924901185
s(S'cruise'
p235
S'ship'
p236
tp237
F0.005928853754940711
s(S's'
p238
S'subsidiary'
p239
tp240
F0.0009881422924901185
s(S'[[con]]'
p241
S'used'
p242
tp243
F0.0009881422924901185
s(S'used'
p244
S'from'
p245
tp246
F0.0009881422924901185
s(S'also'
p247
S'acquired'
p248
tp249
F0.0029644268774703555
s(S'that'
p250
S'had'
p251
tp252
F0.0009881422924901185
s(S'owned'
p253
S'subsidiary'
p254
tp255
F0.00691699604743083
s(S'[[det]]'
p256
S'acquired'
p257
tp258
F0.0009881422924901185
s(S'[[adj]]'
p259
S'service'
p260
tp261
F0.0009881422924901185
s(S'ownership'
p262
S'of'
p263
tp264
F0.0029644268774703555
s(S'affiliate'
p265
S'for'
p266
tp267
F0.001976284584980237
s(S'announced'
p268
S'[[prp]]'
p269
tp270
F0.0009881422924901185
s(S'acquired'
p271
S'[[det]]'
p272
tp273
F0.0029644268774703555
s(S'be'
p274
S'sold'
p275
tp276
F0.003952569169960474
s(S'published'
p277
S'from'
p278
tp279
F0.0009881422924901185
s(S'announced'
p280
S'had'
p281
tp282
F0.0009881422924901185
s(S'later'
p283
S'sold'
p284
tp285
F0.001976284584980237
s(g127
S'by'
p286
tp287
F0.0009881422924901185
s(S'home'
p288
S'to'
p289
tp290
F0.008893280632411068
s(S'[[con]]'
p291
S'[[det]]'
p292
tp293
F0.0029644268774703555
s(S'[[con]]'
p294
S'acquired'
p295
tp296
F0.001976284584980237
s(S'[[det]]'
p297
S'stadium'
p298
tp299
F0.0009881422924901185
s(S'acquired'
p300
S'with'
p301
tp302
F0.0009881422924901185
s(S'served'
p303
S'by'
p304
tp305
F0.004940711462450593
s(S'built'
p306
S'[[con]]'
p307
tp308
F0.0009881422924901185
s(S'now'
p309
S'home'
p310
tp311
F0.0009881422924901185
s(S'is'
p312
S'home'
p313
tp314
F0.0029644268774703555
s(S'not'
p315
S'used'
p316
tp317
F0.0009881422924901185
s(S'merged'
p318
S'into'
p319
tp320
F0.00691699604743083
s(S'later'
p321
S'owned'
p322
tp323
F0.0009881422924901185
s(S'was'
p324
S'served'
p325
tp326
F0.0009881422924901185
s(S'had'
p327
g55
tp328
F0.0029644268774703555
s(S'served'
p329
S'in'
p330
tp331
F0.001976284584980237
s(S'to'
p332
g194
tp333
F0.00691699604743083
s(S'acquired'
p334
S'[[num]]'
p335
tp336
F0.001976284584980237
s(S'announced'
p337
S'[[pro]]'
p338
tp339
F0.0009881422924901185
s(S'venture'
p340
S'of'
p341
tp342
F0.0009881422924901185
s(S'built'
p343
S'on'
p344
tp345
F0.0009881422924901185
s(S'built'
p346
S'was'
p347
tp348
F0.0009881422924901185
s(S'of'
p349
S'serve'
p350
tp351
F0.0009881422924901185
s(S'parent'
p352
S'company'
p353
tp354
F0.0009881422924901185
s(S'then'
p355
S'acquired'
p356
tp357
F0.0009881422924901185
s(S'be'
p358
S'acquired'
p359
tp360
F0.0029644268774703555
s(S'originally'
p361
S'been'
p362
tp363
F0.0009881422924901185
s(S'as'
p364
S'[[det]]'
p365
tp366
F0.0009881422924901185
s(S'station'
p367
S'on'
p368
tp369
F0.0029644268774703555
s(S'was'
p370
S'bought'
p371
tp372
F0.003952569169960474
s(S'of'
p373
S'established'
p374
tp375
F0.0009881422924901185
s(g17
S'for'
p376
tp377
F0.010869565217391304
s(S'used'
p378
S'at'
p379
tp380
F0.0009881422924901185
s(S'[[num]]'
p381
S'operated'
p382
tp383
F0.001976284584980237
s(S'also'
p384
S'owned'
p385
tp386
F0.001976284584980237
s(S'[[det]]'
p387
S'merged'
p388
tp389
F0.0009881422924901185
s(S'to'
p390
S'service'
p391
tp392
F0.0009881422924901185
s(S'established'
p393
S'in'
p394
tp395
F0.0009881422924901185
s(S'service'
p396
S'with'
p397
tp398
F0.0029644268774703555
s(S'published'
p399
S'at'
p400
tp401
F0.0009881422924901185
s(S'owned'
p402
S'[[con]]'
p403
tp404
F0.017786561264822136
s(S'now'
p405
S'used'
p406
tp407
F0.0009881422924901185
s(S'then'
p408
S'used'
p409
tp410
F0.0009881422924901185
s(S'purchased'
p411
S'in'
p412
tp413
F0.0009881422924901185
s(S'built'
p414
S'around'
p415
tp416
F0.0009881422924901185
s(S'operated'
p417
S'with'
p418
tp419
F0.003952569169960474
s(S'been'
p420
S'home'
p421
tp422
F0.0009881422924901185
s(g216
S'[[con]]'
p423
tp424
F0.0029644268774703555
s(S'[[con]]'
p425
S'owned'
p426
tp427
F0.0029644268774703555
s(S'purchased'
p428
S'by'
p429
tp430
F0.00691699604743083
s(g275
S'in'
p431
tp432
F0.003952569169960474
s(S'when'
p433
S'sold'
p434
tp435
F0.0009881422924901185
s(S'[[adj]]'
p436
S'terminus'
p437
tp438
F0.0029644268774703555
s(g385
S'by'
p439
tp440
F0.0266798418972332
s(S'[[adj]]'
p441
S'student'
p442
tp443
F0.001976284584980237
s(S'originally'
p444
S'built'
p445
tp446
F0.004940711462450593
s(S'taken'
p447
S'at'
p448
tp449
F0.0009881422924901185
s(S'[[det]]'
p450
S'wholly'
p451
tp452
F0.005928853754940711
s(S'currently'
p453
S'owned'
p454
tp455
F0.0029644268774703555
s(S'purchased'
p456
S'for'
p457
tp458
F0.0009881422924901185
s(S'[[adj]]'
p459
S'venture'
p460
tp461
F0.004940711462450593
s(S'is'
p462
S'established'
p463
tp464
F0.0009881422924901185
s(g118
S'for'
p465
tp466
F0.0009881422924901185
s(S'liner'
p467
S'owned'
p468
tp469
F0.0009881422924901185
s(S'transferred'
p470
S'to'
p471
tp472
F0.0009881422924901185
s(g292
S'affiliate'
p473
tp474
F0.004940711462450593
s(S'[[det]]'
p475
g393
tp476
F0.001976284584980237
s(S'been'
p477
S'owned'
p478
tp479
F0.001976284584980237
s(S'taken'
p480
S'into'
p481
tp482
F0.0009881422924901185
s(S'newspaper'
p483
S'of'
p484
tp485
F0.001976284584980237
s(S'operates'
p486
S'[[con]]'
p487
tp488
F0.0009881422924901185
s(S'name'
p489
S'used'
p490
tp491
F0.0009881422924901185
s(S'were'
p492
S'acquired'
p493
tp494
F0.001976284584980237
s(S'[[det]]'
p495
S'student'
p496
tp497
F0.001976284584980237
s(S'announced'
p498
S'was'
p499
tp500
F0.0009881422924901185
s(S'managed'
p501
S'[[con]]'
p502
tp503
F0.001976284584980237
s(S'also'
p504
S'used'
p505
tp506
F0.001976284584980237
s(g493
S'by'
p507
tp508
F0.012845849802371542
s(S'was'
p509
S'operated'
p510
tp511
F0.001976284584980237
s(S'station'
p512
S'after'
p513
tp514
F0.0009881422924901185
s(S'which'
p515
S'merged'
p516
tp517
F0.0009881422924901185
s(g100
g470
tp518
F0.0009881422924901185
s(S'became'
p519
S'home'
p520
tp521
F0.0009881422924901185
s(S'used'
p522
S'with'
p523
tp524
F0.0009881422924901185
s(S'had'
p525
S'sold'
p526
tp527
F0.0009881422924901185
s(S'built'
p528
S'[[det]]'
p529
tp530
F0.0009881422924901185
s(g350
S'[[det]]'
p531
tp532
F0.0009881422924901185
s(S'be'
p533
S'merged'
p534
tp535
F0.0029644268774703555
s(S'being'
p536
S'used'
p537
tp538
F0.0009881422924901185
s(S'be'
p539
S'purchased'
p540
tp541
F0.0009881422924901185
s(S'announced'
p542
S'by'
p543
tp544
F0.001976284584980237
s(g260
S'[[con]]'
p545
tp546
F0.0009881422924901185
s(S'been'
p547
S'purchased'
p548
tp549
F0.0009881422924901185
s(S'is'
p550
g501
tp551
F0.0029644268774703555
s(S'station'
p552
S'for'
p553
tp554
F0.0009881422924901185
s(S'form'
p555
S'[[num]]'
p556
tp557
F0.0009881422924901185
s(S'used'
p558
S'[[con]]'
p559
tp560
F0.0009881422924901185
s(S'operated'
p561
S'[[prp]]'
p562
tp563
F0.0009881422924901185
s(g83
S'operated'
p564
tp565
F0.00691699604743083
s(g157
S'for'
p566
tp567
F0.0009881422924901185
s(S'[[det]]'
p568
S'class'
p569
tp570
F0.0009881422924901185
s(S'not'
p571
S'owned'
p572
tp573
F0.0009881422924901185
s(g238
g352
tp574
F0.0009881422924901185
s(S'when'
p575
S'merged'
p576
tp577
F0.001976284584980237
s(S'when'
p578
S'purchased'
p579
tp580
F0.0009881422924901185
s(S'[[det]]'
p581
S'operated'
p582
tp583
F0.001976284584980237
s(S'sold'
p584
S'most'
p585
tp586
F0.0009881422924901185
s(S'established'
p587
S'under'
p588
tp589
F0.0009881422924901185
s(S'then'
p590
S'merged'
p591
tp592
F0.001976284584980237
s(S'bought'
p593
S'out'
p594
tp595
F0.001976284584980237
s(S'was'
p596
g480
tp597
F0.001976284584980237
s(S'owned'
p598
S'[[num]]'
p599
tp600
F0.0029644268774703555
s(S'operated'
p601
S'by'
p602
tp603
F0.023715415019762844
s(S'[[num]]'
p604
S'announced'
p605
tp606
F0.0009881422924901185
s(S'[[det]]'
p607
S'sold'
p608
tp609
F0.0009881422924901185
s(S'was'
p610
g209
tp611
F0.0029644268774703555
s(g473
S'of'
p612
tp613
F0.0029644268774703555
s(S'has'
p614
S'announced'
p615
tp616
F0.001976284584980237
s(S'selling'
p617
S'[[prp]]'
p618
tp619
F0.0009881422924901185
s(g238
S'home'
p620
tp621
F0.0009881422924901185
s(S'was'
p622
g444
tp623
F0.004940711462450593
s(g201
S'on'
p624
tp625
F0.0029644268774703555
s(S'of'
p626
g52
tp627
F0.0009881422924901185
s(S'taken'
p628
S'over'
p629
tp630
F0.0029644268774703555
s(S'[[adj]]'
p631
S'published'
p632
tp633
F0.001976284584980237
s(g174
S'after'
p634
tp635
F0.0009881422924901185
s(S'sold'
p636
S'off'
p637
tp638
F0.0029644268774703555
s(g115
g99
tp639
F0.0009881422924901185
s(S'been'
p640
g329
tp641
F0.0009881422924901185
s(S'is'
p642
S'sold'
p643
tp644
F0.001976284584980237
s(S'[[det]]'
p645
S'owned'
p646
tp647
F0.0029644268774703555
s(S'wholly'
p648
g253
tp649
F0.008893280632411068
s(S'be'
p650
S'operated'
p651
tp652
F0.0009881422924901185
s(g192
S'as'
p653
tp654
F0.0009881422924901185
s(S'be'
p655
S'served'
p656
tp657
F0.0009881422924901185
s(S'bought'
p658
S'from'
p659
tp660
F0.0009881422924901185
s(g632
S'[[con]]'
p661
tp662
F0.001976284584980237
s(S'been'
p663
S'sold'
p664
tp665
F0.0009881422924901185
s(S'[[num]]'
p666
S'acquired'
p667
tp668
F0.0009881422924901185
s(S'merged'
p669
S'to'
p670
tp671
F0.0029644268774703555
s(S'[[det]]'
p672
g108
tp673
F0.0009881422924901185
s(S'[[con]]'
p674
S'established'
p675
tp676
F0.0009881422924901185
s(S'that'
p677
S'acquired'
p678
tp679
F0.001976284584980237
s(S'sold'
p680
S'[[pro]]'
p681
tp682
F0.0009881422924901185
s(S'served'
p683
S'only'
p684
tp685
F0.0009881422924901185
s(S'[[det]]'
p686
g235
tp687
F0.004940711462450593
s(S'built'
p688
S'as'
p689
tp690
F0.0029644268774703555
s(S'currently'
p691
S'used'
p692
tp693
F0.0009881422924901185
s(S'stadium'
p694
S'of'
p695
tp696
F0.0009881422924901185
s(g615
S'that'
p697
tp698
F0.008893280632411068
s(S'was'
p699
g688
tp700
F0.00691699604743083
s(g496
S'newspaper'
p701
tp702
F0.003952569169960474
s(S'station'
p703
S'along'
p704
tp705
F0.0009881422924901185
s(S'merged'
p706
S'[[det]]'
p707
tp708
F0.0009881422924901185
s(S'[[det]]'
p709
S'ocean'
p710
tp711
F0.001976284584980237
s(S'acquired'
p712
S'as'
p713
tp714
F0.0009881422924901185
s(S'established'
p715
S'[[det]]'
p716
tp717
F0.0009881422924901185
s(S'jointly'
p718
S'owned'
p719
tp720
F0.001976284584980237
s(S'established'
p721
S'by'
p722
tp723
F0.001976284584980237
s(g130
S'is'
p724
tp725
F0.0009881422924901185
s(S'are'
p726
S'operated'
p727
tp728
F0.0009881422924901185
s(S'after'
p729
S'bought'
p730
tp731
F0.0009881422924901185
s(S'merged'
p732
S'with'
p733
tp734
F0.008893280632411068
s(S'established'
p735
S'with'
p736
tp737
F0.0009881422924901185
s(S'which'
p738
S'sold'
p739
tp740
F0.0009881422924901185
s(S'managed'
p741
S'by'
p742
tp743
F0.004940711462450593
s(S'bought'
p744
S'[[num]]'
p745
tp746
F0.0009881422924901185
s(S'operated'
p747
S'[[det]]'
p748
tp749
F0.0009881422924901185
s(S'[[det]]'
p750
S'home'
p751
tp752
F0.008893280632411068
s(S'still'
p753
S'used'
p754
tp755
F0.0009881422924901185
s(S'bought'
p756
S'for'
p757
tp758
F0.0009881422924901185
s(S'venture'
p759
S'between'
p760
tp761
F0.0009881422924901185
s(S'[[adj]]'
p762
S'ferry'
p763
tp764
F0.0009881422924901185
s(S'operated'
p765
S'for'
p766
tp767
F0.0009881422924901185
s(S'sold'
p768
S'[[con]]'
p769
tp770
F0.001976284584980237
s(S'home'
p771
S'[[con]]'
p772
tp773
F0.0029644268774703555
s(S'were'
p774
g636
tp775
F0.0029644268774703555
s(S'also'
p776
S'purchased'
p777
tp778
F0.0009881422924901185
s(S'used'
p779
S'by'
p780
tp781
F0.017786561264822136
s(S'had'
p782
g361
tp783
F0.0009881422924901185
s(g643
S'by'
p784
tp785
F0.004940711462450593
s(g165
S'with'
p786
tp787
F0.0009881422924901185
s(S'affiliate'
p788
S'[[con]]'
p789
tp790
F0.0009881422924901185
s(S'later'
p791
S'used'
p792
tp793
F0.0009881422924901185
s(S'liner'
p794
S'built'
p795
tp796
F0.0009881422924901185
s(S'form'
p797
S'in'
p798
tp799
F0.0009881422924901185
s(S'which'
p800
S'acquired'
p801
tp802
F0.0009881422924901185
s(S'venture'
p803
S'with'
p804
tp805
F0.0009881422924901185
s(S'has'
p806
S'bought'
p807
tp808
F0.0009881422924901185
s(S'home'
p809
S'of'
p810
tp811
F0.004940711462450593
s(S'built'
p812
S'after'
p813
tp814
F0.0009881422924901185
s(S'was'
p815
g456
tp816
F0.004940711462450593
s(S'of'
p817
S'is'
p818
tp819
F0.0009881422924901185
s(S'established'
p820
S'[[prp]]'
p821
tp822
F0.0009881422924901185
s(S'also'
p823
S'home'
p824
tp825
F0.0009881422924901185
s(S'merged'
p826
S'[[prp]]'
p827
tp828
F0.0009881422924901185
s(S'then'
p829
S'sold'
p830
tp831
F0.001976284584980237
s(S'[[adj]]'
p832
S'display'
p833
tp834
F0.001976284584980237
s(S'sold'
p835
S'[[det]]'
p836
tp837
F0.0029644268774703555
s(S'consists'
p838
g349
tp839
F0.0009881422924901185
s(S'acquired'
p840
S'[[con]]'
p841
tp842
F0.004940711462450593
s(S'home'
p843
S'for'
p844
tp845
F0.001976284584980237
s(g569
S'cruise'
p846
tp847
F0.0009881422924901185
s(g437
S'of'
p848
tp849
F0.001976284584980237
s(S'[[det]]'
p850
g367
tp851
F0.004940711462450593
s(S'was'
p852
S'announced'
p853
tp854
F0.00691699604743083
s(S'form'
p855
S'part'
p856
tp857
F0.0009881422924901185
s(S'be'
p858
S'home'
p859
tp860
F0.0009881422924901185
s(S'sell'
p861
S'to'
p862
tp863
F0.0029644268774703555
s(S'established'
p864
S'[[num]]'
p865
tp866
F0.0009881422924901185
s(S'acquired'
p867
S'[[prp]]'
p868
tp869
F0.0009881422924901185
s(S'mainly'
p870
S'used'
p871
tp872
F0.0009881422924901185
s(S'[[adj]]'
p873
g19
tp874
F0.001976284584980237
s(S'base'
p875
S'of'
p876
tp877
F0.001976284584980237
s(g487
S'ownership'
p878
tp879
F0.001976284584980237
s(S'later'
p880
S'purchased'
p881
tp882
F0.001976284584980237
s(S'sell'
p883
S'[[num]]'
p884
tp885
F0.0009881422924901185
s(S'operated'
p886
S'under'
p887
tp888
F0.0009881422924901185
s(S'home'
p889
g212
tp890
F0.001976284584980237
s(S'established'
p891
S'at'
p892
tp893
F0.0009881422924901185
s(S'by'
p894
S'[[det]]'
p895
tp896
F0.001976284584980237
s(g371
S'by'
p897
tp898
F0.0029644268774703555
s(S'[[adj]]'
p899
S'station'
p900
tp901
F0.0029644268774703555
s(S'used'
p902
S'as'
p903
tp904
F0.0009881422924901185
s(S'[[det]]'
p905
S'ship'
p906
tp907
F0.0009881422924901185
s(S'acquired'
p908
S'from'
p909
tp910
F0.0029644268774703555
s(S'home'
p911
S'[[det]]'
p912
tp913
F0.003952569169960474
s(S'been'
p914
S'built'
p915
tp916
F0.001976284584980237
s(S'sold'
p917
S'at'
p918
tp919
F0.0009881422924901185
s(S'was'
p920
g43
tp921
F0.0009881422924901185
s(S'field'
p922
S'of'
p923
tp924
F0.0009881422924901185
s(g853
S'[[det]]'
p925
tp926
F0.0009881422924901185
s(S'is'
p927
S'owned'
p928
tp929
F0.01383399209486166
s(S'operated'
p930
S'[[con]]'
p931
tp932
F0.001976284584980237
s(S'form'
p933
S'[[det]]'
p934
tp935
F0.0009881422924901185
s(S'once'
p936
S'used'
p937
tp938
F0.0009881422924901185
s(S'operated'
p939
S'[[adj]]'
p940
tp941
F0.0009881422924901185
s(S'home'
p942
S'[[num]]'
p943
tp944
F0.0009881422924901185
s(S'[[adj]]'
p945
S'ship'
p946
tp947
F0.0029644268774703555
s(S'[[pro]]'
p948
S'acquired'
p949
tp950
F0.0009881422924901185
s(S'on'
p951
g73
tp952
F0.0029644268774703555
s(S'[[con]]'
p953
g601
tp954
F0.011857707509881422
s(S'been'
p955
S'acquired'
p956
tp957
F0.0009881422924901185
s(S'[[num]]'
p958
S'sold'
p959
tp960
F0.001976284584980237
s(S'established'
p961
S'[[con]]'
p962
tp963
F0.0009881422924901185
s(S'[[det]]'
p964
S'purchased'
p965
tp966
F0.0009881422924901185
s(S'is'
p967
g718
tp968
F0.0009881422924901185
s(S'operated'
p969
S'until'
p970
tp971
F0.0009881422924901185
s(S'acquired'
p972
S'[[pro]]'
p973
tp974
F0.0009881422924901185
s(S'[[con]]'
p975
S'sold'
p976
tp977
F0.001976284584980237
s(g946
S'built'
p978
tp979
F0.003952569169960474
s(S'[[num]]'
p980
S'owned'
p981
tp982
F0.0009881422924901185
s(S'merged'
p983
S'from'
p984
tp985
F0.0009881422924901185
s(S'sell'
p986
S'[[det]]'
p987
tp988
F0.001976284584980237
s(g531
S'tracks'
p989
tp990
F0.0009881422924901185
s(S'were'
p991
S'merged'
p992
tp993
F0.0009881422924901185
s(S'[[adj]]'
p994
g843
tp995
F0.004940711462450593
s(S'wordnetkilohertz'
p996
g262
tp997
F0.0009881422924901185
s(S'that'
p998
S'served'
p999
tp1000
F0.0009881422924901185
s(S'purchased'
p1001
S'from'
p1002
tp1003
F0.0029644268774703555
s(S'being'
p1004
S'acquired'
p1005
tp1006
F0.0009881422924901185
s(S'[[adj]]'
p1007
S'sold'
p1008
tp1009
F0.001976284584980237
s(S'purchased'
p1010
S'[[adj]]'
p1011
tp1012
F0.0009881422924901185
s(S'sold'
p1013
S'[[num]]'
p1014
tp1015
F0.0009881422924901185
s(S'[[adj]]'
p1016
g265
tp1017
F0.001976284584980237
s(S'established'
p1018
S'as'
p1019
tp1020
F0.003952569169960474
s(S'when'
p1021
S'bought'
p1022
tp1023
F0.0009881422924901185
s(S'[[adj]]'
p1024
S'built'
p1025
tp1026
F0.001976284584980237
s(S'also'
p1027
S'served'
p1028
tp1029
F0.0009881422924901185
s(S'purchased'
p1030
S'[[num]]'
p1031
tp1032
F0.0009881422924901185
s(S'formerly'
p1033
S'owned'
p1034
tp1035
F0.0029644268774703555
s(S'[[det]]'
p1036
S'managed'
p1037
tp1038
F0.0009881422924901185
s(S'then'
p1039
g428
tp1040
F0.001976284584980237
s(S'operated'
p1041
S'as'
p1042
tp1043
F0.0009881422924901185
s(S'still'
p1044
S'owned'
p1045
tp1046
F0.0009881422924901185
s(S'[[det]]'
p1047
S'campus'
p1048
tp1049
F0.001976284584980237
s(g106
S'owned'
p1050
tp1051
F0.0009881422924901185
s(S'acquired'
p1052
S'[[adj]]'
p1053
tp1054
F0.0009881422924901185
s(S'was'
p1055
S'acquired'
p1056
tp1057
F0.005928853754940711
s(S'published'
p1058
S'[[adj]]'
p1059
tp1060
F0.001976284584980237
s(S'currently'
p1061
S'operated'
p1062
tp1063
F0.0009881422924901185
s(S'had'
p1064
g840
tp1065
F0.005928853754940711
s(S'built'
p1066
S'at'
p1067
tp1068
F0.001976284584980237
s(S'[[con]]'
p1069
S'built'
p1070
tp1071
F0.0009881422924901185
s(S'been'
p1072
S'announced'
p1073
tp1074
F0.0009881422924901185
s(S'merged'
p1075
S'in'
p1076
tp1077
F0.0009881422924901185
s(S'[[prp]]'
p1078
S'subsidiary'
p1079
tp1080
F0.0009881422924901185
s(S'sell'
p1081
S'[[prp]]'
p1082
tp1083
F0.001976284584980237
s(S'operated'
p1084
S'on'
p1085
tp1086
F0.0009881422924901185
s(S'was'
p1087
S'owned'
p1088
tp1089
F0.003952569169960474
s(S'acquired'
p1090
S'to'
p1091
tp1092
F0.0009881422924901185
s(S'[[con]]'
p1093
S'merged'
p1094
tp1095
F0.003952569169960474
s(S'be'
p1096
g779
tp1097
F0.001976284584980237
s(S'announced'
p1098
S'[[con]]'
p1099
tp1100
F0.0009881422924901185
s(S'had'
p1101
S'bought'
p1102
tp1103
F0.0009881422924901185
s(S'ship'
p1104
S'owned'
p1105
tp1106
F0.0029644268774703555
s(S'sold'
p1107
S'[[adj]]'
p1108
tp1109
F0.001976284584980237
s(S'operated'
p1110
S'[[num]]'
p1111
tp1112
F0.001976284584980237
s(S'was'
p1113
g809
tp1114
F0.003952569169960474
s(g207
S'by'
p1115
tp1116
F0.009881422924901186
s(S'broadcasts'
p1117
g37
tp1118
F0.0009881422924901185
s(S'[[adj]]'
p1119
S'established'
p1120
tp1121
F0.0009881422924901185
s(S'station'
p1122
S'of'
p1123
tp1124
F0.001976284584980237
s(S'established'
p1125
S'when'
p1126
tp1127
F0.0009881422924901185
s(S'wholly'
p1128
S'subsidiary'
p1129
tp1130
F0.0009881422924901185
s(S'[[adj]]'
p1131
S'subsidiary'
p1132
tp1133
F0.001976284584980237
s(S'was'
p1134
S'used'
p1135
tp1136
F0.004940711462450593
s(g47
S'for'
p1137
tp1138
F0.001976284584980237
s(S'built'
p1139
S'with'
p1140
tp1141
F0.0009881422924901185
s(S'built'
p1142
S'in'
p1143
tp1144
F0.001976284584980237
s(S'that'
p1145
S'be'
p1146
tp1147
F0.001976284584980237
s(S'operated'
p1148
S'when'
p1149
tp1150
F0.0009881422924901185
s(g171
S'as'
p1151
tp1152
F0.0009881422924901185
s(S'form'
p1153
S'of'
p1154
tp1155
F0.0009881422924901185
s(S'had'
p1156
S'owned'
p1157
tp1158
F0.0009881422924901185
s(S'sold'
p1159
S'to'
p1160
tp1161
F0.010869565217391304
s(S'[[adj]]'
p1162
S'selling'
p1163
tp1164
F0.0009881422924901185
s(S'ship'
p1165
S'for'
p1166
tp1167
F0.0009881422924901185
s(S'are'
p1168
S'owned'
p1169
tp1170
F0.0009881422924901185
s(g236
S'operated'
p1171
tp1172
F0.0009881422924901185
s(S'sold'
p1173
S'[[prp]]'
p1174
tp1175
F0.0009881422924901185
s(S'later'
p1176
g318
tp1177
F0.0029644268774703555
s(S'[[num]]'
p1178
S'built'
p1179
tp1180
F0.001976284584980237
s(S'sold'
p1181
S'back'
p1182
tp1183
F0.0009881422924901185
s(g460
S'[[con]]'
p1184
tp1185
F0.0009881422924901185
s(S'also'
p1186
g1107
tp1187
F0.003952569169960474
s(S'to'
p1188
g986
tp1189
F0.003952569169960474
s(g38
g996
tp1190
F0.0009881422924901185
s(S'display'
p1191
S'at'
p1192
tp1193
F0.001976284584980237
s(S'is'
p1194
S'wholly'
p1195
tp1196
F0.0009881422924901185
s(S'is'
p1197
g1058
tp1198
F0.005928853754940711
s(S'been'
p1199
S'published'
p1200
tp1201
F0.0009881422924901185
s(g710
g467
tp1202
F0.001976284584980237
s(S'later'
p1203
S'acquired'
p1204
tp1205
F0.0029644268774703555
s(S'[[adj]]'
p1206
g22
tp1207
F0.0029644268774703555
s(S'[[adj]]'
p1208
S'operated'
p1209
tp1210
F0.0009881422924901185
s(S'is'
p1211
g303
tp1212
F0.001976284584980237
s(S'which'
p1213
S'owned'
p1214
tp1215
F0.0009881422924901185
s(S'also'
p1216
S'operated'
p1217
tp1218
F0.003952569169960474
s(S'was'
p1219
g1125
tp1220
F0.008893280632411068
s(S'in'
p1221
S'service'
p1222
tp1223
F0.0009881422924901185
s(S'[[det]]'
p1224
S'announced'
p1225
tp1226
F0.0009881422924901185
s(S'only'
p1227
S'served'
p1228
tp1229
F0.0009881422924901185
s(g1200
S'by'
p1230
tp1231
F0.005928853754940711
s(S'been'
p1232
S'operated'
p1233
tp1234
F0.0009881422924901185
s(S'bought'
p1235
S'[[con]]'
p1236
tp1237
F0.0029644268774703555
s(S'campus'
p1238
S'of'
p1239
tp1240
F0.0009881422924901185
s.