(dp0
(S'be'
p1
S'operated'
p2
tp3
F0.014705882352941176
s(S'be'
p4
S'served'
p5
tp6
F0.014705882352941176
s(S'operated'
p7
S'with'
p8
tp9
F0.058823529411764705
s(S'now'
p10
S'operated'
p11
tp12
F0.014705882352941176
s(S'operated'
p13
S'on'
p14
tp15
F0.014705882352941176
s(S'terminus'
p16
S'of'
p17
tp18
F0.029411764705882353
s(S'also'
p19
S'served'
p20
tp21
F0.014705882352941176
s(S'operated'
p22
S'under'
p23
tp24
F0.014705882352941176
s(S'[[adj]]'
p25
g16
tp26
F0.04411764705882353
s(S'that'
p27
S'served'
p28
tp29
F0.014705882352941176
s(S'[[con]]'
p30
S'operated'
p31
tp32
F0.014705882352941176
s(S'which'
p33
S'served'
p34
tp35
F0.014705882352941176
s(S'operated'
p36
S'by'
p37
tp38
F0.17647058823529413
s(S'terminus'
p39
S'for'
p40
tp41
F0.029411764705882353
s(S'currently'
p42
S'operated'
p43
tp44
F0.014705882352941176
s(S'formerly'
p45
S'operated'
p46
tp47
F0.014705882352941176
s(S'operated'
p48
S'until'
p49
tp50
F0.014705882352941176
s(S'served'
p51
S'only'
p52
tp53
F0.014705882352941176
s(S'[[adj]]'
p54
S'operated'
p55
tp56
F0.014705882352941176
s(S'[[det]]'
p57
g39
tp58
F0.029411764705882353
s(S'is'
p59
g7
tp60
F0.07352941176470588
s(S'also'
p61
S'operated'
p62
tp63
F0.014705882352941176
s(S'is'
p64
S'served'
p65
tp66
F0.029411764705882353
s(S'[[num]]'
p67
S'operated'
p68
tp69
F0.029411764705882353
s(g65
S'by'
p70
tp71
F0.07352941176470588
s(S'only'
p72
S'served'
p73
tp74
F0.014705882352941176
s(S'been'
p75
S'served'
p76
tp77
F0.014705882352941176
s(S'was'
p78
S'operated'
p79
tp80
F0.014705882352941176
s(S'been'
p81
S'operated'
p82
tp83
F0.014705882352941176
s(S'terminus'
p84
S'at'
p85
tp86
F0.014705882352941176
s(S'are'
p87
S'operated'
p88
tp89
F0.014705882352941176
s(S'operated'
p90
S'[[con]]'
p91
tp92
F0.029411764705882353
s(g76
S'in'
p93
tp94
F0.029411764705882353
s(S'was'
p95
S'served'
p96
tp97
F0.014705882352941176
s(g34
S'with'
p98
tp99
F0.014705882352941176
s(S'[[det]]'
p100
S'operated'
p101
tp102
F0.029411764705882353
s.