(dp0
(S'form'
p1
S'as'
p2
tp3
F0.001652892561983471
s(S'was'
p4
S'taken'
p5
tp6
F0.001652892561983471
s(S'[[det]]'
p7
S'agreement'
p8
tp9
F0.003305785123966942
s(S'division'
p10
S'in'
p11
tp12
F0.001652892561983471
s(S'bought'
p13
S'from'
p14
tp15
F0.001652892561983471
s(S'[[pro]]'
p16
S'acquired'
p17
tp18
F0.001652892561983471
s(S'acquired'
p19
S'[[num]]'
p20
tp21
F0.003305785123966942
s(S'announced'
p22
S'[[pro]]'
p23
tp24
F0.001652892561983471
s(S'been'
p25
S'renamed'
p26
tp27
F0.0049586776859504135
s(S'also'
p28
S'bought'
p29
tp30
F0.001652892561983471
s(S'formed'
p31
S'[[con]]'
p32
tp33
F0.003305785123966942
s(S'venture'
p34
S'of'
p35
tp36
F0.001652892561983471
s(S'purchased'
p37
S'[[det]]'
p38
tp39
F0.003305785123966942
s(S'formed'
p40
S'after'
p41
tp42
F0.001652892561983471
s(S'to'
p43
S'form'
p44
tp45
F0.011570247933884297
s(S'been'
p46
S'acquired'
p47
tp48
F0.001652892561983471
s(S'is'
p49
S'wholly'
p50
tp51
F0.001652892561983471
s(S'[[num]]'
p52
S'sold'
p53
tp54
F0.003305785123966942
s(S'were'
p55
S'produced'
p56
tp57
F0.001652892561983471
s(S'renamed'
p58
S'of'
p59
tp60
F0.001652892561983471
s(S'renamed'
p61
S'[[det]]'
p62
tp63
F0.009917355371900827
s(S'produced'
p64
S'from'
p65
tp66
F0.001652892561983471
s(S'[[num]]'
p67
S'acquired'
p68
tp69
F0.001652892561983471
s(S'also'
p70
S'owned'
p71
tp72
F0.001652892561983471
s(S'parent'
p73
S'company'
p74
tp75
F0.013223140495867768
s(S'announced'
p76
S'[[mod]]'
p77
tp78
F0.001652892561983471
s(S'merged'
p79
S'to'
p80
tp81
F0.0049586776859504135
s(S'be'
p82
S'acquired'
p83
tp84
F0.001652892561983471
s(S'bought'
p85
S'back'
p86
tp87
F0.001652892561983471
s(S'formed'
p88
S'through'
p89
tp90
F0.003305785123966942
s(S'as'
p91
S'[[det]]'
p92
tp93
F0.0049586776859504135
s(S'distributed'
p94
S'by'
p95
tp96
F0.006611570247933884
s(S'sell'
p97
S'[[det]]'
p98
tp99
F0.003305785123966942
s(S'formed'
p100
S'when'
p101
tp102
F0.003305785123966942
s(S'is'
p103
S'sold'
p104
tp105
F0.001652892561983471
s(S'sold'
p106
S'[[pro]]'
p107
tp108
F0.001652892561983471
s(S'been'
p109
S'formed'
p110
tp111
F0.001652892561983471
s(S'form'
p112
S'part'
p113
tp114
F0.001652892561983471
s(S'with'
p115
S'[[det]]'
p116
tp117
F0.003305785123966942
s(S'purchased'
p118
S'[[con]]'
p119
tp120
F0.003305785123966942
s(S'acquired'
p121
S'[[pro]]'
p122
tp123
F0.001652892561983471
s(S'[[con]]'
p124
S'sold'
p125
tp126
F0.003305785123966942
s(S'[[adj]]'
p127
S'formed'
p128
tp129
F0.006611570247933884
s(S'[[con]]'
p130
S'acquired'
p131
tp132
F0.003305785123966942
s(S'began'
p133
S'as'
p134
tp135
F0.001652892561983471
s(S'merger'
p136
S'of'
p137
tp138
F0.013223140495867768
s(S'formed'
p139
S'in'
p140
tp141
F0.001652892561983471
s(S'based'
p142
S'in'
p143
tp144
F0.001652892561983471
s(S'[[num]]'
p145
S'owned'
p146
tp147
F0.001652892561983471
s(S'consortium'
p148
S'of'
p149
tp150
F0.003305785123966942
s(S'merged'
p151
S'from'
p152
tp153
F0.001652892561983471
s(S'was'
p154
g94
tp155
F0.003305785123966942
s(S'[[det]]'
p156
S'subsidiary'
p157
tp158
F0.009917355371900827
s(S'create'
p159
S'[[det]]'
p160
tp161
F0.001652892561983471
s(S'had'
p162
S'owned'
p163
tp164
F0.001652892561983471
s(S'were'
p165
S'merged'
p166
tp167
F0.001652892561983471
s(S'controlled'
p168
S'[[det]]'
p169
tp170
F0.001652892561983471
s(S'sold'
p171
S'[[num]]'
p172
tp173
F0.001652892561983471
s(S'[[det]]'
p174
S'merged'
p175
tp176
F0.001652892561983471
s(S'[[det]]'
p177
g136
tp178
F0.011570247933884297
s(S'be'
p179
S'produced'
p180
tp181
F0.001652892561983471
s(S'then'
p182
S'owned'
p183
tp184
F0.001652892561983471
s(S'has'
p185
S'sold'
p186
tp187
F0.001652892561983471
s(S'merged'
p188
S'[[det]]'
p189
tp190
F0.001652892561983471
s(S'being'
p191
S'acquired'
p192
tp193
F0.001652892561983471
s(S'[[det]]'
p194
S'division'
p195
tp196
F0.0049586776859504135
s(S'acquired'
p197
S'as'
p198
tp199
F0.001652892561983471
s(S'[[det]]'
p200
g148
tp201
F0.003305785123966942
s(S'produced'
p202
S'at'
p203
tp204
F0.001652892561983471
s(S'formed'
p205
S'as'
p206
tp207
F0.008264462809917356
s(S'owned'
p208
S'[[con]]'
p209
tp210
F0.006611570247933884
s(S'purchased'
p211
S'[[adj]]'
p212
tp213
F0.001652892561983471
s(S'sold'
p214
S'[[prp]]'
p215
tp216
F0.001652892561983471
s(S'then'
p217
S'bought'
p218
tp219
F0.003305785123966942
s(S'[[num]]'
p220
S'produced'
p221
tp222
F0.001652892561983471
s(g8
g97
tp223
F0.003305785123966942
s(S'from'
p224
S'[[det]]'
p225
tp226
F0.001652892561983471
s(S'purchased'
p227
S'in'
p228
tp229
F0.001652892561983471
s(S'be'
p230
S'distributed'
p231
tp232
F0.003305785123966942
s(S'after'
p233
S'bought'
p234
tp235
F0.001652892561983471
s(S'also'
p236
S'formed'
p237
tp238
F0.001652892561983471
s(S'merged'
p239
S'[[con]]'
p240
tp241
F0.006611570247933884
s(S'division'
p242
S'of'
p243
tp244
F0.0049586776859504135
s(S'then'
p245
S'renamed'
p246
tp247
F0.001652892561983471
s(S'established'
p248
g91
tp249
F0.001652892561983471
s(S'merged'
p250
S'with'
p251
tp252
F0.01487603305785124
s(S'when'
p253
S'bought'
p254
tp255
F0.001652892561983471
s(g89
S'[[det]]'
p256
tp257
F0.001652892561983471
s(S'purchased'
p258
S'by'
p259
tp260
F0.009917355371900827
s(S'sold'
p261
S'[[adj]]'
p262
tp263
F0.001652892561983471
s(S'purchased'
p264
S'[[num]]'
p265
tp266
F0.001652892561983471
s(S'when'
p267
S'sold'
p268
tp269
F0.001652892561983471
s(S'which'
p270
S'sold'
p271
tp272
F0.001652892561983471
s(S'were'
p273
S'taken'
p274
tp275
F0.001652892561983471
s(S'owned'
p276
S'by'
p277
tp278
F0.01652892561983471
s(S'when'
p279
S'acquired'
p280
tp281
F0.001652892561983471
s(S'bought'
p282
S'[[num]]'
p283
tp284
F0.001652892561983471
s(S'[[num]]'
p285
S'company'
p286
tp287
F0.001652892561983471
s(S'then'
p288
S'purchased'
p289
tp290
F0.001652892561983471
s(S'company'
p291
S'from'
p292
tp293
F0.001652892561983471
s(S'purchased'
p294
S'from'
p295
tp296
F0.0049586776859504135
s(S'was'
p297
S'sold'
p298
tp299
F0.001652892561983471
s(S'acquired'
p300
S'[[adj]]'
p301
tp302
F0.001652892561983471
s(S'was'
p303
S'acquired'
p304
tp305
F0.009917355371900827
s(S'later'
p306
S'acquired'
p307
tp308
F0.0049586776859504135
s(S'[[det]]'
p309
S'wholly'
p310
tp311
F0.009917355371900827
s(S'[[num]]'
p312
S'division'
p313
tp314
F0.001652892561983471
s(S'later'
p315
S'merged'
p316
tp317
F0.0049586776859504135
s(S'sold'
p318
S'off'
p319
tp320
F0.003305785123966942
s(S'sold'
p321
S'most'
p322
tp323
F0.001652892561983471
s(S'[[adj]]'
p324
S'venture'
p325
tp326
F0.009917355371900827
s(S'bought'
p327
S'for'
p328
tp329
F0.001652892561983471
s(S'formed'
p330
S'to'
p331
tp332
F0.001652892561983471
s(S'venture'
p333
S'between'
p334
tp335
F0.003305785123966942
s(S'was'
p336
g205
tp337
F0.024793388429752067
s(S'[[con]]'
p338
S'was'
p339
tp340
F0.001652892561983471
s(S'[[con]]'
p341
S'purchased'
p342
tp343
F0.001652892561983471
s(S'renamed'
p344
S'[[num]]'
p345
tp346
F0.001652892561983471
s(S'merged'
p347
S'in'
p348
tp349
F0.001652892561983471
s(S'formed'
p350
S'part'
p351
tp352
F0.001652892561983471
s(S'is'
p353
S'distributed'
p354
tp355
F0.003305785123966942
s(S'[[prp]]'
p356
S'subsidiary'
p357
tp358
F0.001652892561983471
s(S'division'
p359
S'[[det]]'
p360
tp361
F0.001652892561983471
s(S'been'
p362
S'owned'
p363
tp364
F0.001652892561983471
s(S'later'
p365
S'taken'
p366
tp367
F0.001652892561983471
s(S'venture'
p368
S'with'
p369
tp370
F0.001652892561983471
s(S'[[det]]'
p371
S'owned'
p372
tp373
F0.001652892561983471
s(S'of'
p374
S'division'
p375
tp376
F0.001652892561983471
s(g134
S'[[adj]]'
p377
tp378
F0.001652892561983471
s(S'be'
p379
S'taken'
p380
tp381
F0.001652892561983471
s(S'later'
p382
S'renamed'
p383
tp384
F0.009917355371900827
s(S'was'
p385
g344
tp386
F0.01487603305785124
s(S'was'
p387
S'announced'
p388
tp389
F0.003305785123966942
s(S'now'
p390
S'owned'
p391
tp392
F0.003305785123966942
s(S'announced'
p393
S'[[prp]]'
p394
tp395
F0.001652892561983471
s(S'company'
p396
S'for'
p397
tp398
F0.001652892561983471
s(S'were'
p399
S'acquired'
p400
tp401
F0.003305785123966942
s(S'be'
p402
g61
tp403
F0.001652892561983471
s(S'announced'
p404
S'was'
p405
tp406
F0.001652892561983471
s(S'also'
p407
S'purchased'
p408
tp409
F0.001652892561983471
s(S'had'
p410
S'merged'
p411
tp412
F0.003305785123966942
s(S'[[con]]'
p413
S'formed'
p414
tp415
F0.003305785123966942
s(S'acquired'
p416
S'to'
p417
tp418
F0.001652892561983471
s(S'bought'
p419
S'[[adj]]'
p420
tp421
F0.001652892561983471
s(S'which'
p422
S'merged'
p423
tp424
F0.001652892561983471
s(S'[[con]]'
p425
S'merged'
p426
tp427
F0.006611570247933884
s(S'is'
p428
S'controlled'
p429
tp430
F0.001652892561983471
s(S'to'
p431
g159
tp432
F0.003305785123966942
s(S'renamed'
p433
S'[[con]]'
p434
tp435
F0.003305785123966942
s(S'formed'
p436
g115
tp437
F0.003305785123966942
s(S'been'
p438
S'taken'
p439
tp440
F0.001652892561983471
s(S'renamed'
p441
S'[[pro]]'
p442
tp443
F0.001652892561983471
s(S'is'
p444
S'renamed'
p445
tp446
F0.003305785123966942
s(S'had'
p447
S'bought'
p448
tp449
F0.001652892561983471
s(S'form'
p450
S'in'
p451
tp452
F0.001652892561983471
s(S'which'
p453
S'acquired'
p454
tp455
F0.001652892561983471
s(S'renamed'
p456
S'in'
p457
tp458
F0.0049586776859504135
s(S'company'
p459
S'in'
p460
tp461
F0.001652892561983471
s(S'has'
p462
S'bought'
p463
tp464
F0.001652892561983471
s(S'be'
p465
S'merged'
p466
tp467
F0.0049586776859504135
s(S'had'
p468
S'acquired'
p469
tp470
F0.006611570247933884
s(S'be'
p471
S'purchased'
p472
tp473
F0.001652892561983471
s(S's'
p474
S'subsidiary'
p475
tp476
F0.001652892561983471
s(S'wholly'
p477
S'subsidiary'
p478
tp479
F0.001652892561983471
s(S'[[adj]]'
p480
S'subsidiary'
p481
tp482
F0.003305785123966942
s(S'[[det]]'
p483
S'company'
p484
tp485
F0.006611570247933884
s(S'was'
p486
S'purchased'
p487
tp488
F0.006611570247933884
s(S'of'
p489
S'is'
p490
tp491
F0.001652892561983471
s(S'merged'
p492
S'[[prp]]'
p493
tp494
F0.001652892561983471
s(S'then'
p495
S'sold'
p496
tp497
F0.003305785123966942
s(S'being'
p498
S'produced'
p499
tp500
F0.001652892561983471
s(S'sold'
p501
S'[[con]]'
p502
tp503
F0.001652892561983471
s(S'sold'
p504
S'[[det]]'
p505
tp506
F0.003305785123966942
s(g474
S'division'
p507
tp508
F0.001652892561983471
s(S'been'
p509
S'purchased'
p510
tp511
F0.001652892561983471
s(S'[[adj]]'
p512
S'division'
p513
tp514
F0.0049586776859504135
s(S'were'
p515
S'bought'
p516
tp517
F0.001652892561983471
s(g469
S'[[con]]'
p518
tp519
F0.008264462809917356
s(S'formed'
p520
S'by'
p521
tp522
F0.006611570247933884
s(S'form'
p523
S'[[num]]'
p524
tp525
F0.001652892561983471
s(S'had'
p526
S'sold'
p527
tp528
F0.001652892561983471
s(S'parent'
p529
S'of'
p530
tp531
F0.001652892561983471
s(S'being'
p532
S'sold'
p533
tp534
F0.001652892561983471
s(S'[[adj]]'
p535
g1
tp536
F0.001652892561983471
s(g44
S'[[con]]'
p537
tp538
F0.001652892561983471
s(S'reached'
p539
g7
tp540
F0.003305785123966942
s(S'company'
p541
S'[[con]]'
p542
tp543
F0.003305785123966942
s(S'subsidiary'
p544
S'of'
p545
tp546
F0.019834710743801654
s(S'company'
p547
S'of'
p548
tp549
F0.0049586776859504135
s(S'announced'
p550
S'[[adj]]'
p551
tp552
F0.001652892561983471
s(g429
S'by'
p553
tp554
F0.0049586776859504135
s(S'were'
p555
g501
tp556
F0.001652892561983471
s(S'form'
p557
S'of'
p558
tp559
F0.001652892561983471
s(S'was'
p560
S'controlled'
p561
tp562
F0.001652892561983471
s(S'was'
p563
g239
tp564
F0.009917355371900827
s(S'sold'
p565
S'to'
p566
tp567
F0.01487603305785124
s(S'later'
p568
S'bought'
p569
tp570
F0.003305785123966942
s(S'were'
p571
g258
tp572
F0.003305785123966942
s(S'was'
p573
g64
tp574
F0.0049586776859504135
s(S'had'
p575
g539
tp576
F0.003305785123966942
s(S'[[con]]'
p577
S'owned'
p578
tp579
F0.001652892561983471
s(S'announced'
p580
S'that'
p581
tp582
F0.006611570247933884
s(g474
S'parent'
p583
tp584
F0.003305785123966942
s(S'when'
p585
S'merged'
p586
tp587
F0.003305785123966942
s(S'acquired'
p588
S'[[prp]]'
p589
tp590
F0.001652892561983471
s(S'when'
p591
S'purchased'
p592
tp593
F0.001652892561983471
s(S'[[det]]'
p594
S'trading'
p595
tp596
F0.001652892561983471
s(g383
S'as'
p597
tp598
F0.006611570247933884
s(S'was'
p599
S'bought'
p600
tp601
F0.006611570247933884
s(S'company'
p602
S'after'
p603
tp604
F0.001652892561983471
s(S'bought'
p605
S'[[pro]]'
p606
tp607
F0.001652892561983471
s(S'acquired'
p608
S'in'
p609
tp610
F0.001652892561983471
s(S'formed'
p611
S'[[det]]'
p612
tp613
F0.0049586776859504135
s(S'sold'
p614
S'back'
p615
tp616
F0.001652892561983471
s(S'later'
p617
S'purchased'
p618
tp619
F0.003305785123966942
s(S'has'
p620
S'acquired'
p621
tp622
F0.001652892561983471
s(S'distributed'
p623
S'through'
p624
tp625
F0.001652892561983471
s(S'that'
p626
g575
tp627
F0.001652892561983471
s(S'[[adj]]'
p628
g602
tp629
F0.009917355371900827
s(S'then'
p630
S'merged'
p631
tp632
F0.003305785123966942
s(S'bought'
p633
S'out'
p634
tp635
F0.003305785123966942
s(S'acquired'
p636
S'from'
p637
tp638
F0.0049586776859504135
s(S'owned'
p639
S'[[num]]'
p640
tp641
F0.003305785123966942
s(S'company'
p642
S'to'
p643
tp644
F0.003305785123966942
s(S'also'
p645
S'acquired'
p646
tp647
F0.0049586776859504135
s(g600
S'by'
p648
tp649
F0.0049586776859504135
s(g325
S'[[con]]'
p650
tp651
F0.001652892561983471
s(g521
S'merger'
p652
tp653
F0.001652892561983471
s(S'formed'
p654
S'under'
p655
tp656
F0.003305785123966942
s(S'also'
p657
S'sold'
p658
tp659
F0.003305785123966942
s(S'[[det]]'
p660
S'sold'
p661
tp662
F0.001652892561983471
s(S'owned'
p663
S'subsidiary'
p664
tp665
F0.011570247933884297
s(S'[[det]]'
p666
S'acquired'
p667
tp668
F0.001652892561983471
s(S'subsidiary'
p669
S'[[con]]'
p670
tp671
F0.001652892561983471
s(S'then'
p672
S'acquired'
p673
tp674
F0.001652892561983471
s(g316
S'into'
p675
tp676
F0.011570247933884297
s(S'has'
p677
g580
tp678
F0.003305785123966942
s(S'acquired'
p679
S'[[det]]'
p680
tp681
F0.0049586776859504135
s(S'be'
p682
S'sold'
p683
tp684
F0.003305785123966942
s(g400
S'by'
p685
tp686
F0.01818181818181818
s(S'formerly'
p687
S'owned'
p688
tp689
F0.0049586776859504135
s(S'was'
p690
S'owned'
p691
tp692
F0.003305785123966942
s(S'later'
p693
g565
tp694
F0.003305785123966942
s(S'is'
p695
g520
tp696
F0.008264462809917356
s(S'[[con]]'
p697
S'company'
p698
tp699
F0.001652892561983471
s(g313
S'[[con]]'
p700
tp701
F0.001652892561983471
s(S'[[con]]'
p702
S'[[det]]'
p703
tp704
F0.003305785123966942
s(S'were'
p705
g31
tp706
F0.003305785123966942
s(S'by'
p707
S'[[det]]'
p708
tp709
F0.0049586776859504135
s(S'which'
p710
S'owned'
p711
tp712
F0.001652892561983471
s(S'[[adj]]'
p713
S'parent'
p714
tp715
F0.003305785123966942
s(g104
S'at'
p716
tp717
F0.001652892561983471
s(S'formed'
p718
S'on'
p719
tp720
F0.001652892561983471
s(S'was'
p721
g248
tp722
F0.001652892561983471
s(S'of'
p723
g142
tp724
F0.001652892561983471
s(S'acquired'
p725
S'with'
p726
tp727
F0.001652892561983471
s(S'formed'
p728
g224
tp729
F0.001652892561983471
s(S'[[det]]'
p730
S'parent'
p731
tp732
F0.006611570247933884
s(g439
S'over'
p733
tp734
F0.009917355371900827
s(g445
S'from'
p735
tp736
F0.001652892561983471
s(S'[[det]]'
p737
S'produced'
p738
tp739
F0.003305785123966942
s(S'operates'
p740
S'as'
p741
tp742
F0.001652892561983471
s(g670
S'were'
p743
tp744
F0.001652892561983471
s(S'[[det]]'
p745
S'renamed'
p746
tp747
F0.001652892561983471
s(S'[[det]]'
p748
S'announced'
p749
tp750
F0.001652892561983471
s(g643
g200
tp751
F0.003305785123966942
s(S'[[prp]]'
p752
S'parent'
p753
tp754
F0.001652892561983471
s(S'is'
p755
S'produced'
p756
tp757
F0.001652892561983471
s(S'were'
p758
S'renamed'
p759
tp760
F0.003305785123966942
s(S'renamed'
p761
S'to'
p762
tp763
F0.003305785123966942
s(g388
S'[[det]]'
p764
tp765
F0.001652892561983471
s(g490
g276
tp766
F0.0049586776859504135
s(S'bought'
p767
S'[[con]]'
p768
tp769
F0.0049586776859504135
s(S'later'
p770
S'owned'
p771
tp772
F0.001652892561983471
s(S'form'
p773
S'[[det]]'
p774
tp775
F0.001652892561983471
s(g310
g663
tp776
F0.01487603305785124
s(S'had'
p777
g37
tp778
F0.0049586776859504135
s(g738
S'by'
p779
tp780
F0.011570247933884297
s.