(dp0
(S'[[pro]]'
p1
S'wife'
p2
tp3
F0.0003363605785401951
s(S'born'
p4
S'of'
p5
tp6
F0.0006727211570803902
s(S'born'
p7
S'was'
p8
tp9
F0.0010090817356205853
s(S'child'
p10
S'to'
p11
tp12
F0.0003363605785401951
s(S'patron'
p13
S'[[num]]'
p14
tp15
F0.0003363605785401951
s(S'oldest'
p16
S'son'
p17
tp18
F0.0020181634712411706
s(S'[[pro]]'
p19
S'married'
p20
tp21
F0.0003363605785401951
s(S'only'
p22
S'daughter'
p23
tp24
F0.0006727211570803902
s(S'brother'
p25
S'was'
p26
tp27
F0.0006727211570803902
s(S'gave'
p28
S'up'
p29
tp30
F0.0006727211570803902
s(S'son'
p31
S'of'
p32
tp33
F0.027245206861755803
s(S'list'
p34
S'[[con]]'
p35
tp36
F0.0003363605785401951
s(S'overthrow'
p37
S'of'
p38
tp39
F0.0006727211570803902
s(S'married'
p40
S'when'
p41
tp42
F0.0006727211570803902
s(S'succeeded'
p43
S'[[prp]]'
p44
tp45
F0.0026908846283215607
s(S'wife'
p46
S'of'
p47
tp48
F0.004036326942482341
s(S'[[adj]]'
p49
S'oldest'
p50
tp51
F0.0003363605785401951
s(S'married'
p52
S'[[num]]'
p53
tp54
F0.0010090817356205853
s(S'[[det]]'
p55
S'children'
p56
tp57
F0.0013454423141607804
s(S'grew'
p58
S'up'
p59
tp60
F0.0003363605785401951
s(S'gt'
p61
S'married'
p62
tp63
F0.0006727211570803902
s(S'was'
p64
S'attended'
p65
tp66
F0.0003363605785401951
s(S'kept'
p67
S'[[prp]]'
p68
tp69
F0.0003363605785401951
s(S'where'
p70
S'played'
p71
tp72
F0.0003363605785401951
s(S'with'
p73
S'father'
p74
tp75
F0.0003363605785401951
s(S'[[det]]'
p76
S'reign'
p77
tp78
F0.0006727211570803902
s(S'born'
p79
S'lt'
p80
tp81
F0.0006727211570803902
s(S'cousin'
p82
S'who'
p83
tp84
F0.0003363605785401951
s(S'c'
p85
S'[[num]]'
p86
tp87
F0.0003363605785401951
s(S'son'
p88
S'[[det]]'
p89
tp90
F0.003699966363942146
s(S'[[prp]]'
p91
S'cousin'
p92
tp93
F0.0006727211570803902
s(S'daughter'
p94
S'with'
p95
tp96
F0.0006727211570803902
s(S'of'
p97
S'lt'
p98
tp99
F0.0010090817356205853
s(S'to'
p100
S'brother'
p101
tp102
F0.0003363605785401951
s(S'wife'
p103
S'[[con]]'
p104
tp105
F0.004036326942482341
s(S'to'
p106
S'daughter'
p107
tp108
F0.0006727211570803902
s(S'son'
p109
S'[[prp]]'
p110
tp111
F0.0003363605785401951
s(S'[[con]]'
p112
S'born'
p113
tp114
F0.0003363605785401951
s(S's'
p115
S'son'
p116
tp117
F0.006054490413723511
s(S'twice'
p118
S'married'
p119
tp120
F0.0006727211570803902
s(S'died'
p121
S'in'
p122
tp123
F0.0006727211570803902
s(S'[[adj]]'
p124
S'manager'
p125
tp126
F0.0003363605785401951
s(S'page'
p127
S'[[num]]'
p128
tp129
F0.0023545240497813654
s(S'father'
p130
S'as'
p131
tp132
F0.0013454423141607804
s(g115
S'grandson'
p133
tp134
F0.0010090817356205853
s(S'now'
p135
S'married'
p136
tp137
F0.0003363605785401951
s(S'[[adj]]'
p138
S'history'
p139
tp140
F0.0003363605785401951
s(S'wife'
p141
S'to'
p142
tp143
F0.0010090817356205853
s(S'[[det]]'
p144
S'elder'
p145
tp146
F0.0006727211570803902
s(S'out'
p147
S'lt'
p148
tp149
F0.0003363605785401951
s(S'grandson'
p150
S'of'
p151
tp152
F0.0016818028927009755
s(S'also'
p153
S'gave'
p154
tp155
F0.0010090817356205853
s(S'married'
p156
S'[[adj]]'
p157
tp158
F0.0013454423141607804
s(S'being'
p159
S'succeeded'
p160
tp161
F0.0003363605785401951
s(g92
S'[[con]]'
p162
tp163
F0.0016818028927009755
s(S'gave'
p164
S'[[det]]'
p165
tp166
F0.0006727211570803902
s(S'[[num]]'
p167
S'born'
p168
tp169
F0.0013454423141607804
s(S'married'
p170
S'after'
p171
tp172
F0.0003363605785401951
s(S'al'
p173
S'p'
p174
tp175
F0.0003363605785401951
s(S'by'
p176
S'[[adj]]'
p177
tp178
F0.0010090817356205853
s(S'[[prp]]'
p179
S'children'
p180
tp181
F0.0006727211570803902
s(S'said'
p182
S'lt'
p183
tp184
F0.0006727211570803902
s(S'grandson'
p185
S'to'
p186
tp187
F0.0003363605785401951
s(S'[[num]]'
p188
S'succeeded'
p189
tp190
F0.0006727211570803902
s(S'is'
p191
S'mother'
p192
tp193
F0.0006727211570803902
s(g133
S'[[con]]'
p194
tp195
F0.0006727211570803902
s(S'kept'
p196
S'[[adj]]'
p197
tp198
F0.0006727211570803902
s(S'tributary'
p199
S'[[det]]'
p200
tp201
F0.0006727211570803902
s(S'succeeded'
p202
S'after'
p203
tp204
F0.0003363605785401951
s(S'name'
p205
S'gt'
p206
tp207
F0.006054490413723511
s(S'cousin'
p208
S'[[num]]'
p209
tp210
F0.0006727211570803902
s(S'gt'
p211
S'had'
p212
tp213
F0.0006727211570803902
s(S'died'
p214
S'[[adj]]'
p215
tp216
F0.0003363605785401951
s(S'[[adj]]'
p217
S'grandson'
p218
tp219
F0.0006727211570803902
s(S'[[prp]]'
p220
S'grandson'
p221
tp222
F0.0003363605785401951
s(S'[[prp]]'
p223
g25
tp224
F0.0023545240497813654
s(S'daughter'
p225
S'[[con]]'
p226
tp227
F0.005718129835183316
s(S'younger'
p228
S'son'
p229
tp230
F0.0030272452068617556
s(S'[[det]]'
p231
S'cousin'
p232
tp233
F0.0020181634712411706
s(S'of'
p234
S'brother'
p235
tp236
F0.0003363605785401951
s(S'[[det]]'
p237
S'heir'
p238
tp239
F0.0016818028927009755
s(S'formerly'
p240
S'married'
p241
tp242
F0.0003363605785401951
s(S'later'
p243
S'gave'
p244
tp245
F0.0003363605785401951
s(S'born'
p246
S'[[num]]'
p247
tp248
F0.003363605785401951
s(S'had'
p249
S'succeeded'
p250
tp251
F0.0016818028927009755
s(S'gt'
p252
S'[[det]]'
p253
tp254
F0.0023545240497813654
s(S'[[det]]'
p255
S'throne'
p256
tp257
F0.0003363605785401951
s(S'daughter'
p258
S'who'
p259
tp260
F0.0006727211570803902
s(S'then'
p261
S'gave'
p262
tp263
F0.0010090817356205853
s(S'with'
p264
S'[[prp]]'
p265
tp266
F0.0003363605785401951
s(S'[[adj]]'
p267
S'works'
p268
tp269
F0.0003363605785401951
s(S'lt'
p270
S'gt'
p271
tp272
F0.0026908846283215607
s(S'born'
p273
S'[[det]]'
p274
tp275
F0.0020181634712411706
s(S'lived'
p276
S'in'
p277
tp278
F0.0003363605785401951
s(g115
S'reign'
p279
tp280
F0.0010090817356205853
s(S'younger'
p281
S'[[num]]'
p282
tp283
F0.0003363605785401951
s(S'worked'
p284
S'with'
p285
tp286
F0.0006727211570803902
s(S'married'
p287
S'by'
p288
tp289
F0.0006727211570803902
s(S'on'
p290
S'death'
p291
tp292
F0.0003363605785401951
s(S'surviving'
p293
S'child'
p294
tp295
F0.0010090817356205853
s(S'gt'
p296
S'along'
p297
tp298
F0.0003363605785401951
s(S'gt'
p299
S'has'
p300
tp301
F0.0006727211570803902
s(S'in'
p302
S'lt'
p303
tp304
F0.0020181634712411706
s(S'is'
p305
S'brother'
p306
tp307
F0.0010090817356205853
s(S'married'
p308
S'with'
p309
tp310
F0.0010090817356205853
s(S'already'
p311
S'married'
p312
tp313
F0.0003363605785401951
s(S'started'
p314
g147
tp315
F0.0003363605785401951
s(S'[[prp]]'
p316
S'[[adj]]'
p317
tp318
F0.0003363605785401951
s(S'grandson'
p319
S'[[det]]'
p320
tp321
F0.0010090817356205853
s(S'[[adj]]'
p322
S'parish'
p323
tp324
F0.0003363605785401951
s(S'[[prp]]'
p325
S'younger'
p326
tp327
F0.0003363605785401951
s(S'of'
p328
S'wife'
p329
tp330
F0.0006727211570803902
s(S'daughter'
p331
S'wife'
p332
tp333
F0.0006727211570803902
s(S'of'
p334
S'death'
p335
tp336
F0.0003363605785401951
s(S'[[adj]]'
p337
S'gave'
p338
tp339
F0.0003363605785401951
s(S'[[con]]'
p340
S'sons'
p341
tp342
F0.0003363605785401951
s(S'lt'
p343
S'lt'
p344
tp345
F0.0003363605785401951
s(S'after'
p346
S'death'
p347
tp348
F0.0003363605785401951
s(g115
S'youngest'
p349
tp350
F0.0006727211570803902
s(g297
S'[[prp]]'
p351
tp352
F0.0003363605785401951
s(S'when'
p353
S'died'
p354
tp355
F0.0003363605785401951
s(S'[[adj]]'
p356
S'emperor'
p357
tp358
F0.0010090817356205853
s(S'wife'
p359
S'[[num]]'
p360
tp361
F0.0006727211570803902
s(S'[[adj]]'
p362
S'children'
p363
tp364
F0.0030272452068617556
s(S'son'
p365
S'born'
p366
tp367
F0.0013454423141607804
s(S'more'
p368
S'children'
p369
tp370
F0.0010090817356205853
s(S'wife'
p371
S'[[adj]]'
p372
tp373
F0.0010090817356205853
s(S'mother'
p374
S'to'
p375
tp376
F0.0010090817356205853
s(S'became'
p377
S'emperor'
p378
tp379
F0.0006727211570803902
s(S'of'
p380
S'mother'
p381
tp382
F0.0003363605785401951
s(S'married'
p383
S'in'
p384
tp385
F0.0003363605785401951
s(S'gt'
p386
S'ref'
p387
tp388
F0.0003363605785401951
s(S'gave'
p389
S'[[con]]'
p390
tp391
F0.0003363605785401951
s(S'awarded'
p392
S'lt'
p393
tp394
F0.0003363605785401951
s(S'graduate'
p395
g97
tp396
F0.0003363605785401951
s(S'[[det]]'
p397
S'sons'
p398
tp399
F0.0010090817356205853
s(S'kept'
p400
S'by'
p401
tp402
F0.0006727211570803902
s(g139
S'for'
p403
tp404
F0.0003363605785401951
s(S'was'
p405
S'daughter'
p406
tp407
F0.0006727211570803902
s(S'wife'
p408
S'had'
p409
tp410
F0.0003363605785401951
s(S'[[con]]'
p411
S'children'
p412
tp413
F0.0003363605785401951
s(S'gave'
p414
S'to'
p415
tp416
F0.0010090817356205853
s(S'kept'
p417
S'[[det]]'
p418
tp419
F0.0003363605785401951
s(S'election'
p420
S'[[num]]'
p421
tp422
F0.0003363605785401951
s(S'married'
p423
S'had'
p424
tp425
F0.0003363605785401951
s(S'sons'
p426
S'who'
p427
tp428
F0.0003363605785401951
s(S'who'
p429
S'succeeded'
p430
tp431
F0.0003363605785401951
s(S'by'
p432
S'wife'
p433
tp434
F0.0003363605785401951
s(S'also'
p435
S'succeeded'
p436
tp437
F0.0010090817356205853
s(g115
S'father'
p438
tp439
F0.0030272452068617556
s(S'mother'
p440
S'was'
p441
tp442
F0.0006727211570803902
s(S'succeeded'
p443
S'with'
p444
tp445
F0.0003363605785401951
s(S'gave'
p446
S'[[prp]]'
p447
tp448
F0.0006727211570803902
s(S'[[pro]]'
p449
S'daughter'
p450
tp451
F0.0003363605785401951
s(S'studied'
p452
S'[[con]]'
p453
tp454
F0.0003363605785401951
s(S'[[det]]'
p455
g395
tp456
F0.0003363605785401951
s(S'married'
p457
S'on'
p458
tp459
F0.0006727211570803902
s(S'father'
p460
S'to'
p461
tp462
F0.0016818028927009755
s(S'mother'
p463
S'that'
p464
tp465
F0.0003363605785401951
s(S'gt'
p466
S'[[pro]]'
p467
tp468
F0.0003363605785401951
s(S'[[adj]]'
p469
S'son'
p470
tp471
F0.013118062563067608
s(S'born'
p472
S'into'
p473
tp474
F0.0003363605785401951
s(S'married'
p475
S'[[det]]'
p476
tp477
F0.0023545240497813654
s(S'gt'
p478
S'pp'
p479
tp480
F0.0003363605785401951
s(S'[[con]]'
p481
S'joined'
p482
tp483
F0.0003363605785401951
s(S'brother'
p484
S'to'
p485
tp486
F0.0023545240497813654
s(S'to'
p487
S'wife'
p488
tp489
F0.0003363605785401951
s(g125
S'lt'
p490
tp491
F0.0003363605785401951
s(S'fathered'
p492
S'by'
p493
tp494
F0.0003363605785401951
s(S'by'
p495
S'[[prp]]'
p496
tp497
F0.0013454423141607804
s(S'[[adj]]'
p498
S'king'
p499
tp500
F0.0006727211570803902
s(S'tributary'
p501
S'[[con]]'
p502
tp503
F0.0003363605785401951
s(g369
S'[[det]]'
p504
tp505
F0.0013454423141607804
s(S'inherited'
p506
g255
tp507
F0.0003363605785401951
s(S'is'
p508
S'succeeded'
p509
tp510
F0.0006727211570803902
s(S'of'
p511
S'children'
p512
tp513
F0.0003363605785401951
s(S'then'
p514
S'succeeded'
p515
tp516
F0.0010090817356205853
s(S'[[con]]'
p517
S'son'
p518
tp519
F0.0016818028927009755
s(S'born'
p520
S'[[con]]'
p521
tp522
F0.0026908846283215607
s(S'is'
p523
S'reported'
p524
tp525
F0.0003363605785401951
s(S'children'
p526
S'from'
p527
tp528
F0.0003363605785401951
s(S'is'
p529
S'[[det]]'
p530
tp531
F0.0006727211570803902
s(S'[[det]]'
p532
S'subrange'
p533
tp534
F0.0006727211570803902
s(S'of'
p535
S'actor'
p536
tp537
F0.0010090817356205853
s(S'cousin'
p538
S'to'
p539
tp540
F0.0013454423141607804
s(g115
S'oldest'
p541
tp542
F0.0010090817356205853
s(S'brought'
p543
S'[[pro]]'
p544
tp545
F0.0003363605785401951
s(S'of'
p546
S'[[con]]'
p547
tp548
F0.0006727211570803902
s(S'to'
p549
S'play'
p550
tp551
F0.0003363605785401951
s(S'wife'
p552
S'with'
p553
tp554
F0.0003363605785401951
s(S'of'
p555
S'daughter'
p556
tp557
F0.0003363605785401951
s(S'of'
p558
S'sons'
p559
tp560
F0.0003363605785401951
s(S'[[num]]'
p561
S'sons'
p562
tp563
F0.0023545240497813654
s(S'is'
p564
S'given'
p565
tp566
F0.0003363605785401951
s(S'brother'
p567
S'[[pro]]'
p568
tp569
F0.0003363605785401951
s(S'children'
p570
S'by'
p571
tp572
F0.0006727211570803902
s(S'hit'
p573
S'lt'
p574
tp575
F0.0003363605785401951
s(S'with'
p576
S'child'
p577
tp578
F0.0003363605785401951
s(S'[[prp]]'
p579
S'wife'
p580
tp581
F0.007736293306424487
s(S'called'
p582
S'[[det]]'
p583
tp584
F0.0003363605785401951
s(S'died'
p585
g264
tp586
F0.0003363605785401951
s(S'studied'
p587
g302
tp588
F0.0003363605785401951
s(S'as'
p589
S'[[det]]'
p590
tp591
F0.0006727211570803902
s(S'married'
p592
S'at'
p593
tp594
F0.0003363605785401951
s(S'gt'
p595
g543
tp596
F0.0003363605785401951
s(S'before'
p597
S'death'
p598
tp599
F0.0003363605785401951
s(S'to'
p600
g573
tp601
F0.0003363605785401951
s(S'son'
p602
S'whom'
p603
tp604
F0.0006727211570803902
s(S'father'
p605
S'[[pro]]'
p606
tp607
F0.0003363605785401951
s(S'currently'
p608
S'married'
p609
tp610
F0.0003363605785401951
s(S'[[adj]]'
p611
S'actor'
p612
tp613
F0.0006727211570803902
s(S'emperor'
p614
S'as'
p615
tp616
F0.0006727211570803902
s(S'born'
p617
g85
tp618
F0.0003363605785401951
s(S'son'
p619
S'later'
p620
tp621
F0.0006727211570803902
s(S'with'
p622
S'daughter'
p623
tp624
F0.0003363605785401951
s(S'with'
p625
S'include'
p626
tp627
F0.0003363605785401951
s(S'father'
p628
S'[[con]]'
p629
tp630
F0.0023545240497813654
s(S'was'
p631
S'father'
p632
tp633
F0.0010090817356205853
s(S'[[con]]'
p634
S'gave'
p635
tp636
F0.0020181634712411706
s(S'in'
p637
S'daughter'
p638
tp639
F0.0003363605785401951
s(S'daughter'
p640
S'of'
p641
tp642
F0.016145307769929364
s(S'son'
p643
S'[[pro]]'
p644
tp645
F0.0013454423141607804
s(S'[[adj]]'
p646
S'brother'
p647
tp648
F0.0013454423141607804
s(S'death'
p649
S'[[num]]'
p650
tp651
F0.0003363605785401951
s(S'on'
p652
S'[[num]]'
p653
tp654
F0.0003363605785401951
s(S'succeeded'
p655
S'[[pro]]'
p656
tp657
F0.0013454423141607804
s(S'brother'
p658
S'[[adj]]'
p659
tp660
F0.0006727211570803902
s(S'youngest'
p661
S'son'
p662
tp663
F0.0016818028927009755
s(S'get'
p664
S'married'
p665
tp666
F0.0006727211570803902
s(S'reign'
p667
S'of'
p668
tp669
F0.0006727211570803902
s(S'gt'
p670
S'also'
p671
tp672
F0.0003363605785401951
s(S'gave'
p673
S'[[adj]]'
p674
tp675
F0.0010090817356205853
s(S'where'
p676
S'succeeded'
p677
tp678
F0.0003363605785401951
s(S'mother'
p679
g115
tp680
F0.0003363605785401951
s(S'gt'
p681
S'name'
p682
tp683
F0.0003363605785401951
s(S'daughter'
p684
S'by'
p685
tp686
F0.0016818028927009755
s(S'[[adj]]'
p687
S'tributary'
p688
tp689
F0.0010090817356205853
s(S'[[con]]'
p690
g579
tp691
F0.0030272452068617556
s(S'of'
p692
S'king'
p693
tp694
F0.0003363605785401951
s(S'gt'
p695
S'on'
p696
tp697
F0.0003363605785401951
s(S'child'
p698
S'of'
p699
tp700
F0.004709048099562731
s(S'[[det]]'
p701
S'actors'
p702
tp703
F0.0006727211570803902
s(S'that'
p704
S'lt'
p705
tp706
F0.0006727211570803902
s(S'had'
p707
g592
tp708
F0.0020181634712411706
s(S'[[adj]]'
p709
g420
tp710
F0.0003363605785401951
s(S'actor'
p711
S'[[con]]'
p712
tp713
F0.0003363605785401951
s(S'eldest'
p714
S'[[adj]]'
p715
tp716
F0.0006727211570803902
s(g115
S'eldest'
p717
tp718
F0.0010090817356205853
s(S'son'
p719
S'known'
p720
tp721
F0.0003363605785401951
s(S'married'
p722
S'who'
p723
tp724
F0.0003363605785401951
s(S'married'
p725
S'd'
p726
tp727
F0.0003363605785401951
s(S'married'
p728
S'first'
p729
tp730
F0.0013454423141607804
s(S'whose'
p731
S'son'
p732
tp733
F0.0003363605785401951
s(g521
S'[[det]]'
p734
tp735
F0.0023545240497813654
s(S'name'
p736
S'[[adj]]'
p737
tp738
F0.0003363605785401951
s(S'[[det]]'
p739
S'brother'
p740
tp741
F0.0030272452068617556
s(S'daughter'
p742
S'[[pro]]'
p743
tp744
F0.0003363605785401951
s(S'father'
p745
S'was'
p746
tp747
F0.0016818028927009755
s(S'to'
p748
S'lt'
p749
tp750
F0.0003363605785401951
s(S'actors'
p751
S'[[con]]'
p752
tp753
F0.0013454423141607804
s(g682
g564
tp754
F0.0003363605785401951
s(S'[[con]]'
p755
S'was'
p756
tp757
F0.0013454423141607804
s(S'to'
p758
S'parents'
p759
tp760
F0.0010090817356205853
s(S'[[pro]]'
p761
S'brother'
p762
tp763
F0.0006727211570803902
s(S'of'
p764
S'[[num]]'
p765
tp766
F0.0003363605785401951
s(S'name'
p767
S'[[det]]'
p768
tp769
F0.0003363605785401951
s(S'father'
p770
S'of'
p771
tp772
F0.0020181634712411706
s(S'[[adj]]'
p773
g374
tp774
F0.0013454423141607804
s(S'been'
p775
S'married'
p776
tp777
F0.0010090817356205853
s(S'as'
p778
S'[[adj]]'
p779
tp780
F0.0003363605785401951
s(S'of'
p781
S'reign'
p782
tp783
F0.0003363605785401951
s(S'whose'
p784
S'father'
p785
tp786
F0.0006727211570803902
s(S'name'
p787
S'[[num]]'
p788
tp789
F0.0016818028927009755
s(S'gt'
p790
S'[[adj]]'
p791
tp792
F0.0020181634712411706
s(S'youngest'
p793
S'daughter'
p794
tp795
F0.0023545240497813654
s(S'of'
p796
S'[[det]]'
p797
tp798
F0.0020181634712411706
s(S'when'
p799
S'succeeded'
p800
tp801
F0.0003363605785401951
s(S'until'
p802
S'death'
p803
tp804
F0.0003363605785401951
s(g533
S'of'
p805
tp806
F0.0010090817356205853
s(S'be'
p807
S'married'
p808
tp809
F0.0003363605785401951
s(S'eldest'
p810
S'[[num]]'
p811
tp812
F0.0003363605785401951
s(S'child'
p813
S'[[prp]]'
p814
tp815
F0.0003363605785401951
s(S'[[det]]'
p816
S'born'
p817
tp818
F0.0003363605785401951
s(S'later'
p819
S'married'
p820
tp821
F0.0010090817356205853
s(S'who'
p822
S'gave'
p823
tp824
F0.0006727211570803902
s(g177
S'wife'
p825
tp826
F0.006727211570803902
s(g363
S'[[num]]'
p827
tp828
F0.0010090817356205853
s(S'gt'
p829
S'while'
p830
tp831
F0.0006727211570803902
s(S'son'
p832
S'by'
p833
tp834
F0.003363605785401951
s(S'[[det]]'
p835
S'king'
p836
tp837
F0.0010090817356205853
s(S'wife'
p838
S'as'
p839
tp840
F0.0006727211570803902
s(S'ref'
p841
g205
tp842
F0.010763538513286243
s(S'gave'
p843
S'[[num]]'
p844
tp845
F0.0006727211570803902
s(S'son'
p846
S'in'
p847
tp848
F0.0006727211570803902
s(S'were'
p849
S'married'
p850
tp851
F0.0003363605785401951
s(S'[[det]]'
p852
S'mother'
p853
tp854
F0.0016818028927009755
s(S'[[num]]'
p855
S'gt'
p856
tp857
F0.003699966363942146
s(g115
S'elder'
p858
tp859
F0.0003363605785401951
s(S'gt'
p860
S'said'
p861
tp862
F0.0006727211570803902
s(S'was'
p863
g392
tp864
F0.0003363605785401951
s(S'that'
p865
S'mother'
p866
tp867
F0.0003363605785401951
s(S'[[adj]]'
p868
S'gt'
p869
tp870
F0.0016818028927009755
s(S'worked'
p871
S'for'
p872
tp873
F0.0003363605785401951
s(S'ref'
p874
S'lt'
p875
tp876
F0.0026908846283215607
s(g759
S'[[con]]'
p877
tp878
F0.0003363605785401951
s(S'children'
p879
g115
tp880
F0.0006727211570803902
s(S'[[adj]]'
p881
S'parents'
p882
tp883
F0.0003363605785401951
s(S'died'
p884
g85
tp885
F0.0003363605785401951
s(S'member'
p886
S'[[det]]'
p887
tp888
F0.0003363605785401951
s(S'son'
p889
S'was'
p890
tp891
F0.0016818028927009755
s(S'death'
p892
S'[[det]]'
p893
tp894
F0.0003363605785401951
s(S'near'
p895
S'[[det]]'
p896
tp897
F0.0003363605785401951
s(S'born'
p898
S'when'
p899
tp900
F0.0003363605785401951
s(S'death'
p901
S'by'
p902
tp903
F0.0006727211570803902
s(S'[[con]]'
p904
S'succeeded'
p905
tp906
F0.0016818028927009755
s(S'while'
p907
S'gave'
p908
tp909
F0.0003363605785401951
s(S'gt'
p910
S'attended'
p911
tp912
F0.0003363605785401951
s(S'also'
p913
S'known'
p914
tp915
F0.0006727211570803902
s(S'with'
p916
S'death'
p917
tp918
F0.0003363605785401951
s(S'king'
p919
S'lt'
p920
tp921
F0.0003363605785401951
s(S'et'
p922
g173
tp923
F0.0003363605785401951
s(S'then'
p924
S'married'
p925
tp926
F0.0010090817356205853
s(S'[[det]]'
p927
S'kept'
p928
tp929
F0.0003363605785401951
s(S'from'
p930
S'son'
p931
tp932
F0.0003363605785401951
s(g116
S'[[adj]]'
p933
tp934
F0.0016818028927009755
s(S'of'
p935
S'child'
p936
tp937
F0.0003363605785401951
s(S'[[num]]'
p938
S'child'
p939
tp940
F0.0010090817356205853
s(S'gt'
p941
S'for'
p942
tp943
F0.0003363605785401951
s(S'gt'
p944
S'worked'
p945
tp946
F0.0006727211570803902
s(S'wrote'
p947
g704
tp948
F0.0003363605785401951
s(S'succeeded'
p949
S'to'
p950
tp951
F0.0006727211570803902
s(S'gave'
p952
S'away'
p953
tp954
F0.0003363605785401951
s(S'child'
p955
S'[[det]]'
p956
tp957
F0.0006727211570803902
s(S'gt'
p958
S'given'
p959
tp960
F0.0003363605785401951
s(S'son'
p961
S'who'
p962
tp963
F0.0023545240497813654
s(S'[[adj]]'
p964
S'cousin'
p965
tp966
F0.0020181634712411706
s(S'to'
p967
S'children'
p968
tp969
F0.0003363605785401951
s(S'whom'
p970
S'married'
p971
tp972
F0.0003363605785401951
s(S'had'
p973
S'kept'
p974
tp975
F0.0003363605785401951
s(S'mother'
p976
S'[[adj]]'
p977
tp978
F0.0003363605785401951
s(S'[[det]]'
p979
S'tributary'
p980
tp981
F0.0013454423141607804
s(S'gt'
p982
S'by'
p983
tp984
F0.0006727211570803902
s(S'actress'
p985
S'in'
p986
tp987
F0.0003363605785401951
s(S'[[prp]]'
p988
S'students'
p989
tp990
F0.0003363605785401951
s(g285
S'lt'
p991
tp992
F0.0003363605785401951
s(S'[[con]]'
p993
S'married'
p994
tp995
F0.0010090817356205853
s(S'pp'
p996
S'[[num]]'
p997
tp998
F0.0013454423141607804
s(S'is'
p999
S'father'
p1000
tp1001
F0.0010090817356205853
s(S'according'
p1002
S'to'
p1003
tp1004
F0.0003363605785401951
s(S'eldest'
p1005
g293
tp1006
F0.0010090817356205853
s(S'kept'
p1007
S'[[con]]'
p1008
tp1009
F0.0003363605785401951
s(g905
S'as'
p1010
tp1011
F0.003699966363942146
s(S'[[adj]]'
p1012
S'veteran'
p1013
tp1014
F0.0003363605785401951
s(S'[[det]]'
p1015
S'oldest'
p1016
tp1017
F0.0016818028927009755
s(S'[[prp]]'
p1018
S'death'
p1019
tp1020
F0.0003363605785401951
s(S'[[adj]]'
p1021
S'born'
p1022
tp1023
F0.0003363605785401951
s(S'[[num]]'
p1024
S'daughter'
p1025
tp1026
F0.0013454423141607804
s(S'overthrow'
p1027
S'[[det]]'
p1028
tp1029
F0.0003363605785401951
s(S'[[det]]'
p1030
g37
tp1031
F0.0003363605785401951
s(S'succeeded'
p1032
S'in'
p1033
tp1034
F0.0010090817356205853
s(S'for'
p1035
S'death'
p1036
tp1037
F0.0003363605785401951
s(S'succeeded'
p1038
S'[[num]]'
p1039
tp1040
F0.0003363605785401951
s(S'gt'
p1041
S'was'
p1042
tp1043
F0.0016818028927009755
s(S'in'
p1044
S'as'
p1045
tp1046
F0.0003363605785401951
s(g115
S'lt'
p1047
tp1048
F0.0016818028927009755
s(S'emperor'
p1049
S'[[con]]'
p1050
tp1051
F0.0006727211570803902
s(g398
S'[[con]]'
p1052
tp1053
F0.0023545240497813654
s(S'oldest'
p1054
S'[[num]]'
p1055
tp1056
F0.0003363605785401951
s(S'born'
p1057
S'near'
p1058
tp1059
F0.0006727211570803902
s(S'fathered'
p1060
S'[[det]]'
p1061
tp1062
F0.0003363605785401951
s(S'was'
p1063
S'born'
p1064
tp1065
F0.022872519340733265
s(S'as'
p1066
S'father'
p1067
tp1068
F0.0003363605785401951
s(S'[[prp]]'
p1069
S'youngest'
p1070
tp1071
F0.0006727211570803902
s(S'issue'
p1072
S'page'
p1073
tp1074
F0.0003363605785401951
s(S'that'
p1075
S'succeeded'
p1076
tp1077
F0.0003363605785401951
s(S'[[num]]'
p1078
g127
tp1079
F0.0006727211570803902
s(S'death'
p1080
S'as'
p1081
tp1082
F0.0003363605785401951
s(S'is'
p1083
S'cousin'
p1084
tp1085
F0.0010090817356205853
s(g65
S'by'
p1086
tp1087
F0.0003363605785401951
s(S'gt'
p1088
g34
tp1089
F0.0003363605785401951
s(S'[[con]]'
p1090
S'brother'
p1091
tp1092
F0.0010090817356205853
s(S'area'
p1093
S'[[con]]'
p1094
tp1095
F0.0003363605785401951
s(S'gt'
p1096
S'returned'
p1097
tp1098
F0.0006727211570803902
s(S'that'
p1099
S'loved'
p1100
tp1101
F0.0003363605785401951
s(S'at'
p1102
S'[[det]]'
p1103
tp1104
F0.0010090817356205853
s(g8
S'[[det]]'
p1105
tp1106
F0.0013454423141607804
s(S'died'
p1107
g904
tp1108
F0.0023545240497813654
s(S'gt'
p1109
S'where'
p1110
tp1111
F0.0006727211570803902
s(S'son'
p1112
S'as'
p1113
tp1114
F0.0006727211570803902
s(S'[[adj]]'
p1115
S'daughter'
p1116
tp1117
F0.003699966363942146
s(S'son'
p1118
S'became'
p1119
tp1120
F0.0006727211570803902
s(S'[[prp]]'
p1121
S'child'
p1122
tp1123
F0.0003363605785401951
s(S'[[num]]'
p1124
g1072
tp1125
F0.0003363605785401951
s(S'daughter'
p1126
S'was'
p1127
tp1128
F0.0003363605785401951
s(S'son'
p1129
S'[[mod]]'
p1130
tp1131
F0.0003363605785401951
s(S'reports'
p1132
S'that'
p1133
tp1134
F0.0003363605785401951
s(S'[[adj]]'
p1135
S'sons'
p1136
tp1137
F0.0010090817356205853
s(S'was'
p1138
g625
tp1139
F0.0003363605785401951
s(g115
g225
tp1140
F0.003363605785401951
s(S'pages'
p1141
S'[[num]]'
p1142
tp1143
F0.0006727211570803902
s(g565
S'as'
p1144
tp1145
F0.0003363605785401951
s(S'to'
p1146
S'death'
p1147
tp1148
F0.0003363605785401951
s(S'moved'
p1149
S'to'
p1150
tp1151
F0.0003363605785401951
s(S'[[det]]'
p1152
g13
tp1153
F0.0003363605785401951
s(S'[[con]]'
p1154
S'lt'
p1155
tp1156
F0.0010090817356205853
s(g914
S'as'
p1157
tp1158
F0.0013454423141607804
s(g300
S'worked'
p1159
tp1160
F0.0003363605785401951
s(S'married'
p1161
S'twice'
p1162
tp1163
F0.0010090817356205853
s(S'performed'
p1164
S'[[adj]]'
p1165
tp1166
F0.0006727211570803902
s(S'born'
p1167
S'with'
p1168
tp1169
F0.0003363605785401951
s(S'ref'
p1170
S'gt'
p1171
tp1172
F0.06323578876555667
s(S'[[det]]'
p1173
S'grandson'
p1174
tp1175
F0.0013454423141607804
s(S'son'
p1176
S'de'
p1177
tp1178
F0.0010090817356205853
s(S'that'
p1179
S'gave'
p1180
tp1181
F0.0003363605785401951
s(S'ref'
p1182
g871
tp1183
F0.0003363605785401951
s(S'kept'
p1184
S'on'
p1185
tp1186
F0.0006727211570803902
s(S'later'
p1187
S'succeeded'
p1188
tp1189
F0.0006727211570803902
s(S'[[det]]'
p1190
S'daughter'
p1191
tp1192
F0.013790783720148
s(g635
S'[[pro]]'
p1193
tp1194
F0.0010090817356205853
s(S'of'
p1195
S'actors'
p1196
tp1197
F0.0020181634712411706
s(g115
S'younger'
p1198
tp1199
F0.0010090817356205853
s(S'is'
p1200
S'wife'
p1201
tp1202
F0.0003363605785401951
s(S'[[num]]'
p1203
S'gave'
p1204
tp1205
F0.0003363605785401951
s(S'[[con]]'
p1206
S'mother'
p1207
tp1208
F0.0006727211570803902
s(S'[[det]]'
p1209
S'death'
p1210
tp1211
F0.0013454423141607804
s(S'gt'
p1212
S'at'
p1213
tp1214
F0.0003363605785401951
s(S'father'
p1215
g115
tp1216
F0.0003363605785401951
s(S'[[det]]'
p1217
g619
tp1218
F0.020181634712411706
s(S'in'
p1219
S'[[adj]]'
p1220
tp1221
F0.0020181634712411706
s(S'lt'
p1222
S'ref'
p1223
tp1224
F0.05280861083081063
s(g115
S'gt'
p1225
tp1226
F0.0003363605785401951
s(S'father'
p1227
S'in'
p1228
tp1229
F0.0010090817356205853
s(S'children'
p1230
S'to'
p1231
tp1232
F0.0003363605785401951
s(S'sons'
p1233
S'[[det]]'
p1234
tp1235
F0.0003363605785401951
s(g768
S'block'
p1236
tp1237
F0.0003363605785401951
s(S'only'
p1238
S'son'
p1239
tp1240
F0.0006727211570803902
s(S'gt'
p1241
S'is'
p1242
tp1243
F0.0010090817356205853
s(S'with'
p1244
S'son'
p1245
tp1246
F0.0006727211570803902
s(S'gt'
p1247
S'of'
p1248
tp1249
F0.0006727211570803902
s(S'on'
p1250
S'[[det]]'
p1251
tp1252
F0.0003363605785401951
s(S'wife'
p1253
S'was'
p1254
tp1255
F0.0006727211570803902
s(g238
S'of'
p1256
tp1257
F0.0006727211570803902
s(g547
S'wife'
p1258
tp1259
F0.0026908846283215607
s(S'of'
p1260
S'father'
p1261
tp1262
F0.0003363605785401951
s(g115
S'child'
p1263
tp1264
F0.0003363605785401951
s(S'heir'
p1265
S'[[adj]]'
p1266
tp1267
F0.0006727211570803902
s(S'[[prp]]'
p1268
S'heir'
p1269
tp1270
F0.0003363605785401951
s(S'gt'
p1271
g270
tp1272
F0.01446350487722839
s(S'succeeded'
p1273
g353
tp1274
F0.0006727211570803902
s(S'on'
p1275
S'[[adj]]'
p1276
tp1277
F0.0006727211570803902
s(g1084
S'of'
p1278
tp1279
F0.0013454423141607804
s(S'married'
p1280
S'de'
p1281
tp1282
F0.0003363605785401951
s(S'accessed'
p1283
S'[[num]]'
p1284
tp1285
F0.0020181634712411706
s(S'that'
p1286
S'son'
p1287
tp1288
F0.0003363605785401951
s(S'child'
p1289
S'born'
p1290
tp1291
F0.0003363605785401951
s(g1171
S'[[mod]]'
p1292
tp1293
F0.0003363605785401951
s(g115
S'children'
p1294
tp1295
F0.0010090817356205853
s(S'gt'
p1296
S'appeared'
p1297
tp1298
F0.0003363605785401951
s(S'[[adj]]'
p1299
g985
tp1300
F0.0003363605785401951
s(S'heir'
p1301
S'[[con]]'
p1302
tp1303
F0.0010090817356205853
s(S'gt'
p1304
S'to'
p1305
tp1306
F0.0013454423141607804
s(S'was'
p1307
S'mother'
p1308
tp1309
F0.0010090817356205853
s(S'wife'
p1310
S'[[pro]]'
p1311
tp1312
F0.0003363605785401951
s(g1058
S'[[adj]]'
p1313
tp1314
F0.0003363605785401951
s(S'sons'
p1315
S'of'
p1316
tp1317
F0.0016818028927009755
s(g115
S'cousin'
p1318
tp1319
F0.0013454423141607804
s(S'after'
p1320
S'gave'
p1321
tp1322
F0.0003363605785401951
s(S'with'
p1323
S'mother'
p1324
tp1325
F0.0003363605785401951
s(g986
S'by'
p1326
tp1327
F0.0003363605785401951
s(S'as'
p1328
S'wife'
p1329
tp1330
F0.0003363605785401951
s(S'daughter'
p1331
S'in'
p1332
tp1333
F0.0003363605785401951
s(S'married'
p1334
S'secondly'
p1335
tp1336
F0.0003363605785401951
s(S'heir'
p1337
S'to'
p1338
tp1339
F0.0010090817356205853
s(g797
S'actor'
p1340
tp1341
F0.0006727211570803902
s(S'when'
p1342
S'married'
p1343
tp1344
F0.0006727211570803902
s(S'children'
p1345
S'together'
p1346
tp1347
F0.0003363605785401951
s(S'[[det]]'
p1348
g1093
tp1349
F0.0003363605785401951
s(g688
S'of'
p1350
tp1351
F0.0010090817356205853
s(S'[[adj]]'
p1352
S'death'
p1353
tp1354
F0.0006727211570803902
s(S'who'
p1355
S'married'
p1356
tp1357
F0.0006727211570803902
s(S'[[det]]'
p1358
S'youngest'
p1359
tp1360
F0.0010090817356205853
s(S'also'
p1361
S'married'
p1362
tp1363
F0.0010090817356205853
s(S'[[adj]]'
p1364
S'heir'
p1365
tp1366
F0.0013454423141607804
s(S'wife'
p1367
S'daughter'
p1368
tp1369
F0.0006727211570803902
s(S'married'
p1370
S'[[con]]'
p1371
tp1372
F0.0013454423141607804
s(S'[[adj]]'
p1373
S'married'
p1374
tp1375
F0.0006727211570803902
s(g274
S'[[adj]]'
p1376
tp1377
F0.0006727211570803902
s(S'[[pro]]'
p1378
S'death'
p1379
tp1380
F0.0006727211570803902
s(S'with'
p1381
S'wife'
p1382
tp1383
F0.0003363605785401951
s(S'children'
p1384
S'with'
p1385
tp1386
F0.0013454423141607804
s(g1116
S'[[det]]'
p1387
tp1388
F0.0013454423141607804
s(S'born'
p1389
g529
tp1390
F0.0006727211570803902
s(S'son'
p1391
S'is'
p1392
tp1393
F0.0003363605785401951
s(S'[[prp]]'
p1394
S'oldest'
p1395
tp1396
F0.0003363605785401951
s(S'[[det]]'
p1397
S'father'
p1398
tp1399
F0.0030272452068617556
s(S'brother'
p1400
S'who'
p1401
tp1402
F0.0010090817356205853
s(g174
S'lt'
p1403
tp1404
F0.0016818028927009755
s(S'name'
p1405
g1099
tp1406
F0.0003363605785401951
s(S'son'
p1407
S'[[con]]'
p1408
tp1409
F0.008072653884964682
s(S'at'
p1410
S'[[adj]]'
p1411
tp1412
F0.0006727211570803902
s(S'gt'
p1413
S'joined'
p1414
tp1415
F0.0010090817356205853
s(S'in'
p1416
S'[[num]]'
p1417
tp1418
F0.0003363605785401951
s(S'born'
p1419
S'after'
p1420
tp1421
F0.0003363605785401951
s(S'for'
p1422
S'lt'
p1423
tp1424
F0.0003363605785401951
s(S'gt'
p1425
S'wrote'
p1426
tp1427
F0.0013454423141607804
s(S'born'
p1428
S'at'
p1429
tp1430
F0.0016818028927009755
s(S'succeeded'
p1431
S'[[con]]'
p1432
tp1433
F0.0010090817356205853
s(S'[[pro]]'
p1434
S'father'
p1435
tp1436
F0.0003363605785401951
s(S'ranked'
p1437
S'[[adj]]'
p1438
tp1439
F0.0003363605785401951
s(S'of'
p1440
S'[[prp]]'
p1441
tp1442
F0.0020181634712411706
s(S'[[con]]'
p1443
S'cousin'
p1444
tp1445
F0.0003363605785401951
s(S'gt'
p1446
S'moved'
p1447
tp1448
F0.0010090817356205853
s(S'oldest'
p1449
S'child'
p1450
tp1451
F0.0006727211570803902
s(g115
S'brother'
p1452
tp1453
F0.0026908846283215607
s(S'reign'
p1454
S'as'
p1455
tp1456
F0.0003363605785401951
s(S'succeeded'
p1457
S'[[det]]'
p1458
tp1459
F0.0003363605785401951
s(S'leave'
p1460
S'gt'
p1461
tp1462
F0.0003363605785401951
s(S'born'
p1463
g652
tp1464
F0.0013454423141607804
s(S'[[det]]'
p1465
S'copy'
p1466
tp1467
F0.0003363605785401951
s(S'with'
p1468
S'brother'
p1469
tp1470
F0.0003363605785401951
s(S'gt'
p1471
S'played'
p1472
tp1473
F0.0016818028927009755
s(S'married'
p1474
S'as'
p1475
tp1476
F0.0003363605785401951
s(S'gt'
p1477
S'made'
p1478
tp1479
F0.0003363605785401951
s(S'been'
p1480
S'born'
p1481
tp1482
F0.0010090817356205853
s(S'death'
p1483
S'[[con]]'
p1484
tp1485
F0.0013454423141607804
s(S'to'
p1486
g881
tp1487
F0.0003363605785401951
s(S'[[num]]'
p1488
g1230
tp1489
F0.004372687521022536
s(S'[[prp]]'
p1490
g832
tp1491
F0.005718129835183316
s(S'to'
p1492
S'father'
p1493
tp1494
F0.0003363605785401951
s(g580
S'[[det]]'
p1495
tp1496
F0.0010090817356205853
s(S'[[num]]'
p1497
g961
tp1498
F0.004036326942482341
s(S'father'
p1499
S'[[det]]'
p1500
tp1501
F0.0013454423141607804
s(S'[[adj]]'
p1502
S'child'
p1503
tp1504
F0.007736293306424487
s(S'[[det]]'
p1505
S'lt'
p1506
tp1507
F0.0020181634712411706
s(g122
S'[[prp]]'
p1508
tp1509
F0.0003363605785401951
s(S'younger'
p1510
S'sons'
p1511
tp1512
F0.0003363605785401951
s(S'mother'
p1513
S'who'
p1514
tp1515
F0.0003363605785401951
s(S'to'
p1516
S'overthrow'
p1517
tp1518
F0.0006727211570803902
s(S'gt'
p1519
S'[[num]]'
p1520
tp1521
F0.003699966363942146
s(S'about'
p1522
S'death'
p1523
tp1524
F0.0003363605785401951
s(S'accessed'
p1525
S'lt'
p1526
tp1527
F0.0003363605785401951
s(S'of'
p1528
S'[[adj]]'
p1529
tp1530
F0.0023545240497813654
s(g1429
S'son'
p1531
tp1532
F0.0003363605785401951
s(S'son'
p1533
S'died'
p1534
tp1535
F0.0003363605785401951
s(S'[[num]]'
p1536
S'[[det]]'
p1537
tp1538
F0.0016818028927009755
s(S'[[prp]]'
p1539
S'eldest'
p1540
tp1541
F0.0006727211570803902
s(S'king'
p1542
S'son'
p1543
tp1544
F0.0003363605785401951
s(S'league'
p1545
S'lt'
p1546
tp1547
F0.0003363605785401951
s(S'that'
p1548
S'father'
p1549
tp1550
F0.0003363605785401951
s(S'married'
p1551
S'again'
p1552
tp1553
F0.0006727211570803902
s(S'oldest'
p1554
S'daughter'
p1555
tp1556
F0.0006727211570803902
s(S'kept'
p1557
S'out'
p1558
tp1559
F0.0003363605785401951
s(S'cousin'
p1560
S'[[det]]'
p1561
tp1562
F0.0010090817356205853
s(S'gt'
p1563
S'son'
p1564
tp1565
F0.0003363605785401951
s(g403
S'of'
p1566
tp1567
F0.0003363605785401951
s(S'as'
p1568
S'son'
p1569
tp1570
F0.0010090817356205853
s(g271
S'[[con]]'
p1571
tp1572
F0.0053817692566431215
s(S'[[det]]'
p1573
S'child'
p1574
tp1575
F0.0013454423141607804
s(S'father'
p1576
S'when'
p1577
tp1578
F0.0003363605785401951
s(S'[[adj]]'
p1579
S'lt'
p1580
tp1581
F0.0020181634712411706
s(S'[[adj]]'
p1582
S'surviving'
p1583
tp1584
F0.0006727211570803902
s(S'when'
p1585
S'gave'
p1586
tp1587
F0.0003363605785401951
s(S'brother'
p1588
S'[[con]]'
p1589
tp1590
F0.0020181634712411706
s(S'of'
p1591
S'born'
p1592
tp1593
F0.0010090817356205853
s(S'wife'
p1594
S'in'
p1595
tp1596
F0.0010090817356205853
s(S'[[con]]'
p1597
S'kept'
p1598
tp1599
F0.0003363605785401951
s(S'gt'
p1600
S'reported'
p1601
tp1602
F0.0003363605785401951
s(S'is'
p1603
g640
tp1604
F0.0006727211570803902
s(S'death'
p1605
S'which'
p1606
tp1607
F0.0003363605785401951
s(S'married'
p1608
S'[[prp]]'
p1609
tp1610
F0.0003363605785401951
s(S'[[prp]]'
p1611
g1215
tp1612
F0.006054490413723511
s(S'son'
p1613
S'with'
p1614
tp1615
F0.0016818028927009755
s(g115
S'sons'
p1616
tp1617
F0.0010090817356205853
s(g1398
S'[[num]]'
p1618
tp1619
F0.0010090817356205853
s(S'born'
p1620
S'in'
p1621
tp1622
F0.007736293306424487
s(S'have'
p1623
S'married'
p1624
tp1625
F0.0003363605785401951
s(S'[[det]]'
p1626
S'gave'
p1627
tp1628
F0.0003363605785401951
s(g77
S'[[con]]'
p1629
tp1630
F0.0006727211570803902
s(S'wrote'
p1631
S'lt'
p1632
tp1633
F0.0013454423141607804
s(S'[[adj]]'
p1634
g1545
tp1635
F0.0003363605785401951
s(g59
S'in'
p1636
tp1637
F0.0003363605785401951
s(S'where'
p1638
S'born'
p1639
tp1640
F0.0003363605785401951
s(S'[[det]]'
p1641
S'emperor'
p1642
tp1643
F0.0006727211570803902
s(S'whose'
p1644
g440
tp1645
F0.0003363605785401951
s(g1540
S'son'
p1646
tp1647
F0.007399932727884292
s(S'as'
p1648
S'born'
p1649
tp1650
F0.0003363605785401951
s(g1210
S'of'
p1651
tp1652
F0.0013454423141607804
s(S'[[det]]'
p1653
S'eldest'
p1654
tp1655
F0.007399932727884292
s(g115
g649
tp1656
F0.003363605785401951
s(S'[[prp]]'
p1657
S'mother'
p1658
tp1659
F0.0010090817356205853
s(S'[[con]]'
p1660
S'only'
p1661
tp1662
F0.0006727211570803902
s(S'[[det]]'
p1663
S'release'
p1664
tp1665
F0.0003363605785401951
s(g1064
g589
tp1666
F0.0020181634712411706
s(S'surviving'
p1667
S'daughter'
p1668
tp1669
F0.0006727211570803902
s(S'is'
p1670
S'married'
p1671
tp1672
F0.0013454423141607804
s(S'[[adj]]'
p1673
g667
tp1674
F0.0006727211570803902
s(S'eldest'
p1675
S'daughter'
p1676
tp1677
F0.0013454423141607804
s(g550
S'[[num]]'
p1678
tp1679
F0.0003363605785401951
s(g1574
S'[[con]]'
p1680
tp1681
F0.003363605785401951
s(S'was'
p1682
S'grandson'
p1683
tp1684
F0.0010090817356205853
s(S'son'
p1685
S'[[num]]'
p1686
tp1687
F0.0026908846283215607
s(S'be'
p1688
S'succeeded'
p1689
tp1690
F0.0003363605785401951
s(S'have'
p1691
S'succeeded'
p1692
tp1693
F0.0006727211570803902
s(S'at'
p1694
S'lt'
p1695
tp1696
F0.0003363605785401951
s(g1191
S'[[num]]'
p1697
tp1698
F0.0006727211570803902
s(S'[[adj]]'
p1699
S'ref'
p1700
tp1701
F0.012108980827447022
s(g1621
S'[[det]]'
p1702
tp1703
F0.004036326942482341
s(S'[[num]]'
p1704
g1170
tp1705
F0.010763538513286243
s(S'gt'
p1706
S'died'
p1707
tp1708
F0.0013454423141607804
s(S'[[adj]]'
p1709
g1227
tp1710
F0.0013454423141607804
s(S'is'
p1711
g1407
tp1712
F0.0013454423141607804
s(S'has'
p1713
S'married'
p1714
tp1715
F0.0003363605785401951
s(S'lt'
p1716
S'blockquote'
p1717
tp1718
F0.0006727211570803902
s(S'sons'
p1719
S'[[num]]'
p1720
tp1721
F0.0010090817356205853
s(S'[[num]]'
p1722
g383
tp1723
F0.0006727211570803902
s(S'mother'
p1724
S'[[det]]'
p1725
tp1726
F0.0010090817356205853
s(S'[[con]]'
p1727
S'grandson'
p1728
tp1729
F0.0003363605785401951
s(S'as'
p1730
S'daughter'
p1731
tp1732
F0.0003363605785401951
s(g115
g103
tp1733
F0.005045408678102927
s(S'in'
p1734
S'death'
p1735
tp1736
F0.0003363605785401951
s(S'in'
p1737
S'son'
p1738
tp1739
F0.0003363605785401951
s(S'father'
p1740
S'who'
p1741
tp1742
F0.0006727211570803902
s(S'gt'
p1743
S'in'
p1744
tp1745
F0.0003363605785401951
s(S'wife'
p1746
S'who'
p1747
tp1748
F0.0006727211570803902
s(S'son'
p1749
g913
tp1750
F0.0006727211570803902
s(S'mother'
p1751
S'from'
p1752
tp1753
F0.0003363605785401951
s(g183
g868
tp1754
F0.0013454423141607804
s(g174
S'[[num]]'
p1755
tp1756
F0.0003363605785401951
s(S'that'
p1757
S'kept'
p1758
tp1759
F0.0003363605785401951
s(S'[[con]]'
p1760
S'death'
p1761
tp1762
F0.0003363605785401951
s(S'gt'
p1763
S'with'
p1764
tp1765
F0.0010090817356205853
s(g71
S'as'
p1766
tp1767
F0.0003363605785401951
s(S'[[con]]'
p1768
g1149
tp1769
F0.0003363605785401951
s(S'lt'
p1770
g1704
tp1771
F0.010090817356205853
s(S'born'
p1772
S'to'
p1773
tp1774
F0.003363605785401951
s(g115
g1724
tp1775
F0.0020181634712411706
s(S'brother'
p1776
S'had'
p1777
tp1778
F0.0003363605785401951
s(S'succeeded'
p1779
S'who'
p1780
tp1781
F0.0006727211570803902
s(S'children'
p1782
S'[[adj]]'
p1783
tp1784
F0.0010090817356205853
s(g858
S'daughter'
p1785
tp1786
F0.0010090817356205853
s(S'gt'
p1787
g988
tp1788
F0.0003363605785401951
s(S'[[prp]]'
p1789
g1126
tp1790
F0.0023545240497813654
s(S'[[det]]'
p1791
g886
tp1792
F0.0003363605785401951
s(S'name'
p1793
S'lt'
p1794
tp1795
F0.0003363605785401951
s(S'mother'
p1796
S'[[con]]'
p1797
tp1798
F0.0016818028927009755
s(S'brother'
p1799
S'[[det]]'
p1800
tp1801
F0.0010090817356205853
s(S'was'
p1802
S'kept'
p1803
tp1804
F0.0016818028927009755
s(g323
S'lt'
p1805
tp1806
F0.0003363605785401951
s(S'daughter'
p1807
S'[[adj]]'
p1808
tp1809
F0.0016818028927009755
s(S'[[con]]'
p1810
S'daughter'
p1811
tp1812
F0.0013454423141607804
s(S'which'
p1813
S'gave'
p1814
tp1815
F0.0003363605785401951
s(S'where'
p1816
S'married'
p1817
tp1818
F0.0003363605785401951
s(S'[[det]]'
p1819
S'younger'
p1820
tp1821
F0.0016818028927009755
s(S'children'
p1822
S'of'
p1823
tp1824
F0.0020181634712411706
s(S'was'
p1825
S'wife'
p1826
tp1827
F0.0006727211570803902
s(S'later'
p1828
S'known'
p1829
tp1830
F0.0003363605785401951
s(S'married'
p1831
S'while'
p1832
tp1833
F0.0003363605785401951
s(S'[[num]]'
p1834
S'brother'
p1835
tp1836
F0.0003363605785401951
s(g1452
S'in'
p1837
tp1838
F0.0006727211570803902
s(S'[[mod]]'
p1839
g1460
tp1840
F0.0003363605785401951
s(S'as'
p1841
S'brother'
p1842
tp1843
F0.0003363605785401951
s(S'gt'
p1844
g174
tp1845
F0.0003363605785401951
s(S'during'
p1846
S'reign'
p1847
tp1848
F0.0003363605785401951
s(S'father'
p1849
S'is'
p1850
tp1851
F0.0003363605785401951
s(S'[[det]]'
p1852
S'wife'
p1853
tp1854
F0.0016818028927009755
s(S'death'
p1855
S'to'
p1856
tp1857
F0.0003363605785401951
s(S'was'
p1858
g475
tp1859
F0.003699966363942146
s(g268
S'are'
p1860
tp1861
F0.0003363605785401951
s(g1503
S'with'
p1862
tp1863
F0.0010090817356205853
s(S'married'
p1864
S'[[pro]]'
p1865
tp1866
F0.0006727211570803902
s(S'[[con]]'
p1867
S'fathered'
p1868
tp1869
F0.0003363605785401951
s(S'daughter'
p1870
S'to'
p1871
tp1872
F0.0013454423141607804
s(S'[[con]]'
p1873
S'child'
p1874
tp1875
F0.0003363605785401951
s(S'succeeds'
p1876
S'[[prp]]'
p1877
tp1878
F0.0010090817356205853
s(g524
S'in'
p1879
tp1880
F0.0003363605785401951
s(S'[[pro]]'
p1881
g31
tp1882
F0.0010090817356205853
s(S'that'
p1883
S'married'
p1884
tp1885
F0.0003363605785401951
s(S'son'
p1886
S'to'
p1887
tp1888
F0.0023545240497813654
s(S'of'
p1889
S'son'
p1890
tp1891
F0.0006727211570803902
s(S'[[adj]]'
p1892
S'eldest'
p1893
tp1894
F0.0006727211570803902
s(S'where'
p1895
S'gave'
p1896
tp1897
F0.0003363605785401951
s(S'was'
p1898
S'son'
p1899
tp1900
F0.0016818028927009755
s(S'where'
p1901
S'kept'
p1902
tp1903
F0.0003363605785401951
s(S'died'
p1904
g316
tp1905
F0.0006727211570803902
s(S'[[num]]'
p1906
S'lt'
p1907
tp1908
F0.013790783720148
s(S'born'
p1909
S'son'
p1910
tp1911
F0.0006727211570803902
s(S'on'
p1912
S'lt'
p1913
tp1914
F0.0003363605785401951
s(g820
S'to'
p1915
tp1916
F0.005718129835183316
s(S'death'
p1917
S'when'
p1918
tp1919
F0.0003363605785401951
s(S'died'
p1920
S'at'
p1921
tp1922
F0.0003363605785401951
s(S'succeeded'
p1923
S'on'
p1924
tp1925
F0.0003363605785401951
s(S'in'
p1926
S'to'
p1927
tp1928
F0.0003363605785401951
s(g1326
S'lt'
p1929
tp1930
F0.0006727211570803902
s(S'gave'
p1931
S'way'
p1932
tp1933
F0.0003363605785401951
s(S'[[prp]]'
p1934
S'sons'
p1935
tp1936
F0.0006727211570803902
s(S'[[num]]'
p1937
S'[[adj]]'
p1938
tp1939
F0.003363605785401951
s(S'to'
p1940
S'son'
p1941
tp1942
F0.0003363605785401951
s(S'of'
p1943
g1828
tp1944
F0.0003363605785401951
s(S'still'
p1945
S'married'
p1946
tp1947
F0.0003363605785401951
s(S'to'
p1948
S'mother'
p1949
tp1950
F0.0003363605785401951
s(S'was'
p1951
S'brother'
p1952
tp1953
F0.0013454423141607804
s(S'kept'
p1954
S'[[pro]]'
p1955
tp1956
F0.0003363605785401951
s(S'[[con]]'
p1957
S'eldest'
p1958
tp1959
F0.0003363605785401951
s(S'was'
p1960
S'succeeded'
p1961
tp1962
F0.004372687521022536
s(S'[[con]]'
p1963
g661
tp1964
F0.0006727211570803902
s(g1961
g495
tp1965
F0.0026908846283215607
s(g1664
S'[[det]]'
p1966
tp1967
F0.0003363605785401951
s(S'gt'
p1968
S'scored'
p1969
tp1970
F0.0003363605785401951
s(S'born'
p1971
S'[[adj]]'
p1972
tp1973
F0.0013454423141607804
s(S'that'
p1974
S'brother'
p1975
tp1976
F0.0003363605785401951
s(S'succeeded'
p1977
S'[[adj]]'
p1978
tp1979
F0.0003363605785401951
s(S'[[pro]]'
p1980
S'mother'
p1981
tp1982
F0.0003363605785401951
s(S'children'
p1983
S'[[con]]'
p1984
tp1985
F0.0016818028927009755
s(S'[[con]]'
p1986
S'[[adj]]'
p1987
tp1988
F0.003699966363942146
s(S'brother'
p1989
S'of'
p1990
tp1991
F0.0023545240497813654
s(S'brother'
p1992
S'[[num]]'
p1993
tp1994
F0.0006727211570803902
s(S'is'
p1995
S'born'
p1996
tp1997
F0.0010090817356205853
s(g1013
g1906
tp1998
F0.0003363605785401951
s(g1717
S'gt'
p1999
tp2000
F0.0006727211570803902
s(g351
S'siblings'
p2001
tp2002
F0.0003363605785401951
s(S'gt'
p2003
g1002
tp2004
F0.0003363605785401951
s(S'death'
p2005
S'in'
p2006
tp2007
F0.0006727211570803902
s(g1207
S'of'
p2008
tp2009
F0.0023545240497813654
s(S'died'
p2010
S'[[num]]'
p2011
tp2012
F0.0016818028927009755
s(S'gt'
p2013
S'as'
p2014
tp2015
F0.0006727211570803902
s(S'gt'
p2016
S'became'
p2017
tp2018
F0.0003363605785401951
s(S'[[con]]'
p2019
g770
tp2020
F0.0006727211570803902
s.