(dp0
(S'situated'
p1
S'just'
p2
tp3
F0.16666666666666666
s(S'bars'
p4
g1
tp5
F0.16666666666666666
s(S'took'
p6
S'in'
p7
tp8
F0.16666666666666666
s(g7
S'[[adj]]'
p9
tp10
F0.16666666666666666
s(S'also'
p11
g6
tp12
F0.16666666666666666
s(g9
g4
tp13
F0.16666666666666666
s.