(dp0
(S'known'
p1
S'of'
p2
tp3
F0.005545286506469501
s(S'have'
p4
S'known'
p5
tp6
F0.005545286506469501
s(S'met'
p7
S'by'
p8
tp9
F0.005545286506469501
s(S'[[con]]'
p10
S'partner'
p11
tp12
F0.0018484288354898336
s(S'known'
p13
S'along'
p14
tp15
F0.0036968576709796672
s(S'often'
p16
S'known'
p17
tp18
F0.0018484288354898336
s(S'[[prp]]'
p19
S'partner'
p20
tp21
F0.0036968576709796672
s(S'known'
p22
S'when'
p23
tp24
F0.0036968576709796672
s(S'was'
p25
S'partner'
p26
tp27
F0.0036968576709796672
s(S'partner'
p28
S'of'
p29
tp30
F0.0073937153419593345
s(S'partner'
p31
S'with'
p32
tp33
F0.0036968576709796672
s(S'worked'
p34
S'as'
p35
tp36
F0.0018484288354898336
s(S'[[adj]]'
p37
S'actress'
p38
tp39
F0.0073937153419593345
s(g35
S'[[det]]'
p40
tp41
F0.0018484288354898336
s(S'[[con]]'
p42
S'starred'
p43
tp44
F0.005545286506469501
s(S'[[con]]'
p45
S'relationship'
p46
tp47
F0.0018484288354898336
s(S'with'
p48
S'partner'
p49
tp50
F0.0018484288354898336
s(S'have'
p51
S'met'
p52
tp53
F0.005545286506469501
s(S'starred'
p54
S'as'
p55
tp56
F0.014787430683918669
s(S'known'
p57
S'only'
p58
tp59
F0.0018484288354898336
s(S'now'
p60
S'known'
p61
tp62
F0.0018484288354898336
s(S'partner'
p63
S'for'
p64
tp65
F0.0018484288354898336
s(S'not'
p66
S'known'
p67
tp68
F0.005545286506469501
s(S'engaged'
p69
S'to'
p70
tp71
F0.0036968576709796672
s(S'with'
p72
S'known'
p73
tp74
F0.0018484288354898336
s(S'where'
p75
S'starred'
p76
tp77
F0.0018484288354898336
s(S'known'
p78
S'[[num]]'
p79
tp80
F0.0036968576709796672
s(S'[[con]]'
p81
S'known'
p82
tp83
F0.0036968576709796672
s(S'known'
p84
S'[[adj]]'
p85
tp86
F0.0073937153419593345
s(S'[[adj]]'
p87
S'starred'
p88
tp89
F0.0018484288354898336
s(S'as'
p90
S'partner'
p91
tp92
F0.0018484288354898336
s(S'known'
p93
S'[[det]]'
p94
tp95
F0.005545286506469501
s(S'known'
p96
S'was'
p97
tp98
F0.0018484288354898336
s(S'buried'
p99
S'[[con]]'
p100
tp101
F0.0036968576709796672
s(S'met'
p102
S'again'
p103
tp104
F0.0018484288354898336
s(S'relationship'
p105
S'between'
p106
tp107
F0.005545286506469501
s(S'actress'
p108
S'[[adj]]'
p109
tp110
F0.0018484288354898336
s(S'known'
p111
S'in'
p112
tp113
F0.0018484288354898336
s(g5
S'among'
p114
tp115
F0.0036968576709796672
s(S'known'
p116
S'since'
p117
tp118
F0.0018484288354898336
s(S'better'
p119
S'known'
p120
tp121
F0.005545286506469501
s(S'with'
p122
S'actress'
p123
tp124
F0.0018484288354898336
s(S'[[pro]]'
p125
S'relationship'
p126
tp127
F0.0018484288354898336
s(S'buried'
p128
S'[[adj]]'
p129
tp130
F0.0036968576709796672
s(S'met'
p131
S'where'
p132
tp133
F0.0018484288354898336
s(S'as'
p134
S'known'
p135
tp136
F0.0018484288354898336
s(S'become'
p137
S'known'
p138
tp139
F0.005545286506469501
s(S'known'
p140
S'[[con]]'
p141
tp142
F0.014787430683918669
s(S'known'
p143
S'especially'
p144
tp145
F0.0036968576709796672
s(S'then'
p146
S'met'
p147
tp148
F0.0036968576709796672
s(S'was'
p149
S'buried'
p150
tp151
F0.009242144177449169
s(S'is'
p152
g57
tp153
F0.033271719038817
s(S'also'
p154
S'known'
p155
tp156
F0.024029574861367836
s(S'met'
p157
S'when'
p158
tp159
F0.005545286506469501
s(S'was'
p160
S'met'
p161
tp162
F0.0036968576709796672
s(S'starred'
p163
S'for'
p164
tp165
F0.0018484288354898336
s(S'[[prp]]'
p166
S'relationship'
p167
tp168
F0.0036968576709796672
s(S'been'
p169
S'known'
p170
tp171
F0.0018484288354898336
s(S'known'
p172
S'from'
p173
tp174
F0.0036968576709796672
s(S'met'
p175
S'at'
p176
tp177
F0.0018484288354898336
s(S'starred'
p178
S'[[num]]'
p179
tp180
F0.0018484288354898336
s(S'to'
p181
S'partner'
p182
tp183
F0.0018484288354898336
s(S'met'
p184
S'up'
p185
tp186
F0.0036968576709796672
s(S'relationship'
p187
S'to'
p188
tp189
F0.005545286506469501
s(S'partner'
p190
S'in'
p191
tp192
F0.0036968576709796672
s(g150
S'near'
p193
tp194
F0.0036968576709796672
s(S'buried'
p195
S'with'
p196
tp197
F0.0036968576709796672
s(S'was'
p198
g140
tp199
F0.024029574861367836
s(S'met'
p200
S'while'
p201
tp202
F0.005545286506469501
s(S'[[adj]]'
p203
S'buried'
p204
tp205
F0.0018484288354898336
s(S'partner'
p206
S'to'
p207
tp208
F0.0018484288354898336
s(S's'
p209
S'partner'
p210
tp211
F0.0036968576709796672
s(S'starred'
p212
S'by'
p213
tp214
F0.0036968576709796672
s(S'well'
p215
S'known'
p216
tp217
F0.014787430683918669
s(S'soon'
p218
S'met'
p219
tp220
F0.0036968576709796672
s(S'to'
p221
S'actress'
p222
tp223
F0.0018484288354898336
s(S'whom'
p224
S'met'
p225
tp226
F0.0018484288354898336
s(S'after'
p227
S'met'
p228
tp229
F0.0018484288354898336
s(S'known'
p230
S'that'
p231
tp232
F0.009242144177449169
s(S'[[con]]'
p233
S'met'
p234
tp235
F0.011090573012939002
s(S'known'
p236
S'[[prp]]'
p237
tp238
F0.0018484288354898336
s(S'first'
p239
S'met'
p240
tp241
F0.011090573012939002
s(S'became'
p242
S'known'
p243
tp244
F0.0166358595194085
s(S'has'
p245
S'known'
p246
tp247
F0.0018484288354898336
s(S'[[con]]'
p248
S'buried'
p249
tp250
F0.0018484288354898336
s(S'[[det]]'
p251
S'actress'
p252
tp253
F0.0018484288354898336
s(S'particularly'
p254
g111
tp255
F0.0018484288354898336
s(S'[[pro]]'
p256
S'met'
p257
tp258
F0.0018484288354898336
s(S'winter'
p259
S'[[con]]'
p260
tp261
F0.0018484288354898336
s(S'were'
p262
S'known'
p263
tp264
F0.0018484288354898336
s(S'best'
p265
S'known'
p266
tp267
F0.031423290203327174
s(S'met'
p268
S'from'
p269
tp270
F0.0018484288354898336
s(S'has'
p271
S'starred'
p272
tp273
F0.005545286506469501
s(S'later'
p274
S'met'
p275
tp276
F0.0036968576709796672
s(S'met'
p277
S'who'
p278
tp279
F0.0018484288354898336
s(S'met'
p280
S'[[adj]]'
p281
tp282
F0.009242144177449169
s(S'when'
p283
S'met'
p284
tp285
F0.0018484288354898336
s(S'mostly'
p286
S'known'
p287
tp288
F0.0036968576709796672
s(S'been'
p289
S'buried'
p290
tp291
F0.0018484288354898336
s(S'known'
p292
S'on'
p293
tp294
F0.0018484288354898336
s(S'[[pro]]'
p295
S'known'
p296
tp297
F0.0018484288354898336
s(S'[[det]]'
p298
g190
tp299
F0.011090573012939002
s(S'of'
p300
S'known'
p301
tp302
F0.0036968576709796672
s(S'met'
p303
S'[[prp]]'
p304
tp305
F0.0073937153419593345
s(S'of'
p306
S'actress'
p307
tp308
F0.0018484288354898336
s(S'met'
p309
S'with'
p310
tp311
F0.018484288354898338
s(S'known'
p312
S'where'
p313
tp314
F0.0018484288354898336
s(S'known'
p315
S'also'
p316
tp317
F0.0036968576709796672
s(S'which'
p318
S'met'
p319
tp320
F0.0018484288354898336
s(S'known'
p321
S'while'
p322
tp323
F0.0018484288354898336
s(S'known'
p324
S'except'
p325
tp326
F0.0018484288354898336
s(g304
S'[[adj]]'
p327
tp328
F0.0018484288354898336
s(S'later'
p329
S'known'
p330
tp331
F0.0018484288354898336
s(S'was'
p332
g69
tp333
F0.0018484288354898336
s(S'be'
p334
S'known'
p335
tp336
F0.005545286506469501
s(S'[[adj]]'
p337
S'known'
p338
tp339
F0.0036968576709796672
s(S'starred'
p340
S'to'
p341
tp342
F0.0018484288354898336
s(S'met'
p343
S'[[det]]'
p344
tp345
F0.012939001848428836
s(S'starred'
p346
S'[[adj]]'
p347
tp348
F0.009242144177449169
s(S'which'
p349
S'starred'
p350
tp351
F0.0073937153419593345
s(S'sometimes'
p352
S'known'
p353
tp354
F0.0018484288354898336
s(S'[[adj]]'
p355
S'relationship'
p356
tp357
F0.009242144177449169
s(S'who'
p358
S'met'
p359
tp360
F0.0018484288354898336
s(S'became'
p361
S'engaged'
p362
tp363
F0.0018484288354898336
s(S'[[num]]'
p364
S'actress'
p365
tp366
F0.0018484288354898336
s(S'partner'
p367
S'at'
p368
tp369
F0.0036968576709796672
s(S'also'
p370
S'met'
p371
tp372
F0.012939001848428836
s(S'[[det]]'
p373
g259
tp374
F0.0018484288354898336
s(S'[[adj]]'
p375
S'met'
p376
tp377
F0.005545286506469501
s(S'[[num]]'
p378
S'met'
p379
tp380
F0.0018484288354898336
s(g120
S'as'
p381
tp382
F0.04436229205175601
s(S'known'
p383
S'though'
p384
tp385
F0.0018484288354898336
s(S'starred'
p386
S'along'
p387
tp388
F0.0036968576709796672
s(S'[[adj]]'
p389
S'partner'
p390
tp391
F0.0166358595194085
s(g287
S'for'
p392
tp393
F0.018484288354898338
s(S'is'
p394
g128
tp395
F0.0073937153419593345
s(S'met'
p396
S'[[pro]]'
p397
tp398
F0.0018484288354898336
s(S'then'
p399
g346
tp400
F0.0073937153419593345
s(S'usually'
p401
S'known'
p402
tp403
F0.0036968576709796672
s(S'that'
p404
S'met'
p405
tp406
F0.0018484288354898336
s(S'met'
p407
S'after'
p408
tp409
F0.0018484288354898336
s(S'actress'
p410
S'[[con]]'
p411
tp412
F0.0036968576709796672
s(S'where'
p413
g309
tp414
F0.009242144177449169
s(S'costarred'
p415
S'on'
p416
tp417
F0.0018484288354898336
s(S'relationship'
p418
S'with'
p419
tp420
F0.011090573012939002
s(S'which'
p421
S'costarred'
p422
tp423
F0.0036968576709796672
s(g40
S'assistant'
p424
tp425
F0.0018484288354898336
s(S'had'
p426
g116
tp427
F0.005545286506469501
s(S'[[con]]'
p428
S'actress'
p429
tp430
F0.0018484288354898336
s(S'had'
p431
S'met'
p432
tp433
F0.012939001848428836
s(g424
S'to'
p434
tp435
F0.0018484288354898336
s(S'[[num]]'
p436
S'known'
p437
tp438
F0.0036968576709796672
s(S'known'
p439
S'although'
p440
tp441
F0.0018484288354898336
s(S'[[det]]'
p442
S'relationship'
p443
tp444
F0.0073937153419593345
s(S'met'
p445
S'as'
p446
tp447
F0.0018484288354898336
s(S'known'
p448
S'to'
p449
tp450
F0.014787430683918669
s(S'met'
p451
S'[[num]]'
p452
tp453
F0.0018484288354898336
s(S'that'
p454
S'known'
p455
tp456
F0.0018484288354898336
s(g43
S'with'
p457
tp458
F0.011090573012939002
s(S'most'
p459
S'known'
p460
tp461
F0.005545286506469501
s(S'has'
p462
S'met'
p463
tp464
F0.005545286506469501
s(S'known'
p465
S'about'
p466
tp467
F0.0036968576709796672
s(S'met'
p468
S'[[con]]'
p469
tp470
F0.0166358595194085
s(S'also'
p471
S'costarred'
p472
tp473
F0.0073937153419593345
s(S'actress'
p474
S'in'
p475
tp476
F0.0018484288354898336
s(S'[[det]]'
p477
S'known'
p478
tp479
F0.0018484288354898336
s(S'be'
p480
S'buried'
p481
tp482
F0.0018484288354898336
s(S'then'
p483
S'known'
p484
tp485
F0.0018484288354898336
s(S'known'
p486
S'being'
p487
tp488
F0.0036968576709796672
s(S'[[det]]'
p489
S'met'
p490
tp491
F0.0018484288354898336
s(S'is'
p492
g7
tp493
F0.0018484288354898336
s(g155
S'with'
p494
tp495
F0.014787430683918669
s(g432
S'through'
p496
tp497
F0.0036968576709796672
s(S'later'
p498
S'starred'
p499
tp500
F0.005545286506469501
s(S'known'
p501
S'after'
p502
tp503
F0.005545286506469501
s(g390
S'[[con]]'
p504
tp505
F0.005545286506469501
s(S'never'
p506
S'met'
p507
tp508
F0.0018484288354898336
s(S'known'
p509
S'by'
p510
tp511
F0.009242144177449169
s(g434
g373
tp512
F0.0018484288354898336
s(S'costarred'
p513
S'[[con]]'
p514
tp515
F0.0036968576709796672
s(g422
S'with'
p516
tp517
F0.005545286506469501
s(S'starred'
p518
S'[[con]]'
p519
tp520
F0.005545286506469501
s(g209
g187
tp521
F0.005545286506469501
s(S'buried'
p522
S'there'
p523
tp524
F0.0018484288354898336
s(S'also'
p525
S'starred'
p526
tp527
F0.0166358595194085
s(S'relationship'
p528
S'[[con]]'
p529
tp530
F0.0036968576709796672
s(g70
S'actor'
p531
tp532
F0.0036968576709796672
s(S'costarred'
p533
S'as'
p534
tp535
F0.0018484288354898336
s.