(dp0
(S'served'
p1
S'becoming'
p2
tp3
F0.003367003367003367
s(S'served'
p4
S'later'
p5
tp6
F0.003367003367003367
s(S'then'
p7
S'served'
p8
tp9
F0.026936026936026935
s(S'member'
p10
S'from'
p11
tp12
F0.006734006734006734
s(S'was'
p13
S'member'
p14
tp15
F0.02356902356902357
s(S'member'
p16
S'until'
p17
tp18
F0.003367003367003367
s(S'had'
p19
S'served'
p20
tp21
F0.020202020202020204
s(S'as'
p22
S'member'
p23
tp24
F0.003367003367003367
s(S'of'
p25
S'member'
p26
tp27
F0.003367003367003367
s(S'member'
p28
S'[[adj]]'
p29
tp30
F0.006734006734006734
s(S'also'
p31
S'served'
p32
tp33
F0.050505050505050504
s(S'[[pro]]'
p34
S'served'
p35
tp36
F0.003367003367003367
s(S'member'
p37
S'during'
p38
tp39
F0.003367003367003367
s(S'[[num]]'
p40
S'served'
p41
tp42
F0.013468013468013467
s(S'of'
p43
S'served'
p44
tp45
F0.003367003367003367
s(S'served'
p46
S'where'
p47
tp48
F0.003367003367003367
s(S'member'
p49
S'when'
p50
tp51
F0.003367003367003367
s(S'member'
p52
S'[[num]]'
p53
tp54
F0.013468013468013467
s(S'who'
p55
S'served'
p56
tp57
F0.013468013468013467
s(S'[[con]]'
p58
S'member'
p59
tp60
F0.010101010101010102
s(S'again'
p61
S'served'
p62
tp63
F0.006734006734006734
s(S'served'
p64
S'from'
p65
tp66
F0.006734006734006734
s(S'served'
p67
S'as'
p68
tp69
F0.03367003367003367
s(S'has'
p70
g67
tp71
F0.04713804713804714
s(S'served'
p72
S'then'
p73
tp74
F0.003367003367003367
s(S'member'
p75
S'[[con]]'
p76
tp77
F0.020202020202020204
s(S'member'
p78
S'of'
p79
tp80
F0.03367003367003367
s(S'served'
p81
S'[[adj]]'
p82
tp83
F0.013468013468013467
s(S'served'
p84
S'now'
p85
tp86
F0.003367003367003367
s(S'member'
p87
S'at'
p88
tp89
F0.010101010101010102
s(S'served'
p90
S'[[det]]'
p91
tp92
F0.020202020202020204
s(S'is'
p93
S'member'
p94
tp95
F0.010101010101010102
s(S'served'
p96
S'at'
p97
tp98
F0.030303030303030304
s(S'where'
p99
S'served'
p100
tp101
F0.006734006734006734
s(g32
S'of'
p102
tp103
F0.006734006734006734
s(S'member'
p104
S'has'
p105
tp106
F0.003367003367003367
s(S'served'
p107
S'[[con]]'
p108
tp109
F0.016835016835016835
s(S'served'
p110
S'until'
p111
tp112
F0.006734006734006734
s(S'have'
p113
S'served'
p114
tp115
F0.003367003367003367
s(S'served'
p116
S'there'
p117
tp118
F0.003367003367003367
s(S'served'
p119
S'first'
p120
tp121
F0.003367003367003367
s(S'[[adj]]'
p122
g96
tp123
F0.013468013468013467
s(S'when'
p124
S'served'
p125
tp126
F0.003367003367003367
s(S'member'
p127
S'who'
p128
tp129
F0.003367003367003367
s(S'member'
p130
S'to'
p131
tp132
F0.003367003367003367
s(S'member'
p133
S'[[det]]'
p134
tp135
F0.02356902356902357
s(S'[[det]]'
p136
g16
tp137
F0.06060606060606061
s(S'formerly'
p138
S'served'
p139
tp140
F0.013468013468013467
s(S'[[adj]]'
p141
g75
tp142
F0.04040404040404041
s(S'twice'
p143
S'served'
p144
tp145
F0.006734006734006734
s(S'served'
p146
S'again'
p147
tp148
F0.003367003367003367
s(S'also'
p149
S'member'
p150
tp151
F0.006734006734006734
s(S'member'
p152
S'as'
p153
tp154
F0.006734006734006734
s(S'served'
p155
S'on'
p156
tp157
F0.030303030303030304
s(S'[[con]]'
p158
S'served'
p159
tp160
F0.020202020202020204
s(S'[[num]]'
p161
S'member'
p162
tp163
F0.003367003367003367
s(S'member'
p164
S'for'
p165
tp166
F0.013468013468013467
s(S'served'
p167
S'[[num]]'
p168
tp169
F0.006734006734006734
s(g139
S'to'
p170
tp171
F0.020202020202020204
s(S'served'
p172
S'before'
p173
tp174
F0.010101010101010102
s(S'was'
p175
S'served'
p176
tp177
F0.003367003367003367
s(S'became'
p178
S'member'
p179
tp180
F0.010101010101010102
s(g159
S'for'
p181
tp182
F0.030303030303030304
s(g14
S'in'
p183
tp184
F0.010101010101010102
s(S'member'
p185
S's'
p186
tp187
F0.003367003367003367
s(S'member'
p188
S'on'
p189
tp190
F0.006734006734006734
s(S'member'
p191
S'which'
p192
tp193
F0.003367003367003367
s(S'first'
p194
S'served'
p195
tp196
F0.006734006734006734
s(S'later'
p197
g107
tp198
F0.026936026936026935
s(S'[[det]]'
p199
S'served'
p200
tp201
F0.006734006734006734
s(S'served'
p202
S'with'
p203
tp204
F0.04040404040404041
s(S'served'
p205
S'in'
p206
tp207
F0.05387205387205387
s.