(dp0
(S'schools'
p1
S'[[num]]'
p2
tp3
F0.00684931506849315
s(S'[[con]]'
p4
S'located'
p5
tp6
F0.00684931506849315
s(S'in'
p7
S'[[det]]'
p8
tp9
F0.00684931506849315
s(S'including'
p10
S'what'
p11
tp12
F0.0136986301369863
s(S'[[num]]'
p13
S'schools'
p14
tp15
F0.00684931506849315
s(S'[[adj]]'
p16
S'known'
p17
tp18
F0.00684931506849315
s(S'in'
p19
S'school'
p20
tp21
F0.00684931506849315
s(S'school'
p22
S'in'
p23
tp24
F0.0273972602739726
s(S'located'
p25
S'at'
p26
tp27
F0.0136986301369863
s(S'[[num]]'
p28
S'located'
p29
tp30
F0.00684931506849315
s(S'states'
p31
S'of'
p32
tp33
F0.00684931506849315
s(S'became'
p34
S'[[adj]]'
p35
tp36
F0.00684931506849315
s(S'quickly'
p37
g34
tp38
F0.00684931506849315
s(S'[[det]]'
p39
S'frontier'
p40
tp41
F0.00684931506849315
s(S'[[det]]'
p42
S'largest'
p43
tp44
F0.0136986301369863
s(S'of'
p45
S'schools'
p46
tp47
F0.00684931506849315
s(S'had'
p48
S'added'
p49
tp50
F0.0136986301369863
s(S'[[adj]]'
p51
S'territories'
p52
tp53
F0.00684931506849315
s(S'[[det]]'
p54
S'located'
p55
tp56
F0.0136986301369863
s(S'is'
p57
S'located'
p58
tp59
F0.0136986301369863
s(S'experienced'
p60
S'[[adj]]'
p61
tp62
F0.00684931506849315
s(S'contained'
p63
S'[[num]]'
p64
tp65
F0.00684931506849315
s(g8
S'community'
p66
tp67
F0.00684931506849315
s(S'laws'
p68
S'of'
p69
tp70
F0.00684931506849315
s(S'as'
p71
S'portions'
p72
tp73
F0.00684931506849315
s(S'[[det]]'
p74
S'school'
p75
tp76
F0.02054794520547945
s(S'neighborhood'
p77
S'in'
p78
tp79
F0.00684931506849315
s(S'[[adj]]'
p80
S'states'
p81
tp82
F0.00684931506849315
s(g49
S'[[det]]'
p83
tp84
F0.0136986301369863
s(S'[[adj]]'
p85
S'largest'
p86
tp87
F0.00684931506849315
s(g83
S'[[adj]]'
p88
tp89
F0.0136986301369863
s(g66
S'of'
p90
tp91
F0.00684931506849315
s(S'miles'
p92
g10
tp93
F0.0136986301369863
s(S'is'
p94
S'typically'
p95
tp96
F0.00684931506849315
s(S'[[det]]'
p97
S'rest'
p98
tp99
F0.00684931506849315
s(g64
S'states'
p100
tp101
F0.00684931506849315
s(S'school'
p102
S'situated'
p103
tp104
F0.0136986301369863
s(S'been'
p105
S'located'
p106
tp107
F0.00684931506849315
s(S'election'
p108
S'in'
p109
tp110
F0.00684931506849315
s(S'[[adj]]'
p111
g108
tp112
F0.00684931506849315
s(S'school'
p113
S'grades'
p114
tp115
F0.0136986301369863
s(S'school'
p116
S'near'
p117
tp118
F0.00684931506849315
s(S'producer'
p119
S'with'
p120
tp121
F0.00684931506849315
s(S'located'
p122
S'between'
p123
tp124
F0.00684931506849315
s(S'located'
p125
S'on'
p126
tp127
F0.0136986301369863
s(S'school'
p128
S'on'
p129
tp130
F0.00684931506849315
s(S'[[adj]]'
p131
g77
tp132
F0.00684931506849315
s(S'[[con]]'
p133
g51
tp134
F0.00684931506849315
s(S's'
p135
S'located'
p136
tp137
F0.00684931506849315
s(S'located'
p138
S'in'
p139
tp140
F0.0958904109589041
s(S'[[det]]'
p141
S'number'
p142
tp143
F0.00684931506849315
s(S'was'
p144
S'located'
p145
tp146
F0.00684931506849315
s(g100
g133
tp147
F0.00684931506849315
s(g35
g119
tp148
F0.00684931506849315
s(S'school'
p149
g125
tp150
F0.06164383561643835
s(S'located'
p151
S'near'
p152
tp153
F0.0136986301369863
s(g98
S'to'
p154
tp155
F0.00684931506849315
s(S'currently'
p156
S'located'
p157
tp158
F0.00684931506849315
s(g72
S'of'
p159
tp160
F0.00684931506849315
s(S'school'
p161
S'[[det]]'
p162
tp163
F0.0136986301369863
s(g58
S'[[det]]'
p164
tp165
F0.0136986301369863
s(S'[[det]]'
p166
S'states'
p167
tp168
F0.0136986301369863
s(S'of'
p169
S'school'
p170
tp171
F0.00684931506849315
s(g114
g28
tp172
F0.0136986301369863
s(g88
g92
tp173
F0.0136986301369863
s(g11
S'today'
p174
tp175
F0.0136986301369863
s(S'[[adj]]'
p176
S'schools'
p177
tp178
F0.00684931506849315
s(g14
S'in'
p179
tp180
F0.02054794520547945
s(g167
g71
tp181
F0.00684931506849315
s(S'[[adj]]'
p182
S'located'
p183
tp184
F0.0136986301369863
s(g174
g166
tp185
F0.0136986301369863
s(g142
g97
tp186
F0.00684931506849315
s(g103
S'in'
p187
tp188
F0.00684931506849315
s(g86
S'[[adj]]'
p189
tp190
F0.02054794520547945
s(S'of'
p191
S'located'
p192
tp193
F0.00684931506849315
s(g17
g39
tp194
F0.00684931506849315
s(g95
g80
tp195
F0.00684931506849315
s(S'[[adj]]'
p196
g128
tp197
F0.1232876712328767
s.