(dp0
(S'recorded'
p1
S'at'
p2
tp3
F0.07692307692307693
s(S'recorded'
p4
S'[[pro]]'
p5
tp6
F0.038461538461538464
s(S'recorded'
p7
S'[[det]]'
p8
tp9
F0.038461538461538464
s(S'recorded'
p10
S'on'
p11
tp12
F0.038461538461538464
s(S'also'
p13
S'recorded'
p14
tp15
F0.038461538461538464
s(S'recorded'
p16
S'[[adj]]'
p17
tp18
F0.038461538461538464
s(S'recorded'
p19
S'during'
p20
tp21
F0.038461538461538464
s(S'recorded'
p22
S'for'
p23
tp24
F0.038461538461538464
s(S'been'
p25
S'recorded'
p26
tp27
F0.038461538461538464
s(g26
S'from'
p28
tp29
F0.038461538461538464
s(S'recorded'
p30
S'[[num]]'
p31
tp32
F0.038461538461538464
s(S'were'
p33
S'recorded'
p34
tp35
F0.038461538461538464
s(S'recorded'
p36
S'[[con]]'
p37
tp38
F0.038461538461538464
s(S'was'
p39
g36
tp40
F0.34615384615384615
s(g14
S'in'
p41
tp42
F0.11538461538461539
s.