(dp0
(S'politician'
p1
S'from'
p2
tp3
F0.002904865649963689
s(S'born'
p4
S'was'
p5
tp6
F0.0007262164124909223
s(S'elected'
p7
S'mayor'
p8
tp9
F0.0007262164124909223
s(S'when'
p10
S'served'
p11
tp12
F0.0014524328249818446
s(S'[[pro]]'
p13
S'arrived'
p14
tp15
F0.0007262164124909223
s(S'later'
p16
S'entered'
p17
tp18
F0.0014524328249818446
s(S'first'
p19
S'arrived'
p20
tp21
F0.0007262164124909223
s(S'was'
p22
S'born'
p23
tp24
F0.0007262164124909223
s(S'who'
p25
S'served'
p26
tp27
F0.002904865649963689
s(S'governor'
p28
S'in'
p29
tp30
F0.002178649237472767
s(S'also'
p31
S'elected'
p32
tp33
F0.0014524328249818446
s(S'represented'
p34
S'to'
p35
tp36
F0.0014524328249818446
s(S'candidate'
p37
S'[[con]]'
p38
tp39
F0.002178649237472767
s(S'[[det]]'
p40
S'represented'
p41
tp42
F0.0007262164124909223
s(S'served'
p43
S'first'
p44
tp45
F0.0007262164124909223
s(S'was'
p46
S'leader'
p47
tp48
F0.002178649237472767
s(S'was'
p49
S'representing'
p50
tp51
F0.0007262164124909223
s(S'of'
p52
S'representing'
p53
tp54
F0.0007262164124909223
s(S'birthplace'
p55
S'in'
p56
tp57
F0.0007262164124909223
s(S'arrived'
p58
S'for'
p59
tp60
F0.0007262164124909223
s(S'served'
p61
S'[[pro]]'
p62
tp63
F0.0007262164124909223
s(S'race'
p64
S'in'
p65
tp66
F0.002904865649963689
s(S'elected'
p67
S'as'
p68
tp69
F0.01670297748729121
s(S'delegate'
p70
S'from'
p71
tp72
F0.0014524328249818446
s(S'official'
p73
S'in'
p74
tp75
F0.0007262164124909223
s(S'first'
p76
S'represented'
p77
tp78
F0.002178649237472767
s(S'not'
p79
S'represent'
p80
tp81
F0.0007262164124909223
s(S'interred'
p82
S'in'
p83
tp84
F0.0007262164124909223
s(S'district'
p85
S'of'
p86
tp87
F0.0007262164124909223
s(S'then'
p88
S'served'
p89
tp90
F0.005809731299927378
s(S'campaign'
p91
S'[[num]]'
p92
tp93
F0.0007262164124909223
s(S'represented'
p94
S'against'
p95
tp96
F0.0014524328249818446
s(S'bar'
p97
S'in'
p98
tp99
F0.0014524328249818446
s(S'served'
p100
S'again'
p101
tp102
F0.0007262164124909223
s(S'was'
p103
g82
tp104
F0.0007262164124909223
s(S'entered'
p105
S'into'
p106
tp107
F0.0007262164124909223
s(S'who'
p108
S'represented'
p109
tp110
F0.0007262164124909223
s(S'also'
p111
S'stood'
p112
tp113
F0.0014524328249818446
s(S'member'
p114
S'on'
p115
tp116
F0.0014524328249818446
s(S'seat'
p117
S'in'
p118
tp119
F0.002904865649963689
s(S'for'
p120
S'district'
p121
tp122
F0.0014524328249818446
s(S'seat'
p123
S'on'
p124
tp125
F0.0014524328249818446
s(S'member'
p126
S'at'
p127
tp128
F0.0036310820624546117
s(S'[[det]]'
p129
S'practice'
p130
tp131
F0.002178649237472767
s(S'settled'
p132
S'[[con]]'
p133
tp134
F0.0007262164124909223
s(S'is'
p135
S'[[adj]]'
p136
tp137
F0.002178649237472767
s(S'elected'
p138
S'defeating'
p139
tp140
F0.0007262164124909223
s(S'served'
p141
S'[[det]]'
p142
tp143
F0.004357298474945534
s(S'for'
p144
S'representing'
p145
tp146
F0.0007262164124909223
s(S'born'
p147
S'[[num]]'
p148
tp149
F0.005809731299927378
s(S'resident'
p150
S'of'
p151
tp152
F0.0014524328249818446
s(S'[[con]]'
p153
S'governor'
p154
tp155
F0.0007262164124909223
s(S'where'
p156
S'entered'
p157
tp158
F0.0007262164124909223
s(S'[[adj]]'
p159
S'resident'
p160
tp161
F0.002178649237472767
s(S'[[det]]'
p162
S'served'
p163
tp164
F0.0014524328249818446
s(S'[[adj]]'
p165
S'representing'
p166
tp167
F0.0007262164124909223
s(S'served'
p168
S'later'
p169
tp170
F0.0007262164124909223
s(S'entered'
p171
S'[[adj]]'
p172
tp173
F0.0007262164124909223
s(S'as'
p174
S'member'
p175
tp176
F0.002178649237472767
s(S'served'
p177
S'against'
p178
tp179
F0.0007262164124909223
s(S'[[adj]]'
p180
S'settled'
p181
tp182
F0.0007262164124909223
s(S'leader'
p183
S'for'
p184
tp185
F0.0014524328249818446
s(S'member'
p186
S'who'
p187
tp188
F0.0007262164124909223
s(S'[[adj]]'
p189
S'delegate'
p190
tp191
F0.0014524328249818446
s(S'again'
p192
S'served'
p193
tp194
F0.0014524328249818446
s(S'again'
p195
S'elected'
p196
tp197
F0.0014524328249818446
s(S'member'
p198
S'as'
p199
tp200
F0.002178649237472767
s(S'[[prp]]'
p201
S'[[adj]]'
p202
tp203
F0.0007262164124909223
s(S'served'
p204
S'at'
p205
tp206
F0.006535947712418301
s(S'served'
p207
S'of'
p208
tp209
F0.0014524328249818446
s(S'served'
p210
S'until'
p211
tp212
F0.0014524328249818446
s(S'had'
p213
S'served'
p214
tp215
F0.005083514887436456
s(S'[[adj]]'
p216
S'elected'
p217
tp218
F0.004357298474945534
s(S'is'
p219
S'admitted'
p220
tp221
F0.0007262164124909223
s(S'bar'
p222
S'at'
p223
tp224
F0.0007262164124909223
s(S'elected'
p225
S'governor'
p226
tp227
F0.0014524328249818446
s(S'[[prp]]'
p228
S'hometown'
p229
tp230
F0.0007262164124909223
s(S'[[adj]]'
p231
S'arrived'
p232
tp233
F0.0007262164124909223
s(S'successfully'
p234
S'ran'
p235
tp236
F0.0007262164124909223
s(S'nominee'
p237
S'for'
p238
tp239
F0.0007262164124909223
s(S'served'
p240
S'for'
p241
tp242
F0.006535947712418301
s(S'[[det]]'
p243
S'delegate'
p244
tp245
F0.0036310820624546117
s(S'reelected'
p246
S'[[con]]'
p247
tp248
F0.0007262164124909223
s(S'politician'
p249
S'who'
p250
tp251
F0.0007262164124909223
s(S'candidate'
p252
S'of'
p253
tp254
F0.0014524328249818446
s(S'later'
p255
g132
tp256
F0.0014524328249818446
s(S'politician'
p257
S'in'
p258
tp259
F0.0036310820624546117
s(S'of'
p260
S'[[det]]'
p261
tp262
F0.0014524328249818446
s(S'resided'
p263
S'in'
p264
tp265
F0.002178649237472767
s(S'[[num]]'
p266
S'served'
p267
tp268
F0.002904865649963689
s(S'in'
p269
S'served'
p270
tp271
F0.0007262164124909223
s(S'first'
p272
S'settled'
p273
tp274
F0.0014524328249818446
s(S'[[con]]'
p275
S'member'
p276
tp277
F0.002178649237472767
s(S'from'
p278
S'district'
p279
tp280
F0.002178649237472767
s(S'native'
p281
S'of'
p282
tp283
F0.0014524328249818446
s(S'winning'
p284
S'[[det]]'
p285
tp286
F0.0007262164124909223
s(S'[[adj]]'
p287
S'district'
p288
tp289
F0.002178649237472767
s(g136
S'politician'
p290
tp291
F0.002904865649963689
s(S'district'
p292
S'in'
p293
tp294
F0.0014524328249818446
s(S'[[con]]'
p295
S'[[det]]'
p296
tp297
F0.002904865649963689
s(S'candidate'
p298
S'was'
p299
tp300
F0.0007262164124909223
s(S'range'
p301
S'[[det]]'
p302
tp303
F0.0014524328249818446
s(S'[[con]]'
p304
S'then'
p305
tp306
F0.0007262164124909223
s(S'[[det]]'
p307
S'entered'
p308
tp309
F0.0007262164124909223
s(S'before'
p310
S'settling'
p311
tp312
F0.0007262164124909223
s(S'have'
p313
S'arrived'
p314
tp315
F0.0007262164124909223
s(S'began'
p316
S'practice'
p317
tp318
F0.0007262164124909223
s(S'became'
p319
S'leader'
p320
tp321
F0.0014524328249818446
s(S'was'
p322
S'served'
p323
tp324
F0.0007262164124909223
s(S'is'
p325
S'[[det]]'
p326
tp327
F0.004357298474945534
s(g89
S'in'
p328
tp329
F0.013798111837327523
s(S'[[det]]'
p330
S'politician'
p331
tp332
F0.008714596949891068
s(S'was'
p333
S'elected'
p334
tp335
F0.04502541757443718
s(S'elected'
p336
S'of'
p337
tp338
F0.002904865649963689
s(S'practice'
p339
S'at'
p340
tp341
F0.0007262164124909223
s(g20
S'in'
p342
tp343
F0.005809731299927378
s(S'became'
p344
S'member'
p345
tp346
F0.002178649237472767
s(g190
S'in'
p347
tp348
F0.0014524328249818446
s(S'won'
p349
g201
tp350
F0.0007262164124909223
s(S'[[adj]]'
p351
g73
tp352
F0.0007262164124909223
s(g68
S'[[det]]'
p353
tp354
F0.010893246187363835
s(S'member'
p355
S's'
p356
tp357
F0.0007262164124909223
s(S'campaign'
p358
S'against'
p359
tp360
F0.002904865649963689
s(S'[[adj]]'
p361
S'represented'
p362
tp363
F0.0007262164124909223
s(S'for'
p364
S'[[det]]'
p365
tp366
F0.005809731299927378
s(S'byelection'
p367
S'for'
p368
tp369
F0.0007262164124909223
s(S'born'
p370
S'c'
p371
tp372
F0.0007262164124909223
s(S'nominee'
p373
S'in'
p374
tp375
F0.0007262164124909223
s(S'was'
p376
S'admitted'
p377
tp378
F0.004357298474945534
s(S'to'
p379
S'serve'
p380
tp381
F0.0014524328249818446
s(S'located'
p382
S'in'
p383
tp384
F0.0007262164124909223
s(S'victories'
p385
S'in'
p386
tp387
F0.0007262164124909223
s(S'[[det]]'
p388
g237
tp389
F0.0014524328249818446
s(S'represented'
p390
S'before'
p391
tp392
F0.0007262164124909223
s(S'member'
p393
S'to'
p394
tp395
F0.0007262164124909223
s(S'served'
p396
S'off'
p397
tp398
F0.0007262164124909223
s(S'entered'
p399
S'after'
p400
tp401
F0.0007262164124909223
s(S'was'
p402
S'defeated'
p403
tp404
F0.0007262164124909223
s(S'[[adj]]'
p405
S'woman'
p406
tp407
F0.0014524328249818446
s(S'candidate'
p408
g278
tp409
F0.0007262164124909223
s(S'leader'
p410
S'of'
p411
tp412
F0.005809731299927378
s(S'served'
p413
S'there'
p414
tp415
F0.0007262164124909223
s(S'represented'
p416
S'on'
p417
tp418
F0.0014524328249818446
s(S'[[det]]'
p419
S'constituency'
p420
tp421
F0.002178649237472767
s(S'home'
p422
S'state'
p423
tp424
F0.002178649237472767
s(S'[[adj]]'
p425
g37
tp426
F0.002904865649963689
s(g423
S'of'
p427
tp428
F0.005083514887436456
s(S'later'
p429
S'represented'
p430
tp431
F0.0014524328249818446
s(g196
S'from'
p432
tp433
F0.006535947712418301
s(S'governor'
p434
S'[[det]]'
p435
tp436
F0.002178649237472767
s(S'[[con]]'
p437
S'resided'
p438
tp439
F0.0007262164124909223
s(S'[[con]]'
p440
S'was'
p441
tp442
F0.004357298474945534
s(S'terms'
p443
S'as'
p444
tp445
F0.0007262164124909223
s(g112
S'against'
p446
tp447
F0.0007262164124909223
s(S'transferred'
p448
S'to'
p449
tp450
F0.0007262164124909223
s(S'represented'
p451
S'[[num]]'
p452
tp453
F0.0007262164124909223
s(S'[[con]]'
p454
S'represented'
p455
tp456
F0.0007262164124909223
s(S'[[det]]'
p457
S'campaign'
p458
tp459
F0.0014524328249818446
s(S'as'
p460
S'[[adj]]'
p461
tp462
F0.002178649237472767
s(S'politician'
p463
S'of'
p464
tp465
F0.0014524328249818446
s(S'served'
p466
S'from'
p467
tp468
F0.002178649237472767
s(S'represented'
p469
S'[[det]]'
p470
tp471
F0.008714596949891068
s(S'when'
p472
S'entered'
p473
tp474
F0.0014524328249818446
s(S'member'
p475
S'until'
p476
tp477
F0.0007262164124909223
s(S'arrived'
p478
S'after'
p479
tp480
F0.0007262164124909223
s(S'commenced'
p481
g129
tp482
F0.0007262164124909223
s(g377
S'to'
p483
tp484
F0.005083514887436456
s(S'is'
p485
S'elected'
p486
tp487
F0.002178649237472767
s(S'as'
p488
S'governor'
p489
tp490
F0.002904865649963689
s(S'represented'
p491
S'[[prp]]'
p492
tp493
F0.0007262164124909223
s(S'[[prp]]'
p494
g422
tp495
F0.0007262164124909223
s(S'also'
p496
g416
tp497
F0.005083514887436456
s(S'then'
p498
S'settled'
p499
tp500
F0.0007262164124909223
s(S'became'
p501
S'governor'
p502
tp503
F0.0014524328249818446
s(S'have'
p504
S'served'
p505
tp506
F0.0007262164124909223
s(S'member'
p507
S'[[det]]'
p508
tp509
F0.012345679012345678
s(S'as'
p510
g410
tp511
F0.0007262164124909223
s(S'[[adj]]'
p512
g126
tp513
F0.015250544662309368
s(S'formerly'
p514
S'served'
p515
tp516
F0.002904865649963689
s(S'also'
p517
S'member'
p518
tp519
F0.002178649237472767
s(S'[[adj]]'
p520
S'mayor'
p521
tp522
F0.0007262164124909223
s(S'since'
p523
S'served'
p524
tp525
F0.0007262164124909223
s(g420
S'in'
p526
tp527
F0.002178649237472767
s(S'served'
p528
S'most'
p529
tp530
F0.0007262164124909223
s(S'arrived'
p531
S'from'
p532
tp533
F0.0014524328249818446
s(S'member'
p534
S'[[num]]'
p535
tp536
F0.002904865649963689
s(S'settled'
p537
S'down'
p538
tp539
F0.0007262164124909223
s(S'was'
p540
S'resident'
p541
tp542
F0.0007262164124909223
s(S'leader'
p543
S'in'
p544
tp545
F0.002178649237472767
s(S'graduated'
p546
S'[[con]]'
p547
tp548
F0.0014524328249818446
s(S'[[mod]]'
p549
S'represent'
p550
tp551
F0.0007262164124909223
s(S'also'
p552
S'entered'
p553
tp554
F0.0007262164124909223
s(g356
S'home'
p555
tp556
F0.0007262164124909223
s(S'candidate'
p557
g120
tp558
F0.002178649237472767
s(S'was'
p559
S'reelected'
p560
tp561
F0.002904865649963689
s(g229
S'of'
p562
tp563
F0.0007262164124909223
s(S'[[det]]'
p564
S'mountain'
p565
tp566
F0.002178649237472767
s(S'to'
p567
S'member'
p568
tp569
F0.0007262164124909223
s(S'governor'
p570
S'[[con]]'
p571
tp572
F0.0007262164124909223
s(S'stood'
p573
S'for'
p574
tp575
F0.002904865649963689
s(S'later'
p576
S'served'
p577
tp578
F0.007262164124909223
s(S'bar'
p579
S'of'
p580
tp581
F0.0007262164124909223
s(S'to'
p582
S'[[det]]'
p583
tp584
F0.007988380537400145
s(S'entered'
p585
S'[[con]]'
p586
tp587
F0.0007262164124909223
s(S'defeated'
p588
S'from'
p589
tp590
F0.0014524328249818446
s(S'then'
p591
S'defeated'
p592
tp593
F0.0007262164124909223
s(S'elected'
p594
S'member'
p595
tp596
F0.005083514887436456
s(S'elected'
p597
g364
tp598
F0.004357298474945534
s(S'[[adj]]'
p599
S'waterway'
p600
tp601
F0.0007262164124909223
s(S'represent'
p602
S'[[con]]'
p603
tp604
F0.0007262164124909223
s(S'[[num]]'
p605
S'representing'
p606
tp607
F0.0007262164124909223
s(S'constituency'
p608
S'of'
p609
tp610
F0.0014524328249818446
s(S'had'
p611
S'represented'
p612
tp613
F0.002178649237472767
s(S'[[adj]]'
p614
S'campaign'
p615
tp616
F0.002178649237472767
s(S'of'
p617
S'member'
p618
tp619
F0.0007262164124909223
s(S'[[adj]]'
p620
S'mountain'
p621
tp622
F0.002178649237472767
s(g5
S'[[det]]'
p623
tp624
F0.0007262164124909223
s(S'as'
p625
S'for'
p626
tp627
F0.0007262164124909223
s(S'elected'
p628
S'in'
p629
tp630
F0.002904865649963689
s(g139
S'[[det]]'
p631
tp632
F0.0007262164124909223
s(S'[[num]]'
p633
S'terms'
p634
tp635
F0.0014524328249818446
s(S'be'
p636
g628
tp637
F0.0014524328249818446
s(S'moved'
p638
S'to'
p639
tp640
F0.0014524328249818446
s(S'served'
p641
S'on'
p642
tp643
F0.006535947712418301
s(g244
S'for'
p644
tp645
F0.0014524328249818446
s(g235
S'for'
p646
tp647
F0.0014524328249818446
s(S'as'
p648
S'mayor'
p649
tp650
F0.0007262164124909223
s(S'[[con]]'
p651
S'entered'
p652
tp653
F0.0014524328249818446
s(S'[[adj]]'
p654
S'leader'
p655
tp656
F0.002904865649963689
s(S'[[det]]'
p657
S'district'
p658
tp659
F0.002904865649963689
s(S'represented'
p660
S'while'
p661
tp662
F0.0014524328249818446
s(S'member'
p663
S'of'
p664
tp665
F0.02251270878721859
s(g380
S'as'
p666
tp667
F0.0014524328249818446
s(S'represent'
p668
S'[[det]]'
p669
tp670
F0.002904865649963689
s(S'[[adj]]'
p671
g443
tp672
F0.0007262164124909223
s(S'member'
p673
S'when'
p674
tp675
F0.0007262164124909223
s(S'[[con]]'
p676
S'politician'
p677
tp678
F0.0007262164124909223
s(S'contested'
p679
S'[[det]]'
p680
tp681
F0.002904865649963689
s(S'[[con]]'
p682
S'leader'
p683
tp684
F0.0007262164124909223
s(S'[[det]]'
p685
S'resident'
p686
tp687
F0.002178649237472767
s(S'member'
p688
S'has'
p689
tp690
F0.0007262164124909223
s(S'[[mod]]'
p691
S'serve'
p692
tp693
F0.0007262164124909223
s(S'become'
p694
S'leader'
p695
tp696
F0.0007262164124909223
s(S'reelected'
p697
S'to'
p698
tp699
F0.0014524328249818446
s(S'seat'
p700
S'for'
p701
tp702
F0.0036310820624546117
s(S'elected'
p703
g582
tp704
F0.007988380537400145
s(g371
S'[[det]]'
p705
tp706
F0.0007262164124909223
s(S'member'
p707
S'which'
p708
tp709
F0.0007262164124909223
s(S'attorney'
p710
S'general'
p711
tp712
F0.0014524328249818446
s(S'commenced'
p713
S'practice'
p714
tp715
F0.0007262164124909223
s(S'served'
p716
S'with'
p717
tp718
F0.008714596949891068
s(S'arrived'
p719
S'back'
p720
tp721
F0.0007262164124909223
s(S'[[det]]'
p722
S'elected'
p723
tp724
F0.0036310820624546117
s(S'member'
p725
S'from'
p726
tp727
F0.002178649237472767
s(S'first'
p728
S'entered'
p729
tp730
F0.0014524328249818446
s(S'reelected'
p731
S'as'
p732
tp733
F0.0007262164124909223
s(g365
S'seat'
p734
tp735
F0.014524328249818447
s(S'member'
p736
S'[[adj]]'
p737
tp738
F0.0014524328249818446
s(S'[[pro]]'
p739
S'served'
p740
tp741
F0.0007262164124909223
s(S'was'
p742
S'entered'
p743
tp744
F0.0007262164124909223
s(S'[[det]]'
p745
S'race'
p746
tp747
F0.0007262164124909223
s(g634
S'for'
p748
tp749
F0.0007262164124909223
s(S'being'
p750
S'defeated'
p751
tp752
F0.0007262164124909223
s(g649
S'of'
p753
tp754
F0.0036310820624546117
s(S'has'
p755
S'served'
p756
tp757
F0.010167029774872912
s(S'married'
p758
S'[[con]]'
p759
tp760
F0.0007262164124909223
s(S'[[det]]'
p761
g512
tp762
F0.007988380537400145
s(S'defeated'
p763
S'of'
p764
tp765
F0.0014524328249818446
s(S'division'
p766
S'of'
p767
tp768
F0.0007262164124909223
s(S'[[det]]'
p769
S'state'
p770
tp771
F0.002904865649963689
s(S'born'
p772
g325
tp773
F0.006535947712418301
s(S'[[det]]'
p774
S'representing'
p775
tp776
F0.002904865649963689
s(g714
S'in'
p777
tp778
F0.002904865649963689
s(g331
S'[[con]]'
p779
tp780
F0.0014524328249818446
s(S'was'
p781
S'governor'
p782
tp783
F0.002904865649963689
s(g406
S'elected'
p784
tp785
F0.0007262164124909223
s(g577
S'to'
p786
tp787
F0.007262164124909223
s(g759
S'returned'
p788
tp789
F0.0007262164124909223
s(S'served'
p790
S'before'
p791
tp792
F0.002178649237472767
s(g788
S'to'
p793
tp794
F0.0007262164124909223
s(S'member'
p795
S'representing'
p796
tp797
F0.0014524328249818446
s(S'represented'
p798
S'for'
p799
tp800
F0.002178649237472767
s(S'stood'
p801
S'again'
p802
tp803
F0.0007262164124909223
s(S'[[det]]'
p804
g557
tp805
F0.005809731299927378
s(S'had'
p806
S'arrived'
p807
tp808
F0.002178649237472767
s(S'has'
p809
S'resided'
p810
tp811
F0.0007262164124909223
s(g734
S'of'
p812
tp813
F0.015250544662309368
s(S'served'
p814
S'where'
p815
tp816
F0.0007262164124909223
s(S'again'
p817
S'represented'
p818
tp819
F0.0007262164124909223
s(S'has'
p820
S'represented'
p821
tp822
F0.002178649237472767
s(S'to'
p823
S'[[adj]]'
p824
tp825
F0.0014524328249818446
s(S'member'
p826
g440
tp827
F0.010167029774872912
s(S'represented'
p828
S'[[con]]'
p829
tp830
F0.002178649237472767
s(S'represent'
p831
S'[[adj]]'
p832
tp833
F0.0007262164124909223
s(S'where'
p834
S'served'
p835
tp836
F0.0014524328249818446
s(S'[[num]]'
p837
g64
tp838
F0.0007262164124909223
s(S'served'
p839
S'[[con]]'
p840
tp841
F0.0036310820624546117
s(g83
g228
tp842
F0.0007262164124909223
s(S'elected'
p843
S'[[adj]]'
p844
tp845
F0.0007262164124909223
s(g560
S'for'
p846
tp847
F0.0014524328249818446
s(S'entered'
p848
S'[[det]]'
p849
tp850
F0.005809731299927378
s(S'twice'
p851
S'served'
p852
tp853
F0.0014524328249818446
s(S'also'
p854
S'defeated'
p855
tp856
F0.0007262164124909223
s(S'to'
p857
S'bar'
p858
tp859
F0.0007262164124909223
s(S'[[num]]'
p860
S'member'
p861
tp862
F0.0007262164124909223
s(S'[[det]]'
p863
S'native'
p864
tp865
F0.0014524328249818446
s(S'served'
p866
g633
tp867
F0.002904865649963689
s(S'[[num]]'
p868
S'[[det]]'
p869
tp870
F0.0036310820624546117
s(S'as'
p871
S'from'
p872
tp873
F0.0007262164124909223
s(S'candidate'
p874
S'in'
p875
tp876
F0.0007262164124909223
s(S'leader'
p877
S'to'
p878
tp879
F0.0007262164124909223
s(S'had'
p880
S'settled'
p881
tp882
F0.0007262164124909223
s(S'range'
p883
S'in'
p884
tp885
F0.0014524328249818446
s(S'was'
p886
S'member'
p887
tp888
F0.005083514887436456
s(S'[[adj]]'
p889
S'governor'
p890
tp891
F0.002178649237472767
s(S'representing'
p892
S'[[det]]'
p893
tp894
F0.005809731299927378
s(S'for'
p895
S'[[adj]]'
p896
tp897
F0.002178649237472767
s(S'[[adj]]'
p898
g710
tp899
F0.0007262164124909223
s(S'[[det]]'
p900
S'mayor'
p901
tp902
F0.0014524328249818446
s(S'served'
p903
S'now'
p904
tp905
F0.0007262164124909223
s(S'served'
p906
S'then'
p907
tp908
F0.0007262164124909223
s(g23
S'in'
p909
tp910
F0.0007262164124909223
s(S'later'
p911
S'elected'
p912
tp913
F0.0014524328249818446
s(g896
S'seat'
p914
tp915
F0.007988380537400145
s(S'[[con]]'
p916
g911
tp917
F0.0007262164124909223
s(S'bar'
p918
S'[[con]]'
p919
tp920
F0.0007262164124909223
s(S'[[det]]'
p921
S'governor'
p922
tp923
F0.002178649237472767
s(S'entered'
p924
S'for'
p925
tp926
F0.0007262164124909223
s(S'for'
p927
S'seat'
p928
tp929
F0.0007262164124909223
s(S'[[con]]'
p930
S'served'
p931
tp932
F0.005083514887436456
s(S'in'
p933
S'member'
p934
tp935
F0.0007262164124909223
s(S'located'
p936
S'[[det]]'
p937
tp938
F0.0014524328249818446
s(S'represented'
p939
S'district'
p940
tp941
F0.0014524328249818446
s(S'was'
p942
S'settled'
p943
tp944
F0.0007262164124909223
s(S'for'
p945
S'in'
p946
tp947
F0.0014524328249818446
s(S'had'
p948
S'entered'
p949
tp950
F0.0014524328249818446
s(S'have'
p951
S'represented'
p952
tp953
F0.0007262164124909223
s(S'from'
p954
S'[[det]]'
p955
tp956
F0.0007262164124909223
s(g160
S'in'
p957
tp958
F0.002178649237472767
s(S'in'
p959
S'[[det]]'
p960
tp961
F0.0014524328249818446
s(S'settled'
p962
S'in'
p963
tp964
F0.005809731299927378
s(S'also'
p965
g466
tp966
F0.010893246187363835
s(g711
S'of'
p967
tp968
F0.0014524328249818446
s(S'member'
p969
S'during'
p970
tp971
F0.0007262164124909223
s(S'of'
p972
S'served'
p973
tp974
F0.0007262164124909223
s(S'represent'
p975
S'in'
p976
tp977
F0.0007262164124909223
s(S'who'
p978
g962
tp979
F0.0007262164124909223
s(g356
S'campaign'
p980
tp981
F0.0014524328249818446
s(S'[[det]]'
p982
g766
tp983
F0.0007262164124909223
s(S'contested'
p984
S'in'
p985
tp986
F0.0007262164124909223
s(g547
g638
tp987
F0.0007262164124909223
s(S'represented'
p988
S'as'
p989
tp990
F0.0007262164124909223
s(S'leader'
p991
S'at'
p992
tp993
F0.0014524328249818446
s(g565
S'range'
p994
tp995
F0.004357298474945534
s(S'who'
p996
S'arrived'
p997
tp998
F0.0007262164124909223
s(S'first'
p999
S'served'
p1000
tp1001
F0.002178649237472767
s(S'[[con]]'
p1002
S'[[adj]]'
p1003
tp1004
F0.0007262164124909223
s(S'[[det]]'
p1005
S'bar'
p1006
tp1007
F0.004357298474945534
s(g334
g761
tp1008
F0.012345679012345678
s(g353
g663
tp1009
F0.0392156862745098
s(S'is'
p1010
S'member'
p1011
tp1012
F0.002904865649963689
s(S'[[num]]'
p1013
g676
tp1014
F0.0007262164124909223
s(g692
S'to'
p1015
tp1016
F0.0014524328249818446
s(S'[[adj]]'
p1017
g281
tp1018
F0.0007262164124909223
s(S'[[num]]'
p1019
g939
tp1020
F0.0014524328249818446
s(S'has'
p1021
S'arrived'
p1022
tp1023
F0.0007262164124909223
s(g305
S'moved'
p1024
tp1025
F0.0007262164124909223
s(S'[[det]]'
p1026
g837
tp1027
F0.0007262164124909223
s(S'represented'
p1028
S'from'
p1029
tp1030
F0.0007262164124909223
s(S'served'
p1031
g671
tp1032
F0.0036310820624546117
s(S'woman'
p1033
S'to'
p1034
tp1035
F0.0007262164124909223
s(S'defeated'
p1036
S'in'
p1037
tp1038
F0.0014524328249818446
s(S'settling'
p1039
S'in'
p1040
tp1041
F0.0014524328249818446
s(S'served'
p1042
g648
tp1043
F0.00944081336238199
s(S'[[det]]'
p1044
g991
tp1045
F0.005083514887436456
s(S'[[con]]'
p1046
S'again'
p1047
tp1048
F0.0007262164124909223
s(g890
S'of'
p1049
tp1050
F0.007988380537400145
s(S'represent'
p1051
S'[[num]]'
p1052
tp1053
F0.0007262164124909223
s(g743
S'at'
p1054
tp1055
F0.0014524328249818446
s(S'then'
p1056
S'entered'
p1057
tp1058
F0.0014524328249818446
s(S'[[prp]]'
p1059
g358
tp1060
F0.0014524328249818446
s(g356
S'seat'
p1061
tp1062
F0.002178649237472767
s(S'was'
p1063
S'represented'
p1064
tp1065
F0.0007262164124909223
s(S'arrived'
p1066
S'to'
p1067
tp1068
F0.0014524328249818446
s(S'served'
p1069
S'becoming'
p1070
tp1071
F0.0007262164124909223
s(S'member'
p1072
S'in'
p1073
tp1074
F0.004357298474945534
s(S'are'
p1075
g382
tp1076
F0.0014524328249818446
s(S'been'
p1077
S'elected'
p1078
tp1079
F0.0014524328249818446
s(S'is'
p1080
S'located'
p1081
tp1082
F0.0007262164124909223
s(S'represented'
p1083
S'where'
p1084
tp1085
F0.0007262164124909223
s(S'representing'
p1086
S'[[con]]'
p1087
tp1088
F0.0007262164124909223
s(g1034
S'be'
p1089
tp1090
F0.0007262164124909223
s(g148
S'[[adj]]'
p1091
tp1092
F0.0014524328249818446
s(S'[[det]]'
p1093
g367
tp1094
F0.0007262164124909223
s(S'member'
p1095
S'for'
p1096
tp1097
F0.007988380537400145
s(S'leader'
p1098
S'[[det]]'
p1099
tp1100
F0.0014524328249818446
s(S'won'
p1101
S'[[det]]'
p1102
tp1103
F0.006535947712418301
s(g430
S'in'
p1104
tp1105
F0.002178649237472767
s(g356
S'birthplace'
p1106
tp1107
F0.0014524328249818446
s(S'[[adj]]'
p1108
S'served'
p1109
tp1110
F0.004357298474945534
s(S'then'
p1111
S'elected'
p1112
tp1113
F0.0007262164124909223
s(g615
S'in'
p1114
tp1115
F0.002904865649963689
s(g946
S'district'
p1116
tp1117
F0.002904865649963689
s(S'began'
p1118
S'[[det]]'
p1119
tp1120
F0.0014524328249818446
s(S'made'
p1121
S'governor'
p1122
tp1123
F0.0007262164124909223
s(g202
S'race'
p1124
tp1125
F0.0014524328249818446
s(S'delegate'
p1126
S'[[con]]'
p1127
tp1128
F0.0007262164124909223
s(S'to'
p1129
S'represent'
p1130
tp1131
F0.005809731299927378
s(S'of'
p1132
g22
tp1133
F0.0007262164124909223
s(S'leader'
p1134
S'[[con]]'
p1135
tp1136
F0.002178649237472767
s(S'entered'
p1137
S'to'
p1138
tp1139
F0.0007262164124909223
s(S'elected'
p1140
g295
tp1141
F0.002904865649963689
s.