(dp0
(S'has'
p1
S'operations'
p2
tp3
F0.0049504950495049506
s(S'[[num]]'
p4
S'countries'
p5
tp6
F0.0049504950495049506
s(S'expanded'
p7
S'into'
p8
tp9
F0.009900990099009901
s(S'primarily'
p10
S'in'
p11
tp12
F0.0049504950495049506
s(S'[[adj]]'
p13
S'services'
p14
tp15
F0.009900990099009901
s(S'agency'
p16
S'[[det]]'
p17
tp18
F0.009900990099009901
s(S'for'
p19
S'[[adj]]'
p20
tp21
F0.0049504950495049506
s(S'body'
p22
S'for'
p23
tp24
F0.0049504950495049506
s(S'branches'
p25
S'in'
p26
tp27
F0.024752475247524754
s(S'centers'
p28
S'in'
p29
tp30
F0.0049504950495049506
s(S'banks'
p31
S'in'
p32
tp33
F0.0049504950495049506
s(S'[[adj]]'
p34
S'body'
p35
tp36
F0.01485148514851485
s(S'[[det]]'
p37
S'agency'
p38
tp39
F0.0049504950495049506
s(S'founded'
p40
S'from'
p41
tp42
F0.0049504950495049506
s(S'also'
p43
S'expanded'
p44
tp45
F0.009900990099009901
s(S'services'
p46
S'from'
p47
tp48
F0.0049504950495049506
s(S'[[adj]]'
p49
S'expanded'
p50
tp51
F0.0049504950495049506
s(S'was'
p52
S'operating'
p53
tp54
F0.0049504950495049506
s(S'presence'
p55
S'in'
p56
tp57
F0.0049504950495049506
s(S'also'
p58
S'operates'
p59
tp60
F0.024752475247524754
s(S'[[adj]]'
p61
S'subsidiaries'
p62
tp63
F0.0049504950495049506
s(S'outlets'
p64
S'in'
p65
tp66
F0.0049504950495049506
s(S'[[adj]]'
p67
S'organization'
p68
tp69
F0.0049504950495049506
s(S'founded'
p70
S'in'
p71
tp72
F0.019801980198019802
s(S'[[adj]]'
p73
S'operations'
p74
tp75
F0.009900990099009901
s(S'[[adj]]'
p76
S'operating'
p77
tp78
F0.0049504950495049506
s(S'[[det]]'
p79
S'largest'
p80
tp81
F0.034653465346534656
s(S'is'
p82
S'headquartered'
p83
tp84
F0.01485148514851485
s(S'had'
p85
S'offices'
p86
tp87
F0.009900990099009901
s(S'expanded'
p88
S'in'
p89
tp90
F0.009900990099009901
s(S'[[adj]]'
p91
g16
tp92
F0.009900990099009901
s(S'[[num]]'
p93
S'operating'
p94
tp95
F0.009900990099009901
s(g5
S'including'
p96
tp97
F0.009900990099009901
s(S'founded'
p98
S'[[num]]'
p99
tp100
F0.0049504950495049506
s(S'operates'
p101
S'under'
p102
tp103
F0.0049504950495049506
s(S'[[adj]]'
p104
S'offices'
p105
tp106
F0.009900990099009901
s(S'agency'
p107
S'of'
p108
tp109
F0.0049504950495049506
s(S'operates'
p110
S'out'
p111
tp112
F0.0049504950495049506
s(S'operations'
p113
S'to'
p114
tp115
F0.0049504950495049506
s(S'company'
p116
S'in'
p117
tp118
F0.009900990099009901
s(S'expanded'
p119
S'to'
p120
tp121
F0.019801980198019802
s(S'operates'
p122
S'in'
p123
tp124
F0.0297029702970297
s(S'[[adj]]'
p125
S'presence'
p126
tp127
F0.0049504950495049506
s(S'operates'
p128
S'with'
p129
tp130
F0.009900990099009901
s(S'[[prp]]'
p131
S'offices'
p132
tp133
F0.0049504950495049506
s(S'offices'
p134
S'[[det]]'
p135
tp136
F0.0049504950495049506
s(S'been'
p137
S'operating'
p138
tp139
F0.0049504950495049506
s(S'offices'
p140
S'in'
p141
tp142
F0.039603960396039604
s(S'[[prp]]'
p143
g55
tp144
F0.0049504950495049506
s(S'operates'
p145
S'[[det]]'
p146
tp147
F0.0049504950495049506
s(S'largest'
p148
S'company'
p149
tp150
F0.0049504950495049506
s(g62
S'in'
p151
tp152
F0.009900990099009901
s(S'[[num]]'
p153
S'branches'
p154
tp155
F0.009900990099009901
s(S'operates'
p156
S'[[con]]'
p157
tp158
F0.0049504950495049506
s(S'[[det]]'
p159
S'founded'
p160
tp161
F0.0049504950495049506
s(g68
g19
tp162
F0.0049504950495049506
s(S'for'
p163
S'operations'
p164
tp165
F0.0049504950495049506
s(S'primarily'
p166
S'from'
p167
tp168
F0.0049504950495049506
s(S'stores'
p169
S'[[con]]'
p170
tp171
F0.0049504950495049506
s(S'offices'
p172
S'[[con]]'
p173
tp174
F0.0049504950495049506
s(S'[[num]]'
p175
S'stores'
p176
tp177
F0.01485148514851485
s(S'operates'
p178
S'[[adj]]'
p179
tp180
F0.0049504950495049506
s(S'largest'
p181
S'in'
p182
tp183
F0.009900990099009901
s(S'founded'
p184
S'on'
p185
tp186
F0.0049504950495049506
s(S'operates'
p187
S'from'
p188
tp189
F0.0049504950495049506
s(S'largest'
p190
S'of'
p191
tp192
F0.0049504950495049506
s(S'body'
p193
S'in'
p194
tp195
F0.0049504950495049506
s(S'subsidiaries'
p196
S'[[con]]'
p197
tp198
F0.0049504950495049506
s(g77
S'in'
p199
tp200
F0.019801980198019802
s(S'has'
p201
S'offices'
p202
tp203
F0.024752475247524754
s(g44
S'[[prp]]'
p204
tp205
F0.009900990099009901
s(g14
S'to'
p206
tp207
F0.0049504950495049506
s(g176
S'in'
p208
tp209
F0.009900990099009901
s(S'[[adj]]'
p210
S'founded'
p211
tp212
F0.0049504950495049506
s(S'[[adj]]'
p213
S'branches'
p214
tp215
F0.0049504950495049506
s(S'headquartered'
p216
S'in'
p217
tp218
F0.01485148514851485
s(g83
S'with'
p219
tp220
F0.0049504950495049506
s(S'currently'
p221
S'headquartered'
p222
tp223
F0.0049504950495049506
s(g35
S'[[det]]'
p224
tp225
F0.0049504950495049506
s(S'member'
p226
S'society'
p227
tp228
F0.0049504950495049506
s(S'largest'
p229
S'[[con]]'
p230
tp231
F0.0049504950495049506
s(S'[[adj]]'
p232
g226
tp233
F0.0049504950495049506
s(S'operations'
p234
S'in'
p235
tp236
F0.024752475247524754
s(S's'
p237
S'operations'
p238
tp239
F0.0049504950495049506
s(S'with'
p240
S'branches'
p241
tp242
F0.0049504950495049506
s(S'in'
p243
g4
tp244
F0.0049504950495049506
s(S'[[con]]'
p245
S'offices'
p246
tp247
F0.0049504950495049506
s(S'largest'
p248
S'[[adj]]'
p249
tp250
F0.01485148514851485
s(S'headquartered'
p251
S'[[con]]'
p252
tp253
F0.0049504950495049506
s(S'in'
p254
S'countries'
p255
tp256
F0.0049504950495049506
s(S'[[num]]'
p257
S'offices'
p258
tp259
F0.009900990099009901
s(S'has'
p260
g7
tp261
F0.019801980198019802
s(S'had'
p262
S'expanded'
p263
tp264
F0.009900990099009901
s(S'offers'
p265
g13
tp266
F0.009900990099009901
s(S'currently'
p267
g122
tp268
F0.019801980198019802
s(S'[[adj]]'
p269
S'largest'
p270
tp271
F0.009900990099009901
s(S'operates'
p272
S'[[num]]'
p273
tp274
F0.009900990099009901
s(S'with'
p275
S'offices'
p276
tp277
F0.0049504950495049506
s(S'offices'
p278
S'throughout'
p279
tp280
F0.0049504950495049506
s(S'operates'
p281
S'as'
p282
tp283
F0.01485148514851485
s(S'operates'
p284
S'to'
p285
tp286
F0.0049504950495049506
s(S'primarily'
p287
S'[[con]]'
p288
tp289
F0.0049504950495049506
s(S'now'
p290
S'operates'
p291
tp292
F0.01485148514851485
s(S'branches'
p293
S'[[con]]'
p294
tp295
F0.0049504950495049506
s(S'centers'
p296
S'[[con]]'
p297
tp298
F0.0049504950495049506
s(S'has'
p299
S'branches'
p300
tp301
F0.01485148514851485
s(S'[[adj]]'
p302
g10
tp303
F0.0049504950495049506
s(S'was'
p304
g98
tp305
F0.019801980198019802
s(S'is'
p306
S'founded'
p307
tp308
F0.0049504950495049506
s(g20
S'radio'
p309
tp310
F0.0049504950495049506
s(S'[[adj]]'
p311
g116
tp312
F0.0049504950495049506
s.