(dp0
(S'oldest'
p1
S'[[con]]'
p2
tp3
F0.0010416666666666667
s(S'nephew'
p4
S'who'
p5
tp6
F0.0010416666666666667
s(S'cousin'
p7
S'to'
p8
tp9
F0.004166666666666667
s(S'seen'
p10
S'by'
p11
tp12
F0.004166666666666667
s(S'as'
p13
S'son'
p14
tp15
F0.0010416666666666667
s(S'[[con]]'
p16
S'tells'
p17
tp18
F0.005208333333333333
s(S'sister'
p19
S'[[num]]'
p20
tp21
F0.0010416666666666667
s(S'[[prp]]'
p22
S'daughter'
p23
tp24
F0.00625
s(S'of'
p25
S'[[con]]'
p26
tp27
F0.0010416666666666667
s(S'with'
p28
S'sister'
p29
tp30
F0.0010416666666666667
s(S'brother'
p31
S'was'
p32
tp33
F0.0020833333333333333
s(S'tells'
p34
S'that'
p35
tp36
F0.003125
s(S'of'
p37
S'daughter'
p38
tp39
F0.0010416666666666667
s(S'son'
p40
S'of'
p41
tp42
F0.019791666666666666
s(S'of'
p43
S'brothers'
p44
tp45
F0.0010416666666666667
s(S'[[con]]'
p46
S'brother'
p47
tp48
F0.010416666666666666
s(S'was'
p49
S'seen'
p50
tp51
F0.00625
s(S'[[det]]'
p52
S'older'
p53
tp54
F0.0020833333333333333
s(g50
S'with'
p55
tp56
F0.00625
s(S'seen'
p57
S'in'
p58
tp59
F0.003125
s(S'not'
p60
S'seen'
p61
tp62
F0.0010416666666666667
s(S'[[adj]]'
p63
S'oldest'
p64
tp65
F0.0020833333333333333
s(S'seen'
p66
S'since'
p67
tp68
F0.0020833333333333333
s(S'brother'
p69
S'[[pro]]'
p70
tp71
F0.0020833333333333333
s(S'is'
p72
S'daughter'
p73
tp74
F0.0020833333333333333
s(S'later'
p75
S'seen'
p76
tp77
F0.0010416666666666667
s(S'[[con]]'
p78
S'[[num]]'
p79
tp80
F0.0010416666666666667
s(S'[[prp]]'
p81
S'father'
p82
tp83
F0.00625
s(S'son'
p84
S'with'
p85
tp86
F0.005208333333333333
s(S'[[det]]'
p87
S'sister'
p88
tp89
F0.008333333333333333
s(S'as'
p90
S'father'
p91
tp92
F0.0010416666666666667
s(S'[[adj]]'
p93
S'brothers'
p94
tp95
F0.004166666666666667
s(S'also'
p96
S'seen'
p97
tp98
F0.004166666666666667
s(S'son'
p99
S'as'
p100
tp101
F0.0020833333333333333
s(S'[[adj]]'
p102
S'daughter'
p103
tp104
F0.00625
s(S'son'
p105
S'became'
p106
tp107
F0.0020833333333333333
s(S'is'
p108
S'sister'
p109
tp110
F0.0010416666666666667
s(S'[[prp]]'
p111
S'sister'
p112
tp113
F0.0020833333333333333
s(S'nephew'
p114
S'[[det]]'
p115
tp116
F0.003125
s(S'[[con]]'
p117
S'cousin'
p118
tp119
F0.0010416666666666667
s(S'father'
p120
S'when'
p121
tp122
F0.0010416666666666667
s(S'cousin'
p123
S'who'
p124
tp125
F0.0010416666666666667
s(S'son'
p126
S'[[mod]]'
p127
tp128
F0.0010416666666666667
s(S'to'
p129
S'father'
p130
tp131
F0.0010416666666666667
s(S'seen'
p132
S'as'
p133
tp134
F0.005208333333333333
s(S's'
p135
S'brothers'
p136
tp137
F0.0020833333333333333
s(S'older'
p138
S'sisters'
p139
tp140
F0.0020833333333333333
s(g135
S'daughter'
p141
tp142
F0.008333333333333333
s(S'only'
p143
S'daughter'
p144
tp145
F0.0010416666666666667
s(S'son'
p146
S'[[det]]'
p147
tp148
F0.008333333333333333
s(S'son'
p149
S'later'
p150
tp151
F0.0020833333333333333
s(S'after'
p152
S'tells'
p153
tp154
F0.0010416666666666667
s(S'to'
p155
S'brother'
p156
tp157
F0.0010416666666666667
s(S'father'
p158
S'[[con]]'
p159
tp160
F0.00625
s(S'that'
p161
S'tells'
p162
tp163
F0.0010416666666666667
s(g53
S'[[con]]'
p164
tp165
F0.0010416666666666667
s(S'to'
p166
S'daughter'
p167
tp168
F0.0020833333333333333
s(S'nephew'
p169
S'[[con]]'
p170
tp171
F0.004166666666666667
s(S'tells'
p172
S'[[det]]'
p173
tp174
F0.0020833333333333333
s(S'with'
p175
S'daughter'
p176
tp177
F0.0010416666666666667
s(g73
S'of'
p178
tp179
F0.009375
s(S'be'
p180
S'seen'
p181
tp182
F0.008333333333333333
s(S'son'
p183
S'[[pro]]'
p184
tp185
F0.003125
s(g135
S'son'
p186
tp187
F0.016666666666666666
s(S'[[det]]'
p188
S'mother'
p189
tp190
F0.005208333333333333
s(S'mother'
p191
S'to'
p192
tp193
F0.003125
s(S'[[adj]]'
p194
S'brother'
p195
tp196
F0.00625
s(S'daughter'
p197
S'in'
p198
tp199
F0.0010416666666666667
s(S'tells'
p200
S'[[adj]]'
p201
tp202
F0.0010416666666666667
s(S'missing'
p203
g78
tp204
F0.0010416666666666667
s(S'father'
p205
S'as'
p206
tp207
F0.0010416666666666667
s(S'son'
p208
S'de'
p209
tp210
F0.003125
s(g135
S'grandson'
p211
tp212
F0.003125
s(S'of'
p213
S'father'
p214
tp215
F0.0010416666666666667
s(S'which'
p216
S'agrees'
p217
tp218
F0.0010416666666666667
s(S'daughter'
p219
S'[[num]]'
p220
tp221
F0.0020833333333333333
s(S'[[con]]'
p222
S'seen'
p223
tp224
F0.0010416666666666667
s(S'[[det]]'
p225
S'brothers'
p226
tp227
F0.0020833333333333333
s(S'as'
p228
S'seen'
p229
tp230
F0.0020833333333333333
s(S'[[det]]'
p231
g219
tp232
F0.011458333333333333
s(S'of'
p233
S'actors'
p234
tp235
F0.0020833333333333333
s(g135
S'younger'
p236
tp237
F0.005208333333333333
s(S'is'
p238
S'older'
p239
tp240
F0.0010416666666666667
s(S'first'
p241
S'seen'
p242
tp243
F0.0020833333333333333
s(S'actors'
p244
S'[[con]]'
p245
tp246
F0.0010416666666666667
s(S'[[adj]]'
p247
S'father'
p248
tp249
F0.004166666666666667
s(S'is'
p250
S'son'
p251
tp252
F0.004166666666666667
s(S'[[prp]]'
p253
g169
tp254
F0.0020833333333333333
s(S'[[det]]'
p255
g149
tp256
F0.030208333333333334
s(S'grandson'
p257
S'to'
p258
tp259
F0.0010416666666666667
s(S'[[det]]'
p260
S'nephew'
p261
tp262
F0.005208333333333333
s(S'nephew'
p263
S'of'
p264
tp265
F0.005208333333333333
s(S'cousin'
p266
S'[[con]]'
p267
tp268
F0.005208333333333333
s(S'agrees'
p269
S'to'
p270
tp271
F0.0010416666666666667
s(S'son'
p272
S'[[num]]'
p273
tp274
F0.005208333333333333
s(S'only'
p275
S'son'
p276
tp277
F0.0010416666666666667
s(S'also'
p278
S'tells'
p279
tp280
F0.003125
s(S'[[num]]'
p281
S'sister'
p282
tp283
F0.0010416666666666667
s(S'[[con]]'
p284
S'father'
p285
tp286
F0.0020833333333333333
s(S'as'
p287
S'daughter'
p288
tp289
F0.0010416666666666667
s(S'is'
p290
S'cousin'
p291
tp292
F0.003125
s(S'whose'
p293
S'son'
p294
tp295
F0.0010416666666666667
s(S'to'
p296
S'sister'
p297
tp298
F0.0010416666666666667
s(S'often'
p299
g132
tp300
F0.0020833333333333333
s(S'with'
p301
S'son'
p302
tp303
F0.0020833333333333333
s(g139
S'[[con]]'
p304
tp305
F0.0010416666666666667
s(S'mother'
p306
S'who'
p307
tp308
F0.0010416666666666667
s(S'[[det]]'
p309
S'brother'
p310
tp311
F0.016666666666666666
s(S'daughter'
p312
S'[[pro]]'
p313
tp314
F0.0010416666666666667
s(S'father'
p315
S'was'
p316
tp317
F0.005208333333333333
s(S'[[det]]'
p318
S'grandson'
p319
tp320
F0.004166666666666667
s(S'seen'
p321
S'[[det]]'
p322
tp323
F0.0020833333333333333
s(S'mother'
p324
S'from'
p325
tp326
F0.0010416666666666667
s(S'was'
p327
S'father'
p328
tp329
F0.003125
s(S'grandson'
p330
S'of'
p331
tp332
F0.005208333333333333
s(S'cousin'
p333
S'[[num]]'
p334
tp335
F0.0020833333333333333
s(S'mother'
p336
S'[[adj]]'
p337
tp338
F0.0010416666666666667
s(S'seen'
p339
S'to'
p340
tp341
F0.004166666666666667
s(g135
S'seen'
p342
tp343
F0.0010416666666666667
s(S'[[adj]]'
p344
S'grandson'
p345
tp346
F0.0020833333333333333
s(S'[[prp]]'
p347
S'grandson'
p348
tp349
F0.0010416666666666667
s(S'[[prp]]'
p350
g31
tp351
F0.008333333333333333
s(S'[[con]]'
p352
S'sister'
p353
tp354
F0.0020833333333333333
s(S'later'
p355
S'tells'
p356
tp357
F0.0020833333333333333
s(g112
S'[[con]]'
p358
tp359
F0.004166666666666667
s(S'[[pro]]'
p360
S'brother'
p361
tp362
F0.0020833333333333333
s(S'son'
p363
S'brother'
p364
tp365
F0.003125
s(S'tells'
p366
S'[[pro]]'
p367
tp368
F0.004166666666666667
s(S'[[pro]]'
p369
S'sister'
p370
tp371
F0.0010416666666666667
s(S'that'
p372
S'father'
p373
tp374
F0.0010416666666666667
s(g239
S'than'
p375
tp376
F0.0020833333333333333
s(S'that'
p377
S'seen'
p378
tp379
F0.0010416666666666667
s(S'[[det]]'
p380
S'cousin'
p381
tp382
F0.00625
s(g291
S'of'
p383
tp384
F0.004166666666666667
s(S'sister'
p385
S'to'
p386
tp387
F0.004166666666666667
s(g135
S'mother'
p388
tp389
F0.00625
s(S'of'
p390
S'brother'
p391
tp392
F0.0020833333333333333
s(S'brother'
p393
S'had'
p394
tp395
F0.0010416666666666667
s(S'that'
p396
S'son'
p397
tp398
F0.0010416666666666667
s(g181
S'[[con]]'
p399
tp400
F0.0020833333333333333
s(S'seen'
p401
S'[[prp]]'
p402
tp403
F0.0010416666666666667
s(S'[[adj]]'
p404
S'nephew'
p405
tp406
F0.0020833333333333333
s(S'father'
p407
S'to'
p408
tp409
F0.004166666666666667
s(S'had'
p410
g339
tp411
F0.007291666666666667
s(g141
S'[[con]]'
p412
tp413
F0.00625
s(S'is'
p414
S'seen'
p415
tp416
F0.00625
s(g23
S'was'
p417
tp418
F0.0010416666666666667
s(S'tells'
p419
S'about'
p420
tp421
F0.0010416666666666667
s(S'mother'
p422
g135
tp423
F0.0010416666666666667
s(S'which'
p424
S'tells'
p425
tp426
F0.0010416666666666667
s(S'mother'
p427
S'was'
p428
tp429
F0.0020833333333333333
s(g94
S'[[det]]'
p430
tp431
F0.0020833333333333333
s(S'[[adj]]'
p432
S'sister'
p433
tp434
F0.005208333333333333
s(S'daughter'
p435
S'who'
p436
tp437
F0.0020833333333333333
s(S'tells'
p438
S'has'
p439
tp440
F0.0010416666666666667
s(S'daughter'
p441
S'by'
p442
tp443
F0.003125
s(S'[[pro]]'
p444
S'tells'
p445
tp446
F0.0010416666666666667
s(S'brother'
p447
S'[[con]]'
p448
tp449
F0.014583333333333334
s(S'was'
p450
S'mother'
p451
tp452
F0.003125
s(g135
S'cousin'
p453
tp454
F0.004166666666666667
s(S'siblings'
p455
S'[[con]]'
p456
tp457
F0.0020833333333333333
s(S'with'
p458
S'mother'
p459
tp460
F0.0010416666666666667
s(S'mother'
p461
S'[[con]]'
p462
tp463
F0.005208333333333333
s(S'is'
p464
S'mother'
p465
tp466
F0.0020833333333333333
s(S'father'
p467
S'who'
p468
tp469
F0.0020833333333333333
s(S'with'
p470
S'younger'
p471
tp472
F0.0010416666666666667
s(S'brother'
p473
S'[[det]]'
p474
tp475
F0.00625
s(S'son'
p476
S'by'
p477
tp478
F0.00625
s(S'never'
p479
S'seen'
p480
tp481
F0.0010416666666666667
s(S'brothers'
p482
S'[[con]]'
p483
tp484
F0.00625
s(S'[[det]]'
p485
S'seen'
p486
tp487
F0.0010416666666666667
s(g17
S'[[prp]]'
p488
tp489
F0.0020833333333333333
s(S'daughter'
p490
S'[[adj]]'
p491
tp492
F0.004166666666666667
s(S'[[con]]'
p493
S'daughter'
p494
tp495
F0.0020833333333333333
s(S'tells'
p496
S'to'
p497
tp498
F0.0010416666666666667
s(g79
S'elder'
p499
tp500
F0.0010416666666666667
s(S'son'
p501
S'in'
p502
tp503
F0.0020833333333333333
s(S'whose'
p504
S'father'
p505
tp506
F0.0020833333333333333
s(S'was'
p507
g385
tp508
F0.003125
s(g135
S'father'
p509
tp510
F0.009375
s(S'is'
p511
S'brother'
p512
tp513
F0.003125
s(g135
S'sister'
p514
tp515
F0.005208333333333333
s(S'[[det]]'
p516
S'younger'
p517
tp518
F0.007291666666666667
s(S'tells'
p519
S'[[mod]]'
p520
tp521
F0.0010416666666666667
s(S'agrees'
p522
S'that'
p523
tp524
F0.0010416666666666667
s(S'[[adj]]'
p525
g191
tp526
F0.004166666666666667
s(S'brother'
p527
S'[[num]]'
p528
tp529
F0.0020833333333333333
s(S'[[prp]]'
p530
S'younger'
p531
tp532
F0.0020833333333333333
s(S'been'
p533
S'seen'
p534
tp535
F0.0020833333333333333
s(S'son'
p536
S'to'
p537
tp538
F0.00625
s(S'agrees'
p539
S'with'
p540
tp541
F0.0010416666666666667
s(S'brother'
p542
S'in'
p543
tp544
F0.0020833333333333333
s(S'father'
p545
S'[[num]]'
p546
tp547
F0.003125
s(g135
g114
tp548
F0.003125
s(g433
S'who'
p549
tp550
F0.003125
s(S'then'
p551
S'seen'
p552
tp553
F0.0010416666666666667
s(S'of'
p554
S'[[adj]]'
p555
tp556
F0.0010416666666666667
s(S'son'
p557
S'is'
p558
tp559
F0.0010416666666666667
s(S'[[con]]'
p560
S'mother'
p561
tp562
F0.0020833333333333333
s(S'son'
p563
S'was'
p564
tp565
F0.004166666666666667
s(S'tells'
p566
S'[[con]]'
p567
tp568
F0.0020833333333333333
s(g103
S'[[det]]'
p569
tp570
F0.004166666666666667
s(S'seen'
p571
S'at'
p572
tp573
F0.0010416666666666667
s(S'[[con]]'
p574
S'grandson'
p575
tp576
F0.0010416666666666667
s(S'[[det]]'
p577
g545
tp578
F0.009375
s(S'[[prp]]'
p579
S'mother'
p580
tp581
F0.003125
s(S'brother'
p582
S'who'
p583
tp584
F0.004166666666666667
s(g135
S'older'
p585
tp586
F0.0010416666666666667
s(g415
S'[[adj]]'
p587
tp588
F0.004166666666666667
s(S'daughter'
p589
S'with'
p590
tp591
F0.0020833333333333333
s(g251
S'[[con]]'
p592
tp593
F0.01875
s(S'sister'
p594
S'of'
p595
tp596
F0.007291666666666667
s(g82
g135
tp597
F0.0010416666666666667
s(S'[[adj]]'
p598
S'seen'
p599
tp600
F0.005208333333333333
s(g388
S'[[det]]'
p601
tp602
F0.003125
s(S'daughter'
p603
S'to'
p604
tp605
F0.004166666666666667
s(g229
S'when'
p606
tp607
F0.0020833333333333333
s(S'of'
p608
S'mother'
p609
tp610
F0.0010416666666666667
s(g531
S'brother'
p611
tp612
F0.020833333333333332
s(g211
S'[[con]]'
p613
tp614
F0.0020833333333333333
s(S'[[pro]]'
p615
S'father'
p616
tp617
F0.0010416666666666667
s(S'then'
p618
g34
tp619
F0.003125
s(S'[[pro]]'
p620
g40
tp621
F0.003125
s(S'of'
p622
S'[[prp]]'
p623
tp624
F0.0010416666666666667
s(S'son'
p625
S'whom'
p626
tp627
F0.0020833333333333333
s(S'younger'
p628
S'siblings'
p629
tp630
F0.004166666666666667
s(S'[[num]]'
p631
g138
tp632
F0.003125
s(g135
g542
tp633
F0.009375
s(S'was'
p634
S'daughter'
p635
tp636
F0.0020833333333333333
s(S'of'
p637
S'son'
p638
tp639
F0.0020833333333333333
s(S'grandson'
p640
S'[[det]]'
p641
tp642
F0.003125
s(S'from'
p643
S'son'
p644
tp645
F0.0010416666666666667
s(S'[[con]]'
p646
S'agrees'
p647
tp648
F0.0010416666666666667
s(g186
S'[[adj]]'
p649
tp650
F0.004166666666666667
s(S'was'
p651
S'son'
p652
tp653
F0.00625
s(S'sister'
p654
S'[[det]]'
p655
tp656
F0.0010416666666666667
s(S'with'
p657
S'brother'
p658
tp659
F0.0010416666666666667
s(S'was'
p660
g263
tp661
F0.0020833333333333333
s(S'[[pro]]'
p662
S'daughter'
p663
tp664
F0.0010416666666666667
s(S'with'
p665
S'father'
p666
tp667
F0.0010416666666666667
s(S'tells'
p668
S'how'
p669
tp670
F0.0010416666666666667
s(S'have'
p671
S'seen'
p672
tp673
F0.0010416666666666667
s(S'sister'
p674
S'[[adj]]'
p675
tp676
F0.0020833333333333333
s(S'[[adj]]'
p677
S'cousin'
p678
tp679
F0.00625
s(S'ever'
p680
S'seen'
p681
tp682
F0.0010416666666666667
s(S'[[num]]'
p683
S'younger'
p684
tp685
F0.003125
s(S'whose'
p686
g427
tp687
F0.0010416666666666667
s(S'father'
p688
S'is'
p689
tp690
F0.0010416666666666667
s(S'that'
p691
S'mother'
p692
tp693
F0.0010416666666666667
s(S'to'
p694
S'son'
p695
tp696
F0.0010416666666666667
s(S'[[prp]]'
p697
g476
tp698
F0.010416666666666666
s(S'by'
p699
S'sister'
p700
tp701
F0.0010416666666666667
s(g248
S'in'
p702
tp703
F0.0020833333333333333
s(S'to'
p704
S'mother'
p705
tp706
F0.0010416666666666667
s(S'was'
p707
S'brother'
p708
tp709
F0.004166666666666667
s(S'[[num]]'
p710
S'son'
p711
tp712
F0.00625
s(S'father'
p713
S'[[det]]'
p714
tp715
F0.004166666666666667
s(S'was'
p716
S'grandson'
p717
tp718
F0.003125
s(S'brother'
p719
S'[[adj]]'
p720
tp721
F0.0020833333333333333
s(S'oldest'
p722
S'[[adj]]'
p723
tp724
F0.0010416666666666667
s(S'[[prp]]'
p725
S'brothers'
p726
tp727
F0.003125
s(S'[[adj]]'
p728
S'son'
p729
tp730
F0.020833333333333332
s(S'brothers'
p731
S'[[num]]'
p732
tp733
F0.0020833333333333333
s(S'[[con]]'
p734
S'[[det]]'
p735
tp736
F0.003125
s(S'[[con]]'
p737
S'brothers'
p738
tp739
F0.0010416666666666667
s(S'that'
p740
S'brother'
p741
tp742
F0.0010416666666666667
s(S'mother'
p743
S'that'
p744
tp745
F0.0010416666666666667
s(S'is'
p746
S'father'
p747
tp748
F0.003125
s(S'[[con]]'
p749
S'younger'
p750
tp751
F0.0010416666666666667
s(S'[[pro]]'
p752
S'mother'
p753
tp754
F0.0010416666666666667
s(S'brother'
p755
S'to'
p756
tp757
F0.0125
s(S'agrees'
p758
S'[[con]]'
p759
tp760
F0.0010416666666666667
s(S'[[con]]'
p761
S'[[adj]]'
p762
tp763
F0.0010416666666666667
s(S'[[det]]'
p764
g1
tp765
F0.003125
s(S'[[pro]]'
p766
S'younger'
p767
tp768
F0.0010416666666666667
s(g285
S'of'
p769
tp770
F0.00625
s(S'[[adj]]'
p771
S'tells'
p772
tp773
F0.0010416666666666667
s(S'[[num]]'
p774
S'brother'
p775
tp776
F0.0020833333333333333
s(S'as'
p777
S'brother'
p778
tp779
F0.0010416666666666667
s(S'brothers'
p780
S'were'
p781
tp782
F0.0010416666666666667
s(S'[[num]]'
p783
S'daughter'
p784
tp785
F0.003125
s(S'sister'
p786
S'was'
p787
tp788
F0.0010416666666666667
s(S'[[prp]]'
p789
g266
tp790
F0.0020833333333333333
s(S'is'
p791
g203
tp792
F0.0010416666666666667
s(S'[[num]]'
p793
S'brothers'
p794
tp795
F0.004166666666666667
s(S'tells'
p796
S'is'
p797
tp798
F0.0010416666666666667
s(g561
S'of'
p799
tp800
F0.007291666666666667
s(g711
S'who'
p801
tp802
F0.00625
s(S'[[con]]'
p803
S'son'
p804
tp805
F0.005208333333333333
s(g279
S'of'
p806
tp807
F0.0020833333333333333
s(S'when'
p808
S'tells'
p809
tp810
F0.0010416666666666667
s(S'brother'
p811
S'of'
p812
tp813
F0.019791666666666666
s(S'oldest'
p814
S'of'
p815
tp816
F0.0010416666666666667
s(S'[[adj]]'
p817
S'younger'
p818
tp819
F0.0010416666666666667
s(S'cousin'
p820
S'[[det]]'
p821
tp822
F0.003125
s(S'[[con]]'
p823
S'nephew'
p824
tp825
F0.0010416666666666667
s.