(dp0
(S'school'
p1
S'that'
p2
tp3
F0.0009285051067780873
s(S'serves'
p4
S'[[num]]'
p5
tp6
F0.0009285051067780873
s(S'born'
p7
S'was'
p8
tp9
F0.0009285051067780873
s(S'appointed'
p10
S'first'
p11
tp12
F0.0009285051067780873
s(S'when'
p13
S'served'
p14
tp15
F0.0009285051067780873
s(S'joined'
p16
S'was'
p17
tp18
F0.0009285051067780873
s(S'priest'
p19
S'[[con]]'
p20
tp21
F0.0009285051067780873
s(S'who'
p22
S'served'
p23
tp24
F0.003714020427112349
s(S'involved'
p25
S'for'
p26
tp27
F0.002785515320334262
s(S'named'
p28
S'on'
p29
tp30
F0.0009285051067780873
s(S'been'
p31
S'called'
p32
tp33
F0.0018570102135561746
s(S'later'
p34
S'joined'
p35
tp36
F0.003714020427112349
s(S'again'
p37
S'named'
p38
tp39
F0.004642525533890436
s(S'served'
p40
S'first'
p41
tp42
F0.0009285051067780873
s(S'was'
p43
S'leader'
p44
tp45
F0.002785515320334262
s(S'called'
p46
S'into'
p47
tp48
F0.0009285051067780873
s(S'school'
p49
S'[[con]]'
p50
tp51
F0.0018570102135561746
s(S'leading'
p52
S'member'
p53
tp54
F0.002785515320334262
s(S'appointed'
p55
S'in'
p56
tp57
F0.002785515320334262
s(S'be'
p58
S'named'
p59
tp60
F0.0018570102135561746
s(S'joined'
p61
S'when'
p62
tp63
F0.0009285051067780873
s(S'became'
p64
S'involved'
p65
tp66
F0.005571030640668524
s(S'joined'
p67
S'[[prp]]'
p68
tp69
F0.0009285051067780873
s(S'called'
p70
S'in'
p71
tp72
F0.0018570102135561746
s(S'joined'
p73
S's'
p74
tp75
F0.0009285051067780873
s(S'[[det]]'
p76
S'elder'
p77
tp78
F0.0009285051067780873
s(S'then'
p79
S'served'
p80
tp81
F0.007428040854224698
s(S'called'
p82
S'out'
p83
tp84
F0.0009285051067780873
s(S'were'
p85
S'named'
p86
tp87
F0.0009285051067780873
s(S'served'
p88
S'again'
p89
tp90
F0.0009285051067780873
s(S'lead'
p91
S'[[con]]'
p92
tp93
F0.0018570102135561746
s(S'is'
p94
S'appointed'
p95
tp96
F0.003714020427112349
s(S'[[det]]'
p97
S'judge'
p98
tp99
F0.0009285051067780873
s(S'joined'
p100
S'from'
p101
tp102
F0.003714020427112349
s(S'minister'
p103
S'[[con]]'
p104
tp105
F0.0009285051067780873
s(S'also'
p106
S'raised'
p107
tp108
F0.0009285051067780873
s(S'involved'
p109
S'[[num]]'
p110
tp111
F0.0009285051067780873
s(S'is'
p112
S'[[adj]]'
p113
tp114
F0.0009285051067780873
s(S'served'
p115
S'[[det]]'
p116
tp117
F0.005571030640668524
s(S'then'
p118
S'named'
p119
tp120
F0.0009285051067780873
s(S'joined'
p121
S'on'
p122
tp123
F0.002785515320334262
s(S'appointed'
p124
S'on'
p125
tp126
F0.0018570102135561746
s(S'representative'
p127
S'[[det]]'
p128
tp129
F0.0018570102135561746
s(S'born'
p130
S'[[num]]'
p131
tp132
F0.002785515320334262
s(S'which'
p133
S'involved'
p134
tp135
F0.0009285051067780873
s(S'involved'
p136
S'to'
p137
tp138
F0.0009285051067780873
s(S'[[det]]'
p139
S'served'
p140
tp141
F0.0018570102135561746
s(S'while'
p142
S'joined'
p143
tp144
F0.0009285051067780873
s(S'served'
p145
S'later'
p146
tp147
F0.0009285051067780873
s(S'joined'
p148
S'for'
p149
tp150
F0.0009285051067780873
s(S'[[adj]]'
p151
S'founder'
p152
tp153
F0.0018570102135561746
s(S'serves'
p154
S'in'
p155
tp156
F0.0018570102135561746
s(S'[[det]]'
p157
S'priest'
p158
tp159
F0.003714020427112349
s(g158
S'at'
p160
tp161
F0.0009285051067780873
s(S'leader'
p162
S'for'
p163
tp164
F0.0018570102135561746
s(S'member'
p165
S'who'
p166
tp167
F0.0009285051067780873
s(S'ordained'
p168
S'minister'
p169
tp170
F0.002785515320334262
s(S'again'
p171
S'served'
p172
tp173
F0.0018570102135561746
s(S'involved'
p174
S'by'
p175
tp176
F0.0009285051067780873
s(S'representative'
p177
S'of'
p178
tp179
F0.003714020427112349
s(S'served'
p180
S'at'
p181
tp182
F0.008356545961002786
s(S'served'
p183
S'of'
p184
tp185
F0.0018570102135561746
s(S'served'
p186
S'until'
p187
tp188
F0.0018570102135561746
s(S'[[con]]'
p189
S'school'
p190
tp191
F0.0009285051067780873
s(S'joined'
p192
S'that'
p193
tp194
F0.0009285051067780873
s(S'lead'
p195
S'to'
p196
tp197
F0.0009285051067780873
s(S'school'
p198
S'to'
p199
tp200
F0.0009285051067780873
s(S'appointed'
p201
S'as'
p202
tp203
F0.0064995357474466105
s(S'served'
p204
S'for'
p205
tp206
F0.008356545961002786
s(S'member'
p207
S'on'
p208
tp209
F0.0018570102135561746
s(S'had'
p210
S'joined'
p211
tp212
F0.004642525533890436
s(S'serves'
p213
S'on'
p214
tp215
F0.003714020427112349
s(S'[[adj]]'
p216
S'involved'
p217
tp218
F0.0009285051067780873
s(S'[[adj]]'
p219
g1
tp220
F0.0064995357474466105
s(S'is'
p221
S'named'
p222
tp223
F0.002785515320334262
s(S'[[det]]'
p224
S'called'
p225
tp226
F0.0009285051067780873
s(g65
S'at'
p227
tp228
F0.002785515320334262
s(S'had'
p229
S'served'
p230
tp231
F0.005571030640668524
s(S'which'
p232
g195
tp233
F0.0009285051067780873
s(S'been'
p234
S'involved'
p235
tp236
F0.005571030640668524
s(S'[[num]]'
p237
S'served'
p238
tp239
F0.003714020427112349
s(S'representative'
p240
S'at'
p241
tp242
F0.0009285051067780873
s(S'called'
p243
S'with'
p244
tp245
F0.0009285051067780873
s(S'[[con]]'
p246
S'member'
p247
tp248
F0.002785515320334262
s(S'named'
p249
S'to'
p250
tp251
F0.003714020427112349
s(S'joined'
p252
S'later'
p253
tp254
F0.0009285051067780873
s(S'[[con]]'
p255
S'[[det]]'
p256
tp257
F0.0009285051067780873
s(S'joined'
p258
S'to'
p259
tp260
F0.0018570102135561746
s(S'representative'
p261
S'to'
p262
tp263
F0.003714020427112349
s(S'leader'
p264
S'in'
p265
tp266
F0.002785515320334262
s(S'priest'
p267
S'of'
p268
tp269
F0.0009285051067780873
s(S'to'
p270
S'lead'
p271
tp272
F0.002785515320334262
s(S'became'
p273
S'leader'
p274
tp275
F0.0018570102135561746
s(S'first'
p276
S'joined'
p277
tp278
F0.002785515320334262
s(S'born'
p279
g255
tp280
F0.0009285051067780873
s(S'was'
p281
S'served'
p282
tp283
F0.0009285051067780873
s(S'is'
p284
S'[[det]]'
p285
tp286
F0.0009285051067780873
s(S'served'
p287
S'in'
p288
tp289
F0.014856081708449397
s(S'joined'
p290
S'then'
p291
tp292
F0.0018570102135561746
s(S'serves'
p293
S'at'
p294
tp295
F0.003714020427112349
s(S'is'
p296
S'founder'
p297
tp298
F0.0018570102135561746
s(S'joined'
p299
S'now'
p300
tp301
F0.0009285051067780873
s(S'had'
p302
S'called'
p303
tp304
F0.0009285051067780873
s(S'is'
p305
S'involved'
p306
tp307
F0.003714020427112349
s(S'joined'
p308
S'[[pro]]'
p309
tp310
F0.0009285051067780873
s(S'became'
p311
S'member'
p312
tp313
F0.002785515320334262
s(S'as'
p314
S'[[det]]'
p315
tp316
F0.002785515320334262
s(S'member'
p317
g74
tp318
F0.0009285051067780873
s(S'[[num]]'
p319
S'founder'
p320
tp321
F0.0009285051067780873
s(g271
S'[[det]]'
p322
tp323
F0.002785515320334262
s(S'involved'
p324
S'with'
p325
tp326
F0.0064995357474466105
s(S'[[det]]'
p327
S'lay'
p328
tp329
F0.0009285051067780873
s(S'was'
p330
S'raised'
p331
tp332
F0.004642525533890436
s(S'to'
p333
S'serve'
p334
tp335
F0.0009285051067780873
s(S'appointed'
p336
S'[[prp]]'
p337
tp338
F0.0009285051067780873
s(S'who'
p339
S'joined'
p340
tp341
F0.002785515320334262
s(S'member'
p342
S'to'
p343
tp344
F0.0009285051067780873
s(S'nominated'
p345
g333
tp346
F0.0009285051067780873
s(S'also'
p347
g124
tp348
F0.007428040854224698
s(S'[[adj]]'
p349
S'joined'
p350
tp351
F0.0018570102135561746
s(S'involved'
p352
S'as'
p353
tp354
F0.0018570102135561746
s(S'[[con]]'
p355
S'founder'
p356
tp357
F0.0009285051067780873
s(S'joined'
p358
S'at'
p359
tp360
F0.003714020427112349
s(S'leader'
p361
S'to'
p362
tp363
F0.0009285051067780873
s(S'leader'
p364
S'of'
p365
tp366
F0.007428040854224698
s(S'appointed'
p367
S'[[con]]'
p368
tp369
F0.003714020427112349
s(S'of'
p370
S'named'
p371
tp372
F0.0009285051067780873
s(S'called'
p373
S'of'
p374
tp375
F0.0009285051067780873
s(S'also'
p376
S'named'
p377
tp378
F0.0064995357474466105
s(S'minister'
p379
S'for'
p380
tp381
F0.0018570102135561746
s(S'[[pro]]'
p382
S'joined'
p383
tp384
F0.0009285051067780873
s(S'was'
p385
S'ordained'
p386
tp387
F0.003714020427112349
s(S'member'
p388
S'as'
p389
tp390
F0.0018570102135561746
s(S'served'
p391
S'from'
p392
tp393
F0.0018570102135561746
s(S'school'
p394
S'of'
p395
tp396
F0.0018570102135561746
s(S'was'
p397
S'appointed'
p398
tp399
F0.012999071494893221
s(g398
S'before'
p400
tp401
F0.0009285051067780873
s(S'member'
p402
S'until'
p403
tp404
F0.0009285051067780873
s(g98
S'of'
p405
tp406
F0.0009285051067780873
s(S'serves'
p407
S'to'
p408
tp409
F0.002785515320334262
s(S'involved'
p410
S'on'
p411
tp412
F0.0009285051067780873
s(S'minister'
p413
S'to'
p414
tp415
F0.0009285051067780873
s(S'[[adj]]'
p416
g177
tp417
F0.004642525533890436
s(S'appointed'
p418
S'[[det]]'
p419
tp420
F0.003714020427112349
s(S'then'
p421
g121
tp422
F0.01021355617455896
s(S'appointed'
p423
S'[[adj]]'
p424
tp425
F0.0018570102135561746
s(S'was'
p426
S'called'
p427
tp428
F0.01021355617455896
s(S'became'
p429
g379
tp430
F0.0009285051067780873
s(S'have'
p431
S'served'
p432
tp433
F0.0009285051067780873
s(S'being'
p434
S'named'
p435
tp436
F0.0009285051067780873
s(g59
S'of'
p437
tp438
F0.007428040854224698
s(S'member'
p439
S'[[det]]'
p440
tp441
F0.007428040854224698
s(S'as'
p442
g364
tp443
F0.0009285051067780873
s(S'[[adj]]'
p444
S'member'
p445
tp446
F0.012999071494893221
s(S'also'
p447
S'member'
p448
tp449
F0.0018570102135561746
s(S'joined'
p450
S'after'
p451
tp452
F0.0009285051067780873
s(S'be'
p453
S'called'
p454
tp455
F0.0018570102135561746
s(S'appointed'
p456
S'at'
p457
tp458
F0.008356545961002786
s(S'volunteered'
p459
S'to'
p460
tp461
F0.0009285051067780873
s(S'[[adj]]'
p462
S'appointed'
p463
tp464
F0.0018570102135561746
s(S'member'
p465
S'[[num]]'
p466
tp467
F0.003714020427112349
s(S'was'
p468
g25
tp469
F0.0064995357474466105
s(S'served'
p470
S'now'
p471
tp472
F0.0009285051067780873
s(S'been'
p473
S'appointed'
p474
tp475
F0.0064995357474466105
s(S'ordained'
p476
S'[[det]]'
p477
tp478
F0.0018570102135561746
s(S'raised'
p479
S'[[det]]'
p480
tp481
F0.0018570102135561746
s(S'again'
p482
S'joined'
p483
tp484
F0.0018570102135561746
s(S'has'
p485
S'joined'
p486
tp487
F0.0018570102135561746
s(S'was'
p488
S'representative'
p489
tp490
F0.0018570102135561746
s(S'raised'
p491
S'from'
p492
tp493
F0.0009285051067780873
s(S'[[num]]'
p494
S'joined'
p495
tp496
F0.0009285051067780873
s(S'also'
p497
S'involved'
p498
tp499
F0.003714020427112349
s(S'[[det]]'
p500
S'appointed'
p501
tp502
F0.0009285051067780873
s(S'[[adj]]'
p503
S'priest'
p504
tp505
F0.0018570102135561746
s(S'instead'
p506
S'joined'
p507
tp508
F0.0018570102135561746
s(S'called'
p509
S'back'
p510
tp511
F0.0009285051067780873
s(S'joined'
p512
S'of'
p513
tp514
F0.003714020427112349
s(S'was'
p515
g279
tp516
F0.0009285051067780873
s(S'named'
p517
S'as'
p518
tp519
F0.005571030640668524
s(S'also'
p520
S'called'
p521
tp522
F0.0009285051067780873
s(S'serves'
p523
S'as'
p524
tp525
F0.003714020427112349
s(S'involved'
p526
S'[[con]]'
p527
tp528
F0.0018570102135561746
s(S'of'
p529
S'called'
p530
tp531
F0.0009285051067780873
s(S'of'
p532
S'member'
p533
tp534
F0.0009285051067780873
s(S'[[con]]'
p535
g512
tp536
F0.005571030640668524
s(S'raised'
p537
S'as'
p538
tp539
F0.0009285051067780873
s(g38
S'in'
p540
tp541
F0.003714020427112349
s(S'[[adj]]'
p542
S'lead'
p543
tp544
F0.0009285051067780873
s(S'member'
p545
S'at'
p546
tp547
F0.002785515320334262
s(S'called'
p548
S'before'
p549
tp550
F0.0009285051067780873
s(S'minister'
p551
S'at'
p552
tp553
F0.0018570102135561746
s(S'involved'
p554
S'[[pro]]'
p555
tp556
F0.0009285051067780873
s(S'representative'
p557
S'on'
p558
tp559
F0.003714020427112349
s(S'was'
p560
S'named'
p561
tp562
F0.01021355617455896
s(S'served'
p563
S'on'
p564
tp565
F0.008356545961002786
s(S'rebuilding'
p566
S'[[det]]'
p567
tp568
F0.0009285051067780873
s(S'priest'
p569
S'in'
p570
tp571
F0.0018570102135561746
s(S'founder'
p572
S'[[det]]'
p573
tp574
F0.0018570102135561746
s(S'joined'
p575
S'with'
p576
tp577
F0.0009285051067780873
s(S'representative'
p578
S'for'
p579
tp580
F0.0009285051067780873
s(S'that'
p581
S'involved'
p582
tp583
F0.0009285051067780873
s(S'[[adj]]'
p584
S'leader'
p585
tp586
F0.003714020427112349
s(S'now'
p587
g70
tp588
F0.002785515320334262
s(S'appointed'
p589
S'for'
p590
tp591
F0.002785515320334262
s(S'[[adj]]'
p592
g551
tp593
F0.002785515320334262
s(S'member'
p594
S'of'
p595
tp596
F0.016713091922005572
s(g334
S'as'
p597
tp598
F0.0009285051067780873
s(S'member'
p599
S'when'
p600
tp601
F0.0009285051067780873
s(S'founder'
p602
S'of'
p603
tp604
F0.0064995357474466105
s(S'[[con]]'
p605
S'leader'
p606
tp607
F0.0009285051067780873
s(S'member'
p608
S'has'
p609
tp610
F0.0009285051067780873
s(S'become'
p611
S'leader'
p612
tp613
F0.0009285051067780873
s(S'representative'
p614
S'[[con]]'
p615
tp616
F0.002785515320334262
s(S'part'
p617
S'called'
p618
tp619
F0.0009285051067780873
s(S'[[det]]'
p620
g578
tp621
F0.007428040854224698
s(S'also'
p622
S'joined'
p623
tp624
F0.0009285051067780873
s(S'was'
p625
g602
tp626
F0.002785515320334262
s(S'[[det]]'
p627
S'minister'
p628
tp629
F0.01021355617455896
s(S'served'
p630
S'to'
p631
tp632
F0.005571030640668524
s(g582
S'[[det]]'
p633
tp634
F0.0009285051067780873
s(S'served'
p635
S'as'
p636
tp637
F0.009285051067780872
s(S'being'
p638
S'appointed'
p639
tp640
F0.003714020427112349
s(S'again'
p641
S'appointed'
p642
tp643
F0.0018570102135561746
s(S'volunteered'
p644
S'for'
p645
tp646
F0.0009285051067780873
s(S'served'
p647
S'with'
p648
tp649
F0.011142061281337047
s(S'joined'
p650
S'[[con]]'
p651
tp652
F0.002785515320334262
s(S'member'
p653
S'from'
p654
tp655
F0.0018570102135561746
s(S'minister'
p656
S'in'
p657
tp658
F0.004642525533890436
s(S'later'
p659
S'appointed'
p660
tp661
F0.004642525533890436
s(S'member'
p662
S'[[adj]]'
p663
tp664
F0.0018570102135561746
s(S'[[pro]]'
p665
S'served'
p666
tp667
F0.0009285051067780873
s(S'be'
p668
S'appointed'
p669
tp670
F0.002785515320334262
s(S'instead'
p671
S'appointed'
p672
tp673
F0.0009285051067780873
s(S'named'
p674
S'with'
p675
tp676
F0.0009285051067780873
s(S'has'
p677
g635
tp678
F0.012999071494893221
s(S'belonged'
p679
S'to'
p680
tp681
F0.0018570102135561746
s(S'joined'
p682
S'side'
p683
tp684
F0.002785515320334262
s(S'volunteered'
p685
S'at'
p686
tp687
F0.0009285051067780873
s(S'of'
p688
S'joined'
p689
tp690
F0.0009285051067780873
s(S'born'
p691
g112
tp692
F0.0018570102135561746
s(S'[[con]]'
p693
g201
tp694
F0.003714020427112349
s(S'serves'
p695
S'for'
p696
tp697
F0.003714020427112349
s(S'[[det]]'
p698
S'named'
p699
tp700
F0.0009285051067780873
s(S'joined'
p701
S'who'
p702
tp703
F0.0009285051067780873
s(S'soon'
p704
S'joined'
p705
tp706
F0.0018570102135561746
s(S'served'
p707
S'before'
p708
tp709
F0.002785515320334262
s(S'when'
p710
S'joined'
p711
tp712
F0.0018570102135561746
s(S'[[det]]'
p713
g52
tp714
F0.002785515320334262
s(S'school'
p715
S'[[adj]]'
p716
tp717
F0.0009285051067780873
s(S'been'
p718
S'named'
p719
tp720
F0.007428040854224698
s(g303
S'[[det]]'
p721
tp722
F0.003714020427112349
s(S'called'
p723
S'as'
p724
tp725
F0.0009285051067780873
s(S'now'
p726
S'serves'
p727
tp728
F0.002785515320334262
s(S'with'
p729
S'joined'
p730
tp731
F0.0018570102135561746
s(S'then'
p732
S'appointed'
p733
tp734
F0.005571030640668524
s(S'called'
p735
S'from'
p736
tp737
F0.0018570102135561746
s(S'as'
p738
S'representative'
p739
tp740
F0.0009285051067780873
s(S'served'
p741
S'where'
p742
tp743
F0.0009285051067780873
s(S'member'
p744
S'which'
p745
tp746
F0.0009285051067780873
s(g445
S'[[con]]'
p747
tp748
F0.0064995357474466105
s(S'of'
p749
S'appointed'
p750
tp751
F0.0009285051067780873
s(S'where'
p752
S'served'
p753
tp754
F0.0018570102135561746
s(S'joined'
p755
S'[[adj]]'
p756
tp757
F0.002785515320334262
s(S'served'
p758
S'[[con]]'
p759
tp760
F0.004642525533890436
s(S'serves'
p761
S'[[det]]'
p762
tp763
F0.0018570102135561746
s(S'served'
p764
S'there'
p765
tp766
F0.0009285051067780873
s(S'named'
p767
S'[[det]]'
p768
tp769
F0.007428040854224698
s(S'appointed'
p770
S'when'
p771
tp772
F0.0009285051067780873
s(S'twice'
p773
S'served'
p774
tp775
F0.0018570102135561746
s(S'[[det]]'
p776
g168
tp777
F0.002785515320334262
s(S'joined'
p778
S'de'
p779
tp780
F0.0009285051067780873
s(S'[[num]]'
p781
S'member'
p782
tp783
F0.0018570102135561746
s(S'appointed'
p784
S'to'
p785
tp786
F0.011142061281337047
s(S'first'
p787
S'appointed'
p788
tp789
F0.0009285051067780873
s(S'have'
p790
S'joined'
p791
tp792
F0.0009285051067780873
s(g669
S'of'
p793
tp794
F0.01021355617455896
s(S'[[num]]'
p795
S'[[det]]'
p796
tp797
F0.0009285051067780873
s(g331
S'[[con]]'
p798
tp799
F0.0009285051067780873
s(S'later'
p800
g758
tp801
F0.007428040854224698
s(S'was'
p802
S'member'
p803
tp804
F0.0064995357474466105
s(S'volunteered'
p805
S'in'
p806
tp807
F0.0009285051067780873
s(S'until'
p808
S'joined'
p809
tp810
F0.0018570102135561746
s(S'appointed'
p811
S'was'
p812
tp813
F0.0009285051067780873
s(S'before'
p814
S'joined'
p815
tp816
F0.0009285051067780873
s(S'served'
p817
S'then'
p818
tp819
F0.0009285051067780873
s(S'also'
p820
g761
tp821
F0.009285051067780872
s(S'joined'
p822
S'which'
p823
tp824
F0.0009285051067780873
s(g561
S'by'
p825
tp826
F0.004642525533890436
s(g235
S'in'
p827
tp828
F0.0064995357474466105
s(S'had'
p829
S'appointed'
p830
tp831
F0.0009285051067780873
s(S'formerly'
p832
g630
tp833
F0.003714020427112349
s(S'[[con]]'
p834
g204
tp835
F0.005571030640668524
s(S'as'
p836
S'member'
p837
tp838
F0.0009285051067780873
s(S'later'
p839
S'named'
p840
tp841
F0.0018570102135561746
s(S'twice'
p842
S'named'
p843
tp844
F0.0009285051067780873
s(g152
S'[[con]]'
p845
tp846
F0.004642525533890436
s(S'also'
p847
g183
tp848
F0.013927576601671309
s(S'member'
p849
S'during'
p850
tp851
F0.0009285051067780873
s(S'again'
p852
S'called'
p853
tp854
F0.0009285051067780873
s(S'of'
p855
S'served'
p856
tp857
F0.0009285051067780873
s(S'[[det]]'
p858
g49
tp859
F0.002785515320334262
s(S'be'
p860
S'involved'
p861
tp862
F0.0018570102135561746
s(S'served'
p863
S'[[num]]'
p864
tp865
F0.0018570102135561746
s(S'school'
p866
S'for'
p867
tp868
F0.0009285051067780873
s(g733
S'[[num]]'
p869
tp870
F0.0018570102135561746
s(g521
S'up'
p871
tp872
F0.0064995357474466105
s(S'joined'
p873
S'before'
p874
tp875
F0.0009285051067780873
s(S'serves'
p876
S'[[con]]'
p877
tp878
F0.002785515320334262
s(S'leader'
p879
S'at'
p880
tp881
F0.0018570102135561746
s(S'first'
p882
S'served'
p883
tp884
F0.0018570102135561746
s(S'[[mod]]'
p885
S'lead'
p886
tp887
F0.0018570102135561746
s(S'[[det]]'
p888
g402
tp889
F0.02042711234911792
s(S'is'
p890
S'member'
p891
tp892
F0.002785515320334262
s(g483
S'[[det]]'
p893
tp894
F0.02042711234911792
s(S'named'
p895
S'for'
p896
tp897
F0.0018570102135561746
s(g628
S'[[adj]]'
p898
tp899
F0.0009285051067780873
s(S'minister'
p900
S'of'
p901
tp902
F0.004642525533890436
s(S'served'
p903
S'[[adj]]'
p904
tp905
F0.003714020427112349
s(S'joined'
p906
S'in'
p907
tp908
F0.0009285051067780873
s(S'[[det]]'
p909
g879
tp910
F0.0064995357474466105
s(S'as'
p911
S'joined'
p912
tp913
F0.0009285051067780873
s(S'[[det]]'
p914
S'raised'
p915
tp916
F0.0009285051067780873
s(S'currently'
p917
S'serves'
p918
tp919
F0.007428040854224698
s(S'named'
p920
S'at'
p921
tp922
F0.003714020427112349
s(g32
S'[[num]]'
p923
tp924
F0.0009285051067780873
s(S'where'
p925
S'joined'
p926
tp927
F0.0018570102135561746
s(S'joined'
p928
S'becoming'
p929
tp930
F0.0009285051067780873
s(S'served'
p931
S'becoming'
p932
tp933
F0.0009285051067780873
s(S'first'
p934
S'called'
p935
tp936
F0.0009285051067780873
s(S'[[con]]'
p937
S'belonged'
p938
tp939
F0.0009285051067780873
s(g386
g314
tp940
F0.0018570102135561746
s(S'appointed'
p941
S'[[pro]]'
p942
tp943
F0.004642525533890436
s(S'minister'
p944
S'when'
p945
tp946
F0.0009285051067780873
s(S'called'
p947
S'at'
p948
tp949
F0.0009285051067780873
s(S'[[num]]'
p950
S'[[adj]]'
p951
tp952
F0.0009285051067780873
s(S'was'
p953
g358
tp954
F0.003714020427112349
s(S'member'
p955
S'for'
p956
tp957
F0.003714020427112349
s(S'leader'
p958
S'[[det]]'
p959
tp960
F0.0018570102135561746
s(S'[[adj]]'
p961
g180
tp962
F0.003714020427112349
s(S'[[det]]'
p963
S'founder'
p964
tp965
F0.003714020427112349
s(S'joined'
p966
S'[[num]]'
p967
tp968
F0.0018570102135561746
s(g427
S'for'
p969
tp970
F0.0018570102135561746
s(S'involved'
p971
S'[[adj]]'
p972
tp973
F0.0009285051067780873
s(g803
S'in'
p974
tp975
F0.002785515320334262
s(g8
S'[[det]]'
p976
tp977
F0.0009285051067780873
s(S'named'
p978
S'[[con]]'
p979
tp980
F0.002785515320334262
s(S'[[con]]'
p981
g154
tp982
F0.0018570102135561746
s(S'leader'
p983
S'[[con]]'
p984
tp985
F0.002785515320334262
s(S'then'
p986
S'called'
p987
tp988
F0.002785515320334262
s.