(dp0
(S'[[det]]'
p1
S'returned'
p2
tp3
F0.0014858841010401188
s(S'arrived'
p4
S'back'
p5
tp6
F0.0014858841010401188
s(S'had'
p7
S'traveled'
p8
tp9
F0.0029717682020802376
s(S'died'
p10
S'of'
p11
tp12
F0.0014858841010401188
s(S'was'
p13
S'married'
p14
tp15
F0.005943536404160475
s(S'[[con]]'
p16
S'lived'
p17
tp18
F0.004457652303120356
s(S'died'
p19
S'to'
p20
tp21
F0.0014858841010401188
s(S'died'
p22
S'is'
p23
tp24
F0.0014858841010401188
s(S'was'
p25
S'king'
p26
tp27
F0.0014858841010401188
s(S'king'
p28
S'of'
p29
tp30
F0.014858841010401188
s(S'[[con]]'
p31
S'living'
p32
tp33
F0.0014858841010401188
s(S'first'
p34
S'arrived'
p35
tp36
F0.0014858841010401188
s(S'return'
p37
S'[[pro]]'
p38
tp39
F0.0014858841010401188
s(S'lived'
p40
S'most'
p41
tp42
F0.0029717682020802376
s(S'lived'
p43
S'from'
p44
tp45
F0.0014858841010401188
s(S'just'
p46
S'returned'
p47
tp48
F0.0014858841010401188
s(S'died'
p49
S'just'
p50
tp51
F0.0014858841010401188
s(g35
S'in'
p52
tp53
F0.008915304606240713
s(S'[[adj]]'
p54
S'arrival'
p55
tp56
F0.0014858841010401188
s(S'becomes'
p57
g28
tp58
F0.0014858841010401188
s(S'[[con]]'
p59
S'return'
p60
tp61
F0.0014858841010401188
s(S'also'
p62
S'remained'
p63
tp64
F0.0014858841010401188
s(S'buried'
p65
S'[[det]]'
p66
tp67
F0.008915304606240713
s(S'died'
p68
S'[[con]]'
p69
tp70
F0.03566121842496285
s(S's'
p71
S'return'
p72
tp73
F0.004457652303120356
s(S'just'
p74
S'arrived'
p75
tp76
F0.0014858841010401188
s(S'then'
p77
S'settled'
p78
tp79
F0.0014858841010401188
s(S'lived'
p80
S'[[det]]'
p81
tp82
F0.0014858841010401188
s(S'[[num]]'
p83
S'came'
p84
tp85
F0.0014858841010401188
s(S'king'
p86
S'[[det]]'
p87
tp88
F0.0014858841010401188
s(S'lived'
p89
S'in'
p90
tp91
F0.019316493313521546
s(S'throne'
p92
S'of'
p93
tp94
F0.0014858841010401188
s(g71
S'journey'
p95
tp96
F0.0029717682020802376
s(S'king'
p97
S'who'
p98
tp99
F0.0014858841010401188
s(S'to'
p100
S'return'
p101
tp102
F0.004457652303120356
s(S'which'
p103
S'came'
p104
tp105
F0.0014858841010401188
s(S'returned'
p106
S'before'
p107
tp108
F0.0014858841010401188
s(S'lived'
p109
S'mostly'
p110
tp111
F0.0014858841010401188
s(S'to'
p112
S'rest'
p113
tp114
F0.0029717682020802376
s(S'retired'
p115
S'to'
p116
tp117
F0.0014858841010401188
s(S'[[num]]'
p118
S'is'
p119
tp120
F0.0014858841010401188
s(S'which'
p121
S'returned'
p122
tp123
F0.0014858841010401188
s(S'[[con]]'
p124
S'arrived'
p125
tp126
F0.0014858841010401188
s(S'be'
p127
S'built'
p128
tp129
F0.0014858841010401188
s(S'[[det]]'
p130
S'return'
p131
tp132
F0.0029717682020802376
s(S'[[det]]'
p133
S'city'
p134
tp135
F0.0014858841010401188
s(S'city'
p136
S'of'
p137
tp138
F0.005943536404160475
s(S'[[adj]]'
p139
S'ruler'
p140
tp141
F0.007429420505200594
s(S'moved'
p142
S'[[det]]'
p143
tp144
F0.0029717682020802376
s(S'[[con]]'
p145
S'remained'
p146
tp147
F0.0014858841010401188
s(S'crowned'
p148
S'in'
p149
tp150
F0.0014858841010401188
s(g47
S'from'
p151
tp152
F0.0014858841010401188
s(S'is'
p153
S'married'
p154
tp155
F0.0029717682020802376
s(S'buried'
p156
S'[[adj]]'
p157
tp158
F0.004457652303120356
s(S'king'
p159
S'[[con]]'
p160
tp161
F0.0014858841010401188
s(S'returned'
p162
S'[[pro]]'
p163
tp164
F0.0014858841010401188
s(S'was'
p165
S'settled'
p166
tp167
F0.0014858841010401188
s(S'died'
p168
S'in'
p169
tp170
F0.014858841010401188
s(S'never'
p171
S'lived'
p172
tp173
F0.0014858841010401188
s(g146
S'in'
p174
tp175
F0.005943536404160475
s(S'became'
p176
S'king'
p177
tp178
F0.0014858841010401188
s(S'return'
p179
S'in'
p180
tp181
F0.004457652303120356
s(S'came'
p182
S'to'
p183
tp184
F0.005943536404160475
s(S'built'
p185
S'at'
p186
tp187
F0.005943536404160475
s(S'is'
p188
S'living'
p189
tp190
F0.0029717682020802376
s(S'[[con]]'
p191
S'king'
p192
tp193
F0.0014858841010401188
s(S'king'
p194
S'[[pro]]'
p195
tp196
F0.0014858841010401188
s(S'have'
p197
S'lived'
p198
tp199
F0.0014858841010401188
s(S'interred'
p200
S'in'
p201
tp202
F0.007429420505200594
s(S'when'
p203
S'traveled'
p204
tp205
F0.0014858841010401188
s(S'be'
p206
S'educated'
p207
tp208
F0.0014858841010401188
s(S'while'
p209
S'lived'
p210
tp211
F0.0014858841010401188
s(S'buried'
p212
S'at'
p213
tp214
F0.01634472511144131
s(g69
S'is'
p215
tp216
F0.014858841010401188
s(S'built'
p217
S'[[con]]'
p218
tp219
F0.0029717682020802376
s(S'settled'
p220
S'in'
p221
tp222
F0.01188707280832095
s(S'flew'
p223
S'back'
p224
tp225
F0.0014858841010401188
s(S'later'
p226
S'lived'
p227
tp228
F0.0029717682020802376
s(S'arrived'
p229
S'[[adj]]'
p230
tp231
F0.0014858841010401188
s(S'was'
p232
S'buried'
p233
tp234
F0.03417533432392273
s(g63
S'[[det]]'
p235
tp236
F0.0014858841010401188
s(S'married'
p237
S'at'
p238
tp239
F0.005943536404160475
s(S'was'
p240
S'interred'
p241
tp242
F0.01188707280832095
s(S'lived'
p243
S'until'
p244
tp245
F0.0029717682020802376
s(S'traveled'
p246
S'from'
p247
tp248
F0.004457652303120356
s(S'ruler'
p249
S'[[con]]'
p250
tp251
F0.0029717682020802376
s(g71
S'city'
p252
tp253
F0.0014858841010401188
s(S'[[mod]]'
p254
S'return'
p255
tp256
F0.0029717682020802376
s(S'who'
p257
S'remained'
p258
tp259
F0.0014858841010401188
s(S'[[con]]'
p260
S'died'
p261
tp262
F0.0029717682020802376
s(S'[[prp]]'
p263
S'capital'
p264
tp265
F0.0029717682020802376
s(S'[[adj]]'
p266
S'traveled'
p267
tp268
F0.0014858841010401188
s(S'built'
p269
S'[[num]]'
p270
tp271
F0.0029717682020802376
s(S'where'
p272
S'built'
p273
tp274
F0.0014858841010401188
s(S'who'
p275
g220
tp276
F0.0014858841010401188
s(S'soon'
p277
S'returned'
p278
tp279
F0.0014858841010401188
s(S'while'
p280
S'living'
p281
tp282
F0.0029717682020802376
s(g131
S'[[con]]'
p283
tp284
F0.0029717682020802376
s(S'had'
p285
S'lived'
p286
tp287
F0.0014858841010401188
s(S'crowned'
p288
S'[[pro]]'
p289
tp290
F0.0014858841010401188
s(S'died'
p291
S'from'
p292
tp293
F0.0014858841010401188
s(S'[[adj]]'
p294
S'settled'
p295
tp296
F0.0014858841010401188
s(S'buried'
p297
S'near'
p298
tp299
F0.0029717682020802376
s(S'[[pro]]'
p300
S'return'
p301
tp302
F0.0014858841010401188
s(S'now'
p303
S'married'
p304
tp305
F0.0014858841010401188
s(S'[[con]]'
p306
S'built'
p307
tp308
F0.0029717682020802376
s(S'died'
p309
S'[[adj]]'
p310
tp311
F0.0029717682020802376
s(g71
S'arrival'
p312
tp313
F0.0029717682020802376
s(S'[[con]]'
p314
S'was'
p315
tp316
F0.017830609212481426
s(S'lived'
p317
S'[[con]]'
p318
tp319
F0.0029717682020802376
s(S'buried'
p320
S'with'
p321
tp322
F0.0014858841010401188
s(S'married'
p323
S'of'
p324
tp325
F0.004457652303120356
s(S'died'
p326
S'[[det]]'
p327
tp328
F0.0014858841010401188
s(S'still'
p329
S'living'
p330
tp331
F0.0014858841010401188
s(S'[[det]]'
p332
S'living'
p333
tp334
F0.0014858841010401188
s(S'lived'
p335
S'for'
p336
tp337
F0.0014858841010401188
s(S'when'
p338
S'arrived'
p339
tp340
F0.0014858841010401188
s(S'then'
p341
S'traveled'
p342
tp343
F0.0029717682020802376
s(S'then'
p344
S'came'
p345
tp346
F0.0014858841010401188
s(S'has'
p347
S'lived'
p348
tp349
F0.005943536404160475
s(S'died'
p350
S'soon'
p351
tp352
F0.0029717682020802376
s(S'married'
p353
S'[[num]]'
p354
tp355
F0.0029717682020802376
s(S'[[prp]]'
p356
S'return'
p357
tp358
F0.0029717682020802376
s(S'ruler'
p359
S'of'
p360
tp361
F0.007429420505200594
s(S'flew'
p362
S'out'
p363
tp364
F0.0014858841010401188
s(S'been'
p365
S'built'
p366
tp367
F0.0029717682020802376
s(S'arrived'
p368
S'at'
p369
tp370
F0.0014858841010401188
s(S'king'
p371
S'in'
p372
tp373
F0.0029717682020802376
s(S'[[num]]'
p374
S'was'
p375
tp376
F0.0029717682020802376
s(S'[[num]]'
p377
g89
tp378
F0.0014858841010401188
s(S'lived'
p379
S'out'
p380
tp381
F0.0014858841010401188
s(S'[[con]]'
p382
S'buried'
p383
tp384
F0.0029717682020802376
s(S'[[det]]'
p385
S'rest'
p386
tp387
F0.0014858841010401188
s(S'built'
p388
S'[[adj]]'
p389
tp390
F0.0029717682020802376
s(S'[[det]]'
p391
g92
tp392
F0.0014858841010401188
s(S'lived'
p393
S'near'
p394
tp395
F0.0014858841010401188
s(S'flew'
p396
S'in'
p397
tp398
F0.0014858841010401188
s(S'was'
p399
S'returned'
p400
tp401
F0.0014858841010401188
s(S'also'
p402
S'built'
p403
tp404
F0.007429420505200594
s(S'arrived'
p405
S'when'
p406
tp407
F0.0014858841010401188
s(S'later'
p408
S'married'
p409
tp410
F0.0029717682020802376
s(S'buried'
p411
S'on'
p412
tp413
F0.005943536404160475
s(S'not'
p414
S'return'
p415
tp416
F0.0014858841010401188
s(S'traveled'
p417
S'between'
p418
tp419
F0.0014858841010401188
s(S'again'
p420
S'returned'
p421
tp422
F0.0014858841010401188
s(S'flew'
p423
S'over'
p424
tp425
F0.0014858841010401188
s(S'[[det]]'
p426
g97
tp427
F0.004457652303120356
s(S'been'
p428
S'buried'
p429
tp430
F0.0014858841010401188
s(S'[[adj]]'
p431
S'return'
p432
tp433
F0.0014858841010401188
s(S'on'
p434
S'is'
p435
tp436
F0.0029717682020802376
s(S'came'
p437
S'from'
p438
tp439
F0.0014858841010401188
s(S'built'
p440
S'[[det]]'
p441
tp442
F0.008915304606240713
s(g342
S'on'
p443
tp444
F0.0029717682020802376
s(S'first'
p445
S'traveled'
p446
tp447
F0.0014858841010401188
s(S'arrival'
p448
S'in'
p449
tp450
F0.004457652303120356
s(S'had'
p451
S'settled'
p452
tp453
F0.0014858841010401188
s(S'[[adj]]'
p454
S'living'
p455
tp456
F0.0014858841010401188
s(S'built'
p457
S'on'
p458
tp459
F0.0029717682020802376
s(S'died'
p460
S'on'
p461
tp462
F0.005943536404160475
s(S'[[num]]'
p463
S'returned'
p464
tp465
F0.0014858841010401188
s(S'was'
p466
S'crowned'
p467
tp468
F0.0014858841010401188
s(S'journey'
p469
S'to'
p470
tp471
F0.004457652303120356
s(S'retired'
p472
S'in'
p473
tp474
F0.0014858841010401188
s(S'[[pro]]'
p475
S'king'
p476
tp477
F0.0014858841010401188
s(S'[[prp]]'
p478
g469
tp479
F0.0014858841010401188
s(S'currently'
p480
S'living'
p481
tp482
F0.0029717682020802376
s(g113
S'in'
p483
tp484
F0.0014858841010401188
s(S'came'
p485
S'down'
p486
tp487
F0.0014858841010401188
s(S'return'
p488
S'at'
p489
tp490
F0.0014858841010401188
s(g264
S'to'
p491
tp492
F0.0029717682020802376
s(S'later'
p493
S'settled'
p494
tp495
F0.0029717682020802376
s(g204
S'to'
p496
tp497
F0.010401188707280832
s(S'there'
p498
S'is'
p499
tp500
F0.0014858841010401188
s(S'never'
p501
S'return'
p502
tp503
F0.0014858841010401188
s(g494
S'[[con]]'
p504
tp505
F0.0014858841010401188
s(S'who'
p506
S'died'
p507
tp508
F0.0014858841010401188
s(S'interred'
p509
S'at'
p510
tp511
F0.007429420505200594
s(g60
S'to'
p512
tp513
F0.014858841010401188
s(S'buried'
p514
S'in'
p515
tp516
F0.02526002971768202
s(S'then'
p517
S'flew'
p518
tp519
F0.0014858841010401188
s(S'came'
p520
S'in'
p521
tp522
F0.0029717682020802376
s(S'when'
p523
S'died'
p524
tp525
F0.0029717682020802376
s(g518
S'to'
p526
tp527
F0.0029717682020802376
s(S'been'
p528
S'educated'
p529
tp530
F0.0014858841010401188
s(S'later'
p531
S'traveled'
p532
tp533
F0.0014858841010401188
s(S'[[pro]]'
p534
S'returned'
p535
tp536
F0.0014858841010401188
s(S'educated'
p537
S'in'
p538
tp539
F0.007429420505200594
s(g310
S'was'
p540
tp541
F0.0014858841010401188
s(S'died'
p542
S'there'
p543
tp544
F0.0029717682020802376
s(S'[[con]]'
p545
S'returned'
p546
tp547
F0.0029717682020802376
s(S'traveled'
p548
S'[[con]]'
p549
tp550
F0.0014858841010401188
s(S'later'
p551
S'died'
p552
tp553
F0.004457652303120356
s(g2
S'to'
p554
tp555
F0.01634472511144131
s(g143
S'capital'
p556
tp557
F0.004457652303120356
s(S'journey'
p558
S'from'
p559
tp560
F0.0014858841010401188
s(S'who'
p561
S'lived'
p562
tp563
F0.0014858841010401188
s(S'where'
p564
g243
tp565
F0.0014858841010401188
s(S'died'
p566
S'while'
p567
tp568
F0.0014858841010401188
s(S'had'
p569
S'returned'
p570
tp571
F0.0014858841010401188
s(S'married'
p572
S'in'
p573
tp574
F0.01337295690936107
s(S'been'
p575
S'living'
p576
tp577
F0.004457652303120356
s(S'as'
p578
S'king'
p579
tp580
F0.0029717682020802376
s(g140
S'[[det]]'
p581
tp582
F0.0029717682020802376
s(S'[[pro]]'
p583
S'traveled'
p584
tp585
F0.0014858841010401188
s(S'[[adj]]'
p586
S'lived'
p587
tp588
F0.0014858841010401188
s(S'then'
p589
S'married'
p590
tp591
F0.004457652303120356
s(S'arrived'
p592
S'to'
p593
tp594
F0.0014858841010401188
s(g32
S'in'
p595
tp596
F0.020802377414561663
s(S'[[adj]]'
p597
S'city'
p598
tp599
F0.0014858841010401188
s(g556
S'from'
p600
tp601
F0.0029717682020802376
s(S'in'
p602
S'came'
p603
tp604
F0.0014858841010401188
s(S'had'
p605
S'arrived'
p606
tp607
F0.004457652303120356
s(g14
S'from'
p608
tp609
F0.004457652303120356
s(S'had'
p610
S'married'
p611
tp612
F0.0029717682020802376
s(S'also'
p613
g182
tp614
F0.0014858841010401188
s(g233
S'[[con]]'
p615
tp616
F0.0029717682020802376
s(g543
S'was'
p617
tp618
F0.0014858841010401188
s(S'have'
p619
S'built'
p620
tp621
F0.0014858841010401188
s(S'had'
p622
S'built'
p623
tp624
F0.004457652303120356
s(S'has'
p625
S'remained'
p626
tp627
F0.0014858841010401188
s(S'is'
p628
S'buried'
p629
tp630
F0.02823179791976226
s(S'after'
p631
S'living'
p632
tp633
F0.0014858841010401188
s(S'[[pro]]'
p634
S'lived'
p635
tp636
F0.0014858841010401188
s(S'were'
p637
S'living'
p638
tp639
F0.0014858841010401188
s(g467
S'at'
p640
tp641
F0.0029717682020802376
s(S'arrived'
p642
S'from'
p643
tp644
F0.0014858841010401188
s(S'first'
p645
S'settled'
p646
tp647
F0.0029717682020802376
s(S'moved'
p648
g263
tp649
F0.0029717682020802376
s(g304
S'to'
p650
tp651
F0.0029717682020802376
s(S'built'
p652
S'[[prp]]'
p653
tp654
F0.0014858841010401188
s(S'died'
p655
S'at'
p656
tp657
F0.007429420505200594
s(S'settled'
p658
S'down'
p659
tp660
F0.0014858841010401188
s(S'then'
p661
S'lived'
p662
tp663
F0.0029717682020802376
s(S'flew'
p664
S'from'
p665
tp666
F0.0014858841010401188
s(S'whom'
p667
S'married'
p668
tp669
F0.0014858841010401188
s(S'were'
p670
g237
tp671
F0.0029717682020802376
s(S'was'
p672
g537
tp673
F0.0014858841010401188
s(S'ruler'
p674
S'in'
p675
tp676
F0.0029717682020802376
s(S'then'
p677
S'returned'
p678
tp679
F0.0014858841010401188
s(S'married'
p680
S'on'
p681
tp682
F0.0014858841010401188
s(S'[[adj]]'
p683
S'returned'
p684
tp685
F0.0014858841010401188
s(S'flew'
p686
S'[[adj]]'
p687
tp688
F0.0014858841010401188
s(g461
S'was'
p689
tp690
F0.0014858841010401188
s(S'[[adj]]'
p691
S'died'
p692
tp693
F0.0014858841010401188
s(S'became'
p694
S'ruler'
p695
tp696
F0.0014858841010401188
s(S'returned'
p697
S'by'
p698
tp699
F0.0014858841010401188
s(S'have'
p700
g168
tp701
F0.0014858841010401188
s(S'be'
p702
S'buried'
p703
tp704
F0.004457652303120356
s(g357
S'from'
p705
tp706
F0.004457652303120356
s(S'rest'
p707
S'at'
p708
tp709
F0.0014858841010401188
s(S'[[num]]'
p710
S'died'
p711
tp712
F0.0014858841010401188
s(g576
S'at'
p713
tp714
F0.004457652303120356
s(S'[[con]]'
p715
S'married'
p716
tp717
F0.0014858841010401188
s(S'[[det]]'
p718
g249
tp719
F0.007429420505200594
s(S'to'
p720
S'king'
p721
tp722
F0.0014858841010401188
s(S'lived'
p723
S'at'
p724
tp725
F0.0029717682020802376
s(S'[[num]]'
p726
S'living'
p727
tp728
F0.0014858841010401188
s(S'died'
p729
S'was'
p730
tp731
F0.0014858841010401188
s(S'lived'
p732
S'while'
p733
tp734
F0.0014858841010401188
s(S'was'
p735
S'living'
p736
tp737
F0.004457652303120356
s(S'had'
p738
S'died'
p739
tp740
F0.0029717682020802376
s(S'[[prp]]'
p741
g448
tp742
F0.0014858841010401188
s(S'remained'
p743
S'to'
p744
tp745
F0.0014858841010401188
s(S'first'
p746
g520
tp747
F0.0014858841010401188
s(g678
S'in'
p748
tp749
F0.005943536404160475
s(S'interred'
p750
S'[[det]]'
p751
tp752
F0.004457652303120356
s(S'[[adj]]'
p753
S'educated'
p754
tp755
F0.0014858841010401188
s(S'[[adj]]'
p756
S'king'
p757
tp758
F0.0029717682020802376
s(S'in'
p759
S'died'
p760
tp761
F0.0014858841010401188
s(S'returned'
p762
S'once'
p763
tp764
F0.0014858841010401188
s(S'now'
p765
S'living'
p766
tp767
F0.0014858841010401188
s(S'to'
p768
S'[[det]]'
p769
tp770
F0.0014858841010401188
s(g736
S'on'
p771
tp772
F0.0014858841010401188
s(S'[[pro]]'
p773
S'died'
p774
tp775
F0.0014858841010401188
s(S'died'
p776
g374
tp777
F0.004457652303120356
s(g351
S'was'
p778
tp779
F0.0014858841010401188
s(S'is'
p780
g200
tp781
F0.010401188707280832
s(S'[[con]]'
p782
S'traveled'
p783
tp784
F0.0029717682020802376
s(S'as'
p785
g359
tp786
F0.0014858841010401188
s(S'buried'
p787
S'there'
p788
tp789
F0.0029717682020802376
s(S'so'
p790
S'returned'
p791
tp792
F0.0014858841010401188
s(S'moved'
p793
g768
tp794
F0.0014858841010401188
s(S'died'
p795
S'near'
p796
tp797
F0.0014858841010401188
s(S'[[det]]'
p798
S'journey'
p799
tp800
F0.0014858841010401188
s.