(dp0
(S'schools'
p1
S'of'
p2
tp3
F0.037037037037037035
s(S'schools'
p4
S'[[adj]]'
p5
tp6
F0.07407407407407407
s(S'schools'
p7
S'in'
p8
tp9
F0.07407407407407407
s(S'schools'
p10
S'[[det]]'
p11
tp12
F0.037037037037037035
s(S'[[con]]'
p13
S'schools'
p14
tp15
F0.037037037037037035
s(S'schools'
p16
S'for'
p17
tp18
F0.037037037037037035
s(S'[[adj]]'
p19
S'schools'
p20
tp21
F0.2962962962962963
s(S'schools'
p22
S'from'
p23
tp24
F0.037037037037037035
s(S'schools'
p25
S'[[con]]'
p26
tp27
F0.07407407407407407
s(S'[[num]]'
p28
g7
tp29
F0.14814814814814814
s(S'of'
p30
S'schools'
p31
tp32
F0.037037037037037035
s(S'[[det]]'
p33
S'schools'
p34
tp35
F0.037037037037037035
s(g20
S'at'
p36
tp37
F0.037037037037037035
s(S'schools'
p38
S'as'
p39
tp40
F0.037037037037037035
s.