(dp0
(S'then'
p1
S'runs'
p2
tp3
F0.004347826086956522
s(S'north'
p4
S'of'
p5
tp6
F0.013043478260869565
s(S'passes'
p7
S'from'
p8
tp9
F0.004347826086956522
s(S'[[adj]]'
p10
S'route'
p11
tp12
F0.021739130434782608
s(S'[[det]]'
p13
S'cities'
p14
tp15
F0.008695652173913044
s(S'road'
p16
S'from'
p17
tp18
F0.008695652173913044
s(S'passes'
p19
S'[[adj]]'
p20
tp21
F0.004347826086956522
s(S'intersects'
p22
S'[[num]]'
p23
tp24
F0.004347826086956522
s(S'runs'
p25
S'where'
p26
tp27
F0.004347826086956522
s(S'[[num]]'
p28
S'runs'
p29
tp30
F0.013043478260869565
s(S'also'
p31
S'meets'
p32
tp33
F0.004347826086956522
s(S'ran'
p34
S'through'
p35
tp36
F0.004347826086956522
s(S'[[det]]'
p37
S'link'
p38
tp39
F0.004347826086956522
s(g14
S'of'
p40
tp41
F0.013043478260869565
s(S'through'
p42
S'downtown'
p43
tp44
F0.008695652173913044
s(S'link'
p45
S'between'
p46
tp47
F0.004347826086956522
s(S'crosses'
p48
S'to'
p49
tp50
F0.004347826086956522
s(S'north'
p51
S'from'
p52
tp53
F0.004347826086956522
s(S'runs'
p54
S'away'
p55
tp56
F0.004347826086956522
s(S'runs'
p57
S'[[con]]'
p58
tp59
F0.008695652173913044
s(S'where'
p60
S'intersects'
p61
tp62
F0.008695652173913044
s(S'[[det]]'
p63
S'city'
p64
tp65
F0.008695652173913044
s(g64
S'of'
p66
tp67
F0.008695652173913044
s(S'[[con]]'
p68
S'meets'
p69
tp70
F0.008695652173913044
s(S'is'
p71
S'signed'
p72
tp73
F0.004347826086956522
s(S'[[adj]]'
p74
S'road'
p75
tp76
F0.017391304347826087
s(S'signed'
p77
S'off'
p78
tp79
F0.004347826086956522
s(S'[[det]]'
p80
S'north'
p81
tp82
F0.008695652173913044
s(S'runs'
p83
S'as'
p84
tp85
F0.004347826086956522
s(S'crosses'
p86
S'[[con]]'
p87
tp88
F0.008695652173913044
s(S'[[det]]'
p89
S'acronym'
p90
tp91
F0.004347826086956522
s(S'north'
p92
S'along'
p93
tp94
F0.004347826086956522
s(S'intersects'
p95
S'[[con]]'
p96
tp97
F0.004347826086956522
s(S'route'
p98
S'of'
p99
tp100
F0.008695652173913044
s(S'until'
p101
S'signed'
p102
tp103
F0.004347826086956522
s(S'[[con]]'
p104
S'connects'
p105
tp106
F0.013043478260869565
s(S'passes'
p107
S'before'
p108
tp109
F0.004347826086956522
s(S'just'
p110
S'north'
p111
tp112
F0.004347826086956522
s(S'now'
p113
S'signed'
p114
tp115
F0.004347826086956522
s(S'north'
p116
S'to'
p117
tp118
F0.004347826086956522
s(S'[[num]]'
p119
S'crosses'
p120
tp121
F0.004347826086956522
s(S'thoroughfare'
p122
S'connecting'
p123
tp124
F0.004347826086956522
s(S'through'
p125
g13
tp126
F0.004347826086956522
s(S'crosses'
p127
S'[[det]]'
p128
tp129
F0.008695652173913044
s(S'derived'
p130
S'[[det]]'
p131
tp132
F0.004347826086956522
s(S'ran'
p133
S'from'
p134
tp135
F0.004347826086956522
s(S'runs'
p136
S'by'
p137
tp138
F0.004347826086956522
s(S'[[det]]'
p139
S'road'
p140
tp141
F0.013043478260869565
s(S'passes'
p142
S'[[con]]'
p143
tp144
F0.004347826086956522
s(S'runs'
p145
S'through'
p146
tp147
F0.008695652173913044
s(S'by'
p148
S'[[adj]]'
p149
tp150
F0.004347826086956522
s(S'from'
p151
S'downtown'
p152
tp153
F0.004347826086956522
s(S'also'
p154
S'runs'
p155
tp156
F0.004347826086956522
s(S'[[det]]'
p157
S'runs'
p158
tp159
F0.004347826086956522
s(S'[[adj]]'
p160
S'connections'
p161
tp162
F0.004347826086956522
s(S'where'
p163
S'meets'
p164
tp165
F0.008695652173913044
s(S'ran'
p166
S'down'
p167
tp168
F0.004347826086956522
s(S'connects'
p169
S'[[num]]'
p170
tp171
F0.004347826086956522
s(S'meets'
p172
S'at'
p173
tp174
F0.004347826086956522
s(S'[[det]]'
p175
S'[[num]]'
p176
tp177
F0.004347826086956522
s(S'road'
p178
S'[[con]]'
p179
tp180
F0.004347826086956522
s(S'shown'
p181
S'in'
p182
tp183
F0.004347826086956522
s(S'passes'
p184
S'over'
p185
tp186
F0.008695652173913044
s(S'link'
p187
S'up'
p188
tp189
F0.004347826086956522
s(g149
S'cities'
p190
tp191
F0.004347826086956522
s(S'connects'
p192
S'[[con]]'
p193
tp194
F0.004347826086956522
s(g90
g130
tp195
F0.004347826086956522
s(S'also'
p196
g181
tp197
F0.004347826086956522
s(S'interchanges'
p198
S'with'
p199
tp200
F0.004347826086956522
s(S'route'
p201
S'[[con]]'
p202
tp203
F0.004347826086956522
s(S'passes'
p204
g148
tp205
F0.013043478260869565
s(S'to'
p206
S'downtown'
p207
tp208
F0.004347826086956522
s(S'as'
p209
S'passes'
p210
tp211
F0.004347826086956522
s(S'[[con]]'
p212
S'north'
p213
tp214
F0.004347826086956522
s(g61
S'with'
p215
tp216
F0.008695652173913044
s(S'passes'
p217
S'under'
p218
tp219
F0.004347826086956522
s(S'signed'
p220
S'as'
p221
tp222
F0.013043478260869565
s(S'also'
p223
S'passes'
p224
tp225
F0.004347826086956522
s(S'where'
p226
S'crosses'
p227
tp228
F0.004347826086956522
s(S'crosses'
p229
S'[[num]]'
p230
tp231
F0.004347826086956522
s(S'passes'
p232
S'as'
p233
tp234
F0.004347826086956522
s(S'[[det]]'
p235
S'area'
p236
tp237
F0.004347826086956522
s(S'north'
p238
S'on'
p239
tp240
F0.004347826086956522
s(S'connects'
p241
S'in'
p242
tp243
F0.004347826086956522
s(S'ran'
p244
S'between'
p245
tp246
F0.004347826086956522
s(S'runs'
p247
S'over'
p248
tp249
F0.004347826086956522
s(g29
S'between'
p250
tp251
F0.013043478260869565
s(S'connects'
p252
S'[[det]]'
p253
tp254
F0.017391304347826087
s(S'continues'
p255
S'through'
p256
tp257
F0.004347826086956522
s(g131
S'[[adj]]'
p258
tp259
F0.004347826086956522
s(S'also'
p260
S'connects'
p261
tp262
F0.008695652173913044
s(S'also'
p263
g220
tp264
F0.004347826086956522
s(S'passes'
p265
S'through'
p266
tp267
F0.017391304347826087
s(S'runs'
p268
S'along'
p269
tp270
F0.004347826086956522
s(g11
S'to'
p271
tp272
F0.004347826086956522
s(S'meets'
p273
S'[[con]]'
p274
tp275
F0.004347826086956522
s(S'[[det]]'
p276
g98
tp277
F0.008695652173913044
s(S'route'
p278
S'for'
p279
tp280
F0.004347826086956522
s(S'downtown'
p281
S'[[con]]'
p282
tp283
F0.004347826086956522
s(S'connects'
p284
S'with'
p285
tp286
F0.013043478260869565
s(S'enters'
p287
g63
tp288
F0.013043478260869565
s(S'was'
p289
S'signed'
p290
tp291
F0.004347826086956522
s(g32
S'[[det]]'
p292
tp293
F0.021739130434782608
s(S'runs'
p294
S'to'
p295
tp296
F0.004347826086956522
s(S'that'
p297
S'crosses'
p298
tp299
F0.004347826086956522
s(S'then'
p300
S'crosses'
p301
tp302
F0.013043478260869565
s(S'which'
p303
S'connects'
p304
tp305
F0.013043478260869565
s(S'as'
p306
S'runs'
p307
tp308
F0.004347826086956522
s(S'that'
p309
S'connects'
p310
tp311
F0.004347826086956522
s(S'to'
p312
g187
tp313
F0.008695652173913044
s(S'runs'
p314
S'[[adj]]'
p315
tp316
F0.013043478260869565
s(g75
S'to'
p317
tp318
F0.013043478260869565
s(S'[[num]]'
p319
S'passes'
p320
tp321
F0.004347826086956522
s(S'[[mod]]'
p322
S'operate'
p323
tp324
F0.004347826086956522
s(S'meets'
p325
S'[[adj]]'
p326
tp327
F0.004347826086956522
s(S'runs'
p328
S'from'
p329
tp330
F0.008695652173913044
s(S'runs'
p331
S'across'
p332
tp333
F0.004347826086956522
s(S'which'
p334
S'runs'
p335
tp336
F0.004347826086956522
s(S'runs'
p337
S'with'
p338
tp339
F0.004347826086956522
s(S'passes'
p340
S'between'
p341
tp342
F0.004347826086956522
s(S'crosses'
p343
S'over'
p344
tp345
F0.004347826086956522
s(S'meets'
p346
S'[[num]]'
p347
tp348
F0.004347826086956522
s(S'intersects'
p349
S'[[det]]'
p350
tp351
F0.004347826086956522
s(S'[[con]]'
p352
g127
tp353
F0.004347826086956522
s(S'north'
p354
S'[[con]]'
p355
tp356
F0.008695652173913044
s(g176
S'cities'
p357
tp358
F0.004347826086956522
s(S'[[con]]'
p359
S'passes'
p360
tp361
F0.013043478260869565
s(S'is'
p362
S'shown'
p363
tp364
F0.004347826086956522
s(S'then'
p365
S'meets'
p366
tp367
F0.004347826086956522
s(S'begins'
p368
S'in'
p369
tp370
F0.004347826086956522
s(S'runs'
p371
S'[[num]]'
p372
tp373
F0.004347826086956522
s(S'runs'
p374
S'at'
p375
tp376
F0.004347826086956522
s(S'passes'
p377
S'to'
p378
tp379
F0.004347826086956522
s(g155
S'on'
p380
tp381
F0.008695652173913044
s(g258
g122
tp382
F0.004347826086956522
s(S'then'
p383
g287
tp384
F0.004347826086956522
s(S'[[con]]'
p385
S'runs'
p386
tp387
F0.013043478260869565
s(S'then'
p388
S'passes'
p389
tp390
F0.017391304347826087
s(g323
g160
tp391
F0.004347826086956522
s(S'[[adj]]'
p392
S'link'
p393
tp394
F0.013043478260869565
s(g363
S'as'
p395
tp396
F0.004347826086956522
s(S'connects'
p397
S'to'
p398
tp399
F0.013043478260869565
s(g123
g175
tp400
F0.004347826086956522
s(g360
S'[[det]]'
p401
tp402
F0.013043478260869565
s(S'ran'
p403
S'to'
p404
tp405
F0.004347826086956522
s(S'[[det]]'
p406
S'passes'
p407
tp408
F0.004347826086956522
s(g393
S'to'
p409
tp410
F0.013043478260869565
s(S'passes'
p411
S'in'
p412
tp413
F0.004347826086956522
s.