(dp0
(S'as'
p1
S'runs'
p2
tp3
F0.0051813471502590676
s(S'starts'
p4
S'[[con]]'
p5
tp6
F0.0051813471502590676
s(S'links'
p7
S'[[con]]'
p8
tp9
F0.0051813471502590676
s(S'[[adj]]'
p10
S'route'
p11
tp12
F0.03626943005181347
s(S'[[det]]'
p13
S'cities'
p14
tp15
F0.0051813471502590676
s(S'route'
p16
S'between'
p17
tp18
F0.0051813471502590676
s(S'road'
p19
S'from'
p20
tp21
F0.010362694300518135
s(S'runs'
p22
S'where'
p23
tp24
F0.0051813471502590676
s(S'[[num]]'
p25
S'runs'
p26
tp27
F0.015544041450777202
s(S'also'
p28
S'meets'
p29
tp30
F0.0051813471502590676
s(S'begins'
p31
S'as'
p32
tp33
F0.0051813471502590676
s(g14
S'of'
p34
tp35
F0.015544041450777202
s(S'links'
p36
S'with'
p37
tp38
F0.0051813471502590676
s(S'starts'
p39
S'with'
p40
tp41
F0.0051813471502590676
s(S'runs'
p42
S'away'
p43
tp44
F0.0051813471502590676
s(S'runs'
p45
S'[[con]]'
p46
tp47
F0.010362694300518135
s(S'[[num]]'
p48
S'kilometres'
p49
tp50
F0.0051813471502590676
s(S'[[det]]'
p51
S'city'
p52
tp53
F0.0051813471502590676
s(S'city'
p54
S'of'
p55
tp56
F0.010362694300518135
s(S'[[con]]'
p57
S'meets'
p58
tp59
F0.010362694300518135
s(S'[[adj]]'
p60
g19
tp61
F0.031088082901554404
s(S'[[prp]]'
p62
S'[[det]]'
p63
tp64
F0.010362694300518135
s(S'[[det]]'
p65
S'links'
p66
tp67
F0.0051813471502590676
s(S'combination'
p68
S'of'
p69
tp70
F0.0051813471502590676
s(S'which'
p71
S'runs'
p72
tp73
F0.010362694300518135
s(S'runs'
p74
S'as'
p75
tp76
F0.0051813471502590676
s(S'runs'
p77
S'south'
p78
tp79
F0.0051813471502590676
s(S'[[det]]'
p80
S'acronym'
p81
tp82
F0.0051813471502590676
s(S'[[num]]'
p83
S'links'
p84
tp85
F0.010362694300518135
s(S'[[det]]'
p86
S'begins'
p87
tp88
F0.0051813471502590676
s(S'[[con]]'
p89
S'connects'
p90
tp91
F0.015544041450777202
s(S'begins'
p92
S'at'
p93
tp94
F0.0051813471502590676
s(S'city'
p95
S'with'
p96
tp97
F0.0051813471502590676
s(S'runs'
p98
S'[[num]]'
p99
tp100
F0.0051813471502590676
s(S'thoroughfare'
p101
S'connecting'
p102
tp103
F0.0051813471502590676
s(S'[[adj]]'
p104
S'freeway'
p105
tp106
F0.0051813471502590676
s(g78
S'from'
p107
tp108
F0.0051813471502590676
s(S'derived'
p109
S'[[det]]'
p110
tp111
F0.0051813471502590676
s(g63
g68
tp112
F0.010362694300518135
s(S'[[adj]]'
p113
g95
tp114
F0.0051813471502590676
s(S'runs'
p115
S'by'
p116
tp117
F0.0051813471502590676
s(S'[[det]]'
p118
S'road'
p119
tp120
F0.015544041450777202
s(S'runs'
p121
S'through'
p122
tp123
F0.015544041450777202
s(S'also'
p124
S'runs'
p125
tp126
F0.0051813471502590676
s(S'[[det]]'
p127
S'runs'
p128
tp129
F0.0051813471502590676
s(S'[[adj]]'
p130
S'connections'
p131
tp132
F0.0051813471502590676
s(S'where'
p133
S'meets'
p134
tp135
F0.010362694300518135
s(S'of'
p136
S'links'
p137
tp138
F0.0051813471502590676
s(S'connects'
p139
S'[[num]]'
p140
tp141
F0.0051813471502590676
s(S'meets'
p142
S'at'
p143
tp144
F0.0051813471502590676
s(S'[[det]]'
p145
S'[[num]]'
p146
tp147
F0.0051813471502590676
s(S'road'
p148
S'[[con]]'
p149
tp150
F0.0051813471502590676
s(S'starts'
p151
S'from'
p152
tp153
F0.0051813471502590676
s(S'[[mod]]'
p154
S'operate'
p155
tp156
F0.0051813471502590676
s(S'connects'
p157
S'[[adj]]'
p158
tp159
F0.0051813471502590676
s(S'[[adj]]'
p160
S'cities'
p161
tp162
F0.010362694300518135
s(S'connects'
p163
S'[[con]]'
p164
tp165
F0.0051813471502590676
s(g81
g109
tp166
F0.0051813471502590676
s(S'links'
p167
S'[[det]]'
p168
tp169
F0.0051813471502590676
s(S'starts'
p170
S'to'
p171
tp172
F0.0051813471502590676
s(S'route'
p173
S'[[con]]'
p174
tp175
F0.0051813471502590676
s(S'then'
p176
S'runs'
p177
tp178
F0.015544041450777202
s(S'route'
p179
S'from'
p180
tp181
F0.010362694300518135
s(g84
S'on'
p182
tp183
F0.0051813471502590676
s(S'starts'
p184
S'off'
p185
tp186
F0.0051813471502590676
s(S'traffic'
p187
S'from'
p188
tp189
F0.0051813471502590676
s(S'begins'
p190
S'[[det]]'
p191
tp192
F0.0051813471502590676
s(S'connects'
p193
S'in'
p194
tp195
F0.0051813471502590676
s(S'road'
p196
S'between'
p197
tp198
F0.0051813471502590676
s(S'runs'
p199
S'over'
p200
tp201
F0.0051813471502590676
s(g26
S'between'
p202
tp203
F0.015544041450777202
s(S'connects'
p204
g13
tp205
F0.031088082901554404
s(S's'
p206
S'links'
p207
tp208
F0.0051813471502590676
s(g110
S'[[adj]]'
p209
tp210
F0.010362694300518135
s(S'also'
p211
S'connects'
p212
tp213
F0.010362694300518135
s(S'passes'
p214
S'through'
p215
tp216
F0.010362694300518135
s(S'runs'
p217
S'along'
p218
tp219
F0.0051813471502590676
s(g11
S'to'
p220
tp221
F0.0051813471502590676
s(S'meets'
p222
S'[[con]]'
p223
tp224
F0.0051813471502590676
s(S'[[det]]'
p225
S'route'
p226
tp227
F0.015544041450777202
s(S'route'
p228
S'for'
p229
tp230
F0.0051813471502590676
s(S'[[con]]'
p231
S'runs'
p232
tp233
F0.02072538860103627
s(S'continues'
p234
S'in'
p235
tp236
F0.0051813471502590676
s(S'connects'
p237
S'with'
p238
tp239
F0.010362694300518135
s(g29
S'[[det]]'
p240
tp241
F0.025906735751295335
s(S'route'
p242
S'of'
p243
tp244
F0.010362694300518135
s(S'runs'
p245
S'to'
p246
tp247
F0.010362694300518135
s(S'which'
p248
S'connects'
p249
tp250
F0.010362694300518135
s(g49
S'[[con]]'
p251
tp252
F0.0051813471502590676
s(S'that'
p253
S'connects'
p254
tp255
F0.0051813471502590676
s(S'runs'
p256
S'[[adj]]'
p257
tp258
F0.015544041450777202
s(S'road'
p259
S'to'
p260
tp261
F0.0051813471502590676
s(S'starts'
p262
S'[[prp]]'
p263
tp264
F0.0051813471502590676
s(S'meets'
p265
S'[[adj]]'
p266
tp267
F0.0051813471502590676
s(S'begins'
p268
S'with'
p269
tp270
F0.0051813471502590676
s(S'runs'
p271
S'from'
p272
tp273
F0.010362694300518135
s(S'begins'
p274
S'[[con]]'
p275
tp276
F0.0051813471502590676
s(S'cities'
p277
S'[[adj]]'
p278
tp279
F0.0051813471502590676
s(S'runs'
p280
S'across'
p281
tp282
F0.0051813471502590676
s(S'runs'
p283
S'with'
p284
tp285
F0.0051813471502590676
s(S'starts'
p286
S'at'
p287
tp288
F0.0051813471502590676
s(g119
S'which'
p289
tp290
F0.0051813471502590676
s(S'[[adj]]'
p291
S'links'
p292
tp293
F0.010362694300518135
s(S'meets'
p294
S'[[num]]'
p295
tp296
F0.0051813471502590676
s(S'begins'
p297
S'on'
p298
tp299
F0.0051813471502590676
s(g226
S'[[num]]'
p300
tp301
F0.0051813471502590676
s(S'road'
p302
S'through'
p303
tp304
F0.0051813471502590676
s(g146
S'cities'
p305
tp306
F0.0051813471502590676
s(S'gets'
p307
g62
tp308
F0.010362694300518135
s(S'to'
p309
g277
tp310
F0.0051813471502590676
s(S'then'
p311
S'meets'
p312
tp313
F0.0051813471502590676
s(S'begins'
p314
S'in'
p315
tp316
F0.0051813471502590676
s(S'road'
p317
S'at'
p318
tp319
F0.0051813471502590676
s(S'[[det]]'
p320
S'freeway'
p321
tp322
F0.0051813471502590676
s(S'runs'
p323
S'at'
p324
tp325
F0.0051813471502590676
s(g125
S'on'
p326
tp327
F0.010362694300518135
s(g209
g101
tp328
F0.0051813471502590676
s(S'then'
p329
S'passes'
p330
tp331
F0.010362694300518135
s(S'begins'
p332
S'where'
p333
tp334
F0.0051813471502590676
s(g155
g130
tp335
F0.0051813471502590676
s(S'continues'
p336
S'into'
p337
tp338
F0.0051813471502590676
s(S'connects'
p339
g309
tp340
F0.02072538860103627
s(g102
g145
tp341
F0.0051813471502590676
s(S'links'
p342
S'to'
p343
tp344
F0.010362694300518135
s(S'passes'
p345
S'in'
p346
tp347
F0.0051813471502590676
s.