(dp0
(S'starts'
p1
S'[[con]]'
p2
tp3
F0.005405405405405406
s(S'[[det]]'
p4
S'entrance'
p5
tp6
F0.005405405405405406
s(S'links'
p7
S'[[con]]'
p8
tp9
F0.005405405405405406
s(S'[[adj]]'
p10
S'route'
p11
tp12
F0.03783783783783784
s(S'[[det]]'
p13
S'cities'
p14
tp15
F0.010810810810810811
s(S'route'
p16
S'between'
p17
tp18
F0.005405405405405406
s(S'road'
p19
S'from'
p20
tp21
F0.010810810810810811
s(S'connecting'
p22
S'to'
p23
tp24
F0.005405405405405406
s(S'runs'
p25
S'where'
p26
tp27
F0.005405405405405406
s(S'[[num]]'
p28
S'runs'
p29
tp30
F0.016216216216216217
s(S'also'
p31
S'meets'
p32
tp33
F0.005405405405405406
s(g14
S'of'
p34
tp35
F0.021621621621621623
s(S'links'
p36
S'with'
p37
tp38
F0.005405405405405406
s(S'leaves'
p39
S'[[prp]]'
p40
tp41
F0.005405405405405406
s(S'starts'
p42
S'with'
p43
tp44
F0.005405405405405406
s(S'runs'
p45
S'away'
p46
tp47
F0.005405405405405406
s(S'runs'
p48
S'[[con]]'
p49
tp50
F0.010810810810810811
s(S'where'
p51
S'ends'
p52
tp53
F0.005405405405405406
s(S'which'
p54
S'runs'
p55
tp56
F0.005405405405405406
s(S'[[con]]'
p57
S'meets'
p58
tp59
F0.010810810810810811
s(S'[[adj]]'
p60
g19
tp61
F0.032432432432432434
s(S'[[prp]]'
p62
S'[[det]]'
p63
tp64
F0.010810810810810811
s(S'[[det]]'
p65
S'links'
p66
tp67
F0.005405405405405406
s(S'combination'
p68
S'of'
p69
tp70
F0.005405405405405406
s(S'extended'
p71
S'to'
p72
tp73
F0.016216216216216217
s(S'ends'
p74
S'with'
p75
tp76
F0.005405405405405406
s(S'runs'
p77
S'as'
p78
tp79
F0.005405405405405406
s(S'route'
p80
S'of'
p81
tp82
F0.010810810810810811
s(S'[[con]]'
p83
S'connects'
p84
tp85
F0.016216216216216217
s(S'crosses'
p86
S'into'
p87
tp88
F0.005405405405405406
s(S'runs'
p89
S'[[num]]'
p90
tp91
F0.005405405405405406
s(S'[[det]]'
p92
S'ends'
p93
tp94
F0.005405405405405406
s(g63
g68
tp95
F0.010810810810810811
s(S'runs'
p96
S'by'
p97
tp98
F0.005405405405405406
s(S'[[det]]'
p99
S'road'
p100
tp101
F0.016216216216216217
s(S'[[num]]'
p102
S'links'
p103
tp104
F0.010810810810810811
s(S'runs'
p105
S'through'
p106
tp107
F0.010810810810810811
s(S'also'
p108
S'runs'
p109
tp110
F0.005405405405405406
s(S'[[det]]'
p111
S'runs'
p112
tp113
F0.005405405405405406
s(S'[[adj]]'
p114
S'connections'
p115
tp116
F0.005405405405405406
s(S'where'
p117
S'meets'
p118
tp119
F0.010810810810810811
s(S'of'
p120
S'links'
p121
tp122
F0.005405405405405406
s(S'connects'
p123
S'[[num]]'
p124
tp125
F0.005405405405405406
s(S'meets'
p126
S'at'
p127
tp128
F0.005405405405405406
s(S'road'
p129
S'[[con]]'
p130
tp131
F0.005405405405405406
s(S'starts'
p132
S'from'
p133
tp134
F0.005405405405405406
s(S'starts'
p135
S'[[prp]]'
p136
tp137
F0.005405405405405406
s(S'connects'
p138
S'[[adj]]'
p139
tp140
F0.005405405405405406
s(S'[[adj]]'
p141
S'cities'
p142
tp143
F0.010810810810810811
s(S'connects'
p144
S'[[con]]'
p145
tp146
F0.005405405405405406
s(S'links'
p147
S'[[det]]'
p148
tp149
F0.010810810810810811
s(S'starts'
p150
S'to'
p151
tp152
F0.005405405405405406
s(S'route'
p153
S'[[con]]'
p154
tp155
F0.005405405405405406
s(S'ends'
p156
S'at'
p157
tp158
F0.010810810810810811
s(S'then'
p159
S'runs'
p160
tp161
F0.005405405405405406
s(S'be'
p162
S'extended'
p163
tp164
F0.016216216216216217
s(S'route'
p165
S'from'
p166
tp167
F0.010810810810810811
s(g103
S'on'
p168
tp169
F0.005405405405405406
s(S'[[con]]'
p170
S'ends'
p171
tp172
F0.010810810810810811
s(S'starts'
p173
S'off'
p174
tp175
F0.005405405405405406
s(S'leaves'
p176
S'[[det]]'
p177
tp178
F0.005405405405405406
s(S'ends'
p179
S'[[con]]'
p180
tp181
F0.005405405405405406
s(S'connects'
p182
S'in'
p183
tp184
F0.005405405405405406
s(S'road'
p185
S'between'
p186
tp187
F0.005405405405405406
s(S'was'
p188
g71
tp189
F0.010810810810810811
s(S'runs'
p190
S'over'
p191
tp192
F0.005405405405405406
s(g29
S'between'
p193
tp194
F0.016216216216216217
s(S'connects'
p195
S'[[det]]'
p196
tp197
F0.032432432432432434
s(S's'
p198
S'links'
p199
tp200
F0.005405405405405406
s(S'[[det]]'
p201
g141
tp202
F0.005405405405405406
s(S'also'
p203
S'connects'
p204
tp205
F0.010810810810810811
s(S'runs'
p206
S'along'
p207
tp208
F0.005405405405405406
s(g11
S'to'
p209
tp210
F0.005405405405405406
s(S'meets'
p211
S'[[con]]'
p212
tp213
F0.005405405405405406
s(S'[[det]]'
p214
g80
tp215
F0.016216216216216217
s(S'route'
p216
S'for'
p217
tp218
F0.005405405405405406
s(S'[[con]]'
p219
S'runs'
p220
tp221
F0.016216216216216217
s(S'connects'
p222
S'with'
p223
tp224
F0.010810810810810811
s(S'connecting'
p225
S'with'
p226
tp227
F0.005405405405405406
s(g32
S'[[det]]'
p228
tp229
F0.02702702702702703
s(S'runs'
p230
S'to'
p231
tp232
F0.005405405405405406
s(S'which'
p233
S'connects'
p234
tp235
F0.010810810810810811
s(S'as'
p236
S'runs'
p237
tp238
F0.005405405405405406
s(S'that'
p239
S'connects'
p240
tp241
F0.005405405405405406
s(S'runs'
p242
S'[[adj]]'
p243
tp244
F0.016216216216216217
s(S'road'
p245
S'to'
p246
tp247
F0.005405405405405406
s(S'[[mod]]'
p248
S'operate'
p249
tp250
F0.005405405405405406
s(S'meets'
p251
S'[[adj]]'
p252
tp253
F0.005405405405405406
s(S'runs'
p254
S'from'
p255
tp256
F0.010810810810810811
s(S'cities'
p257
S'[[adj]]'
p258
tp259
F0.005405405405405406
s(S'runs'
p260
S'across'
p261
tp262
F0.005405405405405406
s(S'runs'
p263
S'with'
p264
tp265
F0.005405405405405406
s(S'starts'
p266
S'at'
p267
tp268
F0.005405405405405406
s(g100
S'which'
p269
tp270
F0.005405405405405406
s(S'[[adj]]'
p271
S'links'
p272
tp273
F0.010810810810810811
s(S'[[det]]'
p274
S'connecting'
p275
tp276
F0.005405405405405406
s(S'then'
p277
S'leaves'
p278
tp279
F0.005405405405405406
s(S'meets'
p280
S'[[num]]'
p281
tp282
F0.005405405405405406
s(S'extended'
p283
S'from'
p284
tp285
F0.010810810810810811
s(S'route'
p286
S'[[num]]'
p287
tp288
F0.005405405405405406
s(S'road'
p289
S'through'
p290
tp291
F0.005405405405405406
s(S'gets'
p292
g62
tp293
F0.010810810810810811
s(S'to'
p294
g257
tp295
F0.005405405405405406
s(S'then'
p296
S'meets'
p297
tp298
F0.005405405405405406
s(S'begins'
p299
S'in'
p300
tp301
F0.005405405405405406
s(S'connecting'
p302
S'[[con]]'
p303
tp304
F0.005405405405405406
s(S'road'
p305
S'at'
p306
tp307
F0.005405405405405406
s(S'runs'
p308
S'at'
p309
tp310
F0.005405405405405406
s(g109
S'on'
p311
tp312
F0.010810810810810811
s(S'leaves'
p313
S'[[num]]'
p314
tp315
F0.005405405405405406
s(g249
g114
tp316
F0.005405405405405406
s(S'[[con]]'
p317
S'leaves'
p318
tp319
F0.005405405405405406
s(S'connects'
p320
S'to'
p321
tp322
F0.021621621621621623
s(S'passes'
p323
g4
tp324
F0.005405405405405406
s(S'links'
p325
S'to'
p326
tp327
F0.010810810810810811
s(g5
S'to'
p328
tp329
F0.005405405405405406
s.