(dp0
(S'have'
p1
S'attended'
p2
tp3
F0.011627906976744186
s(S'then'
p4
S'attended'
p5
tp6
F0.027131782945736434
s(S'while'
p7
S'attended'
p8
tp9
F0.003875968992248062
s(S'year'
p10
S'before'
p11
tp12
F0.003875968992248062
s(S'again'
p13
S'moved'
p14
tp15
F0.003875968992248062
s(S'moved'
p16
S'[[adj]]'
p17
tp18
F0.003875968992248062
s(S'moved'
p19
S'up'
p20
tp21
F0.007751937984496124
s(S'attended'
p22
S'in'
p23
tp24
F0.03875968992248062
s(S'moved'
p25
S'[[num]]'
p26
tp27
F0.003875968992248062
s(S'has'
p28
S'moved'
p29
tp30
F0.007751937984496124
s(S'attended'
p31
S'[[num]]'
p32
tp33
F0.003875968992248062
s(S'who'
p34
S'attended'
p35
tp36
F0.007751937984496124
s(S'[[con]]'
p37
S'attended'
p38
tp39
F0.046511627906976744
s(S'moved'
p40
S'before'
p41
tp42
F0.003875968992248062
s(S'moved'
p43
S'from'
p44
tp45
F0.011627906976744186
s(S'[[pro]]'
p46
S'attended'
p47
tp48
F0.003875968992248062
s(S'moved'
p49
S'after'
p50
tp51
F0.007751937984496124
s(S'to'
p52
S'[[con]]'
p53
tp54
F0.003875968992248062
s(S'moved'
p55
S'by'
p56
tp57
F0.003875968992248062
s(S'moved'
p58
S'where'
p59
tp60
F0.023255813953488372
s(S'moved'
p61
S'onto'
p62
tp63
F0.007751937984496124
s(S'attended'
p64
S'from'
p65
tp66
F0.007751937984496124
s(S'when'
p67
S'attended'
p68
tp69
F0.003875968992248062
s(S'while'
p70
S'moved'
p71
tp72
F0.003875968992248062
s(S'soon'
p73
S'moved'
p74
tp75
F0.003875968992248062
s(S'moved'
p76
S'[[det]]'
p77
tp78
F0.007751937984496124
s(S'moved'
p79
S'again'
p80
tp81
F0.003875968992248062
s(S'as'
p82
S'moved'
p83
tp84
F0.007751937984496124
s(S'then'
p85
S'moved'
p86
tp87
F0.08139534883720931
s(S'attended'
p88
S'[[adj]]'
p89
tp90
F0.003875968992248062
s(S'who'
p91
g43
tp92
F0.003875968992248062
s(S'had'
p93
S'moved'
p94
tp95
F0.003875968992248062
s(S'[[det]]'
p96
S'attended'
p97
tp98
F0.003875968992248062
s(S'before'
p99
S'moved'
p100
tp101
F0.003875968992248062
s(S'moved'
p102
S'back'
p103
tp104
F0.01937984496124031
s(S'back'
p105
S'where'
p106
tp107
F0.003875968992248062
s(S'attended'
p108
S'of'
p109
tp110
F0.011627906976744186
s(S'attended'
p111
S'[[det]]'
p112
tp113
F0.06201550387596899
s(S'had'
p114
g22
tp115
F0.015503875968992248
s(S'attended'
p116
S'later'
p117
tp118
F0.003875968992248062
s(S'moved'
p119
S'into'
p120
tp121
F0.007751937984496124
s(S'moved'
p122
S'[[con]]'
p123
tp124
F0.027131782945736434
s(S'attended'
p125
S'to'
p126
tp127
F0.003875968992248062
s(S'later'
p128
S'moved'
p129
tp130
F0.01937984496124031
s(S'attended'
p131
S'now'
p132
tp133
F0.015503875968992248
s(S'moved'
p134
S'at'
p135
tp136
F0.011627906976744186
s(S'going'
p137
S'to'
p138
tp139
F0.003875968992248062
s(S'moved'
p140
S'then'
p141
tp142
F0.003875968992248062
s(S'[[con]]'
p143
S'then'
p144
tp145
F0.007751937984496124
s(S'attended'
p146
S'[[con]]'
p147
tp148
F0.04263565891472868
s(S'[[det]]'
p149
S'moved'
p150
tp151
F0.007751937984496124
s(S'attended'
p152
S'on'
p153
tp154
F0.003875968992248062
s(S'moved'
p155
S'for'
p156
tp157
F0.011627906976744186
s(S'later'
p158
g108
tp159
F0.027131782945736434
s(S'in'
p160
S'attended'
p161
tp162
F0.003875968992248062
s(S'attended'
p163
S's'
p164
tp165
F0.003875968992248062
s(S'back'
p166
S'[[con]]'
p167
tp168
F0.003875968992248062
s(g14
S'to'
p169
tp170
F0.03875968992248062
s(S'attended'
p171
S'for'
p172
tp173
F0.003875968992248062
s(S'moved'
p174
S'over'
p175
tp176
F0.007751937984496124
s(S'[[con]]'
p177
S'moved'
p178
tp179
F0.003875968992248062
s(S'when'
p180
S'moved'
p181
tp182
F0.003875968992248062
s(S'attended'
p183
S'at'
p184
tp185
F0.023255813953488372
s(S'has'
p186
S'attended'
p187
tp188
F0.015503875968992248
s(S'moved'
p189
S'in'
p190
tp191
F0.003875968992248062
s(S'was'
p192
S'moved'
p193
tp194
F0.01937984496124031
s(g178
S'on'
p195
tp196
F0.031007751937984496
s(S'to'
p197
S'where'
p198
tp199
F0.003875968992248062
s(S'moved'
p200
S'as'
p201
tp202
F0.007751937984496124
s(g11
g137
tp203
F0.003875968992248062
s(S'attended'
p204
S'then'
p205
tp206
F0.003875968992248062
s(S'[[num]]'
p207
S'attended'
p208
tp209
F0.003875968992248062
s(S'where'
p210
S'attended'
p211
tp212
F0.03875968992248062
s(S'[[adj]]'
p213
S'moved'
p214
tp215
F0.003875968992248062
s(S'moved'
p216
S'[[prp]]'
p217
tp218
F0.003875968992248062
s(S'attended'
p219
S'before'
p220
tp221
F0.003875968992248062
s(S'also'
p222
S'attended'
p223
tp224
F0.031007751937984496
s(S'moved'
p225
S'there'
p226
tp227
F0.003875968992248062
s(S'moved'
p228
S'across'
p229
tp230
F0.003875968992248062
s(S'first'
p231
S'attended'
p232
tp233
F0.011627906976744186
s(S'[[adj]]'
p234
S'attended'
p235
tp236
F0.015503875968992248
s(S'moved'
p237
S'with'
p238
tp239
F0.011627906976744186
s.