(dp0
(S'river'
p1
S'[[adj]]'
p2
tp3
F0.1111111111111111
s(S'river'
p4
S'in'
p5
tp6
F0.1111111111111111
s(S'[[adj]]'
p7
g1
tp8
F0.2222222222222222
s(g2
S'portion'
p9
tp10
F0.2222222222222222
s(g5
S'[[adj]]'
p11
tp12
F0.1111111111111111
s(g9
S'of'
p13
tp14
F0.2222222222222222
s.