(dp0
(S'rises'
p1
S'in'
p2
tp3
F0.0012360939431396785
s(S'[[adj]]'
p4
S'place'
p5
tp6
F0.0012360939431396785
s(S'constituency'
p7
S'[[det]]'
p8
tp9
F0.0012360939431396785
s(S'[[det]]'
p10
S'center'
p11
tp12
F0.003708281829419036
s(S'[[adj]]'
p13
S'settlement'
p14
tp15
F0.0012360939431396785
s(S'is'
p16
S'typically'
p17
tp18
F0.0012360939431396785
s(S'suburb'
p19
S'[[det]]'
p20
tp21
F0.0012360939431396785
s(S'capital'
p22
S'[[con]]'
p23
tp24
F0.002472187886279357
s(S'historically'
p25
S'[[adj]]'
p26
tp27
F0.0012360939431396785
s(S'oldest'
p28
S'university'
p29
tp30
F0.002472187886279357
s(S'[[adj]]'
p31
S'hospital'
p32
tp33
F0.002472187886279357
s(S'became'
p34
S'[[adj]]'
p35
tp36
F0.0012360939431396785
s(S'[[adj]]'
p37
S'road'
p38
tp39
F0.002472187886279357
s(S'[[adj]]'
p40
S'constituency'
p41
tp42
F0.002472187886279357
s(S'center'
p43
S'[[con]]'
p44
tp45
F0.0012360939431396785
s(S'college'
p46
S'located'
p47
tp48
F0.004944375772558714
s(S'what'
p49
S'today'
p50
tp51
F0.002472187886279357
s(S'village'
p52
S'in'
p53
tp54
F0.0012360939431396785
s(S'college'
p55
S'[[det]]'
p56
tp57
F0.0012360939431396785
s(S'[[det]]'
p58
S'town'
p59
tp60
F0.007416563658838072
s(S'universities'
p61
S'of'
p62
tp63
F0.0012360939431396785
s(g11
S'in'
p64
tp65
F0.002472187886279357
s(S'district'
p66
S'of'
p67
tp68
F0.004944375772558714
s(S'has'
p69
S'established'
p70
tp71
F0.0012360939431396785
s(S'situated'
p72
S'in'
p73
tp74
F0.00865265760197775
s(S'[[num]]'
p75
S'based'
p76
tp77
F0.0012360939431396785
s(S'city'
p78
S'[[con]]'
p79
tp80
F0.0012360939431396785
s(S'been'
p81
S'established'
p82
tp83
F0.0012360939431396785
s(S'[[num]]'
p84
S'universities'
p85
tp86
F0.0012360939431396785
s(S'community'
p87
S'of'
p88
tp89
F0.0012360939431396785
s(S'flows'
p90
S'[[con]]'
p91
tp92
F0.0012360939431396785
s(S'established'
p93
S'on'
p94
tp95
F0.0012360939431396785
s(S'[[num]]'
p96
S'districts'
p97
tp98
F0.0012360939431396785
s(S'well'
p99
S'connected'
p100
tp101
F0.003708281829419036
s(S'[[det]]'
p102
g19
tp103
F0.0012360939431396785
s(S'connected'
p104
S'in'
p105
tp106
F0.0012360939431396785
s(S'assembly'
p107
S'constituency'
p108
tp109
F0.0012360939431396785
s(S'[[prp]]'
p110
S'home'
p111
tp112
F0.002472187886279357
s(S'portions'
p113
S'of'
p114
tp115
F0.0012360939431396785
s(S'[[con]]'
p116
S'located'
p117
tp118
F0.0012360939431396785
s(S'[[det]]'
p119
S'law'
p120
tp121
F0.0012360939431396785
s(S'biggest'
p122
S'town'
p123
tp124
F0.0012360939431396785
s(S'[[adj]]'
p125
S'arts'
p126
tp127
F0.0012360939431396785
s(S'state'
p128
S'[[adj]]'
p129
tp130
F0.0012360939431396785
s(g5
S'in'
p131
tp132
F0.0012360939431396785
s(S'town'
p133
S'[[adj]]'
p134
tp135
F0.002472187886279357
s(S'village'
p136
S'located'
p137
tp138
F0.007416563658838072
s(S'enters'
p139
S'into'
p140
tp141
F0.0012360939431396785
s(S'village'
p142
S'situated'
p143
tp144
F0.002472187886279357
s(S'range'
p145
S'located'
p146
tp147
F0.0012360939431396785
s(S'capital'
p148
S'[[det]]'
p149
tp150
F0.003708281829419036
s(S'is'
p151
S'situated'
p152
tp153
F0.0012360939431396785
s(S'[[adj]]'
p154
S'school'
p155
tp156
F0.021013597033374538
s(S'[[adj]]'
p157
S'state'
p158
tp159
F0.002472187886279357
s(S'located'
p160
S'at'
p161
tp162
F0.003708281829419036
s(S'headquarters'
p163
S'[[det]]'
p164
tp165
F0.0012360939431396785
s(S'[[det]]'
p166
S'situated'
p167
tp168
F0.0012360939431396785
s(S'[[adj]]'
p169
S'district'
p170
tp171
F0.004944375772558714
s(S'[[adj]]'
p172
S'towns'
p173
tp174
F0.004944375772558714
s(g79
S'[[det]]'
p175
tp176
F0.003708281829419036
s(g170
S'[[det]]'
p177
tp178
F0.0012360939431396785
s(S'range'
p179
S'[[det]]'
p180
tp181
F0.002472187886279357
s(S'flows'
p182
S'[[det]]'
p183
tp184
F0.0012360939431396785
s(S'college'
p185
S'in'
p186
tp187
F0.004944375772558714
s(S'based'
p188
S'in'
p189
tp190
F0.011124845488257108
s(S'[[det]]'
p191
S'cantonment'
p192
tp193
F0.0012360939431396785
s(S'[[det]]'
p194
S'community'
p195
tp196
F0.003708281829419036
s(g32
S'in'
p197
tp198
F0.002472187886279357
s(g173
S'lt'
p199
tp200
F0.002472187886279357
s(S'cities'
p201
S'in'
p202
tp203
F0.006180469715698393
s(S'gt'
p204
S'list'
p205
tp206
F0.0012360939431396785
s(S'including'
p207
g49
tp208
F0.002472187886279357
s(S'community'
p209
S'college'
p210
tp211
F0.002472187886279357
s(S'founded'
p212
S'from'
p213
tp214
F0.0012360939431396785
s(S'university'
p215
S'in'
p216
tp217
F0.009888751545117428
s(S'based'
p218
S'out'
p219
tp220
F0.0012360939431396785
s(S'been'
p221
S'located'
p222
tp223
F0.0012360939431396785
s(S'located'
p224
S'just'
p225
tp226
F0.0012360939431396785
s(S'institution'
p227
S'in'
p228
tp229
F0.0012360939431396785
s(S'[[det]]'
p230
S'city'
p231
tp232
F0.007416563658838072
s(S'largest'
p233
S'city'
p234
tp235
F0.007416563658838072
s(S'currently'
p236
S'located'
p237
tp238
F0.0012360939431396785
s(S'established'
p239
S'in'
p240
tp241
F0.007416563658838072
s(S'[[det]]'
p242
S'largest'
p243
tp244
F0.009888751545117428
s(S'boundary'
p245
S'with'
p246
tp247
F0.0012360939431396785
s(S'[[adj]]'
p248
S'territories'
p249
tp250
F0.0012360939431396785
s(S'state'
p251
S'capital'
p252
tp253
F0.0012360939431396785
s(S'[[adj]]'
p254
g28
tp255
F0.0012360939431396785
s(S's'
p256
S'based'
p257
tp258
F0.0012360939431396785
s(S'station'
p259
S'[[adj]]'
p260
tp261
F0.0012360939431396785
s(S'[[det]]'
p262
S'constituency'
p263
tp264
F0.002472187886279357
s(S'river'
p265
S'of'
p266
tp267
F0.002472187886279357
s(S'town'
p268
g72
tp269
F0.002472187886279357
s(S'[[adj]]'
p270
S'city'
p271
tp272
F0.002472187886279357
s(S'[[det]]'
p273
S'engineering'
p274
tp275
F0.0012360939431396785
s(S'experienced'
p276
S'[[adj]]'
p277
tp278
F0.0012360939431396785
s(S'within'
p279
S'[[det]]'
p280
tp281
F0.0012360939431396785
s(g97
S'in'
p282
tp283
F0.0012360939431396785
s(S'state'
p284
S'of'
p285
tp286
F0.032138442521631644
s(S'[[det]]'
p287
S'municipality'
p288
tp289
F0.002472187886279357
s(S'park'
p290
S'of'
p291
tp292
F0.002472187886279357
s(S'also'
p293
S'located'
p294
tp295
F0.002472187886279357
s(S'center'
p296
S'of'
p297
tp298
F0.002472187886279357
s(S'is'
p299
S'established'
p300
tp301
F0.002472187886279357
s(S'of'
p302
S'named'
p303
tp304
F0.0012360939431396785
s(S'[[adj]]'
p305
S'range'
p306
tp307
F0.0012360939431396785
s(S'of'
p308
S'schools'
p309
tp310
F0.0012360939431396785
s(S'be'
p311
g239
tp312
F0.0012360939431396785
s(S'[[det]]'
p313
g107
tp314
F0.0012360939431396785
s(S'is'
p315
S'based'
p316
tp317
F0.002472187886279357
s(S'[[det]]'
p318
S'founded'
p319
tp320
F0.0012360939431396785
s(S'of'
p321
S'[[det]]'
p322
tp323
F0.0012360939431396785
s(S'located'
p324
S'between'
p325
tp326
F0.0012360939431396785
s(S'under'
p327
S'police'
p328
tp329
F0.0012360939431396785
s(S'as'
p330
g113
tp331
F0.0012360939431396785
s(g35
S'producer'
p332
tp333
F0.0012360939431396785
s(S'quickly'
p334
g34
tp335
F0.0012360939431396785
s(S'town'
p336
S'[[det]]'
p337
tp338
F0.0012360939431396785
s(S'[[adj]]'
p339
g209
tp340
F0.0012360939431396785
s(S'located'
p341
S'[[adj]]'
p342
tp343
F0.002472187886279357
s(S'[[num]]'
p344
S'gt'
p345
tp346
F0.0012360939431396785
s(S'colleges'
p347
S'in'
p348
tp349
F0.0012360939431396785
s(S'development'
p350
S'block'
p351
tp352
F0.0012360939431396785
s(g260
g204
tp353
F0.002472187886279357
s(S'enters'
p354
S'from'
p355
tp356
F0.0012360939431396785
s(S'city'
p357
S'on'
p358
tp359
F0.0012360939431396785
s(S'games'
p360
S'in'
p361
tp362
F0.002472187886279357
s(S'[[adj]]'
p363
S'town'
p364
tp365
F0.00865265760197775
s(S'road'
p366
S'in'
p367
tp368
F0.002472187886279357
s(S'largest'
p369
S'[[con]]'
p370
tp371
F0.0012360939431396785
s(S'hub'
p372
S'of'
p373
tp374
F0.0012360939431396785
s(S'constituency'
p375
S'in'
p376
tp377
F0.002472187886279357
s(S'miles'
p378
g207
tp379
F0.002472187886279357
s(S'[[det]]'
p380
S'capital'
p381
tp382
F0.00865265760197775
s(S'of'
p383
S'located'
p384
tp385
F0.0012360939431396785
s(S'[[det]]'
p386
S'park'
p387
tp388
F0.0012360939431396785
s(S'tehsil'
p389
S'[[det]]'
p390
tp391
F0.0012360939431396785
s(S'[[adj]]'
p392
S'schools'
p393
tp394
F0.0012360939431396785
s(S'was'
p395
S'based'
p396
tp397
F0.0012360939431396785
s(S'[[num]]'
p398
S'places'
p399
tp400
F0.0012360939431396785
s(S'river'
p401
S'in'
p402
tp403
F0.002472187886279357
s(S'[[adj]]'
p404
S'states'
p405
tp406
F0.0012360939431396785
s(g345
S'in'
p407
tp408
F0.002472187886279357
s(S'state'
p409
S'school'
p410
tp411
F0.0012360939431396785
s(S'[[det]]'
p412
S'charter'
p413
tp414
F0.0012360939431396785
s(S'[[det]]'
p415
S'mountain'
p416
tp417
F0.004944375772558714
s(S'originates'
p418
S'in'
p419
tp420
F0.0012360939431396785
s(S'[[det]]'
p421
S'oldest'
p422
tp423
F0.002472187886279357
s(S'[[adj]]'
p424
S'boundary'
p425
tp426
F0.003708281829419036
s(S'[[adj]]'
p427
S'law'
p428
tp429
F0.0012360939431396785
s(S'located'
p430
S'of'
p431
tp432
F0.002472187886279357
s(g328
g259
tp433
F0.0012360939431396785
s(S'river'
p434
S'[[det]]'
p435
tp436
F0.0012360939431396785
s(S'is'
p437
S'founded'
p438
tp439
F0.0012360939431396785
s(S'[[adj]]'
p440
g378
tp441
F0.002472187886279357
s(g192
S'town'
p442
tp443
F0.0012360939431396785
s(S'[[adj]]'
p444
g160
tp445
F0.003708281829419036
s(g17
g404
tp446
F0.0012360939431396785
s(S'[[det]]'
p447
S'range'
p448
tp449
F0.0012360939431396785
s(S'[[det]]'
p450
S'hospital'
p451
tp452
F0.002472187886279357
s(g41
S'of'
p453
tp454
F0.0012360939431396785
s(S'[[num]]'
p455
S'established'
p456
tp457
F0.0012360939431396785
s(S'[[adj]]'
p458
S'mountain'
p459
tp460
F0.003708281829419036
s(S'now'
p461
S'located'
p462
tp463
F0.002472187886279357
s(S'[[det]]'
p464
g434
tp465
F0.006180469715698393
s(S'[[adj]]'
p466
S'lands'
p467
tp468
F0.0012360939431396785
s(S'cities'
p469
S'of'
p470
tp471
F0.002472187886279357
s(S'separates'
p472
S'from'
p473
tp474
F0.0012360939431396785
s(S'founded'
p475
S'in'
p476
tp477
F0.006180469715698393
s(S'[[adj]]'
p478
S'south'
p479
tp480
F0.0012360939431396785
s(S'rest'
p481
S'to'
p482
tp483
F0.0012360939431396785
s(S'flows'
p484
S'out'
p485
tp486
F0.0012360939431396785
s(g467
S'of'
p487
tp488
F0.0012360939431396785
s(S'established'
p489
S'[[det]]'
p490
tp491
F0.0012360939431396785
s(S'[[det]]'
p492
S'district'
p493
tp494
F0.004944375772558714
s(S'of'
p495
S'cities'
p496
tp497
F0.0012360939431396785
s(S'[[adj]]'
p498
S'known'
p499
tp500
F0.0012360939431396785
s(g351
S'in'
p501
tp502
F0.0012360939431396785
s(S'in'
p503
S'school'
p504
tp505
F0.0012360939431396785
s(S'school'
p506
S'in'
p507
tp508
F0.011124845488257108
s(S'be'
p509
S'based'
p510
tp511
F0.0012360939431396785
s(S'[[adj]]'
p512
g22
tp513
F0.002472187886279357
s(S'[[det]]'
p514
g366
tp515
F0.0012360939431396785
s(S'in'
p516
S'named'
p517
tp518
F0.0012360939431396785
s(S'town'
p519
S'of'
p520
tp521
F0.0012360939431396785
s(S'park'
p522
S'in'
p523
tp524
F0.004944375772558714
s(S'states'
p525
g330
tp526
F0.0012360939431396785
s(S'state'
p527
S'in'
p528
tp529
F0.0012360939431396785
s(S'headquarters'
p530
S'in'
p531
tp532
F0.002472187886279357
s(S'located'
p533
S'on'
p534
tp535
F0.003708281829419036
s(S'situated'
p536
S'just'
p537
tp538
F0.0012360939431396785
s(S'[[adj]]'
p539
g201
tp540
F0.006180469715698393
s(g231
S'in'
p541
tp542
F0.007416563658838072
s(S'of'
p543
S'school'
p544
tp545
F0.0012360939431396785
s(g126
g185
tp546
F0.0012360939431396785
s(S'[[adj]]'
p547
S'places'
p548
tp549
F0.0012360939431396785
s(S'[[det]]'
p550
g481
tp551
F0.0012360939431396785
s(S'formerly'
p552
S'located'
p553
tp554
F0.0012360939431396785
s(S'founded'
p555
S'on'
p556
tp557
F0.0012360939431396785
s(g381
S'of'
p558
tp559
F0.004944375772558714
s(S'[[det]]'
p560
g440
tp561
F0.004944375772558714
s(g274
S'college'
p562
tp563
F0.0012360939431396785
s(S'[[det]]'
p564
g284
tp565
F0.038318912237330034
s(S'[[num]]'
p566
S'located'
p567
tp568
F0.0012360939431396785
s(S'school'
p569
S'near'
p570
tp571
F0.0012360939431396785
s(S'[[det]]'
p572
S'village'
p573
tp574
F0.00865265760197775
s(S'[[adj]]'
p575
S'hub'
p576
tp577
F0.002472187886279357
s(S'schools'
p578
S'[[num]]'
p579
tp580
F0.0012360939431396785
s(S'school'
p581
S'[[det]]'
p582
tp583
F0.002472187886279357
s(g425
S'between'
p584
tp585
F0.006180469715698393
s(S'south'
p586
S'to'
p587
tp588
F0.0012360939431396785
s(S'schools'
p589
S'in'
p590
tp591
F0.003708281829419036
s(g288
S'in'
p592
tp593
F0.004944375772558714
s(S'established'
p594
S'[[num]]'
p595
tp596
F0.0012360939431396785
s(S'connected'
p597
S'to'
p598
tp599
F0.004944375772558714
s(S'town'
p600
S'[[con]]'
p601
tp602
F0.006180469715698393
s(S'oldest'
p603
S'in'
p604
tp605
F0.0012360939431396785
s(S'located'
p606
S'[[num]]'
p607
tp608
F0.0012360939431396785
s(S'[[det]]'
p609
g389
tp610
F0.0012360939431396785
s(S'college'
p611
g321
tp612
F0.0012360939431396785
s(S'[[adj]]'
p613
g227
tp614
F0.0012360939431396785
s(S'university'
p615
S'[[det]]'
p616
tp617
F0.0012360939431396785
s(S'had'
p618
S'added'
p619
tp620
F0.002472187886279357
s(g300
S'at'
p621
tp622
F0.002472187886279357
s(S'states'
p623
S'of'
p624
tp625
F0.002472187886279357
s(g598
g539
tp626
F0.004944375772558714
s(S'[[det]]'
p627
S'panchayat'
p628
tp629
F0.002472187886279357
s(S'enters'
p630
S'[[adj]]'
p631
tp632
F0.0012360939431396785
s(S'[[adj]]'
p633
S'largest'
p634
tp635
F0.004944375772558714
s(S'constitutes'
p636
S'[[det]]'
p637
tp638
F0.0012360939431396785
s(S'[[adj]]'
p639
S'election'
p640
tp641
F0.0012360939431396785
s(g53
S'located'
p642
tp643
F0.002472187886279357
s(g332
S'with'
p644
tp645
F0.0012360939431396785
s(S'research'
p646
S'university'
p647
tp648
F0.003708281829419036
s(S'town'
p649
g327
tp650
F0.0012360939431396785
s(S'located'
p651
S'near'
p652
tp653
F0.003708281829419036
s(S'[[adj]]'
p654
S'center'
p655
tp656
F0.003708281829419036
s(S'[[det]]'
p657
S'college'
p658
tp659
F0.003708281829419036
s(S'[[det]]'
p660
S'township'
p661
tp662
F0.0012360939431396785
s(S'range'
p663
S'in'
p664
tp665
F0.004944375772558714
s(S'hospital'
p666
S'located'
p667
tp668
F0.002472187886279357
s(g117
S'in'
p669
tp670
F0.04326328800988875
s(S'capital'
p671
S'in'
p672
tp673
F0.0012360939431396785
s(S'states'
p674
S'[[con]]'
p675
tp676
F0.0012360939431396785
s(S'established'
p677
S'[[con]]'
p678
tp679
F0.0012360939431396785
s(S'opened'
p680
S'in'
p681
tp682
F0.0012360939431396785
s(S'is'
p683
g104
tp684
F0.0012360939431396785
s(S'[[num]]'
p685
g674
tp686
F0.0012360939431396785
s(g14
S'in'
p687
tp688
F0.0012360939431396785
s(S'university'
p689
S'located'
p690
tp691
F0.004944375772558714
s(S'laws'
p692
S'of'
p693
tp694
F0.0012360939431396785
s(S'towns'
p695
S'in'
p696
tp697
F0.002472187886279357
s(g628
S'in'
p698
tp699
F0.0012360939431396785
s(g640
S'in'
p700
tp701
F0.0012360939431396785
s(g234
S'of'
p702
tp703
F0.006180469715698393
s(S'contained'
p704
g685
tp705
F0.0012360939431396785
s(S'located'
p706
S'[[det]]'
p707
tp708
F0.003708281829419036
s(g499
S'[[det]]'
p709
tp710
F0.0012360939431396785
s(g428
S'school'
p711
tp712
F0.002472187886279357
s(S'flows'
p713
S'in'
p714
tp715
F0.0012360939431396785
s(S'[[adj]]'
p716
g136
tp717
F0.002472187886279357
s(S'founded'
p718
S'[[num]]'
p719
tp720
F0.0012360939431396785
s(S'university'
p721
g188
tp722
F0.002472187886279357
s(g541
g564
tp723
F0.027194066749072928
s(S'limits'
p724
S'of'
p725
tp726
F0.0012360939431396785
s(S'through'
p727
S'[[det]]'
p728
tp729
F0.0012360939431396785
s(S'[[adj]]'
p730
S'university'
p731
tp732
F0.00865265760197775
s(S'located'
p733
S'[[con]]'
p734
tp735
F0.0012360939431396785
s(S'[[num]]'
p736
g589
tp737
F0.0012360939431396785
s(S'was'
p738
S'located'
p739
tp740
F0.003708281829419036
s(g205
g172
tp741
F0.0012360939431396785
s(S'was'
p742
S'situated'
p743
tp744
F0.0012360939431396785
s(S'[[det]]'
p745
S'school'
p746
tp747
F0.003708281829419036
s(S'lies'
p748
S'in'
p749
tp750
F0.0012360939431396785
s(S'[[det]]'
p751
g25
tp752
F0.0012360939431396785
s(S'university'
p753
S'founded'
p754
tp755
F0.0012360939431396785
s(S'[[det]]'
p756
S'census'
p757
tp758
F0.004944375772558714
s(S'forms'
p759
S'[[det]]'
p760
tp761
F0.004944375772558714
s(S'boundary'
p762
S'of'
p763
tp764
F0.0012360939431396785
s(g199
g344
tp765
F0.002472187886279357
s(S'of'
p766
S'universities'
p767
tp768
F0.0012360939431396785
s(S'[[adj]]'
p769
g122
tp770
F0.0012360939431396785
s(S'[[adj]]'
p771
S'headquarters'
p772
tp773
F0.0012360939431396785
s(g416
S'range'
p774
tp775
F0.00865265760197775
s(S'district'
p776
S'in'
p777
tp778
F0.003708281829419036
s(g675
g248
tp779
F0.004944375772558714
s(S'municipality'
p780
S'of'
p781
tp782
F0.0012360939431396785
s(g85
S'in'
p783
tp784
F0.002472187886279357
s(S'[[adj]]'
p785
g265
tp786
F0.003708281829419036
s(S'[[adj]]'
p787
g61
tp788
F0.002472187886279357
s(S'city'
p789
g724
tp790
F0.0012360939431396785
s(g111
g360
tp791
F0.002472187886279357
s(S'[[adj]]'
p792
S'established'
p793
tp794
F0.0012360939431396785
s(S'[[adj]]'
p795
g611
tp796
F0.003708281829419036
s(S'[[adj]]'
p797
S'park'
p798
tp799
F0.003708281829419036
s(S'[[adj]]'
p800
S'founded'
p801
tp802
F0.0012360939431396785
s(S'places'
p803
S'in'
p804
tp805
F0.003708281829419036
s(S'[[det]]'
p806
g530
tp807
F0.002472187886279357
s(S'[[con]]'
p808
g586
tp809
F0.0012360939431396785
s(g661
S'in'
p810
tp811
F0.0012360939431396785
s(g256
g651
tp812
F0.002472187886279357
s(g413
S'school'
p813
tp814
F0.0012360939431396785
s(S'[[det]]'
p815
S'number'
p816
tp817
F0.0012360939431396785
s(S'center'
p818
S'[[det]]'
p819
tp820
F0.0012360939431396785
s(S'was'
p821
g680
tp822
F0.0012360939431396785
s(S'river'
p823
S'[[con]]'
p824
tp825
F0.0012360939431396785
s(S'[[det]]'
p826
g525
tp827
F0.003708281829419036
s(S'also'
p828
g597
tp829
F0.0012360939431396785
s(g50
g826
tp830
F0.002472187886279357
s(g634
S'[[adj]]'
p831
tp832
F0.004944375772558714
s(S'[[adj]]'
p833
S'based'
p834
tp835
F0.0012360939431396785
s(S'river'
p836
S'on'
p837
tp838
F0.0012360939431396785
s(S'state'
p839
S'park'
p840
tp841
F0.004944375772558714
s(S'largest'
p842
g215
tp843
F0.002472187886279357
s(g655
S'for'
p844
tp845
F0.0012360939431396785
s(S'campus'
p846
S'in'
p847
tp848
F0.0012360939431396785
s(S'flows'
p849
S'through'
p850
tp851
F0.002472187886279357
s(S'are'
p852
S'located'
p853
tp854
F0.002472187886279357
s(g709
S'frontier'
p855
tp856
F0.0012360939431396785
s(S'[[det]]'
p857
S'located'
p858
tp859
F0.003708281829419036
s(S'is'
p860
g706
tp861
F0.004944375772558714
s(S'[[num]]'
p862
S'[[adj]]'
p863
tp864
F0.0012360939431396785
s(g479
S'into'
p865
tp866
F0.0012360939431396785
s(g619
g560
tp867
F0.002472187886279357
s(S'[[num]]'
p868
S'cities'
p869
tp870
F0.0012360939431396785
s(S'town'
p871
S'in'
p872
tp873
F0.004944375772558714
s(S'[[num]]'
p874
S'campuses'
p875
tp876
F0.0012360939431396785
s(S'declared'
p877
S'by'
p878
tp879
F0.0012360939431396785
s(S'located'
p880
g279
tp881
F0.0012360939431396785
s(g757
g649
tp882
F0.004944375772558714
s(S'[[det]]'
p883
g689
tp884
F0.002472187886279357
s(g155
S'on'
p885
tp886
F0.0012360939431396785
s(S'was'
p887
g489
tp888
F0.007416563658838072
s(S'community'
p889
g350
tp890
F0.0012360939431396785
s(g67
g527
tp891
F0.0012360939431396785
s(S'school'
p892
g533
tp893
F0.013597033374536464
s(S'[[adj]]'
p894
S'board'
p895
tp896
F0.0012360939431396785
s(S'[[adj]]'
p897
g646
tp898
F0.002472187886279357
s(S'was'
p899
g718
tp900
F0.004944375772558714
s(g895
S'in'
p901
tp902
F0.0012360939431396785
s(S'[[adj]]'
p903
S'municipality'
p904
tp905
F0.003708281829419036
s(S'town'
p906
S'for'
p907
tp908
F0.0012360939431396785
s(g816
g550
tp909
F0.0012360939431396785
s(S'played'
p910
g110
tp911
F0.002472187886279357
s(g760
g245
tp912
F0.006180469715698393
s.