(dp0
(S'[[con]]'
p1
S'return'
p2
tp3
F0.0008305647840531562
s(S'while'
p4
S'moved'
p5
tp6
F0.0008305647840531562
s(S'when'
p7
S'served'
p8
tp9
F0.0008305647840531562
s(S'[[det]]'
p10
S'head'
p11
tp12
F0.0016611295681063123
s(S'joined'
p13
S'was'
p14
tp15
F0.0008305647840531562
s(S'where'
p16
S'entered'
p17
tp18
F0.0008305647840531562
s(S'who'
p19
S'served'
p20
tp21
F0.0033222591362126247
s(S'leave'
p22
S'[[prp]]'
p23
tp24
F0.0008305647840531562
s(S'represented'
p25
S'to'
p26
tp27
F0.0016611295681063123
s(S'officer'
p28
S'in'
p29
tp30
F0.0024916943521594683
s(S's'
p31
S'return'
p32
tp33
F0.0024916943521594683
s(S'named'
p34
S'on'
p35
tp36
F0.0008305647840531562
s(S'moved'
p37
S'over'
p38
tp39
F0.0016611295681063123
s(S'graduated'
p40
S'[[adj]]'
p41
tp42
F0.0008305647840531562
s(S'later'
p43
S'joined'
p44
tp45
F0.0033222591362126247
s(S'again'
p46
S'named'
p47
tp48
F0.004152823920265781
s(S'was'
p49
S'deported'
p50
tp51
F0.0024916943521594683
s(S'served'
p52
S'first'
p53
tp54
F0.0008305647840531562
s(S'later'
p55
S'represented'
p56
tp57
F0.0016611295681063123
s(S'first'
p58
S'joined'
p59
tp60
F0.0024916943521594683
s(S'moved'
p61
S'[[det]]'
p62
tp63
F0.0016611295681063123
s(S'be'
p64
S'named'
p65
tp66
F0.0016611295681063123
s(S'joined'
p67
S'when'
p68
tp69
F0.0008305647840531562
s(S'head'
p70
S'for'
p71
tp72
F0.0008305647840531562
s(S'joined'
p73
S'[[prp]]'
p74
tp75
F0.0008305647840531562
s(S'later'
p76
S'established'
p77
tp78
F0.0008305647840531562
s(S'joined'
p79
g31
tp80
F0.0008305647840531562
s(S'known'
p81
S'in'
p82
tp83
F0.009966777408637873
s(S'came'
p84
S'as'
p85
tp86
F0.0008305647840531562
s(S'has'
p87
S'established'
p88
tp89
F0.0008305647840531562
s(S'then'
p90
S'served'
p91
tp92
F0.006644518272425249
s(S'were'
p93
S'named'
p94
tp95
F0.0008305647840531562
s(S'represented'
p96
S'against'
p97
tp98
F0.0016611295681063123
s(S'moved'
p99
S'before'
p100
tp101
F0.0008305647840531562
s(S'served'
p102
S'again'
p103
tp104
F0.0008305647840531562
s(S'entered'
p105
S'into'
p106
tp107
F0.0008305647840531562
s(S'who'
p108
S'represented'
p109
tp110
F0.0008305647840531562
s(S'moved'
p111
S'onto'
p112
tp113
F0.0016611295681063123
s(S'head'
p114
S'in'
p115
tp116
F0.0024916943521594683
s(S'is'
p117
S'returned'
p118
tp119
F0.0008305647840531562
s(S'return'
p120
S'[[con]]'
p121
tp122
F0.0016611295681063123
s(S'member'
p123
S'at'
p124
tp125
F0.0024916943521594683
s(S'is'
p126
S'appointed'
p127
tp128
F0.0024916943521594683
s(S'established'
p129
S'on'
p130
tp131
F0.0008305647840531562
s(S'was'
p132
S'known'
p133
tp134
F0.0024916943521594683
s(S'came'
p135
S'at'
p136
tp137
F0.0016611295681063123
s(S'later'
p138
S'returned'
p139
tp140
F0.0016611295681063123
s(S'[[num]]'
p141
S'left'
p142
tp143
F0.0008305647840531562
s(S'joined'
p144
S'from'
p145
tp146
F0.0033222591362126247
s(S'was'
p147
S'entered'
p148
tp149
F0.0008305647840531562
s(S'appointed'
p150
S'[[num]]'
p151
tp152
F0.0008305647840531562
s(S'[[con]]'
p153
S'graduated'
p154
tp155
F0.0016611295681063123
s(S'left'
p156
S'out'
p157
tp158
F0.0008305647840531562
s(S'served'
p159
S'[[det]]'
p160
tp161
F0.0049833887043189366
s(S'then'
p162
S'named'
p163
tp164
F0.0008305647840531562
s(S'joined'
p165
S'on'
p166
tp167
F0.0024916943521594683
s(S'been'
p168
S'named'
p169
tp170
F0.006644518272425249
s(S'graduated'
p171
S'as'
p172
tp173
F0.0008305647840531562
s(S'who'
p174
S'came'
p175
tp176
F0.0016611295681063123
s(S'graduated'
p177
S'[[det]]'
p178
tp179
F0.0008305647840531562
s(S'represented'
p180
S'for'
p181
tp182
F0.0024916943521594683
s(S'had'
p183
S'left'
p184
tp185
F0.004152823920265781
s(S'became'
p186
S'known'
p187
tp188
F0.0016611295681063123
s(S'as'
p189
g28
tp190
F0.0016611295681063123
s(S'[[det]]'
p191
S'served'
p192
tp193
F0.0016611295681063123
s(S'best'
p194
S'known'
p195
tp196
F0.0008305647840531562
s(S'was'
p197
S'returned'
p198
tp199
F0.0016611295681063123
s(S'while'
p200
S'joined'
p201
tp202
F0.0008305647840531562
s(S'served'
p203
S'later'
p204
tp205
F0.0008305647840531562
s(S'entered'
p206
S'[[adj]]'
p207
tp208
F0.0008305647840531562
s(S'just'
p209
S'left'
p210
tp211
F0.0016611295681063123
s(S'not'
p212
S'return'
p213
tp214
F0.0008305647840531562
s(S'joined'
p215
S'for'
p216
tp217
F0.0008305647840531562
s(S'as'
p218
S'member'
p219
tp220
F0.0008305647840531562
s(S'also'
p221
S'graduated'
p222
tp223
F0.0016611295681063123
s(S'[[adj]]'
p224
S'return'
p225
tp226
F0.0008305647840531562
s(S'[[num]]'
p227
S'graduated'
p228
tp229
F0.0008305647840531562
s(S'came'
p230
S'from'
p231
tp232
F0.0016611295681063123
s(S'who'
p233
S'moved'
p234
tp235
F0.0008305647840531562
s(S'member'
p236
S'who'
p237
tp238
F0.0008305647840531562
s(S'as'
p239
S'moved'
p240
tp241
F0.0016611295681063123
s(S'when'
p242
S'moved'
p243
tp244
F0.0008305647840531562
s(S'return'
p245
S'at'
p246
tp247
F0.0008305647840531562
s(S'served'
p248
S'at'
p249
tp250
F0.007475083056478406
s(S'returned'
p251
S'where'
p252
tp253
F0.0008305647840531562
s(S'served'
p254
S'of'
p255
tp256
F0.0016611295681063123
s(S'later'
p257
S'transferred'
p258
tp259
F0.0008305647840531562
s(S'served'
p260
S'until'
p261
tp262
F0.0016611295681063123
s(S'moved'
p263
S'then'
p264
tp265
F0.0008305647840531562
s(S'returned'
p266
S'[[num]]'
p267
tp268
F0.0008305647840531562
s(g2
S'to'
p269
tp270
F0.008305647840531562
s(S'joined'
p271
S'that'
p272
tp273
F0.0008305647840531562
s(S'[[det]]'
p274
S'moved'
p275
tp276
F0.0016611295681063123
s(S'transferred'
p277
S'back'
p278
tp279
F0.0008305647840531562
s(S'represented'
p280
S'[[det]]'
p281
tp282
F0.006644518272425249
s(S'served'
p283
S'for'
p284
tp285
F0.007475083056478406
s(S'member'
p286
S'on'
p287
tp288
F0.0016611295681063123
s(S'was'
p289
S'appointed'
p290
tp291
F0.0024916943521594683
s(S'moved'
p292
S'there'
p293
tp294
F0.0008305647840531562
s(S'when'
p295
S'entered'
p296
tp297
F0.0016611295681063123
s(S'returned'
p298
S'was'
p299
tp300
F0.0008305647840531562
s(S'[[det]]'
p301
S'represented'
p302
tp303
F0.0008305647840531562
s(S'transferred'
p304
S'at'
p305
tp306
F0.0008305647840531562
s(S'is'
p307
S'named'
p308
tp309
F0.0024916943521594683
s(S'came'
p310
S'against'
p311
tp312
F0.0008305647840531562
s(S'honored'
p313
S'as'
p314
tp315
F0.0024916943521594683
s(S'came'
p316
S'in'
p317
tp318
F0.0008305647840531562
s(S'also'
p319
S'established'
p320
tp321
F0.004152823920265781
s(S'with'
p322
S'joined'
p323
tp324
F0.0016611295681063123
s(S'moved'
p325
S'[[num]]'
p326
tp327
F0.0008305647840531562
s(S'[[num]]'
p328
S'served'
p329
tp330
F0.0033222591362126247
s(S'[[con]]'
p331
S'member'
p332
tp333
F0.0024916943521594683
s(S'been'
p334
S'honored'
p335
tp336
F0.004152823920265781
s(S'honored'
p337
S'in'
p338
tp339
F0.0016611295681063123
s(S'when'
p340
S'came'
p341
tp342
F0.0008305647840531562
s(S'named'
p343
S'to'
p344
tp345
F0.0033222591362126247
s(S'joined'
p346
S'later'
p347
tp348
F0.0008305647840531562
s(S'came'
p349
S'with'
p350
tp351
F0.0008305647840531562
s(S'[[det]]'
p352
S'entered'
p353
tp354
F0.0008305647840531562
s(S'[[con]]'
p355
S'leave'
p356
tp357
F0.0008305647840531562
s(S'appointed'
p358
S'in'
p359
tp360
F0.004152823920265781
s(S'moved'
p361
S'in'
p362
tp363
F0.0008305647840531562
s(S'was'
p364
S'served'
p365
tp366
F0.0008305647840531562
s(S'head'
p367
S'to'
p368
tp369
F0.0016611295681063123
s(S'served'
p370
S'in'
p371
tp372
F0.014119601328903655
s(S'is'
p373
S'head'
p374
tp375
F0.0008305647840531562
s(S'joined'
p376
S'then'
p377
tp378
F0.0016611295681063123
s(g184
S'for'
p379
tp380
F0.004152823920265781
s(S'honored'
p381
S'with'
p382
tp383
F0.0024916943521594683
s(S'joined'
p384
S'now'
p385
tp386
F0.0008305647840531562
s(S'leave'
p387
S'in'
p388
tp389
F0.0016611295681063123
s(S'return'
p390
S'[[pro]]'
p391
tp392
F0.0008305647840531562
s(S'[[det]]'
p393
S'honored'
p394
tp395
F0.0008305647840531562
s(S'joined'
p396
S'[[pro]]'
p397
tp398
F0.0008305647840531562
s(S'became'
p399
S'member'
p400
tp401
F0.0024916943521594683
s(S'then'
p402
S'transferred'
p403
tp404
F0.0008305647840531562
s(S'before'
p405
S'moved'
p406
tp407
F0.0008305647840531562
s(S'left'
p408
S'go'
p409
tp410
F0.0008305647840531562
s(S'as'
p411
S'[[det]]'
p412
tp413
F0.0024916943521594683
s(S'left'
p414
S'[[adj]]'
p415
tp416
F0.0016611295681063123
s(S'member'
p417
g31
tp418
F0.0008305647840531562
s(S'then'
p419
S'graduated'
p420
tp421
F0.0016611295681063123
s(S'transferred'
p422
S'in'
p423
tp424
F0.0024916943521594683
s(S'who'
p425
S'left'
p426
tp427
F0.0008305647840531562
s(S'while'
p428
S'returned'
p429
tp430
F0.0008305647840531562
s(S'also'
p431
S'left'
p432
tp433
F0.0008305647840531562
s(S'was'
p434
S'bestowed'
p435
tp436
F0.0016611295681063123
s(S'represented'
p437
S'before'
p438
tp439
F0.0008305647840531562
s(S'who'
p440
S'joined'
p441
tp442
F0.0024916943521594683
s(S'member'
p443
S'to'
p444
tp445
F0.0008305647840531562
s(S'moved'
p446
S'on'
p447
tp448
F0.005813953488372093
s(S'was'
p449
g367
tp450
F0.0016611295681063123
s(S'also'
p451
S'appointed'
p452
tp453
F0.0016611295681063123
s(S'[[adj]]'
p454
S'joined'
p455
tp456
F0.0016611295681063123
s(S'entered'
p457
S'after'
p458
tp459
F0.0008305647840531562
s(S'moved'
p460
S'across'
p461
tp462
F0.0008305647840531562
s(S'were'
p463
S'transferred'
p464
tp465
F0.0008305647840531562
s(S'joined'
p466
S'at'
p467
tp468
F0.0033222591362126247
s(S'came'
p469
S'back'
p470
tp471
F0.0008305647840531562
s(S'who'
p472
S'graduated'
p473
tp474
F0.0016611295681063123
s(S'[[pro]]'
p475
S'graduated'
p476
tp477
F0.0008305647840531562
s(S'graduated'
p478
S'now'
p479
tp480
F0.0016611295681063123
s(S'came'
p481
S'to'
p482
tp483
F0.0049833887043189366
s(S'left'
p484
S'when'
p485
tp486
F0.0008305647840531562
s(S'with'
p487
S'established'
p488
tp489
F0.0008305647840531562
s(S'left'
p490
S'[[con]]'
p491
tp492
F0.0033222591362126247
s(S'graduated'
p493
S'then'
p494
tp495
F0.0008305647840531562
s(S'first'
p496
S'represented'
p497
tp498
F0.0024916943521594683
s(S'known'
p499
S'[[adj]]'
p500
tp501
F0.0008305647840531562
s(S'known'
p502
S'outside'
p503
tp504
F0.0033222591362126247
s(S'of'
p505
S'named'
p506
tp507
F0.0008305647840531562
s(S'not'
p508
S'leave'
p509
tp510
F0.0008305647840531562
s(S'entered'
p511
S'[[det]]'
p512
tp513
F0.006644518272425249
s(S'also'
p514
S'named'
p515
tp516
F0.005813953488372093
s(S'appointed'
p517
S'on'
p518
tp519
F0.0008305647840531562
s(S'[[pro]]'
p520
S'joined'
p521
tp522
F0.0008305647840531562
s(S'leave'
p523
S'[[adj]]'
p524
tp525
F0.0008305647840531562
s(S'represented'
p526
S'[[num]]'
p527
tp528
F0.0008305647840531562
s(S'[[con]]'
p529
S'represented'
p530
tp531
F0.0008305647840531562
s(S'member'
p532
S'as'
p533
tp534
F0.0016611295681063123
s(S'as'
p535
S'[[adj]]'
p536
tp537
F0.0024916943521594683
s(S'then'
p538
S'moved'
p539
tp540
F0.013289036544850499
s(S'joined'
p541
S'to'
p542
tp543
F0.0016611295681063123
s(S'had'
p544
S'joined'
p545
tp546
F0.004152823920265781
s(g31
S'known'
p547
tp548
F0.0008305647840531562
s(S'member'
p549
S'until'
p550
tp551
F0.0008305647840531562
s(S'also'
p552
S'honored'
p553
tp554
F0.004152823920265781
s(S'had'
p555
S'established'
p556
tp557
F0.0008305647840531562
s(S'[[adj]]'
p558
S'represented'
p559
tp560
F0.0008305647840531562
s(S'represented'
p561
S'[[prp]]'
p562
tp563
F0.0008305647840531562
s(S'officer'
p564
S'of'
p565
tp566
F0.0016611295681063123
s(S'also'
p567
S'represented'
p568
tp569
F0.005813953488372093
s(S'mostly'
p570
S'known'
p571
tp572
F0.0008305647840531562
s(S'appointed'
p573
S'[[det]]'
p574
tp575
F0.0008305647840531562
s(S'was'
p576
g337
tp577
F0.006644518272425249
s(S'then'
p578
g165
tp579
F0.009136212624584718
s(S'be'
p580
S'returned'
p581
tp582
F0.0008305647840531562
s(S'was'
p583
S'awarded'
p584
tp585
F0.0008305647840531562
s(S'later'
p586
S'entered'
p587
tp588
F0.0016611295681063123
s(S'had'
p589
S'served'
p590
tp591
F0.0049833887043189366
s(S'was'
p592
S'moved'
p593
tp594
F0.004152823920265781
s(S'later'
p595
S'moved'
p596
tp597
F0.0024916943521594683
s(S'was'
p598
S'graduated'
p599
tp600
F0.004152823920265781
s(S'have'
p601
S'served'
p602
tp603
F0.0008305647840531562
s(S'being'
p604
S'named'
p605
tp606
F0.0008305647840531562
s(g65
S'of'
p607
tp608
F0.006644518272425249
s(S'never'
p609
S'left'
p610
tp611
F0.0008305647840531562
s(S'member'
p612
S'[[det]]'
p613
tp614
F0.005813953488372093
s(S'returned'
p615
S'against'
p616
tp617
F0.0008305647840531562
s(S'[[adj]]'
p618
S'member'
p619
tp620
F0.009966777408637873
s(S'also'
p621
S'member'
p622
tp623
F0.0016611295681063123
s(S'left'
p624
S'take'
p625
tp626
F0.0008305647840531562
s(g290
S'from'
p627
tp628
F0.0016611295681063123
s(S'joined'
p629
S'after'
p630
tp631
F0.0008305647840531562
s(S'left'
p632
S'[[det]]'
p633
tp634
F0.009966777408637873
s(S'left'
p635
S'[[num]]'
p636
tp637
F0.0008305647840531562
s(S'[[det]]'
p638
S'officer'
p639
tp640
F0.0033222591362126247
s(S'returned'
p641
S'on'
p642
tp643
F0.0016611295681063123
s(S'leave'
p644
S'for'
p645
tp646
F0.0016611295681063123
s(S'have'
p647
S'represented'
p648
tp649
F0.0008305647840531562
s(S'been'
p650
S'transferred'
p651
tp652
F0.0008305647840531562
s(S'returned'
p653
S'[[con]]'
p654
tp655
F0.0024916943521594683
s(S'soon'
p656
S'moved'
p657
tp658
F0.0008305647840531562
s(S'[[det]]'
p659
S'came'
p660
tp661
F0.0008305647840531562
s(S'returned'
p662
S'for'
p663
tp664
F0.0016611295681063123
s(S'had'
p665
S'moved'
p666
tp667
F0.0008305647840531562
s(S'head'
p668
S'[[con]]'
p669
tp670
F0.0016611295681063123
s(S'then'
p671
S'returned'
p672
tp673
F0.005813953488372093
s(S'served'
p674
S'now'
p675
tp676
F0.0008305647840531562
s(S'graduated'
p677
S'[[con]]'
p678
tp679
F0.0016611295681063123
s(S'also'
p680
S'entered'
p681
tp682
F0.0008305647840531562
s(S'left'
p683
S'at'
p684
tp685
F0.0008305647840531562
s(S'again'
p686
S'joined'
p687
tp688
F0.0016611295681063123
s(S'moved'
p689
S'for'
p690
tp691
F0.0024916943521594683
s(S'has'
p692
S'joined'
p693
tp694
F0.0016611295681063123
s(S'established'
p695
S'of'
p696
tp697
F0.0008305647840531562
s(S'[[num]]'
p698
S'joined'
p699
tp700
F0.0008305647840531562
s(S'left'
p701
S'while'
p702
tp703
F0.0008305647840531562
s(S'entered'
p704
S'[[con]]'
p705
tp706
F0.0008305647840531562
s(S'instead'
p707
S'joined'
p708
tp709
F0.0016611295681063123
s(S'joined'
p710
S'of'
p711
tp712
F0.0033222591362126247
s(S'have'
p713
S'left'
p714
tp715
F0.0008305647840531562
s(S'where'
p716
S'graduated'
p717
tp718
F0.0008305647840531562
s(S'[[det]]'
p719
S'returned'
p720
tp721
F0.0008305647840531562
s(S'left'
p722
S'as'
p723
tp724
F0.0008305647840531562
s(S'moved'
p725
S'[[adj]]'
p726
tp727
F0.0008305647840531562
s(S'has'
p728
S'moved'
p729
tp730
F0.0016611295681063123
s(S'had'
p731
S'represented'
p732
tp733
F0.0024916943521594683
s(S'of'
p734
S'member'
p735
tp736
F0.0008305647840531562
s(g234
S'from'
p737
tp738
F0.0024916943521594683
s(S'[[con]]'
p739
g710
tp740
F0.0049833887043189366
s(S'was'
p741
S'member'
p742
tp743
F0.005813953488372093
s(g47
S'in'
p744
tp745
F0.0033222591362126247
s(S'[[con]]'
p746
S'established'
p747
tp748
F0.0008305647840531562
s(S'named'
p749
S'as'
p750
tp751
F0.0049833887043189366
s(S'left'
p752
S'because'
p753
tp754
F0.0008305647840531562
s(S'to'
p755
S'return'
p756
tp757
F0.0024916943521594683
s(g187
S'only'
p758
tp759
F0.0008305647840531562
s(S'left'
p760
S'of'
p761
tp762
F0.0016611295681063123
s(S'deported'
p763
S'from'
p764
tp765
F0.0016611295681063123
s(S'which'
p766
S'returned'
p767
tp768
F0.0008305647840531562
s(S'left'
p769
S'to'
p770
tp771
F0.0033222591362126247
s(S'was'
p772
S'named'
p773
tp774
F0.009136212624584718
s(S'when'
p775
S'left'
p776
tp777
F0.0008305647840531562
s(S'moved'
p778
S'to'
p779
tp780
F0.005813953488372093
s(S'served'
p781
S'on'
p782
tp783
F0.007475083056478406
s(S'had'
p784
S'graduated'
p785
tp786
F0.0008305647840531562
s(g133
S'throughout'
p787
tp788
F0.0016611295681063123
s(S'[[pro]]'
p789
S'return'
p790
tp791
F0.0008305647840531562
s(S'joined'
p792
S'with'
p793
tp794
F0.0008305647840531562
s(g488
S'[[det]]'
p795
tp796
F0.0033222591362126247
s(S'returned'
p797
S'[[det]]'
p798
tp799
F0.0008305647840531562
s(S'moved'
p800
S'with'
p801
tp802
F0.0024916943521594683
s(S'appointed'
p803
S'for'
p804
tp805
F0.0016611295681063123
s(S'represented'
p806
S'while'
p807
tp808
F0.0016611295681063123
s(S'member'
p809
S'of'
p810
tp811
F0.008305647840531562
s(S'established'
p812
S'from'
p813
tp814
F0.0008305647840531562
s(S'also'
p815
S'known'
p816
tp817
F0.0016611295681063123
s(g464
S'to'
p818
tp819
F0.0024916943521594683
s(S'member'
p820
S'when'
p821
tp822
F0.0008305647840531562
s(S'[[mod]]'
p823
S'return'
p824
tp825
F0.0016611295681063123
s(g335
S'[[det]]'
p826
tp827
F0.0016611295681063123
s(S'came'
p828
S'through'
p829
tp830
F0.0008305647840531562
s(S'been'
p831
g81
tp832
F0.0008305647840531562
s(g584
S'[[det]]'
p833
tp834
F0.0008305647840531562
s(S'member'
p835
S'has'
p836
tp837
F0.0008305647840531562
s(S'later'
p838
S'graduated'
p839
tp840
F0.0016611295681063123
s(S'returned'
p841
S'[[pro]]'
p842
tp843
F0.0008305647840531562
s(S'left'
p844
S'is'
p845
tp846
F0.0008305647840531562
s(S'established'
p847
S'[[pro]]'
p848
tp849
F0.004152823920265781
s(S'so'
p850
S'left'
p851
tp852
F0.0008305647840531562
s(S'[[con]]'
p853
S'returned'
p854
tp855
F0.0016611295681063123
s(S'also'
p856
S'joined'
p857
tp858
F0.0008305647840531562
s(S'graduated'
p859
S'[[num]]'
p860
tp861
F0.0008305647840531562
s(S'soon'
p862
S'left'
p863
tp864
F0.0016611295681063123
s(S'served'
p865
S'to'
p866
tp867
F0.0049833887043189366
s(S'before'
p868
S'returned'
p869
tp870
F0.0008305647840531562
s(S'also'
p871
S'came'
p872
tp873
F0.0016611295681063123
s(S'served'
p874
S'as'
p875
tp876
F0.014950166112956811
s(S'served'
p877
S'with'
p878
tp879
F0.009966777408637873
s(S'served'
p880
S'becoming'
p881
tp882
F0.0008305647840531562
s(S'joined'
p883
S'[[con]]'
p884
tp885
F0.0024916943521594683
s(S'member'
p886
S'from'
p887
tp888
F0.0016611295681063123
s(S'first'
p889
S'entered'
p890
tp891
F0.0016611295681063123
s(S'later'
p892
g517
tp893
F0.0016611295681063123
s(S'again'
p894
S'returned'
p895
tp896
F0.0016611295681063123
s(S'member'
p897
S'[[adj]]'
p898
tp899
F0.0016611295681063123
s(g854
S'at'
p900
tp901
F0.0024916943521594683
s(S'[[pro]]'
p902
S'served'
p903
tp904
F0.0008305647840531562
s(S'has'
p905
S'returned'
p906
tp907
F0.0008305647840531562
s(S'be'
p908
g573
tp909
F0.0008305647840531562
s(S'honored'
p910
S'by'
p911
tp912
F0.0049833887043189366
s(S'named'
p913
S'with'
p914
tp915
F0.0008305647840531562
s(S'[[num]]'
p916
S'returned'
p917
tp918
F0.0008305647840531562
s(S'then'
p919
S'came'
p920
tp921
F0.0008305647840531562
s(S'has'
p922
g874
tp923
F0.011627906976744186
s(g785
S'from'
p924
tp925
F0.009966777408637873
s(S'joined'
p926
S'side'
p927
tp928
F0.0024916943521594683
s(S'was'
p929
S'represented'
p930
tp931
F0.0008305647840531562
s(S'was'
p932
S'left'
p933
tp934
F0.0016611295681063123
s(S'never'
p935
S'return'
p936
tp937
F0.0008305647840531562
s(S'of'
p938
S'joined'
p939
tp940
F0.0008305647840531562
s(S'deported'
p941
S'to'
p942
tp943
F0.0016611295681063123
s(S'[[det]]'
p944
S'named'
p945
tp946
F0.0008305647840531562
s(S'joined'
p947
S'who'
p948
tp949
F0.0008305647840531562
s(S'already'
p950
S'known'
p951
tp952
F0.0008305647840531562
s(S'[[det]]'
p953
g120
tp954
F0.0016611295681063123
s(S'soon'
p955
S'joined'
p956
tp957
F0.0016611295681063123
s(S'left'
p958
g31
tp959
F0.0008305647840531562
s(S'served'
p960
S'before'
p961
tp962
F0.0024916943521594683
s(S'when'
p963
S'joined'
p964
tp965
F0.0016611295681063123
s(g720
S'to'
p966
tp967
F0.011627906976744186
s(S'[[adj]]'
p968
S'moved'
p969
tp970
F0.0008305647840531562
s(S'established'
p971
S'[[num]]'
p972
tp973
F0.0008305647840531562
s(S'later'
p974
S'left'
p975
tp976
F0.0024916943521594683
s(g773
S'by'
p977
tp978
F0.004152823920265781
s(S'had'
p979
S'known'
p980
tp981
F0.0008305647840531562
s(S'moved'
p982
S'by'
p983
tp984
F0.0008305647840531562
s(S'then'
p985
g358
tp986
F0.004152823920265781
s(S'to'
p987
S'leave'
p988
tp989
F0.004152823920265781
s(S'served'
p990
S'where'
p991
tp992
F0.0008305647840531562
s(g320
S'at'
p993
tp994
F0.0016611295681063123
s(S'again'
p995
S'represented'
p996
tp997
F0.0008305647840531562
s(S'member'
p998
S'which'
p999
tp1000
F0.0008305647840531562
s(S'has'
p1001
S'represented'
p1002
tp1003
F0.0024916943521594683
s(S'be'
p1004
S'transferred'
p1005
tp1006
F0.0008305647840531562
s(S'came'
p1007
S'under'
p1008
tp1009
F0.0008305647840531562
s(g619
S'[[con]]'
p1010
tp1011
F0.0049833887043189366
s(S'of'
p1012
S'appointed'
p1013
tp1014
F0.0008305647840531562
s(S'represented'
p1015
S'[[con]]'
p1016
tp1017
F0.0024916943521594683
s(g435
S'[[det]]'
p1018
tp1019
F0.0008305647840531562
s(S'returned'
p1020
S'again'
p1021
tp1022
F0.0008305647840531562
s(S'moved'
p1023
S'[[con]]'
p1024
tp1025
F0.0016611295681063123
s(S'where'
p1026
S'served'
p1027
tp1028
F0.0016611295681063123
s(S'joined'
p1029
S'[[adj]]'
p1030
tp1031
F0.0024916943521594683
s(S'served'
p1032
S'[[con]]'
p1033
tp1034
F0.004152823920265781
s(S'served'
p1035
S'there'
p1036
tp1037
F0.0008305647840531562
s(S'well'
p1038
S'established'
p1039
tp1040
F0.0008305647840531562
s(S'named'
p1041
S'[[det]]'
p1042
tp1043
F0.006644518272425249
s(S'member'
p1044
S'[[num]]'
p1045
tp1046
F0.0033222591362126247
s(S'moved'
p1047
S'as'
p1048
tp1049
F0.0016611295681063123
s(S'twice'
p1050
S'served'
p1051
tp1052
F0.0016611295681063123
s(S'returned'
p1053
S'with'
p1054
tp1055
F0.0016611295681063123
s(g672
S'in'
p1056
tp1057
F0.0008305647840531562
s(S'joined'
p1058
S'de'
p1059
tp1060
F0.0008305647840531562
s(S'[[num]]'
p1061
S'member'
p1062
tp1063
F0.0008305647840531562
s(S'appointed'
p1064
S'to'
p1065
tp1066
F0.0024916943521594683
s(S'served'
p1067
S'[[num]]'
p1068
tp1069
F0.0016611295681063123
s(S'have'
p1070
S'joined'
p1071
tp1072
F0.0008305647840531562
s(g127
S'of'
p1073
tp1074
F0.0016611295681063123
s(g639
S'[[con]]'
p1075
tp1076
F0.0008305647840531562
s(S'moved'
p1077
S'[[prp]]'
p1078
tp1079
F0.0008305647840531562
s(g599
S'in'
p1080
tp1081
F0.0008305647840531562
s(S'later'
p1082
g1032
tp1083
F0.006644518272425249
s(S'came'
p1084
S'on'
p1085
tp1086
F0.0008305647840531562
s(g403
S'[[con]]'
p1087
tp1088
F0.0016611295681063123
s(S'head'
p1089
S'[[det]]'
p1090
tp1091
F0.0016611295681063123
s(S'since'
p1092
S'returned'
p1093
tp1094
F0.0008305647840531562
s(g833
S'honor'
p1095
tp1096
F0.0008305647840531562
s(S'transferred'
p1097
S'for'
p1098
tp1099
F0.0008305647840531562
s(S'until'
p1100
S'joined'
p1101
tp1102
F0.0016611295681063123
s(S'moved'
p1103
S'after'
p1104
tp1105
F0.0016611295681063123
s(S'established'
p1106
S'[[con]]'
p1107
tp1108
F0.0016611295681063123
s(S'graduated'
p1109
S'to'
p1110
tp1111
F0.0008305647840531562
s(S'officer'
p1112
S'on'
p1113
tp1114
F0.0008305647840531562
s(S'came'
p1115
S'was'
p1116
tp1117
F0.0008305647840531562
s(S'before'
p1118
S'joined'
p1119
tp1120
F0.0008305647840531562
s(S'served'
p1121
S'then'
p1122
tp1123
F0.0008305647840531562
s(S'then'
p1124
S'left'
p1125
tp1126
F0.004152823920265781
s(S'joined'
p1127
S'which'
p1128
tp1129
F0.0008305647840531562
s(S'[[det]]'
p1130
g760
tp1131
F0.0016611295681063123
s(S'formerly'
p1132
g865
tp1133
F0.0033222591362126247
s(S'officer'
p1134
S'for'
p1135
tp1136
F0.0008305647840531562
s(S'entered'
p1137
S'for'
p1138
tp1139
F0.0008305647840531562
s(S'[[con]]'
p1140
g283
tp1141
F0.005813953488372093
s(S'appointed'
p1142
S'where'
p1143
tp1144
F0.0008305647840531562
s(S'had'
p1145
S'entered'
p1146
tp1147
F0.0016611295681063123
s(S'later'
p1148
S'named'
p1149
tp1150
F0.0016611295681063123
s(S'since'
p1151
S'left'
p1152
tp1153
F0.0016611295681063123
s(S'better'
p1154
S'known'
p1155
tp1156
F0.0008305647840531562
s(S'again'
p1157
g778
tp1158
F0.0008305647840531562
s(S'moved'
p1159
S'up'
p1160
tp1161
F0.0016611295681063123
s(S'twice'
p1162
S'named'
p1163
tp1164
F0.0008305647840531562
s(S'is'
p1165
S'known'
p1166
tp1167
F0.0024916943521594683
s(S'also'
p1168
g254
tp1169
F0.012458471760797342
s(S'member'
p1170
S'during'
p1171
tp1172
F0.0008305647840531562
s(g56
S'in'
p1173
tp1174
F0.0024916943521594683
s(S'of'
p1175
S'served'
p1176
tp1177
F0.0008305647840531562
s(S'moved'
p1178
S'again'
p1179
tp1180
F0.0008305647840531562
s(S'moved'
p1181
S'back'
p1182
tp1183
F0.0024916943521594683
s(S'was'
p1184
g277
tp1185
F0.0049833887043189366
s(g473
S'at'
p1186
tp1187
F0.004152823920265781
s(S'moved'
p1188
S'at'
p1189
tp1190
F0.0024916943521594683
s(S'honored'
p1191
S'to'
p1192
tp1193
F0.0008305647840531562
s(S'well'
p1194
g502
tp1195
F0.0016611295681063123
s(S'honored'
p1196
S'at'
p1197
tp1198
F0.0016611295681063123
s(S'[[con]]'
p1199
g446
tp1200
F0.0008305647840531562
s(S'joined'
p1201
S'before'
p1202
tp1203
F0.0008305647840531562
s(S'[[adj]]'
p1204
g1089
tp1205
F0.0024916943521594683
s(S'came'
p1206
S'[[adj]]'
p1207
tp1208
F0.0008305647840531562
s(S'[[prp]]'
p1209
S'return'
p1210
tp1211
F0.0016611295681063123
s(S'represented'
p1212
S'as'
p1213
tp1214
F0.0008305647840531562
s(S'first'
p1215
S'served'
p1216
tp1217
F0.0016611295681063123
s(S'[[det]]'
p1218
g549
tp1219
F0.014950166112956811
s(S'is'
p1220
S'member'
p1221
tp1222
F0.0024916943521594683
s(g687
S'[[det]]'
p1223
tp1224
F0.018272425249169437
s(S'[[num]]'
p1225
S'represented'
p1226
tp1227
F0.0008305647840531562
s(S'[[adj]]'
p1228
g847
tp1229
F0.0008305647840531562
s(S'named'
p1230
S'for'
p1231
tp1232
F0.0016611295681063123
s(g536
g1112
tp1233
F0.0024916943521594683
s(S'served'
p1234
S'from'
p1235
tp1236
F0.0016611295681063123
s(S'represented'
p1237
S'from'
p1238
tp1239
F0.0008305647840531562
s(S'served'
p1240
S'[[adj]]'
p1241
tp1242
F0.0033222591362126247
s(S'[[con]]'
p1243
S'entered'
p1244
tp1245
F0.0016611295681063123
s(S'joined'
p1246
S'in'
p1247
tp1248
F0.0008305647840531562
s(S'return'
p1249
S'in'
p1250
tp1251
F0.0024916943521594683
s(g1210
S'from'
p1252
tp1253
F0.0024916943521594683
s(S'moved'
p1254
S'into'
p1255
tp1256
F0.0016611295681063123
s(S'has'
p1257
S'left'
p1258
tp1259
F0.0024916943521594683
s(S'until'
p1260
S'returned'
p1261
tp1262
F0.0008305647840531562
s(g148
S'at'
p1263
tp1264
F0.0016611295681063123
s(S'again'
p1265
S'served'
p1266
tp1267
F0.0016611295681063123
s(S'then'
p1268
S'entered'
p1269
tp1270
F0.0016611295681063123
s(S'named'
p1271
S'at'
p1272
tp1273
F0.0033222591362126247
s(S'honored'
p1274
S'[[con]]'
p1275
tp1276
F0.0008305647840531562
s(S'where'
p1277
S'joined'
p1278
tp1279
F0.0016611295681063123
s(S'joined'
p1280
S'becoming'
p1281
tp1282
F0.0008305647840531562
s(g933
S'with'
p1283
tp1284
F0.0008305647840531562
s(S'be'
p1285
S'honored'
p1286
tp1287
F0.0008305647840531562
s(S'returned'
p1288
S'once'
p1289
tp1290
F0.0008305647840531562
s(S'to'
p1291
g114
tp1292
F0.0016611295681063123
s(g568
S'on'
p1293
tp1294
F0.0016611295681063123
s(S'appointed'
p1295
S'[[pro]]'
p1296
tp1297
F0.0008305647840531562
s(S'leave'
p1298
S'[[con]]'
p1299
tp1300
F0.0008305647840531562
s(S'established'
p1301
S'[[adj]]'
p1302
tp1303
F0.0008305647840531562
s(S'[[con]]'
p1304
g632
tp1305
F0.0016611295681063123
s(S'represented'
p1306
S'where'
p1307
tp1308
F0.0008305647840531562
s(S'has'
p1309
S'graduated'
p1310
tp1311
F0.0008305647840531562
s(S'came'
p1312
S'over'
p1313
tp1314
F0.0008305647840531562
s(S'was'
p1315
g466
tp1316
F0.0033222591362126247
s(g198
S'by'
p1317
tp1318
F0.0008305647840531562
s(S'member'
p1319
S'for'
p1320
tp1321
F0.0033222591362126247
s(S'is'
p1322
g910
tp1323
F0.0008305647840531562
s(S'[[adj]]'
p1324
g248
tp1325
F0.0033222591362126247
s(S'first'
p1326
g481
tp1327
F0.004152823920265781
s(S'joined'
p1328
S'[[num]]'
p1329
tp1330
F0.0016611295681063123
s(S'as'
p1331
S'joined'
p1332
tp1333
F0.0008305647840531562
s(g742
S'in'
p1334
tp1335
F0.0024916943521594683
s(S'named'
p1336
S'[[con]]'
p1337
tp1338
F0.0024916943521594683
s(S'entered'
p1339
S'to'
p1340
tp1341
F0.0008305647840531562
s.