(dp0
(S'[[con]]'
p1
S'followed'
p2
tp3
F0.15384615384615385
s(g2
S'by'
p4
tp5
F0.15384615384615385
s(S'by'
p6
S'singing'
p7
tp8
F0.07692307692307693
s(S'succeeded'
p9
g6
tp10
F0.07692307692307693
s(S'succeeded'
p11
S'with'
p12
tp13
F0.07692307692307693
s(S'preceded'
p14
g1
tp15
F0.15384615384615385
s(S'was'
p16
g14
tp17
F0.07692307692307693
s(S'was'
p18
g11
tp19
F0.15384615384615385
s(S'is'
p20
S'preceded'
p21
tp22
F0.07692307692307693
s.