(dp0
(S'created'
p1
S'through'
p2
tp3
F0.0034602076124567475
s(S'acquire'
p4
S'[[num]]'
p5
tp6
F0.0034602076124567475
s(S'[[pro]]'
p7
S'acquired'
p8
tp9
F0.0034602076124567475
s(S'acquired'
p10
S'[[num]]'
p11
tp12
F0.006920415224913495
s(S'to'
p13
S'acquire'
p14
tp15
F0.010380622837370242
s(g14
S'[[con]]'
p16
tp17
F0.0034602076124567475
s(S'purchased'
p18
S'[[det]]'
p19
tp20
F0.006920415224913495
s(S'companies'
p21
S'[[con]]'
p22
tp23
F0.0034602076124567475
s(S'been'
p24
S'acquired'
p25
tp26
F0.0034602076124567475
s(S'[[det]]'
p27
S'parent'
p28
tp29
F0.01384083044982699
s(S'[[det]]'
p30
S'acquisition'
p31
tp32
F0.006920415224913495
s(S'[[prp]]'
p33
S'parent'
p34
tp35
F0.0034602076124567475
s(S'parent'
p36
S'company'
p37
tp38
F0.02768166089965398
s(S'announced'
p39
S'[[mod]]'
p40
tp41
F0.006920415224913495
s(S'then'
p42
S'acquired'
p43
tp44
F0.0034602076124567475
s(S'be'
p45
S'acquired'
p46
tp47
F0.0034602076124567475
s(S'owner'
p48
S'of'
p49
tp50
F0.0034602076124567475
s(S'announced'
p51
S'[[pro]]'
p52
tp53
F0.006920415224913495
s(S'which'
p54
S'owns'
p55
tp56
F0.0034602076124567475
s(S'has'
p57
S'announced'
p58
tp59
F0.006920415224913495
s(S'acquired'
p60
S'[[det]]'
p61
tp62
F0.010380622837370242
s(S'[[con]]'
p63
S'acquired'
p64
tp65
F0.006920415224913495
s(S'to'
p66
S'purchase'
p67
tp68
F0.006920415224913495
s(S'merger'
p69
S'of'
p70
tp71
F0.01730103806228374
s(S'merged'
p72
S'from'
p73
tp74
F0.0034602076124567475
s(g58
S'that'
p75
tp76
F0.01384083044982699
s(S's'
p77
S'purchase'
p78
tp79
F0.006920415224913495
s(S'sell'
p80
S'[[det]]'
p81
tp82
F0.006920415224913495
s(S'were'
p83
S'merged'
p84
tp85
F0.0034602076124567475
s(S'[[det]]'
p86
S'merged'
p87
tp88
F0.0034602076124567475
s(S'acquisition'
p89
S'of'
p90
tp91
F0.01384083044982699
s(S'created'
p92
S'from'
p93
tp94
F0.0034602076124567475
s(S'merged'
p95
S'[[det]]'
p96
tp97
F0.0034602076124567475
s(S'being'
p98
S'acquired'
p99
tp100
F0.0034602076124567475
s(S'acquired'
p101
S'as'
p102
tp103
F0.0034602076124567475
s(S'[[num]]'
p104
S'companies'
p105
tp106
F0.0034602076124567475
s(S'purchased'
p107
S'[[adj]]'
p108
tp109
F0.0034602076124567475
s(S'also'
p110
S'includes'
p111
tp112
F0.006920415224913495
s(g93
S'[[det]]'
p113
tp114
F0.0034602076124567475
s(S'purchased'
p115
S'in'
p116
tp117
F0.0034602076124567475
s(S'merged'
p118
S'[[con]]'
p119
tp120
F0.010380622837370242
s(S'owns'
p121
S'[[con]]'
p122
tp123
F0.0034602076124567475
s(S'merged'
p124
S'with'
p125
tp126
F0.031141868512110725
s(g2
S'[[det]]'
p127
tp128
F0.0034602076124567475
s(S'[[det]]'
p129
S'purchase'
p130
tp131
F0.006920415224913495
s(S'purchase'
p132
S'of'
p133
tp134
F0.01384083044982699
s(S'purchased'
p135
S'by'
p136
tp137
F0.020761245674740483
s(S'has'
p138
S'acquired'
p139
tp140
F0.0034602076124567475
s(S'when'
p141
S'acquired'
p142
tp143
F0.0034602076124567475
s(S'then'
p144
S'purchased'
p145
tp146
F0.0034602076124567475
s(S'purchased'
p147
S'from'
p148
tp149
F0.010380622837370242
s(S'acquired'
p150
S'[[adj]]'
p151
tp152
F0.0034602076124567475
s(S'which'
p153
S'includes'
p154
tp155
F0.006920415224913495
s(S'was'
p156
S'acquired'
p157
tp158
F0.010380622837370242
s(S'acquire'
p159
S'[[adj]]'
p160
tp161
F0.0034602076124567475
s(S'[[mod]]'
p162
S'buy'
p163
tp164
F0.0034602076124567475
s(S'owns'
p165
S'[[num]]'
p166
tp167
F0.006920415224913495
s(S'[[con]]'
p168
S'purchased'
p169
tp170
F0.0034602076124567475
s(S'merged'
p171
S'in'
p172
tp173
F0.0034602076124567475
s(S'currently'
p174
S'owns'
p175
tp176
F0.0034602076124567475
s(S'sell'
p177
S'[[prp]]'
p178
tp179
F0.006920415224913495
s(g77
g89
tp180
F0.006920415224913495
s(S'with'
p181
S'[[det]]'
p182
tp183
F0.0034602076124567475
s(S'parent'
p184
S'of'
p185
tp186
F0.0034602076124567475
s(S'was'
p187
S'announced'
p188
tp189
F0.006920415224913495
s(S'company'
p190
S'for'
p191
tp192
F0.0034602076124567475
s(S'were'
p193
S'acquired'
p194
tp195
F0.0034602076124567475
s(S'announced'
p196
S'was'
p197
tp198
F0.0034602076124567475
s(S'to'
p199
S'buy'
p200
tp201
F0.010380622837370242
s(g194
S'by'
p202
tp203
F0.031141868512110725
s(S'had'
p204
S'merged'
p205
tp206
F0.006920415224913495
s(S'acquired'
p207
S'to'
p208
tp209
F0.0034602076124567475
s(S'which'
p210
S'merged'
p211
tp212
F0.0034602076124567475
s(S'[[con]]'
p213
S'merged'
p214
tp215
F0.01384083044982699
s(S'acquired'
p216
S'[[pro]]'
p217
tp218
F0.0034602076124567475
s(S'by'
p219
S'companies'
p220
tp221
F0.0034602076124567475
s(S'which'
p222
S'acquired'
p223
tp224
F0.0034602076124567475
s(S'[[prp]]'
p225
S'purchase'
p226
tp227
F0.0034602076124567475
s(S'be'
p228
S'merged'
p229
tp230
F0.010380622837370242
s(S'that'
p231
S'[[mod]]'
p232
tp233
F0.0034602076124567475
s(S'had'
p234
S'acquired'
p235
tp236
F0.01384083044982699
s(S'be'
p237
S'purchased'
p238
tp239
F0.0034602076124567475
s(S'acquired'
p240
S'in'
p241
tp242
F0.0034602076124567475
s(S'owns'
p243
S'[[det]]'
p244
tp245
F0.0034602076124567475
s(S'was'
p246
S'purchased'
p247
tp248
F0.01384083044982699
s(S'[[mod]]'
p249
S'sell'
p250
tp251
F0.006920415224913495
s(S'merged'
p252
S'[[prp]]'
p253
tp254
F0.0034602076124567475
s(S'created'
p255
S'by'
p256
tp257
F0.010380622837370242
s(S'been'
p258
S'purchased'
p259
tp260
F0.0034602076124567475
s(g235
S'[[con]]'
p261
tp262
F0.010380622837370242
s(S'buy'
p263
S'[[num]]'
p264
tp265
F0.0034602076124567475
s(S'[[pro]]'
p266
S'[[mod]]'
p267
tp268
F0.0034602076124567475
s(S'majority'
p269
g48
tp270
F0.0034602076124567475
s(S'[[mod]]'
p271
S'purchase'
p272
tp273
F0.0034602076124567475
s(S'created'
p274
g181
tp275
F0.0034602076124567475
s(S'was'
p276
g274
tp277
F0.01730103806228374
s(g37
S'of'
p278
tp279
F0.006920415224913495
s(S'announced'
p280
S'[[adj]]'
p281
tp282
F0.0034602076124567475
s(S'was'
p283
g118
tp284
F0.01730103806228374
s(S'were'
p285
g135
tp286
F0.006920415224913495
s(S'sell'
p287
S'to'
p288
tp289
F0.010380622837370242
s(g77
S'parent'
p290
tp291
F0.006920415224913495
s(S'when'
p292
S'merged'
p293
tp294
F0.006920415224913495
s(S'[[adj]]'
p295
S'companies'
p296
tp297
F0.006920415224913495
s(S'acquired'
p298
S'[[prp]]'
p299
tp300
F0.0034602076124567475
s(S'when'
p301
S'purchased'
p302
tp303
F0.0034602076124567475
s(S'of'
p304
S'companies'
p305
tp306
F0.0034602076124567475
s(S'later'
p307
S'merged'
p308
tp309
F0.010380622837370242
s(S'acquire'
p310
S'[[det]]'
p311
tp312
F0.006920415224913495
s(S'later'
p313
S'purchased'
p314
tp315
F0.006920415224913495
s(S'purchased'
p316
S'[[num]]'
p317
tp318
F0.0034602076124567475
s(S'sell'
p319
S'[[num]]'
p320
tp321
F0.0034602076124567475
s(S'[[num]]'
p322
S'acquired'
p323
tp324
F0.0034602076124567475
s(S'purchased'
p325
S'[[con]]'
p326
tp327
F0.006920415224913495
s(S'then'
p328
S'merged'
p329
tp330
F0.006920415224913495
s(S'acquired'
p331
S'from'
p332
tp333
F0.010380622837370242
s(g256
S'[[det]]'
p334
tp335
F0.010380622837370242
s(S'[[det]]'
p336
g269
tp337
F0.0034602076124567475
s(g111
S'[[con]]'
p338
tp339
F0.006920415224913495
s(S'buy'
p340
S'out'
p341
tp342
F0.006920415224913495
s(S'to'
p343
g177
tp344
F0.01384083044982699
s(S'[[det]]'
p345
S'acquired'
p346
tp347
F0.0034602076124567475
s(g154
S'[[num]]'
p348
tp349
F0.0034602076124567475
s(S'merged'
p350
S'to'
p351
tp352
F0.010380622837370242
s(S'announced'
p353
S'[[prp]]'
p354
tp355
F0.0034602076124567475
s(S'also'
p356
g243
tp357
F0.006920415224913495
s(S'also'
p358
S'purchased'
p359
tp360
F0.0034602076124567475
s(S'later'
p361
S'acquired'
p362
tp363
F0.010380622837370242
s(S'[[mod]]'
p364
g310
tp365
F0.020761245674740483
s(S'also'
p366
S'acquired'
p367
tp368
F0.010380622837370242
s(S'purchase'
p369
S'from'
p370
tp371
F0.0034602076124567475
s(g182
g69
tp372
F0.020761245674740483
s(S'[[adj]]'
p373
S'parent'
p374
tp375
F0.006920415224913495
s(S'acquired'
p376
S'with'
p377
tp378
F0.0034602076124567475
s(S'[[adj]]'
p379
S'acquisition'
p380
tp381
F0.006920415224913495
s(S'[[det]]'
p382
S'announced'
p383
tp384
F0.0034602076124567475
s(S'companies'
p385
S'[[adj]]'
p386
tp387
F0.010380622837370242
s(g188
S'[[det]]'
p388
tp389
F0.0034602076124567475
s(g308
S'into'
p390
tp391
F0.02422145328719723
s(S'had'
p392
g18
tp393
F0.010380622837370242
s.