(dp0
(S'serves'
p1
S'[[num]]'
p2
tp3
F0.0018115942028985507
s(S'school'
p4
S'that'
p5
tp6
F0.0018115942028985507
s(S'be'
p7
S'served'
p8
tp9
F0.0018115942028985507
s(S'division'
p10
S'in'
p11
tp12
F0.0018115942028985507
s(S'bought'
p13
S'from'
p14
tp15
F0.0018115942028985507
s(S'retired'
p16
S'as'
p17
tp18
F0.0018115942028985507
s(S'acquired'
p19
S'[[num]]'
p20
tp21
F0.0036231884057971015
s(S'retired'
p22
S'from'
p23
tp24
F0.012681159420289856
s(S'serves'
p25
S'to'
p26
tp27
F0.005434782608695652
s(S'also'
p28
S'bought'
p29
tp30
F0.0018115942028985507
s(S'venture'
p31
S'of'
p32
tp33
F0.0018115942028985507
s(S'merged'
p34
S'from'
p35
tp36
F0.0018115942028985507
s(S'been'
p37
S'acquired'
p38
tp39
F0.0018115942028985507
s(S'later'
p40
S'work'
p41
tp42
F0.0018115942028985507
s(S'retired'
p43
S'[[det]]'
p44
tp45
F0.0018115942028985507
s(S'is'
p46
S'selected'
p47
tp48
F0.0036231884057971015
s(S'was'
p49
S'selected'
p50
tp51
F0.025362318840579712
s(S'[[det]]'
p52
S'school'
p53
tp54
F0.005434782608695652
s(S'[[num]]'
p55
S'acquired'
p56
tp57
F0.0018115942028985507
s(S'announced'
p58
S'that'
p59
tp60
F0.005434782608695652
s(S'work'
p61
S'in'
p62
tp63
F0.0036231884057971015
s(S'[[prp]]'
p64
S'work'
p65
tp66
F0.0018115942028985507
s(S'announced'
p67
S'[[mod]]'
p68
tp69
F0.0018115942028985507
s(S'merged'
p70
S'to'
p71
tp72
F0.005434782608695652
s(S'work'
p73
S'[[con]]'
p74
tp75
F0.0018115942028985507
s(S'be'
p76
S'acquired'
p77
tp78
F0.0018115942028985507
s(S'bought'
p79
S'back'
p80
tp81
F0.0018115942028985507
s(S'division'
p82
S'of'
p83
tp84
F0.005434782608695652
s(S'[[pro]]'
p85
S'acquired'
p86
tp87
F0.0018115942028985507
s(S'then'
p88
S'selected'
p89
tp90
F0.009057971014492754
s(S'also'
p91
S'serves'
p92
tp93
F0.018115942028985508
s(S'work'
p94
S'for'
p95
tp96
F0.014492753623188406
s(S'[[con]]'
p97
S'retired'
p98
tp99
F0.0018115942028985507
s(S'serves'
p100
S'as'
p101
tp102
F0.007246376811594203
s(S'purchased'
p103
S'[[con]]'
p104
tp105
F0.0036231884057971015
s(S'acquired'
p106
S'[[pro]]'
p107
tp108
F0.0018115942028985507
s(S'served'
p109
S'only'
p110
tp111
F0.0018115942028985507
s(S'[[con]]'
p112
S'acquired'
p113
tp114
F0.0036231884057971015
s(S'[[adj]]'
p115
S'player'
p116
tp117
F0.0018115942028985507
s(S'based'
p118
S'in'
p119
tp120
F0.0018115942028985507
s(S'rated'
p121
S'[[det]]'
p122
tp123
F0.0018115942028985507
s(S'serves'
p124
S'at'
p125
tp126
F0.007246376811594203
s(S'purchased'
p127
S'[[det]]'
p128
tp129
F0.0036231884057971015
s(S'leave'
p130
S'[[det]]'
p131
tp132
F0.010869565217391304
s(S'[[det]]'
p133
S'subsidiary'
p134
tp135
F0.0036231884057971015
s(S'was'
p136
S'merged'
p137
tp138
F0.009057971014492754
s(S'were'
p139
S'merged'
p140
tp141
F0.0018115942028985507
s(S'[[det]]'
p142
S'merged'
p143
tp144
F0.0018115942028985507
s(S'that'
p145
S'served'
p146
tp147
F0.0018115942028985507
s(S'work'
p148
S'from'
p149
tp150
F0.0036231884057971015
s(S'purchased'
p151
S'from'
p152
tp153
F0.005434782608695652
s(S'being'
p154
S'acquired'
p155
tp156
F0.0018115942028985507
s(S'[[det]]'
p157
S'division'
p158
tp159
F0.005434782608695652
s(S'acquired'
p160
S'as'
p161
tp162
F0.0018115942028985507
s(S'that'
p163
S'is'
p164
tp165
F0.0018115942028985507
s(S'selected'
p166
S'at'
p167
tp168
F0.0036231884057971015
s(S'originally'
p169
S'[[adj]]'
p170
tp171
F0.0018115942028985507
s(S'station'
p172
S'served'
p173
tp174
F0.0036231884057971015
s(S'purchased'
p175
S'[[adj]]'
p176
tp177
F0.0018115942028985507
s(S'then'
p178
S'bought'
p179
tp180
F0.0036231884057971015
s(S'found'
p181
S'work'
p182
tp183
F0.0036231884057971015
s(S'purchased'
p184
S'in'
p185
tp186
F0.0018115942028985507
s(S'[[con]]'
p187
S'is'
p188
tp189
F0.0018115942028985507
s(S'member'
p190
S'of'
p191
tp192
F0.0018115942028985507
s(S'after'
p193
S'bought'
p194
tp195
F0.0018115942028985507
s(g137
S'[[con]]'
p196
tp197
F0.005434782608695652
s(S'as'
p198
S'[[det]]'
p199
tp200
F0.0018115942028985507
s(S'was'
p201
g121
tp202
F0.0018115942028985507
s(S'established'
p203
g198
tp204
F0.0018115942028985507
s(S'merged'
p205
S'with'
p206
tp207
F0.016304347826086956
s(S'when'
p208
S'bought'
p209
tp210
F0.0018115942028985507
s(S'also'
p211
S'served'
p212
tp213
F0.0018115942028985507
s(S'purchased'
p214
S'by'
p215
tp216
F0.010869565217391304
s(g59
S'to'
p217
tp218
F0.0018115942028985507
s(S'has'
p219
S'acquired'
p220
tp221
F0.0018115942028985507
s(S'selected'
p222
S'from'
p223
tp224
F0.0018115942028985507
s(S'work'
p225
S'as'
p226
tp227
F0.0018115942028985507
s(S'originally'
p228
S'[[det]]'
p229
tp230
F0.0018115942028985507
s(S'owned'
p231
S'by'
p232
tp233
F0.0018115942028985507
s(S'when'
p234
S'acquired'
p235
tp236
F0.0018115942028985507
s(S'bought'
p237
S'[[num]]'
p238
tp239
F0.0018115942028985507
s(S'was'
p240
S'retired'
p241
tp242
F0.0018115942028985507
s(S'then'
p243
S'purchased'
p244
tp245
F0.0018115942028985507
s(S'merged'
p246
S'[[det]]'
p247
tp248
F0.0018115942028985507
s(S'serves'
p249
S'in'
p250
tp251
F0.0036231884057971015
s(S'acquired'
p252
S'[[adj]]'
p253
tp254
F0.0018115942028985507
s(S'serves'
p255
S'on'
p256
tp257
F0.007246376811594203
s(S'was'
p258
S'acquired'
p259
tp260
F0.007246376811594203
s(S'[[con]]'
p261
S'[[det]]'
p262
tp263
F0.0018115942028985507
s(S'[[det]]'
p264
S'wholly'
p265
tp266
F0.010869565217391304
s(S'[[num]]'
p267
S'division'
p268
tp269
F0.0018115942028985507
s(S'later'
p270
S'merged'
p271
tp272
F0.005434782608695652
s(S'be'
p273
S'selected'
p274
tp275
F0.007246376811594203
s(S'[[adj]]'
p276
S'venture'
p277
tp278
F0.009057971014492754
s(S'bought'
p279
S'for'
p280
tp281
F0.0018115942028985507
s(S'school'
p282
S'for'
p283
tp284
F0.0018115942028985507
s(S'venture'
p285
S'between'
p286
tp287
F0.0018115942028985507
s(S'later'
p288
S'selected'
p289
tp290
F0.0018115942028985507
s(S'were'
p291
g228
tp292
F0.0018115942028985507
s(S'leave'
p293
S'from'
p294
tp295
F0.0036231884057971015
s(S'work'
p296
S'[[det]]'
p297
tp298
F0.0018115942028985507
s(S'[[con]]'
p299
S'purchased'
p300
tp301
F0.0018115942028985507
s(S'not'
p302
g130
tp303
F0.0018115942028985507
s(S'merged'
p304
S'in'
p305
tp306
F0.0018115942028985507
s(S'selected'
p307
S'[[adj]]'
p308
tp309
F0.0036231884057971015
s(S'[[prp]]'
p310
S'subsidiary'
p311
tp312
F0.0018115942028985507
s(S'leave'
p313
S'[[adj]]'
p314
tp315
F0.0018115942028985507
s(S'done'
p316
S'work'
p317
tp318
F0.0018115942028985507
s(S'division'
p319
S'[[det]]'
p320
tp321
F0.0018115942028985507
s(S'station'
p322
g163
tp323
F0.0018115942028985507
s(S'venture'
p324
S'with'
p325
tp326
F0.0018115942028985507
s(S'again'
p327
S'selected'
p328
tp329
F0.0036231884057971015
s(S'serves'
p330
S'[[con]]'
p331
tp332
F0.005434782608695652
s(S'of'
p333
S'division'
p334
tp335
F0.0018115942028985507
s(g89
S'to'
p336
tp337
F0.009057971014492754
s(S'school'
p338
S'of'
p339
tp340
F0.0036231884057971015
s(g53
S'[[con]]'
p341
tp342
F0.0036231884057971015
s(S'selected'
p343
S'with'
p344
tp345
F0.0018115942028985507
s(g191
S'[[det]]'
p346
tp347
F0.0018115942028985507
s(S'when'
p348
S'purchased'
p349
tp350
F0.0018115942028985507
s(S'acquired'
p351
S'by'
p352
tp353
F0.016304347826086956
s(S'had'
p354
S'merged'
p355
tp356
F0.0036231884057971015
s(S'[[mod]]'
p357
S'work'
p358
tp359
F0.0036231884057971015
s(S'acquired'
p360
S'to'
p361
tp362
F0.0018115942028985507
s(S'bought'
p363
S'[[adj]]'
p364
tp365
F0.0018115942028985507
s(S'served'
p366
S'with'
p367
tp368
F0.0018115942028985507
s(S'which'
p369
S'merged'
p370
tp371
F0.0018115942028985507
s(S'[[con]]'
p372
S'merged'
p373
tp374
F0.007246376811594203
s(S'[[adj]]'
p375
g61
tp376
F0.007246376811594203
s(S'of'
p377
g118
tp378
F0.0018115942028985507
s(S'[[det]]'
p379
g190
tp380
F0.0036231884057971015
s(g41
S'with'
p381
tp382
F0.0018115942028985507
s(S'selected'
p383
S'[[det]]'
p384
tp385
F0.005434782608695652
s(S'was'
p386
S'purchased'
p387
tp388
F0.007246376811594203
s(S'had'
p389
S'bought'
p390
tp391
F0.0018115942028985507
s(S'had'
p392
g22
tp393
F0.0018115942028985507
s(S'which'
p394
S'acquired'
p395
tp396
F0.0018115942028985507
s(S'has'
p397
S'bought'
p398
tp399
F0.0018115942028985507
s(S'be'
p400
S'merged'
p401
tp402
F0.005434782608695652
s(S'that'
p403
S'[[mod]]'
p404
tp405
F0.0036231884057971015
s(S'had'
p406
S'acquired'
p407
tp408
F0.007246376811594203
s(S'been'
p409
S'selected'
p410
tp411
F0.007246376811594203
s(S'which'
p412
g366
tp413
F0.0018115942028985507
s(S'be'
p414
S'purchased'
p415
tp416
F0.0018115942028985507
s(S's'
p417
S'subsidiary'
p418
tp419
F0.0018115942028985507
s(S'[[det]]'
p420
S'selected'
p421
tp422
F0.0018115942028985507
s(S'wholly'
p423
S'subsidiary'
p424
tp425
F0.0018115942028985507
s(S'[[adj]]'
p426
S'subsidiary'
p427
tp428
F0.0036231884057971015
s(S'retired'
p429
S'in'
p430
tp431
F0.0018115942028985507
s(S'school'
p432
S'[[adj]]'
p433
tp434
F0.0018115942028985507
s(S'of'
p435
S'is'
p436
tp437
F0.0018115942028985507
s(S'merged'
p438
S'[[prp]]'
p439
tp440
F0.0018115942028985507
s(g122
g115
tp441
F0.0018115942028985507
s(g417
S'division'
p442
tp443
F0.0018115942028985507
s(S'been'
p444
S'purchased'
p445
tp446
F0.0018115942028985507
s(S'[[adj]]'
p447
S'division'
p448
tp449
F0.005434782608695652
s(S'[[mod]]'
p450
S'leave'
p451
tp452
F0.012681159420289856
s(S'were'
p453
S'bought'
p454
tp455
F0.0018115942028985507
s(S'ucu'
p456
S'of'
p457
tp458
F0.0018115942028985507
s(S'[[det]]'
p459
g293
tp460
F0.0018115942028985507
s(g116
S'by'
p461
tp462
F0.0018115942028985507
s(S'work'
p463
S'at'
p464
tp465
F0.012681159420289856
s(S'[[con]]'
p466
S'school'
p467
tp468
F0.0018115942028985507
s(S'member'
p469
S'[[det]]'
p470
tp471
F0.0018115942028985507
s(g346
S'ucu'
p472
tp473
F0.0036231884057971015
s(S'currently'
p474
S'serves'
p475
tp476
F0.014492753623188406
s(S'station'
p477
g187
tp478
F0.0018115942028985507
s(S'subsidiary'
p479
S'of'
p480
tp481
F0.016304347826086956
s(S'school'
p482
S'to'
p483
tp484
F0.0018115942028985507
s(S'selected'
p485
S'after'
p486
tp487
F0.0018115942028985507
s(S'[[det]]'
p488
g94
tp489
F0.005434782608695652
s(S'later'
p490
S'bought'
p491
tp492
F0.0036231884057971015
s(S'were'
p493
g214
tp494
F0.0036231884057971015
s(S'also'
p495
S'selected'
p496
tp497
F0.012681159420289856
s(S'[[adj]]'
p498
g4
tp499
F0.012681159420289856
s(S'[[adj]]'
p500
S'selected'
p501
tp502
F0.0018115942028985507
s(S'retired'
p503
S'when'
p504
tp505
F0.0018115942028985507
s(S'when'
p506
S'merged'
p507
tp508
F0.0036231884057971015
s(S'not'
p509
S'selected'
p510
tp511
F0.005434782608695652
s(S'acquired'
p512
S'[[prp]]'
p513
tp514
F0.0018115942028985507
s(S'been'
p515
S'served'
p516
tp517
F0.0018115942028985507
s(g410
S'for'
p518
tp519
F0.012681159420289856
s(S'leave'
p520
S'for'
p521
tp522
F0.005434782608695652
s(S'was'
p523
S'bought'
p524
tp525
F0.007246376811594203
s(S'retired'
p526
S'with'
p527
tp528
F0.0018115942028985507
s(S'originally'
p529
S'on'
p530
tp531
F0.0018115942028985507
s(S'bought'
p532
S'[[pro]]'
p533
tp534
F0.0018115942028985507
s(S'acquired'
p535
S'in'
p536
tp537
F0.0018115942028985507
s(S'were'
p538
g351
tp539
F0.0018115942028985507
s(S'later'
p540
S'purchased'
p541
tp542
F0.0036231884057971015
s(S'work'
p543
S'[[adj]]'
p544
tp545
F0.0018115942028985507
s(S'purchased'
p546
S'[[num]]'
p547
tp548
F0.0018115942028985507
s(S'when'
p549
S'retired'
p550
tp551
F0.0018115942028985507
s(S'to'
p552
g520
tp553
F0.009057971014492754
s(S'then'
p554
S'merged'
p555
tp556
F0.0036231884057971015
s(S'bought'
p557
S'out'
p558
tp559
F0.0036231884057971015
s(S'acquired'
p560
S'from'
p561
tp562
F0.005434782608695652
s(S'retired'
p563
S'by'
p564
tp565
F0.0018115942028985507
s(S'also'
p566
S'acquired'
p567
tp568
F0.005434782608695652
s(S'[[det]]'
p569
g429
tp570
F0.0036231884057971015
s(g277
S'[[con]]'
p571
tp572
F0.0018115942028985507
s(g407
S'[[con]]'
p573
tp574
F0.007246376811594203
s(S'now'
p575
S'serves'
p576
tp577
F0.005434782608695652
s(S'[[adj]]'
p578
S'station'
p579
tp580
F0.0018115942028985507
s(S'owned'
p581
S'subsidiary'
p582
tp583
F0.012681159420289856
s(S'to'
p584
S'work'
p585
tp586
F0.010869565217391304
s(S'[[con]]'
p587
g249
tp588
F0.0036231884057971015
s(S'[[det]]'
p589
S'acquired'
p590
tp591
F0.0018115942028985507
s(g328
S'in'
p592
tp593
F0.005434782608695652
s(S'then'
p594
S'acquired'
p595
tp596
F0.0018115942028985507
s(g436
g231
tp597
F0.0018115942028985507
s(S'[[det]]'
p598
g322
tp599
F0.0036231884057971015
s(S'acquired'
p600
S'[[det]]'
p601
tp602
F0.005434782608695652
s(S'work'
p603
S'among'
p604
tp605
F0.0018115942028985507
s(S'also'
p606
S'purchased'
p607
tp608
F0.0018115942028985507
s(S'until'
p609
S'retired'
p610
tp611
F0.0018115942028985507
s(g417
S'work'
p612
tp613
F0.0036231884057971015
s(g92
S'[[det]]'
p614
tp615
F0.0036231884057971015
s(g268
S'[[con]]'
p616
tp617
F0.0018115942028985507
s(S'later'
p618
S'acquired'
p619
tp620
F0.005434782608695652
s(S'was'
p621
g169
tp622
F0.0036231884057971015
s(S'is'
p623
S'served'
p624
tp625
F0.007246376811594203
s(g274
S'by'
p626
tp627
F0.018115942028985508
s(S'retired'
p628
S'at'
p629
tp630
F0.0018115942028985507
s(g524
S'by'
p631
tp632
F0.005434782608695652
s(S'was'
p633
g203
tp634
F0.0018115942028985507
s(S'selected'
p635
S'against'
p636
tp637
F0.005434782608695652
s(S'acquired'
p638
S'with'
p639
tp640
F0.0018115942028985507
s(S'selected'
p641
S'as'
p642
tp643
F0.009057971014492754
s(S'serves'
p644
S'for'
p645
tp646
F0.007246376811594203
s(S'is'
p647
S'retired'
p648
tp649
F0.0036231884057971015
s(g624
S'by'
p650
tp651
F0.016304347826086956
s(S'[[con]]'
p652
S'leave'
p653
tp654
F0.0018115942028985507
s(S'selected'
p655
S'[[num]]'
p656
tp657
F0.0018115942028985507
s(S'only'
p658
S'served'
p659
tp660
F0.0018115942028985507
s(S'being'
p661
S'selected'
p662
tp663
F0.0018115942028985507
s(g451
S'[[con]]'
p664
tp665
F0.0018115942028985507
s(S'selected'
p666
S'[[con]]'
p667
tp668
F0.0018115942028985507
s(S'retired'
p669
S'[[con]]'
p670
tp671
F0.0018115942028985507
s(g271
S'into'
p672
tp673
F0.012681159420289856
s(S'bought'
p674
S'[[con]]'
p675
tp676
F0.005434782608695652
s(g265
g581
tp677
F0.012681159420289856
s(S'was'
p678
S'served'
p679
tp680
F0.0018115942028985507
s(S'had'
p681
g127
tp682
F0.005434782608695652
s(g516
S'in'
p683
tp684
F0.0036231884057971015
s.