(dp0
(S'used'
p1
S'after'
p2
tp3
F0.02702702702702703
s(S'use'
p4
S'[[con]]'
p5
tp6
F0.02702702702702703
s(S'used'
p7
S'during'
p8
tp9
F0.08108108108108109
s(S'use'
p10
S'of'
p11
tp12
F0.02702702702702703
s(S'use'
p13
S'as'
p14
tp15
F0.02702702702702703
s(S'used'
p16
S'in'
p17
tp18
F0.08108108108108109
s(S's'
p19
S'use'
p20
tp21
F0.02702702702702703
s(S'currently'
p22
g16
tp23
F0.02702702702702703
s(S'was'
p24
S'used'
p25
tp26
F0.24324324324324326
s(S'used'
p27
S'at'
p28
tp29
F0.02702702702702703
s(S'use'
p30
S'in'
p31
tp32
F0.02702702702702703
s(S'also'
p33
g27
tp34
F0.05405405405405406
s(S'used'
p35
S'[[det]]'
p36
tp37
F0.02702702702702703
s(S'used'
p38
S'for'
p39
tp40
F0.02702702702702703
s(S'used'
p41
S'until'
p42
tp43
F0.02702702702702703
s(S'used'
p44
S'with'
p45
tp46
F0.02702702702702703
s(S'[[adj]]'
p47
S'used'
p48
tp49
F0.02702702702702703
s(g25
S'from'
p50
tp51
F0.02702702702702703
s(S'[[adj]]'
p52
g10
tp53
F0.10810810810810811
s(S'use'
p54
S'to'
p55
tp56
F0.02702702702702703
s(S'name'
p57
S'used'
p58
tp59
F0.02702702702702703
s.