(dp0
(S'be'
p1
S'used'
p2
tp3
F0.06944444444444445
s(S'while'
p4
S'used'
p5
tp6
F0.013888888888888888
s(S'used'
p7
S'in'
p8
tp9
F0.09722222222222222
s(S'used'
p10
S'[[num]]'
p11
tp12
F0.027777777777777776
s(S'[[num]]'
p13
S'used'
p14
tp15
F0.013888888888888888
s(S'used'
p16
S'with'
p17
tp18
F0.013888888888888888
s(S'[[det]]'
p19
S'used'
p20
tp21
F0.013888888888888888
s(S'used'
p22
S'until'
p23
tp24
F0.013888888888888888
s(S'[[det]]'
p25
S'basis'
p26
tp27
F0.027777777777777776
s(S'used'
p28
S'from'
p29
tp30
F0.013888888888888888
s(S'often'
p31
S'used'
p32
tp33
F0.013888888888888888
s(S'later'
p34
S'used'
p35
tp36
F0.013888888888888888
s(S'as'
p37
S'used'
p38
tp39
F0.013888888888888888
s(S'was'
p40
S'used'
p41
tp42
F0.125
s(g41
S'as'
p43
tp44
F0.06944444444444445
s(S'used'
p45
S'[[det]]'
p46
tp47
F0.013888888888888888
s(g32
S'to'
p48
tp49
F0.041666666666666664
s(S'used'
p50
S'on'
p51
tp52
F0.05555555555555555
s(S'used'
p53
S'at'
p54
tp55
F0.027777777777777776
s(S'used'
p56
S'for'
p57
tp58
F0.05555555555555555
s(S'been'
p59
g56
tp60
F0.041666666666666664
s(S'is'
p61
g50
tp62
F0.08333333333333333
s(g26
S'of'
p63
tp64
F0.013888888888888888
s(S'basis'
p65
S'for'
p66
tp67
F0.013888888888888888
s(S'who'
p68
S'used'
p69
tp70
F0.013888888888888888
s(S'also'
p71
g53
tp72
F0.09722222222222222
s.