(dp0
(S'[[adj]]'
p1
S'saint'
p2
tp3
F0.018518518518518517
s(S'recognized'
p4
S'to'
p5
tp6
F0.018518518518518517
s(S'recognized'
p7
S'as'
p8
tp9
F0.05555555555555555
s(S'is'
p10
S'commemorated'
p11
tp12
F0.1111111111111111
s(S'venerated'
p13
S'as'
p14
tp15
F0.018518518518518517
s(S'commemorated'
p16
S'on'
p17
tp18
F0.018518518518518517
s(S'recognized'
p19
S'in'
p20
tp21
F0.05555555555555555
s(S'commemorated'
p22
S'[[det]]'
p23
tp24
F0.037037037037037035
s(S'commemorated'
p25
S'by'
p26
tp27
F0.018518518518518517
s(S'saint'
p28
S'in'
p29
tp30
F0.037037037037037035
s(g14
S'[[det]]'
p31
tp32
F0.018518518518518517
s(S'been'
p33
S'recognized'
p34
tp35
F0.07407407407407407
s(S'also'
p36
g19
tp37
F0.037037037037037035
s(S'commemorated'
p38
S'in'
p39
tp40
F0.037037037037037035
s(S'[[det]]'
p41
g28
tp42
F0.07407407407407407
s(S'saint'
p43
S'of'
p44
tp45
F0.018518518518518517
s(S'is'
p46
S'recognized'
p47
tp48
F0.037037037037037035
s(S'was'
p49
S'recognized'
p50
tp51
F0.09259259259259259
s(g50
S'at'
p52
tp53
F0.018518518518518517
s(S'recognized'
p54
S'[[con]]'
p55
tp56
F0.018518518518518517
s(S'is'
p57
g13
tp58
F0.018518518518518517
s(S'commemorated'
p59
S'at'
p60
tp61
F0.037037037037037035
s(S'recognized'
p62
S'by'
p63
tp64
F0.07407407407407407
s(S'also'
p65
S'commemorated'
p66
tp67
F0.05555555555555555
s.