(dp0
(S'ran'
p1
S'against'
p2
tp3
F0.005747126436781609
s(S'replaced'
p4
S'[[con]]'
p5
tp6
F0.008620689655172414
s(S'always'
p7
S'wanted'
p8
tp9
F0.0028735632183908046
s(S'[[adj]]'
p10
S'choice'
p11
tp12
F0.020114942528735632
s(S'appointed'
p13
S'first'
p14
tp15
F0.0028735632183908046
s(S'again'
p16
S'ran'
p17
tp18
F0.0028735632183908046
s(S'which'
p19
S'responded'
p20
tp21
F0.0028735632183908046
s(S'soon'
p22
S'replaced'
p23
tp24
F0.005747126436781609
s(S'appointed'
p25
S'was'
p26
tp27
F0.0028735632183908046
s(S'has'
p28
S'replaced'
p29
tp30
F0.0028735632183908046
s(S'choice'
p31
S'[[con]]'
p32
tp33
F0.005747126436781609
s(S'appointed'
p34
S'under'
p35
tp36
F0.0028735632183908046
s(S'when'
p37
S'appointed'
p38
tp39
F0.0028735632183908046
s(S'wanted'
p40
S'[[con]]'
p41
tp42
F0.0028735632183908046
s(S'ran'
p43
S'[[con]]'
p44
tp45
F0.0028735632183908046
s(S'ran'
p46
S'again'
p47
tp48
F0.0028735632183908046
s(S'[[det]]'
p49
S'choice'
p50
tp51
F0.008620689655172414
s(S'appointed'
p52
S'in'
p53
tp54
F0.005747126436781609
s(S'ran'
p55
S'for'
p56
tp57
F0.005747126436781609
s(S'wanted'
p58
S'[[pro]]'
p59
tp60
F0.0028735632183908046
s(S'later'
p61
S'appointed'
p62
tp63
F0.017241379310344827
s(S'wanted'
p64
S'[[det]]'
p65
tp66
F0.0028735632183908046
s(S'appointed'
p67
S'[[prp]]'
p68
tp69
F0.005747126436781609
s(S'appointed'
p70
S'where'
p71
tp72
F0.005747126436781609
s(S'responded'
p73
S'that'
p74
tp75
F0.005747126436781609
s(S'choice'
p76
S'in'
p77
tp78
F0.0028735632183908046
s(S'also'
p79
S'appointed'
p80
tp81
F0.017241379310344827
s(S'[[con]]'
p82
S'responded'
p83
tp84
F0.005747126436781609
s(S'ran'
p85
S'out'
p86
tp87
F0.0028735632183908046
s(S'[[con]]'
p88
g4
tp89
F0.017241379310344827
s(S'while'
p90
S'ran'
p91
tp92
F0.0028735632183908046
s(S'ran'
p93
S'[[prp]]'
p94
tp95
F0.0028735632183908046
s(S'choice'
p96
S'to'
p97
tp98
F0.0028735632183908046
s(S'that'
p99
S'replaced'
p100
tp101
F0.0028735632183908046
s(S'replaced'
p102
S'who'
p103
tp104
F0.0028735632183908046
s(g11
S'for'
p105
tp106
F0.011494252873563218
s(S'where'
p107
S'replaced'
p108
tp109
F0.0028735632183908046
s(S'that'
p110
S'appointed'
p111
tp112
F0.0028735632183908046
s(S'what'
p113
S'wanted'
p114
tp115
F0.0028735632183908046
s(S'also'
p116
S'ran'
p117
tp118
F0.008620689655172414
s(S's'
p119
S'choice'
p120
tp121
F0.008620689655172414
s(S'ran'
p122
S'into'
p123
tp124
F0.005747126436781609
s(S'[[det]]'
p125
S'ran'
p126
tp127
F0.0028735632183908046
s(S'if'
p128
S'wanted'
p129
tp130
F0.0028735632183908046
s(S'then'
p131
S'ran'
p132
tp133
F0.005747126436781609
s(S'responded'
p134
S'[[con]]'
p135
tp136
F0.0028735632183908046
s(S'that'
p137
S'wanted'
p138
tp139
F0.005747126436781609
s(S'replaced'
p140
S'while'
p141
tp142
F0.005747126436781609
s(S'is'
p143
S'appointed'
p144
tp145
F0.020114942528735632
s(S'appointed'
p146
S'[[num]]'
p147
tp148
F0.0028735632183908046
s(S'was'
p149
S'replaced'
p150
tp151
F0.02586206896551724
s(S'is'
p152
S'replaced'
p153
tp154
F0.008620689655172414
s(S'choice'
p155
S'of'
p156
tp157
F0.011494252873563218
s(S'ran'
p158
S'off'
p159
tp160
F0.0028735632183908046
s(S'which'
p161
S'replaced'
p162
tp163
F0.005747126436781609
s(S'[[adj]]'
p164
S'wanted'
p165
tp166
F0.0028735632183908046
s(S'when'
p167
S'replaced'
p168
tp169
F0.0028735632183908046
s(S'appointed'
p170
S'by'
p171
tp172
F0.040229885057471264
s(S'was'
p173
S'appointed'
p174
tp175
F0.040229885057471264
s(S'appointed'
p176
S'before'
p177
tp178
F0.0028735632183908046
s(S'replaced'
p179
S'[[adj]]'
p180
tp181
F0.005747126436781609
s(S'being'
p182
S'appointed'
p183
tp184
F0.014367816091954023
s(S'again'
p185
S'appointed'
p186
tp187
F0.008620689655172414
s(S'[[adj]]'
p188
S'ran'
p189
tp190
F0.0028735632183908046
s(S'because'
p191
S'wanted'
p192
tp193
F0.0028735632183908046
s(S'be'
p194
S'replaced'
p195
tp196
F0.008620689655172414
s(S'appointed'
p197
S'with'
p198
tp199
F0.005747126436781609
s(S'responded'
p200
S'by'
p201
tp202
F0.0028735632183908046
s(S'ran'
p203
S'when'
p204
tp205
F0.0028735632183908046
s(S'ran'
p206
S'with'
p207
tp208
F0.008620689655172414
s(S'being'
p209
S'replaced'
p210
tp211
F0.005747126436781609
s(S'who'
p212
S'replaced'
p213
tp214
F0.0028735632183908046
s(S'be'
p215
S'appointed'
p216
tp217
F0.017241379310344827
s(S'instead'
p218
S'appointed'
p219
tp220
F0.005747126436781609
s(S'appointed'
p221
S'[[det]]'
p222
tp223
F0.034482758620689655
s(S'appointed'
p224
S'[[adj]]'
p225
tp226
F0.008620689655172414
s(S'wanted'
p227
S'to'
p228
tp229
F0.008620689655172414
s(S'that'
p230
S'ran'
p231
tp232
F0.0028735632183908046
s(S'[[con]]'
p233
S'appointed'
p234
tp235
F0.011494252873563218
s(S'[[con]]'
p236
S'ran'
p237
tp238
F0.005747126436781609
s(g174
S'after'
p239
tp240
F0.005747126436781609
s(S'was'
p241
S'choice'
p242
tp243
F0.0028735632183908046
s(S'first'
p244
S'appointed'
p245
tp246
F0.011494252873563218
s(S'replaced'
p247
S'after'
p248
tp249
F0.005747126436781609
s(S'replaced'
p250
S'[[prp]]'
p251
tp252
F0.0028735632183908046
s(S'replaced'
p253
S'when'
p254
tp255
F0.0028735632183908046
s(g234
S'as'
p256
tp257
F0.03735632183908046
s(S'[[num]]'
p258
S'appointed'
p259
tp260
F0.005747126436781609
s(S'appointed'
p261
S'[[con]]'
p262
tp263
F0.022988505747126436
s(S'choice'
p264
S'as'
p265
tp266
F0.0028735632183908046
s(S'[[con]]'
p267
S'wanted'
p268
tp269
F0.0028735632183908046
s(S'then'
p270
S'replaced'
p271
tp272
F0.011494252873563218
s(S'wanted'
p273
S'[[adj]]'
p274
tp275
F0.0028735632183908046
s(S'[[adj]]'
p276
S'replaced'
p277
tp278
F0.0028735632183908046
s(S'also'
p279
S'replaced'
p280
tp281
F0.008620689655172414
s(S'replaced'
p282
S'with'
p283
tp284
F0.022988505747126436
s(S'appointed'
p285
S'[[pro]]'
p286
tp287
F0.005747126436781609
s(g153
S'as'
p288
tp289
F0.020114942528735632
s(S'then'
p290
g261
tp291
F0.017241379310344827
s(S'[[adj]]'
p292
S'appointed'
p293
tp294
F0.005747126436781609
s(S'when'
p295
S'ran'
p296
tp297
F0.0028735632183908046
s(g132
S'[[adj]]'
p298
tp299
F0.005747126436781609
s(g23
S'by'
p300
tp301
F0.03735632183908046
s(g162
S'[[det]]'
p302
tp303
F0.008620689655172414
s(S'had'
p304
S'appointed'
p305
tp306
F0.014367816091954023
s(S'later'
p307
S'replaced'
p308
tp309
F0.011494252873563218
s(S'been'
p310
S'appointed'
p311
tp312
F0.011494252873563218
s(S'responded'
p313
S'to'
p314
tp315
F0.0028735632183908046
s(g150
S'in'
p316
tp317
F0.005747126436781609
s(S'replaced'
p318
S'[[pro]]'
p319
tp320
F0.008620689655172414
s(S'were'
p321
g282
tp322
F0.005747126436781609
s(g245
S'when'
p323
tp324
F0.005747126436781609
s(S'[[det]]'
p325
S'replaced'
p326
tp327
F0.0028735632183908046
s(S'been'
p328
S'replaced'
p329
tp330
F0.0028735632183908046
s(g305
S'to'
p331
tp332
F0.017241379310344827
s(S'had'
p333
S'replaced'
p334
tp335
F0.011494252873563218
s(S'had'
p336
g227
tp337
F0.005747126436781609
s(S'[[det]]'
p338
S'appointed'
p339
tp340
F0.008620689655172414
s(S'appointed'
p341
S'of'
p342
tp343
F0.0028735632183908046
s(S'were'
p344
S'appointed'
p345
tp346
F0.005747126436781609
s(S'[[pro]]'
p347
S'replaced'
p348
tp349
F0.0028735632183908046
s(S'who'
p350
S'appointed'
p351
tp352
F0.0028735632183908046
s(S'who'
p353
S'ran'
p354
tp355
F0.0028735632183908046
s(S'[[prp]]'
p356
S'choice'
p357
tp358
F0.005747126436781609
s(S'replaced'
p359
S'from'
p360
tp361
F0.0028735632183908046
s(S'[[pro]]'
p362
S'wanted'
p363
tp364
F0.0028735632183908046
s.