(dp0
(S'performed'
p1
S'under'
p2
tp3
F0.013422818791946308
s(S'performed'
p4
S'along'
p5
tp6
F0.013422818791946308
s(S'then'
p7
S'performed'
p8
tp9
F0.006711409395973154
s(S'performed'
p10
S'on'
p11
tp12
F0.020134228187919462
s(S'performed'
p13
S'[[con]]'
p14
tp15
F0.026845637583892617
s(S'performed'
p16
S'[[num]]'
p17
tp18
F0.006711409395973154
s(S'[[det]]'
p19
S'performed'
p20
tp21
F0.013422818791946308
s(S'also'
p22
S'performed'
p23
tp24
F0.08053691275167785
s(S'[[num]]'
p25
S'performed'
p26
tp27
F0.020134228187919462
s(S'performed'
p28
S'to'
p29
tp30
F0.020134228187919462
s(S'[[con]]'
p31
S'voiced'
p32
tp33
F0.013422818791946308
s(S'voiced'
p34
S'by'
p35
tp36
F0.04697986577181208
s(S'voiced'
p37
S'[[det]]'
p38
tp39
F0.006711409395973154
s(S'performed'
p40
S'as'
p41
tp42
F0.020134228187919462
s(S'performed'
p43
S'[[det]]'
p44
tp45
F0.03355704697986577
s(S'performed'
p46
S'by'
p47
tp48
F0.053691275167785234
s(S'performed'
p49
S'before'
p50
tp51
F0.020134228187919462
s(S'voiced'
p52
S'in'
p53
tp54
F0.013422818791946308
s(S'later'
p55
S'performed'
p56
tp57
F0.006711409395973154
s(S'performed'
p58
S'for'
p59
tp60
F0.03355704697986577
s(S's'
p61
S'performed'
p62
tp63
F0.013422818791946308
s(S'first'
p64
S'performed'
p65
tp66
F0.020134228187919462
s(S'voiced'
p67
S'is'
p68
tp69
F0.006711409395973154
s(S'have'
p70
S'performed'
p71
tp72
F0.006711409395973154
s(S'had'
p73
S'performed'
p74
tp75
F0.026845637583892617
s(S'was'
p76
S'voiced'
p77
tp78
F0.026845637583892617
s(S'[[adj]]'
p79
S'performed'
p80
tp81
F0.006711409395973154
s(S'performed'
p82
S'[[pro]]'
p83
tp84
F0.006711409395973154
s(g23
S'with'
p85
tp86
F0.0738255033557047
s(g65
S'in'
p87
tp88
F0.013422818791946308
s(S'voiced'
p89
S'[[prp]]'
p90
tp91
F0.006711409395973154
s(S'where'
p92
S'performed'
p93
tp94
F0.013422818791946308
s(S'is'
p95
g34
tp96
F0.026845637583892617
s(S'also'
p97
S'voiced'
p98
tp99
F0.013422818791946308
s(S'often'
p100
S'performed'
p101
tp102
F0.020134228187919462
s(S'as'
p103
S'performed'
p104
tp105
F0.006711409395973154
s(S'in'
p106
S'voiced'
p107
tp108
F0.006711409395973154
s(S'which'
p109
S'performed'
p110
tp111
F0.006711409395973154
s(S'performed'
p112
S'together'
p113
tp114
F0.020134228187919462
s(S'performed'
p115
S'[[adj]]'
p116
tp117
F0.020134228187919462
s(S'has'
p118
S'voiced'
p119
tp120
F0.006711409395973154
s(S'has'
p121
S'performed'
p122
tp123
F0.08053691275167785
s(g122
S'from'
p124
tp125
F0.006711409395973154
s(S'[[con]]'
p126
S'performed'
p127
tp128
F0.040268456375838924
s(S'voiced'
p129
S'[[con]]'
p130
tp131
F0.020134228187919462
s(S'since'
p132
S'performed'
p133
tp134
F0.006711409395973154
s(S'voiced'
p135
S'[[adj]]'
p136
tp137
F0.006711409395973154
s(S'performed'
p138
S'was'
p139
tp140
F0.006711409395973154
s(S'[[det]]'
p141
S'voiced'
p142
tp143
F0.013422818791946308
s.