(dp0
(S'[[det]]'
p1
S'thriller'
p2
tp3
F0.0007486897928624906
s(S'track'
p4
S'[[con]]'
p5
tp6
F0.0002495632642874969
s(S'[[con]]'
p7
S'adapted'
p8
tp9
F0.0002495632642874969
s(S'[[adj]]'
p10
S'released'
p11
tp12
F0.0034938857000249564
s(S'comedy'
p13
S'horror'
p14
tp15
F0.0002495632642874969
s(S'made'
p16
S'by'
p17
tp18
F0.0002495632642874969
s(S'song'
p19
S'[[mod]]'
p20
tp21
F0.0002495632642874969
s(S'adventure'
p22
S'released'
p23
tp24
F0.0002495632642874969
s(S'written'
p25
S'composed'
p26
tp27
F0.0002495632642874969
s(S'[[det]]'
p28
S'soundtrack'
p29
tp30
F0.0002495632642874969
s(S'that'
p31
S'recorded'
p32
tp33
F0.0002495632642874969
s(S'rock'
p34
S'singer'
p35
tp36
F0.0002495632642874969
s(S'about'
p37
S'directed'
p38
tp39
F0.0004991265285749938
s(S'directed'
p40
S'based'
p41
tp42
F0.0004991265285749938
s(S'song'
p43
S'with'
p44
tp45
F0.0014973795857249812
s(S'directed'
p46
S'about'
p47
tp48
F0.0002495632642874969
s(S'[[det]]'
p49
S'cult'
p50
tp51
F0.0002495632642874969
s(S'titled'
p52
S'is'
p53
tp54
F0.0002495632642874969
s(S'[[adj]]'
p55
S'comedy'
p56
tp57
F0.007736461192912403
s(S'song'
p58
S'performed'
p59
tp60
F0.0014973795857249812
s(S'edited'
p61
S'[[con]]'
p62
tp63
F0.0002495632642874969
s(S'film'
p64
S'of'
p65
tp66
F0.0002495632642874969
s(S'family'
p67
S'film'
p68
tp69
F0.0007486897928624906
s(S'color'
p70
S'film'
p71
tp72
F0.0004991265285749938
s(S'[[num]]'
p73
S'crime'
p74
tp75
F0.006239081607187422
s(S'singer'
p76
S'in'
p77
tp78
F0.0002495632642874969
s(S'[[adj]]'
p79
S'composed'
p80
tp81
F0.0002495632642874969
s(S'composition'
p82
S'written'
p83
tp84
F0.0002495632642874969
s(S'[[num]]'
p85
S'road'
p86
tp87
F0.0004991265285749938
s(S'romance'
p88
S'film'
p89
tp90
F0.0014973795857249812
s(S'song'
p91
S'lyrics'
p92
tp93
F0.0002495632642874969
s(S'film'
p94
S'[[con]]'
p95
tp96
F0.0007486897928624906
s(S'composed'
p97
S'lyrics'
p98
tp99
F0.0002495632642874969
s(S'based'
p100
S'upon'
p101
tp102
F0.0002495632642874969
s(S's'
p103
S'written'
p104
tp105
F0.0004991265285749938
s(S'[[adj]]'
p106
S'film'
p107
tp108
F0.011729473421512353
s(S'[[det]]'
p109
S'ballad'
p110
tp111
F0.0002495632642874969
s(S'by'
p112
S'alternative'
p113
tp114
F0.0012478163214374844
s(S'into'
p115
S'[[det]]'
p116
tp117
F0.0002495632642874969
s(S'written'
p118
S'[[con]]'
p119
tp120
F0.02645370601447467
s(S'song'
p121
S'pop'
p122
tp123
F0.0002495632642874969
s(S'based'
p124
S'from'
p125
tp126
F0.0002495632642874969
s(S'[[con]]'
p127
S'is'
p128
tp129
F0.0002495632642874969
s(S'was'
p130
S'performed'
p131
tp132
F0.0014973795857249812
s(S'[[con]]'
p133
S'crime'
p134
tp135
F0.0002495632642874969
s(S'written'
p136
S'as'
p137
tp138
F0.0002495632642874969
s(S'[[det]]'
p139
S'metal'
p140
tp141
F0.0002495632642874969
s(S'[[det]]'
p142
S'title'
p143
tp144
F0.0024956326428749688
s(S'[[num]]'
p145
S'based'
p146
tp147
F0.0007486897928624906
s(g8
S'by'
p148
tp149
F0.0009982530571499876
s(S'[[det]]'
p150
S'rock'
p151
tp152
F0.0014973795857249812
s(S'directed'
p153
S'as'
p154
tp155
F0.0004991265285749938
s(S'by'
p156
S'[[adj]]'
p157
tp158
F0.005989518342899925
s(S'[[det]]'
p159
S'power'
p160
tp161
F0.0002495632642874969
s(S'by'
p162
S'starring'
p163
tp164
F0.009233840778637384
s(S'fantasy'
p165
S'adventure'
p166
tp167
F0.0002495632642874969
s(S'from'
p168
S'rock'
p169
tp170
F0.0004991265285749938
s(S'adapted'
p171
S'directed'
p172
tp173
F0.0002495632642874969
s(S'recorded'
p174
S'by'
p175
tp176
F0.005989518342899925
s(S'film'
p177
S'that'
p178
tp179
F0.0009982530571499876
s(S'performed'
p180
S'with'
p181
tp182
F0.0004991265285749938
s(S'film'
p183
S'for'
p184
tp185
F0.0002495632642874969
s(S'[[det]]'
p186
S'war'
p187
tp188
F0.0002495632642874969
s(S'is'
p189
S'written'
p190
tp191
F0.0007486897928624906
s(S'[[adj]]'
p192
S'fantasy'
p193
tp194
F0.0002495632642874969
s(S'film'
p195
S'based'
p196
tp197
F0.0014973795857249812
s(S'family'
p198
S'comedy'
p199
tp200
F0.0004991265285749938
s(S'is'
p201
S'[[adj]]'
p202
tp203
F0.0007486897928624906
s(S'recorded'
p204
S'[[con]]'
p205
tp206
F0.0004991265285749938
s(S'written'
p207
S'after'
p208
tp209
F0.0002495632642874969
s(S'track'
p210
S'from'
p211
tp212
F0.0002495632642874969
s(S'[[con]]'
p213
S'based'
p214
tp215
F0.0002495632642874969
s(S'directed'
p216
S'starring'
p217
tp218
F0.008235587721487397
s(S'[[det]]'
p219
S'produced'
p220
tp221
F0.0002495632642874969
s(S'[[adj]]'
p222
g82
tp223
F0.0002495632642874969
s(S'[[con]]'
p224
S'stars'
p225
tp226
F0.001996506114299975
s(S'[[con]]'
p227
S'title'
p228
tp229
F0.0002495632642874969
s(S'[[num]]'
p230
S'mystery'
p231
tp232
F0.0017469428500124782
s(S'movie'
p233
S'produced'
p234
tp235
F0.0002495632642874969
s(S'[[adj]]'
p236
S'horror'
p237
tp238
F0.0012478163214374844
s(S'adapted'
p239
S'from'
p240
tp241
F0.0004991265285749938
s(S'documentary'
p242
S'film'
p243
tp244
F0.0029947591714499623
s(S'adapted'
p245
S'[[num]]'
p246
tp247
F0.0002495632642874969
s(S'album'
p248
S'released'
p249
tp250
F0.0014973795857249812
s(S'drama'
p251
S'directed'
p252
tp253
F0.0009982530571499876
s(S'[[con]]'
p254
S'directed'
p255
tp256
F0.0239580733715997
s(S'been'
p257
S'performed'
p258
tp259
F0.0002495632642874969
s(S'screenplay'
p260
S'based'
p261
tp262
F0.0002495632642874969
s(S'[[det]]'
p263
S'script'
p264
tp265
F0.0002495632642874969
s(g196
S'directed'
p266
tp267
F0.0002495632642874969
s(S'[[num]]'
p268
S'fantasy'
p269
tp270
F0.0012478163214374844
s(S'[[det]]'
p271
S'time'
p272
tp273
F0.0002495632642874969
s(S'[[det]]'
p274
S'singer'
p275
tp276
F0.0004991265285749938
s(S'[[adj]]'
p277
S'produced'
p278
tp279
F0.0004991265285749938
s(S'mystery'
p280
S'film'
p281
tp282
F0.0017469428500124782
s(S'song'
p283
S'[[con]]'
p284
tp285
F0.0012478163214374844
s(S'by'
p286
S'recording'
p287
tp288
F0.0007486897928624906
s(S'[[adj]]'
p289
S'directed'
p290
tp291
F0.0009982530571499876
s(S'[[det]]'
p292
S'released'
p293
tp294
F0.0002495632642874969
s(S'[[prp]]'
p295
S'album'
p296
tp297
F0.0004991265285749938
s(S'made'
p298
S'directed'
p299
tp300
F0.0002495632642874969
s(S'be'
p301
S'released'
p302
tp303
F0.0004991265285749938
s(S'[[con]]'
p304
g61
tp305
F0.0004991265285749938
s(S'was'
p306
S'created'
p307
tp308
F0.0004991265285749938
s(g110
S'written'
p309
tp310
F0.0002495632642874969
s(S'pop'
p311
S'rock'
p312
tp313
F0.0002495632642874969
s(S'[[det]]'
p314
S'thrash'
p315
tp316
F0.0002495632642874969
s(S'also'
p317
S'performed'
p318
tp319
F0.0002495632642874969
s(S'song'
p320
S'is'
p321
tp322
F0.0002495632642874969
s(S'comedydrama'
p323
S'film'
p324
tp325
F0.003743448964312453
s(S'song'
p326
S'[[adj]]'
p327
tp328
F0.0002495632642874969
s(S'performed'
p329
S'[[con]]'
p330
tp331
F0.0004991265285749938
s(S'[[adj]]'
p332
S'written'
p333
tp334
F0.0012478163214374844
s(S'written'
p335
S'to'
p336
tp337
F0.0002495632642874969
s(S'film'
p338
S'was'
p339
tp340
F0.0002495632642874969
s(S'is'
p341
g180
tp342
F0.0002495632642874969
s(S'[[adj]]'
p343
S'drama'
p344
tp345
F0.005490391814324931
s(S'[[num]]'
p346
S'comedy'
p347
tp348
F0.00873471425006239
s(S'cast'
p349
S'comedydrama'
p350
tp351
F0.0002495632642874969
s(S'starring'
p352
S'[[det]]'
p353
tp354
F0.0007486897928624906
s(S'[[num]]'
p355
S'drama'
p356
tp357
F0.008235587721487397
s(S'[[adj]]'
p358
S'starring'
p359
tp360
F0.0002495632642874969
s(S'[[con]]'
p361
S'songs'
p362
tp363
F0.0002495632642874969
s(S'[[det]]'
p364
S'project'
p365
tp366
F0.0002495632642874969
s(g59
S'by'
p367
tp368
F0.0034938857000249564
s(S'[[num]]'
p369
S'starring'
p370
tp371
F0.0004991265285749938
s(S'comedy'
p372
S'drama'
p373
tp374
F0.0007486897928624906
s(S'starring'
p375
S'as'
p376
tp377
F0.0012478163214374844
s(S'written'
p378
S'with'
p379
tp380
F0.0004991265285749938
s(S'gentleman'
p381
S'[[num]]'
p382
tp383
F0.0002495632642874969
s(S'[[adj]]'
p384
S'songwriter'
p385
tp386
F0.0002495632642874969
s(S'drama'
p387
g118
tp388
F0.0002495632642874969
s(S'comedy'
p389
S'starring'
p390
tp391
F0.0004991265285749938
s(S'band'
p392
g103
tp393
F0.0004991265285749938
s(S'written'
p394
S'about'
p395
tp396
F0.0002495632642874969
s(S'crime'
p397
S'film'
p398
tp399
F0.005240828550037434
s(S'film'
p400
S'starring'
p401
tp402
F0.0239580733715997
s(S'on'
p403
S'album'
p404
tp405
F0.0002495632642874969
s(S'[[adj]]'
p406
S'metal'
p407
tp408
F0.002246069378587472
s(S'from'
p409
S'debut'
p410
tp411
F0.0004991265285749938
s(S'was'
p412
S'produced'
p413
tp414
F0.0027451959071624656
s(S'war'
p415
S'film'
p416
tp417
F0.0017469428500124782
s(S'[[adj]]'
p418
S'success'
p419
tp420
F0.0002495632642874969
s(S'directed'
p421
S'produced'
p422
tp423
F0.0014973795857249812
s(S'[[det]]'
p424
S'pop'
p425
tp426
F0.0012478163214374844
s(S'track'
p427
S'was'
p428
tp429
F0.0002495632642874969
s(S'composed'
p430
S'by'
p431
tp432
F0.001996506114299975
s(S'is'
p433
S'[[det]]'
p434
tp435
F0.0002495632642874969
s(S'[[adj]]'
p436
S'adventure'
p437
tp438
F0.0004991265285749938
s(g419
S'for'
p439
tp440
F0.0002495632642874969
s(S'not'
p441
S'released'
p442
tp443
F0.0002495632642874969
s(S'with'
p444
S'[[det]]'
p445
tp446
F0.0009982530571499876
s(S'by'
p447
S'[[con]]'
p448
tp449
F0.012977289742949838
s(S'novel'
p450
S'by'
p451
tp452
F0.0009982530571499876
s(S'[[con]]'
p453
S'music'
p454
tp455
F0.0002495632642874969
s(S'country'
p456
S'music'
p457
tp458
F0.0024956326428749688
s(S'adapted'
p459
S'into'
p460
tp461
F0.0004991265285749938
s(S'been'
p462
S'recorded'
p463
tp464
F0.0007486897928624906
s(S'album'
p465
g168
tp466
F0.0012478163214374844
s(S'as'
p467
S'[[det]]'
p468
tp469
F0.0002495632642874969
s(S'released'
p470
S'[[con]]'
p471
tp472
F0.0012478163214374844
s(S'feature'
p473
S'film'
p474
tp475
F0.003743448964312453
s(S'was'
p476
S'written'
p477
tp478
F0.009483404042924881
s(S'[[adj]]'
p479
S'mystery'
p480
tp481
F0.0002495632642874969
s(S'also'
p482
S'recorded'
p483
tp484
F0.0004991265285749938
s(S'[[det]]'
p485
S'novel'
p486
tp487
F0.0002495632642874969
s(S'produced'
p488
S'with'
p489
tp490
F0.0007486897928624906
s(S'[[det]]'
p491
g22
tp492
F0.0002495632642874969
s(S'punk'
p493
S'band'
p494
tp495
F0.0002495632642874969
s(S'is'
p496
S'debut'
p497
tp498
F0.0002495632642874969
s(S'adapted'
p499
g467
tp500
F0.0002495632642874969
s(S'songs'
p501
S'by'
p502
tp503
F0.0002495632642874969
s(S'[[adj]]'
p504
g397
tp505
F0.0012478163214374844
s(S'[[adj]]'
p506
S'studio'
p507
tp508
F0.005739955078612428
s(S'made'
p509
S'[[con]]'
p510
tp511
F0.0002495632642874969
s(S'was'
p512
g459
tp513
F0.002246069378587472
s(S'produced'
p514
S'by'
p515
tp516
F0.00973296730721238
s(S'ends'
p517
S'with'
p518
tp519
F0.0002495632642874969
s(S'performed'
p520
S'from'
p521
tp522
F0.0002495632642874969
s(S'[[det]]'
p523
S'directed'
p524
tp525
F0.0002495632642874969
s(S'starring'
p526
S'directed'
p527
tp528
F0.0004991265285749938
s(S'based'
p529
S'was'
p530
tp531
F0.0002495632642874969
s(S'singer'
p532
S'written'
p533
tp534
F0.0002495632642874969
s(S'produced'
p535
S'[[con]]'
p536
tp537
F0.005989518342899925
s(S'studio'
p538
S'album'
p539
tp540
F0.006239081607187422
s(S'[[num]]'
p541
S'detective'
p542
tp543
F0.0004991265285749938
s(S'based'
p544
S'[[con]]'
p545
tp546
F0.0007486897928624906
s(S'debut'
p547
S'studio'
p548
tp549
F0.0002495632642874969
s(g56
S'film'
p550
tp551
F0.01672073870726229
s(S'by'
p552
S'produced'
p553
tp554
F0.0002495632642874969
s(S'song'
p555
S'composed'
p556
tp557
F0.0017469428500124782
s(S'song'
p558
S'on'
p559
tp560
F0.0002495632642874969
s(g86
S'movie'
p561
tp562
F0.0004991265285749938
s(S'[[det]]'
p563
S'country'
p564
tp565
F0.0009982530571499876
s(S'thriller'
p566
S'film'
p567
tp568
F0.00873471425006239
s(S'[[num]]'
p569
S'action'
p570
tp571
F0.005989518342899925
s(S'is'
p572
S'composed'
p573
tp574
F0.0007486897928624906
s(S'as'
p575
S'[[num]]'
p576
tp577
F0.0002495632642874969
s(S'[[num]]'
p578
S'produced'
p579
tp580
F0.0004991265285749938
s(S'directed'
p581
S'which'
p582
tp583
F0.0002495632642874969
s(S'[[adj]]'
p584
S'performed'
p585
tp586
F0.0002495632642874969
s(S'[[det]]'
p587
S'drama'
p588
tp589
F0.0007486897928624906
s(S'comedy'
p590
S'action'
p591
tp592
F0.0002495632642874969
s(S'starred'
p593
S'by'
p594
tp595
F0.0002495632642874969
s(S'written'
p596
S'by'
p597
tp598
F0.02320938357873721
s(S'song'
p599
S'in'
p600
tp601
F0.0002495632642874969
s(g178
g476
tp602
F0.0009982530571499876
s(g50
S'[[num]]'
p603
tp604
F0.0002495632642874969
s(S'[[det]]'
p605
g381
tp606
F0.0002495632642874969
s(S'be'
p607
S'taken'
p608
tp609
F0.0002495632642874969
s(S'is'
p610
g100
tp611
F0.0014973795857249812
s(S'of'
p612
S'[[det]]'
p613
tp614
F0.0017469428500124782
s(S'produced'
p615
S'directed'
p616
tp617
F0.0009982530571499876
s(S'starring'
p618
S'[[con]]'
p619
tp620
F0.022211130521587224
s(S'produced'
p621
S'at'
p622
tp623
F0.0002495632642874969
s(S'was'
p624
g430
tp625
F0.0004991265285749938
s(S'language'
p626
g400
tp627
F0.0014973795857249812
s(S'title'
p628
S'[[con]]'
p629
tp630
F0.0004991265285749938
s(S'[[num]]'
p631
g626
tp632
F0.0009982530571499876
s(g65
S'directed'
p633
tp634
F0.0002495632642874969
s(S'was'
p635
S'recorded'
p636
tp637
F0.0009982530571499876
s(S'by'
p638
S'featuring'
p639
tp640
F0.0002495632642874969
s(S'[[num]]'
p641
S'movie'
p642
tp643
F0.0014973795857249812
s(S'screenplay'
p644
S'written'
p645
tp646
F0.0002495632642874969
s(S'[[det]]'
p647
g70
tp648
F0.0004991265285749938
s(S'[[adj]]'
p649
S'debut'
p650
tp651
F0.0004991265285749938
s(S'then'
p652
S'performed'
p653
tp654
F0.0002495632642874969
s(S'was'
p655
g544
tp656
F0.0007486897928624906
s(g460
S'[[num]]'
p657
tp658
F0.0002495632642874969
s(g550
S'directed'
p659
tp660
F0.0641377589218867
s(S'rock'
p661
S'band'
p662
tp663
F0.010481657100074869
s(g582
S'starred'
p664
tp665
F0.0002495632642874969
s(S'[[adj]]'
p666
S'romance'
p667
tp668
F0.0002495632642874969
s(S'[[det]]'
p669
S'death'
p670
tp671
F0.0007486897928624906
s(S'by'
p672
S'death'
p673
tp674
F0.0004991265285749938
s(S'created'
p675
S'with'
p676
tp677
F0.0002495632642874969
s(S'album'
p678
S'rock'
p679
tp680
F0.0002495632642874969
s(S'from'
p681
S'[[adj]]'
p682
tp683
F0.0004991265285749938
s(S'action'
p684
S'film'
p685
tp686
F0.0049912652857499375
s(S'[[det]]'
p687
S'hit'
p688
tp689
F0.0002495632642874969
s(S'known'
p690
g575
tp691
F0.0002495632642874969
s(S'by'
p692
S'indie'
p693
tp694
F0.0014973795857249812
s(S'by'
p695
g456
tp696
F0.001996506114299975
s(S'[[det]]'
p697
S'documentary'
p698
tp699
F0.0009982530571499876
s(S'film'
p700
S'stars'
p701
tp702
F0.0002495632642874969
s(S'assassination'
p703
S'[[con]]'
p704
tp705
F0.0002495632642874969
s(S'[[det]]'
p706
S'mystery'
p707
tp708
F0.0002495632642874969
s(S'band'
p709
S'released'
p710
tp711
F0.0004991265285749938
s(g659
S'[[con]]'
p712
tp713
F0.036436236585974544
s(S'is'
p714
S'created'
p715
tp716
F0.0002495632642874969
s(S'band'
p717
S'album'
p718
tp719
F0.0002495632642874969
s(S'as'
p720
S'from'
p721
tp722
F0.0002495632642874969
s(g410
S'album'
p723
tp724
F0.0027451959071624656
s(S'by'
p725
S'punk'
p726
tp727
F0.0004991265285749938
s(g445
S'screenplay'
p728
tp729
F0.0009982530571499876
s(S'[[det]]'
p730
S'film'
p731
tp732
F0.004741702021462441
s(S'article'
p733
S'is'
p734
tp735
F0.0002495632642874969
s(S'[[num]]'
p736
S'horror'
p737
tp738
F0.0032443224357374596
s(g636
S'with'
p739
tp740
F0.0007486897928624906
s(g11
S'after'
p741
tp742
F0.0002495632642874969
s(S'[[adj]]'
p743
g566
tp744
F0.001996506114299975
s(S'[[det]]'
p745
S'language'
p746
tp747
F0.0004991265285749938
s(S'[[num]]'
p748
S'thriller'
p749
tp750
F0.004492138757174944
s(S'track'
p751
S'on'
p752
tp753
F0.0004991265285749938
s(S'film'
p754
S'is'
p755
tp756
F0.0002495632642874969
s(S'aka'
p757
S'is'
p758
tp759
F0.0007486897928624906
s(S'song'
p760
S'was'
p761
tp762
F0.0004991265285749938
s(S'composed'
p763
S'with'
p764
tp765
F0.0009982530571499876
s(S'featuring'
p766
S'[[con]]'
p767
tp768
F0.0002495632642874969
s(S'originally'
p769
S'recorded'
p770
tp771
F0.0002495632642874969
s(S'song'
p772
S'written'
p773
tp774
F0.010481657100074869
s(S'with'
p775
S'music'
p776
tp777
F0.0002495632642874969
s(S'noir'
p778
S'starring'
p779
tp780
F0.0002495632642874969
s(S'[[det]]'
p781
S'comedy'
p782
tp783
F0.0014973795857249812
s(S'directed'
p784
S'gt'
p785
tp786
F0.0002495632642874969
s(S'by'
p787
S'lead'
p788
tp789
F0.0004991265285749938
s(S'[[adj]]'
p790
S'piece'
p791
tp792
F0.0002495632642874969
s(S'television'
p793
S'film'
p794
tp795
F0.0007486897928624906
s(S'[[adj]]'
p796
S'created'
p797
tp798
F0.0002495632642874969
s(S'be'
p799
S'written'
p800
tp801
F0.0004991265285749938
s(S'compilation'
p802
S'album'
p803
tp804
F0.0007486897928624906
s(S'[[num]]'
p805
S'written'
p806
tp807
F0.0007486897928624906
s(g693
S'rock'
p808
tp809
F0.0014973795857249812
s(S'track'
p810
S'of'
p811
tp812
F0.0004991265285749938
s(S'produced'
p813
S'from'
p814
tp815
F0.0007486897928624906
s(g113
S'rock'
p816
tp817
F0.001996506114299975
s(S'at'
p818
g271
tp819
F0.0002495632642874969
s(S'film'
p820
S'in'
p821
tp822
F0.0002495632642874969
s(S'directed'
p823
S'that'
p824
tp825
F0.0002495632642874969
s(S'[[con]]'
p826
g593
tp827
F0.0002495632642874969
s(S'[[det]]'
p828
S'album'
p829
tp830
F0.0014973795857249812
s(S'in'
p831
S'recorded'
p832
tp833
F0.0002495632642874969
s(S'folk'
p834
S'song'
p835
tp836
F0.0002495632642874969
s(S'[[adj]]'
p837
S'[[con]]'
p838
tp839
F0.0004991265285749938
s(g41
S'by'
p840
tp841
F0.0029947591714499623
s(S'[[det]]'
p842
S'songs'
p843
tp844
F0.0002495632642874969
s(g339
S'released'
p845
tp846
F0.0009982530571499876
s(g824
S'starred'
p847
tp848
F0.0002495632642874969
s(g642
S'[[con]]'
p849
tp850
F0.0002495632642874969
s(S'of'
p851
S'songs'
p852
tp853
F0.0002495632642874969
s(g157
S'rock'
p854
tp855
F0.0029947591714499623
s(S'country'
p856
S'song'
p857
tp858
F0.0002495632642874969
s(g737
S'film'
p859
tp860
F0.006488644871474919
s(g670
S'metal'
p861
tp862
F0.002246069378587472
s(S'performed'
p863
S'[[adj]]'
p864
tp865
F0.0002495632642874969
s(S'[[det]]'
p866
S'debut'
p867
tp868
F0.0029947591714499623
s(S'be'
p869
S'produced'
p870
tp871
F0.0002495632642874969
s(S'fantasy'
p872
S'film'
p873
tp874
F0.0009982530571499876
s(S'film'
p875
S'with'
p876
tp877
F0.0002495632642874969
s(S'[[con]]'
p878
S'featuring'
p879
tp880
F0.001996506114299975
s(g859
S'from'
p881
tp882
F0.0009982530571499876
s(S'[[con]]'
p883
S'producer'
p884
tp885
F0.0002495632642874969
s(S'sports'
p886
S'drama'
p887
tp888
F0.0002495632642874969
s(S'known'
p889
g201
tp890
F0.0029947591714499623
s(S'released'
p891
S'from'
p892
tp893
F0.0007486897928624906
s(S'[[adj]]'
p894
g678
tp895
F0.005240828550037434
s(S'film'
p896
g358
tp897
F0.0012478163214374844
s(S'[[con]]'
p898
S'performed'
p899
tp900
F0.0007486897928624906
s(S'released'
p901
S'by'
p902
tp903
F0.0034938857000249564
s(g712
g618
tp904
F0.03718492637883704
s(S'film'
p905
S'by'
p906
tp907
F0.0027451959071624656
s(S'song'
p908
S'from'
p909
tp910
F0.0004991265285749938
s(S'also'
p911
g889
tp912
F0.0027451959071624656
s(S'[[num]]'
p913
g473
tp914
F0.0017469428500124782
s(g356
S'film'
p915
tp916
F0.016221612178687297
s(S'song'
p917
g103
tp918
F0.0002495632642874969
s(S'by'
p919
S'singer'
p920
tp921
F0.001996506114299975
s(S'songs'
p922
S'[[con]]'
p923
tp924
F0.0002495632642874969
s(S'on'
p925
g828
tp926
F0.0002495632642874969
s(S'thriller'
p927
S'written'
p928
tp929
F0.0002495632642874969
s(S'country'
p930
S'artist'
p931
tp932
F0.0002495632642874969
s(S'written'
p933
S'in'
p934
tp935
F0.0004991265285749938
s(g734
S'[[num]]'
p936
tp937
F0.0034938857000249564
s(S'adapted'
p938
S'[[con]]'
p939
tp940
F0.0004991265285749938
s(S'written'
p941
S'jointly'
p942
tp943
F0.0002495632642874969
s(g608
S'from'
p944
tp945
F0.0002495632642874969
s(S'released'
p946
S'starring'
p947
tp948
F0.0009982530571499876
s(S'[[num]]'
p949
S'adventure'
p950
tp951
F0.0017469428500124782
s(S'[[adj]]'
p952
S'death'
p953
tp954
F0.0007486897928624906
s(S'sung'
p955
S'by'
p956
tp957
F0.0002495632642874969
s(S'[[prp]]'
p958
S'project'
p959
tp960
F0.0002495632642874969
s(g92
S'by'
p961
tp962
F0.0024956326428749688
s(S'[[adj]]'
p963
g772
tp964
F0.005240828550037434
s(S'music'
p965
S'song'
p966
tp967
F0.0004991265285749938
s(S'film'
p968
S'drama'
p969
tp970
F0.0002495632642874969
s(S'pop'
p971
S'singer'
p972
tp973
F0.0007486897928624906
s(S'thriller'
p974
S'directed'
p975
tp976
F0.0007486897928624906
s(S'released'
p977
S'is'
p978
tp979
F0.0002495632642874969
s(S'had'
p980
S'recorded'
p981
tp982
F0.0002495632642874969
s(g950
S'film'
p983
tp984
F0.0027451959071624656
s(S'song'
p985
S'[[det]]'
p986
tp987
F0.0004991265285749938
s(S'is'
p988
S'directed'
p989
tp990
F0.0009982530571499876
s(S'[[adj]]'
p991
S'novel'
p992
tp993
F0.0002495632642874969
s(S'song'
p994
S'by'
p995
tp996
F0.006488644871474919
s(S'were'
p997
S'created'
p998
tp999
F0.0002495632642874969
s(S'by'
p1000
S'singersongwriter'
p1001
tp1002
F0.0002495632642874969
s(S'also'
p1003
S'adapted'
p1004
tp1005
F0.0002495632642874969
s(g228
g810
tp1006
F0.0004991265285749938
s(S'[[num]]'
p1007
g793
tp1008
F0.0009982530571499876
s(g425
S'song'
p1009
tp1010
F0.0009982530571499876
s(S'released'
p1011
g925
tp1012
F0.0004991265285749938
s(S'comedy'
p1013
S'family'
p1014
tp1015
F0.0002495632642874969
s(g29
S'directed'
p1016
tp1017
F0.0002495632642874969
s(S'[[det]]'
p1018
g649
tp1019
F0.0002495632642874969
s(g175
g971
tp1020
F0.0007486897928624906
s(S'[[det]]'
p1021
S'song'
p1022
tp1023
F0.017219865235837285
s(g307
S'by'
p1024
tp1025
F0.0012478163214374844
s(S'[[num]]'
p1026
g198
tp1027
F0.0012478163214374844
s(S'[[det]]'
p1028
S'written'
p1029
tp1030
F0.0004991265285749938
s(S'music'
p1031
S'artist'
p1032
tp1033
F0.0009982530571499876
s(S'drama'
p1034
S'[[adj]]'
p1035
tp1036
F0.0004991265285749938
s(g407
S'band'
p1037
tp1038
F0.0079860244571999
s(S'created'
p1039
S'[[con]]'
p1040
tp1041
F0.0002495632642874969
s(S'by'
p1042
S'director'
p1043
tp1044
F0.0007486897928624906
s(S'[[adj]]'
p1045
S'track'
p1046
tp1047
F0.001996506114299975
s(S'in'
p1048
g369
tp1049
F0.0004991265285749938
s(g791
S'written'
p1050
tp1051
F0.0002495632642874969
s(S'been'
p1052
S'written'
p1053
tp1054
F0.0004991265285749938
s(S'was'
p1055
S'directed'
p1056
tp1057
F0.004741702021462441
s(S'film'
p1058
g778
tp1059
F0.0009982530571499876
s(S'punk'
p1060
S'rock'
p1061
tp1062
F0.0009982530571499876
s(g74
g387
tp1063
F0.002246069378587472
s(S'then'
p1064
g621
tp1065
F0.0002495632642874969
s(g843
S'with'
p1066
tp1067
F0.0002495632642874969
s(S'song'
p1068
S'featuring'
p1069
tp1070
F0.0002495632642874969
s(S'film'
p1071
g37
tp1072
F0.0009982530571499876
s(S'later'
p1073
S'adapted'
p1074
tp1075
F0.0002495632642874969
s(S'rock'
p1076
S'[[con]]'
p1077
tp1078
F0.0004991265285749938
s(S'[[det]]'
p1079
g1060
tp1080
F0.0007486897928624906
s(S'[[det]]'
p1081
g834
tp1082
F0.0002495632642874969
s(S'by'
p1083
g274
tp1084
F0.006239081607187422
s(S'comedy'
p1085
S'written'
p1086
tp1087
F0.0002495632642874969
s(S'[[adj]]'
p1088
g349
tp1089
F0.0002495632642874969
s(S'film'
p1090
g946
tp1091
F0.0007486897928624906
s(S'credited'
p1092
S'to'
p1093
tp1094
F0.0009982530571499876
s(g776
S'written'
p1095
tp1096
F0.0004991265285749938
s(S'song'
p1097
S'of'
p1098
tp1099
F0.0002495632642874969
s(S'not'
p1100
S'written'
p1101
tp1102
F0.0002495632642874969
s(S'[[det]]'
p1103
S'musician'
p1104
tp1105
F0.0002495632642874969
s(S'arts'
p1106
S'film'
p1107
tp1108
F0.0007486897928624906
s(S'family'
p1109
S'adventure'
p1110
tp1111
F0.0002495632642874969
s(S'drama'
p1112
S'starring'
p1113
tp1114
F0.0002495632642874969
s(g103
S'lead'
p1115
tp1116
F0.0002495632642874969
s(g542
S'film'
p1117
tp1118
F0.0004991265285749938
s(S'by'
p1119
S'musician'
p1120
tp1121
F0.0002495632642874969
s(S'[[con]]'
p1122
g955
tp1123
F0.0002495632642874969
s(S'[[det]]'
p1124
S'singersongwriter'
p1125
tp1126
F0.0002495632642874969
s(g942
g787
tp1127
F0.0002495632642874969
s(g811
g295
tp1128
F0.0004991265285749938
s(S'[[num]]'
p1129
g88
tp1130
F0.0012478163214374844
s(S'marks'
p1131
g1018
tp1132
F0.0002495632642874969
s(S'is'
p1133
S'produced'
p1134
tp1135
F0.0002495632642874969
s(S'[[det]]'
p1136
S'starring'
p1137
tp1138
F0.0002495632642874969
s(S'by'
p1139
S'rock'
p1140
tp1141
F0.002246069378587472
s(g23
g1048
tp1142
F0.0002495632642874969
s(g231
S'thriller'
p1143
tp1144
F0.0002495632642874969
s(S'with'
p1145
S'lyrics'
p1146
tp1147
F0.001996506114299975
s(S'television'
p1148
S'drama'
p1149
tp1150
F0.0002495632642874969
s(g785
S'[[con]]'
p1151
tp1152
F0.0002495632642874969
s(S'[[adj]]'
p1153
S'recorded'
p1154
tp1155
F0.0002495632642874969
s(g788
S'singer'
p1156
tp1157
F0.0007486897928624906
s(g26
S'[[con]]'
p1158
tp1159
F0.0002495632642874969
s(g881
S'directed'
p1160
tp1161
F0.0004991265285749938
s(S'released'
p1162
g720
tp1163
F0.0012478163214374844
s(S'were'
p1164
S'produced'
p1165
tp1166
F0.0002495632642874969
s(S'mystery'
p1167
S'crime'
p1168
tp1169
F0.0002495632642874969
s(S'[[det]]'
p1170
S'horror'
p1171
tp1172
F0.0007486897928624906
s(S'[[det]]'
p1173
g886
tp1174
F0.0002495632642874969
s(S'[[adj]]'
p1175
S'movie'
p1176
tp1177
F0.0002495632642874969
s(S'starring'
p1178
S'with'
p1179
tp1180
F0.0004991265285749938
s(S'[[num]]'
p1181
g323
tp1182
F0.002246069378587472
s(g151
S'song'
p1183
tp1184
F0.0007486897928624906
s(S'[[det]]'
p1185
S'based'
p1186
tp1187
F0.0002495632642874969
s(S'[[det]]'
p1188
g392
tp1189
F0.0017469428500124782
s(S'was'
p1190
S'film'
p1191
tp1192
F0.0002495632642874969
s(S'comedy'
p1193
S'crime'
p1194
tp1195
F0.0002495632642874969
s(S'later'
p1196
S'performed'
p1197
tp1198
F0.0002495632642874969
s(S'first'
p1199
S'produced'
p1200
tp1201
F0.0004991265285749938
s(S'[[adj]]'
p1202
S'band'
p1203
tp1204
F0.0004991265285749938
s(S'[[num]]'
p1205
g415
tp1206
F0.0012478163214374844
s(S'by'
p1207
S'thrash'
p1208
tp1209
F0.0002495632642874969
s(S'was'
p1210
g1092
tp1211
F0.0002495632642874969
s(S'from'
p1212
S'album'
p1213
tp1214
F0.0012478163214374844
s(g347
S'directed'
p1215
tp1216
F0.0014973795857249812
s(S'[[num]]'
p1217
S'song'
p1218
tp1219
F0.0027451959071624656
s(S'[[det]]'
p1220
S'feature'
p1221
tp1222
F0.0009982530571499876
s(S'[[con]]'
p1223
S'lyrics'
p1224
tp1225
F0.0004991265285749938
s(S'film'
p1226
S'written'
p1227
tp1228
F0.0159720489143998
s(g704
S'action'
p1229
tp1230
F0.0002495632642874969
s(S'written'
p1231
S'directed'
p1232
tp1233
F0.0012478163214374844
s(S'from'
p1234
S'[[det]]'
p1235
tp1236
F0.0007486897928624906
s(g989
S'at'
p1237
tp1238
F0.0002495632642874969
s(S'crime'
p1239
S'thriller'
p1240
tp1241
F0.0009982530571499876
s(S'[[num]]'
p1242
S'novel'
p1243
tp1244
F0.0002495632642874969
s(S'debut'
p1245
S'[[adj]]'
p1246
tp1247
F0.0004991265285749938
s(S'by'
p1248
S'metal'
p1249
tp1250
F0.0009982530571499876
s(S'written'
p1251
S'for'
p1252
tp1253
F0.0007486897928624906
s(S'edited'
p1254
S'by'
p1255
tp1256
F0.0002495632642874969
s(g570
S'thriller'
p1257
tp1258
F0.0009982530571499876
s(S'is'
p1259
S'film'
p1260
tp1261
F0.0002495632642874969
s(S'action'
p1262
S'written'
p1263
tp1264
F0.0004991265285749938
s(S'songs'
p1265
S'written'
p1266
tp1267
F0.0004991265285749938
s(S'film'
p1268
g16
tp1269
F0.0009982530571499876
s(S'[[det]]'
p1270
g802
tp1271
F0.0007486897928624906
s(S'[[adj]]'
p1272
S'action'
p1273
tp1274
F0.0009982530571499876
s(S'recorded'
p1275
S'during'
p1276
tp1277
F0.0002495632642874969
s(S'not'
p1278
S'based'
p1279
tp1280
F0.0002495632642874969
s(g698
S'directed'
p1281
tp1282
F0.0004991265285749938
s(S'noir'
p1283
S'directed'
p1284
tp1285
F0.0007486897928624906
s(S'[[num]]'
p1286
S'songs'
p1287
tp1288
F0.0002495632642874969
s(g650
S'of'
p1289
tp1290
F0.0004991265285749938
s(S'[[con]]'
p1291
S'was'
p1292
tp1293
F0.0014973795857249812
s(S'[[adj]]'
p1294
S'length'
p1295
tp1296
F0.0002495632642874969
s(S'film'
p1297
g535
tp1298
F0.0024956326428749688
s(S'track'
p1299
S'released'
p1300
tp1301
F0.0002495632642874969
s(g143
g612
tp1302
F0.0017469428500124782
s(S'by'
p1303
S'power'
p1304
tp1305
F0.0009982530571499876
s(g463
S'as'
p1306
tp1307
F0.0002495632642874969
s(S'song'
p1308
S'released'
p1309
tp1310
F0.0002495632642874969
s(S'film'
p1311
g389
tp1312
F0.0002495632642874969
s(g688
S'song'
p1313
tp1314
F0.0002495632642874969
s(g936
S'film'
p1315
tp1316
F0.01771899176441228
s(S'vocalist'
p1317
g453
tp1318
F0.0002495632642874969
s(S'album'
p1319
S'by'
p1320
tp1321
F0.013476416271524832
s(S'[[adj]]'
p1322
S'documentary'
p1323
tp1324
F0.0002495632642874969
s(S'lyrics'
p1325
S'written'
p1326
tp1327
F0.0004991265285749938
s(S'song'
p1328
g174
tp1329
F0.002246069378587472
s(S'action'
p1330
S'comedy'
p1331
tp1332
F0.0012478163214374844
s(S'[[num]]'
p1333
g242
tp1334
F0.002246069378587472
s(S'[[det]]'
p1335
S'crime'
p1336
tp1337
F0.0002495632642874969
s(S'[[con]]'
p1338
g596
tp1339
F0.007736461192912403
s(g483
S'[[det]]'
p1340
tp1341
F0.0004991265285749938
s(S'based'
p1342
S'on'
p1343
tp1344
F0.0012478163214374844
s(S'were'
p1345
S'written'
p1346
tp1347
F0.0002495632642874969
s(S'directed'
p1348
g444
tp1349
F0.0012478163214374844
s(g1186
S'band'
p1350
tp1351
F0.0002495632642874969
s(S'directed'
p1352
S'written'
p1353
tp1354
F0.0029947591714499623
s(S'written'
p1355
S'produced'
p1356
tp1357
F0.0007486897928624906
s(g1046
g760
tp1358
F0.0004991265285749938
s(S'[[det]]'
p1359
S'alternative'
p1360
tp1361
F0.0007486897928624906
s(S'[[adj]]'
p1362
S'credited'
p1363
tp1364
F0.0002495632642874969
s(S'directed'
p1365
S'by'
p1366
tp1367
F0.05440479161467432
s(g561
S'directed'
p1368
tp1369
F0.001996506114299975
s(S'[[con]]'
p1370
g769
tp1371
F0.0002495632642874969
s(S'of'
p1372
S'singer'
p1373
tp1374
F0.0002495632642874969
s(S'[[adj]]'
p1375
g1106
tp1376
F0.0007486897928624906
s(g20
S'written'
p1377
tp1378
F0.0002495632642874969
s(S'[[adj]]'
p1379
S'based'
p1380
tp1381
F0.0002495632642874969
s(S'[[con]]'
p1382
S'recorded'
p1383
tp1384
F0.0029947591714499623
s(g1295
S'album'
p1385
tp1386
F0.0002495632642874969
s(S'[[con]]'
p1387
g514
tp1388
F0.0079860244571999
s(S'by'
p1389
S'band'
p1390
tp1391
F0.0007486897928624906
s(S'by'
p1392
g700
tp1393
F0.0004991265285749938
s(g1022
S'that'
p1394
tp1395
F0.0004991265285749938
s(S'penned'
p1396
S'by'
p1397
tp1398
F0.0002495632642874969
s(g782
g106
tp1399
F0.0012478163214374844
s(S'roll'
p1400
S'song'
p1401
tp1402
F0.0004991265285749938
s(S'[[det]]'
p1403
g703
tp1404
F0.0002495632642874969
s(g457
S'singer'
p1405
tp1406
F0.0009982530571499876
s(g1077
g1400
tp1407
F0.0004991265285749938
s(S'[[adj]]'
p1408
S'feature'
p1409
tp1410
F0.0004991265285749938
s(S'thrash'
p1411
S'metal'
p1412
tp1413
F0.0007486897928624906
s(g1304
S'metal'
p1414
tp1415
F0.0012478163214374844
s(S'on'
p1416
S'novel'
p1417
tp1418
F0.0004991265285749938
s(S'project'
p1419
S'of'
p1420
tp1421
F0.0004991265285749938
s(S'from'
p1422
S'written'
p1423
tp1424
F0.0002495632642874969
s(S'is'
p1425
S'credited'
p1426
tp1427
F0.0002495632642874969
s(g190
S'that'
p1428
tp1429
F0.0004991265285749938
s(S'film'
p1430
S'where'
p1431
tp1432
F0.0002495632642874969
s(g95
S'[[adj]]'
p1433
tp1434
F0.0007486897928624906
s(S'rock'
p1435
S'musician'
p1436
tp1437
F0.0002495632642874969
s(S'written'
p1438
g818
tp1439
F0.0002495632642874969
s(g287
S'artist'
p1440
tp1441
F0.0007486897928624906
s(S'film'
p1442
g766
tp1443
F0.0009982530571499876
s(g225
S'[[con]]'
p1444
tp1445
F0.0004991265285749938
s(S'drama'
p1446
S'thriller'
p1447
tp1448
F0.0002495632642874969
s(g269
g684
tp1449
F0.0002495632642874969
s(S'by'
p1450
S'guitarist'
p1451
tp1452
F0.0002495632642874969
s(S'[[num]]'
p1453
S'directed'
p1454
tp1455
F0.0002495632642874969
s(S'[[adj]]'
p1456
g1265
tp1457
F0.0002495632642874969
s.