(dp0
(S'was'
p1
S'designed'
p2
S'to'
p3
tp4
F0.0008156606851549756
s(S'[[det]]'
p5
S'album'
p6
S'with'
p7
tp8
F0.0008156606851549756
s(S'[[adj]]'
p9
S'song'
p10
S'written'
p11
tp12
F0.0032626427406199023
s(S'[[adj]]'
p13
S'produced'
p14
S'by'
p15
tp16
F0.0008156606851549756
s(S'[[con]]'
p17
S'was'
p18
S'released'
p19
tp20
F0.0008156606851549756
s(S'[[det]]'
p21
S'song'
p22
S'[[mod]]'
p23
tp24
F0.0008156606851549756
s(S'album'
p25
S'by'
p26
S'thrash'
p27
tp28
F0.0008156606851549756
s(S'solo'
p29
S'album'
p30
S'of'
p31
tp32
F0.0016313213703099511
s(S'[[det]]'
p33
S'song'
p34
S'[[det]]'
p35
tp36
F0.0008156606851549756
s(S'of'
p37
S'for'
p38
S'children'
p39
tp40
F0.0008156606851549756
s(S'released'
p41
S'in'
p42
S'[[num]]'
p43
tp44
F0.0008156606851549756
s(S'[[det]]'
p45
S'metal'
p46
S'band'
p47
tp48
F0.0008156606851549756
s(S'[[adj]]'
p49
S'band'
p50
S'album'
p51
tp52
F0.0008156606851549756
s(S'[[adj]]'
p53
S'album'
p54
S'rock'
p55
tp56
F0.0008156606851549756
s(S'[[det]]'
p57
S'title'
p58
S'of'
p59
tp60
F0.004078303425774877
s(S'released'
p61
S'by'
p62
S'indie'
p63
tp64
F0.0008156606851549756
s(S'[[adj]]'
p65
S'released'
p66
S'by'
p67
tp68
F0.0032626427406199023
s(S'studio'
p69
S'album'
p70
S'singer'
p71
tp72
F0.0008156606851549756
s(S'been'
p73
S'released'
p74
S'by'
p75
tp76
F0.0008156606851549756
s(S'was'
p77
S'released'
p78
S'on'
p79
tp80
F0.0016313213703099511
s(S'[[det]]'
p81
S'album'
p82
S'as'
p83
tp84
F0.0008156606851549756
s(S'also'
p85
S'featured'
p86
S'as'
p87
tp88
F0.0008156606851549756
s(S'[[adj]]'
p89
S'release'
p90
S'by'
p91
tp92
F0.0016313213703099511
s(S'recorded'
p93
S'by'
p94
S'pop'
p95
tp96
F0.0008156606851549756
s(S'released'
p97
S'on'
p98
S'[[adj]]'
p99
tp100
F0.0008156606851549756
s(S'[[adj]]'
p101
S'praise'
p102
S'[[con]]'
p103
tp104
F0.0016313213703099511
s(S'lt'
p105
S'ref'
p106
S'gt'
p107
tp108
F0.0008156606851549756
s(S'by'
p109
S'[[adj]]'
p110
S'rock'
p111
tp112
F0.00734094616639478
s(S'was'
p113
S'coproduced'
p114
S'with'
p115
tp116
F0.0008156606851549756
s(S'album'
p117
S'by'
p118
S'musician'
p119
tp120
F0.0032626427406199023
s(S'[[det]]'
p121
S'country'
p122
S'album'
p123
tp124
F0.0008156606851549756
s(S'was'
p125
S'designed'
p126
S'by'
p127
tp128
F0.0008156606851549756
s(S'is'
p129
S'[[det]]'
p130
S'album'
p131
tp132
F0.0008156606851549756
s(S'[[adj]]'
p133
S'released'
p134
S'[[con]]'
p135
tp136
F0.0008156606851549756
s(S'[[adj]]'
p137
S'release'
p138
S'from'
p139
tp140
F0.0008156606851549756
s(S'[[det]]'
p141
S'tribute'
p142
S'album'
p143
tp144
F0.0008156606851549756
s(S'compilation'
p145
S'album'
p146
S'by'
p147
tp148
F0.004893964110929853
s(S'was'
p149
S'written'
p150
S'about'
p151
tp152
F0.0008156606851549756
s(S'[[det]]'
p153
S'soundtrack'
p154
S'album'
p155
tp156
F0.0016313213703099511
s(S'was'
p157
S'composed'
p158
S'by'
p159
tp160
F0.0008156606851549756
s(g110
g111
S'band'
p161
tp162
F0.00897226753670473
s(S'album'
p163
S'of'
p164
S'music'
p165
tp166
F0.0008156606851549756
s(S'was'
p167
S'released'
p168
S'[[con]]'
p169
tp170
F0.005709624796084829
s(S'[[det]]'
p171
S'alternative'
p172
S'rock'
p173
tp174
F0.0024469820554649264
s(S'[[det]]'
p175
S'album'
p176
S'that'
p177
tp178
F0.0008156606851549756
s(S'released'
p179
S'by'
p180
S'power'
p181
tp182
F0.0008156606851549756
s(g122
g123
S'by'
p183
tp184
F0.0008156606851549756
s(S'[[adj]]'
p185
S'album'
p186
S'recorded'
p187
tp188
F0.0024469820554649264
s(S'later'
p189
S'released'
p190
S'in'
p191
tp192
F0.0008156606851549756
s(S'rock'
p193
S'[[con]]'
p194
S'roll'
p195
tp196
F0.0008156606851549756
s(S'was'
p197
S'released'
p198
S'with'
p199
tp200
F0.0008156606851549756
s(S'[[det]]'
p201
S'band'
p202
S's'
p203
tp204
F0.0008156606851549756
s(S'also'
p205
S'coproduced'
p206
S'with'
p207
tp208
F0.0008156606851549756
s(S'album'
p209
S'by'
p210
S'punk'
p211
tp212
F0.0016313213703099511
s(S'by'
p213
S'singer'
p214
S'released'
p215
tp216
F0.0008156606851549756
s(S'released'
p217
S'by'
p218
S'singer'
p219
tp220
F0.0008156606851549756
s(S'[[det]]'
p221
S'song'
p222
S'pop'
p223
tp224
F0.0008156606851549756
s(S'[[num]]'
p225
S'released'
p226
S'by'
p227
tp228
F0.0008156606851549756
s(S'band'
p229
S'released'
p230
S'on'
p231
tp232
F0.0008156606851549756
s(S'solo'
p233
S'album'
p234
S'with'
p235
tp236
F0.0008156606851549756
s(S'be'
p237
S'released'
p238
S'by'
p239
tp240
F0.0016313213703099511
s(S'music'
p241
S'singer'
p242
S'[[con]]'
p243
tp244
F0.0016313213703099511
s(S'were'
p245
S'produced'
p246
S'by'
p247
tp248
F0.0008156606851549756
s(S'song'
p249
S'written'
p250
S'[[con]]'
p251
tp252
F0.009787928221859706
s(S'known'
p253
S'is'
p254
S'[[det]]'
p255
tp256
F0.0008156606851549756
s(S'not'
p257
S'written'
p258
S'by'
p259
tp260
F0.0008156606851549756
s(S'been'
p261
S'recorded'
p262
S'[[con]]'
p263
tp264
F0.0008156606851549756
s(S'[[num]]'
p265
S'jazz'
p266
S'album'
p267
tp268
F0.0008156606851549756
s(S'[[adj]]'
p269
S'song'
p270
S'that'
p271
tp272
F0.0008156606851549756
s(S'[[adj]]'
p273
S'designed'
p274
S'by'
p275
tp276
F0.0008156606851549756
s(S'been'
p277
S'designed'
p278
S'by'
p279
tp280
F0.0008156606851549756
s(S'by'
p281
S'recording'
p282
S'artist'
p283
tp284
F0.0008156606851549756
s(S'song'
p285
S'by'
p286
S'country'
p287
tp288
F0.0008156606851549756
s(S'by'
p289
S'[[det]]'
p290
S'jazz'
p291
tp292
F0.0008156606851549756
s(S'been'
p293
S'recorded'
p294
S'with'
p295
tp296
F0.0008156606851549756
s(S'is'
p297
S'album'
p298
S'by'
p299
tp300
F0.0008156606851549756
s(S'written'
p301
S'[[con]]'
p302
S'recorded'
p303
tp304
F0.0032626427406199023
s(g38
g39
S'by'
p305
tp306
F0.0008156606851549756
s(S'[[det]]'
p307
S'album'
p308
S'jazz'
p309
tp310
F0.0008156606851549756
s(g203
S'released'
p311
S'by'
p312
tp313
F0.0008156606851549756
s(S'[[adj]]'
p314
S'compilation'
p315
S'album'
p316
tp317
F0.0016313213703099511
s(S'album'
p318
S'released'
p319
S'under'
p320
tp321
F0.0008156606851549756
s(S'article'
p322
g129
g130
tp323
F0.0008156606851549756
s(S'album'
p324
S'by'
p325
S'soul'
p326
tp327
F0.0008156606851549756
s(S'[[adj]]'
p328
S'recorded'
p329
S'by'
p330
tp331
F0.0008156606851549756
s(S'to'
p332
S'be'
p333
S'released'
p334
tp335
F0.0016313213703099511
s(S'pop'
p336
S'song'
p337
S'written'
p338
tp339
F0.0032626427406199023
s(S'by'
p340
S'power'
p341
S'metal'
p342
tp343
F0.0032626427406199023
s(S'length'
p344
S'release'
p345
S'from'
p346
tp347
F0.0008156606851549756
s(g42
g43
S'produced'
p348
tp349
F0.0008156606851549756
s(g214
g215
S'on'
p350
tp351
F0.0008156606851549756
s(S'be'
p352
S'written'
p353
S'by'
p354
tp355
F0.0008156606851549756
s(S'was'
p356
S'written'
p357
S'by'
p358
tp359
F0.0016313213703099511
s(S'released'
p360
S'produced'
p361
S'by'
p362
tp363
F0.0008156606851549756
s(g59
S'[[det]]'
p364
S'album'
p365
tp366
F0.0008156606851549756
s(S'later'
p367
S'released'
p368
S'to'
p369
tp370
F0.0008156606851549756
s(g54
g55
S'band'
p371
tp372
F0.0008156606851549756
s(S'[[det]]'
p373
S'produced'
p374
S'by'
p375
tp376
F0.0008156606851549756
s(S'released'
p377
S'by'
p378
S'band'
p379
tp380
F0.0008156606851549756
s(g203
S'written'
p381
S'by'
p382
tp383
F0.0008156606851549756
s(S'album'
p384
S'released'
p385
S'with'
p386
tp387
F0.0008156606851549756
s(S'[[con]]'
p388
S'was'
p389
S'produced'
p390
tp391
F0.0024469820554649264
s(g98
g99
S'label'
p392
tp393
F0.0008156606851549756
s(g242
g243
S'songwriter'
p394
tp395
F0.0008156606851549756
s(S'[[con]]'
p396
S'released'
p397
S'in'
p398
tp399
F0.0008156606851549756
s(S'[[det]]'
p400
S'punk'
p401
S'rock'
p402
tp403
F0.0024469820554649264
s(S'solo'
p404
S'album'
p405
S'was'
p406
tp407
F0.0008156606851549756
s(S'is'
p408
S'composed'
p409
S'by'
p410
tp411
F0.0008156606851549756
s(S'album'
p412
g281
g282
tp413
F0.0008156606851549756
s(g55
g371
S'released'
p414
tp415
F0.0008156606851549756
s(S'album'
p416
S'by'
p417
S'metal'
p418
tp419
F0.0024469820554649264
s(S'rock'
p420
S'song'
p421
S'by'
p422
tp423
F0.0008156606851549756
s(S'album'
p424
g332
g333
tp425
F0.0016313213703099511
s(S'studio'
p426
S'album'
p427
S'by'
p428
tp429
F0.03833605220228385
s(S'was'
p430
g360
g361
tp431
F0.0008156606851549756
s(S'is'
p432
S'written'
p433
S'that'
p434
tp435
F0.0008156606851549756
s(S'by'
p436
S'[[det]]'
p437
S'thrash'
p438
tp439
F0.0008156606851549756
s(S'[[adj]]'
p440
S'death'
p441
S'metal'
p442
tp443
F0.0024469820554649264
s(g427
g428
S'[[adj]]'
p444
tp445
F0.01794453507340946
s(S'by'
p446
S'[[det]]'
p447
S'power'
p448
tp449
F0.0016313213703099511
s(g223
S'singer'
p450
S'written'
p451
tp452
F0.0008156606851549756
s(S'solo'
p453
S'album'
p454
S'released'
p455
tp456
F0.0008156606851549756
s(S'album'
p457
S'released'
p458
S'[[num]]'
p459
tp460
F0.0008156606851549756
s(S'by'
p461
S'rock'
p462
S'band'
p463
tp464
F0.0065252854812398045
s(g338
S'by'
p465
S'singer'
p466
tp467
F0.0016313213703099511
s(S'[[det]]'
p468
S'song'
p469
S'by'
p470
tp471
F0.013050570962479609
s(S'musician'
p472
S'released'
p473
S'on'
p474
tp475
F0.0008156606851549756
s(S'by'
p476
S'pop'
p477
S'group'
p478
tp479
F0.0016313213703099511
s(S'[[con]]'
p480
S'written'
p481
S'by'
p482
tp483
F0.0016313213703099511
s(S'is'
p484
S'revealed'
p485
S'that'
p486
tp487
F0.0008156606851549756
s(S'debut'
p488
S'album'
p489
S'released'
p490
tp491
F0.0008156606851549756
s(S'[[det]]'
p492
S'music'
p493
S'album'
p494
tp495
F0.0008156606851549756
s(S'[[num]]'
p496
S'album'
p497
S'from'
p498
tp499
F0.0008156606851549756
s(S'pop'
p500
S'rock'
p501
S'song'
p502
tp503
F0.0008156606851549756
s(S'recorded'
p504
S'[[prp]]'
p505
S'[[adj]]'
p506
tp507
F0.0008156606851549756
s(S'[[con]]'
p508
S'released'
p509
S'by'
p510
tp511
F0.0008156606851549756
s(S'[[det]]'
p512
S'song'
p513
S'[[con]]'
p514
tp515
F0.0008156606851549756
s(S'album'
p516
S'recorded'
p517
S'by'
p518
tp519
F0.0032626427406199023
s(S'was'
p520
S'designed'
p521
S'for'
p522
tp523
F0.0008156606851549756
s(S'song'
p524
S'written'
p525
S'for'
p526
tp527
F0.0008156606851549756
s(S'[[det]]'
p528
S'album'
p529
S'by'
p530
tp531
F0.02202283849918434
s(S'is'
p532
S'produced'
p533
S'by'
p534
tp535
F0.0008156606851549756
s(S'by'
p536
S'[[det]]'
p537
S'lineup'
p538
tp539
F0.0008156606851549756
s(S'performed'
p540
S'by'
p541
S'[[adj]]'
p542
tp543
F0.0008156606851549756
s(S'[[num]]'
p544
S'studio'
p545
S'album'
p546
tp547
F0.0024469820554649264
s(S'recorded'
p548
S'[[con]]'
p549
S'performed'
p550
tp551
F0.0008156606851549756
s(S'[[adj]]'
p552
g424
g332
tp553
F0.0016313213703099511
s(g469
g470
S'indie'
p554
tp555
F0.0008156606851549756
s(S'[[num]]'
p556
S'album'
p557
S'by'
p558
tp559
F0.0065252854812398045
s(S'recorded'
p560
S'by'
p561
S'[[det]]'
p562
tp563
F0.0008156606851549756
s(S'[[det]]'
p564
g524
g525
tp565
F0.009787928221859706
s(S'[[det]]'
p566
S'jazz'
p567
S'album'
p568
tp569
F0.0016313213703099511
s(g405
g406
S'released'
p570
tp571
F0.0008156606851549756
s(S'debut'
p572
S'studio'
p573
S'album'
p574
tp575
F0.004893964110929853
s(g26
g27
S'metal'
p576
tp577
F0.0008156606851549756
s(g505
g506
S'album'
p578
tp579
F0.0008156606851549756
s(S'was'
p580
S'written'
p581
S'for'
p582
tp583
F0.0008156606851549756
s(S'is'
p584
S'[[adj]]'
p585
S'song'
p586
tp587
F0.0008156606851549756
s(S'album'
p588
S'by'
p589
S'band'
p590
tp591
F0.0032626427406199023
s(S'[[det]]'
p592
S'rock'
p593
S'band'
p594
tp595
F0.0032626427406199023
s(S'[[adj]]'
p596
S'album'
p597
S'by'
p598
tp599
F0.030179445350734094
s(S'by'
p600
S'punk'
p601
S'band'
p602
tp603
F0.0008156606851549756
s(S'was'
p604
S'coproduced'
p605
S'by'
p606
tp607
F0.0008156606851549756
s(S'album'
p608
S'released'
p609
S'on'
p610
tp611
F0.0024469820554649264
s(S'of'
p612
S'recorded'
p613
S'by'
p614
tp615
F0.0008156606851549756
s(S'released'
p616
S'by'
p617
S'metal'
p618
tp619
F0.0008156606851549756
s(S'also'
p620
S'impressed'
p621
S'with'
p622
tp623
F0.0008156606851549756
s(S'by'
p624
g400
g401
tp625
F0.0024469820554649264
s(S'released'
p626
S'by'
p627
S'country'
p628
tp629
F0.0016313213703099511
s(S'[[adj]]'
p630
S'rock'
p631
S'group'
p632
tp633
F0.0008156606851549756
s(S'not'
p634
S'released'
p635
S'by'
p636
tp637
F0.0008156606851549756
s(S'[[adj]]'
p638
S'collected'
p639
S'by'
p640
tp641
F0.0008156606851549756
s(S'album'
p642
S'of'
p643
S'country'
p644
tp645
F0.0016313213703099511
s(S'released'
p646
S'by'
p647
S'[[adj]]'
p648
tp649
F0.0024469820554649264
s(S'was'
p650
S'recorded'
p651
S'produced'
p652
tp653
F0.0008156606851549756
s(S'song'
p654
S'by'
p655
S'singersongwriter'
p656
tp657
F0.0008156606851549756
s(S'was'
p658
S'produced'
p659
S'with'
p660
tp661
F0.0008156606851549756
s(S'from'
p662
S'[[adj]]'
p663
S'rock'
p664
tp665
F0.0016313213703099511
s(S'debut'
p666
S'album'
p667
S'of'
p668
tp669
F0.0024469820554649264
s(S'album'
p670
S'singer'
p671
S'released'
p672
tp673
F0.0016313213703099511
s(S'[[det]]'
p674
S'debut'
p675
S'album'
p676
tp677
F0.01957585644371941
s(g549
g550
S'with'
p678
tp679
F0.0008156606851549756
s(S'song'
p680
S'performed'
p681
g480
tp682
F0.0008156606851549756
s(S'album'
p683
S'from'
p684
S'band'
p685
tp686
F0.0008156606851549756
s(S'[[con]]'
p687
S'from'
p688
S'album'
p689
tp690
F0.0008156606851549756
s(S'album'
p691
S'by'
p692
S'guitarist'
p693
tp694
F0.0016313213703099511
s(S'album'
p695
S'by'
p696
S'rapper'
p697
tp698
F0.004078303425774877
s(g681
g480
g481
tp699
F0.0008156606851549756
s(S'was'
p700
g41
g42
tp701
F0.0008156606851549756
s(S'album'
p702
S'by'
p703
S'group'
p704
tp705
F0.0008156606851549756
s(S'song'
p706
S'by'
p707
S'[[det]]'
p708
tp709
F0.005709624796084829
s(S'album'
p710
S'by'
p711
S'jazz'
p712
tp713
F0.00897226753670473
s(S'song'
p714
g93
g94
tp715
F0.0024469820554649264
s(S'[[num]]'
p716
S'song'
p717
S'by'
p718
tp719
F0.0016313213703099511
s(S'had'
p720
S'recorded'
p721
S'with'
p722
tp723
F0.0008156606851549756
s(S'was'
p724
S'released'
p725
S'which'
p726
tp727
F0.0008156606851549756
s(S'album'
p728
S'released'
p729
S'[[con]]'
p730
tp731
F0.0024469820554649264
s(S'was'
p732
S'recorded'
p733
S'by'
p734
tp735
F0.0008156606851549756
s(S'song'
p736
g540
g541
tp737
F0.0008156606851549756
s(S'by'
p738
S'[[det]]'
p739
S'based'
p740
tp741
F0.0008156606851549756
s(S'album'
p742
S'from'
p743
S'[[det]]'
p744
tp745
F0.0024469820554649264
s(S'solo'
p746
S'album'
p747
S'from'
p748
tp749
F0.0008156606851549756
s(S'had'
p750
g504
g505
tp751
F0.0008156606851549756
s(S'[[det]]'
p752
S'death'
p753
S'metal'
p754
tp755
F0.0024469820554649264
s(S'were'
p756
S'released'
p757
S'in'
p758
tp759
F0.0008156606851549756
s(S'was'
p760
S'recorded'
p761
S'with'
p762
tp763
F0.0008156606851549756
s(g537
g538
S'of'
p764
tp765
F0.0016313213703099511
s(S'[[det]]'
p766
S'song'
p767
S'with'
p768
tp769
F0.0008156606851549756
s(S'[[adj]]'
p770
S'release'
p771
S'in'
p772
tp773
F0.0008156606851549756
s(S'album'
p774
S'by'
p775
S'released'
p776
tp777
F0.0008156606851549756
s(g302
g303
S'by'
p778
tp779
F0.004078303425774877
s(S'[[adj]]'
p780
S'album'
p781
S'in'
p782
tp783
F0.0008156606851549756
s(g493
g494
S'by'
p784
tp785
F0.0008156606851549756
s(g648
S'metal'
p786
S'band'
p787
tp788
F0.009787928221859706
s(S'[[num]]'
p789
S'written'
p790
S'by'
p791
tp792
F0.0008156606851549756
s(S'[[adj]]'
p793
S'song'
p794
S'by'
p795
tp796
F0.0016313213703099511
s(S'[[adj]]'
p797
S'released'
p798
S'on'
p799
tp800
F0.0008156606851549756
s(S'[[det]]'
p801
S'album'
p802
S'recorded'
p803
tp804
F0.0016313213703099511
s(S'solo'
p805
S'studio'
p806
S'album'
p807
tp808
F0.0008156606851549756
s(S'song'
p809
S'by'
p810
S'pop'
p811
tp812
F0.0008156606851549756
s(S'[[adj]]'
p813
S'collaboration'
p814
S'between'
p815
tp816
F0.0008156606851549756
s(S'[[det]]'
p817
S'collaboration'
p818
S'[[con]]'
p819
tp820
F0.0008156606851549756
s(S'[[det]]'
p821
S'studio'
p822
S'album'
p823
tp824
F0.005709624796084829
s(S'was'
p825
S'released'
p826
S'[[adj]]'
p827
tp828
F0.0008156606851549756
s(S'album'
p829
S'by'
p830
S'country'
p831
tp832
F0.010603588907014683
s(S'[[adj]]'
p833
S'song'
p834
S'[[con]]'
p835
tp836
F0.0016313213703099511
s(S'by'
p837
g45
g46
tp838
F0.0008156606851549756
s(g210
g211
S'rock'
p839
tp840
F0.0008156606851549756
s(S'[[det]]'
p841
S'solo'
p842
S'album'
p843
tp844
F0.0016313213703099511
s(S'by'
p845
S'[[det]]'
p846
S'alternative'
p847
tp848
F0.0016313213703099511
s(S'[[con]]'
p849
S'featured'
p850
S'production'
p851
tp852
F0.0016313213703099511
s(g517
g518
S'pianist'
p853
tp854
F0.0008156606851549756
s(S'by'
p855
S'country'
p856
S'artist'
p857
tp858
F0.0008156606851549756
s(S'debut'
p859
S'solo'
p860
S'album'
p861
tp862
F0.0016313213703099511
s(S'been'
p863
S'covered'
p864
S'[[con]]'
p865
tp866
F0.0008156606851549756
s(S'recorded'
p867
S'by'
p868
S'singer'
p869
tp870
F0.0008156606851549756
s(S'not'
p871
S'released'
p872
S'in'
p873
tp874
F0.0008156606851549756
s(S'soundtrack'
p875
S'album'
p876
S'of'
p877
tp878
F0.0008156606851549756
s(S'compilation'
p879
S'album'
p880
S'from'
p881
tp882
F0.0016313213703099511
s(S'[[adj]]'
p883
S'album'
p884
S'with'
p885
tp886
F0.0008156606851549756
s(S'[[det]]'
p887
g229
g230
tp888
F0.0008156606851549756
s(S'known'
p889
g584
g585
tp890
F0.0008156606851549756
s(S'[[det]]'
p891
g145
g146
tp892
F0.004078303425774877
s(S'song'
p893
S'by'
p894
S'rock'
p895
tp896
F0.0008156606851549756
s(S'[[adj]]'
p897
g670
g671
tp898
F0.0008156606851549756
s(S'were'
p899
S'written'
p900
S'by'
p901
tp902
F0.0008156606851549756
s(S'[[con]]'
p903
S'originally'
p904
S'recorded'
p905
tp906
F0.0008156606851549756
s(S'was'
p907
S'released'
p908
S'by'
p909
tp910
F0.0024469820554649264
s(S'[[det]]'
p911
S'song'
p912
g203
tp913
F0.0008156606851549756
s(S'[[det]]'
p914
g336
g337
tp915
F0.0032626427406199023
s(S'by'
p916
S'[[det]]'
p917
S'singersongwriter'
p918
tp919
F0.0008156606851549756
s(S'[[adj]]'
p920
S'debut'
p921
S'album'
p922
tp923
F0.0016313213703099511
s(S'[[det]]'
p924
g646
g647
tp925
F0.0016313213703099511
s(S'by'
p926
g752
g753
tp927
F0.0024469820554649264
s(S'was'
p928
S'produced'
p929
S'from'
p930
tp931
F0.0008156606851549756
s(S'is'
p932
S'composed'
p933
S'with'
p934
tp935
F0.0008156606851549756
s(S'[[num]]'
p936
S'solo'
p937
S'album'
p938
tp939
F0.0008156606851549756
s(S'was'
p940
S'released'
p941
S'as'
p942
tp943
F0.0008156606851549756
s(S'be'
p944
S'released'
p945
S'with'
p946
tp947
F0.0008156606851549756
s(S'album'
p948
S'from'
p949
S'rock'
p950
tp951
F0.0016313213703099511
s(S'studio'
p952
S'album'
p953
S'of'
p954
tp955
F0.0016313213703099511
s(g450
g451
S'by'
p956
tp957
F0.0008156606851549756
s(S'thrash'
p958
S'metal'
p959
S'band'
p960
tp961
F0.0024469820554649264
s(g266
g267
S'by'
p962
tp963
F0.0024469820554649264
s(S'was'
p964
S'produced'
p965
S'by'
p966
tp967
F0.0032626427406199023
s(S'[[num]]'
p968
S'album'
p969
S'recorded'
p970
tp971
F0.0008156606851549756
s(S'song'
p972
g687
g688
tp973
F0.0008156606851549756
s(S'[[det]]'
p974
S'collaboration'
p975
S'with'
p976
tp977
F0.0008156606851549756
s(S'by'
p978
S'[[det]]'
p979
S'band'
p980
tp981
F0.0065252854812398045
s(S'album'
p982
S'released'
p983
S'in'
p984
tp985
F0.0024469820554649264
s(S'[[con]]'
p986
S'performed'
p987
S'by'
p988
tp989
F0.0024469820554649264
s(g102
g103
S'worship'
p990
tp991
F0.0016313213703099511
s(S'was'
p992
S'designed'
p993
S'[[con]]'
p994
tp995
F0.0008156606851549756
s(S'[[adj]]'
p996
S'jazz'
p997
S'album'
p998
tp999
F0.0008156606851549756
s(S'was'
p1000
S'produced'
p1001
S'[[con]]'
p1002
tp1003
F0.0016313213703099511
s(S'was'
p1004
S'written'
p1005
S'that'
p1006
tp1007
F0.0008156606851549756
s(S'[[num]]'
p1008
S'designed'
p1009
S'by'
p1010
tp1011
F0.0008156606851549756
s(S'is'
p1012
S'designed'
p1013
S'by'
p1014
tp1015
F0.0008156606851549756
s(g10
g11
S'by'
p1016
tp1017
F0.010603588907014683
s(S'by'
p1018
S'rock'
p1019
S'group'
p1020
tp1021
F0.0008156606851549756
s(S'produced'
p1022
S'[[con]]'
p1023
S'recorded'
p1024
tp1025
F0.0008156606851549756
s(S'been'
p1026
S'recorded'
p1027
S'as'
p1028
tp1029
F0.0008156606851549756
s(g739
g740
S'band'
p1030
tp1031
F0.0008156606851549756
s(S'was'
p1032
S'designed'
p1033
S'with'
p1034
tp1035
F0.0008156606851549756
s(S'that'
p1036
g356
g357
tp1037
F0.0008156606851549756
s(S'was'
p1038
S'written'
p1039
S'to'
p1040
tp1041
F0.0008156606851549756
s(S'from'
p1042
S'[[det]]'
p1043
S'lineup'
p1044
tp1045
F0.0008156606851549756
s(S'[[adj]]'
p1046
S'song'
p1047
S'from'
p1048
tp1049
F0.0008156606851549756
s(S'was'
p1050
S'recorded'
p1051
S'during'
p1052
tp1053
F0.0008156606851549756
s(g103
g990
S'album'
p1054
tp1055
F0.0016313213703099511
s(S'[[det]]'
p1056
S'album'
p1057
g612
tp1058
F0.0016313213703099511
s(S'[[con]]'
p1059
S'compiled'
p1060
S'by'
p1061
tp1062
F0.0008156606851549756
s(S'songs'
p1063
g105
g106
tp1064
F0.0008156606851549756
s(S'[[det]]'
p1065
S'designed'
p1066
S'by'
p1067
tp1068
F0.0008156606851549756
s(S'released'
p1069
g536
g537
tp1070
F0.0008156606851549756
s(S'[[det]]'
p1071
S'video'
p1072
S'released'
p1073
tp1074
F0.0008156606851549756
s(S'is'
p1075
S'written'
p1076
S'by'
p1077
tp1078
F0.0008156606851549756
s(S'[[num]]'
p1079
S'produced'
p1080
S'by'
p1081
tp1082
F0.0016313213703099511
s(S'album'
p1083
g926
g752
tp1084
F0.017128874388254486
s(S'[[adj]]'
p1085
g29
g30
tp1086
F0.004893964110929853
s(g176
g177
S'was'
p1087
tp1088
F0.0008156606851549756
s(S'debut'
p1089
S'album'
p1090
S'from'
p1091
tp1092
F0.0024469820554649264
s(g142
g143
S'by'
p1093
tp1094
F0.0008156606851549756
s(g647
g648
g786
tp1095
F0.00897226753670473
s(g341
g342
S'band'
p1096
tp1097
F0.004893964110929853
s(S'[[det]]'
p1098
S'songs'
p1099
S'with'
p1100
tp1101
F0.0008156606851549756
s(S'song'
p1102
S'by'
p1103
S'singer'
p1104
tp1105
F0.0008156606851549756
s(S'released'
p1106
g1059
g1060
tp1107
F0.0008156606851549756
s(S'[[adj]]'
p1108
S'album'
p1109
S'after'
p1110
tp1111
F0.0008156606851549756
s(S'[[adj]]'
p1112
S'album'
p1113
S'where'
p1114
tp1115
F0.0008156606851549756
s(g842
g843
S'by'
p1116
tp1117
F0.004078303425774877
s(S'[[det]]'
p1118
S'[[adj]]'
p1119
g1063
tp1120
F0.0008156606851549756
s(S'written'
p1121
g986
g987
tp1122
F0.0024469820554649264
s(S'[[num]]'
p1123
S'song'
p1124
g560
tp1125
F0.0008156606851549756
s(S'album'
p1126
S'by'
p1127
S'pop'
p1128
tp1129
F0.005709624796084829
s(S'by'
p1130
S'[[det]]'
p1131
S'group'
p1132
tp1133
F0.0008156606851549756
s(S'[[adj]]'
p1134
S'album'
p1135
S'of'
p1136
tp1137
F0.0008156606851549756
s(S'studio'
p1138
S'album'
p1139
S'[[con]]'
p1140
tp1141
F0.0016313213703099511
s(S'released'
p1142
g476
g477
tp1143
F0.0008156606851549756
s(g561
g562
S'singer'
p1144
tp1145
F0.0016313213703099511
s(g990
g1054
S'of'
p1146
tp1147
F0.0016313213703099511
s(g671
g672
S'by'
p1148
tp1149
F0.0016313213703099511
s(S'[[det]]'
p1150
g736
g540
tp1151
F0.0016313213703099511
s(S'been'
p1152
S'written'
p1153
S'by'
p1154
tp1155
F0.0008156606851549756
s(S'have'
p1156
S'featured'
p1157
S'[[adj]]'
p1158
tp1159
F0.0008156606851549756
s(S'be'
p1160
S'viewed'
p1161
S'as'
p1162
tp1163
F0.0008156606851549756
s(S'[[adj]]'
p1164
g344
g345
tp1165
F0.0008156606851549756
s(S'album'
p1166
g662
g663
tp1167
F0.0016313213703099511
s(S'released'
p1168
g849
g850
tp1169
F0.0016313213703099511
s(S'featured'
p1170
S'production'
p1171
S'by'
p1172
tp1173
F0.0008156606851549756
s(S'also'
p1174
g889
g584
tp1175
F0.0016313213703099511
s(S'jazz'
p1176
S'saxophonist'
p1177
g548
tp1178
F0.0016313213703099511
s(S'length'
p1179
S'album'
p1180
S'by'
p1181
tp1182
F0.0008156606851549756
s(S'by'
p1183
g592
g593
tp1184
F0.0024469820554649264
s(S'[[adj]]'
p1185
S'release'
p1186
S'with'
p1187
tp1188
F0.0008156606851549756
s(S'was'
p1189
S'written'
p1190
S'[[con]]'
p1191
tp1192
F0.0008156606851549756
s(S'be'
p1193
S'produced'
p1194
S'by'
p1195
tp1196
F0.0008156606851549756
s(g1119
g1063
g105
tp1197
F0.0008156606851549756
s(g1057
g612
g613
tp1198
F0.0008156606851549756
s(g23
S'written'
p1199
S'by'
p1200
tp1201
F0.0008156606851549756
s(S'[[num]]'
p1202
S'soundtrack'
p1203
S'album'
p1204
tp1205
F0.0008156606851549756
s(S'be'
p1206
S'released'
p1207
S'in'
p1208
tp1209
F0.0016313213703099511
s(S'[[adj]]'
p1210
S'album'
p1211
S'from'
p1212
tp1213
F0.004078303425774877
s(g437
g438
S'metal'
p1214
tp1215
F0.0008156606851549756
s(g904
g905
S'by'
p1216
tp1217
F0.0008156606851549756
s(g164
g165
S'by'
p1218
tp1219
F0.0008156606851549756
s(S'of'
p1220
S'[[det]]'
p1221
S'song'
p1222
tp1223
F0.0024469820554649264
s(S'album'
p1224
S'recorded'
p1225
S'for'
p1226
tp1227
F0.0016313213703099511
s(S'[[det]]'
p1228
g714
g93
tp1229
F0.0016313213703099511
s(g371
g414
S'by'
p1230
tp1231
F0.0008156606851549756
s(S'[[adj]]'
p1232
g1179
g1180
tp1233
F0.0008156606851549756
s(S'contained'
p1234
g1118
g1119
tp1235
F0.0008156606851549756
s(S'[[num]]'
p1236
S'debut'
p1237
S'album'
p1238
tp1239
F0.0008156606851549756
s(S'[[adj]]'
p1240
S'album'
p1241
g616
tp1242
F0.0065252854812398045
s(S'[[adj]]'
p1243
S'song'
p1244
S'[[det]]'
p1245
tp1246
F0.0008156606851549756
s(S'[[num]]'
p1247
S'album'
p1248
S'released'
p1249
tp1250
F0.0016313213703099511
s(S'album'
p1251
S'by'
p1252
S'alternative'
p1253
tp1254
F0.0016313213703099511
s(S'album'
p1255
S'by'
p1256
S'artist'
p1257
tp1258
F0.0016313213703099511
s(S'also'
p1259
S'released'
p1260
S'by'
p1261
tp1262
F0.0008156606851549756
s(S'album'
p1263
g17
g18
tp1264
F0.0008156606851549756
s(S'by'
p1265
S'[[det]]'
p1266
S'musician'
p1267
tp1268
F0.0008156606851549756
s(S'by'
p1269
S'country'
p1270
S'singer'
p1271
tp1272
F0.0016313213703099511
s(S'been'
p1273
S'covered'
p1274
S'[[adj]]'
p1275
tp1276
F0.0008156606851549756
s(S'by'
p1277
S'indie'
p1278
S'rock'
p1279
tp1280
F0.004893964110929853
s(S'from'
p1281
S'country'
p1282
S'music'
p1283
tp1284
F0.0008156606851549756
s(S'by'
p1285
g440
g441
tp1286
F0.0024469820554649264
s(g22
g23
g1199
tp1287
F0.0008156606851549756
s(S'album'
p1288
S'by'
p1289
S'singersongwriter'
p1290
tp1291
F0.0032626427406199023
s(S'[[adj]]'
p1292
g805
g806
tp1293
F0.0008156606851549756
s(S'were'
p1294
S'designed'
p1295
S'by'
p1296
tp1297
F0.0008156606851549756
s(S'[[det]]'
p1298
g500
g501
tp1299
F0.0008156606851549756
s(S'[[adj]]'
p1300
S'release'
p1301
S'as'
p1302
tp1303
F0.0008156606851549756
s(S'released'
p1304
S'by'
p1305
S'singersongwriter'
p1306
tp1307
F0.0008156606851549756
s(g651
g652
S'by'
p1308
tp1309
F0.0008156606851549756
s(S'[[det]]'
p1310
S'song'
p1311
g1036
tp1312
F0.0008156606851549756
s(S'title'
p1313
S'of'
p1314
S'album'
p1315
tp1316
F0.0008156606851549756
s(S'which'
p1317
S'featured'
p1318
S'[[det]]'
p1319
tp1320
F0.0008156606851549756
s(S'[[con]]'
p1321
S'was'
p1322
S'album'
p1323
tp1324
F0.0008156606851549756
s(S'country'
p1325
S'music'
p1326
S'singer'
p1327
tp1328
F0.005709624796084829
s(S'[[det]]'
p1329
S'collaboration'
p1330
S'between'
p1331
tp1332
F0.0008156606851549756
s(g1072
g1073
S'by'
p1333
tp1334
F0.0008156606851549756
s(S'album'
p1335
S'by'
p1336
S'death'
p1337
tp1338
F0.0016313213703099511
s(g203
S'[[adj]]'
p1339
S'release'
p1340
tp1341
F0.0008156606851549756
s(S'by'
p1342
S'jazz'
p1343
S'saxophonist'
p1344
tp1345
F0.0032626427406199023
s(g172
g173
S'band'
p1346
tp1347
F0.005709624796084829
s(S'[[det]]'
p1348
S'album'
p1349
S'from'
p1350
tp1351
F0.0008156606851549756
s(S'jazz'
p1352
g516
g517
tp1353
F0.0008156606851549756
s(g1127
g1128
S'singer'
p1354
tp1355
F0.004893964110929853
s(S'[[adj]]'
p1356
S'song'
p1357
S'of'
p1358
tp1359
F0.0008156606851549756
s(S'also'
p1360
S'featured'
p1361
S'[[con]]'
p1362
tp1363
F0.0008156606851549756
s(g66
g67
S'rock'
p1364
tp1365
F0.0008156606851549756
s(g154
g155
S'by'
p1366
tp1367
F0.0016313213703099511
s(S'debut'
p1368
S'album'
p1369
S'for'
p1370
tp1371
F0.0008156606851549756
s(S'studio'
p1372
S'album'
p1373
S'[[det]]'
p1374
tp1375
F0.0008156606851549756
s(S'released'
p1376
S'[[con]]'
p1377
S'produced'
p1378
tp1379
F0.0008156606851549756
s(S'by'
p1380
g472
g473
tp1381
F0.0008156606851549756
s(S'released'
p1382
g1321
g1322
tp1383
F0.0024469820554649264
s(S'[[det]]'
p1384
S'song'
p1385
S'from'
p1386
tp1387
F0.0016313213703099511
s(S'[[adj]]'
p1388
S'song'
p1389
S'on'
p1390
tp1391
F0.0008156606851549756
s(g643
g644
S'music'
p1392
tp1393
F0.0016313213703099511
s(g667
g668
S'singer'
p1394
tp1395
F0.0008156606851549756
s(g1336
g1337
S'metal'
p1396
tp1397
F0.0016313213703099511
s(g850
g851
S'from'
p1398
tp1399
F0.0008156606851549756
s(S'[[det]]'
p1400
g572
g573
tp1401
F0.004893964110929853
s(g447
g448
S'metal'
p1402
tp1403
F0.0016313213703099511
s(g1282
g1283
S'artist'
p1404
tp1405
F0.0065252854812398045
s(S'written'
p1406
g903
g904
tp1407
F0.0008156606851549756
s(g222
g223
g450
tp1408
F0.0008156606851549756
s(g254
g255
S'pop'
p1409
tp1410
F0.0008156606851549756
s(S'[[det]]'
p1411
S'album'
p1412
g377
tp1413
F0.004078303425774877
s(g194
g195
S'song'
p1414
tp1415
F0.0008156606851549756
s(g753
g754
S'band'
p1416
tp1417
F0.00734094616639478
s(g211
g839
S'band'
p1418
tp1419
F0.0032626427406199023
s(S'studio'
p1420
S'album'
p1421
g179
tp1422
F0.009787928221859706
s(S'album'
p1423
S'by'
p1424
S'indie'
p1425
tp1426
F0.0024469820554649264
s(S'later'
p1427
S'covered'
p1428
S'by'
p1429
tp1430
F0.0008156606851549756
s(S'studio'
p1431
g742
g743
tp1432
F0.005709624796084829
s(g195
g1414
S'written'
p1433
tp1434
F0.0008156606851549756
s(g325
g326
S'singer'
p1435
tp1436
F0.0008156606851549756
s(g202
g203
g1339
tp1437
F0.0008156606851549756
s(g830
g831
S'music'
p1438
tp1439
F0.009787928221859706
s(g1241
g616
g617
tp1440
F0.01468189233278956
s(S'by'
p1441
S'[[adj]]'
p1442
S'group'
p1443
tp1444
F0.0016313213703099511
s(S'written'
p1445
S'[[con]]'
p1446
S'produced'
p1447
tp1448
F0.0024469820554649264
s(S'[[det]]'
p1449
g420
g421
tp1450
F0.0016313213703099511
s(S'album'
p1451
g1281
g1282
tp1452
F0.0008156606851549756
s(S'[[det]]'
p1453
g193
g194
tp1454
F0.0008156606851549756
s(S'[[adj]]'
p1455
g426
g427
tp1456
F0.044861337683523655
s(g1311
g1036
g356
tp1457
F0.0008156606851549756
s(g743
g744
S'band'
p1458
tp1459
F0.0016313213703099511
s(S'by'
p1460
S'jazz'
p1461
S'pianist'
p1462
tp1463
F0.0016313213703099511
s(g417
g418
S'band'
p1464
tp1465
F0.0032626427406199023
s(S'[[adj]]'
p1466
S'written'
p1467
S'by'
p1468
tp1469
F0.0008156606851549756
s(g428
g444
S'band'
p1470
tp1471
F0.004078303425774877
s(S'[[num]]'
p1472
S'compilation'
p1473
S'album'
p1474
tp1475
F0.0008156606851549756
s(S'release'
p1476
S'by'
p1477
S'[[det]]'
p1478
tp1479
F0.0008156606851549756
s(S'then'
p1480
S'produced'
p1481
S'at'
p1482
tp1483
F0.0008156606851549756
s(S'saxophonist'
p1484
S'recorded'
p1485
S'by'
p1486
tp1487
F0.0008156606851549756
s(S'[[num]]'
p1488
S'song'
p1489
S'written'
p1490
tp1491
F0.0024469820554649264
s(g177
g1087
S'released'
p1492
tp1493
F0.0008156606851549756
s(S'by'
p1494
S'jazz'
p1495
S'musician'
p1496
tp1497
F0.0016313213703099511
s(S'album'
p1498
g340
g341
tp1499
F0.0024469820554649264
s(S'[[adj]]'
p1500
S'album'
p1501
S'that'
p1502
tp1503
F0.0008156606851549756
s(S'that'
p1504
S'featured'
p1505
S'[[con]]'
p1506
tp1507
F0.0008156606851549756
s(S'song'
p1508
S'from'
p1509
S'album'
p1510
tp1511
F0.0016313213703099511
s(g308
g309
g1484
tp1512
F0.0008156606851549756
s(S'[[det]]'
p1513
g859
g860
tp1514
F0.0016313213703099511
s(g1252
g1253
S'rock'
p1515
tp1516
F0.0032626427406199023
s(S'was'
p1517
S'recorded'
p1518
S'[[con]]'
p1519
tp1520
F0.0016313213703099511
s(S'song'
p1521
S'by'
p1522
S'[[adj]]'
p1523
tp1524
F0.0032626427406199023
s(g1518
g1519
S'was'
p1525
tp1526
F0.0008156606851549756
s(g675
g676
g461
tp1527
F0.01468189233278956
s(g949
g950
S'band'
p1528
tp1529
F0.0016313213703099511
s(g1177
g548
g549
tp1530
F0.0008156606851549756
s(S'album'
p1531
g37
g38
tp1532
F0.0008156606851549756
s(S'[[adj]]'
p1533
S'success'
p1534
S'for'
p1535
tp1536
F0.0008156606851549756
s(S'first'
p1537
S'produced'
p1538
S'by'
p1539
tp1540
F0.0008156606851549756
s(g1278
g1279
S'band'
p1541
tp1542
F0.004893964110929853
s(S'also'
p1543
S'released'
p1544
S'in'
p1545
tp1546
F0.0008156606851549756
s(g676
g461
g462
tp1547
F0.004893964110929853
s(S'album'
p1548
S'by'
p1549
S'singer'
p1550
tp1551
F0.0065252854812398045
s(S'song'
p1552
S'by'
p1553
S'alternative'
p1554
tp1555
F0.0008156606851549756
s(g58
g59
g364
tp1556
F0.0032626427406199023
s(S'metal'
p1557
S'band'
p1558
S'album'
p1559
tp1560
F0.0008156606851549756
s(S'[[con]]'
p1561
S'produced'
p1562
S'by'
p1563
tp1564
F0.004893964110929853
s(S'recorded'
p1565
S'[[con]]'
p1566
S'produced'
p1567
tp1568
F0.0008156606851549756
s(S'was'
p1569
S'revealed'
p1570
S'that'
p1571
tp1572
F0.0008156606851549756
s(S'is'
p1573
S'featured'
p1574
S'[[det]]'
p1575
tp1576
F0.0008156606851549756
s(g78
g79
S'label'
p1577
tp1578
F0.0008156606851549756
s(S'rock'
p1579
S'song'
p1580
S'written'
p1581
tp1582
F0.0016313213703099511
s.