(dp0
(S'also'
p1
S'served'
p2
S'alongside'
p3
tp4
F0.25
s(S'served'
p5
S'[[con]]'
p6
S'alongside'
p7
tp8
F0.25
s(S'served'
p9
S'alongside'
p10
S'[[con]]'
p11
tp12
F0.25
s(S'has'
p13
S'served'
p14
S'alongside'
p15
tp16
F0.25
s.