(dp0
(S'comedy'
p1
S'film'
p2
S'produced'
p3
tp4
F0.0010443864229765013
s(S'action'
p5
S'film'
p6
S'directed'
p7
tp8
F0.005221932114882507
s(S'also'
p9
S'known'
p10
S'as'
p11
tp12
F0.0005221932114882506
s(S'road'
p13
S'movie'
p14
S'directed'
p15
tp16
F0.0010443864229765013
s(S'released'
p17
S'in'
p18
S'[[num]]'
p19
tp20
F0.0005221932114882506
s(S'was'
p21
S'created'
p22
S'by'
p23
tp24
F0.0005221932114882506
s(S'thriller'
p25
S'film'
p26
S'starring'
p27
tp28
F0.005221932114882507
s(S'[[num]]'
p29
S'crime'
p30
S'film'
p31
tp32
F0.006788511749347258
s(S'television'
p33
S'drama'
p34
S'film'
p35
tp36
F0.0005221932114882506
s(S'horror'
p37
S'film'
p38
S'starring'
p39
tp40
F0.003133159268929504
s(S'by'
p41
S'produced'
p42
S'[[con]]'
p43
tp44
F0.0005221932114882506
s(S'directed'
p45
S'starring'
p46
S'[[con]]'
p47
tp48
F0.004699738903394256
s(S'thriller'
p49
S'film'
p50
S'directed'
p51
tp52
F0.010966057441253264
s(S'is'
p53
S'[[num]]'
p54
g33
tp55
F0.0005221932114882506
s(S'comedy'
p56
S'film'
p57
S'featuring'
p58
tp59
F0.001566579634464752
s(S'mystery'
p60
S'film'
p61
S'starring'
p62
tp63
F0.0005221932114882506
s(S'feature'
p64
S'film'
p65
S'starring'
p66
tp67
F0.0026109660574412533
s(S'[[num]]'
p68
S'film'
p69
S'[[adj]]'
p70
tp71
F0.0005221932114882506
s(S'film'
p72
S'directed'
p73
S'written'
p74
tp75
F0.004699738903394256
s(S'gentleman'
p76
S'[[num]]'
p77
S'movie'
p78
tp79
F0.0005221932114882506
s(S'produced'
p80
S'by'
p81
S'starring'
p82
tp83
F0.0005221932114882506
s(S'[[adj]]'
p84
S'arts'
p85
S'film'
p86
tp87
F0.001566579634464752
s(S'film'
p88
S'directed'
p89
S'by'
p90
tp91
F0.06109660574412533
s(S'was'
p92
S'based'
p93
S'by'
p94
tp95
F0.0005221932114882506
s(S'was'
p96
S'written'
p97
S'about'
p98
tp99
F0.0005221932114882506
s(S'[[adj]]'
p100
S'book'
p101
S'in'
p102
tp103
F0.0005221932114882506
s(S'was'
p104
S'directed'
p105
S'produced'
p106
tp107
F0.0005221932114882506
s(S'is'
p108
S'[[adj]]'
p109
S'arts'
p110
tp111
F0.0005221932114882506
s(S'adapted'
p112
S'[[num]]'
p113
S'movie'
p114
tp115
F0.0005221932114882506
s(g69
g70
S'[[con]]'
p116
tp117
F0.0010443864229765013
s(S'with'
p118
S'lyrics'
p119
S'by'
p120
tp121
F0.0005221932114882506
s(S'action'
p122
S'film'
p123
S'[[con]]'
p124
tp125
F0.0005221932114882506
s(S's'
p126
S'book'
p127
S'written'
p128
tp129
F0.001566579634464752
s(S'crime'
p130
S'film'
p131
S'starring'
p132
tp133
F0.0020887728459530026
s(S'[[adj]]'
p134
S'lyrics'
p135
S'[[con]]'
p136
tp137
F0.001566579634464752
s(S'directed'
p138
g41
g42
tp139
F0.0005221932114882506
s(S'film'
p140
S'from'
p141
S'directed'
p142
tp143
F0.0005221932114882506
s(S'is'
p144
S'based'
p145
S'by'
p146
tp147
F0.0005221932114882506
s(g18
g19
S'starring'
p148
tp149
F0.0010443864229765013
s(S'[[con]]'
p150
S'action'
p151
S'film'
p152
tp153
F0.0005221932114882506
s(S'directed'
p154
S'with'
p155
S'[[det]]'
p156
tp157
F0.001566579634464752
s(S'[[num]]'
p158
S'film'
p159
S'starring'
p160
tp161
F0.001566579634464752
s(S'[[det]]'
p162
S'play'
p163
S'adapted'
p164
tp165
F0.0005221932114882506
s(S'[[num]]'
p166
S'film'
p167
S'that'
p168
tp169
F0.0005221932114882506
s(S'by'
p170
S'starring'
p171
S'[[con]]'
p172
tp173
F0.004177545691906005
s(S'is'
p174
S'[[num]]'
p175
S'thriller'
p176
tp177
F0.0005221932114882506
s(S'[[num]]'
p178
S'fantasy'
p179
S'film'
p180
tp181
F0.001566579634464752
s(g136
S'[[adj]]'
p182
S'book'
p183
tp184
F0.0005221932114882506
s(S'directed'
p185
S'starring'
p186
S'as'
p187
tp188
F0.0005221932114882506
s(S'[[adj]]'
p189
S'novel'
p190
S'written'
p191
tp192
F0.0005221932114882506
s(S'[[num]]'
p193
S'detective'
p194
S'film'
p195
tp196
F0.0010443864229765013
s(S'was'
p197
S'originally'
p198
S'created'
p199
tp200
F0.0005221932114882506
s(S'into'
p201
S'[[det]]'
p202
S'film'
p203
tp204
F0.0005221932114882506
s(S'not'
p205
S'written'
p206
S'by'
p207
tp208
F0.0005221932114882506
s(S'film'
p209
S'starring'
p210
S'directed'
p211
tp212
F0.0010443864229765013
s(S'[[num]]'
p213
S'drama'
p214
S'film'
p215
tp216
F0.014621409921671017
s(S'created'
p217
S'[[con]]'
p218
S'written'
p219
tp220
F0.0005221932114882506
s(S'comedy'
p221
S'directed'
p222
S'[[con]]'
p223
tp224
F0.001566579634464752
s(S'documentary'
p225
S'directed'
p226
S'[[con]]'
p227
tp228
F0.0010443864229765013
s(S'directed'
p229
S'starring'
p230
S'[[det]]'
p231
tp232
F0.0005221932114882506
s(S'[[num]]'
p233
S'film'
p234
S'directed'
p235
tp236
F0.01671018276762402
s(S'[[num]]'
p237
S'book'
p238
S'by'
p239
tp240
F0.0005221932114882506
s(S'television'
p241
S'film'
p242
S'starring'
p243
tp244
F0.0010443864229765013
s(S'[[con]]'
p245
S'directed'
p246
S'by'
p247
tp248
F0.022454308093994776
s(S'lyrics'
p249
S'[[con]]'
p250
S'book'
p251
tp252
F0.0005221932114882506
s(S'[[num]]'
p253
S'film'
p254
S'produced'
p255
tp256
F0.0005221932114882506
s(S'directed'
p257
S'[[con]]'
p258
S'produced'
p259
tp260
F0.006266318537859008
s(S'documentary'
p261
S'film'
p262
S'produced'
p263
tp264
F0.0005221932114882506
s(S'written'
p265
S'[[con]]'
p266
S'illustrated'
p267
tp268
F0.0010443864229765013
s(S'adventure'
p269
g17
g18
tp270
F0.0005221932114882506
s(S'comedy'
p271
S'family'
p272
S'film'
p273
tp274
F0.0005221932114882506
s(S'were'
p275
S'created'
p276
S'by'
p277
tp278
F0.0005221932114882506
s(S'action'
p279
S'comedy'
p280
S'film'
p281
tp282
F0.0026109660574412533
s(S'adventure'
p283
S'film'
p284
S'directed'
p285
tp286
F0.0026109660574412533
s(S'horror'
p287
S'film'
p288
S'written'
p289
tp290
F0.003133159268929504
s(S'was'
p291
S'originally'
p292
S'developed'
p293
tp294
F0.0005221932114882506
s(S'[[con]]'
p295
S'directed'
p296
S'[[con]]'
p297
tp298
F0.010443864229765013
s(S'directed'
p299
S'produced'
p300
S'[[con]]'
p301
tp302
F0.0010443864229765013
s(g77
g78
S'directed'
p303
tp304
F0.0020887728459530026
s(S'fantasy'
p305
S'novel'
p306
S'by'
p307
tp308
F0.0010443864229765013
s(S'cult'
p309
S'[[num]]'
p310
S'drama'
p311
tp312
F0.0005221932114882506
s(S'[[adj]]'
p313
S'action'
p314
S'film'
p315
tp316
F0.0020887728459530026
s(S'[[con]]'
p317
S'starring'
p318
S'as'
p319
tp320
F0.0010443864229765013
s(S'drama'
p321
S'film'
p322
S'[[adj]]'
p323
tp324
F0.0010443864229765013
s(S'was'
p325
S'written'
p326
S'by'
p327
tp328
F0.0005221932114882506
s(g155
g156
S'screenplay'
p329
tp330
F0.0010443864229765013
s(S'family'
p331
S'comedy'
p332
S'film'
p333
tp334
F0.0010443864229765013
s(S'[[det]]'
p335
S'book'
p336
S'written'
p337
tp338
F0.0005221932114882506
s(S'crime'
p339
S'film'
p340
S'directed'
p341
tp342
F0.007832898172323759
s(g126
S'written'
p343
S'by'
p344
tp345
F0.0005221932114882506
s(S'[[det]]'
p346
S'mystery'
p347
S'film'
p348
tp349
F0.0005221932114882506
s(S'of'
p350
S'directed'
p351
S'[[con]]'
p352
tp353
F0.0005221932114882506
s(S'directed'
p354
S'produced'
p355
S'by'
p356
tp357
F0.0010443864229765013
s(S'[[num]]'
p358
S'film'
p359
S'noir'
p360
tp361
F0.0010443864229765013
s(g10
g11
S'[[num]]'
p362
tp363
F0.0005221932114882506
s(S'crime'
p364
S'drama'
p365
S'starring'
p366
tp367
F0.0005221932114882506
s(S'drama'
p368
S'directed'
p369
S'[[con]]'
p370
tp371
F0.0005221932114882506
s(S'[[adj]]'
p372
S'drama'
p373
S'[[adj]]'
p374
tp375
F0.0005221932114882506
s(S'[[num]]'
p376
S'crime'
p377
S'drama'
p378
tp379
F0.0026109660574412533
s(S'comedy'
p380
S'horror'
p381
S'film'
p382
tp383
F0.0005221932114882506
s(S'television'
p384
S'film'
p385
S'written'
p386
tp387
F0.0005221932114882506
s(S'noir'
p388
S'directed'
p389
S'[[con]]'
p390
tp391
F0.0005221932114882506
s(S'drama'
p392
S'film'
p393
S'based'
p394
tp395
F0.0005221932114882506
s(S'is'
p396
S'written'
p397
S'that'
p398
tp399
F0.0005221932114882506
s(S'released'
p400
S'is'
p401
S'[[num]]'
p402
tp403
F0.0005221932114882506
s(S'[[num]]'
p404
S'fantasy'
p405
S'adventure'
p406
tp407
F0.0005221932114882506
s(g73
g74
S'[[con]]'
p408
tp409
F0.003133159268929504
s(S'[[det]]'
p410
S'novel'
p411
S'by'
p412
tp413
F0.0026109660574412533
s(g85
g86
S'directed'
p414
tp415
F0.001566579634464752
s(S'action'
p416
S'written'
p417
S'[[con]]'
p418
tp419
F0.0010443864229765013
s(S'[[num]]'
p420
S'action'
p421
S'thriller'
p422
tp423
F0.0020887728459530026
s(S'film'
p424
S'[[adj]]'
p425
S'directed'
p426
tp427
F0.0010443864229765013
s(S'produced'
p428
S'with'
p429
S'[[det]]'
p430
tp431
F0.0005221932114882506
s(S'movie'
p432
S'directed'
p433
S'[[con]]'
p434
tp435
F0.001566579634464752
s(S'[[con]]'
p436
g428
g429
tp437
F0.0005221932114882506
s(S'drama'
p438
S'directed'
p439
S'by'
p440
tp441
F0.0005221932114882506
s(S'film'
p442
g438
g439
tp443
F0.0005221932114882506
s(S'starring'
p444
S'[[con]]'
p445
S'featuring'
p446
tp447
F0.0020887728459530026
s(S'[[adj]]'
p448
S'feature'
p449
S'film'
p450
tp451
F0.0010443864229765013
s(S'[[adj]]'
p452
g305
g306
tp453
F0.0005221932114882506
s(S'[[num]]'
p454
S'language'
p455
S'film'
p456
tp457
F0.0020887728459530026
s(S'[[num]]'
p458
g221
g222
tp459
F0.0010443864229765013
s(S'[[con]]'
p460
S'written'
p461
S'by'
p462
tp463
F0.00835509138381201
s(S'color'
p464
S'film'
p465
S'was'
p466
tp467
F0.0005221932114882506
s(S'[[det]]'
p468
S'anthology'
p469
S'edited'
p470
tp471
F0.0005221932114882506
s(S'screenplay'
p472
S'written'
p473
S'by'
p474
tp475
F0.0005221932114882506
s(S'[[adj]]'
p476
S'drama'
p477
S'film'
p478
tp479
F0.009921671018276762
s(S'titled'
p480
S'is'
p481
S'[[num]]'
p482
tp483
F0.0005221932114882506
s(S'[[adj]]'
p484
S'comedy'
p485
S'drama'
p486
tp487
F0.0005221932114882506
s(S'[[con]]'
p488
g185
g186
tp489
F0.0036553524804177544
s(S'comedy'
p490
S'film'
p491
S'from'
p492
tp493
F0.0005221932114882506
s(S'[[con]]'
p494
S'lyrics'
p495
S'by'
p496
tp497
F0.0010443864229765013
s(S'[[num]]'
p498
S'movie'
p499
S'[[con]]'
p500
tp501
F0.0005221932114882506
s(g30
g31
S'based'
p502
tp503
F0.0005221932114882506
s(g292
g293
S'by'
p504
tp505
F0.0005221932114882506
s(S'as'
p506
S'[[det]]'
p507
S'film'
p508
tp509
F0.0005221932114882506
s(S'comedy'
p510
S'film'
p511
S'written'
p512
tp513
F0.006788511749347258
s(S'[[det]]'
p514
S'drama'
p515
S'thriller'
p516
tp517
F0.0005221932114882506
s(S'fantasy'
p518
S'action'
p519
S'film'
p520
tp521
F0.0005221932114882506
s(S'[[adj]]'
p522
g380
g381
tp523
F0.0005221932114882506
s(S'aka'
p524
g108
g109
tp525
F0.0005221932114882506
s(S'[[con]]'
p526
S'directed'
p527
S'with'
p528
tp529
F0.0010443864229765013
s(S'[[adj]]'
p530
S'history'
p531
S'novel'
p532
tp533
F0.0005221932114882506
s(S'[[num]]'
p534
S'horror'
p535
g140
tp536
F0.006788511749347258
s(S'was'
p537
S'written'
p538
S'for'
p539
tp540
F0.0005221932114882506
s(g465
g466
S'released'
p541
tp542
F0.0005221932114882506
s(S'[[adj]]'
p543
S'created'
p544
S'by'
p545
tp546
F0.0005221932114882506
s(S'[[det]]'
p547
S'film'
p548
S'written'
p549
tp550
F0.0005221932114882506
s(S'adapted'
p551
g201
g202
tp552
F0.0005221932114882506
s(S'[[con]]'
p553
S'starred'
p554
S'by'
p555
tp556
F0.0005221932114882506
s(S'comedy'
p557
S'crime'
p558
S'film'
p559
tp560
F0.0005221932114882506
s(S'[[adj]]'
p561
S'novel'
p562
S'by'
p563
tp564
F0.0020887728459530026
s(S'adapted'
p565
S'into'
p566
S'[[num]]'
p567
tp568
F0.0005221932114882506
s(S'[[adj]]'
p569
S'film'
p570
S'produced'
p571
tp572
F0.0005221932114882506
s(S'[[con]]'
p573
S'directed'
p574
S'gt'
p575
tp576
F0.0005221932114882506
s(S'edited'
p577
S'[[con]]'
p578
S'starring'
p579
tp580
F0.0005221932114882506
s(S'thriller'
p581
S'film'
p582
S'written'
p583
tp584
F0.0010443864229765013
s(S'[[adj]]'
p585
S'collection'
p586
S'of'
p587
tp588
F0.0005221932114882506
s(S'film'
p589
S'made'
p590
S'by'
p591
tp592
F0.0005221932114882506
s(S'was'
p593
S'written'
p594
g257
tp595
F0.0005221932114882506
s(S'[[num]]'
p596
g283
g284
tp597
F0.0036553524804177544
s(S'about'
p598
S'directed'
p599
S'[[con]]'
p600
tp601
F0.0010443864229765013
s(S'[[det]]'
p602
g269
g17
tp603
F0.0005221932114882506
s(S'comedy'
p604
S'film'
p605
S'starring'
p606
tp607
F0.006266318537859008
s(g594
g257
g258
tp608
F0.001566579634464752
s(S'thriller'
p609
S'directed'
p610
S'[[con]]'
p611
tp612
F0.0010443864229765013
s(S'was'
p613
S'adapted'
p614
g506
tp615
F0.0005221932114882506
s(g210
g211
S'by'
p616
tp617
F0.0010443864229765013
s(g566
g567
S'film'
p618
tp619
F0.0005221932114882506
s(S'written'
p620
S'[[con]]'
p621
S'starring'
p622
tp623
F0.004699738903394256
s(g124
S'crime'
p624
g368
tp625
F0.0005221932114882506
s(S'action'
p626
S'film'
p627
S'about'
p628
tp629
F0.0005221932114882506
s(S'horror'
p630
S'film'
p631
S'directed'
p632
tp633
F0.005744125326370757
s(S'drama'
p634
S'film'
p635
S'produced'
p636
tp637
F0.001566579634464752
s(S'[[adj]]'
p638
S'book'
p639
S'written'
p640
tp641
F0.0005221932114882506
s(g360
S'starring'
p642
S'[[con]]'
p643
tp644
F0.0005221932114882506
s(S'[[num]]'
p645
g331
g332
tp646
F0.0010443864229765013
s(S'comedydrama'
p647
S'film'
p648
S'directed'
p649
tp650
F0.0026109660574412533
s(g485
g486
g88
tp651
F0.001566579634464752
s(S'novel'
p652
S'by'
p653
S'[[adj]]'
p654
tp655
F0.0010443864229765013
s(S'film'
p656
S'written'
p657
S'by'
p658
tp659
F0.0026109660574412533
s(S'film'
p660
g45
g46
tp661
F0.012010443864229765
s(S'[[det]]'
p662
S'book'
p663
g126
tp664
F0.0005221932114882506
s(S'directed'
p665
S'by'
p666
S'[[con]]'
p667
tp668
F0.02349869451697128
s(S'drama'
p669
S'film'
p670
S'featuring'
p671
tp672
F0.0005221932114882506
s(S'[[con]]'
p673
S'starring'
p674
S'[[con]]'
p675
tp676
F0.014621409921671017
s(S'crime'
p677
S'thriller'
p678
S'film'
p679
tp680
F0.0020887728459530026
s(S'[[det]]'
p681
S'horror'
p682
S'film'
p683
tp684
F0.0010443864229765013
s(S'action'
p685
g424
g425
tp686
F0.0005221932114882506
s(S'thriller'
p687
S'film'
p688
S'released'
p689
tp690
F0.0005221932114882506
s(S'[[det]]'
p691
S'language'
p692
S'film'
p693
tp694
F0.0010443864229765013
s(S'is'
p695
S'based'
p696
S'from'
p697
tp698
F0.0005221932114882506
s(g126
S'picture'
p699
S'book'
p700
tp701
F0.0005221932114882506
s(S'[[adj]]'
p702
S'comedy'
p703
S'starring'
p704
tp705
F0.0005221932114882506
s(S'[[num]]'
p706
S'family'
p707
S'film'
p708
tp709
F0.0010443864229765013
s(g54
g33
g34
tp710
F0.0005221932114882506
s(g507
g508
S'in'
p711
tp712
F0.0005221932114882506
s(S'film'
p713
S'[[adj]]'
p714
S'starring'
p715
tp716
F0.0005221932114882506
s(S'written'
p717
S'by'
p718
S'[[con]]'
p719
tp720
F0.0005221932114882506
s(g135
g136
g182
tp721
F0.0005221932114882506
s(S'[[num]]'
p722
S'documentary'
p723
S'film'
p724
tp725
F0.0026109660574412533
s(S'film'
p726
S'[[con]]'
p727
S'[[adj]]'
p728
tp729
F0.0005221932114882506
s(S'[[num]]'
p730
S'book'
p731
S'written'
p732
tp733
F0.0005221932114882506
s(g377
g378
S'film'
p734
tp735
F0.0020887728459530026
s(S'comedy'
p736
S'film'
p737
S'released'
p738
tp739
F0.0005221932114882506
s(g296
g297
S'written'
p740
tp741
F0.008877284595300261
s(S'[[det]]'
p742
S'documentary'
p743
S'film'
p744
tp745
F0.0005221932114882506
s(S'[[num]]'
p746
S'romance'
p747
S'film'
p748
tp749
F0.0020887728459530026
s(S'directed'
p750
g553
g554
tp751
F0.0005221932114882506
s(S'[[num]]'
p752
S'written'
p753
S'by'
p754
tp755
F0.0005221932114882506
s(S'film'
p756
g53
g54
tp757
F0.0005221932114882506
s(S'[[det]]'
p758
g309
g310
tp759
F0.0005221932114882506
s(S'film'
p760
S'starring'
p761
g295
tp762
F0.015665796344647518
s(S'cast'
p763
S'comedydrama'
p764
S'film'
p765
tp766
F0.0005221932114882506
s(S'war'
p767
S'film'
p768
S'directed'
p769
tp770
F0.0020887728459530026
s(g491
g492
S'written'
p771
tp772
F0.0005221932114882506
s(S'[[num]]'
p773
S'novel'
p774
S'by'
p775
tp776
F0.0020887728459530026
s(S'assassination'
p777
g150
g151
tp778
F0.0005221932114882506
s(S'[[det]]'
p779
S'drama'
p780
S'film'
p781
tp782
F0.0010443864229765013
s(S'film'
p783
g354
g355
tp784
F0.001566579634464752
s(S'[[num]]'
p785
S'thriller'
p786
S'film'
p787
tp788
F0.008877284595300261
s(g731
g732
S'by'
p789
tp790
F0.0026109660574412533
s(S'anthology'
p791
S'edited'
p792
S'by'
p793
tp794
F0.0010443864229765013
s(S'[[det]]'
p795
S'film'
p796
S'directed'
p797
tp798
F0.0026109660574412533
s(S'[[det]]'
p799
S'fantasy'
p800
S'novel'
p801
tp802
F0.0005221932114882506
s(S'[[num]]'
p803
g279
g280
tp804
F0.0026109660574412533
s(g728
S'comedy'
p805
S'written'
p806
tp807
F0.0005221932114882506
s(S'[[det]]'
p808
S'thriller'
p809
S'film'
p810
tp811
F0.0010443864229765013
s(S'[[det]]'
p812
g777
g150
tp813
F0.0005221932114882506
s(S'known'
p814
S'is'
p815
S'[[adj]]'
p816
tp817
F0.0005221932114882506
s(S'be'
p818
S'written'
p819
S'by'
p820
tp821
F0.0005221932114882506
s(S'by'
p822
S'film'
p823
S'stars'
p824
tp825
F0.0005221932114882506
s(g737
g738
S'starring'
p826
tp827
F0.001566579634464752
s(S'by'
p828
S'starring'
p829
S'[[det]]'
p830
tp831
F0.0005221932114882506
s(S'[[det]]'
p832
S'children'
p833
g126
tp834
F0.001566579634464752
s(S'was'
p835
S'based'
p836
S'[[con]]'
p837
tp838
F0.0005221932114882506
s(S'[[num]]'
p839
g5
g6
tp840
F0.006266318537859008
s(S'comedy'
p841
S'directed'
p842
g620
tp843
F0.0005221932114882506
s(S'[[num]]'
p844
S'children'
p845
g126
tp846
F0.0005221932114882506
s(S'directed'
p847
g673
g674
tp848
F0.0412532637075718
s(S'film'
p849
S'directed'
p850
S'that'
p851
tp852
F0.0005221932114882506
s(g492
g771
S'[[con]]'
p853
tp854
F0.0005221932114882506
s(g300
g301
S'starring'
p855
tp856
F0.0010443864229765013
s(S'film'
p857
g847
g673
tp858
F0.0412532637075718
s(S'[[num]]'
p859
g767
g768
tp860
F0.0026109660574412533
s(S'directed'
p861
S'by'
p862
S'starring'
p863
tp864
F0.015665796344647518
s(S'[[adj]]'
p865
S'lyrics'
p866
S'by'
p867
tp868
F0.0005221932114882506
s(S'was'
p869
g112
g113
tp870
F0.0005221932114882506
s(S'novel'
p871
S'by'
p872
S'author'
p873
tp874
F0.001566579634464752
s(S'[[num]]'
p875
g64
g65
tp876
F0.0036553524804177544
s(S'adventure'
p877
S'film'
p878
S'starring'
p879
tp880
F0.0020887728459530026
s(g761
g295
g296
tp881
F0.0036553524804177544
s(S'[[adj]]'
p882
S'comedy'
p883
g857
tp884
F0.010966057441253264
s(g707
g708
S'directed'
p885
tp886
F0.001566579634464752
s(S'[[con]]'
p887
S'directed'
p888
S'which'
p889
tp890
F0.0005221932114882506
s(S'was'
p891
S'created'
p892
S'with'
p893
tp894
F0.0005221932114882506
s(S'[[det]]'
p895
S'war'
p896
S'film'
p897
tp898
F0.0005221932114882506
s(g575
S'[[con]]'
p899
S'starring'
p900
tp901
F0.0005221932114882506
s(S'[[det]]'
p902
S'film'
p903
S'comedy'
p904
tp905
F0.0005221932114882506
s(g266
g267
S'by'
p906
tp907
F0.0010443864229765013
s(S'written'
p908
S'by'
p909
S'starring'
p910
tp911
F0.0005221932114882506
s(S'is'
p912
S'based'
p913
S'on'
p914
tp915
F0.0005221932114882506
s(S'[[num]]'
p916
g604
g605
tp917
F0.013054830287206266
s(S'was'
p918
S'written'
p919
S'produced'
p920
tp921
F0.0005221932114882506
s(S'[[det]]'
p922
S'film'
p923
S'noir'
p924
tp925
F0.0005221932114882506
s(g653
g654
S'author'
p926
tp927
F0.0010443864229765013
s(S'[[det]]'
p928
S'collection'
p929
S'by'
p930
tp931
F0.0005221932114882506
s(S'produced'
p932
S'directed'
p933
S'by'
p934
tp935
F0.0010443864229765013
s(S'was'
p936
S'written'
p937
S'to'
p938
tp939
F0.0005221932114882506
s(S'was'
p940
S'written'
p941
S'that'
p942
tp943
F0.0005221932114882506
s(g167
g168
S'was'
p944
tp945
F0.0005221932114882506
s(g704
S'[[con]]'
p946
S'written'
p947
tp948
F0.0005221932114882506
s(g888
g889
S'starred'
p949
tp950
F0.0005221932114882506
s(S'[[adj]]'
p951
S'documentary'
p952
S'film'
p953
tp954
F0.0005221932114882506
s(S'[[adj]]'
p955
S'written'
p956
S'by'
p957
tp958
F0.0005221932114882506
s(S'[[num]]'
p959
S'mystery'
p960
S'crime'
p961
tp962
F0.0005221932114882506
s(g214
g215
S'directed'
p963
tp964
F0.018798955613577025
s(S'comedy'
p965
g713
g714
tp966
F0.0005221932114882506
s(g455
g456
S'starring'
p967
tp968
F0.001566579634464752
s(S'[[det]]'
p969
g609
g610
tp970
F0.0005221932114882506
s(S'feature'
p971
S'film'
p972
S'directed'
p973
tp974
F0.003133159268929504
s(g405
g406
S'film'
p975
tp976
F0.0005221932114882506
s(g960
g961
S'film'
p977
tp978
F0.0005221932114882506
s(S'[[num]]'
p979
S'based'
p980
S'on'
p981
tp982
F0.0005221932114882506
s(g624
g368
g369
tp983
F0.0005221932114882506
s(S'is'
p984
S'written'
p985
S'by'
p986
tp987
F0.0005221932114882506
s(S'[[num]]'
p988
S'based'
p989
S'by'
p990
tp991
F0.0005221932114882506
s(S'film'
p992
g350
g351
tp993
F0.0005221932114882506
s(S'directed'
p994
S'[[con]]'
p995
S'stars'
p996
tp997
F0.0020887728459530026
s(g11
g362
S'comedy'
p998
tp999
F0.0005221932114882506
s(S'[[det]]'
p1000
S'crime'
p1001
S'film'
p1002
tp1003
F0.0005221932114882506
s(S'is'
p1004
S'based'
p1005
S'[[con]]'
p1006
tp1007
F0.0005221932114882506
s(S'[[adj]]'
p1008
S'mystery'
p1009
S'film'
p1010
tp1011
F0.0005221932114882506
s(g481
g482
S'drama'
p1012
tp1013
F0.0005221932114882506
s(S'book'
p1014
g494
g495
tp1015
F0.0005221932114882506
s(S'directed'
p1016
g822
g823
tp1017
F0.0005221932114882506
s(S'[[adj]]'
p1018
S'film'
p1019
S'directed'
p1020
tp1021
F0.010443864229765013
s(S'[[num]]'
p1022
S'produced'
p1023
S'[[con]]'
p1024
tp1025
F0.0005221932114882506
s(S'known'
p1026
S'is'
p1027
S'film'
p1028
tp1029
F0.0005221932114882506
s(g3
S'[[con]]'
p1030
S'directed'
p1031
tp1032
F0.005221932114882507
s(S'[[det]]'
p1033
g76
g77
tp1034
F0.0005221932114882506
s(S'[[num]]'
p1035
g271
g272
tp1036
F0.0005221932114882506
s(S'movie'
p1037
S'produced'
p1038
S'[[con]]'
p1039
tp1040
F0.0005221932114882506
s(g163
g164
S'by'
p1041
tp1042
F0.0005221932114882506
s(g359
g360
g642
tp1043
F0.0005221932114882506
s(S'language'
p1044
S'film'
p1045
S'written'
p1046
tp1047
F0.0005221932114882506
s(S'[[num]]'
p1048
S'drama'
p1049
S'[[adj]]'
p1050
tp1051
F0.0005221932114882506
s(S'by'
p1052
S'[[con]]'
p1053
S'featuring'
p1054
tp1055
F0.0005221932114882506
s(S'[[adj]]'
p1056
S'comedy'
p1057
S'[[adj]]'
p1058
tp1059
F0.0010443864229765013
s(S'[[adj]]'
p1060
S'romance'
p1061
S'film'
p1062
tp1063
F0.0005221932114882506
s(g106
S'[[con]]'
p1064
S'written'
p1065
tp1066
F0.0005221932114882506
s(g466
g541
S'starring'
p1067
tp1068
F0.0005221932114882506
s(g614
g506
g507
tp1069
F0.0005221932114882506
s(g508
g711
S'[[num]]'
p1070
tp1071
F0.0005221932114882506
s(S'[[adj]]'
p1072
S'book'
p1073
S'by'
p1074
tp1075
F0.0010443864229765013
s(S'[[adj]]'
p1076
g791
g792
tp1077
F0.0005221932114882506
s(S'[[det]]'
p1078
S'written'
p1079
S'produced'
p1080
tp1081
F0.0005221932114882506
s(S'directed'
p1082
S'written'
p1083
S'by'
p1084
tp1085
F0.0020887728459530026
s(S'[[det]]'
p1086
S'sports'
p1087
S'drama'
p1088
tp1089
F0.0005221932114882506
s(S'[[det]]'
p1090
S'film'
p1091
S'released'
p1092
tp1093
F0.0005221932114882506
s(g747
g748
S'directed'
p1094
tp1095
F0.0020887728459530026
s(S'romance'
p1096
S'film'
p1097
S'starring'
p1098
tp1099
F0.0005221932114882506
s(S'[[det]]'
p1100
g992
g350
tp1101
F0.0005221932114882506
s(S'film'
p1102
g598
g599
tp1103
F0.0010443864229765013
s(S'[[adj]]'
p1104
S'fantasy'
p1105
S'film'
p1106
tp1107
F0.0005221932114882506
s(S'novel'
p1108
S'by'
p1109
S'writer'
p1110
tp1111
F0.001566579634464752
s(g850
g851
S'starred'
p1112
tp1113
F0.0005221932114882506
s(g519
g520
S'starring'
p1114
tp1115
F0.0020887728459530026
s(g723
g724
S'directed'
p1116
tp1117
F0.0026109660574412533
s(S'also'
p1118
g814
g815
tp1119
F0.004177545691906005
s(S'film'
p1120
S'written'
p1121
S'directed'
p1122
tp1123
F0.0010443864229765013
s(S'[[num]]'
p1124
g416
g417
tp1125
F0.0010443864229765013
s(S'[[num]]'
p1126
g1037
g1038
tp1127
F0.0005221932114882506
s(S'was'
p1128
S'written'
p1129
S'[[con]]'
p1130
tp1131
F0.001566579634464752
s(S'[[adj]]'
p1132
g339
g340
tp1133
F0.0026109660574412533
s(S'is'
p1134
S'based'
p1135
S'upon'
p1136
tp1137
F0.0005221932114882506
s(S'[[num]]'
p1138
g677
g678
tp1139
F0.0020887728459530026
s(S'not'
p1140
S'based'
p1141
S'on'
p1142
tp1143
F0.0005221932114882506
s(g919
g920
S'[[con]]'
p1144
tp1145
F0.0010443864229765013
s(g1122
S'[[con]]'
p1146
g577
tp1147
F0.0010443864229765013
s(g500
g932
g933
tp1148
F0.0005221932114882506
s(S'war'
p1149
S'film'
p1150
S'starring'
p1151
tp1152
F0.001566579634464752
s(S'[[det]]'
p1153
S'color'
p1154
S'film'
p1155
tp1156
F0.0010443864229765013
s(S'[[num]]'
p1157
S'novel'
p1158
S'written'
p1159
tp1160
F0.0005221932114882506
s(S'[[num]]'
p1161
S'gt'
p1162
S'[[adj]]'
p1163
tp1164
F0.0005221932114882506
s(S'[[num]]'
p1165
g442
g438
tp1166
F0.0005221932114882506
s(g401
g402
S'adventure'
p1167
tp1168
F0.0005221932114882506
s(S'[[num]]'
p1169
S'mystery'
p1170
S'film'
p1171
tp1172
F0.0026109660574412533
s(g574
g575
g899
tp1173
F0.0005221932114882506
s(S'known'
p1174
S'is'
p1175
g158
tp1176
F0.004177545691906005
s(S'documentary'
p1177
S'film'
p1178
S'starring'
p1179
tp1180
F0.0005221932114882506
s(S'[[num]]'
p1181
S'comedy'
p1182
S'drama'
p1183
tp1184
F0.0010443864229765013
s(g141
g142
S'by'
p1185
tp1186
F0.0005221932114882506
s(g590
g591
S'starring'
p1187
tp1188
F0.0005221932114882506
s(S'[[adj]]'
p1189
g49
g50
tp1190
F0.003133159268929504
s(S'[[det]]'
p1191
g472
g473
tp1192
F0.0005221932114882506
s(g70
g116
S'directed'
p1193
tp1194
F0.0010443864229765013
s(g883
g857
g847
tp1195
F0.01671018276762402
s(g805
g806
S'[[con]]'
p1196
tp1197
F0.0005221932114882506
s(S'[[adj]]'
p1198
S'comedy'
p1199
S'directed'
p1200
tp1201
F0.0010443864229765013
s(S'[[adj]]'
p1202
S'collection'
p1203
S'by'
p1204
tp1205
F0.0005221932114882506
s(S'[[adj]]'
p1206
g557
g558
tp1207
F0.0005221932114882506
s(g31
g502
S'directed'
p1208
tp1209
F0.0005221932114882506
s(g963
S'based'
p1210
S'by'
p1211
tp1212
F0.0010443864229765013
s(S'[[con]]'
p1213
S'written'
p1214
S'[[con]]'
p1215
tp1216
F0.001566579634464752
s(S'[[det]]'
p1217
S'comedy'
p1218
S'action'
p1219
tp1220
F0.0005221932114882506
s(g570
g571
S'directed'
p1221
tp1222
F0.0005221932114882506
s(S'[[num]]'
p1223
g13
g14
tp1224
F0.0010443864229765013
s(S'film'
p1225
S'directed'
p1226
S'as'
p1227
tp1228
F0.0005221932114882506
s(g425
g426
S'by'
p1229
tp1230
F0.0010443864229765013
s(S'comedydrama'
p1231
S'film'
p1232
S'starring'
p1233
tp1234
F0.0026109660574412533
s(g995
g996
S'[[con]]'
p1235
tp1236
F0.0010443864229765013
s(g703
g704
g946
tp1237
F0.0005221932114882506
s(g1218
g1219
S'film'
p1238
tp1239
F0.0005221932114882506
s(g635
g636
S'by'
p1240
tp1241
F0.0005221932114882506
s(g499
g500
g932
tp1242
F0.0005221932114882506
s(g258
g259
S'by'
p1243
tp1244
F0.006266318537859008
s(S'[[con]]'
p1245
S'lyrics'
p1246
S'[[con]]'
p1247
tp1248
F0.0005221932114882506
s(g815
g816
S'film'
p1249
tp1250
F0.0005221932114882506
s(S'is'
p1251
g233
g234
tp1252
F0.0036553524804177544
s(S'by'
p1253
S'[[det]]'
p1254
S'writer'
p1255
tp1256
F0.0010443864229765013
s(g57
g58
S'[[con]]'
p1257
tp1258
F0.0005221932114882506
s(S'[[adj]]'
p1259
S'thriller'
p1260
S'directed'
p1261
tp1262
F0.0005221932114882506
s(S'[[det]]'
p1263
g736
g737
tp1264
F0.0020887728459530026
s(S'[[adj]]'
p1265
S'based'
p1266
S'by'
p1267
tp1268
F0.0005221932114882506
s(S'film'
p1269
g388
g389
tp1270
F0.0010443864229765013
s(g727
g728
g805
tp1271
F0.0005221932114882506
s(S'action'
p1272
S'film'
p1273
S'written'
p1274
tp1275
F0.0010443864229765013
s(g699
g700
S'written'
p1276
tp1277
F0.0005221932114882506
s(g1087
g1088
S'film'
p1278
tp1279
F0.0005221932114882506
s(S'article'
p1280
g1251
g233
tp1281
F0.0005221932114882506
s(S'[[adj]]'
p1282
g37
g38
tp1283
F0.0020887728459530026
s(g2
g3
g1030
tp1284
F0.003133159268929504
s(S'[[num]]'
p1285
S'thriller'
p1286
S'directed'
p1287
tp1288
F0.0005221932114882506
s(S'[[adj]]'
p1289
g763
g764
tp1290
F0.0005221932114882506
s(S'language'
p1291
S'film'
p1292
S'directed'
p1293
tp1294
F0.0010443864229765013
s(g502
g1208
S'[[con]]'
p1295
tp1296
F0.0005221932114882506
s(S'[[adj]]'
p1297
g589
g590
tp1298
F0.0005221932114882506
s(S'was'
p1299
g565
g566
tp1300
F0.0010443864229765013
s(g378
g734
S'starring'
p1301
tp1302
F0.004177545691906005
s(S'[[num]]'
p1303
S'comedy'
p1304
S'[[adj]]'
p1305
tp1306
F0.0010443864229765013
s(S'children'
p1307
g126
g699
tp1308
F0.0005221932114882506
s(g421
g422
S'film'
p1309
tp1310
F0.0020887728459530026
s(S'comedy'
p1311
S'[[adj]]'
p1312
g760
tp1313
F0.0026109660574412533
s(S'film'
p1314
g154
g155
tp1315
F0.0010443864229765013
s(S'directed'
p1316
S'[[con]]'
p1317
S'featuring'
p1318
tp1319
F0.001566579634464752
s(S'comedydrama'
p1320
g656
g657
tp1321
F0.0020887728459530026
s(S'[[det]]'
p1322
g225
g226
tp1323
F0.0010443864229765013
s(S'[[num]]'
p1324
S'family'
p1325
S'adventure'
p1326
tp1327
F0.0005221932114882506
s(g429
g430
S'starring'
p1328
tp1329
F0.0005221932114882506
s(g1325
g1326
S'film'
p1330
tp1331
F0.0005221932114882506
s(g1170
g1171
S'directed'
p1332
tp1333
F0.003133159268929504
s(S'[[con]]'
p1334
S'[[det]]'
p1335
S'book'
p1336
tp1337
F0.0010443864229765013
s(S'written'
p1338
g488
g185
tp1339
F0.028720626631853787
s(S'[[num]]'
p1340
g518
g519
tp1341
F0.0005221932114882506
s(S'novel'
p1342
g1253
g1254
tp1343
F0.0010443864229765013
s(g924
S'directed'
p1344
S'by'
p1345
tp1346
F0.0005221932114882506
s(g74
g408
S'produced'
p1347
tp1348
F0.0005221932114882506
s(g14
g15
S'by'
p1349
tp1350
F0.001566579634464752
s(S'[[adj]]'
p1351
S'film'
p1352
S'written'
p1353
tp1354
F0.001566579634464752
s(g194
g195
S'directed'
p1355
tp1356
F0.0010443864229765013
s(g1260
g1261
S'by'
p1357
tp1358
F0.0005221932114882506
s(S'[[det]]'
p1359
S'book'
p1360
S'by'
p1361
tp1362
F0.001566579634464752
s(S'[[con]]'
p1363
S'edited'
p1364
S'by'
p1365
tp1366
F0.0005221932114882506
s(S'[[num]]'
p1367
g384
g385
tp1368
F0.001566579634464752
s(g123
g124
g624
tp1369
F0.0005221932114882506
s(S'[[adj]]'
p1370
S'adventure'
p1371
S'film'
p1372
tp1373
F0.0010443864229765013
s(g215
g963
g1210
tp1374
F0.0010443864229765013
s(S'[[num]]'
p1375
g756
g53
tp1376
F0.0005221932114882506
s(g535
g140
g141
tp1377
F0.0005221932114882506
s(g1027
g1028
S'starring'
p1378
tp1379
F0.0005221932114882506
s(S'crime'
p1380
S'film'
p1381
S'written'
p1382
tp1383
F0.0005221932114882506
s(g179
g180
S'directed'
p1384
tp1385
F0.0020887728459530026
s(g168
g944
S'written'
p1386
tp1387
F0.0005221932114882506
s(S'[[det]]'
p1388
g1014
g494
tp1389
F0.0005221932114882506
s(g1146
g577
g578
tp1390
F0.0005221932114882506
s(S'directed'
p1391
S'starring'
p1392
S'with'
p1393
tp1394
F0.0010443864229765013
s(g1312
g760
g761
tp1395
F0.003133159268929504
s(S'[[adj]]'
p1396
g726
g727
tp1397
F0.0005221932114882506
s(S'[[adj]]'
p1398
S'written'
p1399
S'[[con]]'
p1400
tp1401
F0.0010443864229765013
s(S'film'
p1402
g1338
g488
tp1403
F0.025065274151436032
s(S'been'
p1404
S'written'
p1405
S'by'
p1406
tp1407
F0.0005221932114882506
s(g373
g374
S'film'
p1408
tp1409
F0.0010443864229765013
s(g250
g251
S'by'
p1410
tp1411
F0.0005221932114882506
s(S'is'
p1412
S'[[num]]'
p1413
S'mystery'
p1414
tp1415
F0.0005221932114882506
s(g833
g126
g127
tp1416
F0.001566579634464752
s(S'is'
p1417
S'created'
p1418
S'by'
p1419
tp1420
F0.0005221932114882506
s(g531
g532
S'written'
p1421
tp1422
F0.0005221932114882506
s(g903
g904
S'starring'
p1423
tp1424
F0.0005221932114882506
s(S'[[num]]'
p1425
g647
g648
tp1426
F0.004699738903394256
s(S'aka'
p1427
S'is'
p1428
S'[[num]]'
p1429
tp1430
F0.0010443864229765013
s(S'drama'
p1431
S'film'
p1432
S'written'
p1433
tp1434
F0.004177545691906005
s(S'book'
p1435
g265
g266
tp1436
F0.0010443864229765013
s(S'is'
p1437
S'[[num]]'
p1438
S'crime'
p1439
tp1440
F0.0010443864229765013
s(S'adventure'
p1441
S'film'
p1442
S'written'
p1443
tp1444
F0.0010443864229765013
s(S'[[num]]'
p1445
S'film'
p1446
S'written'
p1447
tp1448
F0.004177545691906005
s(S'with'
p1449
S'[[det]]'
p1450
S'script'
p1451
tp1452
F0.0005221932114882506
s(S'novel'
p1453
S'written'
p1454
S'by'
p1455
tp1456
F0.0020887728459530026
s(g515
g516
S'film'
p1457
tp1458
F0.0005221932114882506
s(S'[[det]]'
p1459
g1453
g1454
tp1460
F0.0005221932114882506
s(g666
g667
S'starring'
p1461
tp1462
F0.02349869451697128
s(S'lyrics'
p1463
g1334
g1335
tp1464
F0.0010443864229765013
s(S'were'
p1465
S'written'
p1466
S'by'
p1467
tp1468
F0.0005221932114882506
s(S'[[det]]'
p1469
g1311
g1312
tp1470
F0.0005221932114882506
s(g198
g199
S'by'
p1471
tp1472
F0.0005221932114882506
s(g1154
g1155
S'starring'
p1473
tp1474
F0.0005221932114882506
s.