(dp0
(S'is'
p1
S'led'
p2
S'by'
p3
tp4
F0.02040816326530612
s(S'were'
p5
S'led'
p6
S'by'
p7
tp8
F0.02040816326530612
s(S'then'
p9
S'led'
p10
S'by'
p11
tp12
F0.02040816326530612
s(S'were'
p13
S'founded'
p14
S'by'
p15
tp16
F0.02040816326530612
s(S'were'
p17
S'formed'
p18
S'by'
p19
tp20
F0.02040816326530612
s(S'[[det]]'
p21
S'year'
p22
S'with'
p23
tp24
F0.02040816326530612
s(S'was'
p25
S'founded'
p26
S'for'
p27
tp28
F0.02040816326530612
s(S'guitarist'
p29
S'[[con]]'
p30
S'vocalist'
p31
tp32
F0.02040816326530612
s(S'[[adj]]'
p33
S'duo'
p34
S'of'
p35
tp36
F0.02040816326530612
s(S'formed'
p37
S'by'
p38
S'vocalist'
p39
tp40
F0.02040816326530612
s(S'tours'
p41
g21
g22
tp42
F0.02040816326530612
s(S'vocalist'
p43
S'[[con]]'
p44
S'guitarist'
p45
tp46
F0.02040816326530612
s(S'[[con]]'
p47
S'founded'
p48
S'by'
p49
tp50
F0.02040816326530612
s(S'[[det]]'
p51
S'founded'
p52
S'by'
p53
tp54
F0.02040816326530612
s(S'[[det]]'
p55
S'rap'
p56
S'group'
p57
tp58
F0.04081632653061224
s(S'[[con]]'
p59
S'formed'
p60
S'with'
p61
tp62
F0.02040816326530612
s(S'was'
p63
S'founded'
p64
S'with'
p65
tp66
F0.02040816326530612
s(S'[[det]]'
p67
S'duo'
p68
S'of'
p69
tp70
F0.02040816326530612
s(S'was'
p71
S'founded'
p72
S'by'
p73
tp74
F0.02040816326530612
s(S'is'
p75
S'[[det]]'
p76
S'rap'
p77
tp78
F0.02040816326530612
s(S'also'
p79
S'founded'
p80
S'by'
p81
tp82
F0.02040816326530612
s(S'was'
p83
S'founded'
p84
S'under'
p85
tp86
F0.02040816326530612
s(S'now'
p87
S'led'
p88
S'by'
p89
tp90
F0.02040816326530612
s(S'[[con]]'
p91
S'founded'
p92
S'with'
p93
tp94
F0.02040816326530612
s(S's'
p95
S'lead'
p96
S'singer'
p97
tp98
F0.02040816326530612
s(S'been'
p99
S'founded'
p100
S'by'
p101
tp102
F0.02040816326530612
s(S'also'
p103
S'announced'
p104
S'that'
p105
tp106
F0.02040816326530612
s(S'was'
p107
S'formed'
p108
S'with'
p109
tp110
F0.02040816326530612
s(S'simply'
p111
g75
g76
tp112
F0.02040816326530612
s(S'was'
p113
S'formed'
p114
S'by'
p115
tp116
F0.04081632653061224
s(S'were'
p117
S'formed'
p118
S'[[con]]'
p119
tp120
F0.02040816326530612
s(S'is'
p121
S'composed'
p122
S'of'
p123
tp124
F0.02040816326530612
s(S'was'
p125
S'founded'
p126
S'to'
p127
tp128
F0.02040816326530612
s(S'is'
p129
S'formed'
p130
S'by'
p131
tp132
F0.02040816326530612
s(S'is'
p133
S'founded'
p134
S'by'
p135
tp136
F0.02040816326530612
s(S'[[adj]]'
p137
S'lead'
p138
S'singer'
p139
tp140
F0.02040816326530612
s(S'had'
p141
S'announced'
p142
S'that'
p143
tp144
F0.02040816326530612
s(S'[[adj]]'
p145
S'consisting'
p146
S'of'
p147
tp148
F0.02040816326530612
s(g56
g57
S'consisting'
p149
tp150
F0.04081632653061224
s(S'[[con]]'
p151
S'led'
p152
S'by'
p153
tp154
F0.02040816326530612
s(S'was'
p155
S'announced'
p156
S'by'
p157
tp158
F0.02040816326530612
s(g57
g149
S'of'
p159
tp160
F0.02040816326530612
s(S'was'
p161
S'led'
p162
S'by'
p163
tp164
F0.02040816326530612
s(S'has'
p165
S'announced'
p166
S'that'
p167
tp168
F0.02040816326530612
s(S'was'
p169
S'formed'
p170
S'after'
p171
tp172
F0.02040816326530612
s(S'[[adj]]'
p173
S'composed'
p174
S'with'
p175
tp176
F0.02040816326530612
s.