(dp0
(S'[[det]]'
p1
S'book'
p2
S'written'
p3
tp4
F0.058823529411764705
s(S'is'
p5
S'based'
p6
S'on'
p7
tp8
F0.058823529411764705
s(S'[[num]]'
p9
S'based'
p10
S'by'
p11
tp12
F0.058823529411764705
s(S'book'
p13
S'written'
p14
S'by'
p15
tp16
F0.17647058823529413
s(S'is'
p17
S'based'
p18
S'[[con]]'
p19
tp20
F0.058823529411764705
s(S'is'
p21
S'based'
p22
S'upon'
p23
tp24
F0.058823529411764705
s(S'[[num]]'
p25
S'based'
p26
S'on'
p27
tp28
F0.058823529411764705
s(S'not'
p29
S'based'
p30
S'on'
p31
tp32
F0.058823529411764705
s(S'was'
p33
S'based'
p34
S'[[con]]'
p35
tp36
F0.058823529411764705
s(S'is'
p37
S'based'
p38
S'from'
p39
tp40
F0.058823529411764705
s(S'is'
p41
S'based'
p42
S'by'
p43
tp44
F0.058823529411764705
s(S'was'
p45
S'based'
p46
S'by'
p47
tp48
F0.058823529411764705
s(S'[[adj]]'
p49
S'book'
p50
S'written'
p51
tp52
F0.058823529411764705
s(S'[[adj]]'
p53
S'based'
p54
S'by'
p55
tp56
F0.058823529411764705
s(S'[[num]]'
p57
g13
g14
tp58
F0.058823529411764705
s.