(dp0
(S'commanded'
p1
S'troops'
p2
S'in'
p3
tp4
F0.0011389521640091116
s(S'where'
p5
S'participated'
p6
S'in'
p7
tp8
F0.0011389521640091116
s(S'[[con]]'
p9
S'served'
p10
S'with'
p11
tp12
F0.0011389521640091116
s(S'then'
p13
S'joined'
p14
S'where'
p15
tp16
F0.0011389521640091116
s(S'was'
p17
S'captured'
p18
S'on'
p19
tp20
F0.0011389521640091116
s(S'joined'
p21
S'[[con]]'
p22
S'served'
p23
tp24
F0.002277904328018223
s(S'was'
p25
S'awarded'
p26
S'in'
p27
tp28
F0.0011389521640091116
s(S'has'
p29
S'won'
p30
S'in'
p31
tp32
F0.0011389521640091116
s(S'[[mod]]'
p33
S'win'
p34
S'[[num]]'
p35
tp36
F0.0011389521640091116
s(S'also'
p37
S'received'
p38
S'[[num]]'
p39
tp40
F0.0011389521640091116
s(S'served'
p41
S'at'
p42
S'[[det]]'
p43
tp44
F0.0011389521640091116
s(S'later'
p45
S'took'
p46
S'part'
p47
tp48
F0.0011389521640091116
s(S'who'
p49
S'served'
p50
S'[[con]]'
p51
tp52
F0.0011389521640091116
s(S'[[det]]'
p53
S'lieutenant'
p54
S'[[con]]'
p55
tp56
F0.0011389521640091116
s(S'at'
p57
S'[[det]]'
p58
S'outbreak'
p59
tp60
F0.0011389521640091116
s(S'to'
p61
S'win'
p62
S'[[num]]'
p63
tp64
F0.0011389521640091116
s(S'when'
p65
S'served'
p66
S'with'
p67
tp68
F0.0011389521640091116
s(S'best'
p69
S'known'
p70
S'of'
p71
tp72
F0.0011389521640091116
s(S'seeing'
p73
S'action'
p74
S'in'
p75
tp76
F0.0011389521640091116
s(S'regiment'
p77
S'in'
p78
S'[[det]]'
p79
tp80
F0.002277904328018223
s(S'has'
p81
S'received'
p82
S'for'
p83
tp84
F0.0011389521640091116
s(S'also'
p85
S'involved'
p86
S'[[con]]'
p87
tp88
F0.0011389521640091116
s(S'remained'
p89
S'[[con]]'
p90
S'fought'
p91
tp92
F0.0011389521640091116
s(S'seeing'
p93
S'action'
p94
S'at'
p95
tp96
F0.0011389521640091116
s(S'was'
p97
S'wounded'
p98
S'[[con]]'
p99
tp100
F0.0011389521640091116
s(S'in'
p101
S'support'
p102
S'of'
p103
tp104
F0.0011389521640091116
s(S'had'
p105
S'won'
p106
S'at'
p107
tp108
F0.0011389521640091116
s(g54
g55
S'[[det]]'
p109
tp110
F0.0011389521640091116
s(S'[[num]]'
p111
S'years'
p112
S'of'
p113
tp114
F0.0011389521640091116
s(S'was'
p115
S'awarded'
p116
S'to'
p117
tp118
F0.0011389521640091116
s(S'[[det]]'
p119
S'attack'
p120
S'[[con]]'
p121
tp122
F0.0011389521640091116
s(S'who'
p123
S'played'
p124
S'[[det]]'
p125
tp126
F0.0011389521640091116
s(S'led'
p127
S'[[prp]]'
p128
S'brigade'
p129
tp130
F0.003416856492027335
s(S'[[con]]'
p131
S'joined'
p132
S'during'
p133
tp134
F0.0011389521640091116
s(S'best'
p135
S'known'
p136
S'during'
p137
tp138
F0.0011389521640091116
s(S'[[det]]'
p139
S'member'
p140
S'during'
p141
tp142
F0.0011389521640091116
s(S'[[mod]]'
p143
S'serve'
p144
S'during'
p145
tp146
F0.0011389521640091116
s(S'been'
p147
S'awarded'
p148
S'[[num]]'
p149
tp150
F0.0011389521640091116
s(S'[[det]]'
p151
S'start'
p152
S'of'
p153
tp154
F0.0011389521640091116
s(S'mainly'
p155
S'known'
p156
S'as'
p157
tp158
F0.0011389521640091116
s(S'was'
p159
S'captured'
p160
S'during'
p161
tp162
F0.0011389521640091116
s(S'then'
p163
S'returned'
p164
S'as'
p165
tp166
F0.0011389521640091116
s(S'had'
p167
S'defeated'
p168
S'at'
p169
tp170
F0.0011389521640091116
s(S'was'
p171
S'wounded'
p172
S'by'
p173
tp174
F0.0011389521640091116
s(S'remained'
p175
S'after'
p176
S'[[det]]'
p177
tp178
F0.0011389521640091116
s(S'has'
p179
S'served'
p180
S'[[con]]'
p181
tp182
F0.0011389521640091116
s(S'later'
p183
S'served'
p184
S'during'
p185
tp186
F0.0011389521640091116
s(S'was'
p187
S'involved'
p188
S'during'
p189
tp190
F0.0011389521640091116
s(S'which'
p191
S'participated'
p192
S'in'
p193
tp194
F0.0011389521640091116
s(S'known'
p195
S'for'
p196
S'[[det]]'
p197
tp198
F0.0011389521640091116
s(S'also'
p199
S'won'
p200
S'[[con]]'
p201
tp202
F0.0011389521640091116
s(S'then'
p203
S'served'
p204
S'for'
p205
tp206
F0.0011389521640091116
s(S'[[con]]'
p207
S'returned'
p208
S'as'
p209
tp210
F0.0011389521640091116
s(S'was'
p211
S'killed'
p212
S'during'
p213
tp214
F0.0011389521640091116
s(S'[[det]]'
p215
S'joined'
p216
S'[[det]]'
p217
tp218
F0.0011389521640091116
s(S'[[det]]'
p219
S'officer'
p220
S'[[con]]'
p221
tp222
F0.0011389521640091116
s(S'[[adj]]'
p223
S'role'
p224
S'[[det]]'
p225
tp226
F0.002277904328018223
s(S'when'
p227
S'took'
p228
S'[[det]]'
p229
tp230
F0.0011389521640091116
s(S'in'
p231
S'won'
p232
S'[[det]]'
p233
tp234
F0.0011389521640091116
s(S'again'
p235
S'returned'
p236
S'[[con]]'
p237
tp238
F0.0011389521640091116
s(S'commanded'
p239
S'[[det]]'
p240
S'division'
p241
tp242
F0.002277904328018223
s(S'just'
p243
S'prior'
p244
S'to'
p245
tp246
F0.0011389521640091116
s(S'who'
p247
S'took'
p248
S'part'
p249
tp250
F0.0011389521640091116
s(S'has'
p251
S'fought'
p252
S'[[con]]'
p253
tp254
F0.0011389521640091116
s(S'[[det]]'
p255
S'[[adj]]'
p256
S'defeat'
p257
tp258
F0.0011389521640091116
s(S'action'
p259
S'in'
p260
S'[[det]]'
p261
tp262
F0.0011389521640091116
s(S'inflicted'
p263
g255
g256
tp264
F0.0011389521640091116
s(S'has'
p265
S'led'
p266
S'to'
p267
tp268
F0.0011389521640091116
s(S'with'
p269
S'won'
p270
S'[[det]]'
p271
tp272
F0.0011389521640091116
s(S's'
p273
S'won'
p274
S'[[det]]'
p275
tp276
F0.0011389521640091116
s(S'[[adj]]'
p277
S'tours'
p278
S'in'
p279
tp280
F0.0011389521640091116
s(S'[[con]]'
p281
S'took'
p282
S'[[det]]'
p283
tp284
F0.0011389521640091116
s(S'[[adj]]'
p285
S'served'
p286
S'on'
p287
tp288
F0.0011389521640091116
s(S'[[adj]]'
p289
S'victories'
p290
S'in'
p291
tp292
F0.0011389521640091116
s(S'[[det]]'
p293
S'end'
p294
S'of'
p295
tp296
F0.004555808656036446
s(S'promoted'
p297
S'[[con]]'
p298
S'fought'
p299
tp300
F0.003416856492027335
s(S'[[con]]'
p301
S'won'
p302
S'[[con]]'
p303
tp304
F0.0011389521640091116
s(S'participated'
p305
S'including'
p306
S'[[det]]'
p307
tp308
F0.002277904328018223
s(S'also'
p309
S'served'
p310
S'with'
p311
tp312
F0.0011389521640091116
s(S'[[det]]'
p313
S'lieutenant'
p314
S'in'
p315
tp316
F0.0011389521640091116
s(S'is'
p317
S'captured'
p318
S'[[con]]'
p319
tp320
F0.0011389521640091116
s(S'was'
p321
S'commander'
p322
S'[[con]]'
p323
tp324
F0.0011389521640091116
s(S'[[adj]]'
p325
S'role'
p326
S'[[con]]'
p327
tp328
F0.0011389521640091116
s(S'participated'
p329
S'in'
p330
S'[[adj]]'
p331
tp332
F0.0011389521640091116
s(S'later'
p333
S'took'
p334
S'in'
p335
tp336
F0.0011389521640091116
s(S'was'
p337
S'involved'
p338
S'in'
p339
tp340
F0.0011389521640091116
s(g109
S'captain'
p341
S'[[det]]'
p342
tp343
F0.0011389521640091116
s(S'is'
p344
S'noted'
p345
S'in'
p346
tp347
F0.0011389521640091116
s(S'[[con]]'
p348
S'served'
p349
S'including'
p350
tp351
F0.0011389521640091116
s(S'also'
p352
S'known'
p353
S'on'
p354
tp355
F0.0011389521640091116
s(S'has'
p356
S'played'
p357
S'[[det]]'
p358
tp359
F0.002277904328018223
s(S'[[det]]'
p360
S'role'
p361
S'on'
p362
tp363
F0.0011389521640091116
s(S'then'
p364
S'commanded'
p365
S'during'
p366
tp367
F0.0011389521640091116
s(S'commanded'
p368
S'[[prp]]'
p369
S'division'
p370
tp371
F0.0011389521640091116
s(S'also'
p372
S'returned'
p373
S'for'
p374
tp375
F0.0011389521640091116
s(S'[[mod]]'
p376
S'serve'
p377
S'in'
p378
tp379
F0.0011389521640091116
s(S'then'
p380
S'served'
p381
S'before'
p382
tp383
F0.0011389521640091116
s(S'[[det]]'
p384
S'captain'
p385
S'in'
p386
tp387
F0.0011389521640091116
s(S'has'
p388
S'served'
p389
S'[[adj]]'
p390
tp391
F0.0011389521640091116
s(S'[[det]]'
p392
S'outbreak'
p393
S'of'
p394
tp395
F0.007972665148063782
s(S'in'
p396
S'[[det]]'
p397
S'battles'
p398
tp399
F0.009111617312072893
s(S'for'
p400
S'service'
p401
S'in'
p402
tp403
F0.0011389521640091116
s(S'was'
p404
S'wounded'
p405
S'at'
p406
tp407
F0.0011389521640091116
s(S'was'
p408
S'fighting'
p409
S'in'
p410
tp411
F0.0011389521640091116
s(S'[[con]]'
p412
S'distinguished'
p413
S'[[pro]]'
p414
tp415
F0.0011389521640091116
s(S'won'
p416
S'[[det]]'
p417
S'battles'
p418
tp419
F0.0011389521640091116
s(S'enlisted'
p420
S'[[con]]'
p421
S'served'
p422
tp423
F0.003416856492027335
s(S'which'
p424
S'won'
p425
S'in'
p426
tp427
F0.0011389521640091116
s(S'also'
p428
S'served'
p429
S'[[det]]'
p430
tp431
F0.0011389521640091116
s(S'played'
p432
S'[[det]]'
p433
S'role'
p434
tp435
F0.012528473804100227
s(g358
S'role'
p436
S'of'
p437
tp438
F0.0011389521640091116
s(S'when'
p439
S'took'
p440
S'part'
p441
tp442
F0.0011389521640091116
s(S'also'
p443
S'participated'
p444
S'[[det]]'
p445
tp446
F0.0011389521640091116
s(S'with'
p447
S'won'
p448
S'in'
p449
tp450
F0.0011389521640091116
s(S'was'
p451
S'killed'
p452
S'early'
p453
tp454
F0.0011389521640091116
s(S'[[mod]]'
p455
S'win'
p456
S'for'
p457
tp458
F0.0011389521640091116
s(S'had'
p459
S'won'
p460
S'as'
p461
tp462
F0.0011389521640091116
s(S'also'
p463
S'served'
p464
S'as'
p465
tp466
F0.0011389521640091116
s(S'commanded'
p467
S'forces'
p468
S'at'
p469
tp470
F0.0011389521640091116
s(S'to'
p471
S'win'
p472
S'[[prp]]'
p473
tp474
F0.0011389521640091116
s(S'in'
p475
S'[[adj]]'
p476
S'battles'
p477
tp478
F0.002277904328018223
s(S'most'
p479
S'known'
p480
S'as'
p481
tp482
F0.0011389521640091116
s(S'action'
p483
S'at'
p484
S'[[det]]'
p485
tp486
F0.0011389521640091116
s(S'not'
p487
S'involved'
p488
S'in'
p489
tp490
F0.0011389521640091116
s(S'[[det]]'
p491
S'awarded'
p492
S'for'
p493
tp494
F0.0011389521640091116
s(S'served'
p495
S'taking'
p496
S'part'
p497
tp498
F0.0011389521640091116
s(g273
S'account'
p499
S'of'
p500
tp501
F0.0011389521640091116
s(S'was'
p502
S'awarded'
p503
S'after'
p504
tp505
F0.0011389521640091116
s(S'[[det]]'
p506
S'role'
p507
S'in'
p508
tp509
F0.003416856492027335
s(S'[[adj]]'
p510
S'member'
p511
S'as'
p512
tp513
F0.0011389521640091116
s(S'[[det]]'
p514
S'[[num]]'
p515
S'thinfantrybrigadecombatteamuunitedstatesu'
p516
tp517
F0.0011389521640091116
s(S'led'
p518
S'[[det]]'
p519
S'brigade'
p520
tp521
F0.003416856492027335
s(S'is'
p522
S'known'
p523
S'from'
p524
tp525
F0.0011389521640091116
s(S'severely'
p526
S'wounded'
p527
S'in'
p528
tp529
F0.0011389521640091116
s(S'again'
p530
S'served'
p531
S'with'
p532
tp533
F0.0011389521640091116
s(S'had'
p534
S'won'
p535
S'[[con]]'
p536
tp537
F0.0011389521640091116
s(S'was'
p538
S'awarded'
p539
S'with'
p540
tp541
F0.0011389521640091116
s(S'[[det]]'
p542
S'victory'
p543
S'of'
p544
tp545
F0.0011389521640091116
s(S'become'
p546
S'known'
p547
S'as'
p548
tp549
F0.0011389521640091116
s(S'[[adj]]'
p550
S'victories'
p551
S'[[con]]'
p552
tp553
F0.0011389521640091116
s(S'had'
p554
S'joined'
p555
S'during'
p556
tp557
F0.0011389521640091116
s(S'then'
p558
S'served'
p559
S'to'
p560
tp561
F0.0011389521640091116
s(S'[[adj]]'
p562
S'troops'
p563
S'[[con]]'
p564
tp565
F0.0011389521640091116
s(S'[[det]]'
p566
S'brigade'
p567
S'in'
p568
tp569
F0.002277904328018223
s(S'first'
p570
S'served'
p571
S'in'
p572
tp573
F0.0011389521640091116
s(S'ever'
p574
S'win'
p575
S'[[det]]'
p576
tp577
F0.0011389521640091116
s(S'[[det]]'
p578
S'defeat'
p579
S'in'
p580
tp581
F0.0011389521640091116
s(S'[[det]]'
p582
S'hero'
p583
S'[[con]]'
p584
tp585
F0.0011389521640091116
s(S'[[det]]'
p586
S'brigade'
p587
S'at'
p588
tp589
F0.003416856492027335
s(S'[[prp]]'
p590
S'troops'
p591
S'at'
p592
tp593
F0.0011389521640091116
s(S'[[con]]'
p594
S'won'
p595
S'for'
p596
tp597
F0.0011389521640091116
s(S'also'
p598
S'participated'
p599
S'at'
p600
tp601
F0.0011389521640091116
s(S'graduated'
p602
S'[[con]]'
p603
S'served'
p604
tp605
F0.002277904328018223
s(g176
g177
S'end'
p606
tp607
F0.0011389521640091116
s(S'[[prp]]'
p608
S'brigade'
p609
S'in'
p610
tp611
F0.0011389521640091116
s(g331
S'battles'
p612
S'of'
p613
tp614
F0.002277904328018223
s(S'shortly'
p615
S'before'
p616
S'[[det]]'
p617
tp618
F0.0011389521640091116
s(S'[[det]]'
p619
S'victory'
p620
S'at'
p621
tp622
F0.0011389521640091116
s(g128
g129
S'at'
p623
tp624
F0.002277904328018223
s(S'also'
p625
S'led'
p626
S'in'
p627
tp628
F0.0011389521640091116
s(S'later'
p629
S'participated'
p630
S'in'
p631
tp632
F0.0011389521640091116
s(S'[[pro]]'
p633
S'served'
p634
S'in'
p635
tp636
F0.0011389521640091116
s(S'to'
p637
S'fight'
p638
S'[[det]]'
p639
tp640
F0.0011389521640091116
s(S'[[pro]]'
p641
S'won'
p642
S'[[con]]'
p643
tp644
F0.0011389521640091116
s(S'being'
p645
S'awarded'
p646
S'[[det]]'
p647
tp648
F0.0011389521640091116
s(S'best'
p649
S'known'
p650
S'[[con]]'
p651
tp652
F0.0011389521640091116
s(S'also'
p653
S'awarded'
p654
S'of'
p655
tp656
F0.0011389521640091116
s(S'be'
p657
S'awarded'
p658
S'[[det]]'
p659
tp660
F0.0011389521640091116
s(S'[[prp]]'
p661
S'victory'
p662
S'in'
p663
tp664
F0.0011389521640091116
s(S'[[adj]]'
p665
S'surviving'
p666
S'[[adj]]'
p667
tp668
F0.0011389521640091116
s(S'twice'
p669
S'won'
p670
S'[[det]]'
p671
tp672
F0.0011389521640091116
s(S'fought'
p673
g396
g397
tp674
F0.003416856492027335
s(S'also'
p675
S'led'
p676
S'to'
p677
tp678
F0.0011389521640091116
s(S'deployed'
p679
g101
g102
tp680
F0.0011389521640091116
s(S'as'
p681
S'defeated'
p682
S'[[det]]'
p683
tp684
F0.0011389521640091116
s(S'[[adj]]'
p685
S'win'
p686
S'on'
p687
tp688
F0.0011389521640091116
s(S'who'
p689
S'served'
p690
S'with'
p691
tp692
F0.0011389521640091116
s(S'awarded'
p693
S'[[det]]'
p694
S'posthumously'
p695
tp696
F0.002277904328018223
s(S'[[det]]'
p697
S'role'
p698
S'[[det]]'
p699
tp700
F0.0011389521640091116
s(S'is'
p701
S'involved'
p702
S'with'
p703
tp704
F0.0011389521640091116
s(S'approximately'
p705
S'[[num]]'
p706
S'years'
p707
tp708
F0.0011389521640091116
s(S'[[num]]'
p709
S'won'
p710
S'[[det]]'
p711
tp712
F0.0011389521640091116
s(S'was'
p713
S'captured'
p714
S'at'
p715
tp716
F0.0011389521640091116
s(S'that'
p717
S'led'
p718
S'to'
p719
tp720
F0.0011389521640091116
s(S'[[mod]]'
p721
S'serve'
p722
S'on'
p723
tp724
F0.0011389521640091116
s(S'[[adj]]'
p725
S'[[det]]'
p726
S'sergeant'
p727
tp728
F0.002277904328018223
s(S'is'
p729
S'killed'
p730
S'in'
p731
tp732
F0.0011389521640091116
s(S'when'
p733
S'joined'
p734
S'as'
p735
tp736
F0.0011389521640091116
s(S'[[det]]'
p737
S'[[adj]]'
p738
S'thinfantrybrigadecombatteamuunitedstatesu'
p739
tp740
F0.0011389521640091116
s(S'[[con]]'
p741
S'took'
p742
S'part'
p743
tp744
F0.002277904328018223
s(S'seriously'
p745
S'wounded'
p746
S'in'
p747
tp748
F0.0011389521640091116
s(S'who'
p749
S'served'
p750
S'in'
p751
tp752
F0.002277904328018223
s(S'[[adj]]'
p753
S'[[det]]'
p754
S'lieutenant'
p755
tp756
F0.002277904328018223
s(S'[[det]]'
p757
S'fighting'
p758
S'in'
p759
tp760
F0.0011389521640091116
s(S'[[adj]]'
p761
S'win'
p762
S'in'
p763
tp764
F0.0011389521640091116
s(S'has'
p765
S'returned'
p766
S'[[con]]'
p767
tp768
F0.0011389521640091116
s(S'[[det]]'
p769
S'participated'
p770
S'in'
p771
tp772
F0.0011389521640091116
s(S'[[con]]'
p773
S'most'
p774
S'noted'
p775
tp776
F0.0011389521640091116
s(S'never'
p777
S'received'
p778
S'[[det]]'
p779
tp780
F0.0011389521640091116
s(S'then'
p781
S'joined'
p782
S'as'
p783
tp784
F0.0011389521640091116
s(S'[[adj]]'
p785
S'brigade'
p786
S'at'
p787
tp788
F0.0011389521640091116
s(S'commanded'
p789
S'[[prp]]'
p790
S'brigade'
p791
tp792
F0.002277904328018223
s(S'[[adj]]'
p793
S'commander'
p794
S'in'
p795
tp796
F0.0011389521640091116
s(S'again'
p797
S'led'
p798
S'to'
p799
tp800
F0.0011389521640091116
s(S'had'
p801
S'known'
p802
S'since'
p803
tp804
F0.0011389521640091116
s(S'[[adj]]'
p805
S'involved'
p806
S'in'
p807
tp808
F0.0011389521640091116
s(S'has'
p809
S'won'
p810
S'[[det]]'
p811
tp812
F0.0011389521640091116
s(S'[[con]]'
p813
S'won'
p814
S'[[prp]]'
p815
tp816
F0.0011389521640091116
s(S'also'
p817
S'known'
p818
S'from'
p819
tp820
F0.0011389521640091116
s(S'has'
p821
S'served'
p822
S'as'
p823
tp824
F0.0011389521640091116
s(S'also'
p825
S'served'
p826
S'at'
p827
tp828
F0.0011389521640091116
s(S'been'
p829
S'killed'
p830
S'at'
p831
tp832
F0.0011389521640091116
s(S'[[con]]'
p833
S'led'
p834
S'to'
p835
tp836
F0.0011389521640091116
s(S'later'
p837
S'served'
p838
S'with'
p839
tp840
F0.0011389521640091116
s(S'later'
p841
S'assigned'
p842
S'as'
p843
tp844
F0.0011389521640091116
s(S'has'
p845
S'served'
p846
S'to'
p847
tp848
F0.0011389521640091116
s(S'also'
p849
S'won'
p850
S'[[det]]'
p851
tp852
F0.0011389521640091116
s(S'also'
p853
S'served'
p854
S'in'
p855
tp856
F0.0011389521640091116
s(S'joined'
p857
S'where'
p858
S'served'
p859
tp860
F0.0011389521640091116
s(S'that'
p861
S'participated'
p862
S'in'
p863
tp864
F0.0011389521640091116
s(S'[[det]]'
p865
S'hero'
p866
S'of'
p867
tp868
F0.0011389521640091116
s(S'had'
p869
S'won'
p870
S'[[num]]'
p871
tp872
F0.0011389521640091116
s(S'is'
p873
S'known'
p874
S'during'
p875
tp876
F0.0011389521640091116
s(S'to'
p877
S'fight'
p878
S'for'
p879
tp880
F0.0011389521640091116
s(S'which'
p881
S'won'
p882
S'[[pro]]'
p883
tp884
F0.0011389521640091116
s(S'had'
p885
S'served'
p886
S'at'
p887
tp888
F0.0011389521640091116
s(S'[[det]]'
p889
S'[[adj]]'
p890
S'role'
p891
tp892
F0.01366742596810934
s(S'promoted'
p893
S'[[con]]'
p894
S'took'
p895
tp896
F0.0011389521640091116
s(S'year'
p897
S'[[con]]'
p898
S'accompanied'
p899
tp900
F0.0011389521640091116
s(S'[[con]]'
p901
S'captured'
p902
S'[[det]]'
p903
tp904
F0.0011389521640091116
s(S'is'
p905
S'known'
p906
S'after'
p907
tp908
F0.0011389521640091116
s(S'in'
p909
S'[[num]]'
p910
S'battles'
p911
tp912
F0.002277904328018223
s(S'where'
p913
S'won'
p914
S'[[det]]'
p915
tp916
F0.0011389521640091116
s(S'[[con]]'
p917
S'killed'
p918
S'at'
p919
tp920
F0.0011389521640091116
s(S'mortally'
p921
S'wounded'
p922
S'at'
p923
tp924
F0.002277904328018223
s(S'[[con]]'
p925
S'won'
p926
S'[[num]]'
p927
tp928
F0.0011389521640091116
s(g196
g197
S'brigadier'
p929
tp930
F0.0011389521640091116
s(S'had'
p931
S'won'
p932
S'[[det]]'
p933
tp934
F0.0011389521640091116
s(S'commanded'
p935
S'at'
p936
S'[[det]]'
p937
tp938
F0.002277904328018223
s(S'[[con]]'
p939
S'defeated'
p940
S'at'
p941
tp942
F0.0011389521640091116
s(S'commanded'
p943
S'[[det]]'
p944
S'forces'
p945
tp946
F0.0011389521640091116
s(S'through'
p947
S'[[det]]'
p948
S'end'
p949
tp950
F0.0011389521640091116
s(S'saw'
p951
S'action'
p952
S'during'
p953
tp954
F0.0011389521640091116
s(S'commanded'
p955
S'[[det]]'
p956
S'brigade'
p957
tp958
F0.004555808656036446
s(S'[[adj]]'
p959
S'won'
p960
S'[[det]]'
p961
tp962
F0.0011389521640091116
s(S'mortally'
p963
S'wounded'
p964
S'during'
p965
tp966
F0.0011389521640091116
s(S'was'
p967
S'captured'
p968
S'after'
p969
tp970
F0.0011389521640091116
s(S'later'
p971
S'served'
p972
S'on'
p973
tp974
F0.0011389521640091116
s(S'[[adj]]'
p975
S'action'
p976
S'at'
p977
tp978
F0.0011389521640091116
s(S'severely'
p979
S'wounded'
p980
S'during'
p981
tp982
F0.0011389521640091116
s(S'best'
p983
S'known'
p984
S'on'
p985
tp986
F0.0011389521640091116
s(S'[[adj]]'
p987
g897
g898
tp988
F0.0011389521640091116
s(S'had'
p989
S'fought'
p990
S'in'
p991
tp992
F0.0011389521640091116
s(S'twice'
p993
S'served'
p994
S'as'
p995
tp996
F0.0011389521640091116
s(S'is'
p997
S'killed'
p998
S'[[con]]'
p999
tp1000
F0.0011389521640091116
s(S'with'
p1001
S'victories'
p1002
S'over'
p1003
tp1004
F0.0011389521640091116
s(S'then'
p1005
S'won'
p1006
S'[[det]]'
p1007
tp1008
F0.0011389521640091116
s(S'most'
p1009
S'noted'
p1010
S'for'
p1011
tp1012
F0.0011389521640091116
s(S'had'
p1013
S'won'
p1014
S'for'
p1015
tp1016
F0.0011389521640091116
s(S'later'
p1017
S'served'
p1018
S'as'
p1019
tp1020
F0.0011389521640091116
s(S'was'
p1021
S'received'
p1022
S'[[con]]'
p1023
tp1024
F0.0011389521640091116
s(S'[[adj]]'
p1025
S'victory'
p1026
S'at'
p1027
tp1028
F0.0011389521640091116
s(S'was'
p1029
S'member'
p1030
S'at'
p1031
tp1032
F0.0011389521640091116
s(S'is'
p1033
S'captured'
p1034
S'after'
p1035
tp1036
F0.0011389521640091116
s(g273
S'defeat'
p1037
S'at'
p1038
tp1039
F0.0011389521640091116
s(S'also'
p1040
S'awarded'
p1041
S'for'
p1042
tp1043
F0.0011389521640091116
s(S'[[adj]]'
p1044
S'commander'
p1045
S'[[con]]'
p1046
tp1047
F0.0011389521640091116
s(S'[[det]]'
p1048
S'troops'
p1049
S'in'
p1050
tp1051
F0.0011389521640091116
s(S'was'
p1052
S'defeated'
p1053
S'in'
p1054
tp1055
F0.0011389521640091116
s(S'be'
p1056
S'killed'
p1057
S'in'
p1058
tp1059
F0.0011389521640091116
s(S'[[det]]'
p1060
S'lieutenant'
p1061
S'general'
p1062
tp1063
F0.002277904328018223
s(S'formerly'
p1064
S'served'
p1065
S'in'
p1066
tp1067
F0.0011389521640091116
s(S'[[num]]'
p1068
S'won'
p1069
S'[[num]]'
p1070
tp1071
F0.0011389521640091116
s(g775
S'in'
p1072
S'helping'
p1073
tp1074
F0.0011389521640091116
s(S'also'
p1075
S'known'
p1076
S'in'
p1077
tp1078
F0.0011389521640091116
s(S'was'
p1079
S'hired'
p1080
S'as'
p1081
tp1082
F0.0011389521640091116
s(S'was'
p1083
S'awarded'
p1084
S'on'
p1085
tp1086
F0.0011389521640091116
s(S'in'
p1087
S'[[det]]'
p1088
S'battle'
p1089
tp1090
F0.0011389521640091116
s(S'had'
p1091
S'served'
p1092
S'with'
p1093
tp1094
F0.0011389521640091116
s(S'was'
p1095
g893
g894
tp1096
F0.00683371298405467
s(S'since'
p1097
S'won'
p1098
S'[[det]]'
p1099
tp1100
F0.0011389521640091116
s(S'has'
p1101
S'won'
p1102
S'[[con]]'
p1103
tp1104
F0.0011389521640091116
s(S'[[det]]'
p1105
S'role'
p1106
S'as'
p1107
tp1108
F0.0011389521640091116
s(S'who'
p1109
S'participated'
p1110
S'in'
p1111
tp1112
F0.0011389521640091116
s(S'[[con]]'
p1113
S'served'
p1114
S'at'
p1115
tp1116
F0.002277904328018223
s(S'has'
p1117
S'served'
p1118
S'in'
p1119
tp1120
F0.0011389521640091116
s(S'[[adj]]'
p1121
S'served'
p1122
S'as'
p1123
tp1124
F0.0011389521640091116
s(S'became'
p1125
S'known'
p1126
S'on'
p1127
tp1128
F0.0011389521640091116
s(S'also'
p1129
S'fought'
p1130
S'in'
p1131
tp1132
F0.002277904328018223
s(S'[[adj]]'
p1133
S'service'
p1134
S'in'
p1135
tp1136
F0.0011389521640091116
s(S'seriously'
p1137
S'wounded'
p1138
S'during'
p1139
tp1140
F0.0011389521640091116
s(S'where'
p1141
S'served'
p1142
S'with'
p1143
tp1144
F0.0011389521640091116
s(S'also'
p1145
S'fought'
p1146
S'at'
p1147
tp1148
F0.0011389521640091116
s(S'was'
p1149
S'hired'
p1150
S'on'
p1151
tp1152
F0.0011389521640091116
s(S'posthumously'
p1153
S'awarded'
p1154
S'during'
p1155
tp1156
F0.0011389521640091116
s(S'also'
p1157
S'led'
p1158
S'[[pro]]'
p1159
tp1160
F0.0011389521640091116
s(S'[[con]]'
p1161
S'served'
p1162
S'as'
p1163
tp1164
F0.0011389521640091116
s(S'years'
p1165
S'[[adj]]'
p1166
S'[[det]]'
p1167
tp1168
F0.007972665148063782
s(S'also'
p1169
S'awarded'
p1170
S'[[det]]'
p1171
tp1172
F0.0011389521640091116
s(S'also'
p1173
S'won'
p1174
S'on'
p1175
tp1176
F0.0011389521640091116
s(S'after'
p1177
S'[[det]]'
p1178
S'outbreak'
p1179
tp1180
F0.002277904328018223
s(S'remained'
p1181
g947
g948
tp1182
F0.0011389521640091116
s(S'was'
p1183
S'awarded'
p1184
S'of'
p1185
tp1186
F0.0011389521640091116
s(S'after'
p1187
S'won'
p1188
S'[[det]]'
p1189
tp1190
F0.0011389521640091116
s(S'[[pro]]'
p1191
S'won'
p1192
S'[[det]]'
p1193
tp1194
F0.0011389521640091116
s(S'best'
p1195
S'known'
p1196
S'for'
p1197
tp1198
F0.0011389521640091116
s(S'to'
p1199
S'win'
p1200
S'of'
p1201
tp1202
F0.0011389521640091116
s(S'[[con]]'
p1203
S'veteran'
p1204
S'of'
p1205
tp1206
F0.0011389521640091116
s(S'also'
p1207
S'awarded'
p1208
S'at'
p1209
tp1210
F0.0011389521640091116
s(S'led'
p1211
S'[[det]]'
p1212
S'regiment'
p1213
tp1214
F0.0056947608200455585
s(S'shortly'
p1215
g1177
g1178
tp1216
F0.0011389521640091116
s(S'has'
p1217
S'served'
p1218
S'before'
p1219
tp1220
F0.0011389521640091116
s(S'also'
p1221
S'played'
p1222
S'[[det]]'
p1223
tp1224
F0.00683371298405467
s(S'never'
p1225
S'won'
p1226
S'[[det]]'
p1227
tp1228
F0.0011389521640091116
s(S'[[con]]'
p1229
S'fought'
p1230
S'at'
p1231
tp1232
F0.002277904328018223
s(S'also'
p1233
S'led'
p1234
S'at'
p1235
tp1236
F0.0011389521640091116
s(S'was'
p1237
S'commander'
p1238
S'during'
p1239
tp1240
F0.0011389521640091116
s(S'led'
p1241
g1048
g1049
tp1242
F0.0011389521640091116
s(S'also'
p1243
S'won'
p1244
S'of'
p1245
tp1246
F0.0011389521640091116
s(S'where'
p1247
S'took'
p1248
S'part'
p1249
tp1250
F0.0011389521640091116
s(S'is'
p1251
S'killed'
p1252
S'when'
p1253
tp1254
F0.0011389521640091116
s(S'was'
p1255
S'awarded'
p1256
S'[[det]]'
p1257
tp1258
F0.0011389521640091116
s(g944
g945
S'at'
p1259
tp1260
F0.0011389521640091116
s(S'then'
p1261
S'defeated'
p1262
S'at'
p1263
tp1264
F0.0011389521640091116
s(S'[[det]]'
p1265
S'led'
p1266
S'[[det]]'
p1267
tp1268
F0.0011389521640091116
s(g899
S'[[prp]]'
p1269
S'regiment'
p1270
tp1271
F0.0011389521640091116
s(S'has'
p1272
S'served'
p1273
S'until'
p1274
tp1275
F0.0011389521640091116
s(S'again'
p1276
S'served'
p1277
S'to'
p1278
tp1279
F0.0011389521640091116
s(S'first'
p1280
S'served'
p1281
S'with'
p1282
tp1283
F0.0011389521640091116
s(S'has'
p1284
S'served'
p1285
S'[[det]]'
p1286
tp1287
F0.0011389521640091116
s(g273
S'victory'
p1288
S'in'
p1289
tp1290
F0.0011389521640091116
s(S'when'
p1291
S'won'
p1292
S'[[prp]]'
p1293
tp1294
F0.0011389521640091116
s(S'[[det]]'
p1295
S'end'
p1296
S'[[con]]'
p1297
tp1298
F0.0011389521640091116
s(S'been'
p1299
S'defeated'
p1300
S'at'
p1301
tp1302
F0.0011389521640091116
s(S'to'
p1303
S'start'
p1304
S'[[det]]'
p1305
tp1306
F0.0011389521640091116
s(S'better'
p1307
S'known'
p1308
S'[[det]]'
p1309
tp1310
F0.0011389521640091116
s(g273
S'victory'
p1311
S'at'
p1312
tp1313
F0.0011389521640091116
s(S'saw'
p1314
S'action'
p1315
S'in'
p1316
tp1317
F0.002277904328018223
s(S'also'
p1318
S'returned'
p1319
S'on'
p1320
tp1321
F0.0011389521640091116
s(S'has'
p1322
S'served'
p1323
S'with'
p1324
tp1325
F0.0011389521640091116
s(S'who'
p1326
S'joined'
p1327
S'during'
p1328
tp1329
F0.0011389521640091116
s(S'also'
p1330
S'took'
p1331
S'part'
p1332
tp1333
F0.0011389521640091116
s(S'to'
p1334
S'win'
p1335
S'on'
p1336
tp1337
F0.0011389521640091116
s(S'have'
p1338
S'served'
p1339
S'in'
p1340
tp1341
F0.0011389521640091116
s(S'have'
p1342
S'participated'
p1343
S'in'
p1344
tp1345
F0.0011389521640091116
s(S'also'
p1346
S'served'
p1347
S'to'
p1348
tp1349
F0.0011389521640091116
s(S'commanded'
p1350
g562
g563
tp1351
F0.0011389521640091116
s(S'[[num]]'
p1352
S'served'
p1353
S'on'
p1354
tp1355
F0.0011389521640091116
s(S'has'
p1356
S'won'
p1357
S'at'
p1358
tp1359
F0.0011389521640091116
s(S'[[det]]'
p1360
S'action'
p1361
S'in'
p1362
tp1363
F0.0011389521640091116
s(S'has'
p1364
S'served'
p1365
S'for'
p1366
tp1367
F0.0011389521640091116
s(S'becomes'
p1368
S'involved'
p1369
S'in'
p1370
tp1371
F0.0011389521640091116
s(S'saw'
p1372
S'service'
p1373
S'at'
p1374
tp1375
F0.0011389521640091116
s(S'[[prp]]'
p1376
S'defeat'
p1377
S'at'
p1378
tp1379
F0.0011389521640091116
s(S'also'
p1380
S'served'
p1381
S'[[adj]]'
p1382
tp1383
F0.0011389521640091116
s(S'[[adj]]'
p1384
S'action'
p1385
S'[[con]]'
p1386
tp1387
F0.0011389521640091116
s(S'which'
p1388
S'won'
p1389
S'[[con]]'
p1390
tp1391
F0.0011389521640091116
s(g55
g109
g341
tp1392
F0.0011389521640091116
s(S'also'
p1393
S'known'
p1394
S'[[det]]'
p1395
tp1396
F0.0011389521640091116
s(S'[[det]]'
p1397
S'served'
p1398
S'in'
p1399
tp1400
F0.0011389521640091116
s(S'[[det]]'
p1401
S'battle'
p1402
S'of'
p1403
tp1404
F0.002277904328018223
s(S'had'
p1405
S'participated'
p1406
S'in'
p1407
tp1408
F0.0011389521640091116
s(S'have'
p1409
S'fought'
p1410
S'at'
p1411
tp1412
F0.0011389521640091116
s(S'also'
p1413
S'known'
p1414
S'during'
p1415
tp1416
F0.0011389521640091116
s(S'[[det]]'
p1417
S'member'
p1418
S'that'
p1419
tp1420
F0.0011389521640091116
s(S'that'
p1421
S'won'
p1422
S'at'
p1423
tp1424
F0.0011389521640091116
s(S'formerly'
p1425
S'served'
p1426
S'to'
p1427
tp1428
F0.0011389521640091116
s(S'then'
p1429
S'served'
p1430
S'with'
p1431
tp1432
F0.0011389521640091116
s(S'as'
p1433
S'won'
p1434
S'[[det]]'
p1435
tp1436
F0.0011389521640091116
s(S'[[adj]]'
p1437
S'veteran'
p1438
S'of'
p1439
tp1440
F0.0011389521640091116
s(S'twice'
p1441
S'served'
p1442
S'in'
p1443
tp1444
F0.0011389521640091116
s(S'[[adj]]'
p1445
S'role'
p1446
S'of'
p1447
tp1448
F0.0011389521640091116
s(g452
g453
S'in'
p1449
tp1450
F0.0011389521640091116
s(S'help'
p1451
S'win'
p1452
S'[[det]]'
p1453
tp1454
F0.0011389521640091116
s(S'served'
p1455
S'[[con]]'
p1456
S'[[det]]'
p1457
tp1458
F0.0011389521640091116
s(S'[[det]]'
p1459
S'years'
p1460
S'of'
p1461
tp1462
F0.0011389521640091116
s(S'served'
p1463
g773
g774
tp1464
F0.0011389521640091116
s(S'while'
p1465
S'won'
p1466
S'[[det]]'
p1467
tp1468
F0.0011389521640091116
s(S'best'
p1469
S'known'
p1470
S'where'
p1471
tp1472
F0.0011389521640091116
s(S'[[adj]]'
p1473
S'officer'
p1474
S'who'
p1475
tp1476
F0.0011389521640091116
s(S'[[adj]]'
p1477
S'prior'
p1478
S'to'
p1479
tp1480
F0.0011389521640091116
s(S'to'
p1481
S'win'
p1482
S'against'
p1483
tp1484
F0.0011389521640091116
s(S'to'
p1485
S'start'
p1486
S'at'
p1487
tp1488
F0.0011389521640091116
s(S'[[num]]'
p1489
S'victories'
p1490
S'at'
p1491
tp1492
F0.0011389521640091116
s(S'had'
p1493
S'served'
p1494
S'[[det]]'
p1495
tp1496
F0.0011389521640091116
s(S'lieutenant'
p1497
S'general'
p1498
S'[[det]]'
p1499
tp1500
F0.0011389521640091116
s(S'has'
p1501
S'fought'
p1502
S'as'
p1503
tp1504
F0.0011389521640091116
s(S'[[num]]'
p1505
S'victories'
p1506
S'in'
p1507
tp1508
F0.0011389521640091116
s(S'commanded'
p1509
g514
g515
tp1510
F0.0011389521640091116
s(S'[[adj]]'
p1511
S'role'
p1512
S'on'
p1513
tp1514
F0.0011389521640091116
s(S'[[adj]]'
p1515
S'lieutenant'
p1516
S'colonel'
p1517
tp1518
F0.0011389521640091116
s(S'[[num]]'
p1519
S'battles'
p1520
S'of'
p1521
tp1522
F0.0011389521640091116
s(g421
g422
S'in'
p1523
tp1524
F0.003416856492027335
s(g774
g775
g1072
tp1525
F0.0011389521640091116
s(S'has'
p1526
S'participated'
p1527
S'including'
p1528
tp1529
F0.0011389521640091116
s(S'[[det]]'
p1530
S'following'
p1531
S'[[det]]'
p1532
tp1533
F0.0011389521640091116
s(S'[[adj]]'
p1534
S'start'
p1535
S'in'
p1536
tp1537
F0.0011389521640091116
s(S'also'
p1538
S'won'
p1539
S'for'
p1540
tp1541
F0.0011389521640091116
s(S'[[det]]'
p1542
S'highly'
p1543
S'decorated'
p1544
tp1545
F0.0011389521640091116
s(S'still'
p1546
S'known'
p1547
S'as'
p1548
tp1549
F0.0011389521640091116
s(S'promoted'
p1550
S'[[con]]'
p1551
S'served'
p1552
tp1553
F0.002277904328018223
s(S'to'
p1554
S'victory'
p1555
S'in'
p1556
tp1557
F0.0011389521640091116
s(S'most'
p1558
S'noted'
p1559
S'to'
p1560
tp1561
F0.0011389521640091116
s(S'[[adj]]'
p1562
S'fight'
p1563
S'against'
p1564
tp1565
F0.0011389521640091116
s(S'[[det]]'
p1566
S'regiment'
p1567
S'at'
p1568
tp1569
F0.0011389521640091116
s(S'[[con]]'
p1570
S'won'
p1571
S'at'
p1572
tp1573
F0.0011389521640091116
s(S'was'
p1574
S'killed'
p1575
S'after'
p1576
tp1577
F0.0011389521640091116
s(g1212
g1213
S'[[con]]'
p1578
tp1579
F0.0011389521640091116
s(S'[[det]]'
p1580
S'defeat'
p1581
S'at'
p1582
tp1583
F0.0011389521640091116
s(S'had'
p1584
S'served'
p1585
S'on'
p1586
tp1587
F0.0011389521640091116
s(g433
g434
S'[[num]]'
p1588
tp1589
F0.0011389521640091116
s(S'later'
p1590
S'served'
p1591
S'for'
p1592
tp1593
F0.0011389521640091116
s(S'only'
p1594
S'took'
p1595
S'part'
p1596
tp1597
F0.0011389521640091116
s(S'was'
p1598
S'mortally'
p1599
S'wounded'
p1600
tp1601
F0.004555808656036446
s(S'was'
p1602
S'stationed'
p1603
S'during'
p1604
tp1605
F0.0011389521640091116
s(S'[[mod]]'
p1606
S'win'
p1607
S'in'
p1608
tp1609
F0.0011389521640091116
s(S'been'
p1610
S'awarded'
p1611
S'at'
p1612
tp1613
F0.0011389521640091116
s(S'returned'
p1614
S'after'
p1615
S'[[det]]'
p1616
tp1617
F0.0011389521640091116
s(S'fought'
p1618
g909
g910
tp1619
F0.0011389521640091116
s(S'is'
p1620
S'known'
p1621
S'on'
p1622
tp1623
F0.0011389521640091116
s(S'[[adj]]'
p1624
S'combat'
p1625
S'in'
p1626
tp1627
F0.0011389521640091116
s(S'to'
p1628
S'start'
p1629
S'in'
p1630
tp1631
F0.0011389521640091116
s(S'[[con]]'
p1632
S'served'
p1633
S'on'
p1634
tp1635
F0.0011389521640091116
s(S'[[det]]'
p1636
S'commander'
p1637
S'at'
p1638
tp1639
F0.0011389521640091116
s(S'[[adj]]'
p1640
S'following'
p1641
S'[[det]]'
p1642
tp1643
F0.0011389521640091116
s(S'to'
p1644
S'serve'
p1645
S'during'
p1646
tp1647
F0.0011389521640091116
s(S'returned'
p1648
g57
g58
tp1649
F0.0011389521640091116
s(S'later'
p1650
S'returned'
p1651
S'for'
p1652
tp1653
F0.0011389521640091116
s(S'is'
p1654
S'defeated'
p1655
S'at'
p1656
tp1657
F0.0011389521640091116
s(S'has'
p1658
S'received'
p1659
S'[[con]]'
p1660
tp1661
F0.0011389521640091116
s(S'remained'
p1662
S'until'
p1663
S'[[det]]'
p1664
tp1665
F0.0011389521640091116
s(S'has'
p1666
S'won'
p1667
S'[[num]]'
p1668
tp1669
F0.0011389521640091116
s(S'combat'
p1670
S'missions'
p1671
S'in'
p1672
tp1673
F0.0011389521640091116
s(S'[[det]]'
p1674
S'won'
p1675
S'[[det]]'
p1676
tp1677
F0.0011389521640091116
s(S'also'
p1678
S'known'
p1679
S'has'
p1680
tp1681
F0.0011389521640091116
s(S'was'
p1682
S'awarded'
p1683
S'as'
p1684
tp1685
F0.0011389521640091116
s(S'years'
p1686
S'[[adj]]'
p1687
S'lieutenant'
p1688
tp1689
F0.002277904328018223
s(S'is'
p1690
S'known'
p1691
S'in'
p1692
tp1693
F0.0011389521640091116
s(g616
g617
S'outbreak'
p1694
tp1695
F0.002277904328018223
s(S'[[adj]]'
p1696
S'commander'
p1697
S'during'
p1698
tp1699
F0.0011389521640091116
s(S'then'
p1700
S'took'
p1701
S'part'
p1702
tp1703
F0.0011389521640091116
s(S'commanded'
p1704
S'forces'
p1705
S'during'
p1706
tp1707
F0.0011389521640091116
s(S'[[adj]]'
p1708
S'win'
p1709
S'[[det]]'
p1710
tp1711
F0.0011389521640091116
s(S'was'
p1712
S'known'
p1713
S'during'
p1714
tp1715
F0.0011389521640091116
s(S'was'
p1716
S'served'
p1717
S'as'
p1718
tp1719
F0.0011389521640091116
s(S'served'
p1720
S'in'
p1721
S'[[det]]'
p1722
tp1723
F0.0011389521640091116
s(S'again'
p1724
S'won'
p1725
S'[[det]]'
p1726
tp1727
F0.0011389521640091116
s(S'[[num]]'
p1728
S'served'
p1729
S'for'
p1730
tp1731
F0.0011389521640091116
s(S'led'
p1732
S'[[prp]]'
p1733
S'division'
p1734
tp1735
F0.0011389521640091116
s(S'[[con]]'
p1736
S'served'
p1737
S'throughout'
p1738
tp1739
F0.002277904328018223
s(S'formerly'
p1740
S'served'
p1741
S'for'
p1742
tp1743
F0.0011389521640091116
s(g890
g891
S'during'
p1744
tp1745
F0.0011389521640091116
s(S'best'
p1746
S'known'
p1747
S'at'
p1748
tp1749
F0.0011389521640091116
s(S'then'
p1750
S'participated'
p1751
S'in'
p1752
tp1753
F0.0011389521640091116
s(S'[[num]]'
p1754
S'served'
p1755
S'as'
p1756
tp1757
F0.0011389521640091116
s(S'also'
p1758
S'served'
p1759
S'for'
p1760
tp1761
F0.0011389521640091116
s(S'[[con]]'
p1762
S'participated'
p1763
S'against'
p1764
tp1765
F0.0011389521640091116
s(S'then'
p1766
S'participated'
p1767
S'at'
p1768
tp1769
F0.0011389521640091116
s(S'[[con]]'
p1770
S'won'
p1771
S'[[det]]'
p1772
tp1773
F0.0011389521640091116
s(S'also'
p1774
S'served'
p1775
S'[[con]]'
p1776
tp1777
F0.0011389521640091116
s(S'which'
p1778
S'won'
p1779
S'at'
p1780
tp1781
F0.0011389521640091116
s(S'also'
p1782
S'serve'
p1783
S'as'
p1784
tp1785
F0.0011389521640091116
s(S'also'
p1786
S'assigned'
p1787
S'to'
p1788
tp1789
F0.0011389521640091116
s(g1474
g1475
S'served'
p1790
tp1791
F0.0011389521640091116
s(S'later'
p1792
S'fought'
p1793
S'at'
p1794
tp1795
F0.0011389521640091116
s(S'[[con]]'
p1796
S'defeated'
p1797
S'to'
p1798
tp1799
F0.0011389521640091116
s(S'to'
p1800
S'die'
p1801
S'in'
p1802
tp1803
F0.0011389521640091116
s(S'be'
p1804
S'awarded'
p1805
S'in'
p1806
tp1807
F0.0011389521640091116
s(S'also'
p1808
S'won'
p1809
S'[[prp]]'
p1810
tp1811
F0.0011389521640091116
s(S'graduated'
p1812
S'then'
p1813
S'served'
p1814
tp1815
F0.0011389521640091116
s(S'later'
p1816
S'fought'
p1817
S'in'
p1818
tp1819
F0.0011389521640091116
s(S'where'
p1820
S'served'
p1821
S'in'
p1822
tp1823
F0.0011389521640091116
s(S'who'
p1824
S'served'
p1825
S'as'
p1826
tp1827
F0.0011389521640091116
s(S'[[det]]'
p1828
S'role'
p1829
S'[[con]]'
p1830
tp1831
F0.0011389521640091116
s(g342
g987
g897
tp1832
F0.0011389521640091116
s(S'[[con]]'
p1833
S'participated'
p1834
S'in'
p1835
tp1836
F0.002277904328018223
s(g1166
g1167
S'took'
p1837
tp1838
F0.0011389521640091116
s(S'commanded'
p1839
S'forces'
p1840
S'in'
p1841
tp1842
F0.0011389521640091116
s(g1270
g1247
g1248
tp1843
F0.0011389521640091116
s(S'never'
p1844
S'won'
p1845
S'on'
p1846
tp1847
F0.0011389521640091116
s(S'was'
p1848
S'awarded'
p1849
S'during'
p1850
tp1851
F0.0011389521640091116
s(S'had'
p1852
S'fought'
p1853
S'during'
p1854
tp1855
F0.0011389521640091116
s(g385
g386
S'[[det]]'
p1856
tp1857
F0.0011389521640091116
s(S'also'
p1858
S'involved'
p1859
S'in'
p1860
tp1861
F0.0011389521640091116
s(g386
g1856
S'took'
p1862
tp1863
F0.002277904328018223
s(g341
g342
g987
tp1864
F0.0011389521640091116
s(S'well'
p1865
S'known'
p1866
S'on'
p1867
tp1868
F0.0011389521640091116
s(S'also'
p1869
S'participated'
p1870
S'on'
p1871
tp1872
F0.0011389521640091116
s(S'then'
p1873
S'commanded'
p1874
S'at'
p1875
tp1876
F0.0011389521640091116
s(S'[[con]]'
p1877
S'won'
p1878
S'twice'
p1879
tp1880
F0.0011389521640091116
s(S'was'
p1881
S'wounded'
p1882
S'in'
p1883
tp1884
F0.0011389521640091116
s(S'which'
p1885
S'won'
p1886
S'[[det]]'
p1887
tp1888
F0.0011389521640091116
s(S'later'
p1889
S'awarded'
p1890
S'[[det]]'
p1891
tp1892
F0.0011389521640091116
s(g314
g315
S'[[det]]'
p1893
tp1894
F0.0011389521640091116
s(S'[[adj]]'
p1895
S'officer'
p1896
S'during'
p1897
tp1898
F0.0011389521640091116
s(S'[[adj]]'
p1899
S'fighter'
p1900
S'[[con]]'
p1901
tp1902
F0.0011389521640091116
s(S'[[adj]]'
p1903
S'years'
p1904
S'of'
p1905
tp1906
F0.0011389521640091116
s(S'first'
p1907
S'won'
p1908
S'[[det]]'
p1909
tp1910
F0.0011389521640091116
s(S'then'
p1911
S'joined'
p1912
S'for'
p1913
tp1914
F0.0011389521640091116
s(S'also'
p1915
S'participated'
p1916
S'in'
p1917
tp1918
F0.002277904328018223
s(S'[[num]]'
p1919
S'served'
p1920
S'in'
p1921
tp1922
F0.0011389521640091116
s(S'also'
p1923
S'won'
p1924
S'as'
p1925
tp1926
F0.0011389521640091116
s(S'was'
p1927
S'killed'
p1928
S'at'
p1929
tp1930
F0.0011389521640091116
s(S'twice'
p1931
S'won'
p1932
S'for'
p1933
tp1934
F0.0011389521640091116
s(S'soon'
p1935
S'joined'
p1936
S'[[con]]'
p1937
tp1938
F0.0011389521640091116
s(S'[[det]]'
p1939
g785
g786
tp1940
F0.0011389521640091116
s(S'[[det]]'
p1941
S'division'
p1942
S'at'
p1943
tp1944
F0.002277904328018223
s(S'also'
p1945
S'won'
p1946
S'in'
p1947
tp1948
F0.0011389521640091116
s(S'was'
p1949
S'killed'
p1950
S'in'
p1951
tp1952
F0.0011389521640091116
s(S'[[det]]'
p1953
S'pilot'
p1954
S'of'
p1955
tp1956
F0.0011389521640091116
s(S'then'
p1957
S'joined'
p1958
S'along'
p1959
tp1960
F0.0011389521640091116
s(S'be'
p1961
S'involved'
p1962
S'in'
p1963
tp1964
F0.0011389521640091116
s(S'[[det]]'
p1965
S'officer'
p1966
S'at'
p1967
tp1968
F0.0011389521640091116
s(S'[[det]]'
p1969
S'division'
p1970
S'in'
p1971
tp1972
F0.0011389521640091116
s(S'also'
p1973
S'won'
p1974
S'at'
p1975
tp1976
F0.0011389521640091116
s(S'most'
p1977
S'highly'
p1978
S'decorated'
p1979
tp1980
F0.0011389521640091116
s(S'to'
p1981
S'command'
p1982
S'during'
p1983
tp1984
F0.0011389521640091116
s(S'[[mod]]'
p1985
S'receive'
p1986
S'[[det]]'
p1987
tp1988
F0.0011389521640091116
s(S'who'
p1989
S'won'
p1990
S'for'
p1991
tp1992
F0.0011389521640091116
s(S'participated'
p1993
S'in'
p1994
S'[[det]]'
p1995
tp1996
F0.002277904328018223
s(S'[[adj]]'
p1997
S'service'
p1998
S'during'
p1999
tp2000
F0.0011389521640091116
s(S'to'
p2001
S'fight'
p2002
S'in'
p2003
tp2004
F0.0011389521640091116
s(S'led'
p2005
S'[[prp]]'
p2006
S'regiment'
p2007
tp2008
F0.004555808656036446
s(S'is'
p2009
S'wounded'
p2010
S'at'
p2011
tp2012
F0.0011389521640091116
s(g1733
g1734
S'at'
p2013
tp2014
F0.0011389521640091116
s(S'[[adj]]'
p2015
S'command'
p2016
S'at'
p2017
tp2018
F0.0011389521640091116
s(S'has'
p2019
S'served'
p2020
S'where'
p2021
tp2022
F0.0011389521640091116
s(S'later'
p2023
S'joined'
p2024
S'as'
p2025
tp2026
F0.0011389521640091116
s(S'brigade'
p2027
S'at'
p2028
S'[[det]]'
p2029
tp2030
F0.002277904328018223
s(S'to'
p2031
S'fight'
p2032
S'on'
p2033
tp2034
F0.0011389521640091116
s(S'[[con]]'
p2035
S'served'
p2036
S'for'
p2037
tp2038
F0.0011389521640091116
s(S'[[det]]'
p2039
S'veteran'
p2040
S'of'
p2041
tp2042
F0.0011389521640091116
s(S'participated'
p2043
S'in'
p2044
g1519
tp2045
F0.0011389521640091116
s(S'[[adj]]'
p2046
S'[[det]]'
p2047
S'captain'
p2048
tp2049
F0.002277904328018223
s(S'later'
p2050
S'serve'
p2051
S'during'
p2052
tp2053
F0.0011389521640091116
s(S'later'
p2054
S'returned'
p2055
S'as'
p2056
tp2057
F0.0011389521640091116
s(S'was'
p2058
S'defeated'
p2059
S'on'
p2060
tp2061
F0.0011389521640091116
s(S'to'
p2062
S'win'
p2063
S'[[con]]'
p2064
tp2065
F0.0011389521640091116
s(S'then'
p2066
S'served'
p2067
S'on'
p2068
tp2069
F0.0011389521640091116
s(S'later'
p2070
S'fought'
p2071
S'during'
p2072
tp2073
F0.0011389521640091116
s(S'[[adj]]'
p2074
S'role'
p2075
S'in'
p2076
tp2077
F0.004555808656036446
s(S'be'
p2078
S'awarded'
p2079
S'during'
p2080
tp2081
F0.0011389521640091116
s(S'[[num]]'
p2082
S'victories'
p2083
S'[[con]]'
p2084
tp2085
F0.0011389521640091116
s(S'is'
p2086
S'killed'
p2087
S'at'
p2088
tp2089
F0.0011389521640091116
s(S'joined'
p2090
g1762
g1763
tp2091
F0.002277904328018223
s(S'[[adj]]'
p2092
S'role'
p2093
S'at'
p2094
tp2095
F0.0011389521640091116
s(S'seriously'
p2096
S'wounded'
p2097
S'at'
p2098
tp2099
F0.0011389521640091116
s(S'[[con]]'
p2100
S'awarded'
p2101
S'[[det]]'
p2102
tp2103
F0.0011389521640091116
s(S'had'
p2104
S'won'
p2105
S'[[prp]]'
p2106
tp2107
F0.0011389521640091116
s(S'to'
p2108
S'win'
p2109
S'by'
p2110
tp2111
F0.0011389521640091116
s(S'[[adj]]'
p2112
S'served'
p2113
S'at'
p2114
tp2115
F0.0011389521640091116
s(S'saw'
p2116
S'action'
p2117
S'on'
p2118
tp2119
F0.0011389521640091116
s(S'been'
p2120
S'killed'
p2121
S'in'
p2122
tp2123
F0.0011389521640091116
s(S'[[mod]]'
p2124
S'end'
p2125
S'up'
p2126
tp2127
F0.0011389521640091116
s(S'[[adj]]'
p2128
S'commander'
p2129
S'at'
p2130
tp2131
F0.0011389521640091116
s(S'[[con]]'
p2132
S'led'
p2133
S'[[pro]]'
p2134
tp2135
F0.0011389521640091116
s(S'had'
p2136
S'served'
p2137
S'as'
p2138
tp2139
F0.0011389521640091116
s(S'[[con]]'
p2140
S'served'
p2141
S'[[det]]'
p2142
tp2143
F0.0011389521640091116
s(g858
g859
S'as'
p2144
tp2145
F0.0011389521640091116
s(S'already'
p2146
S'won'
p2147
S'[[det]]'
p2148
tp2149
F0.0011389521640091116
s(S'also'
p2150
S'served'
p2151
S'[[num]]'
p2152
tp2153
F0.0011389521640091116
s(S'[[num]]'
p2154
g1165
g1166
tp2155
F0.012528473804100227
s(S'[[det]]'
p2156
S'battles'
p2157
S'of'
p2158
tp2159
F0.022779043280182234
s(S'[[adj]]'
p2160
S'action'
p2161
S'during'
p2162
tp2163
F0.0011389521640091116
s(S'has'
p2164
S'won'
p2165
S'with'
p2166
tp2167
F0.0011389521640091116
s(S'to'
p2168
S'brigadier'
p2169
S'[[adj]]'
p2170
tp2171
F0.0011389521640091116
s(S'served'
p2172
S'until'
p2173
g392
tp2174
F0.0011389521640091116
s(S'[[prp]]'
p2175
S'regiment'
p2176
S'in'
p2177
tp2178
F0.002277904328018223
s(S'also'
p2179
S'joined'
p2180
S'as'
p2181
tp2182
F0.0011389521640091116
s(S'who'
p2183
S'won'
p2184
S'[[det]]'
p2185
tp2186
F0.0011389521640091116
s(S'[[adj]]'
p2187
S'years'
p2188
S'[[con]]'
p2189
tp2190
F0.0011389521640091116
s(S'was'
p2191
S'engaged'
p2192
S'in'
p2193
tp2194
F0.0011389521640091116
s(S'later'
p2195
S'served'
p2196
S'[[adj]]'
p2197
tp2198
F0.0011389521640091116
s(S'[[prp]]'
p2199
S'regiment'
p2200
S'at'
p2201
tp2202
F0.0011389521640091116
s(S'to'
p2203
S'defeat'
p2204
S'for'
p2205
tp2206
F0.0011389521640091116
s(S'have'
p2207
S'died'
p2208
S'in'
p2209
tp2210
F0.0011389521640091116
s(S'[[det]]'
p2211
S'commander'
p2212
S'during'
p2213
tp2214
F0.0011389521640091116
s(S'that'
p2215
S'defeated'
p2216
S'in'
p2217
tp2218
F0.0011389521640091116
s(S'who'
p2219
S'fought'
p2220
S'at'
p2221
tp2222
F0.0011389521640091116
s(S'had'
p2223
S'served'
p2224
S'in'
p2225
tp2226
F0.0011389521640091116
s(S'was'
p2227
S'engaged'
p2228
S'at'
p2229
tp2230
F0.0011389521640091116
s(S'has'
p2231
S'won'
p2232
S'on'
p2233
tp2234
F0.0011389521640091116
s(S'[[det]]'
p2235
S'sergeant'
p2236
S'in'
p2237
tp2238
F0.0011389521640091116
s(S'commanded'
p2239
S'[[det]]'
p2240
S'battles'
p2241
tp2242
F0.0011389521640091116
s(S'who'
p2243
S'fought'
p2244
S'in'
p2245
tp2246
F0.0011389521640091116
s(S'saw'
p2247
S'action'
p2248
S'[[con]]'
p2249
tp2250
F0.0011389521640091116
s(g197
g929
S'[[adj]]'
p2251
tp2252
F0.0011389521640091116
s(g1663
g1664
S'end'
p2253
tp2254
F0.0011389521640091116
s(S'have'
p2255
S'won'
p2256
S'[[det]]'
p2257
tp2258
F0.0011389521640091116
s(S'[[con]]'
p2259
S'played'
p2260
S'[[det]]'
p2261
tp2262
F0.0011389521640091116
s(S'where'
p2263
S'won'
p2264
S'[[con]]'
p2265
tp2266
F0.0011389521640091116
s(S'then'
p2267
S'fought'
p2268
S'in'
p2269
tp2270
F0.0011389521640091116
s(S'mortally'
p2271
S'wounded'
p2272
S'in'
p2273
tp2274
F0.0011389521640091116
s(S'best'
p2275
S'known'
p2276
S'as'
p2277
tp2278
F0.0011389521640091116
s(S'[[det]]'
p2279
S'officer'
p2280
S'during'
p2281
tp2282
F0.0011389521640091116
s(S'which'
p2283
S'won'
p2284
S'for'
p2285
tp2286
F0.0011389521640091116
s(S'fought'
p2287
g475
g476
tp2288
F0.0011389521640091116
s(S'[[adj]]'
p2289
S'defeat'
p2290
S'at'
p2291
tp2292
F0.002277904328018223
s(g898
g899
g1269
tp2293
F0.0011389521640091116
s(S'when'
p2294
S'defeated'
p2295
S'[[det]]'
p2296
tp2297
F0.0011389521640091116
s(S'to'
p2298
S'win'
p2299
S'at'
p2300
tp2301
F0.0011389521640091116
s(S'was'
p2302
S'hired'
p2303
S'[[con]]'
p2304
tp2305
F0.0011389521640091116
s(S'was'
p2306
S'involved'
p2307
S'from'
p2308
tp2309
F0.0011389521640091116
s(S'[[con]]'
p2310
S'win'
p2311
S'[[det]]'
p2312
tp2313
F0.0011389521640091116
s(S'to'
p2314
S'service'
p2315
S'during'
p2316
tp2317
F0.0011389521640091116
s(S'[[adj]]'
p2318
S'won'
p2319
S'for'
p2320
tp2321
F0.0011389521640091116
s(S'served'
p2322
S'[[con]]'
p2323
S'[[adj]]'
p2324
tp2325
F0.0011389521640091116
s(g273
S'win'
p2326
S'in'
p2327
tp2328
F0.0011389521640091116
s(S'fought'
p2329
S'at'
p2330
S'[[det]]'
p2331
tp2332
F0.002277904328018223
s(S'that'
p2333
S'won'
p2334
S'[[num]]'
p2335
tp2336
F0.0011389521640091116
s(S'well'
p2337
g195
g196
tp2338
F0.0011389521640091116
s(g1456
g1457
S'battles'
p2339
tp2340
F0.0011389521640091116
s(S'later'
p2341
S'won'
p2342
S'[[det]]'
p2343
tp2344
F0.0011389521640091116
s(S'also'
p2345
S'won'
p2346
S'[[num]]'
p2347
tp2348
F0.0011389521640091116
s(g273
S'win'
p2349
S'at'
p2350
tp2351
F0.0011389521640091116
s(S'[[con]]'
p2352
S'joined'
p2353
S'[[con]]'
p2354
tp2355
F0.0011389521640091116
s(g1269
g1270
g1247
tp2356
F0.0011389521640091116
s(S'to'
p2357
S'defeat'
p2358
S'by'
p2359
tp2360
F0.0011389521640091116
s(S'then'
p2361
S'served'
p2362
S'[[det]]'
p2363
tp2364
F0.0011389521640091116
s(S'returned'
p2365
S'before'
p2366
S'[[det]]'
p2367
tp2368
F0.0011389521640091116
s(S'was'
p2369
S'defeated'
p2370
S'at'
p2371
tp2372
F0.0011389521640091116
s(S'[[adj]]'
p2373
S'victory'
p2374
S'in'
p2375
tp2376
F0.0011389521640091116
s(S'formerly'
p2377
S'served'
p2378
S'at'
p2379
tp2380
F0.0011389521640091116
s(S'commanded'
p2381
g1939
g785
tp2382
F0.002277904328018223
s(S'has'
p2383
S'participated'
p2384
S'in'
p2385
tp2386
F0.0011389521640091116
s(S'later'
p2387
S'served'
p2388
S'[[con]]'
p2389
tp2390
F0.0011389521640091116
s(S'again'
p2391
S'took'
p2392
S'part'
p2393
tp2394
F0.0011389521640091116
s(S'was'
p2395
S'wounded'
p2396
S'during'
p2397
tp2398
F0.0011389521640091116
s(S'[[det]]'
p2399
S'account'
p2400
S'of'
p2401
tp2402
F0.0011389521640091116
s(S'[[det]]'
p2403
S'veteran'
p2404
S'[[con]]'
p2405
tp2406
F0.0011389521640091116
s(S'also'
p2407
S'took'
p2408
S'[[det]]'
p2409
tp2410
F0.0011389521640091116
s(S'mostly'
p2411
S'known'
p2412
S'from'
p2413
tp2414
F0.0011389521640091116
s(g2323
g2324
S'battles'
p2415
tp2416
F0.0011389521640091116
s(S'[[prp]]'
p2417
S'service'
p2418
S'in'
p2419
tp2420
F0.0011389521640091116
s(S'saw'
p2421
S'combat'
p2422
S'in'
p2423
tp2424
F0.0011389521640091116
s(S'was'
p2425
g526
g527
tp2426
F0.004555808656036446
s(S'has'
p2427
S'received'
p2428
S'[[num]]'
p2429
tp2430
F0.0011389521640091116
s(S'best'
p2431
S'known'
p2432
S'in'
p2433
tp2434
F0.0011389521640091116
s(S'also'
p2435
S'served'
p2436
S'until'
p2437
tp2438
F0.0011389521640091116
s(S'later'
p2439
S'won'
p2440
S'for'
p2441
tp2442
F0.0011389521640091116
s(S'then'
p2443
S'won'
p2444
S'at'
p2445
tp2446
F0.0011389521640091116
s(S'was'
p2447
S'defeated'
p2448
S'to'
p2449
tp2450
F0.0011389521640091116
s(S'most'
p2451
S'known'
p2452
S'[[con]]'
p2453
tp2454
F0.0011389521640091116
s(S'has'
p2455
S'served'
p2456
S'at'
p2457
tp2458
F0.0011389521640091116
s(S'that'
p2459
S'won'
p2460
S'[[det]]'
p2461
tp2462
F0.0011389521640091116
s(S'also'
p2463
S'participated'
p2464
S'[[num]]'
p2465
tp2466
F0.0011389521640091116
s(S'then'
p2467
S'served'
p2468
S'at'
p2469
tp2470
F0.0011389521640091116
s(S'[[det]]'
p2471
S'regiment'
p2472
S'in'
p2473
tp2474
F0.002277904328018223
s(S'has'
p2475
S'served'
p2476
S'on'
p2477
tp2478
F0.0011389521640091116
s(S'then'
p2479
S'served'
p2480
S'in'
p2481
tp2482
F0.002277904328018223
s(g2173
g392
g393
tp2483
F0.0011389521640091116
s(S'later'
p2484
S'served'
p2485
S'at'
p2486
tp2487
F0.0011389521640091116
s(S'saw'
p2488
S'service'
p2489
S'during'
p2490
tp2491
F0.0011389521640091116
s(S'[[num]]'
p2492
S'years'
p2493
S'later'
p2494
tp2495
F0.0011389521640091116
s(S'also'
p2496
S'received'
p2497
S'by'
p2498
tp2499
F0.0011389521640091116
s(S'played'
p2500
g889
g890
tp2501
F0.01366742596810934
s(S'used'
p2502
S'[[det]]'
p2503
S'base'
p2504
tp2505
F0.0011389521640091116
s(S'to'
p2506
S'win'
p2507
S'[[det]]'
p2508
tp2509
F0.0011389521640091116
s(S'best'
p2510
S'known'
p2511
S'[[det]]'
p2512
tp2513
F0.0011389521640091116
s(S'when'
p2514
S'won'
p2515
S'[[det]]'
p2516
tp2517
F0.0011389521640091116
s(S'saw'
p2518
S'action'
p2519
S'at'
p2520
tp2521
F0.002277904328018223
s(S'was'
p2522
g1153
g1154
tp2523
F0.0011389521640091116
s(S'led'
p2524
S'[[prp]]'
p2525
S'troops'
p2526
tp2527
F0.002277904328018223
s(S'well'
p2528
S'known'
p2529
S'as'
p2530
tp2531
F0.0011389521640091116
s(S'has'
p2532
S'won'
p2533
S'for'
p2534
tp2535
F0.0011389521640091116
s(S'was'
p2536
S'known'
p2537
S'on'
p2538
tp2539
F0.0011389521640091116
s(S'[[mod]]'
p2540
S'win'
p2541
S'[[det]]'
p2542
tp2543
F0.0011389521640091116
s(S'also'
p2544
S'served'
p2545
S'from'
p2546
tp2547
F0.0011389521640091116
s(S'[[con]]'
p2548
S'fought'
p2549
S'in'
p2550
tp2551
F0.003416856492027335
s(S'served'
p2552
g277
g278
tp2553
F0.0011389521640091116
s(S'commanded'
p2554
S'troops'
p2555
S'at'
p2556
tp2557
F0.0011389521640091116
s(g2330
g2331
S'battles'
p2558
tp2559
F0.007972665148063782
s(S'to'
p2560
S'end'
p2561
S'[[det]]'
p2562
tp2563
F0.0011389521640091116
s(S'has'
p2564
S'won'
p2565
S'twice'
p2566
tp2567
F0.0011389521640091116
s(S'[[adj]]'
p2568
S'served'
p2569
S'for'
p2570
tp2571
F0.0011389521640091116
s(S'[[adj]]'
p2572
S'defeat'
p2573
S'in'
p2574
tp2575
F0.0011389521640091116
s(S'also'
p2576
S'served'
p2577
S'on'
p2578
tp2579
F0.0011389521640091116
s(S'until'
p2580
S'joined'
p2581
S'[[det]]'
p2582
tp2583
F0.0011389521640091116
s(S'at'
p2584
g1401
g1402
tp2585
F0.0011389521640091116
s(S'severely'
p2586
S'wounded'
p2587
S'at'
p2588
tp2589
F0.0011389521640091116
s(S'later'
p2590
S'served'
p2591
S'in'
p2592
tp2593
F0.0011389521640091116
s(S'best'
p2594
S'known'
p2595
S'[[num]]'
p2596
tp2597
F0.0011389521640091116
s(S'commanded'
p2598
S'during'
p2599
S'[[det]]'
p2600
tp2601
F0.0011389521640091116
s(S'to'
p2602
S'defeat'
p2603
S'in'
p2604
tp2605
F0.0011389521640091116
s(S'[[con]]'
p2606
S'served'
p2607
S'during'
p2608
tp2609
F0.003416856492027335
s(S'to'
p2610
S'fight'
p2611
S'as'
p2612
tp2613
F0.0011389521640091116
s(S'led'
p2614
g1969
g1970
tp2615
F0.003416856492027335
s(g2599
g2600
S'battles'
p2616
tp2617
F0.0011389521640091116
s(S'to'
p2618
S'defeat'
p2619
S'at'
p2620
tp2621
F0.0011389521640091116
s(S'saw'
p2622
S'service'
p2623
S'[[con]]'
p2624
tp2625
F0.0011389521640091116
s(S'also'
p2626
S'served'
p2627
S'of'
p2628
tp2629
F0.0011389521640091116
s.