(dp0
(S'[[adj]]'
p1
S'boards'
p2
S'[[det]]'
p3
tp4
F0.0037313432835820895
s(S'become'
p5
S'director'
p6
S'at'
p7
tp8
F0.0037313432835820895
s(S'[[det]]'
p9
S'[[adj]]'
p10
S'board'
p11
tp12
F0.0037313432835820895
s(S'[[det]]'
p13
S'director'
p14
S'[[con]]'
p15
tp16
F0.0037313432835820895
s(S'board'
p17
S'member'
p18
S'of'
p19
tp20
F0.022388059701492536
s(S'was'
p21
S'director'
p22
S'of'
p23
tp24
F0.0037313432835820895
s(S'serves'
p25
S'as'
p26
S'[[det]]'
p27
tp28
F0.014925373134328358
s(S'serves'
p29
S'on'
p30
S'[[adj]]'
p31
tp32
F0.018656716417910446
s(S'is'
p33
S'director'
p34
S'at'
p35
tp36
F0.0037313432835820895
s(S'[[adj]]'
p37
S'director'
p38
S'of'
p39
tp40
F0.0037313432835820895
s(S'became'
p41
S'director'
p42
S'[[det]]'
p43
tp44
F0.0037313432835820895
s(S'on'
p45
S'[[det]]'
p46
S'board'
p47
tp48
F0.06343283582089553
s(S'[[adj]]'
p49
S'boards'
p50
S'[[con]]'
p51
tp52
F0.0037313432835820895
s(S'[[con]]'
p53
S'director'
p54
S'[[det]]'
p55
tp56
F0.0037313432835820895
s(S'trustees'
p57
S'of'
p58
S'now'
p59
tp60
F0.0037313432835820895
s(S'served'
p61
S'[[con]]'
p62
S'[[det]]'
p63
tp64
F0.0037313432835820895
s(S'[[adj]]'
p65
S'member'
p66
S'[[det]]'
p67
tp68
F0.0037313432835820895
s(S'[[det]]'
p69
S'director'
p70
S'at'
p71
tp72
F0.0037313432835820895
s(S'as'
p73
S'[[adj]]'
p74
S'director'
p75
tp76
F0.0037313432835820895
s(S'as'
p77
S'director'
p78
S'of'
p79
tp80
F0.0037313432835820895
s(S'was'
p81
S'director'
p82
S'at'
p83
tp84
F0.0037313432835820895
s(S'on'
p85
S'[[det]]'
p86
S'boards'
p87
tp88
F0.03731343283582089
s(S'of'
p89
S'directors'
p90
S'for'
p91
tp92
F0.011194029850746268
s(S'has'
p93
S'served'
p94
g73
tp95
F0.0037313432835820895
s(S'[[det]]'
p96
S'member'
p97
S'[[det]]'
p98
tp99
F0.033582089552238806
s(S'serves'
p100
S'on'
p101
S'[[det]]'
p102
tp103
F0.048507462686567165
s(S'also'
p104
S'serves'
p105
S'on'
p106
tp107
F0.011194029850746268
s(S'become'
p108
S'director'
p109
S'of'
p110
tp111
F0.0037313432835820895
s(S'currently'
p112
S'sits'
p113
g85
tp114
F0.0037313432835820895
s(g31
S'boards'
p115
S'of'
p116
tp117
F0.007462686567164179
s(S'also'
p118
S'served'
p119
S'on'
p120
tp121
F0.022388059701492536
s(S'of'
p122
S'trustees'
p123
S'now'
p124
tp125
F0.0037313432835820895
s(S'was'
p126
S'director'
p127
S'[[det]]'
p128
tp129
F0.0037313432835820895
s(S'[[con]]'
p130
S'director'
p131
S'of'
p132
tp133
F0.0037313432835820895
s(S'[[adj]]'
p134
S'director'
p135
S'for'
p136
tp137
F0.0037313432835820895
s(S'[[det]]'
p138
S'boards'
p139
S'[[con]]'
p140
tp141
F0.0037313432835820895
s(S'director'
p142
S'[[con]]'
p143
S'[[det]]'
p144
tp145
F0.007462686567164179
s(S'became'
p146
S'director'
p147
S'at'
p148
tp149
F0.0037313432835820895
s(g86
g87
S'of'
p150
tp151
F0.026119402985074626
s(S'[[det]]'
p152
S'director'
p153
S'for'
p154
tp155
F0.0037313432835820895
s(S'as'
p156
S'[[det]]'
p157
S'board'
p158
tp159
F0.011194029850746268
s(S'is'
p160
S'director'
p161
S'for'
p162
tp163
F0.0037313432835820895
s(g143
g144
g17
tp164
F0.011194029850746268
s(S'as'
p165
S'member'
p166
S'board'
p167
tp168
F0.0037313432835820895
s(S'became'
p169
S'director'
p170
S'of'
p171
tp172
F0.0037313432835820895
s(S'board'
p173
S'trustees'
p174
S'of'
p175
tp176
F0.022388059701492536
s(S'is'
p177
S'director'
p178
S'[[det]]'
p179
tp180
F0.0037313432835820895
s(S'also'
p181
S'serves'
p182
S'as'
p183
tp184
F0.0037313432835820895
s(S'[[adj]]'
p185
S'director'
p186
S'[[det]]'
p187
tp188
F0.0037313432835820895
s(S'[[con]]'
p189
S'serves'
p190
S'on'
p191
tp192
F0.007462686567164179
s(g58
g59
S'known'
p193
tp194
F0.0037313432835820895
s(S'[[adj]]'
p195
S'director'
p196
S'[[con]]'
p197
tp198
F0.011194029850746268
s(S'was'
p199
S'director'
p200
S'[[con]]'
p201
tp202
F0.0037313432835820895
s(S'as'
p203
g96
g97
tp204
F0.014925373134328358
s(g113
g85
g86
tp205
F0.011194029850746268
s(S'[[det]]'
p206
S'director'
p207
S'of'
p208
tp209
F0.0037313432835820895
s(S'[[adj]]'
p210
S'member'
p211
S'[[con]]'
p212
tp213
F0.0037313432835820895
s(S'now'
p214
S'serves'
p215
S'on'
p216
tp217
F0.0037313432835820895
s(S'board'
p218
S'of'
p219
S'trustees'
p220
tp221
F0.018656716417910446
s(g10
g11
S'of'
p222
tp223
F0.0037313432835820895
s(g166
g167
S'directors'
p224
tp225
F0.0037313432835820895
s(S'also'
p226
g61
g62
tp227
F0.0037313432835820895
s(S'is'
p228
S'director'
p229
S'of'
p230
tp231
F0.0037313432835820895
s(S'served'
p232
g45
g46
tp233
F0.041044776119402986
s(S'[[adj]]'
p234
S'director'
p235
S'at'
p236
tp237
F0.0037313432835820895
s(S'served'
p238
g203
g96
tp239
F0.011194029850746268
s(S'[[det]]'
p240
S'director'
p241
S'on'
p242
tp243
F0.0037313432835820895
s(g144
g17
g18
tp244
F0.022388059701492536
s(S'has'
p245
S'served'
p246
S'on'
p247
tp248
F0.007462686567164179
s(S'also'
p249
g238
g203
tp250
F0.007462686567164179
s(S'[[det]]'
p251
g173
g174
tp252
F0.022388059701492536
s(S'currently'
p253
S'sits'
p254
S'[[det]]'
p255
tp256
F0.0037313432835820895
s(S'is'
p257
S'director'
p258
S'[[con]]'
p259
tp260
F0.0037313432835820895
s(S'served'
p261
S'as'
p262
S'member'
p263
tp264
F0.011194029850746268
s(g47
S'directors'
p265
S'of'
p266
tp267
F0.041044776119402986
s(S'[[det]]'
p268
S'director'
p269
S'[[det]]'
p270
tp271
F0.0037313432835820895
s(S'also'
p272
S'director'
p273
S'of'
p274
tp275
F0.0037313432835820895
s(g262
g263
S'[[det]]'
p276
tp277
F0.007462686567164179
s(g254
g255
S'member'
p278
tp279
F0.0037313432835820895
s(S'currently'
p280
S'serves'
p281
S'on'
p282
tp283
F0.011194029850746268
s(g46
g47
g265
tp284
F0.03731343283582089
s(g123
g124
S'known'
p285
tp286
F0.0037313432835820895
s(S'was'
p287
S'director'
p288
S'for'
p289
tp290
F0.0037313432835820895
s(S'currently'
p291
g25
g26
tp292
F0.0037313432835820895
s(g211
g212
S'serves'
p293
tp294
F0.0037313432835820895
s(g30
g31
g115
tp295
F0.018656716417910446
s(S'[[adj]]'
p296
S'director'
p297
S'[[num]]'
p298
tp299
F0.0037313432835820895
s(g59
g193
S'as'
p300
tp301
F0.007462686567164179
s(S'also'
p302
S'sits'
p303
S'on'
p304
tp305
F0.0037313432835820895
s(S'member'
p306
g9
g10
tp307
F0.0037313432835820895
s(g98
S'board'
p308
S'of'
p309
tp310
F0.041044776119402986
s(g97
g98
g308
tp311
F0.041044776119402986
s(S'board'
p312
g89
g90
tp313
F0.014925373134328358
s(S'then'
p314
S'director'
p315
S'of'
p316
tp317
F0.0037313432835820895
s(S'[[det]]'
p318
S'boards'
p319
S'[[det]]'
p320
tp321
F0.0037313432835820895
s(g94
g73
g74
tp322
F0.0037313432835820895
s(S'became'
p323
S'director'
p324
S'for'
p325
tp326
F0.0037313432835820895
s.