(dp0
(S'also'
p1
S'operates'
p2
S'from'
p3
tp4
F0.021739130434782608
s(S'with'
p5
S'[[det]]'
p6
S'signal'
p7
tp8
F0.021739130434782608
s(S'radio'
p9
S'station'
p10
S'in'
p11
tp12
F0.043478260869565216
s(S'started'
p13
S'broadcasting'
p14
S'from'
p15
tp16
F0.021739130434782608
s(S'programmed'
p17
S'from'
p18
S'[[det]]'
p19
tp20
F0.021739130434782608
s(S'also'
p21
S'broadcasts'
p22
S'to'
p23
tp24
F0.021739130434782608
s(S'started'
p25
S'broadcasting'
p26
S'in'
p27
tp28
F0.021739130434782608
s(S'[[det]]'
p29
S'station'
p30
S'from'
p31
tp32
F0.021739130434782608
s(g6
g7
S'that'
p33
tp34
F0.021739130434782608
s(S'[[adj]]'
p35
g9
g10
tp36
F0.021739130434782608
s(S'referred'
p37
S'to'
p38
S'[[det]]'
p39
tp40
F0.021739130434782608
s(S'[[adj]]'
p41
S'service'
p42
S'[[adj]]'
p43
tp44
F0.021739130434782608
s(g19
S'forecast'
p45
S'office'
p46
tp47
F0.021739130434782608
s(S'now'
p48
S'operates'
p49
S'in'
p50
tp51
F0.021739130434782608
s(S'with'
p52
S'service'
p53
S'[[adj]]'
p54
tp55
F0.021739130434782608
s(S'was'
p56
S'broadcast'
p57
S'to'
p58
tp59
F0.021739130434782608
s(S'is'
p60
S'broadcast'
p61
S'from'
p62
tp63
F0.021739130434782608
s(S'is'
p64
g17
g18
tp65
F0.021739130434782608
s(S'sometimes'
p66
g37
g38
tp67
F0.021739130434782608
s(S'[[adj]]'
p68
S'station'
p69
S'in'
p70
tp71
F0.021739130434782608
s(S'currently'
p72
S'operates'
p73
S'in'
p74
tp75
F0.021739130434782608
s(S'[[num]]'
p76
S'station'
p77
S'in'
p78
tp79
F0.021739130434782608
s(g45
g46
S'in'
p80
tp81
F0.021739130434782608
s(S'[[det]]'
p82
S'area'
p83
S'of'
p84
tp85
F0.021739130434782608
s(S'that'
p86
g64
g17
tp87
F0.021739130434782608
s(g18
g19
g45
tp88
F0.021739130434782608
s(S'[[det]]'
p89
S'radio'
p90
S'station'
p91
tp92
F0.021739130434782608
s(g38
g39
S'station'
p93
tp94
F0.021739130434782608
s(S'[[det]]'
p95
S'station'
p96
S'in'
p97
tp98
F0.021739130434782608
s(S'[[adj]]'
p99
S'signal'
p100
S'that'
p101
tp102
F0.021739130434782608
s(g93
g86
g64
tp103
F0.021739130434782608
s(S'[[adj]]'
p104
S'station'
p105
S'[[det]]'
p106
tp107
F0.021739130434782608
s(S'serves'
p108
S'[[det]]'
p109
S'area'
p110
tp111
F0.043478260869565216
s(S'also'
p112
S'operates'
p113
S'in'
p114
tp115
F0.021739130434782608
s(S'also'
p116
S'serves'
p117
S'[[det]]'
p118
tp119
F0.021739130434782608
s(S'also'
p120
S'serves'
p121
S'[[num]]'
p122
tp123
F0.021739130434782608
s(S'also'
p124
S'broadcasts'
p125
S'on'
p126
tp127
F0.021739130434782608
s(S'[[det]]'
p128
S'network'
p129
S'of'
p130
tp131
F0.021739130434782608
s(S'serves'
p132
S'with'
p133
g99
tp134
F0.021739130434782608
s(S'[[det]]'
p135
S'station'
p136
S'[[det]]'
p137
tp138
F0.021739130434782608
s(g39
g93
g86
tp139
F0.021739130434782608
s(g133
g99
g100
tp140
F0.021739130434782608
s(S'[[det]]'
p141
S'station'
p142
S'near'
p143
tp144
F0.021739130434782608
s(S'serves'
p145
g5
g6
tp146
F0.021739130434782608
s.