(dp0
(S'[[adj]]'
p1
S'affiliate'
p2
S'of'
p3
tp4
F0.011764705882352941
s(S'was'
p5
S'sold'
p6
S'[[con]]'
p7
tp8
F0.011764705882352941
s(S'is'
p9
S'owned'
p10
S'[[con]]'
p11
tp12
F0.011764705882352941
s(S'[[prp]]'
p13
S'affiliation'
p14
S'to'
p15
tp16
F0.011764705882352941
s(S'[[det]]'
p17
S'owned'
p18
S'by'
p19
tp20
F0.011764705882352941
s(S'[[adj]]'
p21
S'affiliation'
p22
S'to'
p23
tp24
F0.011764705882352941
s(S'switched'
p25
g13
g14
tp26
F0.011764705882352941
s(S'[[con]]'
p27
S'switched'
p28
S'to'
p29
tp30
F0.011764705882352941
s(S'been'
p31
S'affiliated'
p32
S'with'
p33
tp34
F0.011764705882352941
s(S'[[adj]]'
p35
S'affiliate'
p36
S'for'
p37
tp38
F0.011764705882352941
s(S'been'
p39
S'affiliated'
p40
S'to'
p41
tp42
F0.011764705882352941
s(S'not'
p43
S'owned'
p44
S'by'
p45
tp46
F0.011764705882352941
s(S'switched'
p47
S'[[prp]]'
p48
g21
tp49
F0.011764705882352941
s(S'[[det]]'
p50
S'affiliate'
p51
S'of'
p52
tp53
F0.03529411764705882
s(S's'
p54
S'programming'
p55
S'from'
p56
tp57
F0.011764705882352941
s(S'announced'
p58
S'that'
p59
S'[[mod]]'
p60
tp61
F0.023529411764705882
s(S'station'
p62
S'broadcasting'
p63
S'locally'
p64
tp65
F0.011764705882352941
s(g63
g64
S'as'
p66
tp67
F0.011764705882352941
s(S'radio'
p68
S'home'
p69
S'for'
p70
tp71
F0.011764705882352941
s(S'[[adj]]'
p72
S'sold'
p73
S'in'
p74
tp75
F0.011764705882352941
s(S'was'
p76
S'affiliated'
p77
S'with'
p78
tp79
F0.011764705882352941
s(S'radio'
p80
S'home'
p81
S'[[det]]'
p82
tp83
F0.011764705882352941
s(g60
S'join'
p84
S'[[det]]'
p85
tp86
F0.023529411764705882
s(S'by'
p87
S'[[con]]'
p88
S'features'
p89
tp90
F0.011764705882352941
s(S'also'
p91
S'owned'
p92
S'by'
p93
tp94
F0.011764705882352941
s(S'announced'
p95
S'[[mod]]'
p96
S'join'
p97
tp98
F0.011764705882352941
s(S'be'
p99
S'sold'
p100
S'in'
p101
tp102
F0.011764705882352941
s(S'being'
p103
S'sold'
p104
S'in'
p105
tp106
F0.011764705882352941
s(S'was'
p107
S'owned'
p108
S'by'
p109
tp110
F0.011764705882352941
s(S'was'
p111
S'announced'
p112
S'that'
p113
tp114
F0.023529411764705882
s(S'was'
p115
S'sold'
p116
S'by'
p117
tp118
F0.011764705882352941
s(S'was'
p119
S'sold'
p120
S'to'
p121
tp122
F0.011764705882352941
s(S'had'
p123
S'switched'
p124
S'to'
p125
tp126
F0.011764705882352941
s(S'been'
p127
S'sold'
p128
S'in'
p129
tp130
F0.011764705882352941
s(g48
g21
g22
tp131
F0.011764705882352941
s(S'had'
p132
S'switched'
p133
S'from'
p134
tp135
F0.011764705882352941
s(S'was'
p136
S'sold'
p137
S'for'
p138
tp139
F0.011764705882352941
s(S'[[adj]]'
p140
S'television'
p141
g62
tp142
F0.011764705882352941
s(S'[[con]]'
p143
S'owned'
p144
S'by'
p145
tp146
F0.011764705882352941
s(g64
g66
g50
tp147
F0.011764705882352941
s(g59
g60
g84
tp148
F0.023529411764705882
s(S'are'
p149
S'owned'
p150
S'by'
p151
tp152
F0.011764705882352941
s(S'owned'
p153
g87
g88
tp154
F0.011764705882352941
s(S'were'
p155
S'sold'
p156
S'to'
p157
tp158
F0.011764705882352941
s(S'formerly'
p159
S'owned'
p160
S'by'
p161
tp162
F0.011764705882352941
s(S'is'
p163
S'owned'
p164
S'[[num]]'
p165
tp166
F0.011764705882352941
s(S'is'
p167
S'owned'
p168
S'by'
p169
tp170
F0.011764705882352941
s(g141
g62
g63
tp171
F0.011764705882352941
s(g113
S'[[det]]'
p172
S'affiliate'
p173
tp174
F0.011764705882352941
s(S'currently'
p175
S'owned'
p176
S'by'
p177
tp178
F0.023529411764705882
s(S'was'
p179
S'sold'
p180
S'[[det]]'
p181
tp182
F0.011764705882352941
s(S'[[det]]'
p183
S'radio'
p184
S'home'
p185
tp186
F0.03529411764705882
s(S'be'
p187
S'sold'
p188
S'by'
p189
tp190
F0.011764705882352941
s(g184
g185
S'of'
p191
tp192
F0.011764705882352941
s(S'be'
p193
S'sold'
p194
S'to'
p195
tp196
F0.011764705882352941
s(S'being'
p197
S'sold'
p198
S'to'
p199
tp200
F0.011764705882352941
s(S'been'
p201
S'owned'
p202
S'by'
p203
tp204
F0.011764705882352941
s(S'[[det]]'
p205
S'member'
p206
S'station'
p207
tp208
F0.011764705882352941
s(S'[[adj]]'
p209
S'programming'
p210
S'for'
p211
tp212
F0.011764705882352941
s(S'also'
p213
S'affiliated'
p214
S'with'
p215
tp216
F0.011764705882352941
s(S'was'
p217
S'affiliated'
p218
S'to'
p219
tp220
F0.011764705882352941
s(S'was'
p221
S'sold'
p222
S'off'
p223
tp224
F0.011764705882352941
s(g206
g207
S'of'
p225
tp226
F0.011764705882352941
s(S'is'
p227
S'sold'
p228
S'by'
p229
tp230
F0.011764705882352941
s(S'became'
p231
S'affiliated'
p232
S'with'
p233
tp234
F0.011764705882352941
s(S'were'
p235
S'sold'
p236
S'off'
p237
tp238
F0.011764705882352941
s(S'also'
p239
S'sold'
p240
S'[[adj]]'
p241
tp242
F0.011764705882352941
s(S'[[adj]]'
p243
S'programming'
p244
S'from'
p245
tp246
F0.011764705882352941
s(g66
g50
g51
tp247
F0.011764705882352941
s(S'was'
p248
S'affiliated'
p249
S'[[con]]'
p250
tp251
F0.011764705882352941
s(S'then'
p252
S'switched'
p253
S'to'
p254
tp255
F0.011764705882352941
s(S'[[det]]'
p256
S'affiliate'
p257
S'for'
p258
tp259
F0.011764705882352941
s(g112
g113
g172
tp260
F0.011764705882352941
s(S'now'
p261
S'owned'
p262
S'by'
p263
tp264
F0.011764705882352941
s(S'also'
p265
S'sold'
p266
S'by'
p267
tp268
F0.011764705882352941
s(S'still'
p269
S'owned'
p270
S'by'
p271
tp272
F0.011764705882352941
s.