(dp0
(S'[[adj]]'
p1
S'capital'
p2
S'in'
p3
tp4
F0.045454545454545456
s(S'[[adj]]'
p5
S'commission'
p6
S'in'
p7
tp8
F0.045454545454545456
s(S'[[det]]'
p9
S'artist'
p10
S'based'
p11
tp12
F0.045454545454545456
s(S'[[adj]]'
p13
S'cities'
p14
S'[[con]]'
p15
tp16
F0.045454545454545456
s(S's'
p17
S'capital'
p18
S'city'
p19
tp20
F0.09090909090909091
s(S'[[adj]]'
p21
S'artist'
p22
S'based'
p23
tp24
F0.045454545454545456
s(g17
S'capital'
p25
S'of'
p26
tp27
F0.045454545454545456
s(g10
g11
S'in'
p28
tp29
F0.09090909090909091
s(S'[[adj]]'
p30
S'railway'
p31
S'between'
p32
tp33
F0.045454545454545456
s(S'represented'
p34
S'through'
p35
S'[[adj]]'
p36
tp37
F0.045454545454545456
s(S'capital'
p38
S'city'
p39
S'of'
p40
tp41
F0.045454545454545456
s(S'is'
p42
S'represented'
p43
S'through'
p44
tp45
F0.09090909090909091
s(g43
g44
S'based'
p46
tp47
F0.045454545454545456
s(g35
g36
S'ambassador'
p48
tp49
F0.045454545454545456
s(g17
S'capital'
p50
S'from'
p51
tp52
F0.045454545454545456
s(g44
g46
S'in'
p53
tp54
F0.045454545454545456
s(g17
S'capital'
p55
S'[[con]]'
p56
tp57
F0.045454545454545456
s(g48
S'based'
p58
S'in'
p59
tp60
F0.045454545454545456
s(g36
g48
g58
tp61
F0.045454545454545456
s.