(dp0
(S'is'
p1
S'aired'
p2
S'on'
p3
tp4
F0.05263157894736842
s(S'first'
p5
S'aired'
p6
S'on'
p7
tp8
F0.05263157894736842
s(S'sitcom'
p9
S'that'
p10
S'aired'
p11
tp12
F0.05263157894736842
s(S'first'
p13
S'aired'
p14
S'in'
p15
tp16
F0.05263157894736842
s(S'is'
p17
S'broadcast'
p18
S'by'
p19
tp20
F0.05263157894736842
s(S'was'
p21
S'broadcast'
p22
S'by'
p23
tp24
F0.05263157894736842
s(S'also'
p25
S'aired'
p26
S'on'
p27
tp28
F0.05263157894736842
s(S'been'
p29
S'broadcast'
p30
S'on'
p31
tp32
F0.05263157894736842
s(S'[[det]]'
p33
g9
g10
tp34
F0.05263157894736842
s(S'was'
p35
S'broadcast'
p36
S'[[adj]]'
p37
tp38
F0.05263157894736842
s(S'was'
p39
S'aired'
p40
S'on'
p41
tp42
F0.05263157894736842
s(S'was'
p43
S'broadcast'
p44
S'on'
p45
tp46
F0.05263157894736842
s(S'that'
p47
S'aired'
p48
S'on'
p49
tp50
F0.10526315789473684
s(S'[[adj]]'
p51
S'aired'
p52
S'on'
p53
tp54
F0.05263157894736842
s(S'show'
p55
S'aired'
p56
S'on'
p57
tp58
F0.05263157894736842
s(S'[[adj]]'
p59
S'broadcast'
p60
S'on'
p61
tp62
F0.05263157894736842
s(S'is'
p63
S'broadcast'
p64
S'on'
p65
tp66
F0.05263157894736842
s(S'be'
p67
S'broadcast'
p68
S'on'
p69
tp70
F0.05263157894736842
s.