(dp0
(S'also'
p1
S'refer'
p2
S'to'
p3
tp4
F0.0008680555555555555
s(S'has'
p5
S'said'
p6
S'of'
p7
tp8
F0.0008680555555555555
s(S'also'
p9
S'wrote'
p10
S'of'
p11
tp12
F0.0008680555555555555
s(S'[[prp]]'
p13
S'son'
p14
S'who'
p15
tp16
F0.001736111111111111
s(S'[[det]]'
p17
S'youngest'
p18
S'son'
p19
tp20
F0.0008680555555555555
s(S'by'
p21
S'[[det]]'
p22
S'son'
p23
tp24
F0.0008680555555555555
s(S'later'
p25
S'said'
p26
S'of'
p27
tp28
F0.0008680555555555555
s(S'married'
p29
S'[[num]]'
p30
S'daughter'
p31
tp32
F0.0026041666666666665
s(S'married'
p33
S'who'
p34
S'[[num]]'
p35
tp36
F0.0008680555555555555
s(S'[[adj]]'
p37
S'children'
p38
S'with'
p39
tp40
F0.0008680555555555555
s(S'married'
p41
S'de'
p42
S'[[det]]'
p43
tp44
F0.0008680555555555555
s(S'[[pro]]'
p45
S'son'
p46
S'of'
p47
tp48
F0.0008680555555555555
s(S'[[con]]'
p49
S'took'
p50
S'[[num]]'
p51
tp52
F0.0008680555555555555
s(S'[[num]]'
p53
S'[[adj]]'
p54
S'daughter'
p55
tp56
F0.0008680555555555555
s(S'later'
p57
S'tells'
p58
S'[[pro]]'
p59
tp60
F0.0008680555555555555
s(S'which'
p61
S'wrote'
p62
S'with'
p63
tp64
F0.0008680555555555555
s(S'once'
p65
S'wrote'
p66
S'that'
p67
tp68
F0.0008680555555555555
s(S'[[adj]]'
p69
S'sister'
p70
S'who'
p71
tp72
F0.0008680555555555555
s(S'[[det]]'
p73
S'son'
p74
S'with'
p75
tp76
F0.0008680555555555555
s(S'[[det]]'
p77
S'father'
p78
S'[[det]]'
p79
tp80
F0.0008680555555555555
s(S'when'
p81
S'took'
p82
S'over'
p83
tp84
F0.0008680555555555555
s(S'is'
p85
S'son'
p86
S'of'
p87
tp88
F0.0008680555555555555
s(S'[[adj]]'
p89
S'sister'
p90
S'of'
p91
tp92
F0.0008680555555555555
s(S'[[prp]]'
p93
S'daughter'
p94
S'was'
p95
tp96
F0.0008680555555555555
s(S'that'
p97
S'included'
p98
S'[[con]]'
p99
tp100
F0.0008680555555555555
s(S'formerly'
p101
S'married'
p102
S'to'
p103
tp104
F0.0008680555555555555
s(S'has'
p105
S'said'
p106
S'is'
p107
tp108
F0.0008680555555555555
s(S's'
p109
S'relationship'
p110
S'with'
p111
tp112
F0.0008680555555555555
s(S'also'
p113
S'took'
p114
S'[[con]]'
p115
tp116
F0.0008680555555555555
s(S'[[adj]]'
p117
S'son'
p118
S'[[det]]'
p119
tp120
F0.0008680555555555555
s(S'was'
p121
S'married'
p122
S'again'
p123
tp124
F0.0008680555555555555
s(S'son'
p125
S'[[con]]'
p126
S'daughter'
p127
tp128
F0.004340277777777778
s(S'was'
p129
S'succeeded'
p130
S'[[prp]]'
p131
tp132
F0.0008680555555555555
s(S'de'
p133
S'daughter'
p134
S'[[con]]'
p135
tp136
F0.0008680555555555555
s(g109
S'mother'
p137
S'that'
p138
tp139
F0.0008680555555555555
s(g109
S'children'
p140
S'with'
p141
tp142
F0.0008680555555555555
s(S'gave'
p143
S'birth'
p144
S'[[con]]'
p145
tp146
F0.0008680555555555555
s(S'[[prp]]'
p147
S'relationship'
p148
S'with'
p149
tp150
F0.0008680555555555555
s(S'son'
p151
S'who'
p152
S'[[det]]'
p153
tp154
F0.0008680555555555555
s(S'later'
p155
S'said'
p156
S'[[det]]'
p157
tp158
F0.0008680555555555555
s(S'[[adj]]'
p159
S'father'
p160
S'of'
p161
tp162
F0.0008680555555555555
s(S'married'
p163
S'[[det]]'
p164
S'daughter'
p165
tp166
F0.006076388888888889
s(S'when'
p167
S'wrote'
p168
S'to'
p169
tp170
F0.0008680555555555555
s(S'[[con]]'
p171
S'daughter'
p172
S'[[con]]'
p173
tp174
F0.0008680555555555555
s(g109
S'younger'
p175
S'brother'
p176
tp177
F0.0008680555555555555
s(S'[[con]]'
p178
S'[[prp]]'
p179
S'son'
p180
tp181
F0.0026041666666666665
s(S'was'
p182
S'survived'
p183
S'by'
p184
tp185
F0.003472222222222222
s(S'then'
p186
S'tells'
p187
S'that'
p188
tp189
F0.0008680555555555555
s(S'married'
p190
S'with'
p191
S'[[num]]'
p192
tp193
F0.0078125
s(S'have'
p194
S'included'
p195
S'[[con]]'
p196
tp197
F0.0008680555555555555
s(S'[[mod]]'
p198
S'refer'
p199
S'[[adj]]'
p200
tp201
F0.0008680555555555555
s(S'[[adj]]'
p202
S'children'
p203
S'[[num]]'
p204
tp205
F0.0008680555555555555
s(g109
S'daughter'
p206
S'by'
p207
tp208
F0.0008680555555555555
s(S'also'
p209
S'said'
p210
S'[[mod]]'
p211
tp212
F0.0008680555555555555
s(S'[[adj]]'
p213
S'wife'
p214
S'[[adj]]'
p215
tp216
F0.0008680555555555555
s(S'[[det]]'
p217
S'engineer'
p218
S'in'
p219
tp220
F0.0008680555555555555
s(S'[[det]]'
p221
S'son'
p222
S'to'
p223
tp224
F0.0008680555555555555
s(S'when'
p225
S'married'
p226
S'[[det]]'
p227
tp228
F0.0008680555555555555
s(S'[[con]]'
p229
S'younger'
p230
S'brother'
p231
tp232
F0.001736111111111111
s(g109
S'relationship'
p233
S'to'
p234
tp235
F0.0008680555555555555
s(S'brother'
p236
S'[[con]]'
p237
S'father'
p238
tp239
F0.0008680555555555555
s(S'first'
p240
S'daughter'
p241
S'of'
p242
tp243
F0.0008680555555555555
s(S'[[con]]'
p244
S'married'
p245
S'to'
p246
tp247
F0.0008680555555555555
s(S'married'
p248
S'to'
p249
S'[[num]]'
p250
tp251
F0.006944444444444444
s(S'[[det]]'
p252
S'son'
p253
S'became'
p254
tp255
F0.0008680555555555555
s(S'[[adj]]'
p256
S'son'
p257
S'in'
p258
tp259
F0.0008680555555555555
s(g109
S'death'
p260
S'[[det]]'
p261
tp262
F0.0008680555555555555
s(S'[[det]]'
p263
S'sons'
p264
S'of'
p265
tp266
F0.0008680555555555555
s(S'was'
p267
S'survived'
p268
S'[[con]]'
p269
tp270
F0.0008680555555555555
s(S'was'
p271
S'married'
p272
S'had'
p273
tp274
F0.0008680555555555555
s(S'[[con]]'
p275
S'[[num]]'
p276
S'children'
p277
tp278
F0.019097222222222224
s(S'[[con]]'
p279
S'tells'
p280
S'[[det]]'
p281
tp282
F0.0008680555555555555
s(S'[[adj]]'
p283
S'father'
p284
S'in'
p285
tp286
F0.0008680555555555555
s(S'[[det]]'
p287
S'daughter'
p288
S'[[num]]'
p289
tp290
F0.0008680555555555555
s(S'later'
p291
S'wrote'
p292
S'that'
p293
tp294
F0.0008680555555555555
s(S'[[pro]]'
p295
S'[[det]]'
p296
S'son'
p297
tp298
F0.0008680555555555555
s(S'married'
p299
S'had'
p300
S'[[num]]'
p301
tp302
F0.0026041666666666665
s(S'[[det]]'
p303
S'child'
p304
S'[[con]]'
p305
tp306
F0.0008680555555555555
s(g109
S'sister'
p307
S'[[adj]]'
p308
tp309
F0.0008680555555555555
s(S'[[con]]'
p310
S'wife'
p311
S'of'
p312
tp313
F0.0008680555555555555
s(g109
S'daughter'
p314
S'[[con]]'
p315
tp316
F0.001736111111111111
s(S'[[num]]'
p317
S'sons'
p318
S'who'
p319
tp320
F0.0008680555555555555
s(S'married'
p321
S'd'
p322
S'[[det]]'
p323
tp324
F0.0008680555555555555
s(S'[[det]]'
p325
S'son'
p326
S'was'
p327
tp328
F0.0008680555555555555
s(S'[[det]]'
p329
S'sister'
p330
S'[[con]]'
p331
tp332
F0.0008680555555555555
s(S'is'
p333
S'survived'
p334
S'[[con]]'
p335
tp336
F0.0008680555555555555
s(S'then'
p337
S'took'
p338
S'on'
p339
tp340
F0.0008680555555555555
s(S'later'
p341
S'married'
p342
S'to'
p343
tp344
F0.0008680555555555555
s(S'also'
p345
S'wrote'
p346
S'with'
p347
tp348
F0.0008680555555555555
s(S'later'
p349
S'wrote'
p350
S'[[adj]]'
p351
tp352
F0.0008680555555555555
s(g109
S'son'
p353
S'as'
p354
tp355
F0.0008680555555555555
s(S'son'
p356
S'[[det]]'
p357
S'younger'
p358
tp359
F0.001736111111111111
s(g130
g131
S'son'
p360
tp361
F0.0008680555555555555
s(S'brother'
p362
S'[[con]]'
p363
S'[[det]]'
p364
tp365
F0.0026041666666666665
s(S'[[pro]]'
p366
S'son'
p367
S'as'
p368
tp369
F0.0008680555555555555
s(S'son'
p370
g229
g230
tp371
F0.001736111111111111
s(S'had'
p372
S'married'
p373
S'[[det]]'
p374
tp375
F0.0026041666666666665
s(S'children'
p376
S'including'
p377
S'[[det]]'
p378
tp379
F0.0008680555555555555
s(S'[[pro]]'
p380
S'gave'
p381
S'birth'
p382
tp383
F0.0008680555555555555
s(S'[[prp]]'
p384
S'son'
p385
S'is'
p386
tp387
F0.001736111111111111
s(S'which'
p388
S'wrote'
p389
S'that'
p390
tp391
F0.0008680555555555555
s(S'[[det]]'
p392
S'son'
p393
S'of'
p394
tp395
F0.006076388888888889
s(S'to'
p396
S'accompany'
p397
S'[[det]]'
p398
tp399
F0.0008680555555555555
s(S'now'
p400
S'married'
p401
S'to'
p402
tp403
F0.0008680555555555555
s(S'sons'
p404
S'[[con]]'
p405
S'[[num]]'
p406
tp407
F0.0008680555555555555
s(S'also'
p408
S'wrote'
p409
S'at'
p410
tp411
F0.0008680555555555555
s(S'to'
p412
S'[[det]]'
p413
S'mother'
p414
tp415
F0.0008680555555555555
s(S'was'
p416
S'married'
p417
S'[[num]]'
p418
tp419
F0.0008680555555555555
s(g322
S'[[num]]'
p420
S'daughter'
p421
tp422
F0.0008680555555555555
s(S'children'
p423
S'[[con]]'
p424
S'who'
p425
tp426
F0.0008680555555555555
s(S'had'
p427
S'married'
p428
S'in'
p429
tp430
F0.0008680555555555555
s(S'currently'
p431
S'married'
p432
S'[[con]]'
p433
tp434
F0.001736111111111111
s(S'[[prp]]'
p435
S'mother'
p436
g109
tp437
F0.0008680555555555555
s(S'[[det]]'
p438
S'death'
p439
S'[[con]]'
p440
tp441
F0.0008680555555555555
s(S'later'
p442
S'married'
p443
S'daughter'
p444
tp445
F0.001736111111111111
s(S'[[adj]]'
p446
S'children'
p447
S'[[con]]'
p448
tp449
F0.0008680555555555555
s(S'later'
p450
S'wrote'
p451
S'[[num]]'
p452
tp453
F0.0008680555555555555
s(S'also'
p454
S'refer'
p455
S'also'
p456
tp457
F0.0008680555555555555
s(S'[[det]]'
p458
S'son'
p459
g236
tp460
F0.0008680555555555555
s(S'[[con]]'
p461
S'wrote'
p462
S'[[det]]'
p463
tp464
F0.0008680555555555555
s(S'[[con]]'
p465
S'[[num]]'
p466
S'son'
p467
tp468
F0.003472222222222222
s(g322
g323
S'daughter'
p469
tp470
F0.0008680555555555555
s(S'married'
p471
S'secondly'
p472
S'[[det]]'
p473
tp474
F0.0008680555555555555
s(S'[[num]]'
p475
S'sons'
p476
S'[[num]]'
p477
tp478
F0.0008680555555555555
s(S'[[num]]'
p479
S'son'
p480
S'who'
p481
tp482
F0.0008680555555555555
s(S'more'
p483
S'children'
p484
S'[[num]]'
p485
tp486
F0.0008680555555555555
s(S'whose'
p487
S'father'
p488
S'was'
p489
tp490
F0.0008680555555555555
s(S'to'
p491
S'know'
p492
S'where'
p493
tp494
F0.0008680555555555555
s(S'which'
p495
S'included'
p496
S'[[det]]'
p497
tp498
F0.0008680555555555555
s(g109
S'son'
p499
S'[[pro]]'
p500
tp501
F0.0008680555555555555
s(S'to'
p502
S'[[det]]'
p503
S'daughter'
p504
tp505
F0.003472222222222222
s(S'[[adj]]'
p506
S'relationship'
p507
S'to'
p508
tp509
F0.0008680555555555555
s(S'also'
p510
S'wrote'
p511
S'under'
p512
tp513
F0.0008680555555555555
s(S'[[adj]]'
p514
S'sister'
p515
S'to'
p516
tp517
F0.0008680555555555555
s(S'was'
p518
S'included'
p519
S'with'
p520
tp521
F0.0008680555555555555
s(g459
g236
g237
tp522
F0.0008680555555555555
s(S'[[adj]]'
p523
S'father'
p524
S'[[con]]'
p525
tp526
F0.0008680555555555555
s(S'[[con]]'
p527
S'tells'
p528
S'[[pro]]'
p529
tp530
F0.0008680555555555555
s(S'then'
p531
S'tells'
p532
S'[[con]]'
p533
tp534
F0.0008680555555555555
s(S'who'
p535
S'took'
p536
S'over'
p537
tp538
F0.0008680555555555555
s(S'twice'
p539
S'married'
p540
S'first'
p541
tp542
F0.0008680555555555555
s(S'[[det]]'
p543
S'daughter'
p544
S'[[adj]]'
p545
tp546
F0.0008680555555555555
s(g109
S'death'
p547
S'by'
p548
tp549
F0.0008680555555555555
s(S'[[adj]]'
p550
S'wife'
p551
S'to'
p552
tp553
F0.0008680555555555555
s(S'also'
p554
S'wrote'
p555
S'[[adj]]'
p556
tp557
F0.0008680555555555555
s(S'[[num]]'
p558
S'son'
p559
S'[[det]]'
p560
tp561
F0.0008680555555555555
s(g109
S'death'
p562
S'[[con]]'
p563
tp564
F0.0008680555555555555
s(g109
S'son'
p565
S'whom'
p566
tp567
F0.0008680555555555555
s(S'[[det]]'
p568
S'mother'
p569
S'[[det]]'
p570
tp571
F0.0008680555555555555
s(g109
S'death'
p572
S'in'
p573
tp574
F0.0008680555555555555
s(g109
S'death'
p575
S'when'
p576
tp577
F0.0008680555555555555
s(S'married'
p578
S'to'
p579
S'[[adj]]'
p580
tp581
F0.0026041666666666665
s(S'married'
p582
S'in'
p583
S'[[det]]'
p584
tp585
F0.0008680555555555555
s(S'[[con]]'
p586
S'[[adj]]'
p587
S'sons'
p588
tp589
F0.0008680555555555555
s(S'son'
p590
S'[[con]]'
p591
S'[[det]]'
p592
tp593
F0.005208333333333333
s(S'was'
p594
S'included'
p595
S'[[con]]'
p596
tp597
F0.0008680555555555555
s(g109
S'sons'
p598
S'[[con]]'
p599
tp600
F0.0008680555555555555
s(S'also'
p601
S'included'
p602
S'[[adj]]'
p603
tp604
F0.0008680555555555555
s(S'[[mod]]'
p605
S'refer'
p606
S'to'
p607
tp608
F0.0008680555555555555
s(S'once'
p609
S'said'
p610
S'about'
p611
tp612
F0.0008680555555555555
s(S'[[adj]]'
p613
S'wife'
p614
S'[[num]]'
p615
tp616
F0.0008680555555555555
s(S'been'
p617
S'married'
p618
S'to'
p619
tp620
F0.0008680555555555555
s(S'later'
p621
S'took'
p622
S'[[det]]'
p623
tp624
F0.0008680555555555555
s(S'[[det]]'
p625
S'children'
p626
S'of'
p627
tp628
F0.0008680555555555555
s(S'[[adj]]'
p629
S'wife'
p630
S'of'
p631
tp632
F0.0008680555555555555
s(S'[[adj]]'
p633
S'sister'
p634
S'[[con]]'
p635
tp636
F0.0008680555555555555
s(S'son'
p637
S'[[det]]'
p638
S'widower'
p639
tp640
F0.0008680555555555555
s(S'mother'
p641
S'of'
p642
S'[[num]]'
p643
tp644
F0.001736111111111111
s(S'brother'
p645
S'[[det]]'
p646
g637
tp647
F0.0008680555555555555
s(S'married'
p648
S'with'
p649
S'[[adj]]'
p650
tp651
F0.0008680555555555555
s(S'with'
p652
S'[[num]]'
p653
S'children'
p654
tp655
F0.004340277777777778
s(S'was'
p656
S'succeeded'
p657
S'[[adj]]'
p658
tp659
F0.0008680555555555555
s(S'had'
p660
S'said'
p661
S'to'
p662
tp663
F0.0008680555555555555
s(S'survived'
p664
S'by'
p665
S'[[prp]]'
p666
tp667
F0.0008680555555555555
s(S'[[prp]]'
p668
S'son'
p669
S'to'
p670
tp671
F0.0008680555555555555
s(S'then'
p672
S'took'
p673
S'[[prp]]'
p674
tp675
F0.0008680555555555555
s(g42
g43
S'son'
p676
tp677
F0.0008680555555555555
s(S'had'
p678
S'said'
p679
S'that'
p680
tp681
F0.0008680555555555555
s(S'[[num]]'
p682
S'wrote'
p683
S'on'
p684
tp685
F0.0008680555555555555
s(S'gave'
p686
S'birth'
p687
S'[[det]]'
p688
tp689
F0.0008680555555555555
s(g191
g192
S'sons'
p690
tp691
F0.0026041666666666665
s(g109
S'son'
p692
S'[[det]]'
p693
tp694
F0.0008680555555555555
s(S'[[det]]'
p695
S'daughter'
p696
S'son'
p697
tp698
F0.0008680555555555555
s(g109
S'daughter'
p699
S'who'
p700
tp701
F0.001736111111111111
s(S'of'
p702
S'actresses'
p703
S'[[con]]'
p704
tp705
F0.0008680555555555555
s(S'had'
p706
S'married'
p707
S'[[con]]'
p708
tp709
F0.0008680555555555555
s(S'[[adj]]'
p710
S'child'
p711
S'to'
p712
tp713
F0.0008680555555555555
s(S'secondly'
p714
S'daughter'
p715
S'of'
p716
tp717
F0.0008680555555555555
s(S'married'
p718
S'[[con]]'
p719
S'mother'
p720
tp721
F0.0008680555555555555
s(S'married'
p722
S'[[con]]'
p723
S'[[det]]'
p724
tp725
F0.008680555555555556
s(g109
S'children'
p726
S'[[con]]'
p727
tp728
F0.0008680555555555555
s(S'[[det]]'
p729
S'son'
p730
S'later'
p731
tp732
F0.0008680555555555555
s(S'to'
p733
S'know'
p734
S'whether'
p735
tp736
F0.0008680555555555555
s(S'son'
p737
S'[[det]]'
p738
S'daughter'
p739
tp740
F0.0008680555555555555
s(S'who'
p741
S'took'
p742
S'[[det]]'
p743
tp744
F0.0008680555555555555
s(S'mother'
p745
S'of'
p746
S'[[prp]]'
p747
tp748
F0.0008680555555555555
s(S'son'
p749
S'younger'
p750
S'brother'
p751
tp752
F0.0008680555555555555
s(S'have'
p753
S'said'
p754
S'to'
p755
tp756
F0.0008680555555555555
s(S'[[num]]'
p757
S'children'
p758
S'from'
p759
tp760
F0.001736111111111111
s(S'[[det]]'
p761
S'relationship'
p762
S'[[con]]'
p763
tp764
F0.0008680555555555555
s(S'succeeded'
p765
S'by'
p766
S'[[prp]]'
p767
tp768
F0.005208333333333333
s(S'[[adj]]'
p769
S'son'
p770
S'with'
p771
tp772
F0.0008680555555555555
s(S'also'
p773
S'refer'
p774
S'[[num]]'
p775
tp776
F0.0008680555555555555
s(S'[[num]]'
p777
S'children'
p778
S'with'
p779
tp780
F0.001736111111111111
s(S'[[num]]'
p781
S'[[det]]'
p782
S'daughter'
p783
tp784
F0.0008680555555555555
s(S'[[prp]]'
p785
S'daughter'
p786
S'[[con]]'
p787
tp788
F0.0008680555555555555
s(S'have'
p789
S'said'
p790
S'that'
p791
tp792
F0.0008680555555555555
s(g638
g639
S'[[det]]'
p793
tp794
F0.0008680555555555555
s(S'once'
p795
S'said'
p796
S'in'
p797
tp798
F0.0008680555555555555
s(S'[[con]]'
p799
S'sister'
p800
S'of'
p801
tp802
F0.0008680555555555555
s(S'younger'
p803
g645
g646
tp804
F0.0008680555555555555
s(S'[[det]]'
p805
S'son'
p806
S'[[con]]'
p807
tp808
F0.006944444444444444
s(S'[[det]]'
p809
S'wife'
p810
S'of'
p811
tp812
F0.0008680555555555555
s(S'married'
p813
S'[[prp]]'
p814
S'daughter'
p815
tp816
F0.0026041666666666665
s(S'[[adj]]'
p817
S'daughter'
p818
S'by'
p819
tp820
F0.0008680555555555555
s(S'son'
p821
S'daughter'
p822
S'of'
p823
tp824
F0.0026041666666666665
s(S'was'
p825
S'father'
p826
S'to'
p827
tp828
F0.0008680555555555555
s(S'[[det]]'
p829
S'daughter'
p830
S'[[pro]]'
p831
tp832
F0.001736111111111111
s(S'son'
p833
S'was'
p834
S'married'
p835
tp836
F0.0008680555555555555
s(S'to'
p837
S'know'
p838
S'that'
p839
tp840
F0.0008680555555555555
s(S'[[prp]]'
p841
S'sister'
p842
S'[[con]]'
p843
tp844
F0.0008680555555555555
s(S'married'
p845
g295
g296
tp846
F0.0008680555555555555
s(S'been'
p847
S'married'
p848
S'twice'
p849
tp850
F0.0008680555555555555
s(S'[[prp]]'
p851
S'father'
p852
g109
tp853
F0.0008680555555555555
s(S'[[det]]'
p854
S'daughter'
p855
S'to'
p856
tp857
F0.0008680555555555555
s(g109
S'father'
p858
S'[[det]]'
p859
tp860
F0.0008680555555555555
s(S'was'
p861
S'sister'
p862
S'of'
p863
tp864
F0.0008680555555555555
s(S'[[adj]]'
p865
S'child'
p866
S'[[con]]'
p867
tp868
F0.0008680555555555555
s(S'[[adj]]'
p869
S'daughter'
p870
S'[[con]]'
p871
tp872
F0.0008680555555555555
s(S'[[con]]'
p873
S'youngest'
p874
S'son'
p875
tp876
F0.0008680555555555555
s(S'[[adj]]'
p877
S'son'
p878
S'of'
p879
tp880
F0.0026041666666666665
s(S'children'
p881
S'[[con]]'
p882
S'is'
p883
tp884
F0.0008680555555555555
s(g750
g751
S'of'
p885
tp886
F0.005208333333333333
s(S'also'
p887
S'tells'
p888
S'of'
p889
tp890
F0.0008680555555555555
s(g109
S'father'
p891
S'as'
p892
tp893
F0.0008680555555555555
s(S'is'
p894
S'included'
p895
S'[[con]]'
p896
tp897
F0.0008680555555555555
s(S'married'
p898
g53
g54
tp899
F0.0008680555555555555
s(S'married'
p900
S'[[con]]'
p901
S'[[prp]]'
p902
tp903
F0.003472222222222222
s(S'get'
p904
S'married'
p905
S'to'
p906
tp907
F0.0008680555555555555
s(S'with'
p908
S'[[det]]'
p909
S'son'
p910
tp911
F0.0008680555555555555
s(S'have'
p912
S'included'
p913
S'[[pro]]'
p914
tp915
F0.0008680555555555555
s(S'[[prp]]'
p916
S'father'
p917
S'[[det]]'
p918
tp919
F0.0008680555555555555
s(S'[[adj]]'
p920
S'children'
p921
S'[[adj]]'
p922
tp923
F0.0008680555555555555
s(g109
S'sister'
p924
S'who'
p925
tp926
F0.0008680555555555555
s(S'[[prp]]'
p927
S'children'
p928
S'[[con]]'
p929
tp930
F0.0008680555555555555
s(S'to'
p931
S'[[adj]]'
p932
S'son'
p933
tp934
F0.0008680555555555555
s(S'[[det]]'
p935
S'daughter'
p936
S'by'
p937
tp938
F0.0008680555555555555
s(S'also'
p939
S'took'
p940
S'over'
p941
tp942
F0.0008680555555555555
s(S'[[con]]'
p943
S'said'
p944
S'[[adj]]'
p945
tp946
F0.0008680555555555555
s(S'currently'
p947
S'married'
p948
S'to'
p949
tp950
F0.0008680555555555555
s(S'[[det]]'
p951
S'mother'
p952
S'of'
p953
tp954
F0.008680555555555556
s(S'[[det]]'
p955
S'daughters'
p956
S'of'
p957
tp958
F0.0008680555555555555
s(g109
S'wife'
p959
S'[[con]]'
p960
tp961
F0.0008680555555555555
s(S'to'
p962
S'know'
p963
S'who'
p964
tp965
F0.0008680555555555555
s(S'then'
p966
S'married'
p967
S'[[pro]]'
p968
tp969
F0.0008680555555555555
s(S'only'
p970
S'daughter'
p971
S'of'
p972
tp973
F0.0008680555555555555
s(S'daughter'
p974
S'[[det]]'
p975
S'[[adj]]'
p976
tp977
F0.0008680555555555555
s(S'also'
p978
S'took'
p979
S'on'
p980
tp981
F0.0008680555555555555
s(S'was'
p982
S'married'
p983
S'[[con]]'
p984
tp985
F0.013020833333333334
s(g109
S'father'
p986
S'[[con]]'
p987
tp988
F0.0008680555555555555
s(S'[[adj]]'
p989
S'daughter'
p990
S'[[adj]]'
p991
tp992
F0.0008680555555555555
s(S'[[num]]'
p993
S'son'
p994
S'by'
p995
tp996
F0.0008680555555555555
s(S'still'
p997
S'married'
p998
S'to'
p999
tp1000
F0.0008680555555555555
s(g665
g666
S'daughters'
p1001
tp1002
F0.0008680555555555555
s(g767
S'son'
p1003
S'[[pro]]'
p1004
tp1005
F0.0008680555555555555
s(S'once'
p1006
S'said'
p1007
S'to'
p1008
tp1009
F0.0008680555555555555
s(S'[[det]]'
p1010
S'son'
p1011
S'who'
p1012
tp1013
F0.001736111111111111
s(S'later'
p1014
S'wrote'
p1015
S'to'
p1016
tp1017
F0.0008680555555555555
s(S'later'
p1018
S'said'
p1019
S'[[con]]'
p1020
tp1021
F0.0008680555555555555
s(S'[[adj]]'
p1022
S'wife'
p1023
S'in'
p1024
tp1025
F0.0008680555555555555
s(S'[[num]]'
p1026
S'children'
p1027
S'of'
p1028
tp1029
F0.0008680555555555555
s(S'[[prp]]'
p1030
S'son'
p1031
S'by'
p1032
tp1033
F0.0008680555555555555
s(S'[[num]]'
p1034
S'daughters'
p1035
S'[[con]]'
p1036
tp1037
F0.0026041666666666665
s(S'[[det]]'
p1038
S'father'
p1039
S'[[con]]'
p1040
tp1041
F0.0008680555555555555
s(S'[[pro]]'
p1042
S'death'
p1043
S'[[con]]'
p1044
tp1045
F0.0008680555555555555
s(g975
g976
S'son'
p1046
tp1047
F0.001736111111111111
s(S'was'
p1048
S'married'
p1049
S'by'
p1050
tp1051
F0.0008680555555555555
s(S'to'
p1052
S'[[num]]'
p1053
S'children'
p1054
tp1055
F0.003472222222222222
s(S'[[con]]'
p1056
S'said'
p1057
S'that'
p1058
tp1059
F0.0008680555555555555
s(S'[[prp]]'
p1060
S'daughter'
p1061
S'[[det]]'
p1062
tp1063
F0.0008680555555555555
s(S'by'
p1064
S'[[num]]'
p1065
S'daughters'
p1066
tp1067
F0.003472222222222222
s(S'been'
p1068
S'married'
p1069
g275
tp1070
F0.001736111111111111
s(S'[[con]]'
p1071
S'tells'
p1072
S'that'
p1073
tp1074
F0.0008680555555555555
s(S'was'
p1075
S'married'
p1076
S'when'
p1077
tp1078
F0.0008680555555555555
s(g109
S'mother'
p1079
S'of'
p1080
tp1081
F0.0008680555555555555
s(S'[[det]]'
p1082
S'[[adj]]'
p1083
S'daughter'
p1084
tp1085
F0.0026041666666666665
s(S'[[prp]]'
p1086
S'wife'
p1087
S'as'
p1088
tp1089
F0.0008680555555555555
s(S'[[mod]]'
p1090
S'refer'
p1091
S'[[det]]'
p1092
tp1093
F0.0008680555555555555
s(S'[[det]]'
p1094
S'mother'
p1095
S'from'
p1096
tp1097
F0.0008680555555555555
s(S'was'
p1098
S'son'
p1099
S'[[con]]'
p1100
tp1101
F0.0008680555555555555
s(S'was'
p1102
S'wife'
p1103
S'of'
p1104
tp1105
F0.0008680555555555555
s(S'[[con]]'
p1106
S'took'
p1107
S'up'
p1108
tp1109
F0.0008680555555555555
s(S'son'
p1110
S'[[adj]]'
p1111
S'daughter'
p1112
tp1113
F0.0008680555555555555
s(S'[[det]]'
p1114
S'father'
p1115
S'to'
p1116
tp1117
F0.0008680555555555555
s(S'married'
p1118
S'[[adj]]'
p1119
S'daughter'
p1120
tp1121
F0.0008680555555555555
s(g696
g697
S'of'
p1122
tp1123
F0.0008680555555555555
s(g109
S'son'
p1124
S'[[con]]'
p1125
tp1126
F0.0026041666666666665
s(S'[[adj]]'
p1127
S'son'
p1128
S'[[con]]'
p1129
tp1130
F0.004340277777777778
s(S'[[adj]]'
p1131
S'son'
p1132
S'later'
p1133
tp1134
F0.0008680555555555555
s(S'[[num]]'
p1135
S'child'
p1136
S'with'
p1137
tp1138
F0.0008680555555555555
s(S'[[det]]'
p1139
S'son'
p1140
S'[[num]]'
p1141
tp1142
F0.0008680555555555555
s(S'where'
p1143
S'took'
p1144
S'part'
p1145
tp1146
F0.0008680555555555555
s(g109
S'wife'
p1147
S'in'
p1148
tp1149
F0.0008680555555555555
s(S'with'
p1150
S'[[det]]'
p1151
S'daughter'
p1152
tp1153
F0.0008680555555555555
s(S'[[pro]]'
p1154
S'wrote'
p1155
S'to'
p1156
tp1157
F0.0008680555555555555
s(S'also'
p1158
S'wrote'
p1159
S'to'
p1160
tp1161
F0.0008680555555555555
s(S'children'
p1162
S'who'
p1163
S'married'
p1164
tp1165
F0.0008680555555555555
s(S'[[num]]'
p1166
S'children'
p1167
S'[[num]]'
p1168
tp1169
F0.004340277777777778
s(S'was'
p1170
S'son'
p1171
S'by'
p1172
tp1173
F0.0008680555555555555
s(g109
S'son'
p1174
S'by'
p1175
tp1176
F0.0008680555555555555
s(S'is'
p1177
S'son'
p1178
S'to'
p1179
tp1180
F0.0008680555555555555
s(g249
g250
S'sons'
p1181
tp1182
F0.003472222222222222
s(S'[[det]]'
p1183
S'son'
p1184
S'whom'
p1185
tp1186
F0.0008680555555555555
s(S'[[prp]]'
p1187
S'father'
p1188
S'was'
p1189
tp1190
F0.0008680555555555555
s(S'was'
p1191
S'married'
p1192
S'in'
p1193
tp1194
F0.0008680555555555555
s(g109
S'sons'
p1195
S'[[num]]'
p1196
tp1197
F0.0008680555555555555
s(S'daughter'
p1198
S'who'
p1199
S'married'
p1200
tp1201
F0.0026041666666666665
s(S'[[adj]]'
p1202
S'wife'
p1203
S'[[pro]]'
p1204
tp1205
F0.0008680555555555555
s(g424
g425
S'married'
p1206
tp1207
F0.0008680555555555555
s(S'be'
p1208
S'married'
p1209
S'to'
p1210
tp1211
F0.0008680555555555555
s(S'also'
p1212
S'said'
p1213
S'[[det]]'
p1214
tp1215
F0.0008680555555555555
s(S'son'
p1216
S'of'
p1217
S'son'
p1218
tp1219
F0.0008680555555555555
s(S'daughter'
p1220
g465
g466
tp1221
F0.0008680555555555555
s(S'by'
p1222
S'[[adj]]'
p1223
S'son'
p1224
tp1225
F0.0008680555555555555
s(S'twice'
p1226
S'married'
p1227
S'[[adj]]'
p1228
tp1229
F0.0008680555555555555
s(S'was'
p1230
S'mother'
p1231
S'to'
p1232
tp1233
F0.0008680555555555555
s(S'[[det]]'
p1234
S'child'
p1235
S'with'
p1236
tp1237
F0.0008680555555555555
s(S'[[adj]]'
p1238
S'wife'
p1239
S'[[con]]'
p1240
tp1241
F0.0008680555555555555
s(g109
S'sister'
p1242
S'[[det]]'
p1243
tp1244
F0.0008680555555555555
s(S'[[adj]]'
p1245
S'death'
p1246
S'of'
p1247
tp1248
F0.0008680555555555555
s(S'[[num]]'
p1249
S'children'
p1250
S'[[det]]'
p1251
tp1252
F0.0008680555555555555
s(S'not'
p1253
S'know'
p1254
S'what'
p1255
tp1256
F0.0008680555555555555
s(S'[[adj]]'
p1257
S'son'
p1258
S'de'
p1259
tp1260
F0.0008680555555555555
s(S'also'
p1261
S'wrote'
p1262
S'on'
p1263
tp1264
F0.0008680555555555555
s(g109
S'wife'
p1265
S'who'
p1266
tp1267
F0.0008680555555555555
s(S'[[num]]'
p1268
S'daughters'
p1269
S'of'
p1270
tp1271
F0.0008680555555555555
s(g983
g984
S'[[num]]'
p1272
tp1273
F0.030381944444444444
s(S'also'
p1274
S'said'
p1275
S'that'
p1276
tp1277
F0.0008680555555555555
s(S'[[det]]'
p1278
S'son'
p1279
S'[[det]]'
p1280
tp1281
F0.004340277777777778
s(S'[[prp]]'
p1282
S'daughters'
p1283
S'[[con]]'
p1284
tp1285
F0.0008680555555555555
s(S'[[num]]'
p1286
S'daughters'
p1287
S'who'
p1288
tp1289
F0.0008680555555555555
s(S'[[det]]'
p1290
S'father'
p1291
S'when'
p1292
tp1293
F0.0008680555555555555
s(S'not'
p1294
S'refer'
p1295
S'to'
p1296
tp1297
F0.0008680555555555555
s(S'that'
p1298
S'included'
p1299
S'[[pro]]'
p1300
tp1301
F0.0008680555555555555
s(S'[[adj]]'
p1302
S'relationship'
p1303
S'with'
p1304
tp1305
F0.0008680555555555555
s(S'[[det]]'
p1306
S'wife'
p1307
S'to'
p1308
tp1309
F0.0008680555555555555
s(S'[[adj]]'
p1310
S'sons'
p1311
S'[[con]]'
p1312
tp1313
F0.001736111111111111
s(S'married'
p1314
S'[[con]]'
p1315
S'more'
p1316
tp1317
F0.0008680555555555555
s(S'[[prp]]'
p1318
S'son'
p1319
S'[[con]]'
p1320
tp1321
F0.0008680555555555555
s(S'was'
p1322
S'married'
p1323
S'to'
p1324
tp1325
F0.015625
s(g109
S'daughter'
p1326
S'with'
p1327
tp1328
F0.0008680555555555555
s(S'[[det]]'
p1329
S'child'
p1330
S'of'
p1331
tp1332
F0.0008680555555555555
s(S'which'
p1333
S'included'
p1334
S'[[con]]'
p1335
tp1336
F0.0008680555555555555
s(S'married'
p1337
S'in'
p1338
S'[[num]]'
p1339
tp1340
F0.004340277777777778
s(S'[[det]]'
p1341
S'children'
p1342
g109
tp1343
F0.0008680555555555555
s(g109
S'son'
p1344
S'in'
p1345
tp1346
F0.0008680555555555555
s(S'[[con]]'
p1347
S'took'
p1348
S'on'
p1349
tp1350
F0.0008680555555555555
s(S'[[prp]]'
p1351
S'wife'
p1352
S'had'
p1353
tp1354
F0.0008680555555555555
s(S'in'
p1355
S'[[adj]]'
p1356
S'daughter'
p1357
tp1358
F0.0008680555555555555
s(g300
g301
S'children'
p1359
tp1360
F0.0026041666666666665
s(g649
g650
S'children'
p1361
tp1362
F0.0008680555555555555
s(S'[[adj]]'
p1363
S'wife'
p1364
S'[[det]]'
p1365
tp1366
F0.0008680555555555555
s(S'sons'
p1367
S'[[con]]'
p1368
S'[[det]]'
p1369
tp1370
F0.0008680555555555555
s(S'[[mod]]'
p1371
S'refer'
p1372
S'also'
p1373
tp1374
F0.0008680555555555555
s(S'[[pro]]'
p1375
S'[[num]]'
p1376
S'sons'
p1377
tp1378
F0.001736111111111111
s(S'as'
p1379
S'wrote'
p1380
S'to'
p1381
tp1382
F0.0008680555555555555
s(S'[[pro]]'
p1383
S'said'
p1384
S'that'
p1385
tp1386
F0.0008680555555555555
s(S'only'
p1387
S'son'
p1388
S'of'
p1389
tp1390
F0.0008680555555555555
s(S'mother'
p1391
S'[[con]]'
p1392
S'children'
p1393
tp1394
F0.0008680555555555555
s(S'also'
p1395
S'said'
p1396
S'of'
p1397
tp1398
F0.0008680555555555555
s(S'[[det]]'
p1399
S'father'
p1400
S'of'
p1401
tp1402
F0.006944444444444444
s(S'[[adj]]'
p1403
S'son'
p1404
S'who'
p1405
tp1406
F0.0008680555555555555
s(S'[[prp]]'
p1407
S'wife'
p1408
S'[[num]]'
p1409
tp1410
F0.0008680555555555555
s(S'married'
p1411
S'de'
p1412
S'daughter'
p1413
tp1414
F0.0026041666666666665
s(S'married'
p1415
S'daughter'
p1416
S'who'
p1417
tp1418
F0.0008680555555555555
s(g34
g35
S'children'
p1419
tp1420
F0.0008680555555555555
s(S'[[det]]'
p1421
S'sister'
p1422
S'to'
p1423
tp1424
F0.0008680555555555555
s(S'married'
p1425
g714
g715
tp1426
F0.0008680555555555555
s(S'again'
p1427
S'to'
p1428
S'daughter'
p1429
tp1430
F0.0008680555555555555
s(S'[[prp]]'
p1431
S'sons'
p1432
S'[[con]]'
p1433
tp1434
F0.0008680555555555555
s(S'is'
p1435
S'married'
p1436
g586
tp1437
F0.012152777777777778
s(S'[[adj]]'
p1438
S'children'
p1439
S'[[det]]'
p1440
tp1441
F0.0008680555555555555
s(S'married'
p1442
S'daughter'
p1443
S'of'
p1444
tp1445
F0.003472222222222222
s(g109
S'father'
p1446
S'who'
p1447
tp1448
F0.0008680555555555555
s(S'[[con]]'
p1449
S'took'
p1450
S'[[con]]'
p1451
tp1452
F0.0008680555555555555
s(S'[[num]]'
p1453
S'daughters'
p1454
S'[[num]]'
p1455
tp1456
F0.0008680555555555555
s(g109
S'son'
p1457
S'de'
p1458
tp1459
F0.0008680555555555555
s(S'[[con]]'
p1460
S'father'
p1461
S'of'
p1462
tp1463
F0.001736111111111111
s(S'not'
p1464
S'included'
p1465
S'[[con]]'
p1466
tp1467
F0.0008680555555555555
s(S'was'
p1468
S'daughter'
p1469
S'of'
p1470
tp1471
F0.0008680555555555555
s(g109
S'daughter'
p1472
S'[[det]]'
p1473
tp1474
F0.0008680555555555555
s(S'[[con]]'
p1475
S'tells'
p1476
S'[[prp]]'
p1477
tp1478
F0.0008680555555555555
s(S'[[con]]'
p1479
S'daughter'
p1480
S'of'
p1481
tp1482
F0.003472222222222222
s(S'[[adj]]'
p1483
S'son'
p1484
S'[[adj]]'
p1485
tp1486
F0.0008680555555555555
s(S'married'
p1487
g781
g782
tp1488
F0.0008680555555555555
s(S'[[pro]]'
p1489
S'[[num]]'
p1490
S'children'
p1491
tp1492
F0.004340277777777778
s(g109
S'son'
p1493
S'[[adj]]'
p1494
tp1495
F0.0008680555555555555
s(g579
g580
S'daughter'
p1496
tp1497
F0.001736111111111111
s(S'[[adj]]'
p1498
S'wrote'
p1499
S'to'
p1500
tp1501
F0.0008680555555555555
s(S'succeeded'
p1502
g21
g22
tp1503
F0.0008680555555555555
s(S'married'
p1504
g1375
g1376
tp1505
F0.0078125
s(S'[[det]]'
p1506
S'daughter'
p1507
S'was'
p1508
tp1509
F0.0008680555555555555
s(g472
g473
S'daughter'
p1510
tp1511
F0.0008680555555555555
s(S'is'
p1512
S'succeeded'
p1513
S'by'
p1514
tp1515
F0.0008680555555555555
s(S'[[adj]]'
p1516
S'mother'
p1517
S'of'
p1518
tp1519
F0.0008680555555555555
s(S'[[num]]'
p1520
S'married'
p1521
S'in'
p1522
tp1523
F0.0008680555555555555
s(S'later'
p1524
S'wrote'
p1525
S'while'
p1526
tp1527
F0.0008680555555555555
s(S'[[adj]]'
p1528
S'child'
p1529
S'[[det]]'
p1530
tp1531
F0.0008680555555555555
s(S'[[num]]'
p1532
S'sons'
p1533
S'[[con]]'
p1534
tp1535
F0.008680555555555556
s(S'then'
p1536
S'married'
p1537
S'to'
p1538
tp1539
F0.0008680555555555555
s(S'married'
p1540
g412
g413
tp1541
F0.006944444444444444
s(S'[[con]]'
p1542
S'[[det]]'
p1543
S'younger'
p1544
tp1545
F0.001736111111111111
s(S'[[num]]'
p1546
S'sons'
p1547
S'of'
p1548
tp1549
F0.0008680555555555555
s(g405
g406
S'daughter'
p1550
tp1551
F0.0026041666666666665
s(S'[[con]]'
p1552
S'took'
p1553
S'[[pro]]'
p1554
tp1555
F0.0008680555555555555
s(S'with'
p1556
S'son'
p1557
S'of'
p1558
tp1559
F0.0008680555555555555
s(S'is'
p1560
S'survived'
p1561
S'by'
p1562
tp1563
F0.0026041666666666665
s(S'[[det]]'
p1564
S'relationship'
p1565
S'between'
p1566
tp1567
F0.0008680555555555555
s(S'daughter'
p1568
S'[[con]]'
p1569
S'[[det]]'
p1570
tp1571
F0.0008680555555555555
s(g109
S'daughters'
p1572
S'[[con]]'
p1573
tp1574
F0.0008680555555555555
s(g657
g658
S'son'
p1575
tp1576
F0.0008680555555555555
s(S'has'
p1577
S'said'
p1578
S'[[det]]'
p1579
tp1580
F0.0008680555555555555
s(S'was'
p1581
S'said'
p1582
S'that'
p1583
tp1584
F0.0008680555555555555
s(S'[[det]]'
p1585
g749
g750
tp1586
F0.0008680555555555555
s(S'to'
p1587
S'[[det]]'
p1588
S'son'
p1589
tp1590
F0.0026041666666666665
s(S'is'
p1591
S'son'
p1592
S'[[con]]'
p1593
tp1594
F0.0008680555555555555
s(S'also'
p1595
S'wrote'
p1596
S'about'
p1597
tp1598
F0.0008680555555555555
s(S'[[det]]'
p1599
S'father'
p1600
S'[[num]]'
p1601
tp1602
F0.0008680555555555555
s(S'[[adj]]'
p1603
S'daughter'
p1604
S'of'
p1605
tp1606
F0.0078125
s(S'by'
p1607
S'daughter'
p1608
S'of'
p1609
tp1610
F0.0008680555555555555
s(g109
S'father'
p1611
S'[[num]]'
p1612
tp1613
F0.0008680555555555555
s(g984
g1272
S'sons'
p1614
tp1615
F0.006944444444444444
s(S'who'
p1616
S'married'
p1617
S'[[det]]'
p1618
tp1619
F0.0008680555555555555
s(g109
S'wife'
p1620
S'with'
p1621
tp1622
F0.0008680555555555555
s(g109
S'son'
p1623
S'who'
p1624
tp1625
F0.0008680555555555555
s(S'succeeded'
p1626
S'by'
p1627
S'son'
p1628
tp1629
F0.0008680555555555555
s(S'was'
p1630
S'sister'
p1631
S'to'
p1632
tp1633
F0.0008680555555555555
s(g429
S'[[num]]'
p1634
S'daughter'
p1635
tp1636
F0.0026041666666666665
s(S'also'
p1637
S'wrote'
p1638
S'[[con]]'
p1639
tp1640
F0.0008680555555555555
s(S'later'
p1641
S'married'
p1642
S'[[con]]'
p1643
tp1644
F0.003472222222222222
s(S'married'
p1645
S'daughter'
p1646
S'[[con]]'
p1647
tp1648
F0.0008680555555555555
s(S'to'
p1649
S'know'
p1650
S'why'
p1651
tp1652
F0.0008680555555555555
s(S'de'
p1653
S'daughter'
p1654
S'of'
p1655
tp1656
F0.001736111111111111
s(S'[[adj]]'
p1657
S'married'
p1658
S'on'
p1659
tp1660
F0.0008680555555555555
s(S'[[con]]'
p1661
S'[[adj]]'
p1662
S'children'
p1663
tp1664
F0.0008680555555555555
s(S'daughter'
p1665
S'[[con]]'
p1666
S'son'
p1667
tp1668
F0.0008680555555555555
s(S'[[con]]'
p1669
S'took'
p1670
S'[[det]]'
p1671
tp1672
F0.0008680555555555555
s(S'then'
p1673
S'married'
p1674
S'daughter'
p1675
tp1676
F0.001736111111111111
s(g109
S'father'
p1677
S'to'
p1678
tp1679
F0.0008680555555555555
s(S'not'
p1680
S'know'
p1681
S'that'
p1682
tp1683
F0.0008680555555555555
s(S'[[adj]]'
p1684
S'mother'
p1685
S'to'
p1686
tp1687
F0.0008680555555555555
s(S'often'
p1688
S'said'
p1689
S'that'
p1690
tp1691
F0.0008680555555555555
s(S'[[pro]]'
p1692
S'[[num]]'
p1693
S'son'
p1694
tp1695
F0.0008680555555555555
s(S'[[con]]'
p1696
S'gave'
p1697
S'birth'
p1698
tp1699
F0.001736111111111111
s(S'[[det]]'
p1700
S'children'
p1701
S'[[det]]'
p1702
tp1703
F0.0008680555555555555
s(S'of'
p1704
S'actors'
p1705
S'[[con]]'
p1706
tp1707
F0.0008680555555555555
s(S'also'
p1708
S'wrote'
p1709
S'as'
p1710
tp1711
F0.0008680555555555555
s(S'[[prp]]'
p1712
S'mother'
p1713
S'[[con]]'
p1714
tp1715
F0.0008680555555555555
s(S'[[det]]'
p1716
S'sons'
p1717
S'[[con]]'
p1718
tp1719
F0.0008680555555555555
s(S'[[num]]'
p1720
S'son'
p1721
S'of'
p1722
tp1723
F0.0008680555555555555
s(S'married'
p1724
g240
g241
tp1725
F0.0008680555555555555
s(S'had'
p1726
S'married'
p1727
S'[[num]]'
p1728
tp1729
F0.001736111111111111
s(g109
S'death'
p1730
S'to'
p1731
tp1732
F0.0008680555555555555
s(S'[[con]]'
p1733
S'mother'
p1734
S'of'
p1735
tp1736
F0.001736111111111111
s(S'also'
p1737
S'tells'
p1738
S'[[pro]]'
p1739
tp1740
F0.0008680555555555555
s(S'had'
p1741
S'married'
p1742
S'at'
p1743
tp1744
F0.0008680555555555555
s(S'[[prp]]'
p1745
S'father'
p1746
S'[[num]]'
p1747
tp1748
F0.0008680555555555555
s(S'[[adj]]'
p1749
S'son'
p1750
S'[[pro]]'
p1751
tp1752
F0.0008680555555555555
s(S'to'
p1753
S'refer'
p1754
S'to'
p1755
tp1756
F0.0008680555555555555
s(S'also'
p1757
S'wrote'
p1758
S'[[num]]'
p1759
tp1760
F0.0008680555555555555
s(S'is'
p1761
S'said'
p1762
S'by'
p1763
tp1764
F0.0008680555555555555
s(S'also'
p1765
S'wrote'
p1766
S'that'
p1767
tp1768
F0.0008680555555555555
s(S'[[det]]'
p1769
S'sister'
p1770
S'who'
p1771
tp1772
F0.0008680555555555555
s(S'daughter'
p1773
S'[[con]]'
p1774
S'is'
p1775
tp1776
F0.0008680555555555555
s(S'married'
p1777
S'who'
p1778
S'[[det]]'
p1779
tp1780
F0.0008680555555555555
s(S'[[adj]]'
p1781
S'children'
p1782
S'by'
p1783
tp1784
F0.0008680555555555555
s(S'[[pro]]'
p1785
S'relationship'
p1786
S'with'
p1787
tp1788
F0.0008680555555555555
s(S'[[det]]'
p1789
S'daughter'
p1790
S'of'
p1791
tp1792
F0.013888888888888888
s(S'was'
p1793
S'son'
p1794
S'to'
p1795
tp1796
F0.0008680555555555555
s(g583
g584
S'daughter'
p1797
tp1798
F0.0008680555555555555
s(S'[[num]]'
p1799
S'sons'
p1800
S'[[det]]'
p1801
tp1802
F0.0008680555555555555
s(g1315
g1316
S'children'
p1803
tp1804
F0.0008680555555555555
s(S'was'
p1805
S'married'
p1806
S'with'
p1807
tp1808
F0.0008680555555555555
s(S'has'
p1809
S'said'
p1810
S'that'
p1811
tp1812
F0.0008680555555555555
s(S'was'
p1813
S'said'
p1814
S'by'
p1815
tp1816
F0.0008680555555555555
s(g109
S'wife'
p1817
S'[[adj]]'
p1818
tp1819
F0.0008680555555555555
s(S'[[pro]]'
p1820
S'know'
p1821
S'that'
p1822
tp1823
F0.0008680555555555555
s(S'[[det]]'
p1824
S'death'
p1825
S'of'
p1826
tp1827
F0.0008680555555555555
s(g1507
g1508
S'married'
p1828
tp1829
F0.0008680555555555555
s(S'[[con]]'
p1830
S'son'
p1831
S'of'
p1832
tp1833
F0.001736111111111111
s(S'[[det]]'
p1834
S'mother'
p1835
S'[[con]]'
p1836
tp1837
F0.0008680555555555555
s(S'[[con]]'
p1838
S'said'
p1839
S'of'
p1840
tp1841
F0.0008680555555555555
s(S'[[prp]]'
p1842
S'daughter'
p1843
S'[[adj]]'
p1844
tp1845
F0.0008680555555555555
s(S'[[adj]]'
p1846
S'daughter'
p1847
S'[[det]]'
p1848
tp1849
F0.0008680555555555555
s(S'who'
p1850
S'married'
p1851
S'first'
p1852
tp1853
F0.0008680555555555555
s(S'then'
p1854
S'wrote'
p1855
S'to'
p1856
tp1857
F0.0008680555555555555
s(S'father'
p1858
g702
g703
tp1859
F0.001736111111111111
s(S'married'
p1860
S'[[num]]'
p1861
S'children'
p1862
tp1863
F0.0026041666666666665
s(S'[[det]]'
p1864
S'father'
p1865
S'in'
p1866
tp1867
F0.0008680555555555555
s(S'[[adj]]'
p1868
S'son'
p1869
S'[[num]]'
p1870
tp1871
F0.0008680555555555555
s(S'then'
p1872
S'said'
p1873
S'that'
p1874
tp1875
F0.0008680555555555555
s(S'was'
p1876
S'included'
p1877
S'as'
p1878
tp1879
F0.0008680555555555555
s(S'[[num]]'
p1880
S'daughter'
p1881
S'[[con]]'
p1882
tp1883
F0.001736111111111111
s(S'was'
p1884
S'married'
p1885
S'first'
p1886
tp1887
F0.0008680555555555555
s(S'later'
p1888
S'said'
p1889
S'that'
p1890
tp1891
F0.0008680555555555555
s(g175
g176
S'[[con]]'
p1892
tp1893
F0.004340277777777778
s(S'[[det]]'
p1894
S'daughter'
p1895
S'married'
p1896
tp1897
F0.0008680555555555555
s(S'already'
p1898
S'married'
p1899
S'to'
p1900
tp1901
F0.0008680555555555555
s(g723
g724
S'children'
p1902
tp1903
F0.0008680555555555555
s(S'married'
p1904
g1082
g1083
tp1905
F0.003472222222222222
s(S'more'
p1906
S'children'
p1907
S'[[det]]'
p1908
tp1909
F0.0008680555555555555
s(S'has'
p1910
S'said'
p1911
S'about'
p1912
tp1913
F0.0008680555555555555
s(S'[[adj]]'
p1914
S'child'
p1915
S'of'
p1916
tp1917
F0.0008680555555555555
s(S'was'
p1918
S'included'
p1919
S'by'
p1920
tp1921
F0.0008680555555555555
s(S'married'
p1922
S'secondly'
p1923
g1653
tp1924
F0.0008680555555555555
s(S'[[det]]'
p1925
S'son'
p1926
S'daughter'
p1927
tp1928
F0.0008680555555555555
s(S'[[con]]'
p1929
S'wrote'
p1930
S'for'
p1931
tp1932
F0.0008680555555555555
s(S'[[prp]]'
p1933
S'son'
p1934
S'was'
p1935
tp1936
F0.0008680555555555555
s(S'to'
p1937
S'refer'
p1938
S'as'
p1939
tp1940
F0.0008680555555555555
s(S'had'
p1941
S'married'
p1942
S'to'
p1943
tp1944
F0.0008680555555555555
s(S'[[con]]'
p1945
S'took'
p1946
S'over'
p1947
tp1948
F0.0008680555555555555
s(g109
S'son'
p1949
S'with'
p1950
tp1951
F0.0008680555555555555
s(S'[[con]]'
p1952
S'wrote'
p1953
S'to'
p1954
tp1955
F0.0008680555555555555
s(S'is'
p1956
S'father'
p1957
S'to'
p1958
tp1959
F0.0008680555555555555
s(S'is'
p1960
g248
g249
tp1961
F0.009548611111111112
s(S'twice'
p1962
S'[[det]]'
p1963
S'son'
p1964
tp1965
F0.0008680555555555555
s(S'to'
p1966
S'daughter'
p1967
S'of'
p1968
tp1969
F0.005208333333333333
s(g109
S'daughter'
p1970
S'in'
p1971
tp1972
F0.0008680555555555555
s(S'is'
p1973
S'said'
p1974
S'to'
p1975
tp1976
F0.0008680555555555555
s(S'[[con]]'
p1977
S'said'
p1978
S'to'
p1979
tp1980
F0.0008680555555555555
s(S'[[det]]'
p1981
S'wife'
p1982
S'[[con]]'
p1983
tp1984
F0.0008680555555555555
s(S'was'
p1985
S'son'
p1986
S'of'
p1987
tp1988
F0.0008680555555555555
s(S'married'
p1989
S'[[prp]]'
p1990
S'son'
p1991
tp1992
F0.0008680555555555555
s(g901
g902
S'daughter'
p1993
tp1994
F0.0008680555555555555
s(S'to'
p1995
S'son'
p1996
S'of'
p1997
tp1998
F0.001736111111111111
s(g1338
g1339
S'sons'
p1999
tp2000
F0.0008680555555555555
s(S'married'
p2001
g1355
g1356
tp2002
F0.0008680555555555555
s(S'is'
p2003
S'mother'
p2004
S'of'
p2005
tp2006
F0.0008680555555555555
s(g363
g364
S'father'
p2007
tp2008
F0.001736111111111111
s(S'[[adj]]'
p2009
S'married'
p2010
S'to'
p2011
tp2012
F0.001736111111111111
s(S'[[adj]]'
p2013
S'engineer'
p2014
S'in'
p2015
tp2016
F0.0008680555555555555
s(S'was'
p2017
S'included'
p2018
S'to'
p2019
tp2020
F0.0008680555555555555
s(S'to'
p2021
S'know'
p2022
S'[[con]]'
p2023
tp2024
F0.0008680555555555555
s(g874
g875
S'of'
p2025
tp2026
F0.001736111111111111
s(S'later'
p2027
S'married'
p2028
S'[[det]]'
p2029
tp2030
F0.0008680555555555555
s(S'twice'
p2031
S'[[num]]'
p2032
S'children'
p2033
tp2034
F0.0008680555555555555
s(S'was'
p2035
S'married'
p2036
g2031
tp2037
F0.0026041666666666665
s(S'is'
p2038
S'father'
p2039
S'[[con]]'
p2040
tp2041
F0.0008680555555555555
s(S'married'
p2042
S'[[con]]'
p2043
S'daughter'
p2044
tp2045
F0.0008680555555555555
s(S'then'
p2046
S'took'
p2047
S'over'
p2048
tp2049
F0.0008680555555555555
s(S'[[num]]'
p2050
S'children'
p2051
S'[[con]]'
p2052
tp2053
F0.016493055555555556
s(S'[[det]]'
p2054
S'daughter'
p2055
S'[[con]]'
p2056
tp2057
F0.003472222222222222
s(S'[[det]]'
p2058
S'relationship'
p2059
S'with'
p2060
tp2061
F0.0008680555555555555
s(g2036
g2031
g2032
tp2062
F0.0008680555555555555
s(g1436
g586
g587
tp2063
F0.001736111111111111
s(g109
S'son'
p2064
S'[[num]]'
p2065
tp2066
F0.0008680555555555555
s(S'[[num]]'
p2067
S'children'
p2068
S'to'
p2069
tp2070
F0.0008680555555555555
s(S'[[adj]]'
p2071
S'daughters'
p2072
S'[[con]]'
p2073
tp2074
F0.0008680555555555555
s(S'had'
p2075
S'said'
p2076
S'about'
p2077
tp2078
F0.0008680555555555555
s(g642
g643
S'children'
p2079
tp2080
F0.001736111111111111
s(g109
S'father'
p2081
S'of'
p2082
tp2083
F0.0008680555555555555
s(S'also'
p2084
S'married'
p2085
S'[[det]]'
p2086
tp2087
F0.0008680555555555555
s(S'succeeded'
p2088
g1222
g1223
tp2089
F0.0008680555555555555
s(S'once'
p2090
S'said'
p2091
S'had'
p2092
tp2093
F0.0008680555555555555
s(S'[[num]]'
p2094
S'children'
p2095
S'[[adj]]'
p2096
tp2097
F0.0008680555555555555
s(g109
S'wife'
p2098
S'as'
p2099
tp2100
F0.0008680555555555555
s(S'[[det]]'
p2101
S'son'
p2102
S'by'
p2103
tp2104
F0.0008680555555555555
s(S'had'
p2105
g1442
g1443
tp2106
F0.001736111111111111
s(S'is'
p2107
S'married'
p2108
S'with'
p2109
tp2110
F0.003472222222222222
s(g1697
g1698
S'to'
p2111
tp2112
F0.0026041666666666665
s(S'also'
p2113
S'wrote'
p2114
S'[[det]]'
p2115
tp2116
F0.0008680555555555555
s(S'married'
p2117
g1427
g1428
tp2118
F0.0008680555555555555
s(S'[[pro]]'
p2119
S'[[num]]'
p2120
S'daughter'
p2121
tp2122
F0.0008680555555555555
s(S'[[det]]'
p2123
S'son'
p2124
S'[[adj]]'
p2125
tp2126
F0.001736111111111111
s(S'[[num]]'
p2127
S'children'
p2128
S'by'
p2129
tp2130
F0.0008680555555555555
s(S'[[prp]]'
p2131
S'father'
p2132
S'[[con]]'
p2133
tp2134
F0.0008680555555555555
s(g152
g153
S'daughter'
p2135
tp2136
F0.001736111111111111
s(g109
S'death'
p2137
S'as'
p2138
tp2139
F0.0008680555555555555
s(S'[[adj]]'
p2140
S'child'
p2141
S'with'
p2142
tp2143
F0.0008680555555555555
s(S'married'
p2144
S'to'
p2145
S'daughter'
p2146
tp2147
F0.004340277777777778
s(g746
g747
S'children'
p2148
tp2149
F0.0008680555555555555
s(g1543
g1544
S'brother'
p2150
tp2151
F0.006944444444444444
s(S'once'
p2152
S'said'
p2153
S'of'
p2154
tp2155
F0.0008680555555555555
s(S'married'
p2156
g1150
g1151
tp2157
F0.001736111111111111
s(S'[[det]]'
p2158
S'sister'
p2159
S'[[num]]'
p2160
tp2161
F0.0008680555555555555
s(S'[[prp]]'
p2162
S'son'
p2163
S'with'
p2164
tp2165
F0.0008680555555555555
s(g109
S'youngest'
p2166
S'son'
p2167
tp2168
F0.0008680555555555555
s(S'also'
p2169
S'married'
p2170
S'to'
p2171
tp2172
F0.0008680555555555555
s(S'to'
p2173
S'know'
p2174
S'[[det]]'
p2175
tp2176
F0.0008680555555555555
s(S'[[adj]]'
p2177
S'relationship'
p2178
S'between'
p2179
tp2180
F0.0008680555555555555
s(S'married'
p2181
g1962
g1963
tp2182
F0.0008680555555555555
s(S'once'
p2183
S'said'
p2184
S'that'
p2185
tp2186
F0.0008680555555555555
s(S'[[num]]'
p2187
g376
g377
tp2188
F0.0026041666666666665
s(S'is'
p2189
S'daughter'
p2190
S'of'
p2191
tp2192
F0.0008680555555555555
s(S'later'
p2193
S'wrote'
p2194
S'of'
p2195
tp2196
F0.0008680555555555555
s(S'was'
p2197
S'son'
p2198
S'daughter'
p2199
tp2200
F0.0008680555555555555
s(S'married'
p2201
g322
g420
tp2202
F0.0008680555555555555
s(g109
S'mother'
p2203
S'[[det]]'
p2204
tp2205
F0.0008680555555555555
s(S'[[prp]]'
p2206
S'son'
p2207
S'[[det]]'
p2208
tp2209
F0.001736111111111111
s(g109
S'son'
p2210
S'of'
p2211
tp2212
F0.0008680555555555555
s(S'whose'
p2213
S'mother'
p2214
S'was'
p2215
tp2216
F0.0008680555555555555
s(S'son'
p2217
S'[[con]]'
p2218
S'son'
p2219
tp2220
F0.0008680555555555555
s(S'[[num]]'
p2221
S'daughter'
p2222
S'of'
p2223
tp2224
F0.006076388888888889
s(S'[[det]]'
p2225
S'father'
p2226
S'was'
p2227
tp2228
F0.0008680555555555555
s(S'which'
p2229
S'included'
p2230
S'[[adj]]'
p2231
tp2232
F0.0008680555555555555
s(S'[[adj]]'
p2233
g1162
g1163
tp2234
F0.0008680555555555555
s(S'to'
p2235
S'know'
p2236
S'[[adj]]'
p2237
tp2238
F0.0008680555555555555
s(S'married'
p2239
S'[[det]]'
p2240
S'mother'
p2241
tp2242
F0.001736111111111111
s(S'[[con]]'
p2243
S'said'
p2244
S'[[pro]]'
p2245
tp2246
F0.0008680555555555555
s(S'[[adj]]'
p2247
g821
g822
tp2248
F0.0008680555555555555
s(S'is'
p2249
S'married'
p2250
S'[[pro]]'
p2251
tp2252
F0.001736111111111111
s(S'was'
p2253
S'married'
p2254
S'[[det]]'
p2255
tp2256
F0.0026041666666666665
s(g109
S'mother'
p2257
S'[[con]]'
p2258
tp2259
F0.001736111111111111
s(S'[[det]]'
p2260
S'daughter'
p2261
S'with'
p2262
tp2263
F0.0008680555555555555
s(g109
S'death'
p2264
S'[[num]]'
p2265
tp2266
F0.0008680555555555555
s(S'had'
p2267
S'said'
p2268
S'[[pro]]'
p2269
tp2270
F0.0008680555555555555
s(S'was'
p2271
g765
g766
tp2272
F0.006076388888888889
s(S'[[num]]'
p2273
S'children'
p2274
S'together'
p2275
tp2276
F0.003472222222222222
s(S'who'
p2277
S'said'
p2278
S'that'
p2279
tp2280
F0.0008680555555555555
s(S'[[det]]'
p2281
S'daughter'
p2282
S'who'
p2283
tp2284
F0.0026041666666666665
s(S'[[mod]]'
p2285
S'refer'
p2286
S'[[num]]'
p2287
tp2288
F0.0008680555555555555
s(S'married'
p2289
S'to'
p2290
S'son'
p2291
tp2292
F0.0026041666666666665
s(S'was'
p2293
S'father'
p2294
S'of'
p2295
tp2296
F0.0008680555555555555
s(g639
g793
S'father'
p2297
tp2298
F0.0008680555555555555
s(S'[[adj]]'
p2299
S'mother'
p2300
S'[[con]]'
p2301
tp2302
F0.0008680555555555555
s(S'[[prp]]'
p2303
S'son'
p2304
S'[[num]]'
p2305
tp2306
F0.0008680555555555555
s(S'[[adj]]'
p2307
S'sons'
p2308
S'of'
p2309
tp2310
F0.0008680555555555555
s(S'[[prp]]'
p2311
S'wife'
p2312
S'[[con]]'
p2313
tp2314
F0.0008680555555555555
s(S'[[con]]'
p2315
S'[[det]]'
p2316
S'mother'
p2317
tp2318
F0.0026041666666666665
s(g109
S'mother'
p2319
S'who'
p2320
tp2321
F0.0008680555555555555
s(g176
g1892
S'son'
p2322
tp2323
F0.001736111111111111
s(g1569
g1570
S'son'
p2324
tp2325
F0.004340277777777778
s(g109
S'father'
p2326
S'was'
p2327
tp2328
F0.0008680555555555555
s(S'[[det]]'
p2329
S'sister'
p2330
S'of'
p2331
tp2332
F0.0008680555555555555
s(g1923
g1653
g1654
tp2333
F0.0008680555555555555
s(S'with'
p2334
S'[[num]]'
p2335
S'daughter'
p2336
tp2337
F0.0008680555555555555
s(S'[[det]]'
p2338
S'son'
p2339
S'[[pro]]'
p2340
tp2341
F0.0008680555555555555
s(S'[[adj]]'
p2342
S'son'
p2343
S'to'
p2344
tp2345
F0.0008680555555555555
s(g109
S'death'
p2346
S'which'
p2347
tp2348
F0.0008680555555555555
s(g766
g767
g1003
tp2349
F0.005208333333333333
s(S'survived'
p2350
g1064
g1065
tp2351
F0.003472222222222222
s(g377
g378
S'set'
p2352
tp2353
F0.0008680555555555555
s(S'married'
p2354
S'[[det]]'
p2355
S'son'
p2356
tp2357
F0.001736111111111111
s(S'also'
p2358
S'wrote'
p2359
S'by'
p2360
tp2361
F0.0008680555555555555
s(g109
S'sister'
p2362
S'[[con]]'
p2363
tp2364
F0.0008680555555555555
s(S'[[adj]]'
p2365
S'son'
p2366
S'was'
p2367
tp2368
F0.001736111111111111
s(g109
S'daughter'
p2369
S'to'
p2370
tp2371
F0.0008680555555555555
s(S'was'
p2372
S'said'
p2373
S'to'
p2374
tp2375
F0.0008680555555555555
s(S'[[det]]'
p2376
S'daughter'
p2377
S'[[det]]'
p2378
tp2379
F0.0026041666666666665
s(S'father'
p2380
S'of'
p2381
S'actors'
p2382
tp2383
F0.001736111111111111
s(S'had'
p2384
S'married'
p2385
S'[[prp]]'
p2386
tp2387
F0.0008680555555555555
s(S'[[adj]]'
p2388
S'children'
p2389
S'of'
p2390
tp2391
F0.0008680555555555555
s(S'[[num]]'
p2392
S'son'
p2393
S'[[con]]'
p2394
tp2395
F0.001736111111111111
s(g109
S'wife'
p2396
S'of'
p2397
tp2398
F0.0008680555555555555
s(g882
g883
S'married'
p2399
tp2400
F0.001736111111111111
s(S'[[adj]]'
p2401
S'son'
p2402
S'by'
p2403
tp2404
F0.0008680555555555555
s(S'[[prp]]'
p2405
S'youngest'
p2406
S'son'
p2407
tp2408
F0.0008680555555555555
s(S'to'
p2409
S'know'
p2410
S'how'
p2411
tp2412
F0.0008680555555555555
s(S'was'
p2413
S'mother'
p2414
S'of'
p2415
tp2416
F0.0008680555555555555
s(g591
g592
S'daughter'
p2417
tp2418
F0.006944444444444444
s(S'[[con]]'
p2419
S'married'
p2420
S'[[det]]'
p2421
tp2422
F0.0008680555555555555
s(S'married'
p2423
g1607
g1608
tp2424
F0.0008680555555555555
s(S'also'
p2425
S'included'
p2426
S'[[con]]'
p2427
tp2428
F0.0008680555555555555
s(S'[[prp]]'
p2429
S'daughter'
p2430
S'to'
p2431
tp2432
F0.001736111111111111
s(S'[[adj]]'
p2433
S'relationship'
p2434
S'[[con]]'
p2435
tp2436
F0.0008680555555555555
s(S'been'
p2437
S'married'
p2438
g1489
tp2439
F0.0008680555555555555
s(S'in'
p2440
S'[[num]]'
p2441
S'children'
p2442
tp2443
F0.0008680555555555555
s(g109
S'wife'
p2444
S'[[det]]'
p2445
tp2446
F0.0008680555555555555
s.