(dp0
(S'also'
p1
S'appointed'
p2
S'in'
p3
tp4
F0.002881844380403458
s(S'be'
p5
S'appointed'
p6
S'[[det]]'
p7
tp8
F0.002881844380403458
s(S'[[det]]'
p9
S'member'
p10
S'at'
p11
tp12
F0.002881844380403458
s(S'when'
p13
S'served'
p14
S'with'
p15
tp16
F0.002881844380403458
s(S'[[con]]'
p17
S'served'
p18
S'with'
p19
tp20
F0.002881844380403458
s(S'[[mod]]'
p21
S'return'
p22
S'[[con]]'
p23
tp24
F0.002881844380403458
s(S'was'
p25
S'joined'
p26
S'in'
p27
tp28
F0.002881844380403458
s(S'later'
p29
S'worked'
p30
S'to'
p31
tp32
F0.002881844380403458
s(S'who'
p33
S'served'
p34
S'as'
p35
tp36
F0.002881844380403458
s(S'[[det]]'
p37
S'return'
p38
S'[[con]]'
p39
tp40
F0.002881844380403458
s(S'has'
p41
S'worked'
p42
S'for'
p43
tp44
F0.002881844380403458
s(S'[[adj]]'
p45
S'member'
p46
S'[[det]]'
p47
tp48
F0.002881844380403458
s(S'who'
p49
S'served'
p50
S'with'
p51
tp52
F0.002881844380403458
s(S'[[prp]]'
p53
S'return'
p54
S'from'
p55
tp56
F0.002881844380403458
s(S'[[det]]'
p57
S'member'
p58
S'when'
p59
tp60
F0.002881844380403458
s(S'was'
p61
S'awarded'
p62
S'to'
p63
tp64
F0.002881844380403458
s(S'then'
p65
S'worked'
p66
S'before'
p67
tp68
F0.002881844380403458
s(S'[[det]]'
p69
S'member'
p70
S'until'
p71
tp72
F0.002881844380403458
s(S'[[con]]'
p73
S'worked'
p74
S'at'
p75
tp76
F0.002881844380403458
s(S'also'
p77
S'worked'
p78
S'[[adj]]'
p79
tp80
F0.002881844380403458
s(S'were'
p81
S'awarded'
p82
S'from'
p83
tp84
F0.002881844380403458
s(S'has'
p85
S'served'
p86
S'[[con]]'
p87
tp88
F0.002881844380403458
s(S'[[pro]]'
p89
S'worked'
p90
S'with'
p91
tp92
F0.002881844380403458
s(S'[[con]]'
p93
S'served'
p94
S'at'
p95
tp96
F0.002881844380403458
s(S'was'
p97
S'member'
p98
S'for'
p99
tp100
F0.002881844380403458
s(S'formerly'
p101
S'worked'
p102
S'for'
p103
tp104
F0.002881844380403458
s(S'is'
p105
S'member'
p106
S'[[con]]'
p107
tp108
F0.002881844380403458
s(S'then'
p109
S'joined'
p110
S'to'
p111
tp112
F0.002881844380403458
s(S'later'
p113
S'worked'
p114
S'as'
p115
tp116
F0.002881844380403458
s(S'[[adj]]'
p117
S'worked'
p118
S'at'
p119
tp120
F0.002881844380403458
s(S'well'
p121
S'known'
p122
S'outside'
p123
tp124
F0.002881844380403458
s(S'then'
p125
S'joined'
p126
S'[[adj]]'
p127
tp128
F0.002881844380403458
s(S'was'
p129
S'appointed'
p130
S'from'
p131
tp132
F0.002881844380403458
s(S'was'
p133
S'awarded'
p134
S'at'
p135
tp136
F0.002881844380403458
s(S'be'
p137
S'awarded'
p138
S'by'
p139
tp140
F0.002881844380403458
s(S'[[adj]]'
p141
S'served'
p142
S'on'
p143
tp144
F0.002881844380403458
s(S'[[num]]'
p145
S'served'
p146
S'as'
p147
tp148
F0.002881844380403458
s(S'also'
p149
S'served'
p150
S'with'
p151
tp152
F0.002881844380403458
s(S'was'
p153
S'honored'
p154
S'[[con]]'
p155
tp156
F0.002881844380403458
s(S'did'
p157
S'not'
p158
S'return'
p159
tp160
F0.002881844380403458
s(S'[[pro]]'
p161
S'joined'
p162
S'[[det]]'
p163
tp164
F0.002881844380403458
s(S'mostly'
p165
S'known'
p166
S'in'
p167
tp168
F0.002881844380403458
s(S'later'
p169
S'appointed'
p170
S'to'
p171
tp172
F0.002881844380403458
s(S'then'
p173
S'joined'
p174
S'side'
p175
tp176
F0.002881844380403458
s(S'when'
p177
S'joined'
p178
S'[[det]]'
p179
tp180
F0.002881844380403458
s(S'then'
p181
S'served'
p182
S'before'
p183
tp184
F0.002881844380403458
s(S'has'
p185
S'served'
p186
S'[[adj]]'
p187
tp188
F0.002881844380403458
s(S'is'
p189
S'appointed'
p190
S'in'
p191
tp192
F0.002881844380403458
s(S'was'
p193
S'honored'
p194
S'by'
p195
tp196
F0.002881844380403458
s(S'again'
p197
S'served'
p198
S'with'
p199
tp200
F0.002881844380403458
s(S'[[adj]]'
p201
S'awarded'
p202
S'by'
p203
tp204
F0.002881844380403458
s(S'had'
p205
S'worked'
p206
S'as'
p207
tp208
F0.002881844380403458
s(S'while'
p209
S'joined'
p210
S'[[det]]'
p211
tp212
F0.002881844380403458
s(S'turned'
p213
S'[[prp]]'
p214
S'attention'
p215
tp216
F0.008645533141210375
s(S'also'
p217
S'served'
p218
S'[[det]]'
p219
tp220
F0.002881844380403458
s(S'been'
p221
S'honored'
p222
S'[[det]]'
p223
tp224
F0.002881844380403458
s(S'was'
p225
S'awarded'
p226
S'[[prp]]'
p227
tp228
F0.002881844380403458
s(S'had'
p229
S'worked'
p230
S'out'
p231
tp232
F0.002881844380403458
s(S'also'
p233
S'served'
p234
S'as'
p235
tp236
F0.002881844380403458
s(S'[[con]]'
p237
S'joined'
p238
S'of'
p239
tp240
F0.002881844380403458
s(S'became'
p241
S'known'
p242
S'in'
p243
tp244
F0.002881844380403458
s(S'[[con]]'
p245
S'worked'
p246
S'as'
p247
tp248
F0.002881844380403458
s(S'[[adj]]'
p249
S'member'
p250
S'as'
p251
tp252
F0.002881844380403458
s(S'[[adj]]'
p253
S'member'
p254
S'from'
p255
tp256
F0.002881844380403458
s(S'[[mod]]'
p257
S'return'
p258
S'to'
p259
tp260
F0.002881844380403458
s(S'had'
p261
S'joined'
p262
S'[[det]]'
p263
tp264
F0.002881844380403458
s(S'was'
p265
S'known'
p266
S'in'
p267
tp268
F0.002881844380403458
s(S'then'
p269
S'served'
p270
S'to'
p271
tp272
F0.002881844380403458
s(S'first'
p273
S'served'
p274
S'in'
p275
tp276
F0.002881844380403458
s(S'been'
p277
S'honored'
p278
S'with'
p279
tp280
F0.002881844380403458
s(S'then'
p281
S'served'
p282
S'on'
p283
tp284
F0.002881844380403458
s(S'soon'
p285
S'joined'
p286
S'[[det]]'
p287
tp288
F0.002881844380403458
s(S'later'
p289
S'joined'
p290
S'[[con]]'
p291
tp292
F0.002881844380403458
s(S'also'
p293
S'worked'
p294
S'as'
p295
tp296
F0.002881844380403458
s(S'to'
p297
S'return'
p298
S'in'
p299
tp300
F0.002881844380403458
s(S'then'
p301
S'joined'
p302
S'[[num]]'
p303
tp304
F0.002881844380403458
s(S'was'
p305
S'known'
p306
S'[[adj]]'
p307
tp308
F0.002881844380403458
s(S'[[pro]]'
p309
S'served'
p310
S'in'
p311
tp312
F0.002881844380403458
s(S'being'
p313
S'awarded'
p314
S'[[det]]'
p315
tp316
F0.002881844380403458
s(S'to'
p317
S'return'
p318
S'from'
p319
tp320
F0.002881844380403458
s(S'be'
p321
S'awarded'
p322
S'[[det]]'
p323
tp324
F0.002881844380403458
s(S'to'
p325
S'return'
p326
S'to'
p327
tp328
F0.002881844380403458
s(S'[[adj]]'
p329
S'member'
p330
S'during'
p331
tp332
F0.002881844380403458
s(S'formerly'
p333
S'served'
p334
S'to'
p335
tp336
F0.002881844380403458
s(S'was'
p337
S'awarded'
p338
S'from'
p339
tp340
F0.002881844380403458
s(S'had'
p341
S'worked'
p342
S'at'
p343
tp344
F0.002881844380403458
s(S'[[det]]'
p345
S'member'
p346
S'from'
p347
tp348
F0.002881844380403458
s(S'[[det]]'
p349
S'member'
p350
S'which'
p351
tp352
F0.002881844380403458
s(S'[[con]]'
p353
S'joined'
p354
S'from'
p355
tp356
F0.002881844380403458
s(S'also'
p357
S'honored'
p358
S'in'
p359
tp360
F0.002881844380403458
s(S'was'
p361
S'served'
p362
S'as'
p363
tp364
F0.002881844380403458
s(S'were'
p365
S'awarded'
p366
S'[[det]]'
p367
tp368
F0.002881844380403458
s(S'also'
p369
S'honored'
p370
S'with'
p371
tp372
F0.002881844380403458
s(S'been'
p373
S'awarded'
p374
S'[[adj]]'
p375
tp376
F0.002881844380403458
s(S'who'
p377
S'served'
p378
S'in'
p379
tp380
F0.002881844380403458
s(S'was'
p381
S'honored'
p382
S'to'
p383
tp384
F0.002881844380403458
s(S'also'
p385
S'member'
p386
S'[[con]]'
p387
tp388
F0.002881844380403458
s(S'did'
p389
S'return'
p390
S'to'
p391
tp392
F0.002881844380403458
s(S'is'
p393
S'appointed'
p394
S'of'
p395
tp396
F0.002881844380403458
s(S'better'
p397
S'known'
p398
S'in'
p399
tp400
F0.002881844380403458
s(S's'
p401
S'worked'
p402
S'with'
p403
tp404
F0.002881844380403458
s(S'have'
p405
S'served'
p406
S'in'
p407
tp408
F0.002881844380403458
s(S'who'
p409
S'joined'
p410
S'[[det]]'
p411
tp412
F0.002881844380403458
s(S'has'
p413
S'served'
p414
S'as'
p415
tp416
F0.002881844380403458
s(S'also'
p417
S'served'
p418
S'at'
p419
tp420
F0.002881844380403458
s(S'[[det]]'
p421
S'member'
p422
S'[[det]]'
p423
tp424
F0.002881844380403458
s(S'later'
p425
S'served'
p426
S'with'
p427
tp428
F0.002881844380403458
s(S'instead'
p429
S'joined'
p430
S'[[det]]'
p431
tp432
F0.002881844380403458
s(S'also'
p433
S'served'
p434
S'in'
p435
tp436
F0.002881844380403458
s(g401
S'known'
p437
S'in'
p438
tp439
F0.002881844380403458
s(S'formerly'
p440
S'served'
p441
S'at'
p442
tp443
F0.002881844380403458
s(g214
g215
S'in'
p444
tp445
F0.002881844380403458
s(S'had'
p446
S'served'
p447
S'at'
p448
tp449
F0.002881844380403458
s(S'also'
p450
S'awarded'
p451
S'from'
p452
tp453
F0.002881844380403458
s(S'[[det]]'
p454
S'member'
p455
S'on'
p456
tp457
F0.002881844380403458
s(S'then'
p458
S'served'
p459
S'for'
p460
tp461
F0.002881844380403458
s(S'[[con]]'
p462
S'joined'
p463
S'[[det]]'
p464
tp465
F0.002881844380403458
s(S'has'
p466
S'worked'
p467
S'at'
p468
tp469
F0.002881844380403458
s(S'later'
p470
S'served'
p471
S'on'
p472
tp473
F0.002881844380403458
s(S'was'
p474
S'awarded'
p475
S'[[con]]'
p476
tp477
F0.002881844380403458
s(S'have'
p478
S'joined'
p479
S'[[det]]'
p480
tp481
F0.002881844380403458
s(S'[[adj]]'
p482
S'member'
p483
S'on'
p484
tp485
F0.002881844380403458
s(S'had'
p486
S'joined'
p487
S'side'
p488
tp489
F0.002881844380403458
s(S'[[det]]'
p490
S'member'
p491
S'as'
p492
tp493
F0.002881844380403458
s(S'where'
p494
S'joined'
p495
S'[[det]]'
p496
tp497
F0.002881844380403458
s(S'[[prp]]'
p498
S'attention'
p499
S'to'
p500
tp501
F0.002881844380403458
s(S'who'
p502
S'served'
p503
S'[[con]]'
p504
tp505
F0.002881844380403458
s(S'later'
p506
S'served'
p507
S'as'
p508
tp509
F0.002881844380403458
s(S'was'
p510
S'member'
p511
S'at'
p512
tp513
F0.002881844380403458
s(S'[[adj]]'
p514
S'member'
p515
S'of'
p516
tp517
F0.002881844380403458
s(S'is'
p518
S'honored'
p519
S'by'
p520
tp521
F0.002881844380403458
s(g401
S'return'
p522
S'to'
p523
tp524
F0.002881844380403458
s(S'twice'
p525
S'served'
p526
S'as'
p527
tp528
F0.002881844380403458
s(S'was'
p529
S'joined'
p530
S'on'
p531
tp532
F0.002881844380403458
s(S'been'
p533
S'honored'
p534
S'by'
p535
tp536
F0.002881844380403458
s(S'later'
p537
S'joined'
p538
S'at'
p539
tp540
F0.002881844380403458
s(S'also'
p541
S'known'
p542
S'in'
p543
tp544
F0.002881844380403458
s(S'where'
p545
S'served'
p546
S'with'
p547
tp548
F0.002881844380403458
s(S'also'
p549
S'joined'
p550
S'[[det]]'
p551
tp552
F0.002881844380403458
s(S'also'
p553
S'honored'
p554
S'as'
p555
tp556
F0.002881844380403458
s(S'has'
p557
S'served'
p558
S'in'
p559
tp560
F0.002881844380403458
s(S'[[adj]]'
p561
S'served'
p562
S'as'
p563
tp564
F0.002881844380403458
s(S'became'
p565
S'member'
p566
S'[[det]]'
p567
tp568
F0.002881844380403458
s(S'then'
p569
S'served'
p570
S'with'
p571
tp572
F0.002881844380403458
s(S'also'
p573
S'awarded'
p574
S'[[det]]'
p575
tp576
F0.002881844380403458
s(S'was'
p577
S'awarded'
p578
S'of'
p579
tp580
F0.002881844380403458
s(S'later'
p581
S'worked'
p582
S'on'
p583
tp584
F0.002881844380403458
s(S'been'
p585
S'awarded'
p586
S'[[con]]'
p587
tp588
F0.002881844380403458
s(S'was'
p589
S'member'
p590
S'of'
p591
tp592
F0.002881844380403458
s(S'[[det]]'
p593
S'member'
p594
g401
tp595
F0.002881844380403458
s(S'also'
p596
S'awarded'
p597
S'at'
p598
tp599
F0.002881844380403458
s(S'then'
p600
S'worked'
p601
S'as'
p602
tp603
F0.002881844380403458
s(S'has'
p604
S'served'
p605
S'before'
p606
tp607
F0.002881844380403458
s(S'is'
p608
S'member'
p609
S'of'
p610
tp611
F0.002881844380403458
s(S'awarded'
p612
S'[[det]]'
p613
S'award'
p614
tp615
F0.002881844380403458
s(S'then'
p616
S'joined'
p617
S'then'
p618
tp619
F0.002881844380403458
s(S'that'
p620
S'worked'
p621
S'for'
p622
tp623
F0.002881844380403458
s(S'who'
p624
S'joined'
p625
S'from'
p626
tp627
F0.002881844380403458
s(S'well'
p628
S'known'
p629
S'in'
p630
tp631
F0.002881844380403458
s(S'was'
p632
S'honored'
p633
S'in'
p634
tp635
F0.002881844380403458
s(S'was'
p636
S'awarded'
p637
S'[[det]]'
p638
tp639
F0.008645533141210375
s(S'was'
p640
S'honored'
p641
S'at'
p642
tp643
F0.002881844380403458
s(S'again'
p644
S'served'
p645
S'to'
p646
tp647
F0.002881844380403458
s(S'also'
p648
S'worked'
p649
S'[[con]]'
p650
tp651
F0.002881844380403458
s(S'has'
p652
S'served'
p653
S'[[det]]'
p654
tp655
F0.002881844380403458
s(S'later'
p656
S'joined'
p657
S'[[det]]'
p658
tp659
F0.002881844380403458
s(S'was'
p660
S'appointed'
p661
S'where'
p662
tp663
F0.002881844380403458
s(S'[[prp]]'
p664
S'return'
p665
S'to'
p666
tp667
F0.002881844380403458
s(S'[[adj]]'
p668
S'person'
p669
S'from'
p670
tp671
F0.002881844380403458
s(S'has'
p672
S'served'
p673
S'with'
p674
tp675
F0.002881844380403458
s(S'[[adj]]'
p676
S'award'
p677
S'from'
p678
tp679
F0.002881844380403458
s(S'had'
p680
S'known'
p681
S'in'
p682
tp683
F0.002881844380403458
s(S'became'
p684
S'member'
p685
S'of'
p686
tp687
F0.002881844380403458
s(S'also'
p688
S'served'
p689
S'to'
p690
tp691
F0.002881844380403458
s(S'[[num]]'
p692
S'served'
p693
S'on'
p694
tp695
F0.002881844380403458
s(S'[[con]]'
p696
S'member'
p697
S'of'
p698
tp699
F0.002881844380403458
s(S'[[adj]]'
p700
S'member'
p701
S'for'
p702
tp703
F0.002881844380403458
s(S'is'
p704
S'known'
p705
S'outside'
p706
tp707
F0.002881844380403458
s(S'has'
p708
S'served'
p709
S'for'
p710
tp711
F0.002881844380403458
s(S'also'
p712
S'served'
p713
S'[[adj]]'
p714
tp715
F0.002881844380403458
s(S'has'
p716
S'served'
p717
S'at'
p718
tp719
F0.002881844380403458
s(S'was'
p720
S'joined'
p721
S'at'
p722
tp723
F0.002881844380403458
s(S'[[det]]'
p724
S'served'
p725
S'in'
p726
tp727
F0.002881844380403458
s(S'who'
p728
S'worked'
p729
S'for'
p730
tp731
F0.002881844380403458
s(S'[[con]]'
p732
S'worked'
p733
S'again'
p734
tp735
F0.002881844380403458
s(S'then'
p736
S'joined'
p737
S'with'
p738
tp739
F0.002881844380403458
s(S'was'
p740
S'member'
p741
S'[[con]]'
p742
tp743
F0.002881844380403458
s(S'twice'
p744
S'served'
p745
S'in'
p746
tp747
F0.002881844380403458
s(S'best'
p748
S'known'
p749
S'outside'
p750
tp751
F0.002881844380403458
s(S'then'
p752
S'appointed'
p753
S'[[pro]]'
p754
tp755
F0.002881844380403458
s(S'first'
p756
S'worked'
p757
S'[[con]]'
p758
tp759
F0.002881844380403458
s(S'[[det]]'
p760
S'member'
p761
S'who'
p762
tp763
F0.002881844380403458
s(S'has'
p764
S'worked'
p765
S'to'
p766
tp767
F0.002881844380403458
s(S'then'
p768
S'appointed'
p769
S'to'
p770
tp771
F0.002881844380403458
s(S'[[num]]'
p772
S'member'
p773
S'of'
p774
tp775
F0.002881844380403458
s(S'had'
p776
S'served'
p777
S'[[det]]'
p778
tp779
F0.002881844380403458
s(S'been'
p780
S'introduced'
p781
S'[[con]]'
p782
tp783
F0.002881844380403458
s(S'[[con]]'
p784
S'served'
p785
S'in'
p786
tp787
F0.002881844380403458
s(S'then'
p788
S'joined'
p789
S'[[con]]'
p790
tp791
F0.002881844380403458
s(S'[[det]]'
p792
g676
g677
tp793
F0.002881844380403458
s(S'had'
p794
S'served'
p795
S'with'
p796
tp797
F0.002881844380403458
s(S'already'
p798
S'known'
p799
S'in'
p800
tp801
F0.002881844380403458
s(S'had'
p802
S'served'
p803
S'on'
p804
tp805
F0.002881844380403458
s(S'then'
p806
S'appointed'
p807
S'in'
p808
tp809
F0.002881844380403458
s(S'been'
p810
S'awarded'
p811
S'at'
p812
tp813
F0.002881844380403458
s(S'[[con]]'
p814
S'served'
p815
S'on'
p816
tp817
F0.002881844380403458
s(S'later'
p818
S'appointed'
p819
S'on'
p820
tp821
F0.002881844380403458
s(S'[[det]]'
p822
S'member'
p823
S'[[num]]'
p824
tp825
F0.002881844380403458
s(S'was'
p826
S'appointed'
p827
S'in'
p828
tp829
F0.002881844380403458
s(S'had'
p830
S'joined'
p831
S'from'
p832
tp833
F0.002881844380403458
s(S'had'
p834
S'worked'
p835
S'for'
p836
tp837
F0.002881844380403458
s(S'later'
p838
S'awarded'
p839
S'from'
p840
tp841
F0.002881844380403458
s(S'[[num]]'
p842
S'awarded'
p843
S'by'
p844
tp845
F0.002881844380403458
s(S'been'
p846
S'honored'
p847
S'as'
p848
tp849
F0.002881844380403458
s(S'[[pro]]'
p850
S'return'
p851
S'to'
p852
tp853
F0.002881844380403458
s(S'also'
p854
S'worked'
p855
S'at'
p856
tp857
F0.002881844380403458
s(S'is'
p858
S'known'
p859
S'in'
p860
tp861
F0.002881844380403458
s(S'then'
p862
S'joined'
p863
S'on'
p864
tp865
F0.002881844380403458
s(g158
g159
S'to'
p866
tp867
F0.005763688760806916
s(S'was'
p868
S'awarded'
p869
S'[[num]]'
p870
tp871
F0.002881844380403458
s(S'[[num]]'
p872
S'served'
p873
S'for'
p874
tp875
F0.002881844380403458
s(S'since'
p876
S'worked'
p877
S'with'
p878
tp879
F0.002881844380403458
s(S'also'
p880
S'worked'
p881
S'from'
p882
tp883
F0.002881844380403458
s(S'[[adj]]'
p884
S'member'
p885
S'[[adj]]'
p886
tp887
F0.002881844380403458
s(S'also'
p888
S'served'
p889
S'for'
p890
tp891
F0.002881844380403458
s(S'then'
p892
S'joined'
p893
S'of'
p894
tp895
F0.002881844380403458
s(S'also'
p896
S'served'
p897
S'[[con]]'
p898
tp899
F0.002881844380403458
s(S'[[det]]'
p900
S'member'
p901
S'has'
p902
tp903
F0.002881844380403458
s(S'where'
p904
S'served'
p905
S'in'
p906
tp907
F0.002881844380403458
s(S'is'
p908
S'known'
p909
S'throughout'
p910
tp911
F0.002881844380403458
s(S'first'
p912
S'worked'
p913
S'for'
p914
tp915
F0.002881844380403458
s(S'been'
p916
S'known'
p917
S'in'
p918
tp919
F0.002881844380403458
s(S'was'
p920
S'awarded'
p921
S'[[adj]]'
p922
tp923
F0.002881844380403458
s(S'[[det]]'
p924
S'return'
p925
S'at'
p926
tp927
F0.002881844380403458
s(S'with'
p928
S'joined'
p929
S'[[det]]'
p930
tp931
F0.002881844380403458
s(S'[[det]]'
p932
S'member'
p933
S'to'
p934
tp935
F0.002881844380403458
s(S'been'
p936
S'awarded'
p937
S'from'
p938
tp939
F0.002881844380403458
s(S'first'
p940
S'worked'
p941
S'at'
p942
tp943
F0.002881844380403458
s(S'was'
p944
S'known'
p945
S'throughout'
p946
tp947
F0.002881844380403458
s(S'then'
p948
S'appointed'
p949
S'for'
p950
tp951
F0.002881844380403458
s(S'also'
p952
S'worked'
p953
S'for'
p954
tp955
F0.002881844380403458
s(S'is'
p956
S'member'
p957
S'[[det]]'
p958
tp959
F0.002881844380403458
s(S'[[num]]'
p960
S'served'
p961
S'in'
p962
tp963
F0.002881844380403458
s(S'then'
p964
S'appointed'
p965
S'of'
p966
tp967
F0.002881844380403458
s(S'then'
p968
S'joined'
p969
S'[[det]]'
p970
tp971
F0.002881844380403458
s(S'was'
p972
S'member'
p973
S'[[num]]'
p974
tp975
F0.002881844380403458
s(S'[[con]]'
p976
S'worked'
p977
S'for'
p978
tp979
F0.002881844380403458
s(S'as'
p980
S'member'
p981
S'of'
p982
tp983
F0.002881844380403458
s(S'has'
p984
S'worked'
p985
S'[[con]]'
p986
tp987
F0.002881844380403458
s(S'has'
p988
S'served'
p989
S'where'
p990
tp991
F0.002881844380403458
s(S'[[con]]'
p992
S'served'
p993
S'for'
p994
tp995
F0.002881844380403458
s(S'[[det]]'
p996
S'awarded'
p997
S'by'
p998
tp999
F0.002881844380403458
s(S'had'
p1000
S'worked'
p1001
S'in'
p1002
tp1003
F0.002881844380403458
s(S'first'
p1004
S'joined'
p1005
S'[[con]]'
p1006
tp1007
F0.002881844380403458
s(S'is'
p1008
S'awarded'
p1009
S'by'
p1010
tp1011
F0.002881844380403458
s(S'[[adj]]'
p1012
S'person'
p1013
S'in'
p1014
tp1015
F0.002881844380403458
s(S'also'
p1016
S'honored'
p1017
S'at'
p1018
tp1019
F0.002881844380403458
s(S'also'
p1020
S'known'
p1021
S'outside'
p1022
tp1023
F0.002881844380403458
s(S'later'
p1024
S'worked'
p1025
S'for'
p1026
tp1027
F0.002881844380403458
s(S'be'
p1028
S'honored'
p1029
S'by'
p1030
tp1031
F0.002881844380403458
s(S'[[con]]'
p1032
S'joined'
p1033
S'at'
p1034
tp1035
F0.002881844380403458
s(S'[[adj]]'
p1036
S'member'
p1037
S'in'
p1038
tp1039
F0.002881844380403458
s(S'[[adj]]'
p1040
S'served'
p1041
S'at'
p1042
tp1043
F0.002881844380403458
s(S'[[adj]]'
p1044
S'member'
p1045
S'[[num]]'
p1046
tp1047
F0.002881844380403458
s(S'also'
p1048
S'served'
p1049
S'[[num]]'
p1050
tp1051
F0.002881844380403458
s(S'had'
p1052
S'served'
p1053
S'as'
p1054
tp1055
F0.002881844380403458
s(S'[[con]]'
p1056
S'served'
p1057
S'[[det]]'
p1058
tp1059
F0.002881844380403458
s(S'[[adj]]'
p1060
S'member'
p1061
S'at'
p1062
tp1063
F0.002881844380403458
s(S'formerly'
p1064
S'served'
p1065
S'in'
p1066
tp1067
F0.002881844380403458
s(S'also'
p1068
S'member'
p1069
S'of'
p1070
tp1071
F0.002881844380403458
s(S'was'
p1072
S'honored'
p1073
S'with'
p1074
tp1075
F0.002881844380403458
s(S'had'
p1076
S'migrated'
p1077
S'to'
p1078
tp1079
F0.002881844380403458
s(S'[[det]]'
p1080
S'member'
p1081
S'[[adj]]'
p1082
tp1083
F0.002881844380403458
s(S'has'
p1084
S'served'
p1085
S'until'
p1086
tp1087
F0.002881844380403458
s(S'also'
p1088
S'awarded'
p1089
S'by'
p1090
tp1091
F0.002881844380403458
s(S'holds'
p1092
S'[[adj]]'
p1093
S'citizenship'
p1094
tp1095
F0.002881844380403458
s(S'first'
p1096
S'served'
p1097
S'with'
p1098
tp1099
F0.002881844380403458
s(S'later'
p1100
S'served'
p1101
S'[[adj]]'
p1102
tp1103
F0.002881844380403458
s(S'[[con]]'
p1104
S'member'
p1105
S'[[det]]'
p1106
tp1107
F0.002881844380403458
s(S'then'
p1108
S'worked'
p1109
S'at'
p1110
tp1111
F0.002881844380403458
s(S'had'
p1112
S'served'
p1113
S'in'
p1114
tp1115
F0.002881844380403458
s(S'formerly'
p1116
S'served'
p1117
S'for'
p1118
tp1119
F0.002881844380403458
s(S'also'
p1120
S'honored'
p1121
S'by'
p1122
tp1123
F0.002881844380403458
s(S'[[con]]'
p1124
S'joined'
p1125
S'[[adj]]'
p1126
tp1127
F0.002881844380403458
s(S'also'
p1128
S'worked'
p1129
S'[[det]]'
p1130
tp1131
F0.002881844380403458
s(S'[[adj]]'
p1132
S'joined'
p1133
S'[[det]]'
p1134
tp1135
F0.002881844380403458
s(S'[[con]]'
p1136
S'member'
p1137
S'[[con]]'
p1138
tp1139
F0.002881844380403458
s(S'been'
p1140
S'awarded'
p1141
S'[[det]]'
p1142
tp1143
F0.002881844380403458
s(S'was'
p1144
S'honored'
p1145
S'as'
p1146
tp1147
F0.002881844380403458
s(g401
S'return'
p1148
S'in'
p1149
tp1150
F0.002881844380403458
s(S'[[num]]'
p1151
S'joined'
p1152
S'[[det]]'
p1153
tp1154
F0.002881844380403458
s(S'was'
p1155
S'member'
p1156
S'in'
p1157
tp1158
F0.002881844380403458
s(S'then'
p1159
S'served'
p1160
S'[[det]]'
p1161
tp1162
F0.002881844380403458
s(S'since'
p1163
S'worked'
p1164
S'for'
p1165
tp1166
F0.002881844380403458
s(S'[[det]]'
p1167
S'member'
p1168
S'of'
p1169
tp1170
F0.002881844380403458
s(S'has'
p1171
S'served'
p1172
S'to'
p1173
tp1174
F0.002881844380403458
s(S'later'
p1175
S'worked'
p1176
S'[[con]]'
p1177
tp1178
F0.002881844380403458
s(S'later'
p1179
S'served'
p1180
S'[[con]]'
p1181
tp1182
F0.002881844380403458
s(S'was'
p1183
S'awarded'
p1184
S'by'
p1185
tp1186
F0.002881844380403458
s(S'became'
p1187
S'member'
p1188
S'for'
p1189
tp1190
F0.002881844380403458
s(S'never'
p1191
S'return'
p1192
S'to'
p1193
tp1194
F0.002881844380403458
s(S'[[adj]]'
p1195
S'member'
p1196
S'[[con]]'
p1197
tp1198
F0.002881844380403458
s(S'also'
p1199
S'appointed'
p1200
S'[[num]]'
p1201
tp1202
F0.002881844380403458
s(S'[[con]]'
p1203
S'worked'
p1204
S'[[con]]'
p1205
tp1206
F0.002881844380403458
s(S'[[det]]'
p1207
S'member'
p1208
S'[[con]]'
p1209
tp1210
F0.002881844380403458
s(S'have'
p1211
S'worked'
p1212
S'at'
p1213
tp1214
F0.002881844380403458
s(S'been'
p1215
S'awarded'
p1216
S'by'
p1217
tp1218
F0.002881844380403458
s(S'also'
p1219
S'served'
p1220
S'until'
p1221
tp1222
F0.002881844380403458
s(S'first'
p1223
S'joined'
p1224
S'[[det]]'
p1225
tp1226
F0.002881844380403458
s(S'[[adj]]'
p1227
S'return'
p1228
S'to'
p1229
tp1230
F0.002881844380403458
s(S'again'
p1231
S'worked'
p1232
S'for'
p1233
tp1234
F0.002881844380403458
s(S'then'
p1235
S'served'
p1236
S'at'
p1237
tp1238
F0.002881844380403458
s(S'was'
p1239
S'honored'
p1240
S'[[det]]'
p1241
tp1242
F0.002881844380403458
s(S'has'
p1243
S'served'
p1244
S'on'
p1245
tp1246
F0.002881844380403458
s(S'then'
p1247
S'served'
p1248
S'in'
p1249
tp1250
F0.002881844380403458
s(S'later'
p1251
S'served'
p1252
S'for'
p1253
tp1254
F0.002881844380403458
s(S'was'
p1255
S'member'
p1256
S'[[det]]'
p1257
tp1258
F0.002881844380403458
s(S'who'
p1259
S'worked'
p1260
S'in'
p1261
tp1262
F0.002881844380403458
s(S'then'
p1263
S'awarded'
p1264
S'[[det]]'
p1265
tp1266
F0.002881844380403458
s(S'who'
p1267
S'worked'
p1268
S'at'
p1269
tp1270
F0.002881844380403458
s(S'[[det]]'
p1271
S'member'
p1272
S'for'
p1273
tp1274
F0.002881844380403458
s(S'[[num]]'
p1275
S'worked'
p1276
S'for'
p1277
tp1278
F0.002881844380403458
s(S'has'
p1279
S'joined'
p1280
S'[[det]]'
p1281
tp1282
F0.002881844380403458
s(S'has'
p1283
S'worked'
p1284
S'[[det]]'
p1285
tp1286
F0.002881844380403458
s(S'also'
p1287
S'served'
p1288
S'from'
p1289
tp1290
F0.002881844380403458
s(S'was'
p1291
S'joined'
p1292
S'[[det]]'
p1293
tp1294
F0.002881844380403458
s(S'[[con]]'
p1295
S'return'
p1296
S'to'
p1297
tp1298
F0.002881844380403458
s(S'became'
p1299
S'known'
p1300
S'only'
p1301
tp1302
F0.002881844380403458
s(g401
S'return'
p1303
S'from'
p1304
tp1305
F0.002881844380403458
s(S'had'
p1306
S'joined'
p1307
S'of'
p1308
tp1309
F0.002881844380403458
s(S'[[adj]]'
p1310
S'served'
p1311
S'for'
p1312
tp1313
F0.002881844380403458
s(S'is'
p1314
S'appointed'
p1315
S'to'
p1316
tp1317
F0.002881844380403458
s(S'also'
p1318
S'served'
p1319
S'on'
p1320
tp1321
F0.002881844380403458
s(g401
S'worked'
p1322
S'for'
p1323
tp1324
F0.002881844380403458
s(S'awarded'
p1325
g792
g676
tp1326
F0.002881844380403458
s(S'until'
p1327
S'joined'
p1328
S'[[det]]'
p1329
tp1330
F0.002881844380403458
s(S'later'
p1331
S'served'
p1332
S'in'
p1333
tp1334
F0.002881844380403458
s(S'later'
p1335
S'worked'
p1336
S'at'
p1337
tp1338
F0.002881844380403458
s(S'later'
p1339
S'served'
p1340
S'at'
p1341
tp1342
F0.002881844380403458
s(S'again'
p1343
S'joined'
p1344
S'[[det]]'
p1345
tp1346
F0.002881844380403458
s(S'also'
p1347
S'served'
p1348
S'of'
p1349
tp1350
F0.002881844380403458
s(S'then'
p1351
S'worked'
p1352
S'for'
p1353
tp1354
F0.002881844380403458
s.