(dp0
(S'station'
p1
S'in'
p2
S'[[det]]'
p3
tp4
F0.004132231404958678
s(S'now'
p5
S'located'
p6
S'in'
p7
tp8
F0.004132231404958678
s(S'located'
p9
S'in'
p10
S'[[det]]'
p11
tp12
F0.004132231404958678
s(S'is'
p13
S'established'
p14
S'in'
p15
tp16
F0.004132231404958678
s(S'school'
p17
S'[[det]]'
p18
S'located'
p19
tp20
F0.004132231404958678
s(S'were'
p21
S'founded'
p22
S'in'
p23
tp24
F0.004132231404958678
s(S'now'
p25
S'located'
p26
S'at'
p27
tp28
F0.004132231404958678
s(S'[[det]]'
p29
S'university'
p30
S'with'
p31
tp32
F0.004132231404958678
s(S'[[det]]'
p33
S'campus'
p34
S'in'
p35
tp36
F0.004132231404958678
s(S'at'
p37
S'[[det]]'
p38
S'neighborhood'
p39
tp40
F0.004132231404958678
s(S'[[adj]]'
p41
g17
g18
tp42
F0.004132231404958678
s(S'is'
p43
S'located'
p44
S'[[det]]'
p45
tp46
F0.004132231404958678
s(S'thoroughfare'
p47
S'connecting'
p48
S'[[det]]'
p49
tp50
F0.004132231404958678
s(S'[[adj]]'
p51
S'radio'
p52
S'station'
p53
tp54
F0.004132231404958678
s(S'[[det]]'
p55
S'station'
p56
S'from'
p57
tp58
F0.004132231404958678
s(S'[[adj]]'
p59
S'road'
p60
S'linking'
p61
tp62
F0.004132231404958678
s(S'[[adj]]'
p63
S'based'
p64
S'in'
p65
tp66
F0.004132231404958678
s(S'rises'
p67
S'[[con]]'
p68
S'flows'
p69
tp70
F0.004132231404958678
s(S'[[det]]'
p71
S'acronym'
p72
S'derived'
p73
tp74
F0.004132231404958678
s(S'largest'
p75
S'[[adj]]'
p76
S'university'
p77
tp78
F0.004132231404958678
s(S'sometimes'
p79
S'referred'
p80
S'to'
p81
tp82
F0.004132231404958678
s(S'radio'
p83
S'station'
p84
S'licensed'
p85
tp86
F0.008264462809917356
s(S'[[num]]'
p87
S'station'
p88
S'in'
p89
tp90
F0.004132231404958678
s(S'were'
p91
S'based'
p92
S'in'
p93
tp94
F0.004132231404958678
s(S'[[det]]'
p95
S'[[adj]]'
p96
g47
tp97
F0.004132231404958678
s(g81
S'[[det]]'
p98
S'station'
p99
tp100
F0.004132231404958678
s(S'[[adj]]'
p101
S'university'
p102
S'with'
p103
tp104
F0.004132231404958678
s(S'is'
p105
S'licensed'
p106
S'to'
p107
tp108
F0.004132231404958678
s(S'then'
p109
S'passes'
p110
S'through'
p111
tp112
F0.004132231404958678
s(S'busiest'
p113
S'airport'
p114
S'in'
p115
tp116
F0.012396694214876033
s(S'that'
p117
S'is'
p118
S'programmed'
p119
tp120
F0.004132231404958678
s(S'[[adj]]'
p121
S'college'
p122
S'in'
p123
tp124
F0.004132231404958678
s(S'were'
p125
S'relocated'
p126
S'to'
p127
tp128
F0.004132231404958678
s(S'[[adj]]'
p129
S'located'
p130
S'at'
p131
tp132
F0.004132231404958678
s(S'be'
p133
S'located'
p134
S'in'
p135
tp136
F0.004132231404958678
s(S'also'
p137
S'runs'
p138
S'on'
p139
tp140
F0.004132231404958678
s(S'[[adj]]'
p141
S'located'
p142
S'in'
p143
tp144
F0.004132231404958678
s(S'been'
p145
S'founded'
p146
S'in'
p147
tp148
F0.004132231404958678
s(S'with'
p149
S'campuses'
p150
S'in'
p151
tp152
F0.008264462809917356
s(S'is'
p153
S'located'
p154
S'outside'
p155
tp156
F0.004132231404958678
s(S'[[num]]'
p157
S'campuses'
p158
S'[[con]]'
p159
tp160
F0.004132231404958678
s(S'currently'
p161
S'located'
p162
S'in'
p163
tp164
F0.004132231404958678
s(S's'
p165
S'campus'
p166
S'in'
p167
tp168
F0.004132231404958678
s(S'[[det]]'
p169
S'station'
p170
S'near'
p171
tp172
F0.004132231404958678
s(S'[[con]]'
p173
S'runs'
p174
S'through'
p175
tp176
F0.004132231404958678
s(S'[[adj]]'
p177
S'university'
p178
S'in'
p179
tp180
F0.008264462809917356
s(S'football'
p181
S'team'
p182
S'based'
p183
tp184
F0.008264462809917356
s(S'was'
p185
S'relocated'
p186
S'to'
p187
tp188
F0.004132231404958678
s(S'had'
p189
S'relocated'
p190
S'from'
p191
tp192
F0.004132231404958678
s(S'to'
p193
S'serve'
p194
S'[[det]]'
p195
tp196
F0.004132231404958678
s(g52
g53
S'in'
p197
tp198
F0.008264462809917356
s(S'is'
p199
S'based'
p200
S'in'
p201
tp202
F0.004132231404958678
s(S'was'
p203
S'located'
p204
S'in'
p205
tp206
F0.004132231404958678
s(S'was'
p207
S'founded'
p208
S'on'
p209
tp210
F0.004132231404958678
s(S'[[adj]]'
p211
S'school'
p212
S'situated'
p213
tp214
F0.004132231404958678
s(S'located'
p215
g37
g38
tp216
F0.004132231404958678
s(g38
g39
S'of'
p217
tp218
F0.008264462809917356
s(S'licensed'
p219
S'to'
p220
S'serve'
p221
tp222
F0.004132231404958678
s(S'railway'
p223
S'station'
p224
S'[[det]]'
p225
tp226
F0.004132231404958678
s(S'[[det]]'
p227
S'forecast'
p228
S'office'
p229
tp230
F0.008264462809917356
s(g179
S'[[det]]'
p231
S'state'
p232
tp233
F0.004132231404958678
s(S'[[det]]'
p234
S'busiest'
p235
S'airport'
p236
tp237
F0.004132231404958678
s(S'are'
p238
S'situated'
p239
S'in'
p240
tp241
F0.004132231404958678
s(S'[[num]]'
p242
S'campuses'
p243
S'in'
p244
tp245
F0.008264462809917356
s(S'[[adj]]'
p246
S'campus'
p247
S'at'
p248
tp249
F0.004132231404958678
s(S'[[adj]]'
p250
S'school'
p251
S'located'
p252
tp253
F0.02066115702479339
s(S'serves'
p254
S'[[det]]'
p255
S'area'
p256
tp257
F0.008264462809917356
s(S'was'
p258
S'founded'
p259
S'[[num]]'
p260
tp261
F0.004132231404958678
s(S'is'
p262
S'based'
p263
S'near'
p264
tp265
F0.004132231404958678
s(g228
g229
S'in'
p266
tp267
F0.008264462809917356
s(S'[[adj]]'
p268
S'research'
p269
S'university'
p270
tp271
F0.004132231404958678
s(S'[[adj]]'
p272
S'campus'
p273
S'in'
p274
tp275
F0.004132231404958678
s(S'also'
p276
S'broadcasts'
p277
S'to'
p278
tp279
F0.004132231404958678
s(S'then'
p280
S'runs'
p281
S'[[con]]'
p282
tp283
F0.004132231404958678
s(S'[[adj]]'
p284
S'gospel'
p285
S'format'
p286
tp287
F0.004132231404958678
s(g99
g117
g118
tp288
F0.004132231404958678
s(S'[[adj]]'
p289
S'airport'
p290
S'in'
p291
tp292
F0.004132231404958678
s(g48
g49
S'[[num]]'
p293
tp294
F0.004132231404958678
s(S'[[det]]'
p295
S'station'
p296
S'to'
p297
tp298
F0.004132231404958678
s(S'[[num]]'
p299
S'airports'
p300
S'in'
p301
tp302
F0.004132231404958678
s(g224
g225
S'district'
p303
tp304
F0.004132231404958678
s(S'was'
p305
S'founded'
p306
S'[[det]]'
p307
tp308
F0.004132231404958678
s(S'is'
p309
S'located'
p310
S'in'
p311
tp312
F0.008264462809917356
s(S'is'
p313
S'situated'
p314
S'[[det]]'
p315
tp316
F0.004132231404958678
s(S'was'
p317
S'located'
p318
S'[[adj]]'
p319
tp320
F0.004132231404958678
s(g68
g69
S'through'
p321
tp322
F0.004132231404958678
s(S'operate'
p323
S'[[adj]]'
p324
S'connections'
p325
tp326
F0.004132231404958678
s(g49
g293
S'cities'
p327
tp328
F0.004132231404958678
s(S'[[adj]]'
p329
S'largest'
p330
S'university'
p331
tp332
F0.004132231404958678
s(g98
g99
g117
tp333
F0.004132231404958678
s(S'[[det]]'
p334
g284
g285
tp335
F0.004132231404958678
s(S'[[adj]]'
p336
S'school'
p337
S'on'
p338
tp339
F0.004132231404958678
s(S'[[num]]'
p340
S'licensed'
p341
S'to'
p342
tp343
F0.004132231404958678
s(S'are'
p344
S'based'
p345
S'in'
p346
tp347
F0.004132231404958678
s(g165
S'based'
p348
S'in'
p349
tp350
F0.004132231404958678
s(g212
g213
S'on'
p351
tp352
F0.004132231404958678
s(S'is'
p353
S'located'
p354
S'of'
p355
tp356
F0.004132231404958678
s(g10
g11
S'neighborhood'
p357
tp358
F0.004132231404958678
s(S'[[num]]'
p359
S'runs'
p360
S'[[adj]]'
p361
tp362
F0.004132231404958678
s(S'[[num]]'
p363
S'located'
p364
S'in'
p365
tp366
F0.004132231404958678
s(S'[[adj]]'
p367
S'school'
p368
S'near'
p369
tp370
F0.004132231404958678
s(S'[[prp]]'
p371
S'campus'
p372
S'in'
p373
tp374
F0.004132231404958678
s(S'has'
p375
S'campuses'
p376
S'[[con]]'
p377
tp378
F0.004132231404958678
s(g330
g331
S'in'
p379
tp380
F0.008264462809917356
s(S'was'
p381
S'based'
p382
S'in'
p383
tp384
F0.004132231404958678
s(S'[[adj]]'
p385
S'station'
p386
S'in'
p387
tp388
F0.004132231404958678
s(g84
g85
S'to'
p389
tp390
F0.008264462809917356
s(g178
g179
g231
tp391
F0.004132231404958678
s(S'were'
p392
S'relocated'
p393
S'from'
p394
tp395
F0.004132231404958678
s(S'is'
p396
S'programmed'
p397
S'from'
p398
tp399
F0.008264462809917356
s(g60
g61
S'[[con]]'
p400
tp401
F0.004132231404958678
s(g30
g31
S'[[num]]'
p402
tp403
F0.004132231404958678
s(S'was'
p404
S'established'
p405
S'[[num]]'
p406
tp407
F0.004132231404958678
s(S'[[det]]'
p408
S'mountain'
p409
S'range'
p410
tp411
F0.012396694214876033
s(S'[[det]]'
p412
S'area'
p413
S'of'
p414
tp415
F0.004132231404958678
s(g182
g183
S'in'
p416
tp417
F0.008264462809917356
s(S'[[det]]'
p418
S'radio'
p419
S'station'
p420
tp421
F0.012396694214876033
s(S'[[det]]'
p422
S'station'
p423
S'in'
p424
tp425
F0.004132231404958678
s(S'[[adj]]'
p426
g113
g114
tp427
F0.004132231404958678
s(S'[[adj]]'
p428
S'station'
p429
S'[[det]]'
p430
tp431
F0.004132231404958678
s(S'[[adj]]'
p432
S'university'
p433
S'[[det]]'
p434
tp435
F0.004132231404958678
s(S'be'
p436
S'based'
p437
S'in'
p438
tp439
F0.004132231404958678
s(S'[[adj]]'
p440
S'mountain'
p441
S'range'
p442
tp443
F0.012396694214876033
s(g270
S'located'
p444
S'in'
p445
tp446
F0.01652892561983471
s(S'[[det]]'
p447
S'located'
p448
S'in'
p449
tp450
F0.008264462809917356
s(S'also'
p451
S'broadcasts'
p452
S'on'
p453
tp454
F0.004132231404958678
s(g73
g95
g96
tp455
F0.004132231404958678
s(g102
g103
S'campuses'
p456
tp457
F0.004132231404958678
s(S'been'
p458
S'located'
p459
S'in'
p460
tp461
F0.004132231404958678
s(g96
g47
g48
tp462
F0.004132231404958678
s(S'[[det]]'
p463
S'airport'
p464
S'in'
p465
tp466
F0.004132231404958678
s(S'mountain'
p467
S'range'
p468
S'in'
p469
tp470
F0.008264462809917356
s(S'[[det]]'
p471
S'historically'
p472
S'[[adj]]'
p473
tp474
F0.004132231404958678
s(S'also'
p475
S'broadcasts'
p476
S'[[det]]'
p477
tp478
F0.004132231404958678
s(S'[[det]]'
p479
S'station'
p480
S'[[det]]'
p481
tp482
F0.004132231404958678
s(S'[[adj]]'
p483
S'campuses'
p484
S'in'
p485
tp486
F0.004132231404958678
s(S'is'
p487
S'founded'
p488
S'at'
p489
tp490
F0.004132231404958678
s(S'also'
p491
S'located'
p492
S'in'
p493
tp494
F0.004132231404958678
s(S'was'
p495
S'launched'
p496
S'at'
p497
tp498
F0.004132231404958678
s(S'which'
p499
S'runs'
p500
S'from'
p501
tp502
F0.004132231404958678
s(S'was'
p503
S'located'
p504
S'just'
p505
tp506
F0.004132231404958678
s(g285
g286
S'to'
p507
tp508
F0.004132231404958678
s(g269
g270
g444
tp509
F0.004132231404958678
s(g2
g3
S'district'
p510
tp511
F0.004132231404958678
s(S'[[num]]'
p512
S'runs'
p513
S'between'
p514
tp515
F0.004132231404958678
s(g441
g442
S'[[det]]'
p516
tp517
F0.008264462809917356
s(S'is'
p518
S'founded'
p519
S'in'
p520
tp521
F0.004132231404958678
s(S'also'
p522
S'based'
p523
S'in'
p524
tp525
F0.004132231404958678
s(S'[[con]]'
p526
S'runs'
p527
S'[[adj]]'
p528
tp529
F0.004132231404958678
s(S'[[det]]'
p530
S'school'
p531
S'located'
p532
tp533
F0.008264462809917356
s(S'is'
p534
g215
g37
tp535
F0.004132231404958678
s(S'broadcasts'
p536
g334
g284
tp537
F0.004132231404958678
s(g397
g398
g227
tp538
F0.008264462809917356
s(S'was'
p539
S'launched'
p540
S'[[num]]'
p541
tp542
F0.004132231404958678
s(S'[[det]]'
p543
S'largest'
p544
S'university'
p545
tp546
F0.004132231404958678
s(S'links'
p547
S'[[det]]'
p548
S'cities'
p549
tp550
F0.004132231404958678
s(S'[[adj]]'
p551
g181
g182
tp552
F0.004132231404958678
s(S'was'
p553
S'founded'
p554
S'in'
p555
tp556
F0.004132231404958678
s(S'railway'
p557
g1
g2
tp558
F0.004132231404958678
s(S'[[det]]'
p559
g75
g76
tp560
F0.004132231404958678
s(g548
g549
S'of'
p561
tp562
F0.004132231404958678
s(g80
g81
g98
tp563
F0.004132231404958678
s(S'was'
p564
S'established'
p565
S'at'
p566
tp567
F0.004132231404958678
s(S'was'
p568
S'licensed'
p569
S'to'
p570
tp571
F0.004132231404958678
s(S'[[mod]]'
p572
g323
g324
tp573
F0.004132231404958678
s(S'[[det]]'
p574
S'engineering'
p575
S'college'
p576
tp577
F0.004132231404958678
s(S'be'
p578
S'launched'
p579
S'in'
p580
tp581
F0.004132231404958678
s(S'[[det]]'
p582
S'football'
p583
S'team'
p584
tp585
F0.004132231404958678
s(g398
g227
g228
tp586
F0.008264462809917356
s(S'was'
p587
S'established'
p588
S'on'
p589
tp590
F0.004132231404958678
s(S'has'
p591
S'established'
p592
S'[[det]]'
p593
tp594
F0.004132231404958678
s(S'school'
p595
S'located'
p596
S'in'
p597
tp598
F0.012396694214876033
s(g3
g510
S'of'
p599
tp600
F0.008264462809917356
s(S'is'
p601
S'based'
p602
S'out'
p603
tp604
F0.004132231404958678
s(S'school'
p605
S'located'
p606
S'near'
p607
tp608
F0.004132231404958678
s(S'be'
p609
S'established'
p610
S'at'
p611
tp612
F0.004132231404958678
s(S'is'
p613
S'licensed'
p614
S'in'
p615
tp616
F0.004132231404958678
s(S'school'
p617
S'located'
p618
S'at'
p619
tp620
F0.004132231404958678
s(S'[[con]]'
p621
S'runs'
p622
S'between'
p623
tp624
F0.004132231404958678
s(S'is'
p625
S'launched'
p626
S'in'
p627
tp628
F0.004132231404958678
s(g72
g73
g95
tp629
F0.004132231404958678
s(S'[[det]]'
p630
S'university'
p631
S'located'
p632
tp633
F0.004132231404958678
s(S'has'
p634
S'campuses'
p635
S'in'
p636
tp637
F0.004132231404958678
s(g195
S'community'
p638
S'of'
p639
tp640
F0.004132231404958678
s(S'[[adj]]'
p641
S'established'
p642
S'in'
p643
tp644
F0.004132231404958678
s(g231
g232
S'of'
p645
tp646
F0.008264462809917356
s(S'[[adj]]'
p647
S'university'
p648
S'located'
p649
tp650
F0.008264462809917356
s(g433
g434
S'state'
p651
tp652
F0.004132231404958678
s(S'[[adj]]'
p653
S'airports'
p654
S'in'
p655
tp656
F0.004132231404958678
s(S'[[det]]'
p657
g557
g1
tp658
F0.008264462809917356
s(S'formerly'
p659
S'located'
p660
S'in'
p661
tp662
F0.004132231404958678
s(g165
S'located'
p663
S'in'
p664
tp665
F0.004132231404958678
s(g575
g576
S'in'
p666
tp667
F0.004132231404958678
s(S'[[con]]'
p668
S'located'
p669
S'in'
p670
tp671
F0.004132231404958678
s(g31
g402
S'campuses'
p672
tp673
F0.004132231404958678
s(g194
g195
g638
tp674
F0.004132231404958678
s(g251
g252
S'on'
p675
tp676
F0.008264462809917356
s(g472
g473
S'university'
p677
tp678
F0.004132231404958678
s(S'was'
p679
S'established'
p680
S'in'
p681
tp682
F0.004132231404958678
s.