(dp0
(S'[[mod]]'
p1
S'play'
p2
S'with'
p3
tp4
F0.00025786487880350697
s(S'only'
p5
S'played'
p6
S'twice'
p7
tp8
F0.00025786487880350697
s(S'then'
p9
S'played'
p10
S'with'
p11
tp12
F0.00025786487880350697
s(S'again'
p13
S'played'
p14
S'against'
p15
tp16
F0.00025786487880350697
s(S'when'
p17
S'served'
p18
S'with'
p19
tp20
F0.00025786487880350697
s(S'where'
p21
S'served'
p22
S'in'
p23
tp24
F0.00025786487880350697
s(S'[[pro]]'
p25
S'played'
p26
S'professionally'
p27
tp28
F0.00025786487880350697
s(S'to'
p29
S'play'
p30
S'when'
p31
tp32
F0.00025786487880350697
s(S'to'
p33
S'lead'
p34
S'[[con]]'
p35
tp36
F0.00025786487880350697
s(S'football'
p37
S'coach'
p38
S'of'
p39
tp40
F0.0005157297576070139
s(S'defender'
p41
S'who'
p42
S'plays'
p43
tp44
F0.00025786487880350697
s(S'football'
p45
S'[[con]]'
p46
S'[[det]]'
p47
tp48
F0.0005157297576070139
s(S'head'
p49
S'coach'
p50
S'from'
p51
tp52
F0.00025786487880350697
s(S'soccer'
p53
S'midfielder'
p54
S'playing'
p55
tp56
F0.00025786487880350697
s(S'football'
p57
S'striker'
p58
S'for'
p59
tp60
F0.00025786487880350697
s(S'had'
p61
S'loan'
p62
S'spells'
p63
tp64
F0.00025786487880350697
s(S'basketball'
p65
S'[[con]]'
p66
S'thereafter'
p67
tp68
F0.00025786487880350697
s(S'attended'
p69
S'[[con]]'
p70
S'graduated'
p71
tp72
F0.0020629190304280558
s(S'had'
p73
S'signed'
p74
S'from'
p75
tp76
F0.00025786487880350697
s(S'then'
p77
S'graduated'
p78
S'from'
p79
tp80
F0.0007735946364105209
s(S'basketball'
p81
S'[[con]]'
p82
S'[[adj]]'
p83
tp84
F0.0005157297576070139
s(S'later'
p85
S'received'
p86
S'from'
p87
tp88
F0.00025786487880350697
s(S'[[adj]]'
p89
S'team'
p90
S'at'
p91
tp92
F0.00025786487880350697
s(S'first'
p93
S'played'
p94
S'[[adj]]'
p95
tp96
F0.00025786487880350697
s(S'[[adj]]'
p97
S'round'
p98
S'[[det]]'
p99
tp100
F0.00025786487880350697
s(S'as'
p101
S'[[adj]]'
p102
S'head'
p103
tp104
F0.0010314595152140279
s(S'attended'
p105
S'before'
p106
S'enrolling'
p107
tp108
F0.0005157297576070139
s(S'[[adj]]'
p109
S'college'
p110
S'at'
p111
tp112
F0.00025786487880350697
s(S'[[num]]'
p113
S'years'
p114
S'of'
p115
tp116
F0.00025786487880350697
s(S'has'
p117
S'played'
p118
S'for'
p119
tp120
F0.0015471892728210418
s(S's'
p121
S'career'
p122
S'in'
p123
tp124
F0.00025786487880350697
s(S'attended'
p125
S'[[con]]'
p126
S'was'
p127
tp128
F0.00025786487880350697
s(S'grew'
p129
S'up'
p130
S'later'
p131
tp132
F0.00025786487880350697
s(S'[[det]]'
p133
S'quarterback'
p134
S'at'
p135
tp136
F0.0005157297576070139
s(S'is'
p137
S'[[det]]'
p138
S'soccer'
p139
tp140
F0.0007735946364105209
s(S'[[num]]'
p141
S'years'
p142
S'with'
p143
tp144
F0.0012893243940175349
s(S'player'
p145
S'who'
p146
S'was'
p147
tp148
F0.0005157297576070139
s(S'[[num]]'
p149
S'round'
p150
S'[[adj]]'
p151
tp152
F0.00025786487880350697
s(S'was'
p153
S'member'
p154
S'for'
p155
tp156
F0.00025786487880350697
s(S'when'
p157
S'moved'
p158
S'from'
p159
tp160
F0.00025786487880350697
s(S'then'
p161
S'served'
p162
S'for'
p163
tp164
F0.00025786487880350697
s(S'playing'
p165
S'football'
p166
S'at'
p167
tp168
F0.00025786487880350697
s(S'league'
p169
S'appearances'
p170
S'for'
p171
tp172
F0.00025786487880350697
s(S'[[con]]'
p173
S'professionally'
p174
S'for'
p175
tp176
F0.00025786487880350697
s(S'also'
p177
S'received'
p178
S'[[num]]'
p179
tp180
F0.00025786487880350697
s(S'also'
p181
S'received'
p182
S'in'
p183
tp184
F0.00025786487880350697
s(S'later'
p185
S'moved'
p186
S'at'
p187
tp188
F0.00025786487880350697
s(S'for'
p189
S'[[det]]'
p190
S'located'
p191
tp192
F0.0010314595152140279
s(S'selected'
p193
S'after'
p194
S'[[adj]]'
p195
tp196
F0.00025786487880350697
s(S'which'
p197
S'lead'
p198
S'to'
p199
tp200
F0.00025786487880350697
s(S'[[adj]]'
p201
S'leader'
p202
S'for'
p203
tp204
F0.00025786487880350697
s(S'just'
p205
S'left'
p206
S'for'
p207
tp208
F0.00025786487880350697
s(S'[[num]]'
p209
S'points'
p210
S'[[num]]'
p211
tp212
F0.00025786487880350697
s(S'then'
p213
S'moved'
p214
S'in'
p215
tp216
F0.00025786487880350697
s(S'played'
p217
S'[[adj]]'
p218
S'tackle'
p219
tp220
F0.00025786487880350697
s(S'who'
p221
S'began'
p222
S'as'
p223
tp224
F0.00025786487880350697
s(S'[[det]]'
p225
S'graduated'
p226
S'from'
p227
tp228
F0.00025786487880350697
s(S'at'
p229
S'professionally'
p230
S'for'
p231
tp232
F0.00025786487880350697
s(S'club'
p233
S'football'
p234
S'for'
p235
tp236
F0.0028365136668385767
s(S'[[det]]'
p237
S'linebacker'
p238
S'for'
p239
tp240
F0.00025786487880350697
s(S'basketball'
p241
S'player'
p242
S'currently'
p243
tp244
F0.0005157297576070139
s(S'again'
p245
S'named'
p246
S'as'
p247
tp248
F0.00025786487880350697
s(S'has'
p249
S'played'
p250
S'[[det]]'
p251
tp252
F0.00025786487880350697
s(S'from'
p253
S'playing'
p254
S'in'
p255
tp256
F0.00025786487880350697
s(S'played'
p257
S'with'
p258
S'[[adj]]'
p259
tp260
F0.00025786487880350697
s(S'[[det]]'
p261
S'head'
p262
S'men'
p263
tp264
F0.00025786487880350697
s(S'to'
p265
S'played'
p266
S'for'
p267
tp268
F0.00025786487880350697
s(S'for'
p269
S'[[det]]'
p270
S'held'
p271
tp272
F0.00025786487880350697
s(S'[[det]]'
p273
S'guard'
p274
S'position'
p275
tp276
F0.00025786487880350697
s(S'had'
p277
S'received'
p278
S'[[det]]'
p279
tp280
F0.00025786487880350697
s(S'[[det]]'
p281
S'award'
p282
S'[[num]]'
p283
tp284
F0.00025786487880350697
s(S'in'
p285
g149
g150
tp286
F0.00025786487880350697
s(S'to'
p287
S'play'
p288
S'for'
p289
tp290
F0.00025786487880350697
s(S'where'
p291
S'played'
p292
S'for'
p293
tp294
F0.0005157297576070139
s(S'born'
p295
S'[[con]]'
p296
S'educated'
p297
tp298
F0.0010314595152140279
s(S'football'
p299
S'as'
p300
S'[[det]]'
p301
tp302
F0.0005157297576070139
s(S'had'
p303
S'played'
p304
S'in'
p305
tp306
F0.00025786487880350697
s(S'[[det]]'
p307
S'football'
p308
S'striker'
p309
tp310
F0.0010314595152140279
s(S'was'
p311
S'moved'
p312
S'to'
p313
tp314
F0.00025786487880350697
s(S'been'
p315
S'named'
p316
S'at'
p317
tp318
F0.00025786487880350697
s(S'born'
p319
S'was'
p320
S'[[det]]'
p321
tp322
F0.0005157297576070139
s(S'has'
p323
S'played'
p324
S'with'
p325
tp326
F0.00025786487880350697
s(S'was'
p327
S'playing'
p328
S'for'
p329
tp330
F0.00025786487880350697
s(S'is'
p331
S'football'
p332
S'player'
p333
tp334
F0.00025786487880350697
s(S'has'
p335
S'received'
p336
S'[[det]]'
p337
tp338
F0.00025786487880350697
s(S'to'
p339
S'attend'
p340
S'[[det]]'
p341
tp342
F0.0007735946364105209
s(S'coach'
p343
S'then'
p344
S'known'
p345
tp346
F0.00025786487880350697
s(S'also'
p347
S'received'
p348
S'[[con]]'
p349
tp350
F0.00025786487880350697
s(S'[[adj]]'
p351
S'member'
p352
S'as'
p353
tp354
F0.00025786487880350697
s(S'[[adj]]'
p355
S'member'
p356
S'from'
p357
tp358
F0.00025786487880350697
s(S'[[det]]'
p359
S'season'
p360
S'with'
p361
tp362
F0.00025786487880350697
s(S'had'
p363
S'played'
p364
S'[[det]]'
p365
tp366
F0.00025786487880350697
s(S'had'
p367
S'left'
p368
S'for'
p369
tp370
F0.00025786487880350697
s(S'[[adj]]'
p371
S'playing'
p372
S'for'
p373
tp374
F0.00025786487880350697
s(S'midfielder'
p375
S'who'
p376
S'currently'
p377
tp378
F0.00025786487880350697
s(S'previously'
p379
S'served'
p380
S'as'
p381
tp382
F0.0015471892728210418
s(S'who'
p383
S'play'
p384
S'in'
p385
tp386
F0.00025786487880350697
s(S'also'
p387
S'selected'
p388
S'by'
p389
tp390
F0.00025786487880350697
s(S'began'
p391
S'playing'
p392
S'[[adj]]'
p393
tp394
F0.00025786487880350697
s(S'[[con]]'
p395
S'played'
p396
S'for'
p397
tp398
F0.0007735946364105209
s(S'had'
p399
S'transferred'
p400
S'from'
p401
tp402
F0.00025786487880350697
s(S'[[con]]'
p403
S'played'
p404
S'[[num]]'
p405
tp406
F0.00025786487880350697
s(S'has'
p407
S'signed'
p408
S'with'
p409
tp410
F0.00025786487880350697
s(S'[[prp]]'
p411
S'career'
p412
S'at'
p413
tp414
F0.0025786487880350697
s(S'won'
p415
g281
g282
tp416
F0.00025786487880350697
s(S'again'
p417
S'moved'
p418
S'to'
p419
tp420
F0.00025786487880350697
s(S'played'
p421
S'[[adj]]'
p422
S'lineman'
p423
tp424
F0.00025786487880350697
s(S'career'
p425
S'with'
p426
S'club'
p427
tp428
F0.0005157297576070139
s(S'has'
p429
S'played'
p430
S'in'
p431
tp432
F0.0005157297576070139
s(S'been'
p433
S'signed'
p434
S'by'
p435
tp436
F0.00025786487880350697
s(S'striker'
p437
S'who'
p438
S'plays'
p439
tp440
F0.00025786487880350697
s(S'[[adj]]'
p441
S'member'
p442
S'during'
p443
tp444
F0.00025786487880350697
s(S'been'
p445
S'playing'
p446
S'for'
p447
tp448
F0.00025786487880350697
s(S'[[num]]'
p449
S'years'
p450
S'in'
p451
tp452
F0.0007735946364105209
s(S'was'
p453
S'drafted'
p454
S'[[adj]]'
p455
tp456
F0.00025786487880350697
s(S'scored'
p457
S'[[num]]'
p458
S'points'
p459
tp460
F0.0018050541516245488
s(S'[[det]]'
p461
S'member'
p462
S'from'
p463
tp464
F0.00025786487880350697
s(S'had'
p465
S'played'
p466
S'[[con]]'
p467
tp468
F0.00025786487880350697
s(S'to'
p469
S'head'
p470
S'coach'
p471
tp472
F0.00025786487880350697
s(S'also'
p473
S'honored'
p474
S'in'
p475
tp476
F0.00025786487880350697
s(S'was'
p477
S'leaving'
p478
S'to'
p479
tp480
F0.00025786487880350697
s(S'also'
p481
S'honored'
p482
S'with'
p483
tp484
F0.00025786487880350697
s(S'was'
p485
S'signed'
p486
S'to'
p487
tp488
F0.00025786487880350697
s(S'was'
p489
S'leader'
p490
S'[[con]]'
p491
tp492
F0.00025786487880350697
s(S'then'
p493
S'received'
p494
S'[[prp]]'
p495
tp496
F0.00025786487880350697
s(S'[[num]]'
p497
S'season'
p498
S'with'
p499
tp500
F0.00025786487880350697
s(S'[[adj]]'
p501
S'signed'
p502
S'with'
p503
tp504
F0.00025786487880350697
s(S'[[con]]'
p505
S'played'
p506
S'together'
p507
tp508
F0.00025786487880350697
s(S'before'
p509
S'returned'
p510
S'to'
p511
tp512
F0.00025786487880350697
s(S'then'
p513
S'moved'
p514
S'into'
p515
tp516
F0.00025786487880350697
s(S'[[det]]'
p517
S'moved'
p518
S'to'
p519
tp520
F0.00025786487880350697
s(S'where'
p521
S'received'
p522
S'from'
p523
tp524
F0.00025786487880350697
s(S'played'
p525
S'football'
p526
S'with'
p527
tp528
F0.0010314595152140279
s(S'have'
p529
S'served'
p530
S'in'
p531
tp532
F0.00025786487880350697
s(S'also'
p533
S'enrolled'
p534
S'in'
p535
tp536
F0.00025786487880350697
s(S'[[det]]'
p537
S'rugby'
p538
S'union'
p539
tp540
F0.0005157297576070139
s(S'to'
p541
S'come'
p542
S'back'
p543
tp544
F0.00025786487880350697
s(S'[[con]]'
p545
S'played'
p546
S'[[prp]]'
p547
tp548
F0.00025786487880350697
s(S'[[adj]]'
p549
S'tackle'
p550
S'played'
p551
tp552
F0.00025786487880350697
s(S'being'
p553
S'hired'
p554
S'by'
p555
tp556
F0.00025786487880350697
s(S'[[con]]'
p557
S'attended'
p558
S'[[adj]]'
p559
tp560
F0.00025786487880350697
s(S'football'
p561
S'[[con]]'
p562
S'graduated'
p563
tp564
F0.00025786487880350697
s(S'ndash'
p565
S'[[num]]'
p566
S'[[con]]'
p567
tp568
F0.00025786487880350697
s(S'since'
p569
S'returned'
p570
S'to'
p571
tp572
F0.00025786487880350697
s(S'before'
p573
S'playing'
p574
S'[[det]]'
p575
tp576
F0.00025786487880350697
s(S'then'
p577
S'left'
p578
S'to'
p579
tp580
F0.00025786487880350697
s(S'then'
p581
S'played'
p582
S'[[con]]'
p583
tp584
F0.00025786487880350697
s(S'[[num]]'
p585
S'points'
p586
S'for'
p587
tp588
F0.0005157297576070139
s(S'only'
p589
S'played'
p590
S'with'
p591
tp592
F0.00025786487880350697
s(S'born'
p593
S'[[con]]'
p594
S'later'
p595
tp596
F0.00025786487880350697
s(S'[[prp]]'
p597
S'coaching'
p598
S'career'
p599
tp600
F0.0018050541516245488
s(S'then'
p601
S'served'
p602
S'with'
p603
tp604
F0.00025786487880350697
s(S'later'
p605
S'played'
p606
S'against'
p607
tp608
F0.00025786487880350697
s(S'[[con]]'
p609
S'graduated'
p610
S'now'
p611
tp612
F0.00025786487880350697
s(S'was'
p613
S'originally'
p614
S'signed'
p615
tp616
F0.00025786487880350697
s(S'also'
p617
S'playing'
p618
S'with'
p619
tp620
F0.00025786487880350697
s(S'had'
p621
S'left'
p622
S'[[det]]'
p623
tp624
F0.00025786487880350697
s(S'career'
p625
S'playing'
p626
S'[[adj]]'
p627
tp628
F0.00025786487880350697
s(S'who'
p629
S'graduated'
p630
S'from'
p631
tp632
F0.00025786487880350697
s(S'attended'
p633
S'[[con]]'
p634
S'later'
p635
tp636
F0.00025786487880350697
s(S'instead'
p637
S'signed'
p638
S'for'
p639
tp640
F0.00025786487880350697
s(g309
S'who'
p641
S'currently'
p642
tp643
F0.0005157297576070139
s(S'[[adj]]'
p644
S'football'
p645
S'running'
p646
tp647
F0.0010314595152140279
s(S'played'
p648
S'[[adj]]'
p649
g233
tp650
F0.00025786487880350697
s(S'at'
p651
g273
g274
tp652
F0.00025786487880350697
s(S'school'
p653
S'[[con]]'
p654
S'played'
p655
tp656
F0.00025786487880350697
s(S'that'
p657
S'season'
p658
S'in'
p659
tp660
F0.00025786487880350697
s(S'[[con]]'
p661
S'enrolled'
p662
S'in'
p663
tp664
F0.00025786487880350697
s(S'[[num]]'
p665
S'graduate'
p666
S'of'
p667
tp668
F0.00025786487880350697
s(S'made'
p669
S'head'
p670
S'coach'
p671
tp672
F0.00025786487880350697
s(S'played'
p673
S'for'
p674
S'team'
p675
tp676
F0.0007735946364105209
s(S'served'
p677
S'as'
p678
S'head'
p679
tp680
F0.0033522434244455906
s(S'[[con]]'
p681
S'was'
p682
S'educated'
p683
tp684
F0.0012893243940175349
s(S'was'
p685
S'hired'
p686
S'as'
p687
tp688
F0.00025786487880350697
s(S'best'
p689
S'season'
p690
S'as'
p691
tp692
F0.00025786487880350697
s(S'also'
p693
S'played'
p694
S'from'
p695
tp696
F0.00025786487880350697
s(S'football'
p697
S'[[con]]'
p698
S'has'
p699
tp700
F0.0005157297576070139
s(S'also'
p701
S'play'
p702
S'with'
p703
tp704
F0.00025786487880350697
s(S'then'
p705
S'signed'
p706
S'for'
p707
tp708
F0.00025786487880350697
s(S'[[adj]]'
p709
S'play'
p710
S'against'
p711
tp712
F0.00025786487880350697
s(S'served'
p713
S'as'
p714
S'[[det]]'
p715
tp716
F0.005157297576070139
s(S'also'
p717
S'played'
p718
S'on'
p719
tp720
F0.00025786487880350697
s(S'[[det]]'
p721
S'graduate'
p722
S'assistant'
p723
tp724
F0.00025786487880350697
s(S'[[adj]]'
p725
S'tackle'
p726
S'for'
p727
tp728
F0.0007735946364105209
s(S'was'
p729
S'playing'
p730
S'against'
p731
tp732
F0.00025786487880350697
s(S'[[mod]]'
p733
S'play'
p734
S'in'
p735
tp736
F0.00025786487880350697
s(S'was'
p737
S'member'
p738
S'of'
p739
tp740
F0.00025786487880350697
s(S'play'
p741
S'basketball'
p742
S'for'
p743
tp744
F0.00025786487880350697
s(S'head'
p745
S'basketball'
p746
S'coach'
p747
tp748
F0.0015471892728210418
s(S'[[det]]'
p749
S'[[adj]]'
p750
S'scholarship'
p751
tp752
F0.00025786487880350697
s(S'has'
p753
S'served'
p754
S'before'
p755
tp756
F0.00025786487880350697
s(S'is'
p757
S'named'
p758
S'of'
p759
tp760
F0.00025786487880350697
s(S'have'
p761
S'left'
p762
S'[[det]]'
p763
tp764
F0.00025786487880350697
s(S'which'
p765
S'received'
p766
S'[[det]]'
p767
tp768
F0.00025786487880350697
s(S'played'
p769
S'quarterback'
p770
S'for'
p771
tp772
F0.0007735946364105209
s(S'[[det]]'
p773
S'season'
p774
S'in'
p775
tp776
F0.00025786487880350697
s(S'coach'
p777
S'at'
p778
S'[[con]]'
p779
tp780
F0.00025786487880350697
s(S'club'
p781
S'football'
p782
S'most'
p783
tp784
F0.0005157297576070139
s(S'previously'
p785
S'played'
p786
S'club'
p787
tp788
F0.00025786487880350697
s(g405
S'[[adj]]'
p789
S'games'
p790
tp791
F0.00025786487880350697
s(S'served'
p792
S'head'
p793
S'coach'
p794
tp795
F0.00025786487880350697
s(S'has'
p796
S'served'
p797
S'in'
p798
tp799
F0.00025786487880350697
s(S'later'
p800
S'received'
p801
S'[[con]]'
p802
tp803
F0.00025786487880350697
s(S'college'
p804
S'for'
p805
S'[[det]]'
p806
tp807
F0.00025786487880350697
s(g308
g309
g641
tp808
F0.0007735946364105209
s(g121
S'career'
p809
S'with'
p810
tp811
F0.00025786487880350697
s(S'not'
p812
S'played'
p813
S'for'
p814
tp815
F0.00025786487880350697
s(S'[[num]]'
p816
S'kg'
p817
S'[[adj]]'
p818
tp819
F0.00025786487880350697
s(S'also'
p820
S'served'
p821
S'to'
p822
tp823
F0.00025786487880350697
s(S'is'
p824
S'[[adj]]'
p825
S'football'
p826
tp827
F0.005415162454873646
s(S'rated'
p828
S'[[det]]'
p829
S'[[adj]]'
p830
tp831
F0.00025786487880350697
s(S'college'
p832
S'football'
p833
S'[[det]]'
p834
tp835
F0.00025786487880350697
s(S'played'
p836
S'professionally'
p837
S'[[con]]'
p838
tp839
F0.00025786487880350697
s(S'then'
p840
S'earned'
p841
S'in'
p842
tp843
F0.00025786487880350697
s(S'later'
p844
S'coached'
p845
S'with'
p846
tp847
F0.00025786487880350697
s(S'been'
p848
S'named'
p849
S'of'
p850
tp851
F0.00025786487880350697
s(S'best'
p852
S'known'
p853
S'as'
p854
tp855
F0.00025786487880350697
s(S'received'
p856
S'[[det]]'
p857
S'scholarship'
p858
tp859
F0.0007735946364105209
s(S'then'
p860
S'served'
p861
S'[[det]]'
p862
tp863
F0.00025786487880350697
s(S'been'
p864
S'named'
p865
S'to'
p866
tp867
F0.00025786487880350697
s(S'after'
p868
S'playing'
p869
S'for'
p870
tp871
F0.00025786487880350697
s(g54
g55
S'as'
p872
tp873
F0.00025786487880350697
s(g833
g834
S'member'
p874
tp875
F0.00025786487880350697
s(S'before'
p876
S'[[adj]]'
p877
S'spells'
p878
tp879
F0.00025786487880350697
s(S'[[con]]'
p880
S'coached'
p881
S'at'
p882
tp883
F0.00025786487880350697
s(S'also'
p884
S'signed'
p885
S'by'
p886
tp887
F0.00025786487880350697
s(S'that'
p888
S'played'
p889
S'in'
p890
tp891
F0.00025786487880350697
s(S'[[det]]'
p892
S'student'
p893
S'[[det]]'
p894
tp895
F0.00025786487880350697
s(S'playing'
p896
S'career'
p897
S'at'
p898
tp899
F0.0005157297576070139
s(S'was'
p900
S'entered'
p901
S'at'
p902
tp903
F0.00025786487880350697
s(S'[[prp]]'
p904
S'career'
p905
S'with'
p906
tp907
F0.0038679731820526046
s(S'[[adj]]'
p908
S'received'
p909
S'from'
p910
tp911
F0.00025786487880350697
s(g829
g830
S'player'
p912
tp913
F0.00025786487880350697
s(S'most'
p914
S'notably'
p915
S'with'
p916
tp917
F0.00025786487880350697
s(g121
S'career'
p918
S'at'
p919
tp920
F0.00025786487880350697
s(g626
g627
S'football'
p921
tp922
F0.0005157297576070139
s(S'[[con]]'
p923
S'also'
p924
S'played'
p925
tp926
F0.0012893243940175349
s(S'[[num]]'
p927
S'season'
p928
S'[[det]]'
p929
tp930
F0.00025786487880350697
s(S'later'
p931
S'enrolled'
p932
S'at'
p933
tp934
F0.00025786487880350697
s(S'who'
p935
S'moved'
p936
S'from'
p937
tp938
F0.00025786487880350697
s(S'[[adj]]'
p939
S'seasons'
p940
S'with'
p941
tp942
F0.00025786487880350697
s(S'[[con]]'
p943
S'served'
p944
S'as'
p945
tp946
F0.00025786487880350697
s(S'club'
p947
S'career'
p948
S'for'
p949
tp950
F0.00025786487880350697
s(S'also'
p951
S'named'
p952
S'to'
p953
tp954
F0.00025786487880350697
s(S'played'
p955
S'[[adj]]'
p956
S'football'
p957
tp958
F0.0046415678184631255
s(g747
S'[[num]]'
p959
S'[[con]]'
p960
tp961
F0.0007735946364105209
s(S'was'
p962
S'transferred'
p963
S'with'
p964
tp965
F0.00025786487880350697
s(S'previously'
p966
S'been'
p967
S'[[det]]'
p968
tp969
F0.00025786487880350697
s(S'[[num]]'
p970
S'transferred'
p971
S'to'
p972
tp973
F0.00025786487880350697
s(S'[[det]]'
p974
S'graduate'
p975
S'in'
p976
tp977
F0.00025786487880350697
s(S'been'
p978
S'named'
p979
S'[[con]]'
p980
tp981
F0.00025786487880350697
s(S'never'
p982
S'played'
p983
S'for'
p984
tp985
F0.0005157297576070139
s(S'[[num]]'
p986
S'playing'
p987
S'for'
p988
tp989
F0.00025786487880350697
s(S'also'
p990
S'played'
p991
S'for'
p992
tp993
F0.0023207839092315627
s(S'has'
p994
S'received'
p995
S'[[adj]]'
p996
tp997
F0.00025786487880350697
s(S'also'
p998
S'received'
p999
S'at'
p1000
tp1001
F0.00025786487880350697
s(S'football'
p1002
S'coach'
p1003
S'[[num]]'
p1004
tp1005
F0.0005157297576070139
s(S'[[adj]]'
p1006
S'football'
p1007
S'at'
p1008
tp1009
F0.0005157297576070139
s(S'[[con]]'
p1010
S'then'
p1011
S'graduated'
p1012
tp1013
F0.00025786487880350697
s(S'born'
p1014
S'[[con]]'
p1015
S'attended'
p1016
tp1017
F0.0015471892728210418
s(S'[[con]]'
p1018
g25
g26
tp1019
F0.00025786487880350697
s(S'[[num]]'
p1020
S'[[con]]'
p1021
S'educated'
p1022
tp1023
F0.00025786487880350697
s(S'kg'
p1024
S'forward'
p1025
S'[[con]]'
p1026
tp1027
F0.0005157297576070139
s(S'who'
p1028
S'signed'
p1029
S'[[det]]'
p1030
tp1031
F0.00025786487880350697
s(S'player'
p1032
S'[[det]]'
p1033
S'running'
p1034
tp1035
F0.00025786487880350697
s(S'was'
p1036
S'transferred'
p1037
S'from'
p1038
tp1039
F0.00025786487880350697
s(S'again'
p1040
S'led'
p1041
S'[[det]]'
p1042
tp1043
F0.00025786487880350697
s(S'was'
p1044
S'recruited'
p1045
S'to'
p1046
tp1047
F0.00025786487880350697
s(S'career'
p1048
S'before'
p1049
S'joining'
p1050
tp1051
F0.0018050541516245488
s(S'has'
p1052
S'moved'
p1053
S'on'
p1054
tp1055
F0.00025786487880350697
s(S'to'
p1056
S'play'
p1057
S'[[num]]'
p1058
tp1059
F0.00025786487880350697
s(S'began'
p1060
g165
g166
tp1061
F0.0005157297576070139
s(S'was'
p1062
S'named'
p1063
S'head'
p1064
tp1065
F0.0015471892728210418
s(S'has'
p1066
S'played'
p1067
S'[[num]]'
p1068
tp1069
F0.00025786487880350697
s(S'to'
p1070
S'play'
p1071
S'again'
p1072
tp1073
F0.00025786487880350697
s(S'back'
p1074
S'playing'
p1075
S'for'
p1076
tp1077
F0.00025786487880350697
s(S'played'
p1078
S'for'
p1079
S'[[adj]]'
p1080
tp1081
F0.0010314595152140279
s(S'college'
p1082
S'soccer'
p1083
S'career'
p1084
tp1085
F0.00025786487880350697
s(S'was'
p1086
S'named'
p1087
S'of'
p1088
tp1089
F0.00025786487880350697
s(S'[[con]]'
p1090
S'played'
p1091
S'college'
p1092
tp1093
F0.0018050541516245488
s(S'playing'
p1094
S'before'
p1095
S'joining'
p1096
tp1097
F0.0005157297576070139
s(S'graduated'
p1098
g1090
g1091
tp1099
F0.00025786487880350697
s(S'been'
p1100
S'named'
p1101
S'in'
p1102
tp1103
F0.00025786487880350697
s(S'[[det]]'
p1104
S'team'
p1105
S'[[con]]'
p1106
tp1107
F0.00025786487880350697
s(S'had'
p1108
S'coached'
p1109
S'[[det]]'
p1110
tp1111
F0.00025786487880350697
s(S'[[num]]'
p1112
S'years'
p1113
S'for'
p1114
tp1115
F0.0010314595152140279
s(S'[[num]]'
p1116
S'graduate'
p1117
S'from'
p1118
tp1119
F0.00025786487880350697
s(S'[[con]]'
p1120
S'then'
p1121
S'attended'
p1122
tp1123
F0.0005157297576070139
s(S'[[con]]'
p1124
S'returned'
p1125
S'at'
p1126
tp1127
F0.00025786487880350697
s(S'has'
p1128
S'earned'
p1129
S'from'
p1130
tp1131
F0.00025786487880350697
s(S'also'
p1132
S'attended'
p1133
S'[[con]]'
p1134
tp1135
F0.0005157297576070139
s(S'coming'
p1136
S'to'
p1137
S'also'
p1138
tp1139
F0.00025786487880350697
s(S'[[adj]]'
p1140
S'education'
p1141
S'teacher'
p1142
tp1143
F0.00025786487880350697
s(S'college'
p1144
S'football'
p1145
S'in'
p1146
tp1147
F0.00025786487880350697
s(S'[[prp]]'
p1148
S'hometown'
p1149
S'club'
p1150
tp1151
F0.0005157297576070139
s(S'before'
p1152
S'transferring'
p1153
S'to'
p1154
tp1155
F0.0012893243940175349
s(S'played'
p1156
S'[[num]]'
p1157
S'years'
p1158
tp1159
F0.0030943785456420837
s(S'[[adj]]'
p1160
S'played'
p1161
S'with'
p1162
tp1163
F0.00025786487880350697
s(S'later'
p1164
S'coached'
p1165
S'[[det]]'
p1166
tp1167
F0.00025786487880350697
s(S'then'
p1168
S'played'
p1169
S'then'
p1170
tp1171
F0.00025786487880350697
s(S'[[con]]'
p1172
S'coached'
p1173
S'[[det]]'
p1174
tp1175
F0.00025786487880350697
s(S'football'
p1176
g1018
g25
tp1177
F0.00025786487880350697
s(S'was'
p1178
S'honored'
p1179
S'[[con]]'
p1180
tp1181
F0.00025786487880350697
s(S'when'
p1182
S'attended'
p1183
S'[[det]]'
p1184
tp1185
F0.00025786487880350697
s(S'is'
p1186
S'member'
p1187
S'[[det]]'
p1188
tp1189
F0.00025786487880350697
s(S'[[adj]]'
p1190
S'end'
p1191
S'at'
p1192
tp1193
F0.00025786487880350697
s(S'basketball'
p1194
S'player'
p1195
S'with'
p1196
tp1197
F0.0005157297576070139
s(S'to'
p1198
S'play'
p1199
S'of'
p1200
tp1201
F0.00025786487880350697
s(S'up'
p1202
S'[[con]]'
p1203
S'attended'
p1204
tp1205
F0.0010314595152140279
s(S'attended'
p1206
S'[[adj]]'
p1207
g653
tp1208
F0.00025786487880350697
s(S'also'
p1209
S'earned'
p1210
S'at'
p1211
tp1212
F0.00025786487880350697
s(S'started'
p1213
S'[[prp]]'
p1214
S'club'
p1215
tp1216
F0.0007735946364105209
s(S'had'
p1217
S'served'
p1218
S'in'
p1219
tp1220
F0.00025786487880350697
s(S'when'
p1221
S'led'
p1222
S'[[det]]'
p1223
tp1224
F0.00025786487880350697
s(S'was'
p1225
S'member'
p1226
S'[[num]]'
p1227
tp1228
F0.00025786487880350697
s(S'coaching'
p1229
S'career'
p1230
S'as'
p1231
tp1232
F0.0005157297576070139
s(S'again'
p1233
S'served'
p1234
S'to'
p1235
tp1236
F0.00025786487880350697
s(S'as'
p1237
S'[[det]]'
p1238
S'defender'
p1239
tp1240
F0.00025786487880350697
s(S'best'
p1241
S'known'
p1242
S'for'
p1243
tp1244
F0.00025786487880350697
s(S'when'
p1245
S'playing'
p1246
S'for'
p1247
tp1248
F0.00025786487880350697
s(S'is'
p1249
S'transferred'
p1250
S'to'
p1251
tp1252
F0.00025786487880350697
s(S'running'
p1253
S'back'
p1254
S'who'
p1255
tp1256
F0.0010314595152140279
s(S'football'
p1257
S'[[con]]'
p1258
S'thereafter'
p1259
tp1260
F0.00025786487880350697
s(S'career'
p1261
S'at'
p1262
S'also'
p1263
tp1264
F0.00025786487880350697
s(S'[[con]]'
p1265
S'also'
p1266
S'represented'
p1267
tp1268
F0.00025786487880350697
s(S'has'
p1269
S'coached'
p1270
S'for'
p1271
tp1272
F0.00025786487880350697
s(S'was'
p1273
S'graduated'
p1274
S'from'
p1275
tp1276
F0.0007735946364105209
s(S'football'
p1277
S'[[con]]'
p1278
S'basketball'
p1279
tp1280
F0.0005157297576070139
s(S'be'
p1281
S'honored'
p1282
S'by'
p1283
tp1284
F0.00025786487880350697
s(S'later'
p1285
S'selected'
p1286
S'by'
p1287
tp1288
F0.00025786487880350697
s(S'with'
p1289
S'[[adj]]'
p1290
S'club'
p1291
tp1292
F0.0012893243940175349
s(S'played'
p1293
S'for'
p1294
S'[[num]]'
p1295
tp1296
F0.0010314595152140279
s(S'born'
p1297
S'in'
p1298
S'where'
p1299
tp1300
F0.0005157297576070139
s(S'also'
p1301
S'received'
p1302
S'[[det]]'
p1303
tp1304
F0.00025786487880350697
s(g1258
g1259
S'played'
p1305
tp1306
F0.0005157297576070139
s(S'to'
p1307
S'play'
p1308
S'[[adj]]'
p1309
tp1310
F0.0007735946364105209
s(S'[[pro]]'
p1311
S'basketball'
p1312
S'player'
p1313
tp1314
F0.00025786487880350697
s(S'[[adj]]'
p1315
S'year'
p1316
S'at'
p1317
tp1318
F0.00025786487880350697
s(S'[[adj]]'
p1319
S'come'
p1320
S'to'
p1321
tp1322
F0.00025786487880350697
s(S'has'
p1323
S'previously'
p1324
S'served'
p1325
tp1326
F0.00025786487880350697
s(S'where'
p1327
S'signed'
p1328
S'for'
p1329
tp1330
F0.00025786487880350697
s(S'college'
p1331
S'football'
p1332
S'for'
p1333
tp1334
F0.0010314595152140279
s(S'also'
p1335
S'served'
p1336
S'on'
p1337
tp1338
F0.00025786487880350697
s(S'was'
p1339
S'born'
p1340
S'[[num]]'
p1341
tp1342
F0.0005157297576070139
s(S'before'
p1343
S'leaving'
p1344
S'[[det]]'
p1345
tp1346
F0.00025786487880350697
s(S'[[det]]'
p1347
S'team'
p1348
S'that'
p1349
tp1350
F0.00025786487880350697
s(S'[[num]]'
p1351
S'graduated'
p1352
S'from'
p1353
tp1354
F0.0005157297576070139
s(S'was'
p1355
S'recruited'
p1356
S'by'
p1357
tp1358
F0.0005157297576070139
s(S'then'
p1359
S'attended'
p1360
S'now'
p1361
tp1362
F0.00025786487880350697
s(S'career'
p1363
S'playing'
p1364
S'before'
p1365
tp1366
F0.00025786487880350697
s(S'also'
p1367
S'starred'
p1368
S'on'
p1369
tp1370
F0.00025786487880350697
s(S'[[det]]'
p1371
S'career'
p1372
S'in'
p1373
tp1374
F0.00025786487880350697
s(S'was'
p1375
S'moved'
p1376
S'as'
p1377
tp1378
F0.00025786487880350697
s(S'[[adj]]'
p1379
S'team'
p1380
S'[[det]]'
p1381
tp1382
F0.0005157297576070139
s(S'not'
p1383
S'play'
p1384
S'for'
p1385
tp1386
F0.00025786487880350697
s(S'was'
p1387
S'enrolled'
p1388
S'as'
p1389
tp1390
F0.00025786487880350697
s(S'was'
p1391
S'honored'
p1392
S'at'
p1393
tp1394
F0.00025786487880350697
s(S'[[prp]]'
p1395
S'transfer'
p1396
S'to'
p1397
tp1398
F0.00025786487880350697
s(S'[[det]]'
p1399
S'team'
p1400
S'played'
p1401
tp1402
F0.00025786487880350697
s(S'[[det]]'
p1403
S'assistant'
p1404
S'at'
p1405
tp1406
F0.00025786487880350697
s(S'[[con]]'
p1407
S'had'
p1408
S'spells'
p1409
tp1410
F0.00025786487880350697
s(S'to'
p1411
S'star'
p1412
S'[[con]]'
p1413
tp1414
F0.00025786487880350697
s(g715
S'head'
p1415
S'coach'
p1416
tp1417
F0.010056730273336771
s(S'coach'
p1418
S'[[con]]'
p1419
S'[[adj]]'
p1420
tp1421
F0.0012893243940175349
s(S'then'
p1422
S'signed'
p1423
S'in'
p1424
tp1425
F0.00025786487880350697
s(S'played'
p1426
S'football'
p1427
S'before'
p1428
tp1429
F0.00025786487880350697
s(S'was'
p1430
S'moved'
p1431
S'after'
p1432
tp1433
F0.00025786487880350697
s(S'also'
p1434
S'coached'
p1435
S'in'
p1436
tp1437
F0.00025786487880350697
s(S'[[num]]'
p1438
S'points'
p1439
S'against'
p1440
tp1441
F0.0005157297576070139
s(S'play'
p1442
S'football'
p1443
S'at'
p1444
tp1445
F0.00025786487880350697
s(S'[[adj]]'
p1446
S'signed'
p1447
S'by'
p1448
tp1449
F0.00025786487880350697
s(g1313
S'who'
p1450
S'playing'
p1451
tp1452
F0.00025786487880350697
s(S'manager'
p1453
S'who'
p1454
S'played'
p1455
tp1456
F0.00025786487880350697
s(S'when'
p1457
S'transferred'
p1458
S'to'
p1459
tp1460
F0.00025786487880350697
s(S'head'
p1461
S'[[con]]'
p1462
S'[[adj]]'
p1463
tp1464
F0.00025786487880350697
s(S'[[con]]'
p1465
S'[[num]]'
p1466
S'graduated'
p1467
tp1468
F0.00025786487880350697
s(S'again'
p1469
S'selected'
p1470
S'for'
p1471
tp1472
F0.00025786487880350697
s(S'was'
p1473
S'honored'
p1474
S'as'
p1475
tp1476
F0.00025786487880350697
s(S'[[con]]'
p1477
S'graduated'
p1478
S'[[det]]'
p1479
tp1480
F0.00025786487880350697
s(S'from'
p1481
S'[[con]]'
p1482
S'attended'
p1483
tp1484
F0.00025786487880350697
s(S'football'
p1485
S'career'
p1486
S'before'
p1487
tp1488
F0.0010314595152140279
s(S'later'
p1489
S'hired'
p1490
S'by'
p1491
tp1492
F0.00025786487880350697
s(S'is'
p1493
S'[[det]]'
p1494
S'head'
p1495
tp1496
F0.00025786487880350697
s(S'played'
p1497
S'quarterback'
p1498
S'in'
p1499
tp1500
F0.00025786487880350697
s(S'[[con]]'
p1501
S'was'
p1502
S'drafted'
p1503
tp1504
F0.0005157297576070139
s(S'attended'
p1505
g109
g110
tp1506
F0.00025786487880350697
s(S'football'
p1507
S'safety'
p1508
S'in'
p1509
tp1510
F0.00025786487880350697
s(S'[[prp]]'
p1511
S'career'
p1512
S'[[con]]'
p1513
tp1514
F0.0023207839092315627
s(S'formerly'
p1515
S'played'
p1516
S'with'
p1517
tp1518
F0.00025786487880350697
s(S'playing'
p1519
S'football'
p1520
S'for'
p1521
tp1522
F0.0005157297576070139
s(g566
g567
S'played'
p1523
tp1524
F0.00025786487880350697
s(S'was'
p1525
S'selected'
p1526
S'as'
p1527
tp1528
F0.00025786487880350697
s(S'[[det]]'
p1529
S'year'
p1530
S'to'
p1531
tp1532
F0.00025786487880350697
s(S'was'
p1533
S'selected'
p1534
S'to'
p1535
tp1536
F0.00025786487880350697
s(g1259
g1305
S'professionally'
p1537
tp1538
F0.0007735946364105209
s(S'before'
p1539
S'moving'
p1540
S'to'
p1541
tp1542
F0.0010314595152140279
s(S'playing'
p1543
S'football'
p1544
S'with'
p1545
tp1546
F0.00025786487880350697
s(S'football'
p1547
g1152
g1153
tp1548
F0.0005157297576070139
s(S'was'
p1549
S'signed'
p1550
S'by'
p1551
tp1552
F0.0005157297576070139
s(S'[[num]]'
p1553
S'[[adj]]'
p1554
S'association'
p1555
tp1556
F0.0007735946364105209
s(S'also'
p1557
S'played'
p1558
S'football'
p1559
tp1560
F0.0015471892728210418
s(g138
g139
S'player'
p1561
tp1562
F0.0012893243940175349
s(S'has'
p1563
S'received'
p1564
S'[[num]]'
p1565
tp1566
F0.00025786487880350697
s(S'named'
p1567
S'head'
p1568
S'basketball'
p1569
tp1570
F0.00025786487880350697
s(S'[[con]]'
p1571
S'left'
p1572
S'to'
p1573
tp1574
F0.00025786487880350697
s(S'to'
p1575
S'play'
p1576
S'[[con]]'
p1577
tp1578
F0.00025786487880350697
s(S'also'
p1579
S'served'
p1580
S'until'
p1581
tp1582
F0.00025786487880350697
s(g194
g195
S'career'
p1583
tp1584
F0.00025786487880350697
s(S'[[adj]]'
p1585
S'play'
p1586
S'in'
p1587
tp1588
F0.00025786487880350697
s(S'[[pro]]'
p1589
S'led'
p1590
S'[[det]]'
p1591
tp1592
F0.00025786487880350697
s(S'has'
p1593
S'served'
p1594
S'at'
p1595
tp1596
F0.00025786487880350697
s(S'[[con]]'
p1597
S'coach'
p1598
S'[[det]]'
p1599
tp1600
F0.00025786487880350697
s(S'football'
p1601
S'player'
p1602
S'[[det]]'
p1603
tp1604
F0.0007735946364105209
s(S'[[adj]]'
p1605
S'union'
p1606
S'player'
p1607
tp1608
F0.0007735946364105209
s(S'ranks'
p1609
S'[[adj]]'
p1610
S'[[det]]'
p1611
tp1612
F0.00025786487880350697
s(S'[[num]]'
p1613
S'seasons'
p1614
S'at'
p1615
tp1616
F0.00025786487880350697
s(S'[[adj]]'
p1617
S'football'
p1618
S'soccer'
p1619
tp1620
F0.0010314595152140279
s(S'later'
p1621
S'signed'
p1622
S'for'
p1623
tp1624
F0.00025786487880350697
s(S'was'
p1625
S'member'
p1626
S'[[det]]'
p1627
tp1628
F0.00025786487880350697
s(S'again'
p1629
S'selected'
p1630
S'in'
p1631
tp1632
F0.00025786487880350697
s(S'was'
p1633
S'previously'
p1634
S'[[det]]'
p1635
tp1636
F0.0007735946364105209
s(S'in'
p1637
S'college'
p1638
S'at'
p1639
tp1640
F0.00025786487880350697
s(S'then'
p1641
S'moved'
p1642
S'to'
p1643
tp1644
F0.00025786487880350697
s(S'pitcher'
p1645
g221
g222
tp1646
F0.00025786487880350697
s(S'played'
p1647
S'football'
p1648
S'for'
p1649
tp1650
F0.0012893243940175349
s(S'[[adj]]'
p1651
S'career'
p1652
S'at'
p1653
tp1654
F0.0007735946364105209
s(S'football'
p1655
S'[[con]]'
p1656
S'later'
p1657
tp1658
F0.00025786487880350697
s(S'[[det]]'
p1659
S'member'
p1660
S'for'
p1661
tp1662
F0.00025786487880350697
s(S'was'
p1663
S'leader'
p1664
S'of'
p1665
tp1666
F0.00025786487880350697
s(S'when'
p1667
S'signed'
p1668
S'for'
p1669
tp1670
F0.00025786487880350697
s(S'also'
p1671
S'attended'
p1672
S'for'
p1673
tp1674
F0.00025786487880350697
s(S'also'
p1675
S'attended'
p1676
S'[[det]]'
p1677
tp1678
F0.0005157297576070139
s(S'was'
p1679
S'hired'
p1680
S'on'
p1681
tp1682
F0.00025786487880350697
s(S'player'
p1683
S'who'
p1684
S'currently'
p1685
tp1686
F0.0025786487880350697
s(S'became'
p1687
S'member'
p1688
S'of'
p1689
tp1690
F0.00025786487880350697
s(S'later'
p1691
S'played'
p1692
S'in'
p1693
tp1694
F0.00025786487880350697
s(S'graduated'
p1695
S'[[con]]'
p1696
S'later'
p1697
tp1698
F0.0005157297576070139
s(S'played'
p1699
S'[[num]]'
p1700
S'more'
p1701
tp1702
F0.00025786487880350697
s(S'was'
p1703
S'coach'
p1704
S'of'
p1705
tp1706
F0.00025786487880350697
s(S'[[con]]'
p1707
S'received'
p1708
S'at'
p1709
tp1710
F0.00025786487880350697
s(S'later'
p1711
S'left'
p1712
S'for'
p1713
tp1714
F0.00025786487880350697
s(S'lb'
p1715
g816
g817
tp1716
F0.0007735946364105209
s(S'[[pro]]'
p1717
S'graduated'
p1718
S'from'
p1719
tp1720
F0.00025786487880350697
s(S'had'
p1721
S'served'
p1722
S'as'
p1723
tp1724
F0.00025786487880350697
s(S'[[con]]'
p1725
S'member'
p1726
S'of'
p1727
tp1728
F0.00025786487880350697
s(S'was'
p1729
S'born'
p1730
S'where'
p1731
tp1732
F0.0007735946364105209
s(g805
g806
S'football'
p1733
tp1734
F0.00025786487880350697
s(S'from'
p1735
S'[[con]]'
p1736
g1078
tp1737
F0.00025786487880350697
s(S'also'
p1738
S'played'
p1739
S'club'
p1740
tp1741
F0.00025786487880350697
s(S'whom'
p1742
S'won'
p1743
S'[[det]]'
p1744
tp1745
F0.0005157297576070139
s(g678
g679
S'coach'
p1746
tp1747
F0.0033522434244455906
s(S'also'
p1748
S'received'
p1749
S'from'
p1750
tp1751
F0.00025786487880350697
s(S'also'
p1752
S'served'
p1753
S'[[det]]'
p1754
tp1755
F0.00025786487880350697
s(S'with'
p1756
S'played'
p1757
S'club'
p1758
tp1759
F0.00025786487880350697
s(S'football'
p1760
S'player'
p1761
S'who'
p1762
tp1763
F0.009025270758122744
s(S'college'
p1764
g1547
g1152
tp1765
F0.00025786487880350697
s(S'[[adj]]'
p1766
S'football'
p1767
S'head'
p1768
tp1769
F0.00025786487880350697
s(S'[[num]]'
p1770
S'points'
p1771
S'at'
p1772
tp1773
F0.0005157297576070139
s(S'started'
p1774
S'[[prp]]'
p1775
S'[[adj]]'
p1776
tp1777
F0.0012893243940175349
s(S'later'
p1778
S'served'
p1779
S'at'
p1780
tp1781
F0.00025786487880350697
s(S'[[con]]'
p1782
S'entered'
p1783
S'[[det]]'
p1784
tp1785
F0.00025786487880350697
s(S'[[num]]'
p1786
S'season'
p1787
g121
tp1788
F0.00025786487880350697
s(S'was'
p1789
S'selected'
p1790
S'from'
p1791
tp1792
F0.00025786487880350697
s(S'also'
p1793
S'played'
p1794
S'to'
p1795
tp1796
F0.00025786487880350697
s(S'[[num]]'
p1797
S'cm'
p1798
S'[[num]]'
p1799
tp1800
F0.00025786487880350697
s(S'[[con]]'
p1801
S'formerly'
p1802
S'played'
p1803
tp1804
F0.00025786487880350697
s(S'born'
p1805
S'was'
p1806
S'educated'
p1807
tp1808
F0.0005157297576070139
s(g1298
g1299
S'attended'
p1809
tp1810
F0.0005157297576070139
s(S'played'
p1811
S'basketball'
p1812
S'in'
p1813
tp1814
F0.00025786487880350697
s(S'then'
p1815
S'earned'
p1816
S'from'
p1817
tp1818
F0.00025786487880350697
s(S'who'
p1819
S'has'
p1820
S'played'
p1821
tp1822
F0.0007735946364105209
s(g1312
g1313
g1450
tp1823
F0.0020629190304280558
s(S'football'
p1824
S'after'
p1825
S'graduating'
p1826
tp1827
F0.00025786487880350697
s(S'[[det]]'
p1828
S'year'
p1829
S'as'
p1830
tp1831
F0.00025786487880350697
s(S'was'
p1832
S'educated'
p1833
S'there'
p1834
tp1835
F0.00025786487880350697
s(g422
g423
S'for'
p1836
tp1837
F0.00025786487880350697
s(S'with'
p1838
S'[[prp]]'
p1839
S'hometown'
p1840
tp1841
F0.00025786487880350697
s(S'[[det]]'
p1842
S'head'
p1843
S'football'
p1844
tp1845
F0.005415162454873646
s(S'born'
p1846
S'[[con]]'
p1847
S'played'
p1848
tp1849
F0.00025786487880350697
s(S'also'
p1850
S'coached'
p1851
S'for'
p1852
tp1853
F0.00025786487880350697
s(g1762
S'played'
p1854
S'college'
p1855
tp1856
F0.00025786487880350697
s(g1619
S'player'
p1857
S'[[con]]'
p1858
tp1859
F0.00025786487880350697
s(S'[[adj]]'
p1860
S'team'
p1861
S'of'
p1862
tp1863
F0.0007735946364105209
s(S'scored'
p1864
S'[[prp]]'
p1865
S'[[adj]]'
p1866
tp1867
F0.00025786487880350697
s(S'played'
p1868
S'[[prp]]'
p1869
S'college'
p1870
tp1871
F0.0010314595152140279
s(S'coach'
p1872
S'located'
p1873
S'in'
p1874
tp1875
F0.00025786487880350697
s(S'was'
p1876
S'signed'
p1877
S'under'
p1878
tp1879
F0.00025786487880350697
s(S'[[con]]'
p1880
S'educated'
p1881
S'first'
p1882
tp1883
F0.00025786487880350697
s(S'football'
p1884
S'coach'
p1885
S'with'
p1886
tp1887
F0.00025786487880350697
s(S'later'
p1888
S'signed'
p1889
S'with'
p1890
tp1891
F0.00025786487880350697
s(S'on'
p1892
S'[[det]]'
p1893
S'team'
p1894
tp1895
F0.0005157297576070139
s(S'[[det]]'
p1896
S'member'
p1897
S'until'
p1898
tp1899
F0.00025786487880350697
s(S'been'
p1900
S'named'
p1901
S'by'
p1902
tp1903
F0.00025786487880350697
s(S'later'
p1904
S'attended'
p1905
S'college'
p1906
tp1907
F0.00025786487880350697
s(S'mainly'
p1908
S'played'
p1909
S'for'
p1910
tp1911
F0.00025786487880350697
s(S'then'
p1912
S'attended'
p1913
S'before'
p1914
tp1915
F0.00025786487880350697
s(S'[[det]]'
p1916
S'served'
p1917
S'in'
p1918
tp1919
F0.00025786487880350697
s(S'[[con]]'
p1920
S'served'
p1921
S'at'
p1922
tp1923
F0.0005157297576070139
s(g817
g818
S'forward'
p1924
tp1925
F0.00025786487880350697
s(g1242
g1243
S'[[det]]'
p1926
tp1927
F0.00025786487880350697
s(S'also'
p1928
S'named'
p1929
S'for'
p1930
tp1931
F0.00025786487880350697
s(S'played'
p1932
S'[[con]]'
p1933
S'[[det]]'
p1934
tp1935
F0.00025786487880350697
s(S'football'
p1936
S'career'
p1937
S'with'
p1938
tp1939
F0.0015471892728210418
s(S'born'
p1940
S'in'
p1941
S'educated'
p1942
tp1943
F0.00025786487880350697
s(S'is'
p1944
S'member'
p1945
S'[[con]]'
p1946
tp1947
F0.00025786487880350697
s(S'[[con]]'
p1948
S'leader'
p1949
S'of'
p1950
tp1951
F0.00025786487880350697
s(S'also'
p1952
S'played'
p1953
S'with'
p1954
tp1955
F0.0007735946364105209
s(S'[[num]]'
p1956
S'[[adj]]'
p1957
S'head'
p1958
tp1959
F0.00025786487880350697
s(S'became'
p1960
S'head'
p1961
S'football'
p1962
tp1963
F0.00025786487880350697
s(S'[[adj]]'
p1964
S'end'
p1965
S'with'
p1966
tp1967
F0.00025786487880350697
s(S'[[adj]]'
p1968
S'quarterback'
p1969
S'for'
p1970
tp1971
F0.00025786487880350697
s(S'[[adj]]'
p1972
S'team'
p1973
S'[[num]]'
p1974
tp1975
F0.00025786487880350697
s(S'formerly'
p1976
S'played'
p1977
S'for'
p1978
tp1979
F0.0005157297576070139
s(S'also'
p1980
S'earned'
p1981
S'from'
p1982
tp1983
F0.00025786487880350697
s(S'only'
p1984
S'played'
p1985
S'against'
p1986
tp1987
F0.00025786487880350697
s(S'where'
p1988
S'played'
p1989
S'against'
p1990
tp1991
F0.00025786487880350697
s(S'[[prp]]'
p1992
S'football'
p1993
S'career'
p1994
tp1995
F0.0041258380608561115
s(S'ever'
p1996
S'play'
p1997
S'for'
p1998
tp1999
F0.00025786487880350697
s(S'later'
p2000
S'earned'
p2001
S'in'
p2002
tp2003
F0.00025786487880350697
s(S'football'
p2004
S'player'
p2005
S'[[con]]'
p2006
tp2007
F0.0010314595152140279
s(S'while'
p2008
S'playing'
p2009
S'for'
p2010
tp2011
F0.00025786487880350697
s(S'was'
p2012
S'selected'
p2013
S'by'
p2014
tp2015
F0.0012893243940175349
s(S'where'
p2016
S'entered'
p2017
S'[[det]]'
p2018
tp2019
F0.00025786487880350697
s(S'first'
p2020
S'played'
p2021
S'in'
p2022
tp2023
F0.00025786487880350697
s(S'football'
p2024
S'career'
p2025
S'as'
p2026
tp2027
F0.0005157297576070139
s(g1767
g1768
S'coach'
p2028
tp2029
F0.00025786487880350697
s(S'[[det]]'
p2030
S'youth'
p2031
S'team'
p2032
tp2033
F0.00025786487880350697
s(S'now'
p2034
S'signed'
p2035
S'with'
p2036
tp2037
F0.00025786487880350697
s(S'football'
p2038
g1872
g1873
tp2039
F0.00025786487880350697
s(S'at'
p2040
S'hometown'
p2041
S'club'
p2042
tp2043
F0.0005157297576070139
s(S'is'
p2044
S'[[det]]'
p2045
S'football'
p2046
tp2047
F0.0018050541516245488
s(S'[[num]]'
p2048
S'years'
p2049
S'as'
p2050
tp2051
F0.00025786487880350697
s(S'again'
p2052
S'served'
p2053
S'with'
p2054
tp2055
F0.00025786487880350697
s(S'then'
p2056
S'coached'
p2057
S'in'
p2058
tp2059
F0.00025786487880350697
s(S'who'
p2060
S'attended'
p2061
S'[[det]]'
p2062
tp2063
F0.00025786487880350697
s(S'then'
p2064
S'returned'
p2065
S'at'
p2066
tp2067
F0.00025786487880350697
s(S'been'
p2068
S'honored'
p2069
S'[[det]]'
p2070
tp2071
F0.00025786487880350697
s(S'[[con]]'
p2072
S'played'
p2073
S'against'
p2074
tp2075
F0.00025786487880350697
s(S'began'
p2076
S'[[prp]]'
p2077
S'club'
p2078
tp2079
F0.00025786487880350697
s(S'was'
p2080
S'transferred'
p2081
S'to'
p2082
tp2083
F0.00025786487880350697
s(g956
g957
S'for'
p2084
tp2085
F0.0028365136668385767
s(S'later'
p2086
S'led'
p2087
S'[[det]]'
p2088
tp2089
F0.00025786487880350697
s(g82
g83
S'head'
p2090
tp2091
F0.0005157297576070139
s(S'including'
p2092
S'[[det]]'
p2093
S'winning'
p2094
tp2095
F0.00025786487880350697
s(S'who'
p2096
S'played'
p2097
g1237
tp2098
F0.00025786487880350697
s(S'later'
p2099
S'transferred'
p2100
S'to'
p2101
tp2102
F0.00025786487880350697
s(g547
S'club'
p2103
S'football'
p2104
tp2105
F0.0025786487880350697
s(S'once'
p2106
S'played'
p2107
S'football'
p2108
tp2109
F0.00025786487880350697
s(S'also'
p2110
S'named'
p2111
S'of'
p2112
tp2113
F0.00025786487880350697
s(S'which'
p2114
S'returned'
p2115
S'to'
p2116
tp2117
F0.00025786487880350697
s(S'is'
p2118
S'[[adj]]'
p2119
S'player'
p2120
tp2121
F0.00025786487880350697
s(S'soon'
p2122
S'transferred'
p2123
S'to'
p2124
tp2125
F0.00025786487880350697
s(S'[[con]]'
p2126
S'also'
p2127
S'attended'
p2128
tp2129
F0.0005157297576070139
s(S'[[det]]'
p2130
S'located'
p2131
S'in'
p2132
tp2133
F0.0005157297576070139
s(S'was'
p2134
S'selected'
p2135
S'[[det]]'
p2136
tp2137
F0.00025786487880350697
s(g1079
g1080
S'teams'
p2138
tp2139
F0.0005157297576070139
s(S'was'
p2140
S'enrolled'
p2141
S'in'
p2142
tp2143
F0.00025786487880350697
s(S'was'
p2144
S'[[adj]]'
p2145
S'head'
p2146
tp2147
F0.00025786487880350697
s(S'best'
p2148
S'season'
p2149
S'for'
p2150
tp2151
F0.00025786487880350697
s(S'to'
p2152
S'play'
p2153
S'football'
p2154
tp2155
F0.0012893243940175349
s(S'[[adj]]'
p2156
g1884
g1885
tp2157
F0.0007735946364105209
s(S'[[adj]]'
p2158
S'year'
p2159
S'for'
p2160
tp2161
F0.00025786487880350697
s(S'been'
p2162
S'honored'
p2163
S'with'
p2164
tp2165
F0.00025786487880350697
s(S'started'
p2166
g1543
g1544
tp2167
F0.0005157297576070139
s(S'college'
p2168
S'career'
p2169
S'at'
p2170
tp2171
F0.0005157297576070139
s(g1049
g1050
S'[[det]]'
p2172
tp2173
F0.0005157297576070139
s(S'played'
p2174
S'on'
p2175
S'team'
p2176
tp2177
F0.00025786487880350697
s(S'[[det]]'
p2178
S'football'
p2179
S'linebacker'
p2180
tp2181
F0.00025786487880350697
s(S'had'
p2182
S'committed'
p2183
S'to'
p2184
tp2185
F0.00025786487880350697
s(g344
g345
S'as'
p2186
tp2187
F0.00025786487880350697
s(S'[[con]]'
p2188
S'played'
p2189
S'club'
p2190
tp2191
F0.00025786487880350697
s(S'then'
p2192
S'served'
p2193
S'to'
p2194
tp2195
F0.00025786487880350697
s(S'began'
p2196
g1992
g1993
tp2197
F0.0025786487880350697
s(S'[[det]]'
p2198
S'defender'
p2199
S'began'
p2200
tp2201
F0.0005157297576070139
s(g1157
g1158
S'from'
p2202
tp2203
F0.00025786487880350697
s(S'where'
p2204
S'enrolled'
p2205
S'in'
p2206
tp2207
F0.00025786487880350697
s(S'became'
p2208
S'leader'
p2209
S'of'
p2210
tp2211
F0.00025786487880350697
s(g263
g121
S'basketball'
p2212
tp2213
F0.0023207839092315627
s(S'also'
p2214
S'graduated'
p2215
S'from'
p2216
tp2217
F0.00025786487880350697
s(S'attended'
p2218
g1010
g1011
tp2219
F0.00025786487880350697
s(S'career'
p2220
S'[[con]]'
p2221
S'also'
p2222
tp2223
F0.0007735946364105209
s(g858
S'to'
p2224
S'attend'
p2225
tp2226
F0.0010314595152140279
s(S'[[adj]]'
p2227
S'team'
p2228
S'[[con]]'
p2229
tp2230
F0.00025786487880350697
s(g1278
g1279
S'at'
p2231
tp2232
F0.0005157297576070139
s(S'[[det]]'
p2233
S'year'
p2234
S'with'
p2235
tp2236
F0.00025786487880350697
s(S'while'
p2237
S'played'
p2238
S'for'
p2239
tp2240
F0.00025786487880350697
s(S'college'
p2241
S'basketball'
p2242
g1355
tp2243
F0.00025786487880350697
s(S'in'
p2244
g97
g98
tp2245
F0.0007735946364105209
s(S'[[det]]'
p2246
S'member'
p2247
S'which'
p2248
tp2249
F0.00025786487880350697
s(S'[[det]]'
p2250
S'quarterback'
p2251
S'for'
p2252
tp2253
F0.00025786487880350697
s(S'by'
p2254
S'[[det]]'
p2255
S'round'
p2256
tp2257
F0.00025786487880350697
s(S'was'
p2258
S'served'
p2259
S'as'
p2260
tp2261
F0.00025786487880350697
s(S'football'
p2262
S'midfielder'
p2263
S'who'
p2264
tp2265
F0.0005157297576070139
s(S'was'
p2266
S'hired'
p2267
S'at'
p2268
tp2269
F0.00025786487880350697
s(S'[[adj]]'
p2270
S'year'
p2271
S'with'
p2272
tp2273
F0.00025786487880350697
s(S'career'
p2274
S'before'
p2275
g1136
tp2276
F0.00025786487880350697
s(S'also'
p2277
S'drafted'
p2278
g2254
tp2279
F0.00025786487880350697
s(S'grew'
p2280
S'up'
p2281
S'[[con]]'
p2282
tp2283
F0.0012893243940175349
s(S'men'
p2284
g121
S'head'
p2285
tp2286
F0.00025786487880350697
s(g1064
S'coach'
p2287
S'in'
p2288
tp2289
F0.0007735946364105209
s(S'have'
p2290
S'played'
p2291
S'for'
p2292
tp2293
F0.00025786487880350697
s(g1618
g1619
g1857
tp2294
F0.0012893243940175349
s(g1740
S'football'
p2295
S'winning'
p2296
tp2297
F0.00025786487880350697
s(S'to'
p2298
S'star'
p2299
S'on'
p2300
tp2301
F0.00025786487880350697
s(S'best'
p2302
S'season'
p2303
S'in'
p2304
tp2305
F0.00025786487880350697
s(S'was'
p2306
S'drafted'
p2307
g2244
tp2308
F0.0010314595152140279
s(S'before'
p2309
S'moved'
p2310
S'to'
p2311
tp2312
F0.00025786487880350697
s(S'[[num]]'
p2313
S'[[adj]]'
p2314
S'years'
p2315
tp2316
F0.00025786487880350697
s(S'football'
p2317
S'coach'
p2318
S'in'
p2319
tp2320
F0.00025786487880350697
s(S'[[adj]]'
p2321
S'season'
p2322
S'with'
p2323
tp2324
F0.00025786487880350697
s(S'later'
p2325
S'played'
p2326
S'[[con]]'
p2327
tp2328
F0.00025786487880350697
s(S'[[adj]]'
p2329
S'student'
p2330
S'[[det]]'
p2331
tp2332
F0.00025786487880350697
s(S'also'
p2333
S'served'
p2334
S'at'
p2335
tp2336
F0.00025786487880350697
s(S'also'
p2337
S'played'
p2338
S'twice'
p2339
tp2340
F0.00025786487880350697
s(S'was'
p2341
S'signed'
p2342
S'for'
p2343
tp2344
F0.00025786487880350697
s(S'then'
p2345
S'moved'
p2346
S'with'
p2347
tp2348
F0.00025786487880350697
s(S'while'
p2349
S'playing'
p2350
S'with'
p2351
tp2352
F0.00025786487880350697
s(S'was'
p2353
S'coach'
p2354
S'for'
p2355
tp2356
F0.00025786487880350697
s(S'was'
p2357
S'born'
p2358
S'into'
p2359
tp2360
F0.00025786487880350697
s(S'career'
p2361
S'at'
p2362
S'[[adj]]'
p2363
tp2364
F0.0005157297576070139
s(g834
g874
S'of'
p2365
tp2366
F0.0020629190304280558
s(S'formerly'
p2367
S'served'
p2368
S'at'
p2369
tp2370
F0.00025786487880350697
s(S'also'
p2371
S'selected'
p2372
S'[[det]]'
p2373
tp2374
F0.00025786487880350697
s(S'[[prp]]'
p2375
S'college'
p2376
S'basketball'
p2377
tp2378
F0.00025786487880350697
s(S'also'
p2379
S'playing'
p2380
S'for'
p2381
tp2382
F0.00025786487880350697
s(S'career'
p2383
S'[[con]]'
p2384
S'[[adj]]'
p2385
tp2386
F0.00025786487880350697
s(S'was'
p2387
S'recruited'
p2388
S'from'
p2389
tp2390
F0.00025786487880350697
s(S'career'
p2391
S'where'
p2392
S'played'
p2393
tp2394
F0.00025786487880350697
s(S'had'
p2395
S'served'
p2396
S'at'
p2397
tp2398
F0.00025786487880350697
s(g2097
g1237
g1238
tp2399
F0.00025786487880350697
s(S'formerly'
p2400
S'played'
p2401
S'as'
p2402
tp2403
F0.00025786487880350697
s(S'college'
p2404
g299
g300
tp2405
F0.0007735946364105209
s(S'later'
p2406
S'played'
p2407
S'with'
p2408
tp2409
F0.00025786487880350697
s(S'soon'
p2410
S'moved'
p2411
S'on'
p2412
tp2413
F0.00025786487880350697
s(S'was'
p2414
S'named'
p2415
S'for'
p2416
tp2417
F0.00025786487880350697
s(S'played'
p2418
g1277
g1278
tp2419
F0.0010314595152140279
s(g300
g301
S'tackle'
p2420
tp2421
F0.00025786487880350697
s(S'goalkeeper'
p2422
S'currently'
p2423
S'playing'
p2424
tp2425
F0.00025786487880350697
s(S'who'
p2426
S'graduated'
p2427
S'at'
p2428
tp2429
F0.00025786487880350697
s(S'[[adj]]'
p2430
g1645
g221
tp2431
F0.00025786487880350697
s(S'[[con]]'
p2432
S'signed'
p2433
S'for'
p2434
tp2435
F0.00025786487880350697
s(S'[[num]]'
p2436
S'led'
p2437
S'[[det]]'
p2438
tp2439
F0.00025786487880350697
s(S'career'
p2440
S'in'
p2441
S'[[adj]]'
p2442
tp2443
F0.00025786487880350697
s(S'currently'
p2444
S'playing'
p2445
S'in'
p2446
tp2447
F0.00025786487880350697
s(S'[[adj]]'
p2448
S'head'
p2449
g2038
tp2450
F0.0023207839092315627
s(S'[[det]]'
p2451
S'coach'
p2452
S'in'
p2453
tp2454
F0.00025786487880350697
s(g722
g723
S'at'
p2455
tp2456
F0.00025786487880350697
s(S'[[adj]]'
p2457
S'coach'
p2458
S'of'
p2459
tp2460
F0.00025786487880350697
s(g546
g547
g2103
tp2461
F0.0023207839092315627
s(S'[[adj]]'
p2462
S'men'
p2463
g121
tp2464
F0.0007735946364105209
s(S'born'
p2465
S'[[num]]'
p2466
S'[[det]]'
p2467
tp2468
F0.005157297576070139
s(S'also'
p2469
S'named'
p2470
S'in'
p2471
tp2472
F0.00025786487880350697
s(S'was'
p2473
S'educated'
p2474
S'in'
p2475
tp2476
F0.00025786487880350697
s(S'played'
p2477
S'football'
p2478
S'as'
p2479
tp2480
F0.00025786487880350697
s(S'football'
p2481
S'currently'
p2482
S'plays'
p2483
tp2484
F0.00025786487880350697
s(S'career'
p2485
S'playing'
p2486
S'in'
p2487
tp2488
F0.00025786487880350697
s(g2046
g1418
g1419
tp2489
F0.0020629190304280558
s(S'has'
p2490
S'played'
p2491
S'club'
p2492
tp2493
F0.0005157297576070139
s(S'also'
p2494
S'attended'
p2495
S'from'
p2496
tp2497
F0.00025786487880350697
s(S'up'
p2498
S'where'
p2499
S'attended'
p2500
tp2501
F0.0007735946364105209
s(S'for'
p2502
S'[[det]]'
p2503
S'played'
p2504
tp2505
F0.00025786487880350697
s(S'been'
p2506
S'transferred'
p2507
S'to'
p2508
tp2509
F0.00025786487880350697
s(S'began'
p2510
S'to'
p2511
S'playing'
p2512
tp2513
F0.00025786487880350697
s(S'started'
p2514
S'[[prp]]'
p2515
S'college'
p2516
tp2517
F0.00025786487880350697
s(S'also'
p2518
S'honored'
p2519
S'as'
p2520
tp2521
F0.00025786487880350697
s(S'who'
p2522
S'played'
p2523
S'center'
p2524
tp2525
F0.00025786487880350697
s(g782
g783
S'notably'
p2526
tp2527
F0.0005157297576070139
s(S'played'
p2528
S'[[adj]]'
p2529
S'school'
p2530
tp2531
F0.0010314595152140279
s(S'has'
p2532
S'returned'
p2533
S'to'
p2534
tp2535
F0.00025786487880350697
s(S'[[det]]'
p2536
S'tenth'
p2537
S'head'
p2538
tp2539
F0.00025786487880350697
s(S'football'
p2540
g1289
g1290
tp2541
F0.00025786487880350697
s(S'played'
p2542
S'basketball'
p2543
S'for'
p2544
tp2545
F0.0005157297576070139
s(S'never'
p2546
S'played'
p2547
S'[[det]]'
p2548
tp2549
F0.00025786487880350697
s(S'has'
p2550
S'led'
p2551
S'[[det]]'
p2552
tp2553
F0.00025786487880350697
s(S'in'
p2554
S'[[adj]]'
p2555
S'football'
p2556
tp2557
F0.0005157297576070139
s(S'playing'
p2558
S'career'
p2559
g1407
tp2560
F0.00025786487880350697
s(S'[[det]]'
p2561
S'coach'
p2562
S'for'
p2563
tp2564
F0.00025786487880350697
s(S'[[num]]'
p2565
S'[[det]]'
p2566
S'football'
p2567
tp2568
F0.0036101083032490976
s(g2511
g2512
S'against'
p2569
tp2570
F0.00025786487880350697
s(S'then'
p2571
S'earned'
p2572
S'[[det]]'
p2573
tp2574
F0.00025786487880350697
s(S'[[adj]]'
p2575
S'basketball'
p2576
S'at'
p2577
tp2578
F0.00025786487880350697
s(S'also'
p2579
S'play'
p2580
S'[[det]]'
p2581
tp2582
F0.00025786487880350697
s(S'also'
p2583
S'coached'
p2584
S'with'
p2585
tp2586
F0.00025786487880350697
s(S'before'
p2587
S'moving'
p2588
S'on'
p2589
tp2590
F0.0005157297576070139
s(S'was'
p2591
S'signed'
p2592
S'with'
p2593
tp2594
F0.00025786487880350697
s(S'became'
p2595
S'coach'
p2596
S'for'
p2597
tp2598
F0.00025786487880350697
s(g1231
g1403
g1404
tp2599
F0.00025786487880350697
s(S'has'
p2600
g792
g793
tp2601
F0.00025786487880350697
s(S'also'
p2602
S'played'
p2603
S'once'
p2604
tp2605
F0.00025786487880350697
s(S'as'
p2606
S'moved'
p2607
S'to'
p2608
tp2609
F0.00025786487880350697
s(S'first'
p2610
S'served'
p2611
S'with'
p2612
tp2613
F0.00025786487880350697
s(S'were'
p2614
S'named'
p2615
S'as'
p2616
tp2617
F0.00025786487880350697
s(g1994
S'playing'
p2618
S'for'
p2619
tp2620
F0.0023207839092315627
s(S'became'
p2621
S'head'
p2622
S'coach'
p2623
tp2624
F0.0007735946364105209
s(S'played'
p2625
S'[[adj]]'
p2626
S'golf'
p2627
tp2628
F0.00025786487880350697
s(S'later'
p2629
S'left'
p2630
S'[[det]]'
p2631
tp2632
F0.00025786487880350697
s(S'[[con]]'
p2633
S'was'
p2634
S'selected'
p2635
tp2636
F0.0007735946364105209
s(S'head'
p2637
S'college'
p2638
S'football'
p2639
tp2640
F0.0012893243940175349
s(S'been'
p2641
S'recruited'
p2642
S'by'
p2643
tp2644
F0.00025786487880350697
s(S'then'
p2645
S'moved'
p2646
S'up'
p2647
tp2648
F0.00025786487880350697
s(S'head'
p2649
S'coach'
p2650
S'for'
p2651
tp2652
F0.0030943785456420837
s(S'[[adj]]'
p2653
S'football'
p2654
S'[[con]]'
p2655
tp2656
F0.00025786487880350697
s(S'[[adj]]'
p2657
S'member'
p2658
S'for'
p2659
tp2660
F0.00025786487880350697
s(S'[[num]]'
p2661
S'died'
p2662
S'[[num]]'
p2663
tp2664
F0.00025786487880350697
s(S'[[det]]'
p2665
S'graduate'
p2666
S'[[con]]'
p2667
tp2668
F0.00025786487880350697
s(S'was'
p2669
S'transferred'
p2670
S'as'
p2671
tp2672
F0.00025786487880350697
s(S'has'
p2673
S'served'
p2674
S'for'
p2675
tp2676
F0.00025786487880350697
s(g139
g1561
S'who'
p2677
tp2678
F0.0028365136668385767
s(S'after'
p2679
S'leaving'
p2680
S'[[det]]'
p2681
tp2682
F0.00025786487880350697
s(S'football'
p2683
g53
g54
tp2684
F0.00025786487880350697
s(S'[[adj]]'
p2685
S'student'
p2686
S'from'
p2687
tp2688
F0.00025786487880350697
s(S'born'
p2689
g824
g825
tp2690
F0.009025270758122744
s(S'[[det]]'
p2691
S'career'
p2692
S'[[adj]]'
p2693
tp2694
F0.00025786487880350697
s(S'[[mod]]'
p2695
S'transfer'
p2696
S'to'
p2697
tp2698
F0.00025786487880350697
s(S'was'
p2699
S'selected'
p2700
S'for'
p2701
tp2702
F0.00025786487880350697
s(g130
g131
S'attended'
p2703
tp2704
F0.00025786487880350697
s(S'[[prp]]'
p2705
g2391
g2392
tp2706
F0.00025786487880350697
s(g2556
S'games'
p2707
S'with'
p2708
tp2709
F0.00025786487880350697
s(S'also'
p2710
S'played'
p2711
S'against'
p2712
tp2713
F0.00025786487880350697
s(S'was'
p2714
S'member'
p2715
S'[[con]]'
p2716
tp2717
F0.00025786487880350697
s(S'was'
p2718
S'named'
p2719
S'in'
p2720
tp2721
F0.00025786487880350697
s(S'represented'
p2722
g545
g546
tp2723
F0.0005157297576070139
s(S'was'
p2724
S'leaving'
p2725
S'for'
p2726
tp2727
F0.00025786487880350697
s(S'which'
p2728
S'played'
p2729
S'[[con]]'
p2730
tp2731
F0.00025786487880350697
s(S'attended'
p2732
S'then'
p2733
S'graduated'
p2734
tp2735
F0.00025786487880350697
s(S'played'
p2736
g804
g805
tp2737
F0.00025786487880350697
s(S'had'
p2738
S'previously'
p2739
S'served'
p2740
tp2741
F0.0007735946364105209
s(S'[[con]]'
p2742
S'played'
p2743
S'on'
p2744
tp2745
F0.00025786487880350697
s(S'[[det]]'
p2746
g2481
g2482
tp2747
F0.0005157297576070139
s(S'career'
p2748
S'[[adj]]'
p2749
S'football'
p2750
tp2751
F0.00025786487880350697
s(S'play'
p2752
S'college'
p2753
S'football'
p2754
tp2755
F0.0005157297576070139
s(S'has'
p2756
S'played'
p2757
S'to'
p2758
tp2759
F0.00025786487880350697
s(S'then'
p2760
S'hired'
p2761
S'by'
p2762
tp2763
F0.00025786487880350697
s(S'was'
p2764
S'recruited'
p2765
S'as'
p2766
tp2767
F0.00025786487880350697
s(S'[[adj]]'
p2768
g625
g626
tp2769
F0.0010314595152140279
s(S'before'
p2770
S'graduating'
p2771
S'from'
p2772
tp2773
F0.00025786487880350697
s(S'later'
p2774
S'enrolled'
p2775
S'in'
p2776
tp2777
F0.00025786487880350697
s(S'played'
p2778
g651
g273
tp2779
F0.00025786487880350697
s(S'[[det]]'
p2780
S'playing'
p2781
S'for'
p2782
tp2783
F0.00025786487880350697
s(S'been'
p2784
S'named'
p2785
S'as'
p2786
tp2787
F0.00025786487880350697
s(S'[[con]]'
p2788
S'served'
p2789
S'in'
p2790
tp2791
F0.00025786487880350697
s(S'member'
p2792
S'of'
p2793
S'[[num]]'
p2794
tp2795
F0.00025786487880350697
s(S'to'
p2796
S'coach'
p2797
S'in'
p2798
tp2799
F0.00025786487880350697
s(S'also'
p2800
S'played'
p2801
S'[[con]]'
p2802
tp2803
F0.00025786487880350697
s(S'played'
p2804
S'college'
p2805
S'[[con]]'
p2806
tp2807
F0.00025786487880350697
s(S'then'
p2808
S'led'
p2809
S'[[det]]'
p2810
tp2811
F0.00025786487880350697
s(S'[[num]]'
p2812
g1715
g816
tp2813
F0.0007735946364105209
s(g1866
S'points'
p2814
S'for'
p2815
tp2816
F0.00025786487880350697
s(g1700
g1701
S'years'
p2817
tp2818
F0.00025786487880350697
s(S'to'
p2819
S'play'
p2820
S'during'
p2821
tp2822
F0.00025786487880350697
s(S'[[adj]]'
p2823
S'football'
p2824
S'in'
p2825
tp2826
F0.0007735946364105209
s(S'[[prp]]'
p2827
g2485
g2486
tp2828
F0.0018050541516245488
s(S'then'
p2829
S'attended'
p2830
S'[[det]]'
p2831
tp2832
F0.0007735946364105209
s(S'named'
p2833
S'[[det]]'
p2834
S'head'
p2835
tp2836
F0.0012893243940175349
s(g2530
S'football'
p2837
S'for'
p2838
tp2839
F0.00025786487880350697
s(S'[[det]]'
p2840
S'member'
p2841
S'[[num]]'
p2842
tp2843
F0.00025786487880350697
s(S'[[con]]'
p2844
S'played'
p2845
S'professionally'
p2846
tp2847
F0.0012893243940175349
s(S'notably'
p2848
S'played'
p2849
S'football'
p2850
tp2851
F0.00025786487880350697
s(S'[[con]]'
p2852
S'then'
p2853
S'played'
p2854
tp2855
F0.0005157297576070139
s(S'playing'
p2856
S'for'
p2857
S'[[adj]]'
p2858
tp2859
F0.0005157297576070139
s(S'to'
p2860
S'play'
p2861
S'against'
p2862
tp2863
F0.00025786487880350697
s(S'[[con]]'
p2864
S'earned'
p2865
S'from'
p2866
tp2867
F0.00025786487880350697
s(g242
g243
S'playing'
p2868
tp2869
F0.0015471892728210418
s(S'first'
p2870
S'played'
p2871
S'against'
p2872
tp2873
F0.00025786487880350697
s(S'then'
p2874
S'attended'
p2875
S'college'
p2876
tp2877
F0.00025786487880350697
s(S'be'
p2878
S'named'
p2879
S'of'
p2880
tp2881
F0.00025786487880350697
s(g121
g2285
S'coach'
p2882
tp2883
F0.00025786487880350697
s(S'was'
p2884
S'named'
p2885
S'[[con]]'
p2886
tp2887
F0.00025786487880350697
s(S'[[adj]]'
p2888
S'attended'
p2889
S'at'
p2890
tp2891
F0.00025786487880350697
s(S'as'
p2892
S'member'
p2893
S'of'
p2894
tp2895
F0.00025786487880350697
s(S'played'
p2896
g2554
g2555
tp2897
F0.00025786487880350697
s(S'who'
p2898
S'[[adj]]'
p2899
S'tackle'
p2900
tp2901
F0.00025786487880350697
s(S'[[det]]'
p2902
S'minute'
p2903
S'of'
p2904
tp2905
F0.00025786487880350697
s(S'college'
p2906
S'coaching'
p2907
S'career'
p2908
tp2909
F0.00025786487880350697
s(S'[[num]]'
p2910
S'served'
p2911
S'for'
p2912
tp2913
F0.00025786487880350697
s(g282
g283
S'times'
p2914
tp2915
F0.00025786487880350697
s(S'had'
p2916
S'earned'
p2917
S'from'
p2918
tp2919
F0.00025786487880350697
s(S'football'
p2920
g2633
g2634
tp2921
F0.0010314595152140279
s(S'played'
p2922
g2575
g2576
tp2923
F0.0012893243940175349
s(S'later'
p2924
S'moving'
p2925
S'to'
p2926
tp2927
F0.00025786487880350697
s(S'not'
p2928
S'selected'
p2929
S'against'
p2930
tp2931
F0.00025786487880350697
s(S'[[adj]]'
p2932
S'coach'
p2933
S'[[num]]'
p2934
tp2935
F0.00025786487880350697
s(S'[[adj]]'
p2936
S'rules'
p2937
S'football'
p2938
tp2939
F0.0015471892728210418
s(g2078
S'career'
p2940
S'with'
p2941
tp2942
F0.00025786487880350697
s(S'football'
p2943
S'thereafter'
p2944
S'played'
p2945
tp2946
F0.00025786487880350697
s(S'also'
p2947
S'hired'
p2948
S'by'
p2949
tp2950
F0.00025786487880350697
s(S'football'
p2951
S'goalkeeper'
p2952
S'who'
p2953
tp2954
F0.00025786487880350697
s(S'[[adj]]'
p2955
S'team'
p2956
S'for'
p2957
tp2958
F0.00025786487880350697
s(S'also'
p2959
S'recruited'
p2960
S'by'
p2961
tp2962
F0.00025786487880350697
s(S'career'
p2963
g880
g881
tp2964
F0.00025786487880350697
s(S'attended'
p2965
g1465
g1466
tp2966
F0.00025786487880350697
s(g818
g1924
S'[[con]]'
p2967
tp2968
F0.00025786487880350697
s(g1606
g1607
S'who'
p2969
tp2970
F0.0007735946364105209
s(S'been'
p2971
S'honored'
p2972
S'as'
p2973
tp2974
F0.00025786487880350697
s(S'[[con]]'
p2975
S'played'
p2976
S'in'
p2977
tp2978
F0.00025786487880350697
s(S'basketball'
p2979
S'player'
p2980
S'[[adj]]'
p2981
tp2982
F0.00025786487880350697
s(S'who'
p2983
S'served'
p2984
S'as'
p2985
tp2986
F0.00025786487880350697
s(S'for'
p2987
S'[[adj]]'
p2988
S'team'
p2989
tp2990
F0.0010314595152140279
s(S'before'
p2991
S'playing'
p2992
S'for'
p2993
tp2994
F0.0007735946364105209
s(S'had'
p2995
S'played'
p2996
S'at'
p2997
tp2998
F0.00025786487880350697
s(S'then'
p2999
S'played'
p3000
S'at'
p3001
tp3002
F0.00025786487880350697
s(S'was'
p3003
S'named'
p3004
S'on'
p3005
tp3006
F0.00025786487880350697
s(S'then'
p3007
S'played'
p3008
S'basketball'
p3009
tp3010
F0.00025786487880350697
s(S'being'
p3011
S'recruited'
p3012
S'by'
p3013
tp3014
F0.00025786487880350697
s(S'has'
p3015
S'played'
p3016
S'[[adj]]'
p3017
tp3018
F0.00025786487880350697
s(S'[[num]]'
p3019
g1024
g1025
tp3020
F0.0005157297576070139
s(S'[[adj]]'
p3021
g241
g242
tp3022
F0.0033522434244455906
s(S'formerly'
p3023
S'played'
p3024
S'at'
p3025
tp3026
F0.00025786487880350697
s(g1141
g1142
S'at'
p3027
tp3028
F0.00025786487880350697
s(S'be'
p3029
S'signed'
p3030
S'by'
p3031
tp3032
F0.00025786487880350697
s(S'[[adj]]'
p3033
S'star'
p3034
S'at'
p3035
tp3036
F0.00025786487880350697
s(S'midfielder'
p3037
S'currently'
p3038
S'playing'
p3039
tp3040
F0.00025786487880350697
s(S'had'
p3041
S'received'
p3042
S'in'
p3043
tp3044
F0.00025786487880350697
s(S'have'
p3045
S'played'
p3046
S'in'
p3047
tp3048
F0.00025786487880350697
s(S'was'
p3049
S'hired'
p3050
S'for'
p3051
tp3052
F0.00025786487880350697
s(S'then'
p3053
S'transferred'
p3054
S'to'
p3055
tp3056
F0.00025786487880350697
s(S'later'
p3057
S'received'
p3058
S'[[det]]'
p3059
tp3060
F0.00025786487880350697
s(S'also'
p3061
S'earned'
p3062
S'in'
p3063
tp3064
F0.00025786487880350697
s(S'[[num]]'
p3065
S'served'
p3066
S'in'
p3067
tp3068
F0.00025786487880350697
s(S'[[adj]]'
p3069
S'coach'
p3070
S'at'
p3071
tp3072
F0.0010314595152140279
s(S'later'
p3073
S'played'
p3074
S'[[adj]]'
p3075
tp3076
F0.0010314595152140279
s(S'coach'
p3077
S'[[con]]'
p3078
S'ndash'
p3079
tp3080
F0.0015471892728210418
s(g1869
g1870
S'football'
p3081
tp3082
F0.0010314595152140279
s(S'be'
p3083
S'selected'
p3084
S'to'
p3085
tp3086
F0.00025786487880350697
s(S'was'
p3087
S'signed'
p3088
S'from'
p3089
tp3090
F0.00025786487880350697
s(S'best'
p3091
S'year'
p3092
S'with'
p3093
tp3094
F0.00025786487880350697
s(S'career'
p3095
g2852
g2853
tp3096
F0.0005157297576070139
s(S'later'
p3097
S'starred'
p3098
S'in'
p3099
tp3100
F0.00025786487880350697
s(S'[[prp]]'
p3101
S'[[adj]]'
p3102
S'soccer'
p3103
tp3104
F0.00025786487880350697
s(g2307
g2244
g97
tp3105
F0.0007735946364105209
s(S'[[adj]]'
p3106
S'coach'
p3107
S'for'
p3108
tp3109
F0.0007735946364105209
s(S'attended'
p3110
S'college'
p3111
S'[[con]]'
p3112
tp3113
F0.00025786487880350697
s(S'also'
p3114
g2542
g2543
tp3115
F0.0005157297576070139
s(S'[[adj]]'
p3116
S'football'
p3117
S'linebacker'
p3118
tp3119
F0.0005157297576070139
s(S'[[con]]'
p3120
S'served'
p3121
S'for'
p3122
tp3123
F0.00025786487880350697
s(S'was'
p3124
S'playing'
p3125
S'on'
p3126
tp3127
F0.00025786487880350697
s(S'then'
p3128
S'moved'
p3129
S'at'
p3130
tp3131
F0.00025786487880350697
s(S'[[con]]'
p3132
S'[[det]]'
p3133
S'men'
p3134
tp3135
F0.00025786487880350697
s(S'in'
p3136
S'was'
p3137
S'educated'
p3138
tp3139
F0.00025786487880350697
s(S'basketball'
p3140
g3132
g3133
tp3141
F0.00025786487880350697
s(S'played'
p3142
g1892
g1893
tp3143
F0.0005157297576070139
s(S'[[num]]'
p3144
S'year'
p3145
S'in'
p3146
tp3147
F0.00025786487880350697
s(S'club'
p3148
S'football'
p3149
S'as'
p3150
tp3151
F0.00025786487880350697
s(S'[[adj]]'
p3152
S'member'
p3153
S'in'
p3154
tp3155
F0.00025786487880350697
s(S'is'
p3156
S'named'
p3157
S'by'
p3158
tp3159
F0.00025786487880350697
s(S'[[mod]]'
p3160
S'end'
p3161
S'up'
p3162
tp3163
F0.00025786487880350697
s(S'[[adj]]'
p3164
S'served'
p3165
S'for'
p3166
tp3167
F0.00025786487880350697
s(S'before'
p3168
S'going'
p3169
S'to'
p3170
tp3171
F0.00025786487880350697
s(S'[[det]]'
p3172
S'year'
p3173
S'[[con]]'
p3174
tp3175
F0.00025786487880350697
s(S'also'
p3176
S'enrolled'
p3177
S'at'
p3178
tp3179
F0.00025786487880350697
s(S'[[num]]'
p3180
S'years'
p3181
S'[[adj]]'
p3182
tp3183
F0.00025786487880350697
s(S'also'
p3184
S'member'
p3185
S'of'
p3186
tp3187
F0.00025786487880350697
s(S'[[num]]'
p3188
S'[[det]]'
p3189
S'soccer'
p3190
tp3191
F0.00025786487880350697
s(g2376
g2377
S'at'
p3192
tp3193
F0.0015471892728210418
s(S'football'
p3194
g2844
g2845
tp3195
F0.0018050541516245488
s(S'that'
p3196
S'brought'
p3197
S'to'
p3198
tp3199
F0.00025786487880350697
s(S'later'
p3200
S'entered'
p3201
S'[[det]]'
p3202
tp3203
F0.00025786487880350697
s(S'later'
p3204
S'served'
p3205
S'[[adj]]'
p3206
tp3207
F0.00025786487880350697
s(S'[[det]]'
p3208
S'[[adj]]'
p3209
S'head'
p3210
tp3211
F0.0007735946364105209
s(S'[[con]]'
p3212
S'member'
p3213
S'[[det]]'
p3214
tp3215
F0.00025786487880350697
s(S'as'
p3216
S'led'
p3217
S'[[det]]'
p3218
tp3219
F0.00025786487880350697
s(S'was'
p3220
S'named'
p3221
S'to'
p3222
tp3223
F0.00025786487880350697
s(S'to'
p3224
S'play'
p3225
S'as'
p3226
tp3227
F0.00025786487880350697
s(S'teams'
p3228
S'[[num]]'
p3229
S'head'
p3230
tp3231
F0.00025786487880350697
s(S'be'
p3232
S'selected'
p3233
S'by'
p3234
tp3235
F0.00025786487880350697
s(g1033
g1034
S'back'
p3236
tp3237
F0.00025786487880350697
s(S'[[adj]]'
p3238
S'football'
p3239
S'with'
p3240
tp3241
F0.0015471892728210418
s(S'soon'
p3242
S'left'
p3243
S'[[det]]'
p3244
tp3245
F0.00025786487880350697
s(g2466
g2467
S'association'
p3246
tp3247
F0.0007735946364105209
s(S'be'
p3248
S'leaving'
p3249
S'[[det]]'
p3250
tp3251
F0.00025786487880350697
s(S'college'
p3252
g1824
g1825
tp3253
F0.00025786487880350697
s(S'later'
p3254
S'returned'
p3255
S'to'
p3256
tp3257
F0.00025786487880350697
s(S'[[con]]'
p3258
S'member'
p3259
S'[[con]]'
p3260
tp3261
F0.00025786487880350697
s(S'[[adj]]'
p3262
S'career'
p3263
S'for'
p3264
tp3265
F0.00025786487880350697
s(S'currently'
p3266
S'playing'
p3267
S'with'
p3268
tp3269
F0.00025786487880350697
s(g458
g459
S'as'
p3270
tp3271
F0.00025786487880350697
s(S'was'
p3272
S'brought'
p3273
S'to'
p3274
tp3275
F0.00025786487880350697
s(S'[[con]]'
p3276
S'attended'
p3277
S'at'
p3278
tp3279
F0.0005157297576070139
s(S'[[con]]'
p3280
S'attended'
p3281
S'college'
p3282
tp3283
F0.00025786487880350697
s(g1858
g1453
g1454
tp3284
F0.00025786487880350697
s(S'also'
p3285
S'named'
p3286
S'at'
p3287
tp3288
F0.00025786487880350697
s(S'club'
p3289
S'football'
p3290
S'career'
p3291
tp3292
F0.00025786487880350697
s(S'played'
p3293
S'quarterback'
p3294
S'at'
p3295
tp3296
F0.00025786487880350697
s(S'also'
p3297
S'played'
p3298
S'quarterback'
p3299
tp3300
F0.00025786487880350697
s(S'club'
p3301
S'football'
p3302
S'whom'
p3303
tp3304
F0.00025786487880350697
s(g1933
g1934
S'team'
p3305
tp3306
F0.00025786487880350697
s(S'football'
p3307
g41
g42
tp3308
F0.00025786487880350697
s(S'later'
p3309
S'served'
p3310
S'[[con]]'
p3311
tp3312
F0.00025786487880350697
s(S'then'
p3313
S'brought'
p3314
S'to'
p3315
tp3316
F0.00025786487880350697
s(S'[[adj]]'
p3317
S'member'
p3318
S'[[con]]'
p3319
tp3320
F0.00025786487880350697
s(S'[[adj]]'
p3321
S'played'
p3322
S'on'
p3323
tp3324
F0.00025786487880350697
s(S'[[con]]'
p3325
S'later'
p3326
S'played'
p3327
tp3328
F0.0005157297576070139
s(S'head'
p3329
S'coach'
p3330
S'with'
p3331
tp3332
F0.00025786487880350697
s(S'[[num]]'
p3333
S'[[adj]]'
p3334
S'women'
p3335
tp3336
F0.00025786487880350697
s(S'[[num]]'
p3337
S'points'
p3338
S'[[con]]'
p3339
tp3340
F0.00025786487880350697
s(S'[[con]]'
p3341
S'began'
p3342
S'[[prp]]'
p3343
tp3344
F0.0012893243940175349
s(S'has'
p3345
S'played'
p3346
S'[[con]]'
p3347
tp3348
F0.00025786487880350697
s(g1294
g1295
S'years'
p3349
tp3350
F0.0010314595152140279
s(S'to'
p3351
S'coach'
p3352
S'[[con]]'
p3353
tp3354
F0.00025786487880350697
s(S'is'
p3355
S'[[det]]'
p3356
S'basketball'
p3357
tp3358
F0.00025786487880350697
s(S'[[con]]'
p3359
S'played'
p3360
S'twice'
p3361
tp3362
F0.00025786487880350697
s(S'basketball'
p3363
S'[[con]]'
p3364
S'was'
p3365
tp3366
F0.0005157297576070139
s(S'head'
p3367
S'coach'
p3368
S'as'
p3369
tp3370
F0.00025786487880350697
s(S'also'
p3371
S'played'
p3372
S'in'
p3373
tp3374
F0.0005157297576070139
s(S'was'
p3375
S'honored'
p3376
S'[[det]]'
p3377
tp3378
F0.00025786487880350697
s(S'then'
p3379
S'coach'
p3380
S'of'
p3381
tp3382
F0.00025786487880350697
s(S'was'
p3383
g1846
g1847
tp3384
F0.00593089221248066
s(S'later'
p3385
S'served'
p3386
S'for'
p3387
tp3388
F0.00025786487880350697
s(S'[[num]]'
p3389
S'years'
p3390
S'later'
p3391
tp3392
F0.00025786487880350697
s(S'football'
p3393
S'player'
p3394
S'currently'
p3395
tp3396
F0.0012893243940175349
s(S'[[adj]]'
p3397
S'career'
p3398
S'in'
p3399
tp3400
F0.0005157297576070139
s(S'by'
p3401
S'playing'
p3402
S'for'
p3403
tp3404
F0.00025786487880350697
s(S'be'
p3405
S'returned'
p3406
S'to'
p3407
tp3408
F0.00025786487880350697
s(S'head'
p3409
S'football'
p3410
S'[[con]]'
p3411
tp3412
F0.00025786487880350697
s(S'later'
p3413
S'named'
p3414
S'[[det]]'
p3415
tp3416
F0.00025786487880350697
s(S'to'
p3417
S'come'
p3418
S'in'
p3419
tp3420
F0.00025786487880350697
s(S'also'
p3421
S'served'
p3422
S'from'
p3423
tp3424
F0.00025786487880350697
s(S'[[con]]'
p3425
S'received'
p3426
S'in'
p3427
tp3428
F0.00025786487880350697
s(S'later'
p3429
S'play'
p3430
S'with'
p3431
tp3432
F0.00025786487880350697
s(S'was'
p3433
S'signed'
p3434
S'at'
p3435
tp3436
F0.00025786487880350697
s(S'later'
p3437
S'signed'
p3438
S'to'
p3439
tp3440
F0.00025786487880350697
s(S'born'
p3441
S'[[num]]'
p3442
S'football'
p3443
tp3444
F0.00025786487880350697
s(S'football'
p3445
S'player'
p3446
S'with'
p3447
tp3448
F0.0005157297576070139
s(S'finished'
p3449
S'[[prp]]'
p3450
S'career'
p3451
tp3452
F0.0015471892728210418
s(g274
g275
S'for'
p3453
tp3454
F0.00025786487880350697
s(S'later'
p3455
S'attended'
p3456
S'[[con]]'
p3457
tp3458
F0.0005157297576070139
s(S'later'
p3459
S'coached'
p3460
S'for'
p3461
tp3462
F0.00025786487880350697
s(S'[[adj]]'
p3463
g2637
g2638
tp3464
F0.0010314595152140279
s(S'become'
p3465
S'leader'
p3466
S'of'
p3467
tp3468
F0.00025786487880350697
s(S'was'
p3469
S'leaving'
p3470
S'with'
p3471
tp3472
F0.00025786487880350697
s(S'also'
p3473
S'competed'
p3474
S'for'
p3475
tp3476
F0.00025786487880350697
s(S'was'
p3477
S'brought'
p3478
S'back'
p3479
tp3480
F0.00025786487880350697
s(S'also'
p3481
S'brought'
p3482
S'from'
p3483
tp3484
F0.00025786487880350697
s(S'had'
p3485
S'played'
p3486
S'for'
p3487
tp3488
F0.00025786487880350697
s(S'later'
p3489
S'hired'
p3490
S'at'
p3491
tp3492
F0.00025786487880350697
s(S'[[det]]'
p3493
S'graduate'
p3494
S'of'
p3495
tp3496
F0.00025786487880350697
s(S'coaching'
p3497
g2963
g880
tp3498
F0.00025786487880350697
s(g2740
S'as'
p3499
g3069
tp3500
F0.0025786487880350697
s(S'[[adj]]'
p3501
S'basketball'
p3502
S'for'
p3503
tp3504
F0.0007735946364105209
s(S'then'
p3505
S'returned'
p3506
S'where'
p3507
tp3508
F0.00025786487880350697
s(g3008
g3009
S'at'
p3509
tp3510
F0.0007735946364105209
s(S'[[det]]'
p3511
S'member'
p3512
S'at'
p3513
tp3514
F0.00025786487880350697
s(S'[[adj]]'
p3515
S'seasons'
p3516
S'at'
p3517
tp3518
F0.00025786487880350697
s(S'rules'
p3519
S'football'
p3520
S'for'
p3521
tp3522
F0.0005157297576070139
s(S'was'
p3523
S'transferred'
p3524
S'by'
p3525
tp3526
F0.00025786487880350697
s(S'at'
p3527
S'then'
p3528
S'played'
p3529
tp3530
F0.00025786487880350697
s(g1731
S'attended'
p3531
S'[[con]]'
p3532
tp3533
F0.0005157297576070139
s(S'career'
p3534
S'playing'
p3535
S'with'
p3536
tp3537
F0.00025786487880350697
s(g750
g751
S'to'
p3538
tp3539
F0.00025786487880350697
s(S'later'
p3540
S'played'
p3541
S'twice'
p3542
tp3543
F0.00025786487880350697
s(S'first'
p3544
S'played'
p3545
S'at'
p3546
tp3547
F0.00025786487880350697
s(g1262
g1263
S'played'
p3548
tp3549
F0.00025786487880350697
s(S'while'
p3550
S'moved'
p3551
S'to'
p3552
tp3553
F0.00025786487880350697
s(S'born'
p3554
g681
g682
tp3555
F0.0012893243940175349
s(S'[[adj]]'
p3556
S'playing'
p3557
g2748
tp3558
F0.0005157297576070139
s(S'was'
p3559
S'named'
p3560
S'at'
p3561
tp3562
F0.00025786487880350697
s(g1340
g1341
S'was'
p3563
tp3564
F0.0005157297576070139
s(g2179
g2180
S'for'
p3565
tp3566
F0.0005157297576070139
s(g2981
S'pick'
p3567
S'played'
p3568
tp3569
F0.00025786487880350697
s(S'football'
p3570
S'career'
p3571
S'in'
p3572
tp3573
F0.0005157297576070139
s(S'[[adj]]'
p3574
S'team'
p3575
S'[[adj]]'
p3576
tp3577
F0.00025786487880350697
s(S'had'
p3578
S'attended'
p3579
S'[[con]]'
p3580
tp3581
F0.00025786487880350697
s(S'[[con]]'
p3582
S'served'
p3583
S'with'
p3584
tp3585
F0.00025786487880350697
s(S'who'
p3586
S'played'
p3587
S'with'
p3588
tp3589
F0.0010314595152140279
s(S'[[adj]]'
p3590
S'member'
p3591
S'[[det]]'
p3592
tp3593
F0.00025786487880350697
s(S'was'
p3594
S'playing'
p3595
S'[[adj]]'
p3596
tp3597
F0.00025786487880350697
s(S'also'
p3598
S'attended'
p3599
S'now'
p3600
tp3601
F0.00025786487880350697
s(S'[[adj]]'
p3602
S'playing'
p3603
S'in'
p3604
tp3605
F0.00025786487880350697
s(S'was'
p3606
S'selected'
p3607
S'against'
p3608
tp3609
F0.00025786487880350697
s(S'[[det]]'
p3610
S'coach'
p3611
S'with'
p3612
tp3613
F0.00025786487880350697
s(S'then'
p3614
S'selected'
p3615
S'to'
p3616
tp3617
F0.00025786487880350697
s(S'was'
p3618
S'returned'
p3619
S'by'
p3620
tp3621
F0.00025786487880350697
s(S'born'
p3622
g2044
g2045
tp3623
F0.0033522434244455906
s(S'head'
p3624
g1597
g1598
tp3625
F0.00025786487880350697
s(g1238
g1239
S'for'
p3626
tp3627
F0.00025786487880350697
s(S'[[det]]'
p3628
g1760
g1761
tp3629
F0.0033522434244455906
s(S'had'
p3630
S'earned'
p3631
S'[[det]]'
p3632
tp3633
F0.00025786487880350697
s(S'coach'
p3634
g2092
g2093
tp3635
F0.0007735946364105209
s(S'[[det]]'
p3636
S'year'
p3637
S'at'
p3638
tp3639
F0.00025786487880350697
s(g2242
g1355
g1356
tp3640
F0.00025786487880350697
s(S'football'
p3641
S'running'
p3642
S'back'
p3643
tp3644
F0.0020629190304280558
s(S'[[con]]'
p3645
S'attended'
p3646
S'[[det]]'
p3647
tp3648
F0.0010314595152140279
s(S'[[det]]'
p3649
S'end'
p3650
S'at'
p3651
tp3652
F0.00025786487880350697
s(g2282
S'played'
p3653
S'[[adj]]'
p3654
tp3655
F0.0007735946364105209
s(S'born'
p3656
S'in'
p3657
S'[[con]]'
p3658
tp3659
F0.0005157297576070139
s(S'play'
p3660
S'football'
p3661
S'with'
p3662
tp3663
F0.00025786487880350697
s(S'began'
p3664
S'[[prp]]'
p3665
S'playing'
p3666
tp3667
F0.0010314595152140279
s(g121
S'team'
p3668
S'[[det]]'
p3669
tp3670
F0.00025786487880350697
s(S'[[mod]]'
p3671
S'play'
p3672
S'[[con]]'
p3673
tp3674
F0.00025786487880350697
s(S'was'
p3675
S'returned'
p3676
S'[[con]]'
p3677
tp3678
F0.00025786487880350697
s(S'been'
p3679
S'playing'
p3680
S'in'
p3681
tp3682
F0.00025786487880350697
s(S'is'
p3683
S'football'
p3684
g1253
tp3685
F0.00025786487880350697
s(S'which'
p3686
S'led'
p3687
S'at'
p3688
tp3689
F0.00025786487880350697
s(S'originally'
p3690
S'signed'
p3691
S'with'
p3692
tp3693
F0.00025786487880350697
s(S'[[adj]]'
p3694
S'soccer'
p3695
S'player'
p3696
tp3697
F0.0005157297576070139
s(S'basketball'
p3698
S'head'
p3699
S'coach'
p3700
tp3701
F0.0007735946364105209
s(S'[[num]]'
p3702
S'served'
p3703
S'as'
p3704
tp3705
F0.00025786487880350697
s(g1825
g1826
S'from'
p3706
tp3707
F0.0005157297576070139
s(S'who'
p3708
S'played'
p3709
S'linebacker'
p3710
tp3711
F0.00025786487880350697
s(S'basketball'
p3712
S'coach'
p3713
S'[[con]]'
p3714
tp3715
F0.0005157297576070139
s(S'also'
p3716
S'served'
p3717
S'with'
p3718
tp3719
F0.00025786487880350697
s(S'[[prp]]'
p3720
g2906
g2907
tp3721
F0.00025786487880350697
s(S'later'
p3722
S'received'
p3723
S'in'
p3724
tp3725
F0.00025786487880350697
s(S'on'
p3726
S'playing'
p3727
S'for'
p3728
tp3729
F0.00025786487880350697
s(S'also'
p3730
S'selected'
p3731
S'in'
p3732
tp3733
F0.00025786487880350697
s(S'as'
p3734
S'leader'
p3735
S'of'
p3736
tp3737
F0.00025786487880350697
s(S'in'
p3738
S'who'
p3739
S'played'
p3740
tp3741
F0.00025786487880350697
s(S'[[adj]]'
p3742
S'association'
p3743
S'football'
p3744
tp3745
F0.0010314595152140279
s(S'ever'
p3746
S'played'
p3747
S'for'
p3748
tp3749
F0.00025786487880350697
s(S'[[det]]'
p3750
S'received'
p3751
S'from'
p3752
tp3753
F0.00025786487880350697
s(S'career'
p3754
S'at'
p3755
S'clubs'
p3756
tp3757
F0.00025786487880350697
s(S'to'
p3758
S'play'
p3759
S'[[det]]'
p3760
tp3761
F0.00025786487880350697
s(S'to'
p3762
S'attend'
p3763
S'at'
p3764
tp3765
F0.00025786487880350697
s(S'then'
p3766
S'served'
p3767
S'before'
p3768
tp3769
F0.00025786487880350697
s(S'of'
p3770
S'[[adj]]'
p3771
S'team'
p3772
tp3773
F0.00025786487880350697
s(S'be'
p3774
S'playing'
p3775
S'for'
p3776
tp3777
F0.00025786487880350697
s(g62
g63
S'with'
p3778
tp3779
F0.00025786487880350697
s(S'club'
p3780
S'career'
p3781
S'at'
p3782
tp3783
F0.00025786487880350697
s(g1341
g3563
S'educated'
p3784
tp3785
F0.0005157297576070139
s(S'played'
p3786
S'collegiately'
p3787
S'at'
p3788
tp3789
F0.0010314595152140279
s(S'was'
p3790
S'honored'
p3791
S'by'
p3792
tp3793
F0.00025786487880350697
s(S'is'
p3794
S'[[adj]]'
p3795
S'head'
p3796
tp3797
F0.0005157297576070139
s(g2806
S'[[adj]]'
p3798
S'school'
p3799
tp3800
F0.00025786487880350697
s(g1730
g1731
g3531
tp3801
F0.0007735946364105209
s(S'back'
p3802
S'playing'
p3803
S'[[det]]'
p3804
tp3805
F0.00025786487880350697
s(g2006
S'coach'
p3806
S'in'
p3807
tp3808
F0.0007735946364105209
s(S'head'
p3809
S'coach'
p3810
S'[[det]]'
p3811
tp3812
F0.0023207839092315627
s(S'football'
p3813
S'with'
p3814
g1742
tp3815
F0.00025786487880350697
s(S'then'
p3816
S'returned'
p3817
S'in'
p3818
tp3819
F0.00025786487880350697
s(S'has'
p3820
S'coached'
p3821
S'at'
p3822
tp3823
F0.00025786487880350697
s(S'then'
p3824
S'moved'
p3825
S'for'
p3826
tp3827
F0.00025786487880350697
s(g2362
g2363
S'club'
p3828
tp3829
F0.0005157297576070139
s(S'also'
p3830
g677
g678
tp3831
F0.0010314595152140279
s(S'since'
p3832
S'played'
p3833
S'with'
p3834
tp3835
F0.00025786487880350697
s(S'had'
p3836
S'played'
p3837
S'with'
p3838
tp3839
F0.00025786487880350697
s(S'then'
p3840
S'graduated'
p3841
S'at'
p3842
tp3843
F0.00025786487880350697
s(S'then'
p3844
S'received'
p3845
S'from'
p3846
tp3847
F0.00025786487880350697
s(S'was'
p3848
S'signed'
p3849
S'on'
p3850
tp3851
F0.00025786487880350697
s(g830
g912
S'by'
p3852
tp3853
F0.00025786487880350697
s(S'that'
p3854
S'season'
p3855
S'with'
p3856
tp3857
F0.00025786487880350697
s(S'[[pro]]'
p3858
S'played'
p3859
S'together'
p3860
tp3861
F0.00025786487880350697
s(g789
g790
S'with'
p3862
tp3863
F0.00025786487880350697
s(S'became'
p3864
S'coach'
p3865
S'at'
p3866
tp3867
F0.00025786487880350697
s(S'at'
p3868
g1148
g1149
tp3869
F0.00025786487880350697
s(S'was'
p3870
S'left'
p3871
S'out'
p3872
tp3873
F0.00025786487880350697
s(S'also'
p3874
S'played'
p3875
S'before'
p3876
tp3877
F0.00025786487880350697
s(S'college'
p3878
S'football'
p3879
g3527
tp3880
F0.0033522434244455906
s(S'had'
p3881
S'signed'
p3882
S'to'
p3883
tp3884
F0.00025786487880350697
s(S'[[mod]]'
p3885
S'play'
p3886
S'[[num]]'
p3887
tp3888
F0.00025786487880350697
s(S'with'
p3889
S'[[adj]]'
p3890
S'team'
p3891
tp3892
F0.0005157297576070139
s(S'helped'
p3893
S'lead'
p3894
S'[[det]]'
p3895
tp3896
F0.00025786487880350697
s(S'was'
p3897
S'born'
p3898
S'from'
p3899
tp3900
F0.00025786487880350697
s(S'[[adj]]'
p3901
S'coach'
p3902
S'in'
p3903
tp3904
F0.00025786487880350697
s(g778
g779
S'ndash'
p3905
tp3906
F0.00025786487880350697
s(S'now'
p3907
S'playing'
p3908
S'for'
p3909
tp3910
F0.00025786487880350697
s(S'with'
p3911
S'played'
p3912
S'for'
p3913
tp3914
F0.00025786487880350697
s(g857
g858
g2224
tp3915
F0.0007735946364105209
s(S'then'
p3916
S'moved'
p3917
S'[[con]]'
p3918
tp3919
F0.00025786487880350697
s(S'later'
p3920
S'moved'
p3921
S'with'
p3922
tp3923
F0.00025786487880350697
s(S'[[adj]]'
p3924
S'coach'
p3925
S'with'
p3926
tp3927
F0.00025786487880350697
s(S'also'
p3928
S'selected'
p3929
S'for'
p3930
tp3931
F0.00025786487880350697
s(S'football'
p3932
S'linebacker'
p3933
S'in'
p3934
tp3935
F0.00025786487880350697
s(S'[[con]]'
p3936
S'moved'
p3937
S'on'
p3938
tp3939
F0.00025786487880350697
s(S'only'
p3940
S'played'
p3941
S'in'
p3942
tp3943
F0.00025786487880350697
s(S'then'
p3944
S'served'
p3945
S'on'
p3946
tp3947
F0.00025786487880350697
s(S'[[prp]]'
p3948
S'[[adj]]'
p3949
g947
tp3950
F0.00025786487880350697
s(S'has'
p3951
S'coached'
p3952
S'with'
p3953
tp3954
F0.00025786487880350697
s(S'[[adj]]'
p3955
S'years'
p3956
S'at'
p3957
tp3958
F0.00025786487880350697
s(S'where'
p3959
S'enrolled'
p3960
S'at'
p3961
tp3962
F0.00025786487880350697
s(S'born'
p3963
S'educated'
p3964
S'at'
p3965
tp3966
F0.00025786487880350697
s(S'have'
p3967
S'played'
p3968
S'[[det]]'
p3969
tp3970
F0.00025786487880350697
s(S'then'
p3971
S'returned'
p3972
S'for'
p3973
tp3974
F0.00025786487880350697
s(S'then'
p3975
S'signed'
p3976
S'by'
p3977
tp3978
F0.00025786487880350697
s(S'[[adj]]'
p3979
S'coach'
p3980
S'[[det]]'
p3981
tp3982
F0.00025786487880350697
s(S'then'
p3983
S'played'
p3984
S'for'
p3985
tp3986
F0.0005157297576070139
s(S'was'
p3987
S'graduated'
p3988
S'in'
p3989
tp3990
F0.00025786487880350697
s(g46
g47
S'member'
p3991
tp3992
F0.0005157297576070139
s(S'also'
p3993
S'received'
p3994
S'[[prp]]'
p3995
tp3996
F0.00025786487880350697
s(S'played'
p3997
S'for'
p3998
S'[[det]]'
p3999
tp4000
F0.0018050541516245488
s(S'to'
p4001
S'coach'
p4002
S'[[det]]'
p4003
tp4004
F0.00025786487880350697
s(g2835
S'coach'
p4005
S'at'
p4006
tp4007
F0.0038679731820526046
s(S'[[adj]]'
p4008
S'playing'
p4009
S'with'
p4010
tp4011
F0.00025786487880350697
s(S'where'
p4012
S'attended'
p4013
S'[[det]]'
p4014
tp4015
F0.0010314595152140279
s(S'been'
p4016
S'selected'
p4017
S'for'
p4018
tp4019
F0.00025786487880350697
s(S'who'
p4020
S'played'
p4021
S'in'
p4022
tp4023
F0.0012893243940175349
s(S'[[prp]]'
p4024
g1006
g1007
tp4025
F0.0015471892728210418
s(g1305
g1537
S'for'
p4026
tp4027
F0.0018050541516245488
s(S'been'
p4028
S'selected'
p4029
S'by'
p4030
tp4031
F0.00025786487880350697
s(S'football'
p4032
S'coach'
p4033
S'at'
p4034
tp4035
F0.0033522434244455906
s(g121
S'coach'
p4036
S'with'
p4037
tp4038
F0.00025786487880350697
s(g1844
S'coach'
p4039
S'for'
p4040
tp4041
F0.0033522434244455906
s(S'was'
p4042
S'left'
p4043
S'with'
p4044
tp4045
F0.00025786487880350697
s(S'best'
p4046
S'season'
p4047
S'at'
p4048
tp4049
F0.00025786487880350697
s(S'has'
p4050
S'served'
p4051
S'as'
p4052
tp4053
F0.0018050541516245488
s(S'[[det]]'
p4054
S'head'
p4055
S'college'
p4056
tp4057
F0.00025786487880350697
s(S'[[det]]'
p4058
S'member'
p4059
S'[[det]]'
p4060
tp4061
F0.00025786487880350697
s(S'also'
p4062
S'served'
p4063
S'in'
p4064
tp4065
F0.00025786487880350697
s(S'[[con]]'
p4066
S'attended'
p4067
S'of'
p4068
tp4069
F0.00025786487880350697
s(S'for'
p4070
S'[[det]]'
p4071
S'team'
p4072
tp4073
F0.0015471892728210418
s(S'football'
p4074
g229
g230
tp4075
F0.00025786487880350697
s(S'first'
p4076
S'attended'
p4077
S'before'
p4078
tp4079
F0.00025786487880350697
s(S'is'
p4080
S'playing'
p4081
S'in'
p4082
tp4083
F0.00025786487880350697
s(S'player'
p4084
g1819
g1820
tp4085
F0.0007735946364105209
s(S'career'
p4086
S'with'
p4087
S'[[adj]]'
p4088
tp4089
F0.0012893243940175349
s(S'[[det]]'
p4090
S'played'
p4091
S'for'
p4092
tp4093
F0.00025786487880350697
s(g2523
g2524
S'for'
p4094
tp4095
F0.00025786487880350697
s(S'[[adj]]'
p4096
S'career'
p4097
S'as'
p4098
tp4099
F0.00025786487880350697
s(S'finished'
p4100
S'off'
p4101
S'[[prp]]'
p4102
tp4103
F0.00025786487880350697
s(S'where'
p4104
S'played'
p4105
S'in'
p4106
tp4107
F0.00025786487880350697
s(S'[[prp]]'
p4108
S'[[adj]]'
p4109
S'playing'
p4110
tp4111
F0.00025786487880350697
s(g598
g599
S'in'
p4112
tp4113
F0.00025786487880350697
s(S'[[con]]'
p4114
g1549
g1550
tp4115
F0.00025786487880350697
s(S'was'
p4116
S'hired'
p4117
S'by'
p4118
tp4119
F0.00025786487880350697
s(S'[[det]]'
p4120
S'member'
p4121
S'on'
p4122
tp4123
F0.00025786487880350697
s(S'club'
p4124
S'football'
p4125
g1801
tp4126
F0.0012893243940175349
s(S'has'
p4127
S'left'
p4128
S'[[det]]'
p4129
tp4130
F0.00025786487880350697
s(S'before'
p4131
S'returning'
p4132
S'to'
p4133
tp4134
F0.00025786487880350697
s(S'[[mod]]'
p4135
S'split'
p4136
S'[[adj]]'
p4137
tp4138
F0.00025786487880350697
s(S'career'
p4139
g2924
g2925
tp4140
F0.00025786487880350697
s(S'play'
p4141
S'football'
p4142
S'in'
p4143
tp4144
F0.00025786487880350697
s(S'[[num]]'
p4145
S'years'
p4146
g3325
tp4147
F0.0005157297576070139
s(S'later'
p4148
S'served'
p4149
S'on'
p4150
tp4151
F0.00025786487880350697
s(S'played'
p4152
S'college'
p4153
S'football'
p4154
tp4155
F0.00850954100051573
s(g121
g2212
S'coach'
p4156
tp4157
F0.0015471892728210418
s(S'[[adj]]'
p4158
S'member'
p4159
S'on'
p4160
tp4161
F0.00025786487880350697
s(S'was'
p4162
S'graduated'
p4163
S'[[con]]'
p4164
tp4165
F0.0005157297576070139
s(S'[[det]]'
p4166
S'member'
p4167
S'as'
p4168
tp4169
F0.00025786487880350697
s(S'attended'
p4170
S'before'
p4171
S'attending'
p4172
tp4173
F0.0005157297576070139
s(g2119
g2120
S'who'
p4174
tp4175
F0.00025786487880350697
s(S'[[con]]'
p4176
S'since'
p4177
S'played'
p4178
tp4179
F0.0005157297576070139
s(S'playing'
p4180
S'career'
p4181
S'before'
p4182
tp4183
F0.00025786487880350697
s(S'[[num]]'
p4184
S'seasons'
p4185
S'with'
p4186
tp4187
F0.00025786487880350697
s(S'player'
p4188
g237
g238
tp4189
F0.00025786487880350697
s(S'later'
p4190
S'served'
p4191
S'as'
p4192
tp4193
F0.00025786487880350697
s(S'career'
p4194
S'turned'
p4195
S'out'
p4196
tp4197
F0.00025786487880350697
s(S'was'
p4198
S'born'
p4199
S'was'
p4200
tp4201
F0.00025786487880350697
s(g1462
g1463
S'coach'
p4202
tp4203
F0.00025786487880350697
s(g1255
S'played'
p4204
S'[[con]]'
p4205
tp4206
F0.0005157297576070139
s(S'is'
p4207
S'selected'
p4208
S'by'
p4209
tp4210
F0.00025786487880350697
s(S'has'
p4211
S'graduated'
p4212
S'from'
p4213
tp4214
F0.00025786487880350697
s(S'is'
p4215
S'honored'
p4216
S'by'
p4217
tp4218
F0.00025786487880350697
s(S'[[adj]]'
p4219
S'career'
p4220
S'with'
p4221
tp4222
F0.0010314595152140279
s(S'later'
p4223
S'coached'
p4224
S'at'
p4225
tp4226
F0.00025786487880350697
s(g3563
g3784
S'at'
p4227
tp4228
F0.0015471892728210418
s(S'later'
p4229
S'received'
p4230
S'[[prp]]'
p4231
tp4232
F0.00025786487880350697
s(g454
g455
S'round'
p4233
tp4234
F0.00025786487880350697
s(S'twice'
p4235
S'served'
p4236
S'as'
p4237
tp4238
F0.00025786487880350697
s(S'[[det]]'
p4239
S'leader'
p4240
S'to'
p4241
tp4242
F0.00025786487880350697
s(S'been'
p4243
S'honored'
p4244
S'by'
p4245
tp4246
F0.00025786487880350697
s(S'was'
p4247
S'transferred'
p4248
S'back'
p4249
tp4250
F0.00025786487880350697
s(S'attended'
p4251
S'[[con]]'
p4252
g1647
tp4253
F0.0012893243940175349
s(g2467
g3246
S'football'
p4254
tp4255
F0.0012893243940175349
s(S'later'
p4256
S'earned'
p4257
S'at'
p4258
tp4259
F0.00025786487880350697
s(S'[[det]]'
p4260
g3307
g41
tp4261
F0.00025786487880350697
s(S'received'
p4262
g749
g750
tp4263
F0.00025786487880350697
s(S'[[con]]'
p4264
S'head'
p4265
S'coach'
p4266
tp4267
F0.00025786487880350697
s(g2295
g2296
S'[[det]]'
p4268
tp4269
F0.00025786487880350697
s(S'already'
p4270
S'played'
p4271
S'for'
p4272
tp4273
F0.00025786487880350697
s(S'never'
p4274
S'played'
p4275
S'in'
p4276
tp4277
F0.00025786487880350697
s(S'born'
p4278
g1020
g1021
tp4279
F0.00025786487880350697
s(S'[[adj]]'
p4280
S'director'
p4281
S'at'
p4282
tp4283
F0.0007735946364105209
s(S'[[num]]'
p4284
S'season'
p4285
S'at'
p4286
tp4287
F0.00025786487880350697
s(S'was'
p4288
g2833
g2834
tp4289
F0.0023207839092315627
s(S'where'
p4290
S'served'
p4291
S'with'
p4292
tp4293
F0.00025786487880350697
s(S'then'
p4294
S'transferred'
p4295
S'as'
p4296
tp4297
F0.00025786487880350697
s(S'[[det]]'
p4298
S'student'
p4299
S'[[con]]'
p4300
tp4301
F0.00025786487880350697
s(S'rugby'
p4302
S'union'
p4303
S'player'
p4304
tp4305
F0.0007735946364105209
s(S'where'
p4306
S'played'
p4307
S'[[con]]'
p4308
tp4309
F0.00025786487880350697
s(S'who'
p4310
S'left'
p4311
S'[[det]]'
p4312
tp4313
F0.00025786487880350697
s(S'playing'
p4314
S'for'
p4315
S'clubs'
p4316
tp4317
F0.00025786487880350697
s(S'[[det]]'
p4318
S'star'
p4319
S'with'
p4320
tp4321
F0.00025786487880350697
s(g4252
g1647
g1648
tp4322
F0.0005157297576070139
s(S'mainly'
p4323
S'played'
p4324
S'with'
p4325
tp4326
F0.00025786487880350697
s(S'[[adj]]'
p4327
S'career'
p4328
S'[[num]]'
p4329
tp4330
F0.00025786487880350697
s(S'had'
p4331
S'entered'
p4332
S'[[det]]'
p4333
tp4334
F0.00025786487880350697
s(S'then'
p4335
S'attended'
p4336
S'[[con]]'
p4337
tp4338
F0.0005157297576070139
s(g121
S'career'
p4339
S'as'
p4340
tp4341
F0.00025786487880350697
s(S'is'
p4342
S'member'
p4343
S'of'
p4344
tp4345
F0.00025786487880350697
s(g2005
g2006
g3806
tp4346
F0.0007735946364105209
s(S'been'
p4347
S'brought'
p4348
S'up'
p4349
tp4350
F0.00025786487880350697
s(S'[[num]]'
p4351
S'returned'
p4352
S'to'
p4353
tp4354
F0.00025786487880350697
s(S'quarterback'
p4355
g2502
g2503
tp4356
F0.00025786487880350697
s(g614
g615
S'by'
p4357
tp4358
F0.00025786487880350697
s(S'was'
p4359
S'honored'
p4360
S'in'
p4361
tp4362
F0.00025786487880350697
s(S'had'
p4363
S'graduated'
p4364
S'from'
p4365
tp4366
F0.00025786487880350697
s(S'had'
p4367
S'left'
p4368
S'[[con]]'
p4369
tp4370
F0.00025786487880350697
s(S'become'
p4371
S'head'
p4372
S'coach'
p4373
tp4374
F0.0012893243940175349
s(S'[[num]]'
p4375
S'seasons'
p4376
S'for'
p4377
tp4378
F0.00025786487880350697
s(S'football'
p4379
S'player'
p4380
S'at'
p4381
tp4382
F0.0005157297576070139
s(S'has'
p4383
S'served'
p4384
S'[[det]]'
p4385
tp4386
F0.00025786487880350697
s(S'then'
p4387
S'moved'
p4388
S'back'
p4389
tp4390
F0.00025786487880350697
s(S'[[mod]]'
p4391
S'play'
p4392
S'for'
p4393
tp4394
F0.00025786487880350697
s(g3356
g3357
S'player'
p4395
tp4396
F0.00025786487880350697
s(S'[[adj]]'
p4397
S'quarterback'
p4398
S'to'
p4399
tp4400
F0.00025786487880350697
s(S'[[adj]]'
p4401
S'season'
p4402
S'as'
p4403
tp4404
F0.00025786487880350697
s(S'[[adj]]'
p4405
S'served'
p4406
S'as'
p4407
tp4408
F0.00025786487880350697
s(S'scored'
p4409
S'[[det]]'
p4410
g1438
tp4411
F0.0007735946364105209
s(S'[[adj]]'
p4412
S'transfer'
p4413
S'from'
p4414
tp4415
F0.00025786487880350697
s(S'[[det]]'
p4416
S'star'
p4417
S'at'
p4418
tp4419
F0.00025786487880350697
s(S'also'
p4420
S'coached'
p4421
S'[[det]]'
p4422
tp4423
F0.00025786487880350697
s(S'[[det]]'
p4424
S'coach'
p4425
S'[[num]]'
p4426
tp4427
F0.00025786487880350697
s(S'also'
p4428
S'served'
p4429
S'[[adj]]'
p4430
tp4431
F0.00025786487880350697
s(S'[[mod]]'
p4432
S'play'
p4433
S'again'
p4434
tp4435
F0.00025786487880350697
s(S'rules'
p4436
S'football'
p4437
S'with'
p4438
tp4439
F0.00025786487880350697
s(S'graduated'
p4440
g1481
g1482
tp4441
F0.00025786487880350697
s(g3499
g3069
g3070
tp4442
F0.0012893243940175349
s(S'[[con]]'
p4443
S'has'
p4444
S'served'
p4445
tp4446
F0.00025786487880350697
s(g2212
g4156
S'at'
p4447
tp4448
F0.0020629190304280558
s(S'football'
p4449
S'career'
p4450
S'at'
p4451
tp4452
F0.0012893243940175349
s(g2559
g1407
g1408
tp4453
F0.0005157297576070139
s(S'was'
p4454
S'selected'
p4455
S'at'
p4456
tp4457
F0.00025786487880350697
s(S'twice'
p4458
S'served'
p4459
S'in'
p4460
tp4461
F0.00025786487880350697
s(S'[[det]]'
p4462
S'transfer'
p4463
S'to'
p4464
tp4465
F0.00025786487880350697
s(S'[[det]]'
p4466
S'coach'
p4467
S'[[det]]'
p4468
tp4469
F0.00025786487880350697
s(g3450
g3451
S'in'
p4470
tp4471
F0.0007735946364105209
s(S'where'
p4472
S'graduated'
p4473
S'from'
p4474
tp4475
F0.00025786487880350697
s(S'also'
p4476
S'signed'
p4477
S'to'
p4478
tp4479
F0.00025786487880350697
s(S'has'
p4480
S'played'
p4481
S'most'
p4482
tp4483
F0.00025786487880350697
s(S'[[det]]'
p4484
S'member'
p4485
S'who'
p4486
tp4487
F0.00025786487880350697
s(S'[[con]]'
p4488
S'played'
p4489
S'with'
p4490
tp4491
F0.0007735946364105209
s(S'soon'
p4492
S'signed'
p4493
S'with'
p4494
tp4495
F0.00025786487880350697
s(S'attended'
p4496
S'college'
p4497
S'at'
p4498
tp4499
F0.0010314595152140279
s(S'first'
p4500
S'attended'
p4501
S'[[det]]'
p4502
tp4503
F0.00025786487880350697
s(g1215
g2220
g2221
tp4504
F0.0005157297576070139
s(S'later'
p4505
S'play'
p4506
S'for'
p4507
tp4508
F0.00025786487880350697
s(g296
g297
S'at'
p4509
tp4510
F0.0007735946364105209
s(S'[[adj]]'
p4511
S'coach'
p4512
S'[[con]]'
p4513
tp4514
F0.00025786487880350697
s(S'football'
p4515
S'safety'
p4516
S'for'
p4517
tp4518
F0.00025786487880350697
s(g1843
g1844
g4039
tp4519
F0.009025270758122744
s(g1207
g653
g654
tp4520
F0.00025786487880350697
s(S'was'
p4521
S'graduated'
p4522
S'now'
p4523
tp4524
F0.00025786487880350697
s(S'born'
p4525
S'[[num]]'
p4526
S'head'
p4527
tp4528
F0.00025786487880350697
s(S'before'
p4529
S'playing'
p4530
S'with'
p4531
tp4532
F0.00025786487880350697
s(S'was'
p4533
S'educated'
p4534
S'[[det]]'
p4535
tp4536
F0.00025786487880350697
s(g2278
g2254
g2255
tp4537
F0.00025786487880350697
s(g2314
g2315
S'for'
p4538
tp4539
F0.00025786487880350697
s(g2045
g2046
g1418
tp4540
F0.00025786487880350697
s(S'moving'
p4541
S'to'
p4542
S'club'
p4543
tp4544
F0.00025786487880350697
s(S'then'
p4545
S'signed'
p4546
S'with'
p4547
tp4548
F0.00025786487880350697
s(S'has'
p4549
S'competed'
p4550
S'for'
p4551
tp4552
F0.00025786487880350697
s(S'while'
p4553
S'returned'
p4554
S'to'
p4555
tp4556
F0.00025786487880350697
s(S'had'
p4557
S'left'
p4558
S'[[adj]]'
p4559
tp4560
F0.00025786487880350697
s(g1214
g1215
g2220
tp4561
F0.0010314595152140279
s(S'[[con]]'
p4562
S'left'
p4563
S'[[det]]'
p4564
tp4565
F0.00025786487880350697
s(S'then'
p4566
S'signed'
p4567
S'on'
p4568
tp4569
F0.00025786487880350697
s(S'again'
p4570
S'named'
p4571
S'by'
p4572
tp4573
F0.00025786487880350697
s(S'then'
p4574
S'selected'
p4575
S'against'
p4576
tp4577
F0.00025786487880350697
s(S'[[prp]]'
p4578
S'[[adj]]'
p4579
S'coaching'
p4580
tp4581
F0.00025786487880350697
s(S'football'
p4582
S'player'
p4583
S'in'
p4584
tp4585
F0.0010314595152140279
s(g1523
S'professionally'
p4586
S'in'
p4587
tp4588
F0.0010314595152140279
s(S'[[con]]'
p4589
S'returned'
p4590
S'on'
p4591
tp4592
F0.00025786487880350697
s(S'college'
p4593
S'basketball'
p4594
S'for'
p4595
tp4596
F0.0005157297576070139
s(S'again'
p4597
S'returned'
p4598
S'to'
p4599
tp4600
F0.00025786487880350697
s(S'career'
p4601
g2991
g2992
tp4602
F0.0005157297576070139
s(S'club'
p4603
S'football'
p4604
S'[[det]]'
p4605
tp4606
F0.00025786487880350697
s(S'is'
p4607
S'signed'
p4608
S'with'
p4609
tp4610
F0.00025786487880350697
s(S'is'
p4611
S'playing'
p4612
S'for'
p4613
tp4614
F0.00025786487880350697
s(S'[[det]]'
p4615
S'career'
p4616
S'with'
p4617
tp4618
F0.00025786487880350697
s(S'began'
p4619
g597
g598
tp4620
F0.0018050541516245488
s(S'[[num]]'
p4621
S'[[adj]]'
p4622
S'round'
p4623
tp4624
F0.00025786487880350697
s(g1243
g1926
S'head'
p4625
tp4626
F0.00025786487880350697
s(S'born'
p4627
g2661
g2662
tp4628
F0.00025786487880350697
s(S'graduated'
p4629
g1120
g1121
tp4630
F0.0005157297576070139
s(S'was'
p4631
S'received'
p4632
S'into'
p4633
tp4634
F0.00025786487880350697
s(S'then'
p4635
S'named'
p4636
S'[[det]]'
p4637
tp4638
F0.00025786487880350697
s(S'played'
p4639
g2902
g2903
tp4640
F0.0005157297576070139
s(S'later'
p4641
S'played'
p4642
S'club'
p4643
tp4644
F0.00025786487880350697
s(S'playing'
p4645
S'career'
p4646
S'with'
p4647
tp4648
F0.0007735946364105209
s(S'also'
p4649
S'served'
p4650
S'[[con]]'
p4651
tp4652
F0.00025786487880350697
s(S'[[det]]'
p4653
S'member'
p4654
S'has'
p4655
tp4656
F0.00025786487880350697
s(S'[[con]]'
p4657
g4280
g4281
tp4658
F0.0007735946364105209
s(S'had'
p4659
S'transferred'
p4660
S'to'
p4661
tp4662
F0.00025786487880350697
s(S'[[con]]'
p4663
S'led'
p4664
S'[[det]]'
p4665
tp4666
F0.00025786487880350697
s(S'be'
p4667
S'returning'
p4668
S'to'
p4669
tp4670
F0.00025786487880350697
s(g2031
g2032
S'of'
p4671
tp4672
F0.00025786487880350697
s(S'[[con]]'
p4673
S'signed'
p4674
S'with'
p4675
tp4676
F0.00025786487880350697
s(S'[[pro]]'
p4677
S'playing'
p4678
S'for'
p4679
tp4680
F0.00025786487880350697
s(S'then'
p4681
S'moved'
p4682
S'over'
p4683
tp4684
F0.00025786487880350697
s(S'graduated'
p4685
S'then'
p4686
S'attended'
p4687
tp4688
F0.0005157297576070139
s(S'career'
p4689
g2040
g2041
tp4690
F0.0005157297576070139
s(S'being'
p4691
S'signed'
p4692
S'by'
p4693
tp4694
F0.00025786487880350697
s(S'was'
p4695
S'brought'
p4696
S'into'
p4697
tp4698
F0.00025786487880350697
s(g3528
g3529
S'in'
p4699
tp4700
F0.0007735946364105209
s(S'also'
p4701
S'previously'
p4702
g3997
tp4703
F0.00025786487880350697
s(g4146
g3325
g3326
tp4704
F0.00025786487880350697
s(S'club'
p4705
S'football'
p4706
S'in'
p4707
tp4708
F0.0005157297576070139
s(S'career'
p4709
g876
g877
tp4710
F0.00025786487880350697
s(S'has'
p4711
S'coached'
p4712
S'[[num]]'
p4713
tp4714
F0.00025786487880350697
s(S'[[det]]'
p4715
S'member'
p4716
S'to'
p4717
tp4718
F0.00025786487880350697
s(S'with'
p4719
S'[[det]]'
p4720
S'team'
p4721
tp4722
F0.00025786487880350697
s(S'[[adj]]'
p4723
S'played'
p4724
S'in'
p4725
tp4726
F0.00025786487880350697
s(S'[[adj]]'
p4727
S'football'
p4728
S'as'
p4729
tp4730
F0.00025786487880350697
s(S'who'
p4731
S'played'
p4732
S'for'
p4733
tp4734
F0.005673027333677153
s(S'college'
p4735
S'football'
p4736
S'with'
p4737
tp4738
F0.00025786487880350697
s(S'then'
p4739
S'coached'
p4740
S'for'
p4741
tp4742
F0.00025786487880350697
s(g3410
g3411
g2738
tp4743
F0.00025786487880350697
s(S'was'
p4744
S'enrolled'
p4745
S'at'
p4746
tp4747
F0.00025786487880350697
s(S'of'
p4748
S'[[det]]'
p4749
S'team'
p4750
tp4751
F0.0005157297576070139
s(S'as'
p4752
S'coach'
p4753
S'of'
p4754
tp4755
F0.00025786487880350697
s(S'with'
p4756
g2030
g2031
tp4757
F0.00025786487880350697
s(S'to'
p4758
S'play'
p4759
S'in'
p4760
tp4761
F0.00025786487880350697
s(g4303
g4304
S'for'
p4762
tp4763
F0.0007735946364105209
s(S'also'
p4764
S'selected'
p4765
S'to'
p4766
tp4767
F0.00025786487880350697
s(S'where'
p4768
S'led'
p4769
S'[[det]]'
p4770
tp4771
F0.00025786487880350697
s(S'then'
p4772
S'played'
p4773
S'[[det]]'
p4774
tp4775
F0.00025786487880350697
s(S'had'
p4776
S'moved'
p4777
S'on'
p4778
tp4779
F0.00025786487880350697
s(S'has'
p4780
S'played'
p4781
S'at'
p4782
tp4783
F0.00025786487880350697
s(S'began'
p4784
S'[[prp]]'
p4785
S'[[adj]]'
p4786
tp4787
F0.0025786487880350697
s(S'was'
p4788
S'recruited'
p4789
S'for'
p4790
tp4791
F0.00025786487880350697
s(S'[[det]]'
p4792
S'year'
p4793
S'for'
p4794
tp4795
F0.00025786487880350697
s(S'never'
p4796
S'played'
p4797
S'[[con]]'
p4798
tp4799
F0.00025786487880350697
s(g2634
g2635
S'[[adj]]'
p4800
tp4801
F0.0005157297576070139
s(S'[[con]]'
p4802
S'[[adj]]'
p4803
S'coordinator'
p4804
tp4805
F0.00025786487880350697
s(g4125
g1801
g1802
tp4806
F0.00025786487880350697
s(g4137
g169
g170
tp4807
F0.00025786487880350697
s(g4803
g4804
S'for'
p4808
tp4809
F0.00025786487880350697
s(S'[[prp]]'
p4810
S'career'
p4811
g1735
tp4812
F0.00025786487880350697
s(g3799
S'football'
p4813
S'at'
p4814
tp4815
F0.0012893243940175349
s(g1450
g1451
S'for'
p4816
tp4817
F0.00025786487880350697
s(S'when'
p4818
S'played'
p4819
S'for'
p4820
tp4821
F0.00025786487880350697
s(S'returned'
p4822
S'as'
p4823
S'head'
p4824
tp4825
F0.00025786487880350697
s(S'attended'
p4826
S'was'
p4827
S'graduated'
p4828
tp4829
F0.00025786487880350697
s(g106
g107
S'at'
p4830
tp4831
F0.00025786487880350697
s(S'was'
p4832
S'moved'
p4833
S'for'
p4834
tp4835
F0.00025786487880350697
s(S'is'
p4836
S'leaving'
p4837
S'for'
p4838
tp4839
F0.00025786487880350697
s(S'[[con]]'
p4840
S'attended'
p4841
S'[[con]]'
p4842
tp4843
F0.0010314595152140279
s(S'which'
p4844
S'led'
p4845
S'[[det]]'
p4846
tp4847
F0.00025786487880350697
s(S'[[adj]]'
p4848
S'played'
p4849
S'for'
p4850
tp4851
F0.0005157297576070139
s(S'[[det]]'
p4852
g2262
g2263
tp4853
F0.0007735946364105209
s(g3246
g4254
S'player'
p4854
tp4855
F0.0020629190304280558
s(S'association'
p4856
S'football'
p4857
S'who'
p4858
tp4859
F0.00025786487880350697
s(S'[[con]]'
p4860
S'educated'
p4861
S'there'
p4862
tp4863
F0.00025786487880350697
s(S'[[det]]'
p4864
g2683
g53
tp4865
F0.0005157297576070139
s(S'then'
p4866
S'coached'
p4867
S'[[det]]'
p4868
tp4869
F0.00025786487880350697
s(S'then'
p4870
S'enrolled'
p4871
S'in'
p4872
tp4873
F0.00025786487880350697
s(S'[[adj]]'
p4874
S'attended'
p4875
S'[[det]]'
p4876
tp4877
F0.00025786487880350697
s(S'[[adj]]'
p4878
S'member'
p4879
S'[[num]]'
p4880
tp4881
F0.00025786487880350697
s(S'when'
p4882
S'entered'
p4883
S'[[det]]'
p4884
tp4885
F0.00025786487880350697
s(S'[[con]]'
p4886
S'served'
p4887
S'[[det]]'
p4888
tp4889
F0.00025786487880350697
s(S'best'
p4890
S'season'
p4891
S'with'
p4892
tp4893
F0.00025786487880350697
s(S'[[num]]'
p4894
S'year'
p4895
S'[[adj]]'
p4896
tp4897
F0.00025786487880350697
s(S'[[adj]]'
p4898
S'member'
p4899
S'at'
p4900
tp4901
F0.00025786487880350697
s(S'never'
p4902
S'left'
p4903
S'[[det]]'
p4904
tp4905
F0.00025786487880350697
s(S'later'
p4906
S'attended'
p4907
S'at'
p4908
tp4909
F0.00025786487880350697
s(g262
g263
g121
tp4910
F0.0010314595152140279
s(S'once'
p4911
S'played'
p4912
S'for'
p4913
tp4914
F0.00025786487880350697
s(S'to'
p4915
S'coach'
p4916
S'[[num]]'
p4917
tp4918
F0.00025786487880350697
s(S'[[prp]]'
p4919
g2274
g2275
tp4920
F0.0030943785456420837
s(S'was'
p4921
S'recruited'
p4922
S'[[con]]'
p4923
tp4924
F0.00025786487880350697
s(g1420
S'player'
p4925
S'in'
p4926
tp4927
F0.00025786487880350697
s(S'had'
p4928
g966
g967
tp4929
F0.00025786487880350697
s(S'football'
p4930
g3037
g3038
tp4931
F0.00025786487880350697
s(S'first'
p4932
S'played'
p4933
S'with'
p4934
tp4935
F0.00025786487880350697
s(S'started'
p4936
S'[[prp]]'
p4937
g896
tp4938
F0.0010314595152140279
s(S'coaching'
p4939
S'career'
p4940
S'at'
p4941
tp4942
F0.0010314595152140279
s(S'was'
p4943
S'signed'
p4944
S'as'
p4945
tp4946
F0.00025786487880350697
s(S'basketball'
p4947
S'player'
p4948
S'at'
p4949
tp4950
F0.00025786487880350697
s(g4702
g3997
g3998
tp4951
F0.00025786487880350697
s(g924
g925
S'professionally'
p4952
tp4953
F0.00025786487880350697
s(S'also'
p4954
S'honored'
p4955
S'by'
p4956
tp4957
F0.00025786487880350697
s(S'has'
p4958
S'earned'
p4959
S'[[det]]'
p4960
tp4961
F0.00025786487880350697
s(S'[[num]]'
p4962
S'played'
p4963
S'at'
p4964
tp4965
F0.00025786487880350697
s(g959
g960
S'ndash'
p4966
tp4967
F0.0007735946364105209
s(S'career'
p4968
g4176
g4177
tp4969
F0.0005157297576070139
s(S'to'
p4970
S'play'
p4971
S'with'
p4972
tp4973
F0.00025786487880350697
s(S'formerly'
p4974
S'served'
p4975
S'in'
p4976
tp4977
F0.00025786487880350697
s(S'player'
p4978
S'playing'
p4979
S'in'
p4980
tp4981
F0.00025786487880350697
s(S'also'
p4982
S'played'
p4983
S'rules'
p4984
tp4985
F0.00025786487880350697
s(S'[[con]]'
p4986
S'signed'
p4987
S'up'
p4988
tp4989
F0.00025786487880350697
s(g3755
g3756
S'[[adj]]'
p4990
tp4991
F0.00025786487880350697
s(S'player'
p4992
S'who'
p4993
S'plays'
p4994
tp4995
F0.0023207839092315627
s(S'who'
p4996
S'played'
p4997
S'club'
p4998
tp4999
F0.00025786487880350697
s(S'[[det]]'
p5000
S'coach'
p5001
S'at'
p5002
tp5003
F0.00025786487880350697
s(S'was'
p5004
g828
g829
tp5005
F0.00025786487880350697
s(g2281
g2282
g3653
tp5006
F0.00025786487880350697
s(S'career'
p5007
g1838
g1839
tp5008
F0.00025786487880350697
s(S'head'
p5009
S'coach'
p5010
S'[[num]]'
p5011
tp5012
F0.0007735946364105209
s(S'then'
p5013
S'hired'
p5014
S'as'
p5015
tp5016
F0.00025786487880350697
s(S'[[con]]'
p5017
S'enrolled'
p5018
S'at'
p5019
tp5020
F0.00025786487880350697
s(g746
g747
g959
tp5021
F0.0005157297576070139
s(S'also'
p5022
S'played'
p5023
S'over'
p5024
tp5025
F0.00025786487880350697
s(S'was'
p5026
S'signed'
p5027
S'[[con]]'
p5028
tp5029
F0.00025786487880350697
s(S'later'
p5030
S'graduated'
p5031
S'from'
p5032
tp5033
F0.0005157297576070139
s(S'later'
p5034
S'coached'
p5035
S'in'
p5036
tp5037
F0.00025786487880350697
s(S'later'
p5038
S'played'
p5039
S'[[det]]'
p5040
tp5041
F0.00025786487880350697
s(S'club'
p5042
S'football'
p5043
S'with'
p5044
tp5045
F0.0007735946364105209
s(S'has'
p5046
S'attended'
p5047
S'[[con]]'
p5048
tp5049
F0.00025786487880350697
s(S'became'
p5050
S'member'
p5051
S'for'
p5052
tp5053
F0.00025786487880350697
s(S'also'
p5054
S'led'
p5055
S'[[con]]'
p5056
tp5057
F0.00025786487880350697
s(S'started'
p5058
g4919
g2274
tp5059
F0.007220216606498195
s(S'[[num]]'
p5060
S'season'
p5061
S'in'
p5062
tp5063
F0.00025786487880350697
s(S'been'
p5064
S'signed'
p5065
S'from'
p5066
tp5067
F0.00025786487880350697
s(S'was'
p5068
S'head'
p5069
g4032
tp5070
F0.00025786487880350697
s(S'[[num]]'
p5071
S'graduate'
p5072
S'[[con]]'
p5073
tp5074
F0.00025786487880350697
s(S'[[det]]'
p5075
S'leader'
p5076
S'[[con]]'
p5077
tp5078
F0.00025786487880350697
s(S'[[det]]'
p5079
S'member'
p5080
S'[[con]]'
p5081
tp5082
F0.00025786487880350697
s(S'left'
p5083
S'to'
p5084
g4371
tp5085
F0.00025786487880350697
s(g2952
g2953
S'currently'
p5086
tp5087
F0.00025786487880350697
s(g967
g968
S'head'
p5088
tp5089
F0.00025786487880350697
s(S'[[mod]]'
p5090
S'attend'
p5091
S'[[det]]'
p5092
tp5093
F0.00025786487880350697
s(S'later'
p5094
S'played'
p5095
S'for'
p5096
tp5097
F0.0007735946364105209
s(S'coach'
p5098
g3738
g3739
tp5099
F0.00025786487880350697
s(S'also'
p5100
S'play'
p5101
S'in'
p5102
tp5103
F0.00025786487880350697
s(g2537
g2538
S'football'
p5104
tp5105
F0.00025786487880350697
s(S'as'
p5106
S'[[det]]'
p5107
S'apprentice'
p5108
tp5109
F0.0007735946364105209
s(g1502
g1503
S'by'
p5110
tp5111
F0.0005157297576070139
s(S'then'
p5112
S'played'
p5113
S'[[num]]'
p5114
tp5115
F0.0007735946364105209
s(S'played'
p5116
g4719
g4720
tp5117
F0.00025786487880350697
s(S'then'
p5118
S'served'
p5119
S'in'
p5120
tp5121
F0.00025786487880350697
s(S'football'
p5122
g1920
g1921
tp5123
F0.00025786487880350697
s(g1924
g2967
S'played'
p5124
tp5125
F0.0007735946364105209
s(S'being'
p5126
S'selected'
p5127
S'by'
p5128
tp5129
F0.00025786487880350697
s(S'began'
p5130
g1094
g1095
tp5131
F0.00025786487880350697
s(S'not'
p5132
S'played'
p5133
S'in'
p5134
tp5135
F0.00025786487880350697
s(S'was'
p5136
g3963
g3964
tp5137
F0.00025786487880350697
s(S'named'
p5138
S'as'
p5139
S'[[adj]]'
p5140
tp5141
F0.00025786487880350697
s(S'before'
p5142
S'moving'
p5143
S'with'
p5144
tp5145
F0.00025786487880350697
s(S'[[prp]]'
p5146
S'career'
p5147
S'for'
p5148
tp5149
F0.00025786487880350697
s(S'graduated'
p5150
S'[[con]]'
p5151
S'attended'
p5152
tp5153
F0.0010314595152140279
s(S'[[adj]]'
p5154
S'seasons'
p5155
S'for'
p5156
tp5157
F0.00025786487880350697
s(S'was'
p5158
S'selected'
p5159
S'after'
p5160
tp5161
F0.0005157297576070139
s(S'also'
p5162
S'played'
p5163
S'[[adj]]'
p5164
tp5165
F0.0012893243940175349
s(S'was'
p5166
S'head'
p5167
S'coach'
p5168
tp5169
F0.00025786487880350697
s(S'[[adj]]'
p5170
S'season'
p5171
S'for'
p5172
tp5173
F0.00025786487880350697
s(g562
g563
S'from'
p5174
tp5175
F0.0015471892728210418
s(S'attended'
p5176
S'graduated'
p5177
S'from'
p5178
tp5179
F0.00025786487880350697
s(S'[[num]]'
p5180
S'served'
p5181
S'on'
p5182
tp5183
F0.00025786487880350697
s(S'was'
p5184
S'signed'
p5185
S'in'
p5186
tp5187
F0.00025786487880350697
s(S'was'
p5188
S'named'
p5189
S'[[adj]]'
p5190
tp5191
F0.00025786487880350697
s(S'was'
p5192
S'honored'
p5193
S'with'
p5194
tp5195
F0.00025786487880350697
s(S'football'
p5196
g4194
g4195
tp5197
F0.00025786487880350697
s(S'also'
p5198
S'coached'
p5199
S'at'
p5200
tp5201
F0.00025786487880350697
s(g1776
g1936
g1937
tp5202
F0.0012893243940175349
s(g1254
g1255
g4204
tp5203
F0.0010314595152140279
s(S'then'
p5204
S'received'
p5205
S'[[con]]'
p5206
tp5207
F0.00025786487880350697
s(S'to'
p5208
S'transfer'
p5209
S'from'
p5210
tp5211
F0.00025786487880350697
s(S'who'
p5212
S'plays'
p5213
S'for'
p5214
tp5215
F0.0025786487880350697
s(S'was'
p5216
S'coach'
p5217
S'at'
p5218
tp5219
F0.00025786487880350697
s(S'was'
p5220
S'moved'
p5221
S'back'
p5222
tp5223
F0.00025786487880350697
s(S'[[mod]]'
p5224
S'play'
p5225
S'against'
p5226
tp5227
F0.00025786487880350697
s(S'later'
p5228
S'attended'
p5229
S'[[det]]'
p5230
tp5231
F0.0007735946364105209
s(S'football'
p5232
g923
g924
tp5233
F0.0007735946364105209
s(S'has'
p5234
S'coached'
p5235
S'in'
p5236
tp5237
F0.00025786487880350697
s(S'then'
p5238
S'playing'
p5239
S'for'
p5240
tp5241
F0.00025786487880350697
s(S'then'
p5242
S'finished'
p5243
S'[[prp]]'
p5244
tp5245
F0.00025786487880350697
s(S'played'
p5246
S'football'
p5247
S'in'
p5248
tp5249
F0.0005157297576070139
s(S'[[det]]'
p5250
S'star'
p5251
S'in'
p5252
tp5253
F0.00025786487880350697
s(S'[[det]]'
p5254
S'leader'
p5255
S'in'
p5256
tp5257
F0.00025786487880350697
s(g4579
g4580
S'career'
p5258
tp5259
F0.00025786487880350697
s(S'also'
p5260
S'served'
p5261
S'of'
p5262
tp5263
F0.00025786487880350697
s(S'again'
p5264
S'played'
p5265
S'for'
p5266
tp5267
F0.00025786487880350697
s(g4993
g4994
S'with'
p5268
tp5269
F0.00025786487880350697
s(S'[[prp]]'
p5270
S'career'
p5271
g5106
tp5272
F0.0010314595152140279
s(S'[[con]]'
p5273
g61
g62
tp5274
F0.00025786487880350697
s(g1419
g1420
g4925
tp5275
F0.00025786487880350697
s(S'who'
p5276
S'played'
p5277
S'[[adj]]'
p5278
tp5279
F0.0005157297576070139
s(g4315
g4316
S'[[adj]]'
p5280
tp5281
F0.00025786487880350697
s(S'left'
p5282
S'to'
p5283
S'[[det]]'
p5284
tp5285
F0.0010314595152140279
s(S'also'
p5286
S'signed'
p5287
S'for'
p5288
tp5289
F0.00025786487880350697
s(S'has'
p5290
S'left'
p5291
S'[[con]]'
p5292
tp5293
F0.00025786487880350697
s(S'[[con]]'
p5294
S'received'
p5295
S'[[det]]'
p5296
tp5297
F0.0005157297576070139
s(g4857
g4858
S'played'
p5298
tp5299
F0.00025786487880350697
s(S'also'
p5300
S'selected'
p5301
S'as'
p5302
tp5303
F0.00025786487880350697
s(S'be'
p5304
S'transferred'
p5305
S'to'
p5306
tp5307
F0.00025786487880350697
s(g1873
g1874
S'held'
p5308
tp5309
F0.0005157297576070139
s(S'[[adj]]'
p5310
S'student'
p5311
S'at'
p5312
tp5313
F0.00025786487880350697
s(S'being'
p5314
S'transferred'
p5315
S'to'
p5316
tp5317
F0.00025786487880350697
s(S'born'
p5318
S'attended'
p5319
S'[[det]]'
p5320
tp5321
F0.00025786487880350697
s(S'also'
p5322
S'led'
p5323
S'[[det]]'
p5324
tp5325
F0.00025786487880350697
s(g4153
g4154
S'[[con]]'
p5326
tp5327
F0.005673027333677153
s(S'who'
p5328
S'served'
p5329
S'with'
p5330
tp5331
F0.00025786487880350697
s(S'named'
p5332
g3208
g3209
tp5333
F0.0007735946364105209
s(S'upon'
p5334
S'returning'
p5335
S'as'
p5336
tp5337
F0.00025786487880350697
s(S'also'
p5338
S'playing'
p5339
S'in'
p5340
tp5341
F0.00025786487880350697
s(S'[[det]]'
p5342
S'member'
p5343
S'when'
p5344
tp5345
F0.00025786487880350697
s(g1798
g1799
S'lb'
p5346
tp5347
F0.00025786487880350697
s(S'since'
p5348
S'played'
p5349
S'for'
p5350
tp5351
F0.0007735946364105209
s(S'played'
p5352
S'with'
p5353
S'team'
p5354
tp5355
F0.0005157297576070139
s(S'football'
p5356
S'coach'
p5357
S'[[det]]'
p5358
tp5359
F0.00025786487880350697
s(S'has'
p5360
S'served'
p5361
S'[[con]]'
p5362
tp5363
F0.00025786487880350697
s(g594
g595
S'attended'
p5364
tp5365
F0.0007735946364105209
s(S'has'
p5366
S'coached'
p5367
S'[[con]]'
p5368
tp5369
F0.00025786487880350697
s(S'was'
p5370
S'drafted'
p5371
g4621
tp5372
F0.00025786487880350697
s(g5283
g5284
g3809
tp5373
F0.0010314595152140279
s(g1634
g1635
S'head'
p5374
tp5375
F0.0007735946364105209
s(S'when'
p5376
S'was'
p5377
S'named'
p5378
tp5379
F0.00025786487880350697
s(S'was'
p5380
S'named'
p5381
S'by'
p5382
tp5383
F0.00025786487880350697
s(S'[[det]]'
p5384
S'coach'
p5385
S'of'
p5386
tp5387
F0.00025786487880350697
s(g3567
g3568
S'with'
p5388
tp5389
F0.00025786487880350697
s(g5084
g4371
g4372
tp5390
F0.00025786487880350697
s(S'again'
p5391
S'returned'
p5392
S'[[con]]'
p5393
tp5394
F0.00025786487880350697
s(S'was'
p5395
S'selected'
p5396
S'[[con]]'
p5397
tp5398
F0.00025786487880350697
s(S'[[num]]'
p5399
S'played'
p5400
S'for'
p5401
tp5402
F0.00025786487880350697
s(S'became'
p5403
S'coach'
p5404
S'[[det]]'
p5405
tp5406
F0.00025786487880350697
s(S'formerly'
p5407
S'played'
p5408
S'[[con]]'
p5409
tp5410
F0.00025786487880350697
s(S'also'
p5411
S'play'
p5412
S'for'
p5413
tp5414
F0.00025786487880350697
s(S'been'
p5415
S'named'
p5416
S'[[det]]'
p5417
tp5418
F0.00025786487880350697
s(S'played'
p5419
g4436
g4437
tp5420
F0.0007735946364105209
s(S'when'
p5421
S'signed'
p5422
S'with'
p5423
tp5424
F0.00025786487880350697
s(S'[[con]]'
p5425
S'received'
p5426
S'from'
p5427
tp5428
F0.00025786487880350697
s(S'instead'
p5429
S'signed'
p5430
S'with'
p5431
tp5432
F0.00025786487880350697
s(S'had'
p5433
S'coached'
p5434
S'at'
p5435
tp5436
F0.00025786487880350697
s(g70
g71
S'[[con]]'
p5437
tp5438
F0.00025786487880350697
s(S'had'
p5439
S'come'
p5440
S'back'
p5441
tp5442
F0.00025786487880350697
s(S'then'
p5443
S'returned'
p5444
S'to'
p5445
tp5446
F0.00025786487880350697
s(g1080
g2138
S'[[adj]]'
p5447
tp5448
F0.00025786487880350697
s(S'football'
p5449
S'safety'
p5450
S'player'
p5451
tp5452
F0.00025786487880350697
s(S'later'
p5453
S'received'
p5454
S'at'
p5455
tp5456
F0.00025786487880350697
s(S'[[det]]'
p5457
S'team'
p5458
g121
tp5459
F0.00025786487880350697
s(S'[[det]]'
p5460
S'[[num]]'
p5461
S'years'
p5462
tp5463
F0.00025786487880350697
s(S'is'
p5464
S'selected'
p5465
S'as'
p5466
tp5467
F0.00025786487880350697
s(S'when'
p5468
S'signed'
p5469
S'up'
p5470
tp5471
F0.00025786487880350697
s(S'has'
p5472
S'served'
p5473
S'[[adj]]'
p5474
tp5475
F0.00025786487880350697
s(S'[[adj]]'
p5476
S'quarterback'
p5477
S'in'
p5478
tp5479
F0.00025786487880350697
s(S'also'
p5480
S'earned'
p5481
S'[[det]]'
p5482
tp5483
F0.00025786487880350697
s(S'[[prp]]'
p5484
g4139
g2924
tp5485
F0.00025786487880350697
s(S'college'
p5486
g3363
g3364
tp5487
F0.0020629190304280558
s(S'also'
p5488
S'received'
p5489
S'to'
p5490
tp5491
F0.00025786487880350697
s(g1415
g1416
S'of'
p5492
tp5493
F0.009283135636926251
s(S'played'
p5494
S'[[prp]]'
p5495
S'football'
p5496
tp5497
F0.0005157297576070139
s(S'also'
p5498
S'played'
p5499
S'where'
p5500
tp5501
F0.00025786487880350697
s(S'then'
p5502
S'signed'
p5503
S'to'
p5504
tp5505
F0.00025786487880350697
s(S'was'
p5506
S'signed'
p5507
S'up'
p5508
tp5509
F0.00025786487880350697
s(S'formerly'
p5510
S'played'
p5511
S'in'
p5512
tp5513
F0.00025786487880350697
s(S'[[mod]]'
p5514
S'lead'
p5515
S'[[det]]'
p5516
tp5517
F0.00025786487880350697
s(S'then'
p5518
S'hired'
p5519
S'in'
p5520
tp5521
F0.00025786487880350697
s(S'again'
p5522
S'named'
p5523
S'in'
p5524
tp5525
F0.00025786487880350697
s(S'[[prp]]'
p5526
S'[[adj]]'
p5527
S'school'
p5528
tp5529
F0.00025786487880350697
s(S'also'
p5530
S'coached'
p5531
S'[[con]]'
p5532
tp5533
F0.00025786487880350697
s(S'currently'
p5534
S'signed'
p5535
S'to'
p5536
tp5537
F0.00025786487880350697
s(S'basketball'
p5538
S'[[con]]'
p5539
g565
tp5540
F0.00025786487880350697
s(S'still'
p5541
S'playing'
p5542
S'for'
p5543
tp5544
F0.00025786487880350697
s(S'were'
p5545
S'signed'
p5546
S'by'
p5547
tp5548
F0.00025786487880350697
s(S'college'
p5549
g2943
g2944
tp5550
F0.00025786487880350697
s(S'then'
p5551
S'transferred'
p5552
S'[[con]]'
p5553
tp5554
F0.00025786487880350697
s(S'[[prp]]'
p5555
S'[[adj]]'
p5556
S'golf'
p5557
tp5558
F0.00025786487880350697
s(S'[[num]]'
p5559
S'graduate'
p5560
S'[[det]]'
p5561
tp5562
F0.00025786487880350697
s(S'began'
p5563
S'[[prp]]'
p5564
g2168
tp5565
F0.0010314595152140279
s(g4526
g4527
S'coach'
p5566
tp5567
F0.00025786487880350697
s(g1408
g1409
S'with'
p5568
tp5569
F0.00025786487880350697
s(S'then'
p5570
S'selected'
p5571
S'in'
p5572
tp5573
F0.00025786487880350697
s(S'is'
p5574
g3021
g241
tp5575
F0.0028365136668385767
s(S'[[num]]'
p5576
g4947
g4948
tp5577
F0.0005157297576070139
s(S'[[det]]'
p5578
S'football'
p5579
g2422
tp5580
F0.00025786487880350697
s(S'has'
p5581
S'received'
p5582
S'at'
p5583
tp5584
F0.00025786487880350697
s(S'coaching'
p5585
S'career'
p5586
S'with'
p5587
tp5588
F0.00025786487880350697
s(S'who'
p5589
S'played'
p5590
S'professionally'
p5591
tp5592
F0.0005157297576070139
s(S'has'
p5593
S'played'
p5594
S'football'
p5595
tp5596
F0.00025786487880350697
s(S'played'
p5597
g4593
g4594
tp5598
F0.0028365136668385767
s(S'played'
p5599
S'quarterback'
p5600
S'[[con]]'
p5601
tp5602
F0.00025786487880350697
s(S'to'
p5603
g2752
g2753
tp5604
F0.0010314595152140279
s(S'[[det]]'
p5605
S'head'
p5606
g4443
tp5607
F0.0005157297576070139
s(S'to'
p5608
S'play'
p5609
S'at'
p5610
tp5611
F0.00025786487880350697
s(S'has'
p5612
S'coached'
p5613
S'[[det]]'
p5614
tp5615
F0.00025786487880350697
s(S'also'
p5616
S'graduated'
p5617
S'at'
p5618
tp5619
F0.00025786487880350697
s(g3879
g3527
g3528
tp5620
F0.00025786487880350697
s(S'is'
p5621
S'named'
p5622
S'as'
p5623
tp5624
F0.00025786487880350697
s(g3557
g2748
g2749
tp5625
F0.00025786487880350697
s(S'has'
p5626
S'brought'
p5627
S'[[prp]]'
p5628
tp5629
F0.00025786487880350697
s(g83
g2090
S'men'
p5630
tp5631
F0.0007735946364105209
s(S'then'
p5632
S'moved'
p5633
S'onto'
p5634
tp5635
F0.00025786487880350697
s(S'played'
p5636
g781
g782
tp5637
F0.004899432697266632
s(g698
g699
S'played'
p5638
tp5639
F0.0005157297576070139
s(S'[[adj]]'
p5640
S'team'
p5641
S'with'
p5642
tp5643
F0.00025786487880350697
s(S'first'
p5644
S'served'
p5645
S'in'
p5646
tp5647
F0.00025786487880350697
s(S'has'
p5648
S'served'
p5649
S'with'
p5650
tp5651
F0.00025786487880350697
s(S'[[pro]]'
p5652
S'served'
p5653
S'in'
p5654
tp5655
F0.00025786487880350697
s(S'[[num]]'
p5656
S'season'
p5657
S'[[con]]'
p5658
tp5659
F0.00025786487880350697
s(g3814
g1742
g1743
tp5660
F0.00025786487880350697
s(S'played'
p5661
S'collegiately'
p5662
S'for'
p5663
tp5664
F0.00025786487880350697
s(S'been'
p5665
S'hired'
p5666
S'by'
p5667
tp5668
F0.00025786487880350697
s(S'later'
p5669
S'attended'
p5670
S'now'
p5671
tp5672
F0.00025786487880350697
s(S'then'
p5673
S'moved'
p5674
S'then'
p5675
tp5676
F0.00025786487880350697
s(S'who'
p5677
g769
g770
tp5678
F0.00025786487880350697
s(S'[[adj]]'
p5679
g2951
g2952
tp5680
F0.00025786487880350697
s(S'[[adj]]'
p5681
S'career'
p5682
S'of'
p5683
tp5684
F0.00025786487880350697
s(g320
g321
g3641
tp5685
F0.0005157297576070139
s(S'then'
p5686
S'coached'
p5687
S'[[con]]'
p5688
tp5689
F0.00025786487880350697
s(g2805
g2806
g3798
tp5690
F0.00025786487880350697
s(g1295
g3349
S'at'
p5691
tp5692
F0.0010314595152140279
s(S'as'
p5693
g721
g722
tp5694
F0.00025786487880350697
s(S'formerly'
p5695
S'served'
p5696
S'to'
p5697
tp5698
F0.00025786487880350697
s(S'defender'
p5699
S'played'
p5700
S'[[prp]]'
p5701
tp5702
F0.00025786487880350697
s(S'[[det]]'
p5703
S'coach'
p5704
S'[[con]]'
p5705
tp5706
F0.00025786487880350697
s(S'[[det]]'
p5707
S'student'
p5708
S'at'
p5709
tp5710
F0.00025786487880350697
s(S'born'
p5711
S'in'
p5712
S'attended'
p5713
tp5714
F0.00025786487880350697
s(S'[[det]]'
p5715
S'left'
p5716
S'of'
p5717
tp5718
F0.00025786487880350697
s(g5450
g5451
S'for'
p5719
tp5720
F0.00025786487880350697
s(S'before'
p5721
S'enrolling'
p5722
S'in'
p5723
tp5724
F0.00025786487880350697
s(S'held'
p5725
S'[[det]]'
p5726
S'record'
p5727
tp5728
F0.0005157297576070139
s(S'then'
p5729
S'played'
p5730
S'against'
p5731
tp5732
F0.00025786487880350697
s(S'football'
p5733
S'player'
p5734
S'for'
p5735
tp5736
F0.0012893243940175349
s(S'is'
p5737
S'[[det]]'
p5738
S'college'
p5739
tp5740
F0.00025786487880350697
s(S'had'
p5741
S'played'
p5742
S'against'
p5743
tp5744
F0.00025786487880350697
s(S'[[prp]]'
p5745
g1082
g1083
tp5746
F0.00025786487880350697
s(S'member'
p5747
g4748
g4749
tp5748
F0.0005157297576070139
s(S'was'
p5749
S'honored'
p5750
S'to'
p5751
tp5752
F0.00025786487880350697
s(S'before'
p5753
S'returning'
p5754
S'with'
p5755
tp5756
F0.00025786487880350697
s(S'has'
p5757
S'moved'
p5758
S'from'
p5759
tp5760
F0.00025786487880350697
s(S'also'
p5761
S'named'
p5762
S'[[con]]'
p5763
tp5764
F0.00025786487880350697
s(S'[[num]]'
p5765
S'season'
p5766
S'of'
p5767
tp5768
F0.00025786487880350697
s(S'also'
p5769
S'member'
p5770
S'[[con]]'
p5771
tp5772
F0.00025786487880350697
s(S'never'
p5773
S'received'
p5774
S'[[det]]'
p5775
tp5776
F0.00025786487880350697
s(S'[[con]]'
p5777
S'educated'
p5778
S'[[con]]'
p5779
tp5780
F0.00025786487880350697
s(S'then'
p5781
S'moved'
p5782
S'on'
p5783
tp5784
F0.00025786487880350697
s(S'[[adj]]'
p5785
S'play'
p5786
S'with'
p5787
tp5788
F0.00025786487880350697
s(S'[[adj]]'
p5789
g4302
g4303
tp5790
F0.00025786487880350697
s(g4171
g4172
S'[[det]]'
p5791
tp5792
F0.00025786487880350697
s(S'first'
p5793
S'entered'
p5794
S'[[det]]'
p5795
tp5796
F0.00025786487880350697
s(S'[[adj]]'
p5797
S'year'
p5798
S'of'
p5799
tp5800
F0.00025786487880350697
s(S'[[num]]'
p5801
g1605
g1606
tp5802
F0.0007735946364105209
s(g2638
g2639
S'coach'
p5803
tp5804
F0.0018050541516245488
s(g1400
g1401
S'against'
p5805
tp5806
F0.00025786487880350697
s(S'then'
p5807
S'left'
p5808
S'for'
p5809
tp5810
F0.00025786487880350697
s(S'later'
p5811
S'served'
p5812
S'with'
p5813
tp5814
F0.00025786487880350697
s(g641
g642
S'plays'
p5815
tp5816
F0.0036101083032490976
s(g283
g2914
S'[[det]]'
p5817
tp5818
F0.00025786487880350697
s(S'[[det]]'
p5819
g745
g746
tp5820
F0.0012893243940175349
s(g121
g3698
g3699
tp5821
F0.0007735946364105209
s(S'football'
p5822
S'currently'
p5823
S'playing'
p5824
tp5825
F0.00025786487880350697
s(S'then'
p5826
S'moved'
p5827
S'[[det]]'
p5828
tp5829
F0.00025786487880350697
s(g121
S'team'
p5830
S'in'
p5831
tp5832
F0.00025786487880350697
s(S'[[adj]]'
p5833
S'played'
p5834
S'as'
p5835
tp5836
F0.00025786487880350697
s(S'[[adj]]'
p5837
S'football'
p5838
S'player'
p5839
tp5840
F0.008251676121712223
s(S'head'
p5841
g3634
g2092
tp5842
F0.0005157297576070139
s(g4622
g4623
S'of'
p5843
tp5844
F0.00025786487880350697
s(g3798
g3799
g4813
tp5845
F0.0015471892728210418
s(S'[[adj]]'
p5846
S'transferred'
p5847
S'to'
p5848
tp5849
F0.00025786487880350697
s(S'born'
p5850
g3683
g3684
tp5851
F0.0005157297576070139
s(S'had'
p5852
S'signed'
p5853
S'for'
p5854
tp5855
F0.00025786487880350697
s(S'[[con]]'
p5856
S'transferred'
p5857
S'to'
p5858
tp5859
F0.00025786487880350697
s(g4937
g896
g897
tp5860
F0.0020629190304280558
s(S'[[mod]]'
p5861
S'come'
p5862
S'back'
p5863
tp5864
F0.00025786487880350697
s(S'play'
p5865
S'basketball'
p5866
S'at'
p5867
tp5868
F0.00025786487880350697
s(S'graduated'
p5869
g2126
g2127
tp5870
F0.0005157297576070139
s(g4410
g1438
g1439
tp5871
F0.0007735946364105209
s(g5579
g2422
g2423
tp5872
F0.00025786487880350697
s(S'then'
p5873
S'attended'
p5874
S'at'
p5875
tp5876
F0.00025786487880350697
s(S'been'
p5877
S'playing'
p5878
S'with'
p5879
tp5880
F0.00025786487880350697
s(S'born'
p5881
g3136
g3137
tp5882
F0.00025786487880350697
s(S'[[prp]]'
p5883
S'football'
p5884
S'for'
p5885
tp5886
F0.00025786487880350697
s(S'football'
p5887
g173
g174
tp5888
F0.00025786487880350697
s(g642
g5815
S'for'
p5889
tp5890
F0.0038679731820526046
s(S'who'
p5891
S'served'
p5892
S'[[con]]'
p5893
tp5894
F0.00025786487880350697
s(S'was'
p5895
S'member'
p5896
S'at'
p5897
tp5898
F0.00025786487880350697
s(S'in'
p5899
S'playing'
p5900
S'for'
p5901
tp5902
F0.00025786487880350697
s(g5271
g5106
g5107
tp5903
F0.0018050541516245488
s(S'then'
p5904
g955
g956
tp5905
F0.0005157297576070139
s(S'was'
p5906
S'playing'
p5907
S'as'
p5908
tp5909
F0.00025786487880350697
s(S'[[adj]]'
p5910
S'member'
p5911
S'of'
p5912
tp5913
F0.0007735946364105209
s(g1063
g1064
g2287
tp5914
F0.0012893243940175349
s(S'also'
p5915
S'played'
p5916
S'of'
p5917
tp5918
F0.00025786487880350697
s(S'previously'
p5919
S'played'
p5920
S'college'
p5921
tp5922
F0.00025786487880350697
s(S'were'
p5923
S'transferred'
p5924
S'to'
p5925
tp5926
F0.00025786487880350697
s(S'to'
p5927
S'play'
p5928
S'until'
p5929
tp5930
F0.00025786487880350697
s(g1941
g1942
S'at'
p5931
tp5932
F0.00025786487880350697
s(g2980
g2981
g3567
tp5933
F0.00025786487880350697
s(S'had'
p5934
S'attended'
p5935
S'[[det]]'
p5936
tp5937
F0.00025786487880350697
s(S'played'
p5938
g943
g944
tp5939
F0.00025786487880350697
s(g5495
g5496
S'with'
p5940
tp5941
F0.00025786487880350697
s(S'[[prp]]'
p5942
g1651
g1652
tp5943
F0.0028365136668385767
s(S'[[det]]'
p5944
S'leader'
p5945
S'for'
p5946
tp5947
F0.00025786487880350697
s(S'had'
p5948
S'served'
p5949
S'with'
p5950
tp5951
F0.00025786487880350697
s(S'[[det]]'
p5952
S'member'
p5953
g121
tp5954
F0.00025786487880350697
s(g243
g2868
S'for'
p5955
tp5956
F0.0025786487880350697
s(S'has'
p5957
S'served'
p5958
S'where'
p5959
tp5960
F0.00025786487880350697
s(S'then'
p5961
S'playing'
p5962
S'in'
p5963
tp5964
F0.00025786487880350697
s(S'became'
p5965
S'member'
p5966
S'[[det]]'
p5967
tp5968
F0.00025786487880350697
s(S'had'
p5969
S'signed'
p5970
S'with'
p5971
tp5972
F0.00025786487880350697
s(S'to'
p5973
S'coach'
p5974
S'at'
p5975
tp5976
F0.00025786487880350697
s(S'to'
p5977
S'lead'
p5978
S'[[det]]'
p5979
tp5980
F0.00025786487880350697
s(g3949
g947
g948
tp5981
F0.00025786487880350697
s(S'at'
p5982
S'[[con]]'
p5983
S'professionally'
p5984
tp5985
F0.00025786487880350697
s(S'also'
p5986
S'played'
p5987
S'college'
p5988
tp5989
F0.00025786487880350697
s(g3709
g3710
S'for'
p5990
tp5991
F0.00025786487880350697
s(g5539
g565
g566
tp5992
F0.0028365136668385767
s(S'later'
p5993
S'moved'
p5994
S'on'
p5995
tp5996
F0.00025786487880350697
s(g877
g878
S'at'
p5997
tp5998
F0.00025786487880350697
s(S'was'
p5999
S'selected'
p6000
S'with'
p6001
tp6002
F0.00025786487880350697
s(g2858
S'teams'
p6003
S'in'
p6004
tp6005
F0.00025786487880350697
s(S'first'
p6006
S'played'
p6007
S'for'
p6008
tp6009
F0.00025786487880350697
s(g1137
g1138
S'played'
p6010
tp6011
F0.00025786487880350697
s(g3442
g3443
S'player'
p6012
tp6013
F0.0007735946364105209
s(S'later'
p6014
S'played'
p6015
S'at'
p6016
tp6017
F0.00025786487880350697
s(S'as'
p6018
S'[[adj]]'
p6019
S'football'
p6020
tp6021
F0.00025786487880350697
s(S'tackle'
p6022
S'who'
p6023
S'played'
p6024
tp6025
F0.00025786487880350697
s(S'[[mod]]'
p6026
S'play'
p6027
S'[[det]]'
p6028
tp6029
F0.00025786487880350697
s(S'had'
p6030
S'signed'
p6031
S'up'
p6032
tp6033
F0.00025786487880350697
s(S'[[con]]'
p6034
S'attended'
p6035
S'now'
p6036
tp6037
F0.00025786487880350697
s(S'be'
p6038
S'named'
p6039
S'[[det]]'
p6040
tp6041
F0.00025786487880350697
s(S'played'
p6042
g5460
g5461
tp6043
F0.00025786487880350697
s(S'be'
p6044
S'selected'
p6045
S'for'
p6046
tp6047
F0.00025786487880350697
s(S'also'
p6048
S'played'
p6049
S'[[num]]'
p6050
tp6051
F0.0007735946364105209
s(g783
g2526
S'for'
p6052
tp6053
F0.00025786487880350697
s(S'to'
p6054
S'enroll'
p6055
S'at'
p6056
tp6057
F0.00025786487880350697
s(S'college'
p6058
S'football'
p6059
S'where'
p6060
tp6061
F0.00025786487880350697
s(S'later'
p6062
S'coached'
p6063
S'[[con]]'
p6064
tp6065
F0.00025786487880350697
s(g1957
g1958
S'coach'
p6066
tp6067
F0.0030943785456420837
s(S'then'
p6068
S'returned'
p6069
S'with'
p6070
tp6071
F0.00025786487880350697
s(S'[[con]]'
p6072
S'signed'
p6073
S'by'
p6074
tp6075
F0.00025786487880350697
s(g853
g854
S'[[det]]'
p6076
tp6077
F0.00025786487880350697
s(S'then'
p6078
S'left'
p6079
S'[[con]]'
p6080
tp6081
F0.00025786487880350697
s(S'had'
p6082
S'served'
p6083
S'on'
p6084
tp6085
F0.00025786487880350697
s(S'played'
p6086
S'football'
p6087
S'at'
p6088
tp6089
F0.0007735946364105209
s(S'college'
p6090
S'football'
p6091
S'career'
p6092
tp6093
F0.00025786487880350697
s(S'[[det]]'
p6094
S'returned'
p6095
S'to'
p6096
tp6097
F0.00025786487880350697
s(S'when'
p6098
S'left'
p6099
S'[[det]]'
p6100
tp6101
F0.00025786487880350697
s(S'born'
p6102
g3341
g3342
tp6103
F0.0012893243940175349
s(S'then'
p6104
S'earned'
p6105
S'at'
p6106
tp6107
F0.00025786487880350697
s(g404
g405
g789
tp6108
F0.0005157297576070139
s(S'career'
p6109
S'at'
p6110
S'club'
p6111
tp6112
F0.0005157297576070139
s(S'soon'
p6113
S'left'
p6114
S'to'
p6115
tp6116
F0.00025786487880350697
s(g2555
g2556
g2707
tp6117
F0.00025786487880350697
s(S'then'
p6118
S'moved'
p6119
S'[[num]]'
p6120
tp6121
F0.00025786487880350697
s(S'[[num]]'
p6122
g5789
g4302
tp6123
F0.00025786487880350697
s(S'career'
p6124
g3868
g1148
tp6125
F0.00025786487880350697
s(S'[[num]]'
p6126
S'year'
p6127
S'at'
p6128
tp6129
F0.00025786487880350697
s(S'is'
p6130
S'signed'
p6131
S'to'
p6132
tp6133
F0.00025786487880350697
s(g634
g635
S'graduated'
p6134
tp6135
F0.00025786487880350697
s(S'[[adj]]'
p6136
S'round'
p6137
S'[[adj]]'
p6138
tp6139
F0.00025786487880350697
s(S'then'
p6140
S'selected'
p6141
S'by'
p6142
tp6143
F0.00025786487880350697
s(S'basketball'
p6144
S'player'
p6145
S'for'
p6146
tp6147
F0.00025786487880350697
s(S'then'
p6148
S'served'
p6149
S'at'
p6150
tp6151
F0.00025786487880350697
s(S'playing'
p6152
S'career'
p6153
S'in'
p6154
tp6155
F0.0005157297576070139
s(S'[[con]]'
p6156
S'play'
p6157
S'for'
p6158
tp6159
F0.00025786487880350697
s(g5803
g269
g270
tp6160
F0.0012893243940175349
s(g1083
g1084
S'at'
p6161
tp6162
F0.0005157297576070139
s(S'now'
p6163
S'playing'
p6164
S'in'
p6165
tp6166
F0.00025786487880350697
s(S'has'
p6167
S'served'
p6168
S'until'
p6169
tp6170
F0.00025786487880350697
s(S'[[mod]]'
p6171
S'play'
p6172
S'from'
p6173
tp6174
F0.00025786487880350697
s(S'[[num]]'
p6175
S'member'
p6176
S'of'
p6177
tp6178
F0.00025786487880350697
s(S'had'
p6179
S'served'
p6180
S'[[det]]'
p6181
tp6182
F0.00025786487880350697
s(g2937
g2938
S'player'
p6183
tp6184
F0.0015471892728210418
s(g2967
g5124
S'collegiately'
p6185
tp6186
F0.0007735946364105209
s(S'[[pro]]'
p6187
S'signed'
p6188
S'with'
p6189
tp6190
F0.00025786487880350697
s(S'then'
p6191
S'played'
p6192
S'also'
p6193
tp6194
F0.00025786487880350697
s(S'[[det]]'
p6195
S'team'
p6196
S'after'
p6197
tp6198
F0.00025786487880350697
s(g1512
g1513
S'played'
p6199
tp6200
F0.0005157297576070139
s(S'until'
p6201
S'returned'
p6202
S'to'
p6203
tp6204
F0.00025786487880350697
s(S'was'
p6205
S'hired'
p6206
S'[[det]]'
p6207
tp6208
F0.00025786487880350697
s(S'[[det]]'
p6209
S'leader'
p6210
S'of'
p6211
tp6212
F0.00025786487880350697
s(S'who'
p6213
S'[[adj]]'
p6214
S'played'
p6215
tp6216
F0.00025786487880350697
s(S'later'
p6217
S'starred'
p6218
S'for'
p6219
tp6220
F0.00025786487880350697
s(S'to'
p6221
S'graduate'
p6222
S'from'
p6223
tp6224
F0.00025786487880350697
s(S'football'
p6225
S'[[det]]'
p6226
S'head'
p6227
tp6228
F0.00025786487880350697
s(S'[[det]]'
p6229
S'signed'
p6230
S'with'
p6231
tp6232
F0.00025786487880350697
s(S'was'
p6233
g3656
g3657
tp6234
F0.0018050541516245488
s(S'career'
p6235
S'with'
p6236
S'hometown'
p6237
tp6238
F0.0005157297576070139
s(g2275
g1136
g1137
tp6239
F0.00025786487880350697
s(S'then'
p6240
S'selected'
p6241
S'as'
p6242
tp6243
F0.00025786487880350697
s(S'[[con]]'
p6244
S'served'
p6245
S'on'
p6246
tp6247
F0.00025786487880350697
s(g4786
g4709
g876
tp6248
F0.0005157297576070139
s(S'played'
p6249
g5526
g5527
tp6250
F0.0012893243940175349
s(S'to'
p6251
S'come'
p6252
S'out'
p6253
tp6254
F0.00025786487880350697
s(S'has'
p6255
S'received'
p6256
S'[[con]]'
p6257
tp6258
F0.00025786487880350697
s(S'in'
p6259
S'[[det]]'
p6260
S'team'
p6261
tp6262
F0.00025786487880350697
s(S'born'
p6263
g5576
g4947
tp6264
F0.0005157297576070139
s(S'has'
p6265
S'signed'
p6266
S'for'
p6267
tp6268
F0.00025786487880350697
s(S'as'
p6269
g133
g134
tp6270
F0.00025786487880350697
s(g3657
g3658
S'attended'
p6271
tp6272
F0.00025786487880350697
s(S'later'
p6273
S'signed'
p6274
S'by'
p6275
tp6276
F0.00025786487880350697
s(S'play'
p6277
S'college'
p6278
S'basketball'
p6279
tp6280
F0.0005157297576070139
s(g1993
g1994
g2618
tp6281
F0.0007735946364105209
s(S'that'
p6282
S'led'
p6283
S'[[det]]'
p6284
tp6285
F0.00025786487880350697
s(S'head'
p6286
g3077
g3078
tp6287
F0.0020629190304280558
s(S'[[num]]'
p6288
g5837
g5838
tp6289
F0.0025786487880350697
s(S'football'
p6290
S'coach'
p6291
S'from'
p6292
tp6293
F0.00025786487880350697
s(g1857
g1858
g1453
tp6294
F0.00025786487880350697
s(g5738
g5739
g81
tp6295
F0.0005157297576070139
s(S'is'
p6296
S'returned'
p6297
S'to'
p6298
tp6299
F0.00025786487880350697
s(S'[[adj]]'
p6300
S'leader'
p6301
S'[[det]]'
p6302
tp6303
F0.00025786487880350697
s(S'formerly'
p6304
S'served'
p6305
S'for'
p6306
tp6307
F0.00025786487880350697
s(S'to'
p6308
S'college'
p6309
S'at'
p6310
tp6311
F0.00025786487880350697
s(S'[[adj]]'
p6312
S'quarterback'
p6313
S'at'
p6314
tp6315
F0.00025786487880350697
s(S'[[adj]]'
p6316
S'member'
p6317
S'[[adj]]'
p6318
tp6319
F0.00025786487880350697
s(S'[[con]]'
p6320
S'received'
p6321
S'[[prp]]'
p6322
tp6323
F0.00025786487880350697
s(S'was'
p6324
S'coached'
p6325
S'at'
p6326
tp6327
F0.00025786487880350697
s(S'later'
p6328
S'named'
p6329
S'of'
p6330
tp6331
F0.00025786487880350697
s(S'then'
p6332
S'coached'
p6333
S'at'
p6334
tp6335
F0.00025786487880350697
s(S'[[adj]]'
p6336
S'coach'
p6337
S'including'
p6338
tp6339
F0.00025786487880350697
s(g3998
g3999
S'club'
p6340
tp6341
F0.00025786487880350697
s(S'never'
p6342
S'played'
p6343
S'with'
p6344
tp6345
F0.00025786487880350697
s(S'also'
p6346
S'starred'
p6347
S'for'
p6348
tp6349
F0.00025786487880350697
s(S'basketball'
p6350
g4978
g4979
tp6351
F0.00025786487880350697
s(S'as'
p6352
S'head'
p6353
S'football'
p6354
tp6355
F0.0005157297576070139
s(S'only'
p6356
S'played'
p6357
S'for'
p6358
tp6359
F0.00025786487880350697
s(S'who'
p6360
S'served'
p6361
S'in'
p6362
tp6363
F0.00025786487880350697
s(g4811
g1735
g1736
tp6364
F0.00025786487880350697
s(g1603
g725
g726
tp6365
F0.00025786487880350697
s(S'born'
p6366
g2144
g2145
tp6367
F0.00025786487880350697
s(S'[[det]]'
p6368
S'team'
p6369
S'against'
p6370
tp6371
F0.00025786487880350697
s(S'[[num]]'
p6372
g2936
g2937
tp6373
F0.0007735946364105209
s(S'was'
p6374
S'leaving'
p6375
S'[[det]]'
p6376
tp6377
F0.00025786487880350697
s(S'has'
p6378
S'attended'
p6379
S'[[det]]'
p6380
tp6381
F0.00025786487880350697
s(S'[[adj]]'
p6382
S'on'
p6383
S'list'
p6384
tp6385
F0.00025786487880350697
s(S'where'
p6386
S'received'
p6387
S'in'
p6388
tp6389
F0.00025786487880350697
s(S'ranks'
p6390
g6382
g6383
tp6391
F0.00025786487880350697
s(S'club'
p6392
S'football'
p6393
S'at'
p6394
tp6395
F0.00025786487880350697
s(S'[[det]]'
p6396
S'graduate'
p6397
S'from'
p6398
tp6399
F0.00025786487880350697
s(S'has'
p6400
S'received'
p6401
S'in'
p6402
tp6403
F0.00025786487880350697
s(S'[[adj]]'
p6404
S'leader'
p6405
S'in'
p6406
tp6407
F0.00025786487880350697
s(g5726
g5727
S'for'
p6408
tp6409
F0.00025786487880350697
s(g3229
g3230
S'football'
p6410
tp6411
F0.00025786487880350697
s(S'not'
p6412
S'selected'
p6413
S'by'
p6414
tp6415
F0.00025786487880350697
s(g2199
g2200
S'[[prp]]'
p6416
tp6417
F0.0007735946364105209
s(g1308
g1309
S'football'
p6418
tp6419
F0.0007735946364105209
s(S'when'
p6420
S'played'
p6421
S'against'
p6422
tp6423
F0.00025786487880350697
s(g2384
g2385
S'football'
p6424
tp6425
F0.00025786487880350697
s(S'[[adj]]'
p6426
S'played'
p6427
S'against'
p6428
tp6429
F0.00025786487880350697
s(S'has'
p6430
S'played'
p6431
S'mainly'
p6432
tp6433
F0.00025786487880350697
s(S'being'
p6434
S'named'
p6435
S'of'
p6436
tp6437
F0.00025786487880350697
s(S'then'
p6438
S'left'
p6439
S'[[det]]'
p6440
tp6441
F0.00025786487880350697
s(g4077
g4078
S'transferring'
p6442
tp6443
F0.0010314595152140279
s(g682
g683
S'[[con]]'
p6444
tp6445
F0.00025786487880350697
s(S'that'
p6446
S'led'
p6447
S'at'
p6448
tp6449
F0.00025786487880350697
s(S'player'
p6450
g6213
g6214
tp6451
F0.0005157297576070139
s(S'returned'
p6452
g5376
g5377
tp6453
F0.00025786487880350697
s(S'[[adj]]'
p6454
S'leader'
p6455
S'of'
p6456
tp6457
F0.00025786487880350697
s(S'then'
p6458
S'recruited'
p6459
S'to'
p6460
tp6461
F0.00025786487880350697
s(g699
g5638
S'professionally'
p6462
tp6463
F0.00025786487880350697
s(S'[[adj]]'
p6464
S'served'
p6465
S'on'
p6466
tp6467
F0.00025786487880350697
s(S'was'
p6468
S'born'
p6469
S'attended'
p6470
tp6471
F0.0005157297576070139
s(S'when'
p6472
S'played'
p6473
S'[[det]]'
p6474
tp6475
F0.00025786487880350697
s(g3334
g3335
g1311
tp6476
F0.00025786487880350697
s(S'already'
p6477
S'played'
p6478
S'in'
p6479
tp6480
F0.00025786487880350697
s(g649
g233
g234
tp6481
F0.00025786487880350697
s(S'also'
p6482
S'honored'
p6483
S'at'
p6484
tp6485
F0.00025786487880350697
s(S'[[adj]]'
p6486
S'graduate'
p6487
S'from'
p6488
tp6489
F0.00025786487880350697
s(S'was'
p6490
S'playing'
p6491
S'in'
p6492
tp6493
F0.00025786487880350697
s(S'was'
p6494
S'hired'
p6495
S'from'
p6496
tp6497
F0.00025786487880350697
s(S'also'
p6498
S'played'
p6499
S'as'
p6500
tp6501
F0.00025786487880350697
s(S'after'
p6502
S'played'
p6503
S'with'
p6504
tp6505
F0.00025786487880350697
s(g3133
g3134
g121
tp6506
F0.0007735946364105209
s(S'also'
p6507
S'attended'
p6508
S'at'
p6509
tp6510
F0.00025786487880350697
s(g5983
g5984
S'in'
p6511
tp6512
F0.00025786487880350697
s(S'started'
p6513
S'[[prp]]'
p6514
g1485
tp6515
F0.0015471892728210418
s(g126
g127
S'graduated'
p6516
tp6517
F0.00025786487880350697
s(S'[[num]]'
p6518
g537
g538
tp6519
F0.0005157297576070139
s(S'career'
p6520
g4756
g2030
tp6521
F0.00025786487880350697
s(S'then'
p6522
S'enrolled'
p6523
S'at'
p6524
tp6525
F0.00025786487880350697
s(S'[[adj]]'
p6526
S'served'
p6527
S'at'
p6528
tp6529
F0.00025786487880350697
s(S'[[det]]'
p6530
S'team'
p6531
S'of'
p6532
tp6533
F0.00025786487880350697
s(S'also'
p6534
S'served'
p6535
S'[[num]]'
p6536
tp6537
F0.00025786487880350697
s(S'born'
p6538
g6288
g5837
tp6539
F0.005415162454873646
s(S'[[det]]'
p6540
S'play'
p6541
S'for'
p6542
tp6543
F0.00025786487880350697
s(S'in'
p6544
S'[[con]]'
p6545
S'educated'
p6546
tp6547
F0.00025786487880350697
s(S'[[num]]'
p6548
S'years'
p6549
S'[[num]]'
p6550
tp6551
F0.00025786487880350697
s(S'became'
p6552
S'coach'
p6553
S'of'
p6554
tp6555
F0.00025786487880350697
s(S'to'
p6556
g741
g742
tp6557
F0.0005157297576070139
s(S'[[det]]'
p6558
S'member'
p6559
S'[[adj]]'
p6560
tp6561
F0.00025786487880350697
s(S'who'
p6562
S'plays'
p6563
S'at'
p6564
tp6565
F0.00025786487880350697
s(g1865
g1866
g2814
tp6566
F0.00025786487880350697
s(S'then'
p6567
S'received'
p6568
S'at'
p6569
tp6570
F0.00025786487880350697
s(g2662
g2663
S'[[adj]]'
p6571
tp6572
F0.00025786487880350697
s(g2263
g2264
S'plays'
p6573
tp6574
F0.00025786487880350697
s(g121
S'team'
p6575
S'at'
p6576
tp6577
F0.00025786487880350697
s(g5564
g2168
g2169
tp6578
F0.0005157297576070139
s(S'[[adj]]'
p6579
g6225
g6226
tp6580
F0.00025786487880350697
s(S'was'
p6581
S'brought'
p6582
S'in'
p6583
tp6584
F0.00025786487880350697
s(g3102
g3103
S'career'
p6585
tp6586
F0.00025786487880350697
s(S'basketball'
p6587
S'player'
p6588
S'in'
p6589
tp6590
F0.00025786487880350697
s(g1610
g1611
S'list'
p6591
tp6592
F0.00025786487880350697
s(S'as'
p6593
S'[[adj]]'
p6594
S'men'
p6595
tp6596
F0.00025786487880350697
s(S'[[adj]]'
p6597
g6022
g6023
tp6598
F0.00025786487880350697
s(S'then'
p6599
S'attended'
p6600
S'of'
p6601
tp6602
F0.00025786487880350697
s(S'[[con]]'
p6603
S'led'
p6604
S'to'
p6605
tp6606
F0.00025786487880350697
s(S'currently'
p6607
S'signed'
p6608
S'with'
p6609
tp6610
F0.00025786487880350697
s(S'head'
p6611
S'coach'
p6612
S'to'
p6613
tp6614
F0.00025786487880350697
s(g5606
g4443
g4444
tp6615
F0.00025786487880350697
s(S'been'
p6616
S'selected'
p6617
S'as'
p6618
tp6619
F0.00025786487880350697
s(S'career'
p6620
S'moving'
p6621
S'to'
p6622
tp6623
F0.00025786487880350697
s(S'football'
p6624
g5982
g5983
tp6625
F0.00025786487880350697
s(S'have'
p6626
S'attended'
p6627
S'[[det]]'
p6628
tp6629
F0.00025786487880350697
s(S'ever'
p6630
S'play'
p6631
S'in'
p6632
tp6633
F0.00025786487880350697
s(S'member'
p6634
g3770
g3771
tp6635
F0.00025786487880350697
s(S'member'
p6636
S'of'
p6637
S'team'
p6638
tp6639
F0.0005157297576070139
s(S'as'
p6640
S'[[det]]'
p6641
S'trainee'
p6642
tp6643
F0.0005157297576070139
s(S'football'
p6644
g343
g344
tp6645
F0.00025786487880350697
s(S'also'
p6646
S'selected'
p6647
S'[[adj]]'
p6648
tp6649
F0.00025786487880350697
s(S'later'
p6650
S'attended'
p6651
S'of'
p6652
tp6653
F0.00025786487880350697
s(g4136
g4137
g169
tp6654
F0.00025786487880350697
s(S'[[adj]]'
p6655
S'season'
p6656
S'at'
p6657
tp6658
F0.00025786487880350697
s(S'was'
p6659
S'member'
p6660
S'in'
p6661
tp6662
F0.00025786487880350697
s(S'began'
p6663
S'[[prp]]'
p6664
g6235
tp6665
F0.007220216606498195
s(S'then'
p6666
g2510
g2511
tp6667
F0.00025786487880350697
s(S'[[prp]]'
p6668
g6620
g6621
tp6669
F0.00025786487880350697
s(S'[[prp]]'
p6670
S'coach'
p6671
S'at'
p6672
tp6673
F0.00025786487880350697
s(g146
g147
S'selected'
p6674
tp6675
F0.0005157297576070139
s(S'later'
p6676
S'earned'
p6677
S'from'
p6678
tp6679
F0.00025786487880350697
s(S'[[adj]]'
p6680
S'team'
p6681
S'against'
p6682
tp6683
F0.00025786487880350697
s(S'has'
p6684
S'served'
p6685
S'to'
p6686
tp6687
F0.00025786487880350697
s(S'attended'
p6688
g225
g226
tp6689
F0.00025786487880350697
s(S'was'
p6690
S'selected'
p6691
S'[[num]]'
p6692
tp6693
F0.00025786487880350697
s(g321
g3641
g3642
tp6694
F0.0007735946364105209
s(S'play'
p6695
S'football'
p6696
S'for'
p6697
tp6698
F0.00025786487880350697
s(S'then'
p6699
S'received'
p6700
S'in'
p6701
tp6702
F0.00025786487880350697
s(S'also'
p6703
S'served'
p6704
S'for'
p6705
tp6706
F0.00025786487880350697
s(S'[[det]]'
p6707
S'graduate'
p6708
S'[[det]]'
p6709
tp6710
F0.00025786487880350697
s(g3335
g1311
g1312
tp6711
F0.00025786487880350697
s(S'career'
p6712
g1539
g1540
tp6713
F0.0018050541516245488
s(S'was'
p6714
S'named'
p6715
S'with'
p6716
tp6717
F0.00025786487880350697
s(g5371
g4621
g4622
tp6718
F0.00025786487880350697
s(S'[[adj]]'
p6719
S'selected'
p6720
S'for'
p6721
tp6722
F0.00025786487880350697
s(S'was'
p6723
S'recruited'
p6724
S'into'
p6725
tp6726
F0.00025786487880350697
s(S'[[det]]'
p6727
S'college'
p6728
S'football'
p6729
tp6730
F0.0005157297576070139
s(g4101
g4102
S'career'
p6731
tp6732
F0.00025786487880350697
s(S'[[adj]]'
p6733
S'graduate'
p6734
S'of'
p6735
tp6736
F0.00025786487880350697
s(g3302
g3303
S'won'
p6737
tp6738
F0.00025786487880350697
s(S'had'
p6739
S'led'
p6740
S'[[det]]'
p6741
tp6742
F0.00025786487880350697
s(S'finished'
p6743
g5942
g1651
tp6744
F0.0007735946364105209
s(S'up'
p6745
S'playing'
p6746
S'for'
p6747
tp6748
F0.00025786487880350697
s(S'played'
p6749
S'in'
p6750
S'team'
p6751
tp6752
F0.00025786487880350697
s(S'then'
p6753
S'entered'
p6754
S'[[det]]'
p6755
tp6756
F0.00025786487880350697
s(S'[[adj]]'
p6757
S'years'
p6758
S'with'
p6759
tp6760
F0.00025786487880350697
s(S'[[num]]'
p6761
S'seasons'
p6762
S'in'
p6763
tp6764
F0.00025786487880350697
s(S'was'
p6765
g5138
g5139
tp6766
F0.0005157297576070139
s(S'also'
p6767
S'named'
p6768
S'[[det]]'
p6769
tp6770
F0.00025786487880350697
s(S'[[det]]'
p6771
S'leader'
p6772
S'at'
p6773
tp6774
F0.00025786487880350697
s(g550
g551
S'for'
p6775
tp6776
F0.00025786487880350697
s(S'has'
p6777
S'served'
p6778
S'on'
p6779
tp6780
F0.00025786487880350697
s(S'[[det]]'
p6781
g5699
g5700
tp6782
F0.00025786487880350697
s(S'[[det]]'
p6783
S'season'
p6784
S'[[det]]'
p6785
tp6786
F0.00025786487880350697
s(g1602
g1603
g725
tp6787
F0.00025786487880350697
s(S'[[adj]]'
p6788
S'defender'
p6789
S'began'
p6790
tp6791
F0.00025786487880350697
s(S'[[adj]]'
p6792
g1461
g1462
tp6793
F0.00025786487880350697
s(S'then'
p6794
S'played'
p6795
S'college'
p6796
tp6797
F0.0005157297576070139
s(S'after'
p6798
S'playing'
p6799
S'at'
p6800
tp6801
F0.00025786487880350697
s(S'[[det]]'
p6802
g4515
g4516
tp6803
F0.00025786487880350697
s(S'was'
p6804
S'playing'
p6805
S'with'
p6806
tp6807
F0.00025786487880350697
s(S'was'
p6808
S'transferred'
p6809
S'for'
p6810
tp6811
F0.00025786487880350697
s(g2793
g2794
S'team'
p6812
tp6813
F0.00025786487880350697
s(S'again'
p6814
S'named'
p6815
S'[[det]]'
p6816
tp6817
F0.00025786487880350697
s(S'since'
p6818
S'left'
p6819
S'[[det]]'
p6820
tp6821
F0.00025786487880350697
s(S'was'
p6822
S'played'
p6823
S'for'
p6824
tp6825
F0.00025786487880350697
s(g714
g715
g1415
tp6826
F0.005415162454873646
s(g1761
g1762
g1854
tp6827
F0.007993811242908716
s(S'once'
p6828
S'played'
p6829
S'with'
p6830
tp6831
F0.00025786487880350697
s(S'later'
p6832
S'played'
p6833
S'college'
p6834
tp6835
F0.00025786487880350697
s(S'[[con]]'
p6836
S'graduated'
p6837
S'at'
p6838
tp6839
F0.0005157297576070139
s(g5189
g5190
S'head'
p6840
tp6841
F0.00025786487880350697
s(S'were'
p6842
S'signed'
p6843
S'from'
p6844
tp6845
F0.00025786487880350697
s(S'year'
p6846
g3168
g3169
tp6847
F0.00025786487880350697
s(S'grew'
p6848
g2498
g2499
tp6849
F0.0007735946364105209
s(S'also'
p6850
S'signed'
p6851
S'with'
p6852
tp6853
F0.00025786487880350697
s(S'helped'
p6854
S'lead'
p6855
S'[[con]]'
p6856
tp6857
F0.00025786487880350697
s(S'to'
p6858
S'come'
p6859
S'from'
p6860
tp6861
F0.00025786487880350697
s(S'played'
p6862
g6259
g6260
tp6863
F0.00025786487880350697
s(S'has'
p6864
S'received'
p6865
S'from'
p6866
tp6867
F0.00025786487880350697
s(S'later'
p6868
S'served'
p6869
S'in'
p6870
tp6871
F0.00025786487880350697
s(S'[[adj]]'
p6872
g1507
g1508
tp6873
F0.0005157297576070139
s(g6236
g6237
S'club'
p6874
tp6875
F0.0005157297576070139
s(S'[[adj]]'
p6876
S'end'
p6877
S'in'
p6878
tp6879
F0.00025786487880350697
s(S'drafted'
p6880
g285
g149
tp6881
F0.00025786487880350697
s(S'to'
p6882
S'attend'
p6883
S'[[con]]'
p6884
tp6885
F0.00025786487880350697
s(S'being'
p6886
S'recruited'
p6887
S'to'
p6888
tp6889
F0.00025786487880350697
s(g3411
g2738
g2739
tp6890
F0.00025786487880350697
s.