(dp0
(S'was'
p1
S'fought'
p2
S'[[con]]'
p3
tp4
F0.05263157894736842
s(S'in'
p5
S'[[det]]'
p6
S'army'
p7
tp8
F0.02631578947368421
s(g7
S'led'
p9
S'by'
p10
tp11
F0.02631578947368421
s(S'fought'
p12
S'in'
p13
S'[[det]]'
p14
tp15
F0.07894736842105263
s(g13
g14
S'forces'
p16
tp17
F0.02631578947368421
s(S'fought'
p18
S'during'
p19
S'[[det]]'
p20
tp21
F0.02631578947368421
s(g20
S'force'
p22
S'under'
p23
tp24
F0.02631578947368421
s(S'fought'
p25
S'on'
p26
S'[[det]]'
p27
tp28
F0.02631578947368421
s(g19
g20
g22
tp29
F0.02631578947368421
s(g2
g3
S'led'
p30
tp31
F0.02631578947368421
s(S'was'
p32
S'fought'
p33
S'under'
p34
tp35
F0.02631578947368421
s(g26
g27
S'forces'
p36
tp37
F0.02631578947368421
s(g6
g7
g9
tp38
F0.02631578947368421
s(S'battle'
p39
S'fought'
p40
S'between'
p41
tp42
F0.02631578947368421
s(S'is'
p43
S'fought'
p44
S'between'
p45
tp46
F0.02631578947368421
s(S'[[det]]'
p47
S'battle'
p48
S'against'
p49
tp50
F0.02631578947368421
s(g27
g36
S'of'
p51
tp52
F0.07894736842105263
s(S'[[det]]'
p53
S'battle'
p54
S'between'
p55
tp56
F0.02631578947368421
s(S'was'
p57
g12
g13
tp58
F0.07894736842105263
s(S'was'
p59
S'fought'
p60
S'between'
p61
tp62
F0.02631578947368421
s(S'[[det]]'
p63
g39
g40
tp64
F0.02631578947368421
s(S'in'
p65
S'[[det]]'
p66
S'led'
p67
tp68
F0.02631578947368421
s(S'was'
p69
S'fought'
p70
S'by'
p71
tp72
F0.02631578947368421
s(S'fought'
p73
S'[[con]]'
p74
S'resulted'
p75
tp76
F0.02631578947368421
s(g60
g61
S'[[det]]'
p77
tp78
F0.02631578947368421
s(S'is'
p79
S'fought'
p80
S'under'
p81
tp82
F0.02631578947368421
s(g61
g77
S'forces'
p83
tp84
F0.02631578947368421
s(S'was'
p85
g18
g19
tp86
F0.02631578947368421
s(g3
g30
S'by'
p87
tp88
F0.02631578947368421
s(g66
g67
S'by'
p89
tp90
F0.02631578947368421
s(S'was'
p91
g25
g26
tp92
F0.02631578947368421
s.