(dp0
(S'[[adj]]'
p1
S'unit'
p2
S'[[det]]'
p3
tp4
F0.07692307692307693
s(S'[[det]]'
p5
S'unit'
p6
S'[[con]]'
p7
tp8
F0.07692307692307693
s(S'then'
p9
S'assigned'
p10
S'[[det]]'
p11
tp12
F0.07692307692307693
s(S'then'
p13
S'assigned'
p14
S'with'
p15
tp16
F0.07692307692307693
s(S'[[det]]'
p17
S'unit'
p18
S'of'
p19
tp20
F0.07692307692307693
s(S'was'
p21
S'inactivated'
p22
S'[[con]]'
p23
tp24
F0.07692307692307693
s(S'[[adj]]'
p25
S'assigned'
p26
S'to'
p27
tp28
F0.07692307692307693
s(S'is'
p29
S'assigned'
p30
S'to'
p31
tp32
F0.07692307692307693
s(S'were'
p33
S'assigned'
p34
S'to'
p35
tp36
F0.07692307692307693
s(S'[[adj]]'
p37
S'unit'
p38
S'in'
p39
tp40
F0.07692307692307693
s(S'[[adj]]'
p41
S'unit'
p42
S'of'
p43
tp44
F0.07692307692307693
s(S'[[con]]'
p45
S'assigned'
p46
S'to'
p47
tp48
F0.07692307692307693
s(S'[[det]]'
p49
S'unit'
p50
S'in'
p51
tp52
F0.07692307692307693
s.