(dp0
(S'that'
p1
S'was'
p2
S'written'
p3
tp4
F0.018867924528301886
s(S'[[num]]'
p5
S'song'
p6
S'by'
p7
tp8
F0.018867924528301886
s(S'[[adj]]'
p9
S'song'
p10
S'written'
p11
tp12
F0.018867924528301886
s(S'[[num]]'
p13
S'song'
p14
S'written'
p15
tp16
F0.018867924528301886
s(S'song'
p17
S'written'
p18
S'[[con]]'
p19
tp20
F0.018867924528301886
s(S'[[det]]'
p21
S'song'
p22
S'[[mod]]'
p23
tp24
F0.018867924528301886
s(S'were'
p25
S'created'
p26
S'by'
p27
tp28
F0.018867924528301886
s(S'[[adj]]'
p29
S'song'
p30
S'[[con]]'
p31
tp32
F0.018867924528301886
s(S'was'
p33
S'written'
p34
S'about'
p35
tp36
F0.018867924528301886
s(S'[[det]]'
p37
S'song'
p38
S'[[det]]'
p39
tp40
F0.018867924528301886
s(S'is'
p41
S'created'
p42
S'by'
p43
tp44
F0.018867924528301886
s(S'been'
p45
S'written'
p46
S'by'
p47
tp48
F0.018867924528301886
s(S'[[adj]]'
p49
S'song'
p50
S'that'
p51
tp52
F0.018867924528301886
s(g2
g3
S'by'
p53
tp54
F0.03773584905660377
s(S'was'
p55
S'created'
p56
S'by'
p57
tp58
F0.018867924528301886
s(S'was'
p59
S'written'
p60
S'in'
p61
tp62
F0.018867924528301886
s(S'was'
p63
S'composed'
p64
S'by'
p65
tp66
F0.018867924528301886
s(S'[[det]]'
p67
S'song'
p68
S'written'
p69
tp70
F0.07547169811320754
s(S'is'
p71
S'written'
p72
S'by'
p73
tp74
F0.018867924528301886
s(S'[[adj]]'
p75
S'song'
p76
S'by'
p77
tp78
F0.018867924528301886
s(S'[[det]]'
p79
S'song'
p80
S'with'
p81
tp82
F0.018867924528301886
s(S'was'
p83
S'written'
p84
S'for'
p85
tp86
F0.018867924528301886
s(S'[[det]]'
p87
S'song'
p88
S'by'
p89
tp90
F0.018867924528301886
s(S'[[adj]]'
p91
S'created'
p92
S'by'
p93
tp94
F0.018867924528301886
s(S'was'
p95
S'written'
p96
S'as'
p97
tp98
F0.018867924528301886
s(S'folk'
p99
S'song'
p100
S'written'
p101
tp102
F0.018867924528301886
s(S'was'
p103
S'written'
p104
S'with'
p105
tp106
F0.018867924528301886
s(S'[[det]]'
p107
S'written'
p108
S'by'
p109
tp110
F0.018867924528301886
s(S'[[det]]'
p111
g99
g100
tp112
F0.018867924528301886
s(S'is'
p113
S'composed'
p114
S'by'
p115
tp116
F0.018867924528301886
s(g22
g23
S'written'
p117
tp118
F0.018867924528301886
s(S'[[num]]'
p119
S'written'
p120
S'by'
p121
tp122
F0.018867924528301886
s(S'[[det]]'
p123
S'song'
p124
S'from'
p125
tp126
F0.018867924528301886
s(S'song'
p127
g1
g2
tp128
F0.018867924528301886
s(g10
g11
S'by'
p129
tp130
F0.09433962264150944
s(S'was'
p131
S'written'
p132
S'[[con]]'
p133
tp134
F0.018867924528301886
s(S'was'
p135
S'written'
p136
S'after'
p137
tp138
F0.018867924528301886
s(S'[[det]]'
p139
S'song'
p140
S's'
p141
tp142
F0.018867924528301886
s(S'[[adj]]'
p143
S'song'
p144
S'on'
p145
tp146
F0.018867924528301886
s(S'[[det]]'
p147
S'song'
p148
S'[[con]]'
p149
tp150
F0.018867924528301886
s(S'was'
p151
S'created'
p152
S'with'
p153
tp154
F0.018867924528301886
s(g23
g117
S'by'
p155
tp156
F0.018867924528301886
s(S'[[adj]]'
p157
S'composed'
p158
S'by'
p159
tp160
F0.018867924528301886
s(S'song'
p161
S'written'
p162
S'for'
p163
tp164
F0.018867924528301886
s(S'[[det]]'
p165
g127
g1
tp166
F0.018867924528301886
s.