(dp0
(S'[[con]]'
p1
S'was'
p2
S'created'
p3
tp4
F0.020512820512820513
s(S'[[adj]]'
p5
S'produced'
p6
S'by'
p7
tp8
F0.005128205128205128
s(S'was'
p9
S'created'
p10
S'[[num]]'
p11
tp12
F0.005128205128205128
s(S'also'
p13
S'created'
p14
S'by'
p15
tp16
F0.005128205128205128
s(S'appeared'
p17
S'[[num]]'
p18
S'created'
p19
tp20
F0.005128205128205128
s(S'debuted'
p21
S'[[num]]'
p22
S'was'
p23
tp24
F0.005128205128205128
s(S's'
p25
S'performed'
p26
S'in'
p27
tp28
F0.005128205128205128
s(S'has'
p29
S'performed'
p30
S'[[con]]'
p31
tp32
F0.005128205128205128
s(S'[[det]]'
p33
S'television'
p34
S'game'
p35
tp36
F0.005128205128205128
s(S'first'
p37
S'performed'
p38
S'in'
p39
tp40
F0.005128205128205128
s(S'appears'
p41
S'[[num]]'
p42
S'was'
p43
tp44
F0.010256410256410256
s(S'had'
p45
S'performed'
p46
S'on'
p47
tp48
F0.005128205128205128
s(S'also'
p49
S'performed'
p50
S'along'
p51
tp52
F0.005128205128205128
s(S'appeared'
p53
S'[[num]]'
p54
S'was'
p55
tp56
F0.02564102564102564
s(S'first'
p57
S'appears'
p58
S'[[con]]'
p59
tp60
F0.005128205128205128
s(S'[[con]]'
p61
S'hosted'
p62
S'by'
p63
tp64
F0.005128205128205128
s(S'created'
p65
S'[[det]]'
p66
S'character'
p67
tp68
F0.010256410256410256
s(S'first'
p69
S'performed'
p70
S'with'
p71
tp72
F0.005128205128205128
s(S'appeared'
p73
S'[[con]]'
p74
S'were'
p75
tp76
F0.005128205128205128
s(S'was'
p77
S'created'
p78
S'[[det]]'
p79
tp80
F0.005128205128205128
s(S'has'
p81
S'performed'
p82
S'as'
p83
tp84
F0.005128205128205128
s(S'first'
p85
S'appeared'
p86
S'[[num]]'
p87
tp88
F0.02564102564102564
s(S'was'
p89
S'aired'
p90
S'on'
p91
tp92
F0.005128205128205128
s(S'was'
p93
S'created'
p94
S'[[con]]'
p95
tp96
F0.010256410256410256
s(S'by'
p97
S'writer'
p98
S'[[con]]'
p99
tp100
F0.015384615384615385
s(S'also'
p101
S'created'
p102
S'[[pro]]'
p103
tp104
F0.005128205128205128
s(g74
g75
S'created'
p105
tp106
F0.005128205128205128
s(g95
S'written'
p107
S'by'
p108
tp109
F0.010256410256410256
s(S'[[adj]]'
p110
S'aired'
p111
S'on'
p112
tp113
F0.005128205128205128
s(S'[[adj]]'
p114
S'character'
p115
S'created'
p116
tp117
F0.005128205128205128
s(S'also'
p118
S'performed'
p119
S'to'
p120
tp121
F0.005128205128205128
s(S'was'
p122
S'created'
p123
S'[[adj]]'
p124
tp125
F0.005128205128205128
s(S'first'
p126
S'aired'
p127
S'in'
p128
tp129
F0.005128205128205128
s(S'also'
p130
S'performed'
p131
S'for'
p132
tp133
F0.005128205128205128
s(g54
g55
S'created'
p134
tp135
F0.041025641025641026
s(S'[[adj]]'
p136
g41
g42
tp137
F0.005128205128205128
s(S'[[det]]'
p138
S'character'
p139
S'of'
p140
tp141
F0.005128205128205128
s(S'originally'
p142
S'presented'
p143
S'by'
p144
tp145
F0.005128205128205128
s(S'later'
p146
S'performed'
p147
S'with'
p148
tp149
F0.005128205128205128
s(S'then'
p150
S'performed'
p151
S'[[det]]'
p152
tp153
F0.005128205128205128
s(S'[[det]]'
p154
S'character'
p155
S'created'
p156
tp157
F0.005128205128205128
s(S'was'
p158
g142
g143
tp159
F0.005128205128205128
s(S'was'
p160
S'hosted'
p161
S'by'
p162
tp163
F0.005128205128205128
s(S'[[con]]'
p164
S'performed'
p165
S'for'
p166
tp167
F0.005128205128205128
s(S'was'
p168
S'written'
p169
S'about'
p170
tp171
F0.005128205128205128
s(S'was'
p172
S'created'
p173
S'with'
p174
tp175
F0.005128205128205128
s(S'is'
p176
S'created'
p177
S'by'
p178
tp179
F0.005128205128205128
s(S'has'
p180
S'performed'
p181
S'to'
p182
tp183
F0.005128205128205128
s(S'has'
p184
S'performed'
p185
S'for'
p186
tp187
F0.005128205128205128
s(S'[[num]]'
p188
S'hosted'
p189
S'by'
p190
tp191
F0.005128205128205128
s(S'also'
p192
S'created'
p193
S'[[det]]'
p194
tp195
F0.005128205128205128
s(S'has'
p196
S'performed'
p197
S'under'
p198
tp199
F0.005128205128205128
s(S'[[adj]]'
p200
S'hosted'
p201
S'by'
p202
tp203
F0.005128205128205128
s(g35
S'show'
p204
S'created'
p205
tp206
F0.005128205128205128
s(S'debuted'
p207
S'[[con]]'
p208
S'was'
p209
tp210
F0.005128205128205128
s(S'was'
p211
S'hosted'
p212
S'[[con]]'
p213
tp214
F0.005128205128205128
s(S'was'
p215
S'written'
p216
S'for'
p217
tp218
F0.005128205128205128
s(g34
g35
g204
tp219
F0.005128205128205128
s(S'[[adj]]'
p220
S'created'
p221
S'by'
p222
tp223
F0.005128205128205128
s(S'[[con]]'
p224
S'performed'
p225
S'by'
p226
tp227
F0.005128205128205128
s(S'was'
p228
S'created'
p229
S'of'
p230
tp231
F0.005128205128205128
s(S'have'
p232
S'performed'
p233
S'[[det]]'
p234
tp235
F0.005128205128205128
s(g2
g3
S'by'
p236
tp237
F0.08205128205128205
s(S'[[con]]'
p238
S'created'
p239
S'[[det]]'
p240
tp241
F0.005128205128205128
s(S'was'
p242
S'written'
p243
S'to'
p244
tp245
F0.005128205128205128
s(S'was'
p246
S'written'
p247
S'that'
p248
tp249
F0.005128205128205128
s(g204
g205
S'by'
p250
tp251
F0.005128205128205128
s(S'[[adj]]'
p252
S'television'
p253
S'series'
p254
tp255
F0.005128205128205128
s(S'first'
p256
S'aired'
p257
S'on'
p258
tp259
F0.005128205128205128
s(S'also'
p260
S'created'
p261
S'along'
p262
tp263
F0.005128205128205128
s(S'also'
p264
S'created'
p265
S'[[num]]'
p266
tp267
F0.005128205128205128
s(S'[[con]]'
p268
S'performed'
p269
S'[[det]]'
p270
tp271
F0.005128205128205128
s(S'also'
p272
S'performed'
p273
S'by'
p274
tp275
F0.005128205128205128
s(S'first'
p276
S'appeared'
p277
S'by'
p278
tp279
F0.005128205128205128
s(S'often'
p280
S'performed'
p281
S'[[con]]'
p282
tp283
F0.005128205128205128
s(S'[[adj]]'
p284
S'written'
p285
S'by'
p286
tp287
F0.005128205128205128
s(S'had'
p288
S'performed'
p289
S'for'
p290
tp291
F0.005128205128205128
s(S'television'
p292
S'series'
p293
S'created'
p294
tp295
F0.010256410256410256
s(S'was'
p296
S'hosted'
p297
S'with'
p298
tp299
F0.005128205128205128
s(S'had'
p300
S'performed'
p301
S'with'
p302
tp303
F0.005128205128205128
s(S'not'
p304
S'written'
p305
S'by'
p306
tp307
F0.005128205128205128
s(S'also'
p308
S'performed'
p309
S'[[det]]'
p310
tp311
F0.005128205128205128
s(S'also'
p312
S'performed'
p313
S'as'
p314
tp315
F0.005128205128205128
s(S'[[num]]'
p316
S'performed'
p317
S'by'
p318
tp319
F0.005128205128205128
s(g94
g95
g107
tp320
F0.005128205128205128
s(S'[[det]]'
p321
S'created'
p322
S'by'
p323
tp324
F0.005128205128205128
s(S'often'
p325
S'performed'
p326
S'by'
p327
tp328
F0.005128205128205128
s(S'was'
p329
S'written'
p330
S'with'
p331
tp332
F0.005128205128205128
s(S'been'
p333
S'created'
p334
S'by'
p335
tp336
F0.005128205128205128
s(S'is'
p337
S'written'
p338
S'by'
p339
tp340
F0.005128205128205128
s(S'has'
p341
S'performed'
p342
S'together'
p343
tp344
F0.005128205128205128
s(S'also'
p345
S'performed'
p346
S'[[con]]'
p347
tp348
F0.005128205128205128
s(S'has'
p349
S'performed'
p350
S'from'
p351
tp352
F0.005128205128205128
s(S'[[num]]'
p353
S'produced'
p354
S'by'
p355
tp356
F0.005128205128205128
s(S'also'
p357
S'performed'
p358
S'before'
p359
tp360
F0.005128205128205128
s(S'also'
p361
S'created'
p362
S'[[con]]'
p363
tp364
F0.005128205128205128
s(g18
g19
S'by'
p365
tp366
F0.010256410256410256
s(S'[[con]]'
p367
S'performed'
p368
S'with'
p369
tp370
F0.005128205128205128
s(g115
g116
S'by'
p371
tp372
F0.010256410256410256
s(S'created'
p373
g97
g98
tp374
F0.02564102564102564
s(S'were'
p375
S'created'
p376
S'[[num]]'
p377
tp378
F0.005128205128205128
s(S'that'
p379
S'aired'
p380
S'on'
p381
tp382
F0.005128205128205128
s(S'be'
p383
S'written'
p384
S'by'
p385
tp386
F0.005128205128205128
s(S'[[adj]]'
p387
g53
g54
tp388
F0.010256410256410256
s(S'first'
p389
S'appeared'
p390
S'[[con]]'
p391
tp392
F0.010256410256410256
s(S'also'
p393
S'aired'
p394
S'on'
p395
tp396
F0.005128205128205128
s(S'has'
p397
S'performed'
p398
S'with'
p399
tp400
F0.005128205128205128
s(S'was'
p401
S'created'
p402
S'for'
p403
tp404
F0.005128205128205128
s(S'also'
p405
S'performed'
p406
S'together'
p407
tp408
F0.005128205128205128
s(S'also'
p409
S'performed'
p410
S'with'
p411
tp412
F0.005128205128205128
s(S'show'
p413
S'aired'
p414
S'on'
p415
tp416
F0.005128205128205128
s(S'also'
p417
S'performed'
p418
S'[[adj]]'
p419
tp420
F0.005128205128205128
s(S'where'
p421
S'performed'
p422
S'with'
p423
tp424
F0.005128205128205128
s(S'writer'
p425
S'[[con]]'
p426
S'artist'
p427
tp428
F0.010256410256410256
s(g75
g105
S'by'
p429
tp430
F0.010256410256410256
s(g58
g59
S'was'
p431
tp432
F0.005128205128205128
s(g25
S'performed'
p433
S'by'
p434
tp435
F0.005128205128205128
s(S'first'
p436
S'appears'
p437
S'[[num]]'
p438
tp439
F0.005128205128205128
s(S'[[con]]'
p440
S'created'
p441
S'[[pro]]'
p442
tp443
F0.005128205128205128
s(S'has'
p444
S'performed'
p445
S'before'
p446
tp447
F0.005128205128205128
s(S'has'
p448
S'performed'
p449
S'[[adj]]'
p450
tp451
F0.005128205128205128
s(S'been'
p452
S'written'
p453
S'by'
p454
tp455
F0.005128205128205128
s(S'was'
p456
S'written'
p457
S'by'
p458
tp459
F0.005128205128205128
s(S'[[num]]'
p460
S'performed'
p461
S'with'
p462
tp463
F0.005128205128205128
s(S'often'
p464
S'performed'
p465
S'with'
p466
tp467
F0.005128205128205128
s(S'appeared'
p468
g1
g2
tp469
F0.010256410256410256
s(S'show'
p470
S'produced'
p471
S'by'
p472
tp473
F0.005128205128205128
s(g25
S'written'
p474
S'by'
p475
tp476
F0.005128205128205128
s(S'[[det]]'
p477
g292
g293
tp478
F0.005128205128205128
s(S'is'
p479
S'aired'
p480
S'on'
p481
tp482
F0.005128205128205128
s(g293
g294
S'by'
p483
tp484
F0.010256410256410256
s(S'[[det]]'
p485
S'performed'
p486
S'by'
p487
tp488
F0.005128205128205128
s(S'since'
p489
S'performed'
p490
S'with'
p491
tp492
F0.005128205128205128
s(S'was'
p493
S'produced'
p494
S'[[adj]]'
p495
tp496
F0.005128205128205128
s(S'[[num]]'
p497
S'written'
p498
S'by'
p499
tp500
F0.005128205128205128
s(S'was'
p501
S'written'
p502
S'[[con]]'
p503
tp504
F0.005128205128205128
s(S'has'
p505
S'performed'
p506
S'by'
p507
tp508
F0.005128205128205128
s(S'is'
p509
S'hosted'
p510
S'by'
p511
tp512
F0.005128205128205128
s(S'show'
p513
S'hosted'
p514
S'by'
p515
tp516
F0.005128205128205128
s(S'be'
p517
S'produced'
p518
S'by'
p519
tp520
F0.005128205128205128
s(S'were'
p521
S'written'
p522
S'by'
p523
tp524
F0.005128205128205128
s(S'[[con]]'
p525
S'performed'
p526
S'on'
p527
tp528
F0.005128205128205128
s(S'is'
p529
S'written'
p530
S'that'
p531
tp532
F0.005128205128205128
s.