(dp0
(S'was'
p1
S'murdered'
p2
S'[[con]]'
p3
tp4
F0.2
s(S'had'
p5
S'murdered'
p6
S'[[det]]'
p7
tp8
F0.2
s(S'was'
p9
S'murdered'
p10
S'by'
p11
tp12
F0.2
s(S'is'
p13
S'murdered'
p14
S'by'
p15
tp16
F0.2
s(S'been'
p17
S'murdered'
p18
S'by'
p19
tp20
F0.2
s.