(dp0
(S'was'
p1
S'designed'
p2
S'to'
p3
tp4
F0.030303030303030304
s(S'was'
p5
S'built'
p6
S'for'
p7
tp8
F0.030303030303030304
s(S'was'
p9
S'designed'
p10
S'by'
p11
tp12
F0.030303030303030304
s(S'of'
p13
S'designed'
p14
S'by'
p15
tp16
F0.030303030303030304
s(S'were'
p17
S'created'
p18
S'by'
p19
tp20
F0.030303030303030304
s(S'was'
p21
S'designed'
p22
S'for'
p23
tp24
F0.030303030303030304
s(S'was'
p25
S'built'
p26
S'by'
p27
tp28
F0.030303030303030304
s(S'was'
p29
S'built'
p30
S'[[num]]'
p31
tp32
F0.030303030303030304
s(S'was'
p33
S'created'
p34
S'with'
p35
tp36
F0.030303030303030304
s(S'is'
p37
S'created'
p38
S'by'
p39
tp40
F0.030303030303030304
s(S'steam'
p41
S'locomotives'
p42
S'designed'
p43
tp44
F0.030303030303030304
s(S'[[det]]'
p45
S'designed'
p46
S'by'
p47
tp48
F0.030303030303030304
s(S'been'
p49
S'built'
p50
S'for'
p51
tp52
F0.030303030303030304
s(S'was'
p53
S'created'
p54
S'by'
p55
tp56
F0.030303030303030304
s(S'[[adj]]'
p57
S'designed'
p58
S'by'
p59
tp60
F0.030303030303030304
s(S'is'
p61
S'built'
p62
S'by'
p63
tp64
F0.030303030303030304
s(S'been'
p65
S'designed'
p66
S'by'
p67
tp68
F0.030303030303030304
s(S'[[det]]'
p69
S'class'
p70
g13
tp71
F0.030303030303030304
s(g70
g13
g14
tp72
F0.030303030303030304
s(S'were'
p73
S'built'
p74
S'by'
p75
tp76
F0.030303030303030304
s(S'[[adj]]'
p77
S'built'
p78
S'by'
p79
tp80
F0.030303030303030304
s(g42
g43
S'by'
p81
tp82
F0.030303030303030304
s(S'been'
p83
S'built'
p84
S'by'
p85
tp86
F0.030303030303030304
s(S'[[adj]]'
p87
S'created'
p88
S'by'
p89
tp90
F0.030303030303030304
s(S'was'
p91
S'designed'
p92
S'[[con]]'
p93
tp94
F0.030303030303030304
s(S'was'
p95
S'built'
p96
S'over'
p97
tp98
F0.030303030303030304
s(S'was'
p99
S'built'
p100
S'with'
p101
tp102
F0.030303030303030304
s(S'was'
p103
S'built'
p104
S'[[con]]'
p105
tp106
F0.030303030303030304
s(S'[[num]]'
p107
S'designed'
p108
S'by'
p109
tp110
F0.030303030303030304
s(S'was'
p111
S'built'
p112
S'between'
p113
tp114
F0.030303030303030304
s(S'were'
p115
S'designed'
p116
S'by'
p117
tp118
F0.030303030303030304
s(S'is'
p119
S'designed'
p120
S'by'
p121
tp122
F0.030303030303030304
s(S'was'
p123
S'designed'
p124
S'with'
p125
tp126
F0.030303030303030304
s.