(dp0
(S'[[adj]]'
p1
S'produced'
p2
S'by'
p3
tp4
F0.0004452359750667854
s(S'comedy'
p5
S'film'
p6
S'produced'
p7
tp8
F0.0008904719501335708
s(S'also'
p9
S'known'
p10
S'as'
p11
tp12
F0.0004452359750667854
s(S'road'
p13
S'movie'
p14
S'directed'
p15
tp16
F0.0008904719501335708
s(S'released'
p17
S'in'
p18
S'[[num]]'
p19
tp20
F0.0004452359750667854
s(S'was'
p21
S'created'
p22
S'by'
p23
tp24
F0.0004452359750667854
s(S'[[num]]'
p25
S'film'
p26
S'made'
p27
tp28
F0.0008904719501335708
s(S'[[det]]'
p29
S'television'
p30
S'film'
p31
tp32
F0.0004452359750667854
s(S'thriller'
p33
S'film'
p34
S'starring'
p35
tp36
F0.004452359750667854
s(S'[[num]]'
p37
S'crime'
p38
S'film'
p39
tp40
F0.00578806767586821
s(S'marks'
p41
S'[[det]]'
p42
S'[[adj]]'
p43
tp44
F0.0004452359750667854
s(S'[[con]]'
p45
S'starred'
p46
S'as'
p47
tp48
F0.0004452359750667854
s(S'television'
p49
S'drama'
p50
S'film'
p51
tp52
F0.0004452359750667854
s(S'horror'
p53
S'film'
p54
S'starring'
p55
tp56
F0.003116651825467498
s(S'era'
p57
S'motion'
p58
S'picture'
p59
tp60
F0.0008904719501335708
s(S'by'
p61
S'produced'
p62
S'[[con]]'
p63
tp64
F0.0004452359750667854
s(S'directed'
p65
S'starring'
p66
S'[[con]]'
p67
tp68
F0.004452359750667854
s(S'thriller'
p69
S'film'
p70
S'directed'
p71
tp72
F0.010240427426536063
s(S'is'
p73
S'[[num]]'
p74
g49
tp75
F0.0004452359750667854
s(S'comedy'
p76
S'film'
p77
S'featuring'
p78
tp79
F0.0013357079252003562
s(S'mystery'
p80
S'film'
p81
S'starring'
p82
tp83
F0.0004452359750667854
s(S'feature'
p84
S'film'
p85
S'starring'
p86
tp87
F0.003116651825467498
s(S'stars'
p88
S'[[con]]'
p89
S'was'
p90
tp91
F0.0004452359750667854
s(S'[[num]]'
p92
S'film'
p93
S'[[adj]]'
p94
tp95
F0.0004452359750667854
s(S'film'
p96
S'directed'
p97
S'written'
p98
tp99
F0.004452359750667854
s(S'gentleman'
p100
S'[[num]]'
p101
S'movie'
p102
tp103
F0.0004452359750667854
s(S'produced'
p104
S'by'
p105
S'starring'
p106
tp107
F0.0004452359750667854
s(S'[[adj]]'
p108
S'arts'
p109
S'film'
p110
tp111
F0.0013357079252003562
s(S'[[det]]'
p112
S'feature'
p113
S'film'
p114
tp115
F0.0017809439002671415
s(S'film'
p116
S'directed'
p117
S'by'
p118
tp119
F0.059216384683882455
s(S'was'
p120
S'written'
p121
S'about'
p122
tp123
F0.0004452359750667854
s(S'was'
p124
S'directed'
p125
S'produced'
p126
tp127
F0.0013357079252003562
s(S'is'
p128
g108
g109
tp129
F0.0004452359750667854
s(S'adapted'
p130
S'[[num]]'
p131
S'movie'
p132
tp133
F0.0004452359750667854
s(g93
g94
S'[[con]]'
p134
tp135
F0.0008904719501335708
s(S'action'
p136
S'film'
p137
S'[[con]]'
p138
tp139
F0.0004452359750667854
s(S'crime'
p140
S'film'
p141
S'starring'
p142
tp143
F0.0017809439002671415
s(S'fiction'
p144
S'film'
p145
S'directed'
p146
tp147
F0.0017809439002671415
s(S'[[con]]'
p148
S'stars'
p149
S'as'
p150
tp151
F0.0004452359750667854
s(S'[[num]]'
p152
S'film'
p153
S'by'
p154
tp155
F0.0017809439002671415
s(S'directed'
p156
g61
g62
tp157
F0.0004452359750667854
s(S'film'
p158
S'from'
p159
S'directed'
p160
tp161
F0.0008904719501335708
s(g18
g19
S'starring'
p162
tp163
F0.0008904719501335708
s(S'[[con]]'
p164
S'action'
p165
S'film'
p166
tp167
F0.0004452359750667854
s(S'directed'
p168
S'with'
p169
S'[[det]]'
p170
tp171
F0.0013357079252003562
s(S'[[num]]'
p172
S'film'
p173
S'starring'
p174
tp175
F0.0026714158504007124
s(S'[[det]]'
p176
S'thriller'
p177
S'directed'
p178
tp179
F0.0004452359750667854
s(S'[[det]]'
p180
S'soundtrack'
p181
S'directed'
p182
tp183
F0.0004452359750667854
s(S'[[num]]'
p184
S'film'
p185
S'that'
p186
tp187
F0.0013357079252003562
s(S'motion'
p188
S'picture'
p189
S'directed'
p190
tp191
F0.0013357079252003562
s(S'by'
p192
S'starring'
p193
S'[[con]]'
p194
tp195
F0.004007123775601068
s(S'is'
p196
S'written'
p197
S'[[con]]'
p198
tp199
F0.0004452359750667854
s(S'is'
p200
S'[[num]]'
p201
S'thriller'
p202
tp203
F0.0004452359750667854
s(S'[[num]]'
p204
S'fantasy'
p205
S'film'
p206
tp207
F0.0013357079252003562
s(S'[[num]]'
p208
S'movie'
p209
S'produced'
p210
tp211
F0.0004452359750667854
s(S'[[det]]'
p212
S'thriller'
p213
S'film'
p214
tp215
F0.0008904719501335708
s(S'were'
p216
S'produced'
p217
S'by'
p218
tp219
F0.0004452359750667854
s(S'[[num]]'
p220
S'detective'
p221
S'film'
p222
tp223
F0.0008904719501335708
s(g42
g43
S'debut'
p224
tp225
F0.0004452359750667854
s(S'into'
p226
S'[[det]]'
p227
S'film'
p228
tp229
F0.0004452359750667854
s(S'[[con]]'
p230
S'based'
p231
S'by'
p232
tp233
F0.0004452359750667854
s(S'not'
p234
S'written'
p235
S'by'
p236
tp237
F0.0004452359750667854
s(S'film'
p238
S'starring'
p239
S'directed'
p240
tp241
F0.0008904719501335708
s(S'[[adj]]'
p242
S'film'
p243
S'from'
p244
tp245
F0.0004452359750667854
s(S'[[num]]'
p246
S'drama'
p247
S'film'
p248
tp249
F0.013802315227070348
s(S'[[con]]'
p250
S'adapted'
p251
S'by'
p252
tp253
F0.0004452359750667854
s(S'created'
p254
S'[[con]]'
p255
S'written'
p256
tp257
F0.0004452359750667854
s(S'[[adj]]'
p258
S'movie'
p259
S'directed'
p260
tp261
F0.0008904719501335708
s(S'[[adj]]'
p262
g53
g54
tp263
F0.002226179875333927
s(S'documentary'
p264
S'directed'
p265
S'[[con]]'
p266
tp267
F0.0008904719501335708
s(S'directed'
p268
S'starring'
p269
S'[[det]]'
p270
tp271
F0.0004452359750667854
s(S'[[num]]'
p272
S'film'
p273
S'directed'
p274
tp275
F0.016028495102404273
s(S'television'
p276
S'film'
p277
S'starring'
p278
tp279
F0.0008904719501335708
s(S'[[con]]'
p280
S'directed'
p281
S'by'
p282
tp283
F0.026714158504007122
s(S'[[num]]'
p284
S'film'
p285
S'produced'
p286
tp287
F0.0008904719501335708
s(S'that'
p288
S'was'
p289
S'directed'
p290
tp291
F0.0004452359750667854
s(S'was'
p292
S'directed'
p293
S'with'
p294
tp295
F0.0004452359750667854
s(S'[[adj]]'
p296
S'written'
p297
S'[[con]]'
p298
tp299
F0.0013357079252003562
s(S'documentary'
p300
S'film'
p301
S'produced'
p302
tp303
F0.0004452359750667854
s(S'adventure'
p304
g17
g18
tp305
F0.0004452359750667854
s(S'comedy'
p306
S'family'
p307
S'film'
p308
tp309
F0.0004452359750667854
s(S'were'
p310
S'created'
p311
S'by'
p312
tp313
F0.0004452359750667854
s(g27
S'directed'
p314
S'by'
p315
tp316
F0.0004452359750667854
s(S'action'
p317
S'comedy'
p318
S'film'
p319
tp320
F0.002226179875333927
s(S'[[num]]'
p321
S'directed'
p322
S'by'
p323
tp324
F0.0004452359750667854
s(S'adventure'
p325
S'film'
p326
S'directed'
p327
tp328
F0.002226179875333927
s(S'horror'
p329
S'film'
p330
S'written'
p331
tp332
F0.0026714158504007124
s(S'[[con]]'
p333
S'directed'
p334
S'[[con]]'
p335
tp336
F0.009795191451469279
s(S'[[num]]'
p337
S'motion'
p338
S'picture'
p339
tp340
F0.0017809439002671415
s(S'directed'
p341
S'produced'
p342
S'[[con]]'
p343
tp344
F0.0013357079252003562
s(g101
g102
S'directed'
p345
tp346
F0.002226179875333927
s(S'was'
p347
g130
g131
tp348
F0.0004452359750667854
s(S'film'
p349
S'starring'
p350
S'as'
p351
tp352
F0.0008904719501335708
s(S'cult'
p353
S'[[num]]'
p354
S'drama'
p355
tp356
F0.0004452359750667854
s(S'[[adj]]'
p357
S'action'
p358
S'film'
p359
tp360
F0.0017809439002671415
s(S'[[num]]'
p361
S'drama'
p362
S'[[adj]]'
p363
tp364
F0.0004452359750667854
s(S'be'
p365
S'written'
p366
S'by'
p367
tp368
F0.0004452359750667854
s(S'was'
p369
S'written'
p370
S'by'
p371
tp372
F0.0008904719501335708
s(g169
g170
S'screenplay'
p373
tp374
F0.0008904719501335708
s(S'[[det]]'
p375
S'produced'
p376
S'by'
p377
tp378
F0.0004452359750667854
s(S'[[det]]'
p379
S'science'
p380
g144
tp381
F0.0004452359750667854
s(g26
g27
g314
tp382
F0.0004452359750667854
s(S'family'
p383
S'comedy'
p384
S'film'
p385
tp386
F0.0008904719501335708
s(S'crime'
p387
S'film'
p388
S'directed'
p389
tp390
F0.006678539626001781
s(S'titled'
p391
S'is'
p392
S'[[num]]'
p393
tp394
F0.0004452359750667854
s(S'[[det]]'
p395
S'mystery'
p396
S'film'
p397
tp398
F0.0004452359750667854
s(S'of'
p399
S'directed'
p400
S'[[con]]'
p401
tp402
F0.0004452359750667854
s(S'directed'
p403
S'produced'
p404
S'by'
p405
tp406
F0.0013357079252003562
s(S'[[num]]'
p407
S'film'
p408
S'noir'
p409
tp410
F0.0013357079252003562
s(S'fiction'
p411
S'horror'
p412
S'film'
p413
tp414
F0.0008904719501335708
s(g10
g11
S'[[num]]'
p415
tp416
F0.0004452359750667854
s(S'[[num]]'
p417
S'drama'
p418
S'directed'
p419
tp420
F0.0008904719501335708
s(S'drama'
p421
S'directed'
p422
S'[[con]]'
p423
tp424
F0.0013357079252003562
s(S'[[adj]]'
p425
S'drama'
p426
S'[[adj]]'
p427
tp428
F0.0004452359750667854
s(S'[[num]]'
p429
S'crime'
p430
S'drama'
p431
tp432
F0.003561887800534283
s(S'comedy'
p433
S'horror'
p434
S'film'
p435
tp436
F0.0004452359750667854
s(S'television'
p437
S'film'
p438
S'written'
p439
tp440
F0.0004452359750667854
s(S'noir'
p441
S'directed'
p442
S'[[con]]'
p443
tp444
F0.0004452359750667854
s(S'drama'
p445
S'film'
p446
S'based'
p447
tp448
F0.0004452359750667854
s(S'[[adj]]'
p449
g188
g189
tp450
F0.0004452359750667854
s(S'is'
p451
S'written'
p452
S'that'
p453
tp454
F0.0004452359750667854
s(S'released'
p455
S'is'
p456
S'[[num]]'
p457
tp458
F0.0004452359750667854
s(S'[[num]]'
p459
S'fantasy'
p460
S'adventure'
p461
tp462
F0.0004452359750667854
s(g97
g98
S'[[con]]'
p463
tp464
F0.003116651825467498
s(g109
g110
g268
tp465
F0.0013357079252003562
s(S'action'
p466
S'written'
p467
S'[[con]]'
p468
tp469
F0.0008904719501335708
s(S'[[num]]'
p470
S'action'
p471
S'thriller'
p472
tp473
F0.0017809439002671415
s(S'album'
p474
S'directed'
p475
S'starring'
p476
tp477
F0.0004452359750667854
s(S'produced'
p478
S'with'
p479
S'[[det]]'
p480
tp481
F0.0004452359750667854
s(S'movie'
p482
S'directed'
p483
S'[[con]]'
p484
tp485
F0.0017809439002671415
s(S'[[con]]'
p486
g478
g479
tp487
F0.0008904719501335708
s(S'drama'
p488
S'directed'
p489
S'by'
p490
tp491
F0.0013357079252003562
s(S'film'
p492
g488
g489
tp493
F0.0004452359750667854
s(S'was'
p494
S'adapted'
p495
S'directed'
p496
tp497
F0.0004452359750667854
s(S'starring'
p498
S'[[con]]'
p499
S'featuring'
p500
tp501
F0.0017809439002671415
s(S'[[adj]]'
p502
S'feature'
p503
S'film'
p504
tp505
F0.0008904719501335708
s(S'[[num]]'
p506
S'language'
p507
S'film'
p508
tp509
F0.0017809439002671415
s(S'[[num]]'
p510
S'comedy'
p511
S'directed'
p512
tp513
F0.0013357079252003562
s(g335
S'written'
p514
S'by'
p515
tp516
F0.009349955476402494
s(S'color'
p517
S'film'
p518
S'was'
p519
tp520
F0.0004452359750667854
s(S'screenplay'
p521
S'written'
p522
S'by'
p523
tp524
F0.0004452359750667854
s(S'[[adj]]'
p525
S'drama'
p526
S'film'
p527
tp528
F0.008904719501335707
s(S's'
p529
S'written'
p530
S'by'
p531
tp532
F0.0004452359750667854
s(S'[[adj]]'
p533
S'comedy'
p534
S'drama'
p535
tp536
F0.0004452359750667854
s(S'fiction'
p537
S'directed'
p538
S'by'
p539
tp540
F0.0004452359750667854
s(S'[[con]]'
p541
S'directed'
p542
S'starring'
p543
tp544
F0.003561887800534283
s(S'is'
p545
S'produced'
p546
S'by'
p547
tp548
F0.0004452359750667854
s(S'fiction'
p549
S'thriller'
p550
S'film'
p551
tp552
F0.0004452359750667854
s(S'comedy'
p553
S'film'
p554
S'from'
p555
tp556
F0.0004452359750667854
s(S'soundtrack'
p557
g474
g475
tp558
F0.0008904719501335708
s(S'[[num]]'
p559
S'movie'
p560
S'[[con]]'
p561
tp562
F0.0004452359750667854
s(g38
g39
S'based'
p563
tp564
F0.0004452359750667854
s(S'as'
p565
S'[[det]]'
p566
S'film'
p567
tp568
F0.0004452359750667854
s(S'comedy'
p569
S'film'
p570
S'written'
p571
tp572
F0.006678539626001781
s(S'[[det]]'
p573
S'drama'
p574
S'thriller'
p575
tp576
F0.0004452359750667854
s(S'[[adj]]'
p577
g421
g422
tp578
F0.0008904719501335708
s(S'fantasy'
p579
S'action'
p580
S'film'
p581
tp582
F0.0004452359750667854
s(S'[[adj]]'
p583
g433
g434
tp584
F0.0004452359750667854
s(S'aka'
p585
g128
g108
tp586
F0.0004452359750667854
s(S'[[con]]'
p587
S'directed'
p588
S'with'
p589
tp590
F0.0008904719501335708
s(S'[[num]]'
p591
S'horror'
p592
g158
tp593
F0.00578806767586821
s(S'was'
p594
S'written'
p595
S'for'
p596
tp597
F0.0004452359750667854
s(g189
g190
S'by'
p598
tp599
F0.0008904719501335708
s(g518
g519
S'released'
p600
tp601
F0.0004452359750667854
s(S'[[adj]]'
p602
S'created'
p603
S'by'
p604
tp605
F0.0004452359750667854
s(S'[[det]]'
p606
S'film'
p607
S'written'
p608
tp609
F0.0004452359750667854
s(S'adapted'
p610
g226
g227
tp611
F0.0004452359750667854
s(S'thriller'
p612
S'written'
p613
S'[[con]]'
p614
tp615
F0.0004452359750667854
s(g580
g581
S'starring'
p616
tp617
F0.002226179875333927
s(S'comedy'
p618
S'crime'
p619
S'film'
p620
tp621
F0.0004452359750667854
s(S'written'
p622
S'directed'
p623
S'by'
p624
tp625
F0.0008904719501335708
s(S'adapted'
p626
S'into'
p627
S'[[num]]'
p628
tp629
F0.0004452359750667854
s(S'[[adj]]'
p630
S'film'
p631
S'produced'
p632
tp633
F0.0004452359750667854
s(S'[[con]]'
p634
S'directed'
p635
S'gt'
p636
tp637
F0.0004452359750667854
s(S'edited'
p638
S'[[con]]'
p639
S'starring'
p640
tp641
F0.0004452359750667854
s(S'thriller'
p642
S'film'
p643
S'written'
p644
tp645
F0.0008904719501335708
s(S'film'
p646
S'made'
p647
S'by'
p648
tp649
F0.0004452359750667854
s(S'[[det]]'
p650
S'film'
p651
S'for'
p652
tp653
F0.0004452359750667854
s(S'was'
p654
S'written'
p655
S'directed'
p656
tp657
F0.0008904719501335708
s(S'[[num]]'
p658
g325
g326
tp659
F0.003116651825467498
s(S'about'
p660
S'directed'
p661
S'[[con]]'
p662
tp663
F0.0008904719501335708
s(S'[[det]]'
p664
g304
g17
tp665
F0.0004452359750667854
s(S'comedy'
p666
S'film'
p667
S'starring'
p668
tp669
F0.005342831700801425
s(S'was'
p670
S'directed'
p671
S'written'
p672
tp673
F0.0004452359750667854
s(S'written'
p674
S'directed'
p675
S'[[con]]'
p676
tp677
F0.0013357079252003562
s(g177
g178
S'[[con]]'
p678
tp679
F0.0008904719501335708
s(S'was'
p680
S'adapted'
p681
g565
tp682
F0.0004452359750667854
s(g239
g240
S'by'
p683
tp684
F0.0008904719501335708
s(g627
g628
S'film'
p685
tp686
F0.0004452359750667854
s(S'was'
p687
S'produced'
p688
S'with'
p689
tp690
F0.0004452359750667854
s(S'written'
p691
S'[[con]]'
p692
S'starring'
p693
tp694
F0.005342831700801425
s(g138
S'crime'
p695
S'drama'
p696
tp697
F0.0004452359750667854
s(S'action'
p698
S'film'
p699
S'about'
p700
tp701
F0.0004452359750667854
s(S'by'
p702
S'[[con]]'
p703
S'stars'
p704
tp705
F0.0008904719501335708
s(S'television'
p706
S'film'
p707
S'directed'
p708
tp709
F0.0008904719501335708
s(S'directed'
p710
g250
g251
tp711
F0.0004452359750667854
s(S'horror'
p712
S'film'
p713
S'directed'
p714
tp715
F0.006233303650934996
s(S'drama'
p716
S'film'
p717
S'produced'
p718
tp719
F0.0013357079252003562
s(S'documentary'
p720
S'film'
p721
S'by'
p722
tp723
F0.0008904719501335708
s(g409
S'starring'
p724
S'[[con]]'
p725
tp726
F0.0004452359750667854
s(S'[[num]]'
p727
g383
g384
tp728
F0.0008904719501335708
s(S'comedydrama'
p729
S'film'
p730
S'directed'
p731
tp732
F0.002226179875333927
s(S'documentary'
p733
S'film'
p734
S'about'
p735
tp736
F0.0004452359750667854
s(g534
g535
g116
tp737
F0.0013357079252003562
s(g43
g224
S'of'
p738
tp739
F0.0004452359750667854
s(S'film'
p740
S'written'
p741
S'by'
p742
tp743
F0.004007123775601068
s(S'film'
p744
g65
g66
tp745
F0.01068566340160285
s(S'directed'
p746
S'by'
p747
S'[[con]]'
p748
tp749
F0.02315227070347284
s(S'drama'
p750
S'film'
p751
S'featuring'
p752
tp753
F0.0004452359750667854
s(S'[[con]]'
p754
S'starring'
p755
S'[[con]]'
p756
tp757
F0.013357079252003561
s(S'crime'
p758
S'thriller'
p759
S'film'
p760
tp761
F0.0017809439002671415
s(S'[[det]]'
p762
S'horror'
p763
S'film'
p764
tp765
F0.0013357079252003562
s(S'[[det]]'
p766
S'film'
p767
S'by'
p768
tp769
F0.0004452359750667854
s(S'thriller'
p770
S'film'
p771
S'released'
p772
tp773
F0.0004452359750667854
s(S'[[det]]'
p774
S'language'
p775
S'film'
p776
tp777
F0.0008904719501335708
s(S'is'
p778
S'directed'
p779
S'by'
p780
tp781
F0.0013357079252003562
s(S'[[adj]]'
p782
S'comedy'
p783
S'starring'
p784
tp785
F0.0004452359750667854
s(S'[[num]]'
p786
S'family'
p787
S'film'
p788
tp789
F0.0008904719501335708
s(S'film'
p790
S'starring'
p791
S'[[det]]'
p792
tp793
F0.0004452359750667854
s(g74
g49
g50
tp794
F0.0004452359750667854
s(S'was'
p795
S'created'
p796
S'with'
p797
tp798
F0.0004452359750667854
s(g566
g567
S'in'
p799
tp800
F0.0004452359750667854
s(S'film'
p801
S'[[adj]]'
p802
S'starring'
p803
tp804
F0.0004452359750667854
s(S'written'
p805
S'by'
p806
S'[[con]]'
p807
tp808
F0.0004452359750667854
s(S'science'
p809
S'film'
p810
S'directed'
p811
tp812
F0.0004452359750667854
s(S'[[num]]'
p813
S'documentary'
p814
S'film'
p815
tp816
F0.004007123775601068
s(S'[[adj]]'
p817
S'film'
p818
S'by'
p819
tp820
F0.0013357079252003562
s(S'was'
p821
S'produced'
p822
S'directed'
p823
tp824
F0.0004452359750667854
s(S'[[det]]'
p825
S'directed'
p826
S'by'
p827
tp828
F0.0004452359750667854
s(S'film'
p829
S'[[con]]'
p830
S'[[adj]]'
p831
tp832
F0.0004452359750667854
s(S'was'
p833
S'written'
p834
S'to'
p835
tp836
F0.0004452359750667854
s(S'crime'
p837
S'drama'
p838
S'film'
p839
tp840
F0.0026714158504007124
s(S'comedy'
p841
S'film'
p842
S'released'
p843
tp844
F0.0004452359750667854
s(g334
g335
g514
tp845
F0.01068566340160285
s(S'[[det]]'
p846
S'documentary'
p847
S'film'
p848
tp849
F0.0008904719501335708
s(S'[[num]]'
p850
S'romance'
p851
S'film'
p852
tp853
F0.002226179875333927
s(S'directed'
p854
S'[[con]]'
p855
S'starred'
p856
tp857
F0.0017809439002671415
s(S'[[num]]'
p858
S'written'
p859
S'by'
p860
tp861
F0.0004452359750667854
s(g380
g144
g145
tp862
F0.0017809439002671415
s(S'film'
p863
g73
g74
tp864
F0.0004452359750667854
s(S'[[det]]'
p865
g353
g354
tp866
F0.0004452359750667854
s(S'directed'
p867
S'[[con]]'
p868
S'also'
p869
tp870
F0.0008904719501335708
s(S'[[num]]'
p871
S'mystery'
p872
S'thriller'
p873
tp874
F0.0004452359750667854
s(g852
S'starring'
p875
S'[[con]]'
p876
tp877
F0.016918967052537846
s(S'cast'
p878
S'comedydrama'
p879
S'film'
p880
tp881
F0.0004452359750667854
s(S'war'
p882
S'film'
p883
S'directed'
p884
tp885
F0.0017809439002671415
s(g554
g555
S'written'
p886
tp887
F0.0004452359750667854
s(S'[[adj]]'
p888
S'collaboration'
p889
S'between'
p890
tp891
F0.0004452359750667854
s(S'movie'
p892
S'directed'
p893
S'starring'
p894
tp895
F0.0004452359750667854
s(S'assassination'
p896
g164
g165
tp897
F0.0004452359750667854
s(S'[[det]]'
p898
S'collaboration'
p899
S'[[con]]'
p900
tp901
F0.0004452359750667854
s(S'[[adj]]'
p902
S'film'
p903
S'about'
p904
tp905
F0.0004452359750667854
s(S'[[det]]'
p906
S'drama'
p907
S'film'
p908
tp909
F0.0008904719501335708
s(g181
g182
S'by'
p910
tp911
F0.0004452359750667854
s(S'film'
p912
g403
g404
tp913
F0.0013357079252003562
s(S'[[num]]'
p914
S'thriller'
p915
S'film'
p916
tp917
F0.007569011576135352
s(S'[[num]]'
p918
S'written'
p919
S'[[con]]'
p920
tp921
F0.0004452359750667854
s(S'[[det]]'
p922
S'film'
p923
S'directed'
p924
tp925
F0.004007123775601068
s(S'[[num]]'
p926
g317
g318
tp927
F0.002226179875333927
s(S'[[adj]]'
p928
S'film'
p929
S'where'
p930
tp931
F0.0004452359750667854
s(g831
S'comedy'
p932
S'written'
p933
tp934
F0.0004452359750667854
s(g542
g543
S'as'
p935
tp936
F0.0004452359750667854
s(S'film'
p937
S'directed'
p938
S'as'
p939
tp940
F0.0008904719501335708
s(S'[[det]]'
p941
g896
g164
tp942
F0.0004452359750667854
s(S'known'
p943
S'is'
p944
S'[[adj]]'
p945
tp946
F0.0004452359750667854
s(S'drama'
p947
S'film'
p948
S'[[adj]]'
p949
tp950
F0.0008904719501335708
s(S'by'
p951
S'film'
p952
S'stars'
p953
tp954
F0.0004452359750667854
s(g842
g843
S'starring'
p955
tp956
F0.0013357079252003562
s(S'crime'
p957
S'drama'
p958
S'starring'
p959
tp960
F0.0004452359750667854
s(S'adapted'
p961
S'[[con]]'
p962
S'directed'
p963
tp964
F0.0008904719501335708
s(S'[[con]]'
p965
S'was'
p966
S'directed'
p967
tp968
F0.0013357079252003562
s(S'[[num]]'
p969
S'action'
p970
S'film'
p971
tp972
F0.00578806767586821
s(S'comedy'
p973
S'directed'
p974
S'written'
p975
tp976
F0.0004452359750667854
s(S'film'
p977
S'[[adj]]'
p978
S'directed'
p979
tp980
F0.0008904719501335708
s(S'directed'
p981
g754
g755
tp982
F0.03784505788067676
s(S'film'
p983
S'directed'
p984
S'that'
p985
tp986
F0.0004452359750667854
s(g555
g886
S'[[con]]'
p987
tp988
F0.0004452359750667854
s(g342
g343
S'starring'
p989
tp990
F0.0008904719501335708
s(S'film'
p991
g981
g754
tp992
F0.039180765805877114
s(S'[[num]]'
p993
g882
g883
tp994
F0.002226179875333927
s(S'directed'
p995
S'by'
p996
S'starring'
p997
tp998
F0.013802315227070348
s(S'by'
p999
S'starring'
p1000
S'[[det]]'
p1001
tp1002
F0.0004452359750667854
s(S'was'
p1003
S'produced'
p1004
S'from'
p1005
tp1006
F0.0004452359750667854
s(S'[[num]]'
p1007
g84
g85
tp1008
F0.003116651825467498
s(S'adventure'
p1009
S'film'
p1010
S'starring'
p1011
tp1012
F0.0017809439002671415
s(S'starring'
p1013
g333
g334
tp1014
F0.003561887800534283
s(S'[[adj]]'
p1015
S'comedy'
p1016
g991
tp1017
F0.009349955476402494
s(g787
g788
S'directed'
p1018
tp1019
F0.0013357079252003562
s(S'[[con]]'
p1020
S'directed'
p1021
S'which'
p1022
tp1023
F0.0004452359750667854
s(S'stars'
p1024
S'[[con]]'
p1025
S'is'
p1026
tp1027
F0.0004452359750667854
s(S'is'
p1028
S'directed'
p1029
S'[[con]]'
p1030
tp1031
F0.0017809439002671415
s(S'[[det]]'
p1032
S'war'
p1033
S'film'
p1034
tp1035
F0.0004452359750667854
s(g636
S'[[con]]'
p1036
S'starring'
p1037
tp1038
F0.0004452359750667854
s(S'[[det]]'
p1039
S'film'
p1040
S'comedy'
p1041
tp1042
F0.0004452359750667854
s(S'comedy'
p1043
g801
g802
tp1044
F0.0004452359750667854
s(S'was'
p1045
S'produced'
p1046
S'by'
p1047
tp1048
F0.0004452359750667854
s(g741
g742
S'starring'
p1049
tp1050
F0.0004452359750667854
s(S'[[det]]'
p1051
S'collaboration'
p1052
S'with'
p1053
tp1054
F0.0004452359750667854
s(S'[[det]]'
p1055
S'film'
p1056
S'starring'
p1057
tp1058
F0.0008904719501335708
s(S'[[num]]'
p1059
g666
g667
tp1060
F0.012021371326803205
s(g289
g290
S'by'
p1061
tp1062
F0.003561887800534283
s(S'was'
p1063
S'written'
p1064
S'produced'
p1065
tp1066
F0.0004452359750667854
s(g248
S'directed'
p1067
S'based'
p1068
tp1069
F0.0008904719501335708
s(S'produced'
p1070
S'directed'
p1071
S'by'
p1072
tp1073
F0.0017809439002671415
s(S'was'
p1074
S'produced'
p1075
S'[[con]]'
p1076
tp1077
F0.0013357079252003562
s(S'was'
p1078
S'written'
p1079
S'that'
p1080
tp1081
F0.0004452359750667854
s(g185
g186
S'was'
p1082
tp1083
F0.0013357079252003562
s(g784
S'[[con]]'
p1084
S'written'
p1085
tp1086
F0.0004452359750667854
s(S'was'
p1087
S'directed'
p1088
S'[[con]]'
p1089
tp1090
F0.006233303650934996
s(g1021
g1022
S'starred'
p1091
tp1092
F0.0004452359750667854
s(S'picture'
p1093
S'drama'
p1094
S'starring'
p1095
tp1096
F0.0004452359750667854
s(S'science'
p1097
g411
g412
tp1098
F0.0008904719501335708
s(S'[[adj]]'
p1099
S'documentary'
p1100
S'film'
p1101
tp1102
F0.0004452359750667854
s(S'[[adj]]'
p1103
S'written'
p1104
S'by'
p1105
tp1106
F0.0004452359750667854
s(S'[[num]]'
p1107
S'mystery'
p1108
S'crime'
p1109
tp1110
F0.0004452359750667854
s(S'motion'
p1111
S'picture'
p1112
S'starring'
p1113
tp1114
F0.0008904719501335708
s(g247
g248
g1067
tp1115
F0.017809439002671415
s(S'[[adj]]'
p1116
S'science'
p1117
S'fiction'
p1118
tp1119
F0.0004452359750667854
s(g507
g508
S'starring'
p1120
tp1121
F0.0013357079252003562
s(S'[[num]]'
p1122
g809
g810
tp1123
F0.0004452359750667854
s(S'science'
p1124
g537
g538
tp1125
F0.0004452359750667854
s(S'feature'
p1126
S'film'
p1127
S'directed'
p1128
tp1129
F0.003561887800534283
s(g460
g461
S'film'
p1130
tp1131
F0.0004452359750667854
s(g1108
g1109
S'film'
p1132
tp1133
F0.0004452359750667854
s(g695
g696
S'directed'
p1134
tp1135
F0.0004452359750667854
s(S'is'
p1136
S'written'
p1137
S'by'
p1138
tp1139
F0.0004452359750667854
s(S'[[num]]'
p1140
S'produced'
p1141
S'by'
p1142
tp1143
F0.0004452359750667854
s(S'film'
p1144
g399
g400
tp1145
F0.0004452359750667854
s(S'directed'
p1146
S'[[con]]'
p1147
S'stars'
p1148
tp1149
F0.004452359750667854
s(S'[[det]]'
p1150
S'crime'
p1151
S'film'
p1152
tp1153
F0.0004452359750667854
s(S'written'
p1154
g965
g966
tp1155
F0.0004452359750667854
s(S'[[adj]]'
p1156
S'mystery'
p1157
S'film'
p1158
tp1159
F0.0004452359750667854
s(g392
g393
S'drama'
p1160
tp1161
F0.0004452359750667854
s(S'directed'
p1162
g951
g952
tp1163
F0.0008904719501335708
s(S'[[adj]]'
p1164
S'film'
p1165
S'directed'
p1166
tp1167
F0.009795191451469279
s(S'[[num]]'
p1168
S'produced'
p1169
S'[[con]]'
p1170
tp1171
F0.0004452359750667854
s(S'also'
p1172
S'stars'
p1173
S'[[con]]'
p1174
tp1175
F0.0004452359750667854
s(S'[[adj]]'
p1176
S'film'
p1177
S'that'
p1178
tp1179
F0.0004452359750667854
s(S'known'
p1180
S'is'
p1181
S'film'
p1182
tp1183
F0.0004452359750667854
s(g286
S'[[con]]'
p1184
S'directed'
p1185
tp1186
F0.006678539626001781
s(S'[[con]]'
p1187
S'starred'
p1188
S'[[con]]'
p1189
tp1190
F0.0004452359750667854
s(g430
g431
S'written'
p1191
tp1192
F0.0004452359750667854
s(S'[[det]]'
p1193
g100
g101
tp1194
F0.0004452359750667854
s(S'[[num]]'
p1195
g306
g307
tp1196
F0.0004452359750667854
s(S'film'
p1197
S'by'
p1198
S'director'
p1199
tp1200
F0.0013357079252003562
s(g209
g210
S'[[con]]'
p1201
tp1202
F0.0004452359750667854
s(g408
g409
g724
tp1203
F0.0004452359750667854
s(S'album'
p1204
S'directed'
p1205
S'by'
p1206
tp1207
F0.0004452359750667854
s(S'language'
p1208
S'film'
p1209
S'written'
p1210
tp1211
F0.0004452359750667854
s(S'[[con]]'
p1212
S'starring'
p1213
S'as'
p1214
tp1215
F0.0008904719501335708
s(S'by'
p1216
S'[[con]]'
p1217
S'featuring'
p1218
tp1219
F0.0004452359750667854
s(S'[[adj]]'
p1220
S'comedy'
p1221
S'[[adj]]'
p1222
tp1223
F0.0008904719501335708
s(S'[[adj]]'
p1224
S'romance'
p1225
S'film'
p1226
tp1227
F0.0004452359750667854
s(g126
S'[[con]]'
p1228
S'written'
p1229
tp1230
F0.0004452359750667854
s(g519
g600
S'starring'
p1231
tp1232
F0.0004452359750667854
s(g681
g565
g566
tp1233
F0.0004452359750667854
s(g567
g799
S'[[num]]'
p1234
tp1235
F0.0004452359750667854
s(S'[[det]]'
p1236
g557
g474
tp1237
F0.0008904719501335708
s(g431
g1191
S'[[con]]'
p1238
tp1239
F0.0004452359750667854
s(S'[[det]]'
p1240
S'written'
p1241
S'produced'
p1242
tp1243
F0.0004452359750667854
s(S'directed'
p1244
S'written'
p1245
S'by'
p1246
tp1247
F0.002226179875333927
s(S'been'
p1248
S'written'
p1249
S'by'
p1250
tp1251
F0.0004452359750667854
s(S'[[det]]'
p1252
S'film'
p1253
S'released'
p1254
tp1255
F0.0004452359750667854
s(S'romance'
p1256
S'film'
p1257
S'directed'
p1258
tp1259
F0.0017809439002671415
s(g851
g852
g875
tp1260
F0.0008904719501335708
s(S'[[det]]'
p1261
g1144
g399
tp1262
F0.0004452359750667854
s(S'film'
p1263
g660
g661
tp1264
F0.0008904719501335708
s(S'[[adj]]'
p1265
S'fantasy'
p1266
S'film'
p1267
tp1268
F0.0004452359750667854
s(g984
g985
S'starred'
p1269
tp1270
F0.0004452359750667854
s(g855
g856
S'by'
p1271
tp1272
F0.0004452359750667854
s(g814
g815
S'directed'
p1273
tp1274
F0.002226179875333927
s(S'also'
p1275
g943
g944
tp1276
F0.003561887800534283
s(S'film'
p1277
g622
g623
tp1278
F0.0013357079252003562
s(S'[[num]]'
p1279
g466
g467
tp1280
F0.0008904719501335708
s(g529
S'written'
p1281
S'[[con]]'
p1282
tp1283
F0.0004452359750667854
s(g1082
S'written'
p1284
S'[[con]]'
p1285
tp1286
F0.002226179875333927
s(S'[[adj]]'
p1287
g387
g388
tp1288
F0.002226179875333927
s(S'action'
p1289
g977
g978
tp1290
F0.0004452359750667854
s(S'[[num]]'
p1291
g758
g759
tp1292
F0.0017809439002671415
s(S'be'
p1293
S'produced'
p1294
S'by'
p1295
tp1296
F0.0004452359750667854
s(g1064
g1065
S'[[con]]'
p1297
tp1298
F0.0008904719501335708
s(S'motion'
p1299
g1093
g1094
tp1300
F0.0004452359750667854
s(g675
g676
g638
tp1301
F0.0008904719501335708
s(g561
g1070
g1071
tp1302
F0.0004452359750667854
s(g1025
g1026
S'directed'
p1303
tp1304
F0.0004452359750667854
s(S'war'
p1305
S'film'
p1306
S'starring'
p1307
tp1308
F0.0013357079252003562
s(S'[[det]]'
p1309
S'color'
p1310
S'film'
p1311
tp1312
F0.0008904719501335708
s(g1112
g1113
S'[[con]]'
p1313
tp1314
F0.0008904719501335708
s(S'[[adj]]'
p1315
g612
g613
tp1316
F0.0004452359750667854
s(S'[[num]]'
p1317
g492
g488
tp1318
F0.0004452359750667854
s(g456
g457
S'adventure'
p1319
tp1320
F0.0004452359750667854
s(S'is'
p1321
S'directed'
p1322
S'at'
p1323
tp1324
F0.0004452359750667854
s(S'science'
p1325
g549
g550
tp1326
F0.0004452359750667854
s(S'[[num]]'
p1327
S'mystery'
p1328
S'film'
p1329
tp1330
F0.002226179875333927
s(g635
g636
g1036
tp1331
F0.0004452359750667854
s(S'known'
p1332
S'is'
p1333
g172
tp1334
F0.003561887800534283
s(S'documentary'
p1335
S'film'
p1336
S'starring'
p1337
tp1338
F0.0004452359750667854
s(S'[[num]]'
p1339
S'comedy'
p1340
S'drama'
p1341
tp1342
F0.0008904719501335708
s(g159
g160
S'by'
p1343
tp1344
F0.0008904719501335708
s(g647
g648
S'starring'
p1345
tp1346
F0.0004452359750667854
s(S'[[adj]]'
p1347
g69
g70
tp1348
F0.0026714158504007124
s(S'[[det]]'
p1349
g521
g522
tp1350
F0.0004452359750667854
s(g94
g134
S'directed'
p1351
tp1352
F0.0008904719501335708
s(g1016
g991
g981
tp1353
F0.014247551202137132
s(g932
g933
S'[[con]]'
p1354
tp1355
F0.0004452359750667854
s(S'[[adj]]'
p1356
S'comedy'
p1357
S'directed'
p1358
tp1359
F0.0013357079252003562
s(S'film'
p1360
S'by'
p1361
S'starring'
p1362
tp1363
F0.0013357079252003562
s(S'[[adj]]'
p1364
g618
g619
tp1365
F0.0004452359750667854
s(g39
g563
S'directed'
p1366
tp1367
F0.0004452359750667854
s(g1067
g1068
S'by'
p1368
tp1369
F0.0008904719501335708
s(S'[[con]]'
p1370
g691
g692
tp1371
F0.002226179875333927
s(S'[[det]]'
p1372
S'comedy'
p1373
S'action'
p1374
tp1375
F0.0004452359750667854
s(g631
g632
S'directed'
p1376
tp1377
F0.0008904719501335708
s(S'[[num]]'
p1378
g13
g14
tp1379
F0.0008904719501335708
s(S'[[adj]]'
p1380
S'produced'
p1381
S'[[con]]'
p1382
tp1383
F0.0004452359750667854
s(S'comedy'
p1384
S'directed'
p1385
S'by'
p1386
tp1387
F0.0008904719501335708
s(S'[[adj]]'
p1388
S'film'
p1389
g1013
tp1390
F0.004007123775601068
s(g978
g979
S'by'
p1391
tp1392
F0.0013357079252003562
s(S'comedydrama'
p1393
S'film'
p1394
S'starring'
p1395
tp1396
F0.002226179875333927
s(g1147
g1148
S'[[con]]'
p1397
tp1398
F0.0017809439002671415
s(S'[[det]]'
p1399
S'collaboration'
p1400
S'between'
p1401
tp1402
F0.0004452359750667854
s(g783
g784
g1084
tp1403
F0.0004452359750667854
s(g1373
g1374
S'film'
p1404
tp1405
F0.0004452359750667854
s(g717
g718
S'by'
p1406
tp1407
F0.0004452359750667854
s(g560
g561
g1070
tp1408
F0.0004452359750667854
s(S'[[con]]'
p1409
S'produced'
p1410
S'by'
p1411
tp1412
F0.007123775601068566
s(S'made'
p1413
S'[[con]]'
p1414
S'starring'
p1415
tp1416
F0.0004452359750667854
s(g970
g971
S'directed'
p1417
tp1418
F0.004452359750667854
s(g944
g945
S'film'
p1419
tp1420
F0.0004452359750667854
s(S'is'
p1421
g272
g273
tp1422
F0.003116651825467498
s(g77
g78
S'[[con]]'
p1423
tp1424
F0.0004452359750667854
s(S'[[adj]]'
p1425
S'thriller'
p1426
S'directed'
p1427
tp1428
F0.0004452359750667854
s(S'documentary'
p1429
S'film'
p1430
S'written'
p1431
tp1432
F0.0004452359750667854
s(S'directed'
p1433
g230
g231
tp1434
F0.0004452359750667854
s(S'[[det]]'
p1435
g841
g842
tp1436
F0.0017809439002671415
s(S'film'
p1437
g441
g442
tp1438
F0.0013357079252003562
s(g830
g831
g932
tp1439
F0.0004452359750667854
s(S'sports'
p1440
S'drama'
p1441
S'film'
p1442
tp1443
F0.0004452359750667854
s(S'was'
p1444
g961
g962
tp1445
F0.0004452359750667854
s(S'film'
p1446
g1413
g1414
tp1447
F0.0004452359750667854
s(S'article'
p1448
g1421
g272
tp1449
F0.0004452359750667854
s(g511
g512
S'[[con]]'
p1450
tp1451
F0.0013357079252003562
s(S'by'
p1452
S'[[con]]'
p1453
S'starred'
p1454
tp1455
F0.0004452359750667854
s(g285
g286
g1184
tp1456
F0.003116651825467498
s(S'[[num]]'
p1457
S'thriller'
p1458
S'directed'
p1459
tp1460
F0.0004452359750667854
s(S'picture'
p1461
S'directed'
p1462
S'[[con]]'
p1463
tp1464
F0.0004452359750667854
s(S'[[adj]]'
p1465
g878
g879
tp1466
F0.0004452359750667854
s(S'language'
p1467
S'film'
p1468
S'directed'
p1469
tp1470
F0.0008904719501335708
s(g495
g496
S'by'
p1471
tp1472
F0.0004452359750667854
s(g563
g1366
S'[[con]]'
p1473
tp1474
F0.0004452359750667854
s(S'[[adj]]'
p1475
g646
g647
tp1476
F0.0008904719501335708
s(S'[[num]]'
p1477
g1325
g549
tp1478
F0.0026714158504007124
s(S'was'
p1479
g626
g627
tp1480
F0.0008904719501335708
s(g838
g839
S'starring'
p1481
tp1482
F0.003561887800534283
s(S'[[num]]'
p1483
S'comedy'
p1484
S'[[adj]]'
p1485
tp1486
F0.0008904719501335708
s(g872
g873
S'film'
p1487
tp1488
F0.0004452359750667854
s(g471
g472
S'film'
p1489
tp1490
F0.0017809439002671415
s(S'comedy'
p1491
g1388
g1389
tp1492
F0.002226179875333927
s(S'film'
p1493
g168
g169
tp1494
F0.0013357079252003562
s(S'directed'
p1495
S'[[con]]'
p1496
S'featuring'
p1497
tp1498
F0.0013357079252003562
s(S'comedydrama'
p1499
S'film'
p1500
S'written'
p1501
tp1502
F0.002226179875333927
s(S'[[det]]'
p1503
g264
g265
tp1504
F0.0008904719501335708
s(S'[[num]]'
p1505
S'family'
p1506
S'adventure'
p1507
tp1508
F0.0004452359750667854
s(g479
g480
S'starring'
p1509
tp1510
F0.0004452359750667854
s(g1506
g1507
S'film'
p1511
tp1512
F0.0004452359750667854
s(g1328
g1329
S'directed'
p1513
tp1514
F0.0026714158504007124
s(S'[[adj]]'
p1515
g57
g58
tp1516
F0.0008904719501335708
s(g1191
g1238
S'directed'
p1517
tp1518
F0.02983081032947462
s(S'[[num]]'
p1519
g579
g580
tp1520
F0.0004452359750667854
s(S'action'
p1521
S'film'
p1522
S'written'
p1523
tp1524
F0.0008904719501335708
s(S'noir'
p1525
S'directed'
p1526
S'by'
p1527
tp1528
F0.0008904719501335708
s(g98
g463
S'produced'
p1529
tp1530
F0.0004452359750667854
s(g14
g15
S'by'
p1531
tp1532
F0.003116651825467498
s(S'[[adj]]'
p1533
S'film'
p1534
S'written'
p1535
tp1536
F0.0017809439002671415
s(g221
g222
S'directed'
p1537
tp1538
F0.0008904719501335708
s(g1426
g1427
S'by'
p1539
tp1540
F0.0004452359750667854
s(S'[[con]]'
p1541
S'edited'
p1542
S'by'
p1543
tp1544
F0.0004452359750667854
s(S'[[num]]'
p1545
g437
g438
tp1546
F0.0017809439002671415
s(g137
g138
g695
tp1547
F0.0004452359750667854
s(S'[[adj]]'
p1548
S'adventure'
p1549
S'film'
p1550
tp1551
F0.0008904719501335708
s(S'[[det]]'
p1552
S'film'
p1553
g1525
tp1554
F0.0004452359750667854
s(S'[[num]]'
p1555
g863
g73
tp1556
F0.0004452359750667854
s(g592
g158
g159
tp1557
F0.0004452359750667854
s(g1181
g1182
S'starring'
p1558
tp1559
F0.0004452359750667854
s(S'crime'
p1560
S'film'
p1561
S'written'
p1562
tp1563
F0.0004452359750667854
s(g205
g206
S'directed'
p1564
tp1565
F0.0017809439002671415
s(g186
g1082
g1284
tp1566
F0.0008904719501335708
s(g676
g638
g639
tp1567
F0.0004452359750667854
s(S'directed'
p1568
S'starring'
p1569
S'with'
p1570
tp1571
F0.0008904719501335708
s(g11
g415
S'comedy'
p1572
tp1573
F0.0004452359750667854
s(S'[[adj]]'
p1574
g829
g830
tp1575
F0.0004452359750667854
s(S'[[num]]'
p1576
S'film'
p1577
S'with'
p1578
tp1579
F0.0004452359750667854
s(g868
g869
S'stars'
p1580
tp1581
F0.0008904719501335708
s(g1166
g1409
g1410
tp1582
F0.007569011576135352
s(S'film'
p1583
S'written'
p1584
g541
tp1585
F0.02315227070347284
s(S'[[det]]'
p1586
g1440
g1441
tp1587
F0.0004452359750667854
s(g426
g427
S'film'
p1588
tp1589
F0.0008904719501335708
s(S'is'
p1590
S'[[num]]'
p1591
S'mystery'
p1592
tp1593
F0.0004452359750667854
s(S'is'
p1594
S'created'
p1595
S'by'
p1596
tp1597
F0.0004452359750667854
s(g1040
g1041
S'starring'
p1598
tp1599
F0.0004452359750667854
s(S'[[num]]'
p1600
g729
g730
tp1601
F0.004007123775601068
s(S'aka'
p1602
S'is'
p1603
S'[[num]]'
p1604
tp1605
F0.0008904719501335708
s(S'drama'
p1606
S'film'
p1607
S'written'
p1608
tp1609
F0.004452359750667854
s(S'is'
p1610
S'[[num]]'
p1611
S'crime'
p1612
tp1613
F0.0008904719501335708
s(S'adventure'
p1614
S'film'
p1615
S'written'
p1616
tp1617
F0.0008904719501335708
s(S'[[num]]'
p1618
S'film'
p1619
S'written'
p1620
tp1621
F0.004007123775601068
s(S'first'
p1622
S'produced'
p1623
S'by'
p1624
tp1625
F0.0004452359750667854
s(S'starred'
p1626
S'[[con]]'
p1627
S'was'
p1628
tp1629
F0.0004452359750667854
s(S'with'
p1630
S'[[det]]'
p1631
S'script'
p1632
tp1633
F0.0004452359750667854
s(g574
g575
S'film'
p1634
tp1635
F0.0004452359750667854
s(g747
g748
S'starring'
p1636
tp1637
F0.021816562778272486
s(S'then'
p1638
S'produced'
p1639
S'at'
p1640
tp1641
F0.0004452359750667854
s(S'were'
p1642
S'written'
p1643
S'by'
p1644
tp1645
F0.0004452359750667854
s(S'[[det]]'
p1646
g1491
g1388
tp1647
F0.0004452359750667854
s(S'[[det]]'
p1648
S'movie'
p1649
S'directed'
p1650
tp1651
F0.0004452359750667854
s(g1310
g1311
S'starring'
p1652
tp1653
F0.0004452359750667854
s.