(dp0
(S'is'
p1
S'discovered'
p2
S'that'
p3
tp4
F0.2
s(S'were'
p5
S'discovered'
p6
S'by'
p7
tp8
F0.2
s(S'is'
p9
S'discovered'
p10
S'by'
p11
tp12
F0.2
s(S'was'
p13
S'discovered'
p14
S'by'
p15
tp16
F0.2
s(S'was'
p17
S'discovered'
p18
S'on'
p19
tp20
F0.2
s.