(dp0
(S'was'
p1
S'released'
p2
S'after'
p3
tp4
F0.008064516129032258
s(S'be'
p5
S'released'
p6
S'in'
p7
tp8
F0.008064516129032258
s(S'been'
p9
S'released'
p10
S'[[con]]'
p11
tp12
F0.008064516129032258
s(S'was'
p13
S'released'
p14
S'[[adj]]'
p15
tp16
F0.008064516129032258
s(S'[[adj]]'
p17
S'communities'
p18
S'[[adj]]'
p19
tp20
F0.008064516129032258
s(S'was'
p21
S'released'
p22
S'under'
p23
tp24
F0.008064516129032258
s(S'was'
p25
S'distributed'
p26
S'by'
p27
tp28
F0.008064516129032258
s(S'not'
p29
S'released'
p30
S'on'
p31
tp32
F0.008064516129032258
s(S'produced'
p33
S'[[con]]'
p34
S'released'
p35
tp36
F0.016129032258064516
s(S'was'
p37
S'released'
p38
S'to'
p39
tp40
F0.008064516129032258
s(S'not'
p41
S'released'
p42
S'in'
p43
tp44
F0.008064516129032258
s(S'[[adj]]'
p45
S'released'
p46
S'through'
p47
tp48
F0.008064516129032258
s(S'were'
p49
S'produced'
p50
S'by'
p51
tp52
F0.008064516129032258
s(S'is'
p53
S'distributed'
p54
S'through'
p55
tp56
F0.008064516129032258
s(S'is'
p57
S'distributed'
p58
S'by'
p59
tp60
F0.008064516129032258
s(S'[[adj]]'
p61
S'released'
p62
S'to'
p63
tp64
F0.008064516129032258
s(S'been'
p65
S'developed'
p66
S'by'
p67
tp68
F0.008064516129032258
s(S'[[adj]]'
p69
S'released'
p70
S'by'
p71
tp72
F0.008064516129032258
s(S'been'
p73
S'released'
p74
S'by'
p75
tp76
F0.008064516129032258
s(S'were'
p77
S'released'
p78
S'by'
p79
tp80
F0.008064516129032258
s(S'was'
p81
S'released'
p82
S'on'
p83
tp84
F0.008064516129032258
s(S'also'
p85
S'released'
p86
S'by'
p87
tp88
F0.008064516129032258
s(S'[[adj]]'
p89
S'aired'
p90
S'on'
p91
tp92
F0.008064516129032258
s(S'film'
p93
S'in'
p94
S'series'
p95
tp96
F0.008064516129032258
s(S'is'
p97
S'released'
p98
S'by'
p99
tp100
F0.008064516129032258
s(S'also'
p101
S'released'
p102
S'on'
p103
tp104
F0.008064516129032258
s(S'was'
p105
S'released'
p106
S'by'
p107
tp108
F0.008064516129032258
s(S'is'
p109
S'produced'
p110
S'by'
p111
tp112
F0.016129032258064516
s(S's'
p113
S'released'
p114
S'on'
p115
tp116
F0.008064516129032258
s(S'[[con]]'
p117
S'released'
p118
S'by'
p119
tp120
F0.024193548387096774
s(S'comedy'
p121
S'film'
p122
S'by'
p123
tp124
F0.008064516129032258
s(S'produced'
p125
S'[[con]]'
p126
S'distributed'
p127
tp128
F0.016129032258064516
s(S'was'
p129
S'filmed'
p130
S'[[con]]'
p131
tp132
F0.008064516129032258
s(S'later'
p133
S'published'
p134
S'by'
p135
tp136
F0.008064516129032258
s(S'first'
p137
S'aired'
p138
S'in'
p139
tp140
F0.008064516129032258
s(S'was'
p141
S'produced'
p142
S'from'
p143
tp144
F0.008064516129032258
s(S'[[adj]]'
p145
S'film'
p146
S'made'
p147
tp148
F0.008064516129032258
s(S'[[adj]]'
p149
S'released'
p150
S'under'
p151
tp152
F0.008064516129032258
s(S'was'
p153
S'released'
p154
S'as'
p155
tp156
F0.008064516129032258
s(g130
g131
S'released'
p157
tp158
F0.008064516129032258
s(S'[[num]]'
p159
g93
g94
tp160
F0.008064516129032258
s(S'[[adj]]'
p161
S'released'
p162
S'as'
p163
tp164
F0.008064516129032258
s(S'[[adj]]'
p165
S'developed'
p166
S'by'
p167
tp168
F0.008064516129032258
s(S'was'
p169
S'released'
p170
S'[[con]]'
p171
tp172
F0.016129032258064516
s(S'were'
p173
S'published'
p174
S'by'
p175
tp176
F0.008064516129032258
s(S'was'
p177
S'aired'
p178
S'on'
p179
tp180
F0.008064516129032258
s(S'[[num]]'
p181
g121
g122
tp182
F0.008064516129032258
s(S'[[adj]]'
p183
S'film'
p184
S'to'
p185
tp186
F0.008064516129032258
s(S'also'
p187
S'released'
p188
S'as'
p189
tp190
F0.008064516129032258
s(S'was'
p191
S'released'
p192
S'[[det]]'
p193
tp194
F0.008064516129032258
s(S'being'
p195
S'developed'
p196
S'by'
p197
tp198
F0.008064516129032258
s(S'[[adj]]'
p199
S'released'
p200
S'from'
p201
tp202
F0.008064516129032258
s(S'later'
p203
S'released'
p204
S'in'
p205
tp206
F0.008064516129032258
s(S'was'
p207
g125
g126
tp208
F0.03225806451612903
s(S'[[det]]'
p209
S'released'
p210
S'through'
p211
tp212
F0.008064516129032258
s(S'was'
p213
S'released'
p214
S'with'
p215
tp216
F0.008064516129032258
s(S'first'
p217
S'aired'
p218
S'on'
p219
tp220
F0.008064516129032258
s(S'had'
p221
S'released'
p222
S'[[det]]'
p223
tp224
F0.008064516129032258
s(S'is'
p225
S'released'
p226
S'on'
p227
tp228
F0.008064516129032258
s(S'[[num]]'
p229
S'released'
p230
S'by'
p231
tp232
F0.008064516129032258
s(S'was'
p233
S'distributed'
p234
S'in'
p235
tp236
F0.008064516129032258
s(S'be'
p237
S'released'
p238
S'by'
p239
tp240
F0.016129032258064516
s(S'[[num]]'
p241
S'comedy'
p242
g145
tp243
F0.008064516129032258
s(S'been'
p244
S'licensed'
p245
S'to'
p246
tp247
F0.008064516129032258
s(S'later'
p248
S'released'
p249
S'by'
p250
tp251
F0.008064516129032258
s(g242
g145
g146
tp252
F0.008064516129032258
s(S'not'
p253
S'released'
p254
S'by'
p255
tp256
F0.008064516129032258
s(S'[[adj]]'
p257
S'film'
p258
S'released'
p259
tp260
F0.008064516129032258
s(S'was'
p261
S'developed'
p262
S'[[con]]'
p263
tp264
F0.008064516129032258
s(S'is'
p265
S'licensed'
p266
S'by'
p267
tp268
F0.008064516129032258
s(S'being'
p269
S'produced'
p270
S'by'
p271
tp272
F0.008064516129032258
s(S'[[num]]'
p273
S'produced'
p274
S'by'
p275
tp276
F0.008064516129032258
s(S'that'
p277
S'aired'
p278
S'on'
p279
tp280
F0.008064516129032258
s(g184
g185
S'be'
p281
tp282
F0.008064516129032258
s(S'[[det]]'
p283
S'released'
p284
S'on'
p285
tp286
F0.008064516129032258
s(S'was'
p287
S'developed'
p288
S'by'
p289
tp290
F0.008064516129032258
s(S'was'
p291
S'released'
p292
S'at'
p293
tp294
F0.008064516129032258
s(S'[[con]]'
p295
S'published'
p296
S'by'
p297
tp298
F0.008064516129032258
s(g113
S'released'
p299
S'by'
p300
tp301
F0.008064516129032258
s(S'[[det]]'
p302
S'released'
p303
S'by'
p304
tp305
F0.008064516129032258
s(S'also'
p306
S'aired'
p307
S'on'
p308
tp309
F0.008064516129032258
s(S'was'
p310
S'published'
p311
S'from'
p312
tp313
F0.008064516129032258
s(g185
g281
S'released'
p314
tp315
F0.008064516129032258
s(S'show'
p316
S'aired'
p317
S'on'
p318
tp319
F0.008064516129032258
s(S'be'
p320
S'released'
p321
S'through'
p322
tp323
F0.008064516129032258
s(S'[[num]]'
p324
S'film'
p325
S'released'
p326
tp327
F0.008064516129032258
s(S'by'
p328
S'released'
p329
S'on'
p330
tp331
F0.008064516129032258
s(S'been'
p332
S'released'
p333
S'on'
p334
tp335
F0.008064516129032258
s(S'began'
p336
S'airing'
p337
S'on'
p338
tp339
F0.008064516129032258
s(g258
g259
S'by'
p340
tp341
F0.024193548387096774
s(S'later'
p342
S'released'
p343
S'to'
p344
tp345
F0.008064516129032258
s(S'be'
p346
S'distributed'
p347
S'by'
p348
tp349
F0.008064516129032258
s(S'is'
p350
S'aired'
p351
S'on'
p352
tp353
F0.008064516129032258
s(S'was'
p354
S'produced'
p355
S'at'
p356
tp357
F0.008064516129032258
s(S'released'
p358
S'[[con]]'
p359
g109
tp360
F0.008064516129032258
s(S'[[det]]'
p361
S'produced'
p362
S'by'
p363
tp364
F0.008064516129032258
s(S'was'
p365
S'published'
p366
S'by'
p367
tp368
F0.008064516129032258
s(S'were'
p369
S'released'
p370
S'in'
p371
tp372
F0.008064516129032258
s(g359
g109
g110
tp373
F0.008064516129032258
s(S'[[adj]]'
p374
S'released'
p375
S'at'
p376
tp377
F0.008064516129032258
s(S'[[con]]'
p378
S'distributed'
p379
S'by'
p380
tp381
F0.008064516129032258
s(S'also'
p382
S'released'
p383
S'in'
p384
tp385
F0.008064516129032258
s(S'[[con]]'
p386
S'released'
p387
S'in'
p388
tp389
F0.008064516129032258
s(S'[[con]]'
p390
S'released'
p391
S'on'
p392
tp393
F0.008064516129032258
s(S'was'
p394
S'released'
p395
S'through'
p396
tp397
F0.008064516129032258
s(S'was'
p398
S'published'
p399
S'[[con]]'
p400
tp401
F0.008064516129032258
s(S'[[adj]]'
p402
S'released'
p403
S'on'
p404
tp405
F0.008064516129032258
s(S'be'
p406
S'produced'
p407
S'by'
p408
tp409
F0.008064516129032258
s(S'later'
p410
S'released'
p411
S'as'
p412
tp413
F0.008064516129032258
s(S'is'
p414
S'developed'
p415
S'by'
p416
tp417
F0.008064516129032258
s(S'were'
p418
S'released'
p419
S'on'
p420
tp421
F0.008064516129032258
s(S'[[adj]]'
p422
S'collaboration'
p423
S'between'
p424
tp425
F0.008064516129032258
s.