(dp0
(S'[[det]]'
p1
S'station'
p2
S'[[con]]'
p3
tp4
F0.002352941176470588
s(S'located'
p5
S'in'
p6
S'[[det]]'
p7
tp8
F0.02588235294117647
s(S'[[det]]'
p9
S'city'
p10
S'of'
p11
tp12
F0.03058823529411765
s(S'station'
p13
S'in'
p14
S'[[det]]'
p15
tp16
F0.009411764705882352
s(S'by'
p17
S'located'
p18
S'in'
p19
tp20
F0.007058823529411765
s(S'near'
p21
S'[[det]]'
p22
S'town'
p23
tp24
F0.002352941176470588
s(S'[[adj]]'
p25
S'schools'
p26
S'[[adj]]'
p27
tp28
F0.002352941176470588
s(S'[[adj]]'
p29
S'schools'
p30
S'of'
p31
tp32
F0.002352941176470588
s(S'was'
p33
S'situated'
p34
S'from'
p35
tp36
F0.002352941176470588
s(S'situated'
p37
S'in'
p38
S'[[det]]'
p39
tp40
F0.002352941176470588
s(S'now'
p41
S'located'
p42
S'at'
p43
tp44
F0.002352941176470588
s(S'[[num]]'
p45
S'schools'
p46
S'[[con]]'
p47
tp48
F0.002352941176470588
s(S'is'
p49
S'located'
p50
S'[[det]]'
p51
tp52
F0.002352941176470588
s(S'[[det]]'
p53
S'municipality'
p54
S'in'
p55
tp56
F0.002352941176470588
s(S'of'
p57
S'[[det]]'
p58
S'located'
p59
tp60
F0.002352941176470588
s(S'city'
p61
S'[[con]]'
p62
S'[[adj]]'
p63
tp64
F0.004705882352941176
s(S'[[num]]'
p65
S'km'
p66
S'from'
p67
tp68
F0.002352941176470588
s(S'[[det]]'
p69
S'commune'
p70
S'of'
p71
tp72
F0.002352941176470588
s(S'served'
p73
S'[[det]]'
p74
S'town'
p75
tp76
F0.002352941176470588
s(S'station'
p77
S'located'
p78
S'in'
p79
tp80
F0.009411764705882352
s(S'is'
p81
S'situated'
p82
S'[[adj]]'
p83
tp84
F0.002352941176470588
s(S'was'
p85
S'situated'
p86
S'between'
p87
tp88
F0.002352941176470588
s(S'[[num]]'
p89
S'station'
p90
S'in'
p91
tp92
F0.002352941176470588
s(S'serving'
p93
S'[[det]]'
p94
S'hamlet'
p95
tp96
F0.002352941176470588
s(S'was'
p97
S'situated'
p98
S'on'
p99
tp100
F0.002352941176470588
s(S'[[num]]'
p101
S'km'
p102
S'of'
p103
tp104
F0.002352941176470588
s(S'station'
p105
S'[[con]]'
p106
S'operated'
p107
tp108
F0.002352941176470588
s(S'[[con]]'
p109
S'was'
p110
S'opened'
p111
tp112
F0.004705882352941176
s(S'[[num]]'
p113
S'schools'
p114
S'from'
p115
tp116
F0.002352941176470588
s(S'railway'
p117
S'station'
p118
S'that'
p119
tp120
F0.004705882352941176
s(S'in'
p121
S'[[det]]'
p122
S'suburb'
p123
tp124
F0.002352941176470588
s(S'train'
p125
S'station'
p126
S'[[con]]'
p127
tp128
F0.002352941176470588
s(S'[[det]]'
p129
S'station'
p130
S'serving'
p131
tp132
F0.004705882352941176
s(S'station'
p133
S'built'
p134
S'[[con]]'
p135
tp136
F0.002352941176470588
s(S'is'
p137
S'situated'
p138
S'on'
p139
tp140
F0.002352941176470588
s(S'in'
p141
S'city'
p142
S'of'
p143
tp144
F0.002352941176470588
s(S'[[adj]]'
p145
S'town'
p146
S'[[con]]'
p147
tp148
F0.002352941176470588
s(S'railway'
p149
g105
g106
tp150
F0.002352941176470588
s(g14
g15
S'city'
p151
tp152
F0.023529411764705882
s(S'station'
p153
S'on'
p154
S'[[adj]]'
p155
tp156
F0.002352941176470588
s(S'be'
p157
S'located'
p158
S'in'
p159
tp160
F0.002352941176470588
s(S'[[adj]]'
p161
S'station'
p162
S'for'
p163
tp164
F0.002352941176470588
s(S'[[adj]]'
p165
S'schools'
p166
S'in'
p167
tp168
F0.002352941176470588
s(S'[[adj]]'
p169
S'located'
p170
S'in'
p171
tp172
F0.002352941176470588
s(S'was'
p173
S'situated'
p174
S'at'
p175
tp176
F0.002352941176470588
s(S'is'
p177
g37
g38
tp178
F0.002352941176470588
s(S'is'
p179
S'located'
p180
S'outside'
p181
tp182
F0.002352941176470588
s(S'census'
p183
S'town'
p184
S'in'
p185
tp186
F0.002352941176470588
s(S'[[det]]'
p187
S'suburbs'
p188
S'of'
p189
tp190
F0.002352941176470588
s(S'[[det]]'
p191
S'station'
p192
S'near'
p193
tp194
F0.002352941176470588
s(g106
g107
S'in'
p195
tp196
F0.002352941176470588
s(S'[[adj]]'
p197
S'schools'
p198
S'at'
p199
tp200
F0.002352941176470588
s(S'[[det]]'
p201
S'city'
p202
S'[[con]]'
p203
tp204
F0.009411764705882352
s(S'operated'
p205
g17
g18
tp206
F0.007058823529411765
s(S'train'
p207
g77
g78
tp208
F0.007058823529411765
s(S'station'
p209
S'operated'
p210
S'in'
p211
tp212
F0.004705882352941176
s(S'on'
p213
g5
g6
tp214
F0.004705882352941176
s(S'railway'
p215
S'station'
p216
S'located'
p217
tp218
F0.004705882352941176
s(S'[[con]]'
p219
g53
g54
tp220
F0.002352941176470588
s(S'[[num]]'
p221
S'km'
p222
S'[[con]]'
p223
tp224
F0.002352941176470588
s(g130
g131
S'[[det]]'
p225
tp226
F0.03529411764705882
s(g131
g225
S'area'
p227
tp228
F0.004705882352941176
s(S'station'
p229
S'built'
p230
S'by'
p231
tp232
F0.002352941176470588
s(g122
g123
S'of'
p233
tp234
F0.007058823529411765
s(S'[[det]]'
p235
S'[[adj]]'
p236
S'suburb'
p237
tp238
F0.002352941176470588
s(S'[[adj]]'
p239
S'suburbs'
p240
S'of'
p241
tp242
F0.002352941176470588
s(S'[[det]]'
p243
g229
g230
tp244
F0.002352941176470588
s(S'railway'
p245
S'station'
p246
S'which'
p247
tp248
F0.002352941176470588
s(S'[[det]]'
p249
S'town'
p250
S'[[det]]'
p251
tp252
F0.002352941176470588
s(S'station'
p253
g21
g22
tp254
F0.002352941176470588
s(S'[[adj]]'
p255
S'schools'
p256
S'[[det]]'
p257
tp258
F0.002352941176470588
s(S'serving'
p259
S'[[det]]'
p260
S'town'
p261
tp262
F0.01411764705882353
s(S'serving'
p263
S'[[det]]'
p264
S'suburb'
p265
tp266
F0.004705882352941176
s(S'serve'
p267
S'[[det]]'
p268
S'tracks'
p269
tp270
F0.002352941176470588
s(S'serves'
p271
S'[[det]]'
p272
S'area'
p273
tp274
F0.004705882352941176
s(S'in'
p275
g69
g70
tp276
F0.002352941176470588
s(g247
S'serves'
p277
S'[[det]]'
p278
tp279
F0.002352941176470588
s(S'station'
p280
S'serving'
p281
S'in'
p282
tp283
F0.004705882352941176
s(g154
g155
S'suburb'
p284
tp285
F0.002352941176470588
s(S'[[num]]'
p286
S'schools'
p287
S'in'
p288
tp289
F0.002352941176470588
s(S'[[det]]'
p290
g183
g184
tp291
F0.002352941176470588
s(S'serves'
p292
S'[[det]]'
p293
S'suburb'
p294
tp295
F0.002352941176470588
s(S'serves'
p296
S'[[det]]'
p297
S'city'
p298
tp299
F0.004705882352941176
s(S'[[det]]'
p300
S'town'
p301
S'[[adj]]'
p302
tp303
F0.002352941176470588
s(g62
g63
S'committee'
p304
tp305
F0.002352941176470588
s(g134
g135
S'operated'
p306
tp307
F0.002352941176470588
s(S'railway'
p308
S'stations'
p309
S'serving'
p310
tp311
F0.004705882352941176
s(S'railway'
p312
g133
g134
tp313
F0.002352941176470588
s(S'[[det]]'
p314
S'[[adj]]'
p315
S'town'
p316
tp317
F0.002352941176470588
s(S'[[det]]'
p318
S'station'
p319
S'along'
p320
tp321
F0.002352941176470588
s(S'[[adj]]'
p322
S'schools'
p323
S'for'
p324
tp325
F0.002352941176470588
s(S'is'
p326
S'situated'
p327
S'at'
p328
tp329
F0.002352941176470588
s(S'station'
p330
g213
g5
tp331
F0.004705882352941176
s(S'station'
p332
g205
g17
tp333
F0.004705882352941176
s(S'[[num]]'
p334
S'km'
p335
S'away'
p336
tp337
F0.002352941176470588
s(S'[[num]]'
p338
S'km'
p339
S'to'
p340
tp341
F0.002352941176470588
s(S'[[con]]'
p342
S'[[adj]]'
p343
S'council'
p344
tp345
F0.002352941176470588
s(S'is'
p346
S'situated'
p347
S'near'
p348
tp349
F0.002352941176470588
s(g203
S'municipality'
p350
S'in'
p351
tp352
F0.002352941176470588
s(S'[[num]]'
p353
g308
g309
tp354
F0.004705882352941176
s(S'station'
p355
g235
g236
tp356
F0.002352941176470588
s(g63
g304
S'in'
p357
tp358
F0.002352941176470588
s(S'is'
p359
S'located'
p360
S'of'
p361
tp362
F0.002352941176470588
s(S'station'
p363
S'serving'
p364
S'on'
p365
tp366
F0.002352941176470588
s(g118
g119
S'serves'
p367
tp368
F0.002352941176470588
s(S'[[adj]]'
p369
S'railway'
p370
S'station'
p371
tp372
F0.03058823529411765
s(S'[[adj]]'
p373
S'town'
p374
S'in'
p375
tp376
F0.002352941176470588
s(S'city'
p377
g219
g53
tp378
F0.002352941176470588
s(S'station'
p379
S'on'
p380
S'[[det]]'
p381
tp382
F0.02823529411764706
s(S'[[det]]'
p383
S'station'
p384
S'from'
p385
tp386
F0.002352941176470588
s(S's'
p387
S'area'
p388
S'of'
p389
tp390
F0.002352941176470588
s(S'railway'
p391
g355
g235
tp392
F0.002352941176470588
s(S'[[adj]]'
p393
S'station'
p394
S'in'
p395
tp396
F0.002352941176470588
s(g126
g127
S'located'
p397
tp398
F0.002352941176470588
s(S'village'
p399
g109
g110
tp400
F0.002352941176470588
s(g380
g381
S'operated'
p401
tp402
F0.007058823529411765
s(S'station'
p403
S'that'
p404
g73
tp405
F0.002352941176470588
s(S'[[det]]'
p406
S'town'
p407
S'in'
p408
tp409
F0.002352941176470588
s(S'stations'
p410
g259
g260
tp411
F0.002352941176470588
s(S'[[adj]]'
p412
S'area'
p413
S'[[adj]]'
p414
tp415
F0.002352941176470588
s(S'was'
p416
S'situated'
p417
S'to'
p418
tp419
F0.002352941176470588
s(g381
g401
S'in'
p420
tp421
F0.004705882352941176
s(g225
g227
S'of'
p422
tp423
F0.009411764705882352
s(g236
g237
S'of'
p424
tp425
F0.004705882352941176
s(S'[[det]]'
p426
g399
g109
tp427
F0.002352941176470588
s(S'[[det]]'
p428
S'station'
p429
S'in'
p430
tp431
F0.002352941176470588
s(S'[[det]]'
p432
S'station'
p433
S'of'
p434
tp435
F0.002352941176470588
s(S'[[adj]]'
p436
S'station'
p437
S'[[det]]'
p438
tp439
F0.002352941176470588
s(S'serves'
p440
g314
g315
tp441
F0.002352941176470588
s(S'serves'
p442
S'[[det]]'
p443
S'town'
p444
tp445
F0.009411764705882352
s(g119
g367
S'[[det]]'
p446
tp447
F0.002352941176470588
s(S'[[det]]'
p448
S'station'
p449
S'after'
p450
tp451
F0.002352941176470588
s(S'was'
p452
S'located'
p453
S'in'
p454
tp455
F0.002352941176470588
s(S'[[det]]'
p456
S'train'
p457
g13
tp458
F0.02823529411764706
s(S'station'
p459
g57
g58
tp460
F0.002352941176470588
s(g135
g306
S'by'
p461
tp462
F0.002352941176470588
s(g404
g73
g74
tp463
F0.002352941176470588
s(S'[[adj]]'
p464
S'town'
p465
S'of'
p466
tp467
F0.004705882352941176
s(S'[[adj]]'
p468
S'station'
p469
S'of'
p470
tp471
F0.002352941176470588
s(S'[[det]]'
p472
S'station'
p473
S'[[det]]'
p474
tp475
F0.002352941176470588
s(g297
g298
S'to'
p476
tp477
F0.002352941176470588
s(S'is'
p478
S'situated'
p479
S'just'
p480
tp481
F0.002352941176470588
s(S'is'
p482
S'located'
p483
S'in'
p484
tp485
F0.007058823529411765
s(S'[[det]]'
p486
S'station'
p487
S'on'
p488
tp489
F0.004705882352941176
s(S'in'
p490
S'[[det]]'
p491
S'district'
p492
tp493
F0.007058823529411765
s(S'[[det]]'
p494
S'operated'
p495
S'by'
p496
tp497
F0.002352941176470588
s(g343
g344
S'in'
p498
tp499
F0.002352941176470588
s(S'railway'
p500
S'station'
p501
S'at'
p502
tp503
F0.002352941176470588
s(S'in'
p504
S'[[det]]'
p505
S'town'
p506
tp507
F0.007058823529411765
s(g457
g13
g14
tp508
F0.004705882352941176
s(S'[[adj]]'
p509
S'schools'
p510
S'as'
p511
tp512
F0.002352941176470588
s(S'[[det]]'
p513
S'located'
p514
g121
tp515
F0.018823529411764704
s(S'serving'
p516
S'[[det]]'
p517
S'villages'
p518
tp519
F0.004705882352941176
s(g110
g111
S'by'
p520
tp521
F0.004705882352941176
s(S'railway'
p522
S'station'
p523
S'in'
p524
tp525
F0.009411764705882352
s(g517
g518
S'[[con]]'
p526
tp527
F0.002352941176470588
s(S'[[adj]]'
p528
S'station'
p529
S'on'
p530
tp531
F0.002352941176470588
s(S'train'
p532
g332
g205
tp533
F0.004705882352941176
s(S'railway'
p534
S'station'
p535
S'serving'
p536
tp537
F0.042352941176470586
s(S'of'
p538
g267
g268
tp539
F0.002352941176470588
s(S'train'
p540
S'station'
p541
S'on'
p542
tp543
F0.011764705882352941
s(S'railway'
p544
g330
g213
tp545
F0.021176470588235293
s(S'town'
p546
S'of'
p547
S'south'
p548
tp549
F0.002352941176470588
s(S'[[num]]'
p550
S'km'
p551
S'[[adj]]'
p552
tp553
F0.002352941176470588
s(S'consists'
p554
g538
g267
tp555
F0.002352941176470588
s(S'serves'
p556
S'[[det]]'
p557
S'district'
p558
tp559
F0.002352941176470588
s(g557
g558
S'of'
p560
tp561
F0.007058823529411765
s(S'on'
p562
S'[[det]]'
p563
S'city'
p564
tp565
F0.004705882352941176
s(S'[[adj]]'
p566
S'town'
p567
S'for'
p568
tp569
F0.002352941176470588
s(S'[[num]]'
p570
S'km'
p571
S'[[num]]'
p572
tp573
F0.002352941176470588
s(g370
g371
S'near'
p574
tp575
F0.004705882352941176
s(g202
g203
g350
tp576
F0.002352941176470588
s(S'[[det]]'
p577
S'area'
p578
S'in'
p579
tp580
F0.002352941176470588
s(g518
g526
S'was'
p581
tp582
F0.002352941176470588
s(S'on'
p583
g513
g514
tp584
F0.01647058823529412
s(S'station'
p585
g141
g142
tp586
F0.002352941176470588
s(S'railway'
p587
g209
g210
tp588
F0.004705882352941176
s(g94
g95
S'of'
p589
tp590
F0.002352941176470588
s(S'serving'
p591
g426
g399
tp592
F0.004705882352941176
s(g260
g261
S'of'
p593
tp594
F0.03294117647058824
s(g246
g247
g277
tp595
F0.002352941176470588
s(S'[[det]]'
p596
g500
g501
tp597
F0.08
s(S'railway'
p598
g459
g57
tp599
F0.002352941176470588
s(g264
g265
S'in'
p600
tp601
F0.002352941176470588
s(g281
g282
S'[[det]]'
p602
tp603
F0.004705882352941176
s(S'[[con]]'
p604
g442
g443
tp605
F0.002352941176470588
s(g127
g397
S'in'
p606
tp607
F0.002352941176470588
s(S'is'
p608
S'situated'
p609
S'to'
p610
tp611
F0.002352941176470588
s.