(dp0
(S'become'
p1
S'chairman'
p2
S'of'
p3
tp4
F0.008849557522123894
s(S'was'
p5
S'promoted'
p6
S'with'
p7
tp8
F0.008849557522123894
s(S'has'
p9
S'taught'
p10
S'as'
p11
tp12
F0.008849557522123894
s(S'then'
p13
S'promoted'
p14
S'at'
p15
tp16
F0.008849557522123894
s(S'also'
p17
S'taught'
p18
S'as'
p19
tp20
F0.008849557522123894
s(S'be'
p21
S'promoted'
p22
S'to'
p23
tp24
F0.008849557522123894
s(S'became'
p25
S'chairman'
p26
S'of'
p27
tp28
F0.008849557522123894
s(S'[[det]]'
p29
S'chairman'
p30
S'at'
p31
tp32
F0.008849557522123894
s(S'become'
p33
S'chairman'
p34
S'to'
p35
tp36
F0.008849557522123894
s(S'also'
p37
S'acted'
p38
S'as'
p39
tp40
F0.008849557522123894
s(S'[[det]]'
p41
S'chairman'
p42
S'in'
p43
tp44
F0.008849557522123894
s(S'[[adj]]'
p45
S'students'
p46
S'including'
p47
tp48
F0.017699115044247787
s(S'then'
p49
S'taught'
p50
S'at'
p51
tp52
F0.008849557522123894
s(S'also'
p53
S'acted'
p54
S'[[adj]]'
p55
tp56
F0.008849557522123894
s(S'also'
p57
S'chairman'
p58
S'[[det]]'
p59
tp60
F0.008849557522123894
s(S'[[det]]'
p61
S'chairman'
p62
S'[[det]]'
p63
tp64
F0.008849557522123894
s(S'had'
p65
S'taught'
p66
S'at'
p67
tp68
F0.017699115044247787
s(S'emeritus'
p69
S'prior'
p70
S'to'
p71
tp72
F0.008849557522123894
s(g46
g47
S'[[con]]'
p73
tp74
F0.017699115044247787
s(S'has'
p75
S'acted'
p76
S'as'
p77
tp78
F0.008849557522123894
s(S'[[det]]'
p79
S'chairman'
p80
S'of'
p81
tp82
F0.008849557522123894
s(S'was'
p83
S'chairman'
p84
S'to'
p85
tp86
F0.008849557522123894
s(S'has'
p87
S'taught'
p88
S'[[con]]'
p89
tp90
F0.008849557522123894
s(S'was'
p91
S'chairman'
p92
S'[[con]]'
p93
tp94
F0.008849557522123894
s(S'later'
p95
S'taught'
p96
S'[[con]]'
p97
tp98
F0.008849557522123894
s(S'was'
p99
S'promoted'
p100
S'as'
p101
tp102
F0.008849557522123894
s(S'has'
p103
S'taught'
p104
S'for'
p105
tp106
F0.008849557522123894
s(S'was'
p107
S'promoted'
p108
S'in'
p109
tp110
F0.008849557522123894
s(S'was'
p111
S'promoted'
p112
S'for'
p113
tp114
F0.008849557522123894
s(S'was'
p115
S'promoted'
p116
S'[[det]]'
p117
tp118
F0.008849557522123894
s(S'was'
p119
S'promoted'
p120
S'at'
p121
tp122
F0.008849557522123894
s(S'[[adj]]'
p123
S'chairman'
p124
S'[[con]]'
p125
tp126
F0.008849557522123894
s(S'[[det]]'
p127
S'chairman'
p128
S'on'
p129
tp130
F0.008849557522123894
s(S'also'
p131
S'taught'
p132
S'[[adj]]'
p133
tp134
F0.008849557522123894
s(S'also'
p135
S'acted'
p136
S'[[det]]'
p137
tp138
F0.008849557522123894
s(S'[[con]]'
p139
S'acted'
p140
S'in'
p141
tp142
F0.008849557522123894
s(S'also'
p143
S'chairman'
p144
S'of'
p145
tp146
F0.008849557522123894
s(S'also'
p147
S'taught'
p148
S'[[det]]'
p149
tp150
F0.008849557522123894
s(S'where'
p151
S'taught'
p152
S'in'
p153
tp154
F0.008849557522123894
s(S'[[adj]]'
p155
S'advisor'
p156
S'of'
p157
tp158
F0.008849557522123894
s(S'retired'
p159
S'professor'
p160
g69
tp161
F0.008849557522123894
s(S'then'
p162
S'taught'
p163
S'[[num]]'
p164
tp165
F0.008849557522123894
s(S'[[det]]'
p166
S'advisor'
p167
S'of'
p168
tp169
F0.008849557522123894
s(S'where'
p170
S'taught'
p171
S'at'
p172
tp173
F0.008849557522123894
s(S'[[adj]]'
p174
S'supervisor'
p175
S'of'
p176
tp177
F0.008849557522123894
s(S'also'
p178
S'acted'
p179
S'with'
p180
tp181
F0.008849557522123894
s(S'been'
p182
S'promoted'
p183
S'by'
p184
tp185
F0.008849557522123894
s(S'[[adj]]'
p186
S'advisor'
p187
S'[[con]]'
p188
tp189
F0.008849557522123894
s(S'is'
p190
S'chairman'
p191
S'[[con]]'
p192
tp193
F0.008849557522123894
s(S'as'
p194
S'chairman'
p195
S'of'
p196
tp197
F0.008849557522123894
s(S'[[adj]]'
p198
S'chairman'
p199
S'[[det]]'
p200
tp201
F0.008849557522123894
s(S'then'
p202
S'promoted'
p203
S'[[det]]'
p204
tp205
F0.008849557522123894
s(g71
S'had'
p206
S'taught'
p207
tp208
F0.008849557522123894
s(S'was'
p209
S'taught'
p210
S'at'
p211
tp212
F0.008849557522123894
s(S'also'
p213
S'taught'
p214
S'in'
p215
tp216
F0.008849557522123894
s(S'also'
p217
S'taught'
p218
S'at'
p219
tp220
F0.008849557522123894
s(S'was'
p221
S'promoted'
p222
S'[[adj]]'
p223
tp224
F0.008849557522123894
s(S'became'
p225
S'chairman'
p226
S'[[det]]'
p227
tp228
F0.008849557522123894
s(S'was'
p229
S'promoted'
p230
S'to'
p231
tp232
F0.008849557522123894
s(S'also'
p233
S'acted'
p234
S'[[con]]'
p235
tp236
F0.008849557522123894
s(S'has'
p237
S'taught'
p238
S'at'
p239
tp240
F0.008849557522123894
s(S'was'
p241
S'chairman'
p242
S'at'
p243
tp244
F0.008849557522123894
s(S'had'
p245
S'acted'
p246
S'to'
p247
tp248
F0.008849557522123894
s(S'become'
p249
S'chairman'
p250
S'[[con]]'
p251
tp252
F0.008849557522123894
s(S'also'
p253
S'promoted'
p254
S'at'
p255
tp256
F0.008849557522123894
s(S'has'
p257
S'taught'
p258
S'in'
p259
tp260
F0.008849557522123894
s(S'was'
p261
S'chairman'
p262
S'in'
p263
tp264
F0.008849557522123894
s(S'[[con]]'
p265
S'taught'
p266
S'at'
p267
tp268
F0.008849557522123894
s(S'also'
p269
S'acted'
p270
S'by'
p271
tp272
F0.008849557522123894
s(S'was'
p273
S'promoted'
p274
S'[[con]]'
p275
tp276
F0.008849557522123894
s(S'has'
p277
S'taught'
p278
S'[[det]]'
p279
tp280
F0.008849557522123894
s(S'[[con]]'
p281
S'taught'
p282
S'in'
p283
tp284
F0.008849557522123894
s(S'also'
p285
S'acted'
p286
S'to'
p287
tp288
F0.008849557522123894
s(S'were'
p289
S'promoted'
p290
S'as'
p291
tp292
F0.008849557522123894
s(S'[[det]]'
p293
S'advisor'
p294
S'to'
p295
tp296
F0.008849557522123894
s(S'has'
p297
S'taught'
p298
S'[[adj]]'
p299
tp300
F0.008849557522123894
s(S'[[con]]'
p301
S'chairman'
p302
S'of'
p303
tp304
F0.008849557522123894
s(S'was'
p305
S'chairman'
p306
S'of'
p307
tp308
F0.008849557522123894
s(S'was'
p309
S'promoted'
p310
S'when'
p311
tp312
F0.008849557522123894
s(S'then'
p313
S'taught'
p314
S'[[con]]'
p315
tp316
F0.008849557522123894
s(S'[[con]]'
p317
S'acted'
p318
S'to'
p319
tp320
F0.008849557522123894
s(S'recently'
p321
g159
g160
tp322
F0.008849557522123894
s(S'also'
p323
S'taught'
p324
S'for'
p325
tp326
F0.008849557522123894
s(S'[[det]]'
p327
S'chairman'
p328
S'[[con]]'
p329
tp330
F0.008849557522123894
s(S'became'
p331
S'chairman'
p332
S'at'
p333
tp334
F0.008849557522123894
s(S'is'
p335
S'chairman'
p336
S'of'
p337
tp338
F0.008849557522123894
s(S'[[det]]'
p339
S'chairman'
p340
S'for'
p341
tp342
F0.008849557522123894
s(S'was'
p343
S'chairman'
p344
S'[[det]]'
p345
tp346
F0.008849557522123894
s(S'is'
p347
S'taught'
p348
S'at'
p349
tp350
F0.008849557522123894
s(S'also'
p351
S'taught'
p352
S'to'
p353
tp354
F0.008849557522123894
s(S'[[det]]'
p355
S'advisor'
p356
S'[[con]]'
p357
tp358
F0.008849557522123894
s(g160
g69
g70
tp359
F0.008849557522123894
s(S'was'
p360
S'chairman'
p361
S'on'
p362
tp363
F0.008849557522123894
s(S'had'
p364
S'acted'
p365
S'as'
p366
tp367
F0.008849557522123894
s(S'then'
p368
S'promoted'
p369
S'to'
p370
tp371
F0.008849557522123894
s(S'was'
p372
S'promoted'
p373
S'from'
p374
tp375
F0.008849557522123894
s(g70
g71
g206
tp376
F0.008849557522123894
s(S'later'
p377
S'taught'
p378
S'at'
p379
tp380
F0.008849557522123894
s(S'[[adj]]'
p381
S'advisor'
p382
S'to'
p383
tp384
F0.008849557522123894
s(S'first'
p385
S'taught'
p386
S'at'
p387
tp388
F0.008849557522123894
s(S'[[con]]'
p389
S'acted'
p390
S'as'
p391
tp392
F0.008849557522123894
s(S'also'
p393
S'taught'
p394
S'[[con]]'
p395
tp396
F0.008849557522123894
s(S'is'
p397
S'chairman'
p398
S'[[det]]'
p399
tp400
F0.008849557522123894
s(S'[[adj]]'
p401
S'chairman'
p402
S'of'
p403
tp404
F0.008849557522123894
s(S'been'
p405
S'promoted'
p406
S'to'
p407
tp408
F0.008849557522123894
s(S'[[adj]]'
p409
S'chairman'
p410
S'at'
p411
tp412
F0.008849557522123894
s(S'[[det]]'
p413
S'supervisor'
p414
S'of'
p415
tp416
F0.008849557522123894
s(S'also'
p417
S'acted'
p418
S'at'
p419
tp420
F0.008849557522123894
s(S'became'
p421
S'chairman'
p422
S'on'
p423
tp424
F0.008849557522123894
s(S'has'
p425
S'acted'
p426
S'with'
p427
tp428
F0.008849557522123894
s.