(dp0
(S'earned'
p1
S'[[det]]'
p2
S'bachelor'
p3
tp4
F0.006102522375915379
s(S'earn'
p5
S'degree'
p6
S'at'
p7
tp8
F0.0004068348250610252
s(S'[[det]]'
p9
S'economics'
p10
S'degree'
p11
tp12
F0.0004068348250610252
s(S'then'
p13
S'president'
p14
S'[[det]]'
p15
tp16
F0.0004068348250610252
s(S'currently'
p17
S'professor'
p18
S'[[con]]'
p19
tp20
F0.0004068348250610252
s(S'in'
p21
S'where'
p22
S'attended'
p23
tp24
F0.0012205044751830757
s(S'born'
p25
S'[[con]]'
p26
S'received'
p27
tp28
F0.0032546786004882017
s(S'also'
p29
S'studied'
p30
S'[[con]]'
p31
tp32
F0.0004068348250610252
s(S'then'
p33
S'earned'
p34
S'from'
p35
tp36
F0.0004068348250610252
s(S'was'
p37
S'transferred'
p38
S'by'
p39
tp40
F0.0004068348250610252
s(S'has'
p41
S'taught'
p42
S'as'
p43
tp44
F0.0004068348250610252
s(S'then'
p45
S'returned'
p46
S'in'
p47
tp48
F0.0004068348250610252
s(S'has'
p49
S'completed'
p50
S'at'
p51
tp52
F0.0004068348250610252
s(S'attended'
p53
S'graduating'
p54
S'in'
p55
tp56
F0.0004068348250610252
s(S'was'
p57
S'admitted'
p58
S'at'
p59
tp60
F0.0004068348250610252
s(S'was'
p61
S'educated'
p62
S'school'
p63
tp64
F0.0004068348250610252
s(S'[[con]]'
p65
S'attended'
p66
S'[[det]]'
p67
tp68
F0.0024410089503661514
s(S'then'
p69
S'studied'
p70
S'[[con]]'
p71
tp72
F0.0004068348250610252
s(S'[[det]]'
p73
S'year'
p74
S'as'
p75
tp76
F0.0004068348250610252
s(S'school'
p77
S'[[con]]'
p78
S'attended'
p79
tp80
F0.0004068348250610252
s(S'also'
p81
S'received'
p82
S'[[num]]'
p83
tp84
F0.0004068348250610252
s(S'[[adj]]'
p85
S'year'
p86
S'[[num]]'
p87
tp88
F0.0004068348250610252
s(S'while'
p89
S'moved'
p90
S'to'
p91
tp92
F0.0004068348250610252
s(S'[[con]]'
p93
S'received'
p94
S'[[det]]'
p95
tp96
F0.007729861676159479
s(S'has'
p97
S'studied'
p98
S'from'
p99
tp100
F0.0004068348250610252
s(S'born'
p101
S'[[num]]'
p102
S'was'
p103
tp104
F0.0008136696501220504
s(S'attended'
p105
S'[[con]]'
p106
S'graduated'
p107
tp108
F0.0032546786004882017
s(S'be'
p109
S'transferred'
p110
S'to'
p111
tp112
F0.0004068348250610252
s(S'becoming'
p113
S'president'
p114
S'of'
p115
tp116
F0.0004068348250610252
s(S'became'
p117
S'director'
p118
S'[[det]]'
p119
tp120
F0.0004068348250610252
s(S'educated'
p121
S'at'
p122
S'school'
p123
tp124
F0.0008136696501220504
s(S'then'
p125
S'attended'
p126
S'in'
p127
tp128
F0.0004068348250610252
s(S'received'
p129
S'[[adj]]'
p130
S'education'
p131
tp132
F0.0004068348250610252
s(S'[[adj]]'
p133
S'student'
p134
S'at'
p135
tp136
F0.0004068348250610252
s(S'had'
p137
S'obtained'
p138
S'from'
p139
tp140
F0.0004068348250610252
s(S'then'
p141
S'graduated'
p142
S'from'
p143
tp144
F0.0012205044751830757
s(S'also'
p145
S'holds'
p146
S'in'
p147
tp148
F0.0004068348250610252
s(S'[[con]]'
p149
S'teaches'
p150
S'at'
p151
tp152
F0.0004068348250610252
s(S'earned'
p153
S'[[det]]'
p154
S'law'
p155
tp156
F0.0028478437754271765
s(S'had'
p157
S'attended'
p158
S'[[con]]'
p159
tp160
F0.0004068348250610252
s(S'[[con]]'
p161
S'served'
p162
S'with'
p163
tp164
F0.0004068348250610252
s(S's'
p165
S'[[prp]]'
p166
S'master'
p167
tp168
F0.0004068348250610252
s(S'earned'
p169
S'[[prp]]'
p170
S'bachelor'
p171
tp172
F0.005695687550854353
s(S'[[det]]'
p173
S'school'
p174
S'at'
p175
tp176
F0.0008136696501220504
s(S'born'
p177
S'attended'
p178
S'[[det]]'
p179
tp180
F0.0004068348250610252
s(S'[[prp]]'
p181
S'degree'
p182
S'[[con]]'
p183
tp184
F0.0004068348250610252
s(S'attended'
p185
S'graduating'
p186
S'from'
p187
tp188
F0.0004068348250610252
s(S'also'
p189
S'attended'
p190
S'now'
p191
tp192
F0.0004068348250610252
s(S'who'
p193
S'served'
p194
S'with'
p195
tp196
F0.0004068348250610252
s(S'where'
p197
S'served'
p198
S'with'
p199
tp200
F0.0004068348250610252
s(S'is'
p201
S'taught'
p202
S'at'
p203
tp204
F0.0004068348250610252
s(S'[[det]]'
p205
S'pupil'
p206
S'at'
p207
tp208
F0.0004068348250610252
s(S'later'
p209
S'studied'
p210
S'at'
p211
tp212
F0.0004068348250610252
s(S'then'
p213
S'graduated'
p214
S'in'
p215
tp216
F0.0004068348250610252
s(S'[[con]]'
p217
S'educated'
p218
S'first'
p219
tp220
F0.0004068348250610252
s(S'is'
p221
S'admitted'
p222
S'in'
p223
tp224
F0.0004068348250610252
s(S'received'
p225
S'[[prp]]'
p226
S'doctorate'
p227
tp228
F0.0024410089503661514
s(S'[[det]]'
p229
S'moved'
p230
S'to'
p231
tp232
F0.0004068348250610252
s(S'was'
p233
S'awarded'
p234
S'to'
p235
tp236
F0.0004068348250610252
s(S'was'
p237
S'president'
p238
S'[[det]]'
p239
tp240
F0.0004068348250610252
s(S'also'
p241
S'served'
p242
S'as'
p243
tp244
F0.0004068348250610252
s(g165
S'degree'
p245
S'[[det]]'
p246
tp247
F0.0016273393002441008
s(S'attended'
p248
S'[[con]]'
p249
S'was'
p250
tp251
F0.0004068348250610252
s(S'was'
p252
S'returned'
p253
S'by'
p254
tp255
F0.0004068348250610252
s(S'earned'
p256
S'[[prp]]'
p257
S'law'
p258
tp259
F0.0020341741253051262
s(S'moved'
p260
S'where'
p261
S'was'
p262
tp263
F0.0004068348250610252
s(S'been'
p264
S'admitted'
p265
S'to'
p266
tp267
F0.0004068348250610252
s(S'has'
p268
S'completed'
p269
S'[[det]]'
p270
tp271
F0.0004068348250610252
s(S'[[adj]]'
p272
S'professor'
p273
S'of'
p274
tp275
F0.0004068348250610252
s(S'[[det]]'
p276
S'degree'
p277
S'as'
p278
tp279
F0.0008136696501220504
s(S'is'
p280
S'president'
p281
S'[[det]]'
p282
tp283
F0.0004068348250610252
s(S'[[adj]]'
p284
S'director'
p285
S'[[con]]'
p286
tp287
F0.0004068348250610252
s(S'also'
p288
S'completed'
p289
S'at'
p290
tp291
F0.0004068348250610252
s(S'[[con]]'
p292
S'was'
p293
S'educated'
p294
tp295
F0.0024410089503661514
s(S'[[det]]'
p296
S'bachelor'
p297
S'in'
p298
tp299
F0.0004068348250610252
s(S'has'
p300
S'served'
p301
S'[[con]]'
p302
tp303
F0.0004068348250610252
s(S'[[det]]'
p304
S'year'
p305
S'at'
p306
tp307
F0.0012205044751830757
s(S'[[con]]'
p308
S'later'
p309
S'attended'
p310
tp311
F0.0012205044751830757
s(S'was'
p312
S'admitted'
p313
S'[[det]]'
p314
tp315
F0.0004068348250610252
s(S'when'
p316
S'moved'
p317
S'from'
p318
tp319
F0.0004068348250610252
s(S'[[det]]'
p320
S'[[adj]]'
p321
S'science'
p322
tp323
F0.0004068348250610252
s(S'[[adj]]'
p324
S'education'
p325
S'at'
p326
tp327
F0.0024410089503661514
s(S'earned'
p328
S'[[pro]]'
p329
S'[[adj]]'
p330
tp331
F0.0004068348250610252
s(S'[[con]]'
p332
S'director'
p333
S'of'
p334
tp335
F0.0004068348250610252
s(g165
S'[[det]]'
p336
S'law'
p337
tp338
F0.0008136696501220504
s(S'was'
p339
S'born'
p340
S'where'
p341
tp342
F0.0012205044751830757
s(S'[[mod]]'
p343
S'study'
p344
S'at'
p345
tp346
F0.0004068348250610252
s(S'moved'
p347
g292
g293
tp348
F0.0004068348250610252
s(g165
S'degrees'
p349
S'from'
p350
tp351
F0.0024410089503661514
s(S'also'
p352
S'taught'
p353
S'[[det]]'
p354
tp355
F0.0004068348250610252
s(S'degree'
p356
S'[[con]]'
p357
S'[[prp]]'
p358
tp359
F0.0004068348250610252
s(S'had'
p360
S'admitted'
p361
S'to'
p362
tp363
F0.0004068348250610252
s(S'[[adj]]'
p364
S'doctorate'
p365
S'from'
p366
tp367
F0.0024410089503661514
s(S'born'
p368
S'in'
p369
S'[[con]]'
p370
tp371
F0.0008136696501220504
s(S'was'
p372
S'president'
p373
S'of'
p374
tp375
F0.0004068348250610252
s(S'also'
p376
S'studied'
p377
S'[[adj]]'
p378
tp379
F0.0004068348250610252
s(S'[[con]]'
p380
S'returned'
p381
S'in'
p382
tp383
F0.0004068348250610252
s(S'then'
p384
S'moved'
p385
S'[[num]]'
p386
tp387
F0.0004068348250610252
s(S'received'
p388
S'[[prp]]'
p389
S'master'
p390
tp391
F0.0016273393002441008
s(g341
S'attended'
p392
S'[[con]]'
p393
tp394
F0.0004068348250610252
s(S'then'
p395
S'attended'
p396
S'[[adj]]'
p397
tp398
F0.0004068348250610252
s(g165
S'degrees'
p399
S'[[con]]'
p400
tp401
F0.0008136696501220504
s(S'earned'
p402
S'[[con]]'
p403
S'[[det]]'
p404
tp405
F0.0004068348250610252
s(S'is'
p406
S'director'
p407
S'for'
p408
tp409
F0.0004068348250610252
s(S'again'
p410
S'returned'
p411
S'[[con]]'
p412
tp413
F0.0004068348250610252
s(S'[[det]]'
p414
S'professor'
p415
S'for'
p416
tp417
F0.0004068348250610252
s(S'was'
p418
S'returned'
p419
S'[[con]]'
p420
tp421
F0.0004068348250610252
s(S'degree'
p422
S'[[con]]'
p423
S'received'
p424
tp425
F0.0012205044751830757
s(S'[[con]]'
p426
S'[[det]]'
p427
S'master'
p428
tp429
F0.0020341741253051262
s(S'[[det]]'
p430
S'[[adj]]'
p431
S'school'
p432
tp433
F0.0020341741253051262
s(S'also'
p434
S'received'
p435
S'in'
p436
tp437
F0.0004068348250610252
s(g165
S'[[con]]'
p438
S'master'
p439
tp440
F0.003661513425549227
s(S'degree'
p441
S'[[con]]'
p442
S'degree'
p443
tp444
F0.0008136696501220504
s(S'later'
p445
S'moved'
p446
S'at'
p447
tp448
F0.0004068348250610252
s(S'got'
p449
S'[[prp]]'
p450
S'[[adj]]'
p451
tp452
F0.0004068348250610252
s(S'was'
p453
S'appointed'
p454
S'from'
p455
tp456
F0.0004068348250610252
s(S'[[adj]]'
p457
S'professor'
p458
S'[[det]]'
p459
tp460
F0.0004068348250610252
s(S'is'
p461
S'director'
p462
S'[[det]]'
p463
tp464
F0.0004068348250610252
s(S'attended'
p465
S'graduating'
p466
S'[[con]]'
p467
tp468
F0.0004068348250610252
s(S'be'
p469
S'awarded'
p470
S'by'
p471
tp472
F0.0004068348250610252
s(S'also'
p473
S'completed'
p474
S'[[prp]]'
p475
tp476
F0.0004068348250610252
s(S'[[det]]'
p477
S'study'
p478
S'of'
p479
tp480
F0.0004068348250610252
s(S'[[adj]]'
p481
S'served'
p482
S'on'
p483
tp484
F0.0004068348250610252
s(S'[[num]]'
p485
S'degrees'
p486
S'from'
p487
tp488
F0.0004068348250610252
s(S'also'
p489
S'earned'
p490
S'from'
p491
tp492
F0.0004068348250610252
s(S'born'
p493
S'was'
p494
S'educated'
p495
tp496
F0.0008136696501220504
s(S'[[num]]'
p497
S'served'
p498
S'as'
p499
tp500
F0.0004068348250610252
s(S'was'
p501
S'educated'
p502
S'there'
p503
tp504
F0.0004068348250610252
s(S'[[det]]'
p505
S'professor'
p506
S'[[con]]'
p507
tp508
F0.0004068348250610252
s(S'obtained'
p509
S'degree'
p510
S'from'
p511
tp512
F0.0008136696501220504
s(S'where'
p513
S'served'
p514
S'in'
p515
tp516
F0.0004068348250610252
s(S'was'
p517
S'returned'
p518
S'in'
p519
tp520
F0.0004068348250610252
s(S'[[con]]'
p521
S'completed'
p522
S'at'
p523
tp524
F0.0004068348250610252
s(S'[[con]]'
p525
S'received'
p526
S'from'
p527
tp528
F0.0028478437754271765
s(S'been'
p529
S'president'
p530
S'[[det]]'
p531
tp532
F0.0004068348250610252
s(S'also'
p533
S'served'
p534
S'with'
p535
tp536
F0.0004068348250610252
s(S'[[adj]]'
p537
S'given'
p538
S'by'
p539
tp540
F0.0004068348250610252
s(S'bachelor'
p541
S'degree'
p542
S'at'
p543
tp544
F0.0004068348250610252
s(S'to'
p545
S'study'
p546
S'under'
p547
tp548
F0.0004068348250610252
s(g106
g107
S'[[con]]'
p549
tp550
F0.0004068348250610252
s(S'then'
p551
S'moved'
p552
S'in'
p553
tp554
F0.0004068348250610252
s(S'[[adj]]'
p555
S'professor'
p556
S'in'
p557
tp558
F0.0004068348250610252
s(S'at'
p559
S'[[adj]]'
p560
S'school'
p561
tp562
F0.0008136696501220504
s(S'received'
p563
S'[[det]]'
p564
S'doctorate'
p565
tp566
F0.0008136696501220504
s(S'was'
p567
S'professor'
p568
S'of'
p569
tp570
F0.0004068348250610252
s(S'where'
p571
S'entered'
p572
S'[[det]]'
p573
tp574
F0.0004068348250610252
s(S'later'
p575
S'received'
p576
S'in'
p577
tp578
F0.0004068348250610252
s(S'[[det]]'
p579
S'graduated'
p580
S'from'
p581
tp582
F0.0004068348250610252
s(S'then'
p583
S'returned'
p584
S'to'
p585
tp586
F0.0004068348250610252
s(g122
g123
S'[[con]]'
p587
tp588
F0.0004068348250610252
s(S'as'
p589
S'president'
p590
S'of'
p591
tp592
F0.0004068348250610252
s(S'soon'
p593
S'transferred'
p594
S'to'
p595
tp596
F0.0004068348250610252
s(S'later'
p597
S'received'
p598
S'at'
p599
tp600
F0.0004068348250610252
s(S'when'
p601
S'entered'
p602
S'[[det]]'
p603
tp604
F0.0004068348250610252
s(S'[[det]]'
p605
S'alumnus'
p606
S'of'
p607
tp608
F0.0004068348250610252
s(S'attended'
p609
S'school'
p610
S'at'
p611
tp612
F0.0004068348250610252
s(S'have'
p613
S'studied'
p614
S'at'
p615
tp616
F0.0004068348250610252
s(S'[[con]]'
p617
S'earned'
p618
S'[[prp]]'
p619
tp620
F0.0016273393002441008
s(S'served'
p621
S'based'
p622
S'at'
p623
tp624
F0.0004068348250610252
s(S'also'
p625
S'teaches'
p626
S'in'
p627
tp628
F0.0004068348250610252
s(S'[[det]]'
p629
S'received'
p630
S'from'
p631
tp632
F0.0004068348250610252
s(g403
g404
S'degree'
p633
tp634
F0.0008136696501220504
s(S'received'
p635
S'[[det]]'
p636
S'bachelor'
p637
tp638
F0.010577705451586655
s(S'was'
p639
S'transferred'
p640
S'[[con]]'
p641
tp642
F0.0004068348250610252
s(S'were'
p643
S'awarded'
p644
S'from'
p645
tp646
F0.0004068348250610252
s(S'to'
p647
S'attend'
p648
S'at'
p649
tp650
F0.0004068348250610252
s(S'later'
p651
S'graduated'
p652
S'in'
p653
tp654
F0.0004068348250610252
s(S'then'
p655
S'served'
p656
S'before'
p657
tp658
F0.0004068348250610252
s(S'professor'
p659
S'emeritus'
p660
S'prior'
p661
tp662
F0.0004068348250610252
s(S'also'
p663
S'teaches'
p664
S'at'
p665
tp666
F0.0004068348250610252
s(S'received'
p667
S'[[con]]'
p668
S'attended'
p669
tp670
F0.0008136696501220504
s(S'has'
p671
S'served'
p672
S'[[adj]]'
p673
tp674
F0.0004068348250610252
s(S'is'
p675
S'appointed'
p676
S'in'
p677
tp678
F0.0004068348250610252
s(S'also'
p679
g153
g154
tp680
F0.0024410089503661514
s(S'was'
p681
S'graduated'
p682
S'[[con]]'
p683
tp684
F0.0008136696501220504
s(S'later'
p685
S'received'
p686
S'degree'
p687
tp688
F0.0004068348250610252
s(S'also'
p689
S'received'
p690
S'to'
p691
tp692
F0.0004068348250610252
s(S'was'
p693
S'obtained'
p694
S'by'
p695
tp696
F0.0004068348250610252
s(S'again'
p697
S'served'
p698
S'with'
p699
tp700
F0.0004068348250610252
s(S'[[adj]]'
p701
S'awarded'
p702
S'by'
p703
tp704
F0.0004068348250610252
s(S'[[det]]'
p705
S'before'
p706
S'graduating'
p707
tp708
F0.0004068348250610252
s(S'had'
p709
S'received'
p710
S'[[det]]'
p711
tp712
F0.0008136696501220504
s(S'who'
p713
S'attended'
p714
S'[[det]]'
p715
tp716
F0.0004068348250610252
s(S'[[con]]'
p717
S'professor'
p718
S'at'
p719
tp720
F0.0008136696501220504
s(S'degree'
p721
S'[[con]]'
p722
S'master'
p723
tp724
F0.0004068348250610252
s(S'served'
p725
S'[[con]]'
p726
S'was'
p727
tp728
F0.0004068348250610252
s(S'also'
p729
S'served'
p730
S'[[det]]'
p731
tp732
F0.0004068348250610252
s(S'[[det]]'
p733
S'bachelor'
p734
S'from'
p735
tp736
F0.0008136696501220504
s(S'degree'
p737
S'in'
p738
S'economics'
p739
tp740
F0.0016273393002441008
s(S'in'
p741
S'[[adj]]'
p742
S'engineering'
p743
tp744
F0.0008136696501220504
s(S'had'
p745
S'served'
p746
S'to'
p747
tp748
F0.0004068348250610252
s(S'studied'
p749
S'[[adj]]'
p750
S'chemistry'
p751
tp752
F0.0004068348250610252
s(g10
g11
S'from'
p753
tp754
F0.0004068348250610252
s(S'was'
p755
S'transferred'
p756
S'to'
p757
tp758
F0.0004068348250610252
s(S'born'
p759
S'[[con]]'
p760
S'educated'
p761
tp762
F0.0016273393002441008
s(S'[[prp]]'
p763
S'studies'
p764
S'at'
p765
tp766
F0.0020341741253051262
s(S'as'
p767
S'professor'
p768
S'in'
p769
tp770
F0.0004068348250610252
s(S'then'
p771
S'moved'
p772
S'for'
p773
tp774
F0.0004068348250610252
s(S'[[det]]'
p775
S'director'
p776
S'at'
p777
tp778
F0.0004068348250610252
s(S'received'
p779
S'[[det]]'
p780
S'[[prp]]'
p781
tp782
F0.0004068348250610252
s(S'[[det]]'
p783
S'professor'
p784
S'at'
p785
tp786
F0.0004068348250610252
s(S'being'
p787
S'transferred'
p788
S'to'
p789
tp790
F0.0004068348250610252
s(S'later'
p791
S'transferred'
p792
S'to'
p793
tp794
F0.0004068348250610252
s(S'[[det]]'
p795
S'professor'
p796
S'[[det]]'
p797
tp798
F0.0004068348250610252
s(S'then'
p799
S'graduated'
p800
S'at'
p801
tp802
F0.0004068348250610252
s(S'been'
p803
S'given'
p804
S'[[det]]'
p805
tp806
F0.0004068348250610252
s(S'[[adj]]'
p807
S'study'
p808
S'of'
p809
tp810
F0.0004068348250610252
s(S'which'
p811
S'returned'
p812
S'to'
p813
tp814
F0.0004068348250610252
s(S'then'
p815
S'received'
p816
S'from'
p817
tp818
F0.0004068348250610252
s(S'spent'
p819
S'[[num]]'
p820
S'year'
p821
tp822
F0.0020341741253051262
s(S'has'
p823
S'received'
p824
S'[[det]]'
p825
tp826
F0.0012205044751830757
s(S'then'
p827
S'transferred'
p828
S'[[con]]'
p829
tp830
F0.0004068348250610252
s(S'to'
p831
S'attend'
p832
S'[[det]]'
p833
tp834
F0.0004068348250610252
s(S'also'
p835
S'received'
p836
S'[[con]]'
p837
tp838
F0.0004068348250610252
s(S'then'
p839
S'completed'
p840
S'[[adj]]'
p841
tp842
F0.0004068348250610252
s(S'[[det]]'
p843
S'degree'
p844
S'at'
p845
tp846
F0.003661513425549227
s(S'completed'
p847
S'[[adj]]'
p848
S'studies'
p849
tp850
F0.0020341741253051262
s(S'[[con]]'
p851
S'holds'
p852
S'from'
p853
tp854
F0.0004068348250610252
s(S'[[con]]'
p855
S'also'
p856
S'attended'
p857
tp858
F0.0008136696501220504
s(S'attended'
p859
S'where'
p860
S'received'
p861
tp862
F0.0004068348250610252
s(S'also'
p863
S'completed'
p864
S'from'
p865
tp866
F0.0004068348250610252
s(g329
g330
S'degree'
p867
tp868
F0.0012205044751830757
s(S'[[det]]'
p869
S'degree'
p870
S'[[num]]'
p871
tp872
F0.0004068348250610252
s(S'attended'
p873
S'then'
p874
S'graduated'
p875
tp876
F0.0004068348250610252
s(S'was'
p877
S'director'
p878
S'[[det]]'
p879
tp880
F0.0004068348250610252
s(S'[[con]]'
p881
S'continued'
p882
S'[[prp]]'
p883
tp884
F0.0004068348250610252
s(S'also'
p885
S'director'
p886
S'of'
p887
tp888
F0.0004068348250610252
s(S'received'
p889
S'[[pro]]'
p890
S'degree'
p891
tp892
F0.0004068348250610252
s(S'[[adj]]'
p893
S'director'
p894
S'[[det]]'
p895
tp896
F0.0004068348250610252
s(S'was'
p897
S'enrolled'
p898
S'in'
p899
tp900
F0.0004068348250610252
s(S'was'
p901
S'moved'
p902
S'to'
p903
tp904
F0.0004068348250610252
s(S'received'
p905
S'degree'
p906
S'in'
p907
tp908
F0.0004068348250610252
s(S'has'
p909
S'received'
p910
S'at'
p911
tp912
F0.0004068348250610252
s(S'then'
p913
S'served'
p914
S'to'
p915
tp916
F0.0004068348250610252
s(S'people'
p917
S'who'
p918
S'confirmed'
p919
tp920
F0.0004068348250610252
s(S'first'
p921
S'served'
p922
S'in'
p923
tp924
F0.0004068348250610252
s(g165
S'degree'
p925
S'from'
p926
tp927
F0.020748576078112285
s(S'[[adj]]'
p928
S'president'
p929
S'for'
p930
tp931
F0.0004068348250610252
s(S'then'
p932
S'obtained'
p933
S'[[prp]]'
p934
tp935
F0.0004068348250610252
s(S'first'
p936
S'taught'
p937
S'at'
p938
tp939
F0.0004068348250610252
s(S'earned'
p940
g9
g10
tp941
F0.0004068348250610252
s(S'undergraduate'
p942
S'degree'
p943
S'in'
p944
tp945
F0.0004068348250610252
s(S'also'
p946
S'graduated'
p947
S'in'
p948
tp949
F0.0004068348250610252
s(S'[[con]]'
p950
S'educated'
p951
S'[[con]]'
p952
tp953
F0.0004068348250610252
s(S'then'
p954
S'moved'
p955
S'[[con]]'
p956
tp957
F0.0004068348250610252
s(S'later'
p958
S'moved'
p959
S'with'
p960
tp961
F0.0004068348250610252
s(S'bachelor'
p962
g165
S'degrees'
p963
tp964
F0.0004068348250610252
s(S'[[adj]]'
p965
S'professor'
p966
g717
tp967
F0.0008136696501220504
s(S'obtained'
p968
S'[[det]]'
p969
S'[[adj]]'
p970
tp971
F0.0008136696501220504
s(S'is'
p972
S'professor'
p973
S'of'
p974
tp975
F0.0004068348250610252
s(S'[[det]]'
p976
S'professor'
p977
S'in'
p978
tp979
F0.0004068348250610252
s(S'also'
p980
S'graduated'
p981
S'at'
p982
tp983
F0.0004068348250610252
s(S'later'
p984
S'graduating'
p985
S'from'
p986
tp987
F0.0004068348250610252
s(S'soon'
p988
S'moved'
p989
S'on'
p990
tp991
F0.0004068348250610252
s(S'got'
p992
S'[[prp]]'
p993
S'education'
p994
tp995
F0.0008136696501220504
s(S'earned'
p996
S'degree'
p997
S'at'
p998
tp999
F0.0004068348250610252
s(S'was'
p1000
S'given'
p1001
S'[[num]]'
p1002
tp1003
F0.0004068348250610252
s(S'[[con]]'
p1004
S'holds'
p1005
S'[[adj]]'
p1006
tp1007
F0.0004068348250610252
s(S'had'
p1008
S'transferred'
p1009
S'from'
p1010
tp1011
F0.0004068348250610252
s(g165
S'degree'
p1012
S'at'
p1013
tp1014
F0.0040683482506102524
s(S'[[con]]'
p1015
S'attended'
p1016
S'in'
p1017
tp1018
F0.0004068348250610252
s(S'then'
p1019
S'served'
p1020
S'on'
p1021
tp1022
F0.0004068348250610252
s(S'to'
p1023
S'earn'
p1024
S'degree'
p1025
tp1026
F0.0008136696501220504
s(S'obtained'
p1027
S'degree'
p1028
S'[[con]]'
p1029
tp1030
F0.0004068348250610252
s(S'[[con]]'
p1031
S'professor'
p1032
S'[[det]]'
p1033
tp1034
F0.0004068348250610252
s(g358
S'doctorate'
p1035
S'from'
p1036
tp1037
F0.0012205044751830757
s(S'is'
p1038
S'appointed'
p1039
S'to'
p1040
tp1041
F0.0004068348250610252
s(S'[[num]]'
p1042
g917
g918
tp1043
F0.0004068348250610252
s(S'where'
p1044
S'enrolled'
p1045
S'in'
p1046
tp1047
F0.0004068348250610252
s(S'received'
p1048
S'[[con]]'
p1049
S'[[adj]]'
p1050
tp1051
F0.0008136696501220504
s(S'was'
p1052
S'professor'
p1053
S'[[con]]'
p1054
tp1055
F0.0004068348250610252
s(S'was'
p1056
S'director'
p1057
S'at'
p1058
tp1059
F0.0004068348250610252
s(S'again'
p1060
S'moved'
p1061
S'to'
p1062
tp1063
F0.0004068348250610252
s(S'has'
p1064
S'served'
p1065
S'with'
p1066
tp1067
F0.0004068348250610252
s(S'[[pro]]'
p1068
S'served'
p1069
S'in'
p1070
tp1071
F0.0004068348250610252
s(S'[[det]]'
p1072
S'associate'
p1073
g165
tp1074
F0.0008136696501220504
s(S'where'
p1075
S'enrolled'
p1076
S'at'
p1077
tp1078
F0.0004068348250610252
s(S'also'
p1079
S'graduated'
p1080
S'from'
p1081
tp1082
F0.0004068348250610252
s(S'has'
p1083
S'studied'
p1084
S'at'
p1085
tp1086
F0.0004068348250610252
s(S'then'
p1087
S'served'
p1088
S'[[det]]'
p1089
tp1090
F0.0004068348250610252
s(S'later'
p1091
S'attended'
p1092
S'now'
p1093
tp1094
F0.0004068348250610252
s(S'then'
p1095
S'moved'
p1096
S'then'
p1097
tp1098
F0.0004068348250610252
s(S'attended'
p1099
S'[[con]]'
p1100
S'then'
p1101
tp1102
F0.0004068348250610252
s(S'masters'
p1103
S'degree'
p1104
S'from'
p1105
tp1106
F0.0004068348250610252
s(S'also'
p1107
S'teaches'
p1108
S'[[det]]'
p1109
tp1110
F0.0004068348250610252
s(S'[[det]]'
p1111
S'[[adj]]'
p1112
S'doctorate'
p1113
tp1114
F0.0040683482506102524
s(S'be'
p1115
S'awarded'
p1116
S'[[det]]'
p1117
tp1118
F0.0004068348250610252
s(S'became'
p1119
S'president'
p1120
S'[[det]]'
p1121
tp1122
F0.0004068348250610252
s(S'later'
p1123
S'served'
p1124
S'from'
p1125
tp1126
F0.0004068348250610252
s(S'[[con]]'
p1127
S'earned'
p1128
S'at'
p1129
tp1130
F0.0004068348250610252
s(S'raised'
p1131
S'where'
p1132
S'attended'
p1133
tp1134
F0.0004068348250610252
s(S'to'
p1135
S'study'
p1136
S'with'
p1137
tp1138
F0.0004068348250610252
s(S'later'
p1139
S'obtained'
p1140
S'from'
p1141
tp1142
F0.0004068348250610252
s(S'formerly'
p1143
S'served'
p1144
S'to'
p1145
tp1146
F0.0004068348250610252
s(S'received'
p1147
S'[[det]]'
p1148
S'[[con]]'
p1149
tp1150
F0.0004068348250610252
s(S'educated'
p1151
g559
g560
tp1152
F0.0008136696501220504
s(S'was'
p1153
S'awarded'
p1154
S'from'
p1155
tp1156
F0.0004068348250610252
s(S'was'
p1157
S'born'
p1158
S'was'
p1159
tp1160
F0.0004068348250610252
s(S'then'
p1161
S'returned'
p1162
S'for'
p1163
tp1164
F0.0004068348250610252
s(S'[[adj]]'
p1165
S'transferred'
p1166
S'to'
p1167
tp1168
F0.0004068348250610252
s(S'[[det]]'
p1169
S'law'
p1170
S'degree'
p1171
tp1172
F0.006102522375915379
s(S'also'
p1173
S'taught'
p1174
S'as'
p1175
tp1176
F0.0004068348250610252
s(S'[[det]]'
p1177
S'student'
p1178
S'at'
p1179
tp1180
F0.0004068348250610252
s(S'also'
p1181
S'teaches'
p1182
S'[[con]]'
p1183
tp1184
F0.0004068348250610252
s(S'also'
p1185
S'president'
p1186
S'[[det]]'
p1187
tp1188
F0.0004068348250610252
s(S'born'
p1189
S'in'
p1190
S'attended'
p1191
tp1192
F0.0004068348250610252
s(S'[[num]]'
p1193
S'degrees'
p1194
S'[[num]]'
p1195
tp1196
F0.0004068348250610252
s(S'studied'
p1197
S'chemistry'
p1198
S'[[con]]'
p1199
tp1200
F0.0004068348250610252
s(S'was'
p1201
S'graduated'
p1202
S'in'
p1203
tp1204
F0.0004068348250610252
s(S'was'
p1205
S'director'
p1206
S'of'
p1207
tp1208
F0.0004068348250610252
s(S'had'
p1209
S'returned'
p1210
S'to'
p1211
tp1212
F0.0004068348250610252
s(S'[[num]]'
p1213
S'graduate'
p1214
S'of'
p1215
tp1216
F0.0004068348250610252
s(S'was'
p1217
S'appointed'
p1218
S'in'
p1219
tp1220
F0.0004068348250610252
s(S'also'
p1221
S'served'
p1222
S'based'
p1223
tp1224
F0.0004068348250610252
s(S'was'
p1225
S'served'
p1226
S'as'
p1227
tp1228
F0.0004068348250610252
s(S'were'
p1229
S'awarded'
p1230
S'[[det]]'
p1231
tp1232
F0.0004068348250610252
s(S'then'
p1233
S'taught'
p1234
S'at'
p1235
tp1236
F0.0004068348250610252
s(S'when'
p1237
S'served'
p1238
S'with'
p1239
tp1240
F0.0004068348250610252
s(S'later'
p1241
S'obtained'
p1242
S'[[det]]'
p1243
tp1244
F0.0008136696501220504
s(S'then'
p1245
S'received'
p1246
S'[[prp]]'
p1247
tp1248
F0.0008136696501220504
s(S'when'
p1249
S'served'
p1250
S'in'
p1251
tp1252
F0.0004068348250610252
s(S'currently'
p1253
S'teaches'
p1254
S'at'
p1255
tp1256
F0.0004068348250610252
s(S'who'
p1257
S'served'
p1258
S'in'
p1259
tp1260
F0.0004068348250610252
s(S'later'
p1261
S'completed'
p1262
S'from'
p1263
tp1264
F0.0004068348250610252
s(S'[[det]]'
p1265
S'[[adj]]'
p1266
S'degree'
p1267
tp1268
F0.006509357200976403
s(g258
S'degree'
p1269
S'at'
p1270
tp1271
F0.0016273393002441008
s(S'where'
p1272
S'attended'
p1273
S'[[det]]'
p1274
tp1275
F0.0012205044751830757
s(S'has'
p1276
S'moved'
p1277
S'from'
p1278
tp1279
F0.0004068348250610252
s(S'then'
p1280
S'completed'
p1281
S'[[prp]]'
p1282
tp1283
F0.0004068348250610252
s(S'was'
p1284
S'dropped'
p1285
S'in'
p1286
tp1287
F0.0004068348250610252
s(S'[[adj]]'
p1288
S'returned'
p1289
S'to'
p1290
tp1291
F0.0004068348250610252
s(S'never'
p1292
S'received'
p1293
S'[[det]]'
p1294
tp1295
F0.0004068348250610252
s(S'attended'
p1296
g984
g985
tp1297
F0.0004068348250610252
s(S'then'
p1298
S'moved'
p1299
S'on'
p1300
tp1301
F0.0004068348250610252
s(S'before'
p1302
S'returned'
p1303
S'to'
p1304
tp1305
F0.0004068348250610252
s(S'also'
p1306
S'completed'
p1307
S'[[det]]'
p1308
tp1309
F0.0004068348250610252
s(S'is'
p1310
S'appointed'
p1311
S'of'
p1312
tp1313
F0.0004068348250610252
s(S'has'
p1314
S'taught'
p1315
S'[[con]]'
p1316
tp1317
F0.0004068348250610252
s(S'where'
p1318
S'received'
p1319
S'from'
p1320
tp1321
F0.0008136696501220504
s(S'first'
p1322
S'entered'
p1323
S'[[det]]'
p1324
tp1325
F0.0004068348250610252
s(S'before'
p1326
S'moved'
p1327
S'to'
p1328
tp1329
F0.0004068348250610252
s(S'[[adj]]'
p1330
S'president'
p1331
S'[[con]]'
p1332
tp1333
F0.0004068348250610252
s(S'have'
p1334
S'served'
p1335
S'in'
p1336
tp1337
F0.0004068348250610252
s(S'also'
p1338
S'enrolled'
p1339
S'in'
p1340
tp1341
F0.0004068348250610252
s(S'is'
p1342
S'president'
p1343
S'in'
p1344
tp1345
F0.0004068348250610252
s(S'earn'
p1346
S'[[prp]]'
p1347
S'[[adj]]'
p1348
tp1349
F0.0004068348250610252
s(S'[[adj]]'
p1350
S'student'
p1351
S'[[det]]'
p1352
tp1353
F0.0004068348250610252
s(S'also'
p1354
S'obtained'
p1355
S'at'
p1356
tp1357
F0.0004068348250610252
s(S'[[adj]]'
p1358
S'doctorate'
p1359
S'[[con]]'
p1360
tp1361
F0.0004068348250610252
s(S'has'
p1362
S'served'
p1363
S'as'
p1364
tp1365
F0.0004068348250610252
s(S'bachelor'
p1366
S'[[con]]'
p1367
S'[[det]]'
p1368
tp1369
F0.0008136696501220504
s(S'was'
p1370
S'professor'
p1371
S'[[det]]'
p1372
tp1373
F0.0004068348250610252
s(S'[[adj]]'
p1374
S'served'
p1375
S'in'
p1376
tp1377
F0.0004068348250610252
s(S'undergraduate'
p1378
S'degree'
p1379
S'[[con]]'
p1380
tp1381
F0.0008136696501220504
s(S'[[adj]]'
p1382
S'received'
p1383
S'from'
p1384
tp1385
F0.0004068348250610252
s(S'later'
p1386
S'served'
p1387
S'with'
p1388
tp1389
F0.0004068348250610252
s(S'then'
p1390
S'moved'
p1391
S'with'
p1392
tp1393
F0.0004068348250610252
s(S'has'
p1394
S'served'
p1395
S'to'
p1396
tp1397
F0.0004068348250610252
s(S'also'
p1398
S'served'
p1399
S'in'
p1400
tp1401
F0.0004068348250610252
s(S'had'
p1402
S'served'
p1403
S'[[det]]'
p1404
tp1405
F0.0004068348250610252
s(S'[[con]]'
p1406
S'attended'
p1407
S'of'
p1408
tp1409
F0.0004068348250610252
s(S'become'
p1410
S'director'
p1411
S'of'
p1412
tp1413
F0.0004068348250610252
s(S'attended'
p1414
S'[[adj]]'
p1415
S'school'
p1416
tp1417
F0.003661513425549227
s(S'[[prp]]'
p1418
S'bachelor'
p1419
S'from'
p1420
tp1421
F0.0004068348250610252
s(S'formerly'
p1422
S'served'
p1423
S'at'
p1424
tp1425
F0.0004068348250610252
s(S'later'
p1426
S'attended'
p1427
S'in'
p1428
tp1429
F0.0004068348250610252
s(S'earned'
p1430
S'bachelor'
p1431
g165
tp1432
F0.0008136696501220504
s(S'was'
p1433
S'dropped'
p1434
S'to'
p1435
tp1436
F0.0004068348250610252
s(S'since'
p1437
S'returned'
p1438
S'to'
p1439
tp1440
F0.0004068348250610252
s(g357
g358
g1035
tp1441
F0.0004068348250610252
s(S'currently'
p1442
S'teaches'
p1443
S'[[con]]'
p1444
tp1445
F0.0004068348250610252
s(S'school'
p1446
S'[[con]]'
p1447
S'then'
p1448
tp1449
F0.0004068348250610252
s(S'been'
p1450
S'professor'
p1451
S'in'
p1452
tp1453
F0.0004068348250610252
s(S'also'
p1454
S'taught'
p1455
S'[[adj]]'
p1456
tp1457
F0.0004068348250610252
s(S'then'
p1458
S'received'
p1459
S'in'
p1460
tp1461
F0.0004068348250610252
s(S'then'
p1462
S'moved'
p1463
S'[[det]]'
p1464
tp1465
F0.0004068348250610252
s(S'had'
p1466
S'served'
p1467
S'at'
p1468
tp1469
F0.0004068348250610252
s(S'[[con]]'
p1470
S'obtained'
p1471
S'from'
p1472
tp1473
F0.0004068348250610252
s(S'[[con]]'
p1474
S'studied'
p1475
S'in'
p1476
tp1477
F0.0004068348250610252
s(g1266
g1267
S'from'
p1478
tp1479
F0.007729861676159479
s(S'also'
p1480
S'awarded'
p1481
S'from'
p1482
tp1483
F0.0004068348250610252
s(S'just'
p1484
S'returned'
p1485
S'from'
p1486
tp1487
F0.0004068348250610252
s(S'[[prp]]'
p1488
S'[[adj]]'
p1489
S'studies'
p1490
tp1491
F0.0012205044751830757
s(S'[[adj]]'
p1492
S'studies'
p1493
S'[[det]]'
p1494
tp1495
F0.0004068348250610252
s(S'[[det]]'
p1496
S'director'
p1497
S'for'
p1498
tp1499
F0.0004068348250610252
s(S'[[adj]]'
p1500
S'president'
p1501
S'[[num]]'
p1502
tp1503
F0.0004068348250610252
s(S'received'
p1504
S'[[det]]'
p1505
S'education'
p1506
tp1507
F0.0008136696501220504
s(S'holds'
p1508
S'[[det]]'
p1509
S'master'
p1510
tp1511
F0.0028478437754271765
s(S'earned'
p1512
g1072
g1073
tp1513
F0.0008136696501220504
s(S'who'
p1514
S'graduated'
p1515
S'at'
p1516
tp1517
F0.0004068348250610252
s(S'obtained'
p1518
S'[[prp]]'
p1519
S'[[adj]]'
p1520
tp1521
F0.0008136696501220504
s(S'[[con]]'
p1522
S'moved'
p1523
S'on'
p1524
tp1525
F0.0004068348250610252
s(S'born'
p1526
S'[[con]]'
p1527
S'attended'
p1528
tp1529
F0.0024410089503661514
s(S'[[adj]]'
p1530
S'school'
p1531
S'[[con]]'
p1532
tp1533
F0.0028478437754271765
s(S'who'
p1534
S'moved'
p1535
S'from'
p1536
tp1537
F0.0004068348250610252
s(S'[[det]]'
p1538
S'year'
p1539
S'with'
p1540
tp1541
F0.0004068348250610252
s(S'also'
p1542
S'attended'
p1543
S'school'
p1544
tp1545
F0.0004068348250610252
s(S'born'
p1546
S'[[con]]'
p1547
S'later'
p1548
tp1549
F0.0004068348250610252
s(S'then'
p1550
S'served'
p1551
S'for'
p1552
tp1553
F0.0004068348250610252
s(S'[[con]]'
p1554
S'transferred'
p1555
S'to'
p1556
tp1557
F0.0004068348250610252
s(g1368
S'master'
p1558
S'from'
p1559
tp1560
F0.0004068348250610252
s(S'was'
p1561
S'professor'
p1562
S'from'
p1563
tp1564
F0.0004068348250610252
s(S'also'
p1565
S'holds'
p1566
S'[[con]]'
p1567
tp1568
F0.0004068348250610252
s(S'[[con]]'
p1569
S'graduated'
p1570
S'now'
p1571
tp1572
F0.0004068348250610252
s(S'has'
p1573
S'given'
p1574
S'[[det]]'
p1575
tp1576
F0.0004068348250610252
s(S'graduate'
p1577
S'[[con]]'
p1578
S'also'
p1579
tp1580
F0.0004068348250610252
s(S'studied'
p1581
S'chemistry'
p1582
S'at'
p1583
tp1584
F0.0004068348250610252
s(S'attended'
p1585
S'[[det]]'
p1586
S'earned'
p1587
tp1588
F0.0004068348250610252
s(g389
g390
g165
tp1589
F0.0028478437754271765
s(S'graduated'
p1590
g855
g856
tp1591
F0.0008136696501220504
s(S'later'
p1592
S'served'
p1593
S'on'
p1594
tp1595
F0.0004068348250610252
s(S'was'
p1596
S'awarded'
p1597
S'[[con]]'
p1598
tp1599
F0.0004068348250610252
s(S'also'
p1600
S'president'
p1601
S'[[con]]'
p1602
tp1603
F0.0004068348250610252
s(S'attended'
p1604
S'before'
p1605
S'graduating'
p1606
tp1607
F0.0008136696501220504
s(S'who'
p1608
S'graduated'
p1609
S'from'
p1610
tp1611
F0.0004068348250610252
s(S'then'
p1612
S'attended'
p1613
S'at'
p1614
tp1615
F0.0004068348250610252
s(S'born'
p1616
S'in'
p1617
S'was'
p1618
tp1619
F0.0004068348250610252
s(S'attended'
p1620
S'[[con]]'
p1621
S'later'
p1622
tp1623
F0.0008136696501220504
s(S'is'
p1624
S'president'
p1625
S'[[con]]'
p1626
tp1627
F0.0004068348250610252
s(S'has'
p1628
S'given'
p1629
S'[[adj]]'
p1630
tp1631
F0.0004068348250610252
s(S'twice'
p1632
S'served'
p1633
S'as'
p1634
tp1635
F0.0004068348250610252
s(S'become'
p1636
S'president'
p1637
S'of'
p1638
tp1639
F0.0004068348250610252
s(S'was'
p1640
S'taught'
p1641
S'at'
p1642
tp1643
F0.0004068348250610252
s(S'earned'
p1644
S'[[det]]'
p1645
S'masters'
p1646
tp1647
F0.0012205044751830757
s(S'also'
p1648
S'taught'
p1649
S'in'
p1650
tp1651
F0.0004068348250610252
s(S'continued'
p1652
S'[[prp]]'
p1653
S'studies'
p1654
tp1655
F0.0024410089503661514
s(S'was'
p1656
S'president'
p1657
S'[[con]]'
p1658
tp1659
F0.0004068348250610252
s(S'in'
p1660
S'[[con]]'
p1661
S'attended'
p1662
tp1663
F0.0008136696501220504
s(S'who'
p1664
S'served'
p1665
S'[[con]]'
p1666
tp1667
F0.0004068348250610252
s(S'later'
p1668
S'served'
p1669
S'as'
p1670
tp1671
F0.0004068348250610252
s(S'[[adj]]'
p1672
S'president'
p1673
S'[[det]]'
p1674
tp1675
F0.0004068348250610252
s(S'had'
p1676
S'attended'
p1677
S'in'
p1678
tp1679
F0.0004068348250610252
s(g165
S'degree'
p1680
g426
tp1681
F0.007323026851098454
s(S'continued'
p1682
S'[[adj]]'
p1683
S'studies'
p1684
tp1685
F0.0004068348250610252
s(S'[[con]]'
p1686
S'enrolled'
p1687
S'in'
p1688
tp1689
F0.0004068348250610252
s(S'also'
p1690
S'received'
p1691
S'[[prp]]'
p1692
tp1693
F0.0008136696501220504
s(S'graduate'
p1694
S'[[con]]'
p1695
S'received'
p1696
tp1697
F0.0004068348250610252
s(S'[[det]]'
p1698
S'studies'
p1699
S'in'
p1700
tp1701
F0.0004068348250610252
s(S'was'
p1702
S'dropped'
p1703
S'[[con]]'
p1704
tp1705
F0.0004068348250610252
s(S'is'
p1706
S'awarded'
p1707
S'by'
p1708
tp1709
F0.0004068348250610252
s(S'has'
p1710
S'graduated'
p1711
S'from'
p1712
tp1713
F0.0004068348250610252
s(S'was'
p1714
S'educated'
p1715
S'in'
p1716
tp1717
F0.0008136696501220504
s(g760
g761
S'at'
p1718
tp1719
F0.0012205044751830757
s(S'until'
p1720
S'returned'
p1721
S'to'
p1722
tp1723
F0.0004068348250610252
s(S'was'
p1724
g1131
g1132
tp1725
F0.0004068348250610252
s(S'[[det]]'
p1726
S'[[adj]]'
p1727
S'degrees'
p1728
tp1729
F0.0004068348250610252
s(S'attended'
p1730
S'[[det]]'
p1731
S'received'
p1732
tp1733
F0.0004068348250610252
s(S'was'
p1734
g121
g122
tp1735
F0.005695687550854353
s(S'later'
p1736
S'received'
p1737
S'[[prp]]'
p1738
tp1739
F0.0012205044751830757
s(S'earned'
p1740
S'[[det]]'
p1741
S'[[adj]]'
p1742
tp1743
F0.0016273393002441008
s(S'were'
p1744
S'transferred'
p1745
S'to'
p1746
tp1747
F0.0004068348250610252
s(S'also'
p1748
S'attended'
p1749
S'from'
p1750
tp1751
F0.0004068348250610252
s(S'in'
p1752
S'educated'
p1753
S'at'
p1754
tp1755
F0.0004068348250610252
s(S'was'
p1756
S'admitted'
p1757
S'to'
p1758
tp1759
F0.0004068348250610252
s(g257
g258
g1269
tp1760
F0.004475183075671277
s(S'had'
p1761
S'attended'
p1762
S'[[det]]'
p1763
tp1764
F0.0004068348250610252
s(S'[[con]]'
p1765
g1508
g1509
tp1766
F0.0020341741253051262
s(g1578
g1579
S'holds'
p1767
tp1768
F0.0004068348250610252
s(S'then'
p1769
S'served'
p1770
S'based'
p1771
tp1772
F0.0004068348250610252
s(S'born'
p1773
g1752
g1753
tp1774
F0.0004068348250610252
s(S'has'
p1775
S'continued'
p1776
S'[[prp]]'
p1777
tp1778
F0.0004068348250610252
s(S'later'
p1779
S'earned'
p1780
S'at'
p1781
tp1782
F0.0004068348250610252
s(S'been'
p1783
S'transferred'
p1784
S'to'
p1785
tp1786
F0.0004068348250610252
s(S'received'
p1787
g1265
g1266
tp1788
F0.00854353132628153
s(S'had'
p1789
S'served'
p1790
S'with'
p1791
tp1792
F0.0004068348250610252
s(S'[[prp]]'
p1793
S'doctorate'
p1794
S'[[con]]'
p1795
tp1796
F0.0004068348250610252
s(S'degree'
p1797
S'[[con]]'
p1798
S'has'
p1799
tp1800
F0.0004068348250610252
s(S'[[con]]'
p1801
S'taught'
p1802
S'in'
p1803
tp1804
F0.0004068348250610252
s(S'[[con]]'
p1805
S'served'
p1806
S'at'
p1807
tp1808
F0.0004068348250610252
s(S'has'
p1809
S'served'
p1810
S'in'
p1811
tp1812
F0.0004068348250610252
s(S'[[con]]'
p1813
S'professor'
p1814
S'of'
p1815
tp1816
F0.0004068348250610252
s(S'been'
p1817
S'dropped'
p1818
S'by'
p1819
tp1820
F0.0004068348250610252
s(S'[[adj]]'
p1821
S'served'
p1822
S'as'
p1823
tp1824
F0.0004068348250610252
s(S'[[det]]'
p1825
S'practicing'
p1826
S'in'
p1827
tp1828
F0.0004068348250610252
s(S'[[prp]]'
p1829
S'degree'
p1830
S'[[det]]'
p1831
tp1832
F0.0004068348250610252
s(S'then'
p1833
S'studied'
p1834
S'[[det]]'
p1835
tp1836
F0.0004068348250610252
s(S'has'
p1837
S'returned'
p1838
S'to'
p1839
tp1840
F0.0004068348250610252
s(S'[[num]]'
p1841
S'year'
p1842
S'as'
p1843
tp1844
F0.0004068348250610252
s(S'received'
p1845
g1169
g1170
tp1846
F0.0016273393002441008
s(S'[[pro]]'
p1847
S'returned'
p1848
S'to'
p1849
tp1850
F0.0004068348250610252
s(S'then'
p1851
S'taught'
p1852
S'[[con]]'
p1853
tp1854
F0.0004068348250610252
s(S'then'
p1855
S'transferred'
p1856
S'as'
p1857
tp1858
F0.0004068348250610252
s(S'[[det]]'
p1859
S'student'
p1860
S'[[con]]'
p1861
tp1862
F0.0004068348250610252
s(S'[[det]]'
p1863
S'professor'
p1864
S'[[adj]]'
p1865
tp1866
F0.0004068348250610252
s(S'then'
p1867
S'moved'
p1868
S'up'
p1869
tp1870
F0.0004068348250610252
s(S'attended'
p1871
g705
g706
tp1872
F0.0004068348250610252
s(S'as'
p1873
S'director'
p1874
S'of'
p1875
tp1876
F0.0004068348250610252
s(S'to'
p1877
S'study'
p1878
S'[[adj]]'
p1879
tp1880
F0.0004068348250610252
s(S'spent'
p1881
S'[[prp]]'
p1882
S'[[adj]]'
p1883
tp1884
F0.0008136696501220504
s(S'received'
p1885
S'[[prp]]'
p1886
S'degree'
p1887
tp1888
F0.004475183075671277
s(S'has'
p1889
S'received'
p1890
S'[[adj]]'
p1891
tp1892
F0.0004068348250610252
s(S'later'
p1893
S'moved'
p1894
S'on'
p1895
tp1896
F0.0004068348250610252
s(S'[[prp]]'
p1897
g1378
g1379
tp1898
F0.0028478437754271765
s(S'[[det]]'
p1899
S'president'
p1900
S'[[det]]'
p1901
tp1902
F0.0004068348250610252
s(S'holds'
p1903
S'[[det]]'
p1904
S'bachelor'
p1905
tp1906
F0.0040683482506102524
s(S'raised'
p1907
S'[[con]]'
p1908
S'attended'
p1909
tp1910
F0.0012205044751830757
s(S'nominated'
p1911
g1042
g917
tp1912
F0.0004068348250610252
s(S'bachelor'
p1913
g165
S'[[prp]]'
p1914
tp1915
F0.0008136696501220504
s(S'also'
p1916
S'holds'
p1917
S'[[det]]'
p1918
tp1919
F0.0032546786004882017
s(S'[[det]]'
p1920
S'year'
p1921
S'[[det]]'
p1922
tp1923
F0.0004068348250610252
s(S'also'
p1924
S'awarded'
p1925
S'at'
p1926
tp1927
F0.0004068348250610252
s(S'had'
p1928
S'entered'
p1929
S'[[det]]'
p1930
tp1931
F0.0004068348250610252
s(S'then'
p1932
S'attended'
p1933
S'[[con]]'
p1934
tp1935
F0.0008136696501220504
s(S'earn'
p1936
S'[[det]]'
p1937
S'degree'
p1938
tp1939
F0.0012205044751830757
s(S'then'
p1940
S'continued'
p1941
S'[[prp]]'
p1942
tp1943
F0.0016273393002441008
s(S'graduated'
p1944
S'[[con]]'
p1945
S'earned'
p1946
tp1947
F0.004475183075671277
s(S'was'
p1948
S'admitted'
p1949
S'into'
p1950
tp1951
F0.0004068348250610252
s(S'which'
p1952
S'received'
p1953
S'[[det]]'
p1954
tp1955
F0.0004068348250610252
s(S'[[prp]]'
p1956
g324
g325
tp1957
F0.0028478437754271765
s(S'attended'
p1958
S'[[con]]'
p1959
g1845
tp1960
F0.004475183075671277
s(S'[[adj]]'
p1961
S'education'
p1962
S'[[con]]'
p1963
tp1964
F0.0008136696501220504
s(S'being'
p1965
S'awarded'
p1966
S'[[det]]'
p1967
tp1968
F0.0004068348250610252
s(S'attended'
p1969
S'[[det]]'
p1970
S'school'
p1971
tp1972
F0.0012205044751830757
s(g661
S'to'
p1973
S'had'
p1974
tp1975
F0.0004068348250610252
s(S'later'
p1976
S'taught'
p1977
S'at'
p1978
tp1979
F0.0004068348250610252
s(S'[[num]]'
p1980
S'returned'
p1981
S'to'
p1982
tp1983
F0.0004068348250610252
s(S'then'
p1984
S'president'
p1985
S'of'
p1986
tp1987
F0.0004068348250610252
s(S'earned'
p1988
S'[[det]]'
p1989
g737
tp1990
F0.007323026851098454
s(S'was'
p1991
S'director'
p1992
S'for'
p1993
tp1994
F0.0004068348250610252
s(S'made'
p1995
S'professor'
p1996
S'in'
p1997
tp1998
F0.0004068348250610252
s(S'had'
p1999
S'graduated'
p2000
S'from'
p2001
tp2002
F0.0004068348250610252
s(S'was'
p2003
S'awarded'
p2004
S'[[det]]'
p2005
tp2006
F0.0004068348250610252
s(S'[[con]]'
p2007
S'holds'
p2008
S'degree'
p2009
tp2010
F0.0004068348250610252
s(S'[[adj]]'
p2011
S'degree'
p2012
S'in'
p2013
tp2014
F0.0012205044751830757
s(S'[[num]]'
p2015
S'professor'
p2016
S'of'
p2017
tp2018
F0.0004068348250610252
s(S'born'
p2019
S'[[num]]'
p2020
S'[[con]]'
p2021
tp2022
F0.0004068348250610252
s(S'[[adj]]'
p2023
S'science'
p2024
S'from'
p2025
tp2026
F0.0008136696501220504
s(S'currently'
p2027
S'professor'
p2028
S'of'
p2029
tp2030
F0.0004068348250610252
s(S'has'
p2031
S'served'
p2032
S'until'
p2033
tp2034
F0.0004068348250610252
s(S'later'
p2035
S'received'
p2036
S'[[con]]'
p2037
tp2038
F0.0004068348250610252
s(S'first'
p2039
S'served'
p2040
S'with'
p2041
tp2042
F0.0004068348250610252
s(S'is'
p2043
S'professor'
p2044
S'at'
p2045
tp2046
F0.0004068348250610252
s(S'has'
p2047
S'served'
p2048
S'[[det]]'
p2049
tp2050
F0.0004068348250610252
s(S'born'
p2051
S'[[con]]'
p2052
S'was'
p2053
tp2054
F0.0020341741253051262
s(S'[[det]]'
p2055
S'president'
p2056
S'[[con]]'
p2057
tp2058
F0.0004068348250610252
s(S'then'
p2059
S'moved'
p2060
S'back'
p2061
tp2062
F0.0004068348250610252
s(S'spent'
p2063
S'[[det]]'
p2064
g85
tp2065
F0.0012205044751830757
s(g322
S'degree'
p2066
S'from'
p2067
tp2068
F0.0004068348250610252
s(S'was'
p2069
S'appointed'
p2070
S'where'
p2071
tp2072
F0.0004068348250610252
s(S'graduate'
p2073
g1765
g1508
tp2074
F0.0012205044751830757
s(S'then'
p2075
S'returned'
p2076
S'with'
p2077
tp2078
F0.0004068348250610252
s(S'was'
p2079
S'transferred'
p2080
S'back'
p2081
tp2082
F0.0004068348250610252
s(S'retired'
p2083
g659
g660
tp2084
F0.0004068348250610252
s(S'[[adj]]'
p2085
S'director'
p2086
S'at'
p2087
tp2088
F0.0004068348250610252
s(S'[[adj]]'
p2089
S'study'
p2090
S'at'
p2091
tp2092
F0.0004068348250610252
s(S'also'
p2093
S'attended'
p2094
S'[[det]]'
p2095
tp2096
F0.0008136696501220504
s(S'[[det]]'
p2097
S'returned'
p2098
S'to'
p2099
tp2100
F0.0004068348250610252
s(S'also'
p2101
S'served'
p2102
S'to'
p2103
tp2104
F0.0004068348250610252
s(S'[[num]]'
p2105
S'professor'
p2106
S'at'
p2107
tp2108
F0.0004068348250610252
s(S'[[num]]'
p2109
S'served'
p2110
S'on'
p2111
tp2112
F0.0004068348250610252
s(S'[[adj]]'
p2113
S'professor'
p2114
S'[[num]]'
p2115
tp2116
F0.0004068348250610252
s(S'served'
p2117
S'based'
p2118
S'in'
p2119
tp2120
F0.0012205044751830757
s(S'continued'
p2121
S'[[prp]]'
p2122
S'[[adj]]'
p2123
tp2124
F0.0016273393002441008
s(S'[[con]]'
p2125
S'[[det]]'
p2126
S'graduate'
p2127
tp2128
F0.0004068348250610252
s(S'so'
p2129
S'returned'
p2130
S'to'
p2131
tp2132
F0.0004068348250610252
s(S'[[con]]'
p2133
S'[[num]]'
p2134
S'received'
p2135
tp2136
F0.0004068348250610252
s(S'[[prp]]'
p2137
S'doctorate'
p2138
S'in'
p2139
tp2140
F0.0004068348250610252
s(S'was'
p2141
S'transferred'
p2142
S'as'
p2143
tp2144
F0.0004068348250610252
s(S'has'
p2145
S'served'
p2146
S'for'
p2147
tp2148
F0.0004068348250610252
s(S'attended'
p2149
S'[[det]]'
p2150
S'[[adj]]'
p2151
tp2152
F0.0016273393002441008
s(S'then'
p2153
S'earned'
p2154
S'in'
p2155
tp2156
F0.0004068348250610252
s(S'also'
p2157
S'served'
p2158
S'[[adj]]'
p2159
tp2160
F0.0004068348250610252
s(S'to'
p2161
S'study'
p2162
S'for'
p2163
tp2164
F0.0004068348250610252
s(S'graduated'
p2165
S'from'
p2166
S'[[con]]'
p2167
tp2168
F0.0004068348250610252
s(S'had'
p2169
S'taught'
p2170
S'at'
p2171
tp2172
F0.0008136696501220504
s(S'[[adj]]'
p2173
S'student'
p2174
S'from'
p2175
tp2176
F0.0004068348250610252
s(S'[[det]]'
p2177
S'[[adj]]'
p2178
S'education'
p2179
tp2180
F0.0008136696501220504
s(S'then'
p2181
S'earned'
p2182
S'at'
p2183
tp2184
F0.0004068348250610252
s(g1945
g1946
S'[[det]]'
p2185
tp2186
F0.0052888527257933275
s(S'[[det]]'
p2187
S'director'
p2188
S'[[con]]'
p2189
tp2190
F0.0004068348250610252
s(S'[[det]]'
p2191
S'served'
p2192
S'in'
p2193
tp2194
F0.0004068348250610252
s(S'was'
p2195
g368
g369
tp2196
F0.0028478437754271765
s(S'[[num]]'
p2197
S'president'
p2198
S'of'
p2199
tp2200
F0.0004068348250610252
s(S'also'
p2201
S'president'
p2202
S'of'
p2203
tp2204
F0.0004068348250610252
s(S'later'
p2205
S'transferred'
p2206
S'in'
p2207
tp2208
F0.0004068348250610252
s(S'then'
p2209
S'appointed'
p2210
S'in'
p2211
tp2212
F0.0004068348250610252
s(S'was'
p2213
S'awarded'
p2214
S'at'
p2215
tp2216
F0.0004068348250610252
s(S'educated'
p2217
S'[[det]]'
p2218
S'school'
p2219
tp2220
F0.0008136696501220504
s(S'holds'
p2221
g485
g486
tp2222
F0.0008136696501220504
s(S'was'
p2223
S'educated'
p2224
S'as'
p2225
tp2226
F0.0004068348250610252
s(g1170
g1171
S'from'
p2227
tp2228
F0.00935720097640358
s(S'then'
p2229
S'attended'
p2230
S'before'
p2231
tp2232
F0.0004068348250610252
s(S'[[num]]'
p2233
S'year'
p2234
S'at'
p2235
tp2236
F0.0008136696501220504
s(S'been'
p2237
S'president'
p2238
S'of'
p2239
tp2240
F0.0004068348250610252
s(g1621
g1622
S'graduated'
p2241
tp2242
F0.0004068348250610252
s(S'then'
p2243
S'served'
p2244
S'with'
p2245
tp2246
F0.0004068348250610252
s(S'received'
p2247
S'[[det]]'
p2248
S'master'
p2249
tp2250
F0.0040683482506102524
s(S'graduated'
p2251
S'with'
p2252
S'[[det]]'
p2253
tp2254
F0.0004068348250610252
s(S'also'
p2255
S'obtained'
p2256
S'from'
p2257
tp2258
F0.0004068348250610252
s(S'[[con]]'
p2259
S'[[adj]]'
p2260
S'graduate'
p2261
tp2262
F0.0004068348250610252
s(g165
S'study'
p2263
S'of'
p2264
tp2265
F0.0004068348250610252
s(S'[[adj]]'
p2266
S'degrees'
p2267
S'[[con]]'
p2268
tp2269
F0.0004068348250610252
s(S'then'
p2270
S'obtained'
p2271
S'at'
p2272
tp2273
F0.0004068348250610252
s(S'twice'
p2274
S'served'
p2275
S'in'
p2276
tp2277
F0.0004068348250610252
s(S'then'
p2278
S'received'
p2279
S'[[det]]'
p2280
tp2281
F0.0016273393002441008
s(S'then'
p2282
S'transferred'
p2283
S'in'
p2284
tp2285
F0.0004068348250610252
s(S'[[num]]'
p2286
S'graduate'
p2287
S'[[det]]'
p2288
tp2289
F0.0004068348250610252
s(S'where'
p2290
S'graduated'
p2291
S'from'
p2292
tp2293
F0.0004068348250610252
s(S'degree'
p2294
S'[[con]]'
p2295
S'masters'
p2296
tp2297
F0.0004068348250610252
s(S'[[det]]'
p2298
S'student'
p2299
S'[[det]]'
p2300
tp2301
F0.0004068348250610252
s(g1882
g1883
S'year'
p2302
tp2303
F0.0008136696501220504
s(S'to'
p2304
S'complete'
p2305
S'[[prp]]'
p2306
tp2307
F0.0004068348250610252
s(S'[[prp]]'
p2308
S'education'
p2309
S'from'
p2310
tp2311
F0.0008136696501220504
s(S'received'
p2312
S'[[con]]'
p2313
S'degree'
p2314
tp2315
F0.0004068348250610252
s(S'[[det]]'
p2316
S'professor'
p2317
S'to'
p2318
tp2319
F0.0004068348250610252
s(S'[[det]]'
p2320
S'[[adj]]'
p2321
S'law'
p2322
tp2323
F0.0004068348250610252
s(S'had'
p2324
S'dropped'
p2325
S'out'
p2326
tp2327
F0.0004068348250610252
s(S'[[prp]]'
p2328
S'education'
p2329
S'at'
p2330
tp2331
F0.0028478437754271765
s(S'attended'
p2332
S'[[det]]'
p2333
S'graduating'
p2334
tp2335
F0.0004068348250610252
s(g170
g171
g165
tp2336
F0.010984540276647681
s(S'then'
p2337
S'appointed'
p2338
S'to'
p2339
tp2340
F0.0004068348250610252
s(S'received'
p2341
S'degree'
p2342
S'[[con]]'
p2343
tp2344
F0.0004068348250610252
s(S'[[det]]'
p2345
S'director'
p2346
S'on'
p2347
tp2348
F0.0004068348250610252
s(S'first'
p2349
S'attended'
p2350
S'[[det]]'
p2351
tp2352
F0.0004068348250610252
s(S'also'
p2353
g1911
g1042
tp2354
F0.0004068348250610252
s(S'then'
p2355
S'obtained'
p2356
S'from'
p2357
tp2358
F0.0004068348250610252
s(S'later'
p2359
S'enrolled'
p2360
S'at'
p2361
tp2362
F0.0004068348250610252
s(S'was'
p2363
S'moved'
p2364
S'for'
p2365
tp2366
F0.0004068348250610252
s(g1605
g1606
S'from'
p2367
tp2368
F0.0008136696501220504
s(S'is'
p2369
S'president'
p2370
S'of'
p2371
tp2372
F0.0004068348250610252
s(S'later'
p2373
S'taught'
p2374
S'[[con]]'
p2375
tp2376
F0.0004068348250610252
s(S'who'
p2377
S'studied'
p2378
S'at'
p2379
tp2380
F0.0004068348250610252
s(S'also'
p2381
S'taught'
p2382
S'for'
p2383
tp2384
F0.0004068348250610252
s(S'later'
p2385
S'enrolled'
p2386
S'in'
p2387
tp2388
F0.0004068348250610252
s(S'was'
p2389
S'given'
p2390
S'[[det]]'
p2391
tp2392
F0.0004068348250610252
s(S'was'
p2393
S'graduated'
p2394
S'now'
p2395
tp2396
F0.0004068348250610252
s(S'have'
p2397
S'attended'
p2398
S'in'
p2399
tp2400
F0.0004068348250610252
s(S'[[det]]'
p2401
S'degree'
p2402
S'from'
p2403
tp2404
F0.010984540276647681
s(S'[[con]]'
p2405
S'served'
p2406
S'in'
p2407
tp2408
F0.0008136696501220504
s(S'was'
p2409
g2217
g2218
tp2410
F0.0016273393002441008
s(S'[[adj]]'
p2411
S'doctorate'
p2412
S'at'
p2413
tp2414
F0.0008136696501220504
s(S'graduated'
p2415
S'[[con]]'
p2416
S'received'
p2417
tp2418
F0.005695687550854353
s(S'was'
p2419
S'transferred'
p2420
S'with'
p2421
tp2422
F0.0004068348250610252
s(S'obtained'
p2423
S'[[prp]]'
p2424
S'degree'
p2425
tp2426
F0.0012205044751830757
s(S'earned'
p2427
S'[[pro]]'
p2428
S'degree'
p2429
tp2430
F0.0004068348250610252
s(S'also'
p2431
S'obtained'
p2432
S'[[det]]'
p2433
tp2434
F0.0012205044751830757
s(S'[[prp]]'
p2435
S'degree'
p2436
S'from'
p2437
tp2438
F0.0040683482506102524
s(S'while'
p2439
S'returned'
p2440
S'to'
p2441
tp2442
F0.0004068348250610252
s(S'[[num]]'
p2443
S'transferred'
p2444
S'to'
p2445
tp2446
F0.0004068348250610252
s(S'was'
p2447
S'professor'
p2448
S'at'
p2449
tp2450
F0.0004068348250610252
s(S'also'
p2451
S'completed'
p2452
S'in'
p2453
tp2454
F0.0004068348250610252
s(S'was'
p2455
S'moved'
p2456
S'as'
p2457
tp2458
F0.0004068348250610252
s(S'[[det]]'
p2459
S'graduate'
p2460
S'in'
p2461
tp2462
F0.0004068348250610252
s(S'[[adj]]'
p2463
S'president'
p2464
S'of'
p2465
tp2466
F0.0004068348250610252
s(S'earned'
p2467
g2435
g2436
tp2468
F0.0016273393002441008
s(S'educated'
p2469
S'at'
p2470
S'[[det]]'
p2471
tp2472
F0.0008136696501220504
s(S'[[con]]'
p2473
S'attended'
p2474
S'now'
p2475
tp2476
F0.0004068348250610252
s(S'was'
p2477
S'moved'
p2478
S'after'
p2479
tp2480
F0.0004068348250610252
s(S'was'
p2481
S'professor'
p2482
S'in'
p2483
tp2484
F0.0004068348250610252
s(S'to'
p2485
S'graduate'
p2486
S'from'
p2487
tp2488
F0.0004068348250610252
s(S'had'
p2489
S'served'
p2490
S'on'
p2491
tp2492
F0.0004068348250610252
s(S'then'
p2493
S'completed'
p2494
S'[[det]]'
p2495
tp2496
F0.0004068348250610252
s(S'later'
p2497
S'served'
p2498
S'for'
p2499
tp2500
F0.0004068348250610252
s(S'[[adj]]'
p2501
S'served'
p2502
S'to'
p2503
tp2504
F0.0004068348250610252
s(S'where'
p2505
S'taught'
p2506
S'at'
p2507
tp2508
F0.0004068348250610252
s(S'[[prp]]'
p2509
g541
g542
tp2510
F0.0008136696501220504
s(S'been'
p2511
S'awarded'
p2512
S'at'
p2513
tp2514
F0.0004068348250610252
s(S'to'
p2515
g1936
g1937
tp2516
F0.0012205044751830757
s(S'[[det]]'
p2517
S'school'
p2518
S'of'
p2519
tp2520
F0.0004068348250610252
s(S'also'
p2521
S'received'
p2522
S'at'
p2523
tp2524
F0.0004068348250610252
s(S'received'
p2525
S'degree'
p2526
S'from'
p2527
tp2528
F0.0020341741253051262
s(S'has'
p2529
S'studied'
p2530
S'[[con]]'
p2531
tp2532
F0.0004068348250610252
s(S'then'
p2533
S'dropped'
p2534
S'down'
p2535
tp2536
F0.0004068348250610252
s(S'then'
p2537
S'attended'
p2538
S'[[det]]'
p2539
tp2540
F0.0012205044751830757
s(S'[[con]]'
p2541
S'served'
p2542
S'on'
p2543
tp2544
F0.0004068348250610252
s(S'also'
p2545
S'spent'
p2546
S'[[det]]'
p2547
tp2548
F0.0004068348250610252
s(S'[[prp]]'
p2549
S'education'
p2550
S'[[con]]'
p2551
tp2552
F0.0008136696501220504
s(S'in'
p2553
g2023
g2024
tp2554
F0.0008136696501220504
s(g1100
g1101
S'graduated'
p2555
tp2556
F0.0004068348250610252
s(S'then'
p2557
S'studied'
p2558
S'architecture'
p2559
tp2560
F0.0004068348250610252
s(S'currently'
p2561
S'teaches'
p2562
S'[[det]]'
p2563
tp2564
F0.0004068348250610252
s(S'[[con]]'
p2565
S'returned'
p2566
S'on'
p2567
tp2568
F0.0004068348250610252
s(g165
S'degree'
p2569
S'with'
p2570
tp2571
F0.0004068348250610252
s(S'later'
p2572
S'appointed'
p2573
S'on'
p2574
tp2575
F0.0004068348250610252
s(S'has'
p2576
S'received'
p2577
S'[[con]]'
p2578
tp2579
F0.0004068348250610252
s(S'received'
p2580
S'[[con]]'
p2581
S'[[det]]'
p2582
tp2583
F0.0012205044751830757
s(S'[[det]]'
p2584
S'degree'
p2585
S'[[con]]'
p2586
tp2587
F0.0032546786004882017
s(S'be'
p2588
S'admitted'
p2589
S'to'
p2590
tp2591
F0.0004068348250610252
s(S'earn'
p2592
S'[[prp]]'
p2593
S'degree'
p2594
tp2595
F0.0004068348250610252
s(S'became'
p2596
S'professor'
p2597
S'of'
p2598
tp2599
F0.0004068348250610252
s(S'[[mod]]'
p2600
S'study'
p2601
S'with'
p2602
tp2603
F0.0004068348250610252
s(S'later'
p2604
S'awarded'
p2605
S'from'
p2606
tp2607
F0.0004068348250610252
s(S'[[num]]'
p2608
S'awarded'
p2609
S'by'
p2610
tp2611
F0.0004068348250610252
s(S'[[det]]'
p2612
S'degree'
p2613
S'with'
p2614
tp2615
F0.0004068348250610252
s(S'[[con]]'
p2616
S'earned'
p2617
S'from'
p2618
tp2619
F0.0008136696501220504
s(S'holds'
p2620
S'[[det]]'
p2621
S'[[adj]]'
p2622
tp2623
F0.0016273393002441008
s(g427
g428
g165
tp2624
F0.015459723352318959
s(S'was'
p2625
S'professor'
p2626
S'[[num]]'
p2627
tp2628
F0.0004068348250610252
s(S'completed'
p2629
g1488
g1489
tp2630
F0.0004068348250610252
s(S'[[det]]'
p2631
S'degree'
p2632
S'of'
p2633
tp2634
F0.0004068348250610252
s(S'was'
p2635
S'born'
p2636
S'educated'
p2637
tp2638
F0.0004068348250610252
s(g2020
g2021
S'educated'
p2639
tp2640
F0.0004068348250610252
s(g1973
g1974
S'taught'
p2641
tp2642
F0.0004068348250610252
s(S'again'
p2643
S'returned'
p2644
S'to'
p2645
tp2646
F0.0004068348250610252
s(S'later'
p2647
S'received'
p2648
S'from'
p2649
tp2650
F0.0008136696501220504
s(S'also'
p2651
S'taught'
p2652
S'to'
p2653
tp2654
F0.0004068348250610252
s(S'obtained'
p2655
S'degree'
p2656
S'at'
p2657
tp2658
F0.0004068348250610252
s(S'made'
p2659
S'professor'
p2660
S'at'
p2661
tp2662
F0.0004068348250610252
s(S'up'
p2663
S'[[con]]'
p2664
S'received'
p2665
tp2666
F0.0004068348250610252
s(S'[[adj]]'
p2667
S'attended'
p2668
S'in'
p2669
tp2670
F0.0004068348250610252
s(S'[[adj]]'
p2671
S'professor'
p2672
S'at'
p2673
tp2674
F0.0004068348250610252
s(S'had'
p2675
S'received'
p2676
S'in'
p2677
tp2678
F0.0004068348250610252
s(S'then'
p2679
S'dropped'
p2680
S'out'
p2681
tp2682
F0.0004068348250610252
s(S'later'
p2683
S'attended'
p2684
S'[[adj]]'
p2685
tp2686
F0.0004068348250610252
s(S'also'
p2687
g847
g848
tp2688
F0.0004068348250610252
s(S'currently'
p2689
S'professor'
p2690
S'at'
p2691
tp2692
F0.0004068348250610252
s(S'had'
p2693
S'studied'
p2694
S'at'
p2695
tp2696
F0.0004068348250610252
s(S'[[adj]]'
p2697
S'attended'
p2698
S'at'
p2699
tp2700
F0.0004068348250610252
s(S'[[con]]'
p2701
S'returned'
p2702
S'to'
p2703
tp2704
F0.0004068348250610252
s(S'[[con]]'
p2705
g2525
g2526
tp2706
F0.0008136696501220504
s(S'was'
p2707
S'transferred'
p2708
S'from'
p2709
tp2710
F0.0004068348250610252
s(S'was'
p2711
S'awarded'
p2712
S'[[num]]'
p2713
tp2714
F0.0004068348250610252
s(g1543
g1544
S'in'
p2715
tp2716
F0.0004068348250610252
s(g171
g165
g438
tp2717
F0.003661513425549227
s(g428
g165
g925
tp2718
F0.01790073230268511
s(S'was'
p2719
S'graduated'
p2720
S'at'
p2721
tp2722
F0.0004068348250610252
s(S'[[con]]'
p2723
S'earned'
p2724
S'degree'
p2725
tp2726
F0.0008136696501220504
s(S'[[con]]'
p2727
S'completed'
p2728
S'from'
p2729
tp2730
F0.0004068348250610252
s(S'[[num]]'
p2731
S'served'
p2732
S'for'
p2733
tp2734
F0.0004068348250610252
s(S'then'
p2735
S'moved'
p2736
S'to'
p2737
tp2738
F0.0004068348250610252
s(S'had'
p2739
S'earned'
p2740
S'from'
p2741
tp2742
F0.0004068348250610252
s(S'attended'
p2743
S'was'
p2744
S'graduated'
p2745
tp2746
F0.0004068348250610252
s(S'is'
p2747
S'returned'
p2748
S'to'
p2749
tp2750
F0.0004068348250610252
s(S'[[adj]]'
p2751
S'year'
p2752
S'at'
p2753
tp2754
F0.0008136696501220504
s(S'attended'
p2755
S'school'
p2756
S'from'
p2757
tp2758
F0.0004068348250610252
s(S'to'
p2759
S'school'
p2760
S'at'
p2761
tp2762
F0.0004068348250610252
s(S'formerly'
p2763
S'served'
p2764
S'for'
p2765
tp2766
F0.0004068348250610252
s(S'as'
p2767
S'moved'
p2768
S'to'
p2769
tp2770
F0.0004068348250610252
s(S'[[adj]]'
p2771
S'year'
p2772
S'with'
p2773
tp2774
F0.0004068348250610252
s(S'earned'
p2775
S'[[prp]]'
p2776
S'[[adj]]'
p2777
tp2778
F0.0008136696501220504
s(S'[[con]]'
p2779
S'received'
p2780
S'[[prp]]'
p2781
tp2782
F0.005695687550854353
s(S'has'
p2783
S'moved'
p2784
S'on'
p2785
tp2786
F0.0004068348250610252
s(S'holds'
p2787
S'degrees'
p2788
S'[[det]]'
p2789
tp2790
F0.0004068348250610252
s(S'later'
p2791
S'continued'
p2792
S'[[prp]]'
p2793
tp2794
F0.0008136696501220504
s(S'been'
p2795
S'awarded'
p2796
S'[[adj]]'
p2797
tp2798
F0.0004068348250610252
s(S'was'
p2799
S'received'
p2800
S'into'
p2801
tp2802
F0.0004068348250610252
s(S'[[con]]'
p2803
S'degree'
p2804
S'in'
p2805
tp2806
F0.0004068348250610252
s(S'attended'
p2807
g579
g580
tp2808
F0.0004068348250610252
s(S'[[adj]]'
p2809
S'school'
p2810
S'from'
p2811
tp2812
F0.0004068348250610252
s(S'also'
p2813
S'served'
p2814
S'for'
p2815
tp2816
F0.0004068348250610252
s(S'spent'
p2817
g304
g305
tp2818
F0.003661513425549227
s(S'[[prp]]'
p2819
S'study'
p2820
S'of'
p2821
tp2822
F0.0004068348250610252
s(S'was'
p2823
S'president'
p2824
S'[[num]]'
p2825
tp2826
F0.0004068348250610252
s(S'also'
p2827
S'served'
p2828
S'[[con]]'
p2829
tp2830
F0.0004068348250610252
s(S'[[num]]'
p2831
S'studied'
p2832
S'at'
p2833
tp2834
F0.0004068348250610252
s(S'[[det]]'
p2835
S'bachelor'
p2836
S'degree'
p2837
tp2838
F0.0012205044751830757
s(S'holds'
p2839
S'degree'
p2840
S'in'
p2841
tp2842
F0.0008136696501220504
s(g1112
g1113
S'degree'
p2843
tp2844
F0.0004068348250610252
s(S'attended'
p2845
g2133
g2134
tp2846
F0.0008136696501220504
s(S'grew'
p2847
g2663
g2664
tp2848
F0.0004068348250610252
s(g165
S'degree'
p2849
S'[[num]]'
p2850
tp2851
F0.0004068348250610252
s(S'earned'
p2852
S'[[con]]'
p2853
S'attended'
p2854
tp2855
F0.0004068348250610252
s(g165
g1914
S'law'
p2856
tp2857
F0.0004068348250610252
s(g2252
g2253
S'bachelor'
p2858
tp2859
F0.0004068348250610252
s(S'was'
p2860
S'raised'
p2861
g1660
tp2862
F0.0008136696501220504
s(S'then'
p2863
S'moved'
p2864
S'onto'
p2865
tp2866
F0.0004068348250610252
s(S'[[num]]'
p2867
S'year'
p2868
S'with'
p2869
tp2870
F0.0004068348250610252
s(S'then'
p2871
S'moved'
p2872
S'over'
p2873
tp2874
F0.0004068348250610252
s(S'graduated'
p2875
S'then'
p2876
S'attended'
p2877
tp2878
F0.0008136696501220504
s(S'who'
p2879
S'served'
p2880
S'as'
p2881
tp2882
F0.0004068348250610252
s(g442
g443
S'from'
p2883
tp2884
F0.0016273393002441008
s(S'recently'
p2885
g2083
g659
tp2886
F0.0004068348250610252
s(g2064
g85
g86
tp2887
F0.0012205044751830757
s(S'has'
p2888
S'degree'
p2889
S'[[con]]'
p2890
tp2891
F0.0004068348250610252
s(S'also'
p2892
S'awarded'
p2893
S'[[det]]'
p2894
tp2895
F0.0004068348250610252
s(S'had'
p2896
S'earned'
p2897
S'[[det]]'
p2898
tp2899
F0.0004068348250610252
s(S'now'
p2900
S'holds'
p2901
S'[[det]]'
p2902
tp2903
F0.0004068348250610252
s(S'was'
p2904
S'awarded'
p2905
S'[[adj]]'
p2906
tp2907
F0.0004068348250610252
s(g27
g2401
g2402
tp2908
F0.007729861676159479
s(S'has'
p2909
S'attended'
p2910
S'[[det]]'
p2911
tp2912
F0.0004068348250610252
s(S'[[num]]'
p2913
S'graduate'
p2914
S'from'
p2915
tp2916
F0.0004068348250610252
s(S'[[con]]'
p2917
S'then'
p2918
S'attended'
p2919
tp2920
F0.0012205044751830757
s(g340
g341
g392
tp2921
F0.0012205044751830757
s(S'where'
p2922
S'received'
p2923
S'in'
p2924
tp2925
F0.0004068348250610252
s(S'[[con]]'
p2926
S'returned'
p2927
S'at'
p2928
tp2929
F0.0004068348250610252
s(S'has'
p2930
S'earned'
p2931
S'from'
p2932
tp2933
F0.0004068348250610252
s(S'also'
p2934
S'attended'
p2935
S'[[con]]'
p2936
tp2937
F0.0012205044751830757
s(S'is'
p2938
S'professor'
p2939
S'in'
p2940
tp2941
F0.0004068348250610252
s(S'completed'
p2942
g763
g764
tp2943
F0.0004068348250610252
s(S'where'
p2944
S'studied'
p2945
S'at'
p2946
tp2947
F0.0004068348250610252
s(S'has'
p2948
S'degree'
p2949
S'from'
p2950
tp2951
F0.0004068348250610252
s(S'also'
p2952
S'teaches'
p2953
S'[[adj]]'
p2954
tp2955
F0.0004068348250610252
s(g2470
g2471
S'school'
p2956
tp2957
F0.0008136696501220504
s(S'also'
p2958
S'continued'
p2959
S'[[prp]]'
p2960
tp2961
F0.0004068348250610252
s(S'[[det]]'
p2962
S'graduate'
p2963
S'from'
p2964
tp2965
F0.0004068348250610252
s(S'[[con]]'
p2966
S'director'
p2967
S'[[det]]'
p2968
tp2969
F0.0004068348250610252
s(S'later'
p2970
S'served'
p2971
S'in'
p2972
tp2973
F0.0004068348250610252
s(S'received'
p2974
S'degree'
p2975
S'at'
p2976
tp2977
F0.0004068348250610252
s(S'has'
p2978
S'received'
p2979
S'in'
p2980
tp2981
F0.0004068348250610252
s(S'[[det]]'
p2982
S'director'
p2983
S'[[det]]'
p2984
tp2985
F0.0004068348250610252
s(g1989
g737
g738
tp2986
F0.004475183075671277
s(S'before'
p2987
S'transferring'
p2988
S'to'
p2989
tp2990
F0.0012205044751830757
s(S'also'
p2991
S'attended'
p2992
S'for'
p2993
tp2994
F0.0004068348250610252
s(S'degree'
p2995
S'[[det]]'
p2996
S'master'
p2997
tp2998
F0.0004068348250610252
s(S'been'
p2999
S'awarded'
p3000
S'from'
p3001
tp3002
F0.0004068348250610252
s(S'has'
p3003
S'given'
p3004
S'at'
p3005
tp3006
F0.0004068348250610252
s(S'[[adj]]'
p3007
S'education'
p3008
S'from'
p3009
tp3010
F0.0012205044751830757
s(S'later'
p3011
S'completed'
p3012
S'[[adj]]'
p3013
tp3014
F0.0004068348250610252
s(g726
g727
S'based'
p3015
tp3016
F0.0004068348250610252
s(g2836
g2837
S'[[con]]'
p3017
tp3018
F0.0004068348250610252
s(S'[[adj]]'
p3019
S'studied'
p3020
S'at'
p3021
tp3022
F0.0004068348250610252
s(S'later'
p3023
S'served'
p3024
S'to'
p3025
tp3026
F0.0004068348250610252
s(g1715
g1716
g1530
tp3027
F0.0004068348250610252
s(S'undergraduate'
p3028
S'degree'
p3029
S'at'
p3030
tp3031
F0.0004068348250610252
s(S'was'
p3032
S'admitted'
p3033
S'as'
p3034
tp3035
F0.0004068348250610252
s(g438
g439
g165
tp3036
F0.0040683482506102524
s(S'then'
p3037
S'obtained'
p3038
S'[[det]]'
p3039
tp3040
F0.0008136696501220504
s(S'was'
p3041
S'enrolled'
p3042
S'at'
p3043
tp3044
F0.0004068348250610252
s(S'then'
p3045
S'transferred'
p3046
S'to'
p3047
tp3048
F0.0004068348250610252
s(S'later'
p3049
S'received'
p3050
S'[[det]]'
p3051
tp3052
F0.0020341741253051262
s(S'when'
p3053
S'attended'
p3054
S'[[det]]'
p3055
tp3056
F0.0004068348250610252
s(S'had'
p3057
S'received'
p3058
S'[[prp]]'
p3059
tp3060
F0.0004068348250610252
s(S'also'
p3061
S'taught'
p3062
S'[[con]]'
p3063
tp3064
F0.0004068348250610252
s(S'[[adj]]'
p3065
S'professor'
p3066
S'for'
p3067
tp3068
F0.0004068348250610252
s(g2224
g2225
S'[[det]]'
p3069
tp3070
F0.0004068348250610252
s(S'[[det]]'
p3071
S'degree'
p3072
S'[[det]]'
p3073
tp3074
F0.0008136696501220504
s(S'also'
p3075
S'earned'
p3076
S'in'
p3077
tp3078
F0.0004068348250610252
s(g1505
g1506
S'at'
p3079
tp3080
F0.0004068348250610252
s(g564
g565
S'from'
p3081
tp3082
F0.0004068348250610252
s(S'[[num]]'
p3083
S'served'
p3084
S'in'
p3085
tp3086
F0.0004068348250610252
s(S'holds'
p3087
S'degrees'
p3088
S'[[con]]'
p3089
tp3090
F0.0004068348250610252
s(S'received'
p3091
S'[[prp]]'
p3092
S'law'
p3093
tp3094
F0.0016273393002441008
s(S'earned'
p3095
S'degree'
p3096
S'in'
p3097
tp3098
F0.0004068348250610252
s(S'[[det]]'
p3099
S'education'
p3100
S'from'
p3101
tp3102
F0.0004068348250610252
s(g165
S'degree'
p3103
g741
tp3104
F0.007323026851098454
s(S'also'
p3105
S'earned'
p3106
S'at'
p3107
tp3108
F0.0004068348250610252
s(S'then'
p3109
S'appointed'
p3110
S'of'
p3111
tp3112
F0.0004068348250610252
s(g226
g227
S'degree'
p3113
tp3114
F0.0004068348250610252
s(g636
g637
g165
tp3115
F0.018307567127746133
s(S'attended'
p3116
g2987
g2988
tp3117
F0.0016273393002441008
s(S'[[det]]'
p3118
S'president'
p3119
S'of'
p3120
tp3121
F0.0004068348250610252
s(S'first'
p3122
S'attended'
p3123
S'in'
p3124
tp3125
F0.0004068348250610252
s(g2053
S'educated'
p3126
S'[[con]]'
p3127
tp3128
F0.0004068348250610252
s(S'received'
p3129
S'[[adj]]'
p3130
S'doctorate'
p3131
tp3132
F0.0004068348250610252
s(S'was'
p3133
S'dropped'
p3134
S'for'
p3135
tp3136
F0.0004068348250610252
s(g165
S'[[det]]'
p3137
S'master'
p3138
tp3139
F0.0012205044751830757
s(S'also'
p3140
S'holds'
p3141
S'from'
p3142
tp3143
F0.0004068348250610252
s(S'received'
p3144
S'[[prp]]'
p3145
S'[[adj]]'
p3146
tp3147
F0.004475183075671277
s(S'had'
p3148
S'moved'
p3149
S'on'
p3150
tp3151
F0.0004068348250610252
s(S'[[adj]]'
p3152
S'school'
p3153
S'at'
p3154
tp3155
F0.0028478437754271765
s(g918
g919
S'by'
p3156
tp3157
F0.0004068348250610252
s(S'where'
p3158
S'taught'
p3159
S'in'
p3160
tp3161
F0.0004068348250610252
s(S'also'
p3162
S'holds'
p3163
S'[[adj]]'
p3164
tp3165
F0.0008136696501220504
s(g742
g743
S'from'
p3166
tp3167
F0.0008136696501220504
s(S'is'
p3168
S'transferred'
p3169
S'to'
p3170
tp3171
F0.0004068348250610252
s(g1646
S'degree'
p3172
S'in'
p3173
tp3174
F0.0004068348250610252
s(S'then'
p3175
S'completed'
p3176
S'from'
p3177
tp3178
F0.0004068348250610252
s(g261
g262
S'educated'
p3179
tp3180
F0.0004068348250610252
s(g439
g165
g349
tp3181
F0.003661513425549227
s(S'[[mod]]'
p3182
S'study'
p3183
S'under'
p3184
tp3185
F0.0004068348250610252
s(S'was'
p3186
S'born'
p3187
S'attended'
p3188
tp3189
F0.0008136696501220504
s(S'received'
p3190
g2328
g2329
tp3191
F0.0016273393002441008
s(S'masters'
p3192
S'degree'
p3193
S'at'
p3194
tp3195
F0.0004068348250610252
s(S'holds'
p3196
S'degree'
p3197
S'[[con]]'
p3198
tp3199
F0.0004068348250610252
s(S'was'
p3200
S'graduated'
p3201
S'from'
p3202
tp3203
F0.0012205044751830757
s(S'[[adj]]'
p3204
S'president'
p3205
S'at'
p3206
tp3207
F0.0004068348250610252
s(S'[[det]]'
p3208
S'year'
p3209
S'for'
p3210
tp3211
F0.0004068348250610252
s(S'has'
p3212
S'served'
p3213
S'where'
p3214
tp3215
F0.0004068348250610252
s(S'later'
p3216
S'studied'
p3217
S'[[con]]'
p3218
tp3219
F0.0004068348250610252
s(S'later'
p3220
S'obtained'
p3221
S'in'
p3222
tp3223
F0.0004068348250610252
s(S'[[prp]]'
p3224
S'studies'
p3225
S'[[con]]'
p3226
tp3227
F0.0004068348250610252
s(S'became'
p3228
S'director'
p3229
S'of'
p3230
tp3231
F0.0004068348250610252
s(g1680
g426
g427
tp3232
F0.0016273393002441008
s(S'become'
p3233
S'director'
p3234
S'at'
p3235
tp3236
F0.0004068348250610252
s(S'[[con]]'
p3237
S'served'
p3238
S'for'
p3239
tp3240
F0.0004068348250610252
s(S'[[det]]'
p3241
S'year'
p3242
S'[[num]]'
p3243
tp3244
F0.0004068348250610252
s(S'[[det]]'
p3245
S'awarded'
p3246
S'by'
p3247
tp3248
F0.0004068348250610252
s(S'[[pro]]'
p3249
S'[[adj]]'
p3250
S'education'
p3251
tp3252
F0.0008136696501220504
s(S'then'
p3253
S'spent'
p3254
S'[[num]]'
p3255
tp3256
F0.0004068348250610252
s(S'[[det]]'
p3257
S'alumnus'
p3258
S'[[con]]'
p3259
tp3260
F0.0004068348250610252
s(S'born'
p3261
S'in'
p3262
S'where'
p3263
tp3264
F0.0008136696501220504
s(S'also'
p3265
S'received'
p3266
S'[[det]]'
p3267
tp3268
F0.0024410089503661514
s(S'continued'
p3269
S'[[prp]]'
p3270
S'education'
p3271
tp3272
F0.0028478437754271765
s(S'then'
p3273
S'moved'
p3274
S'at'
p3275
tp3276
F0.0004068348250610252
s(S'holds'
p3277
S'[[det]]'
p3278
S'degrees'
p3279
tp3280
F0.0004068348250610252
s(S'earned'
p3281
S'[[det]]'
p3282
S'master'
p3283
tp3284
F0.004882017900732303
s(g1645
g1646
g3172
tp3285
F0.0012205044751830757
s(S'[[adj]]'
p3286
S'graduate'
p3287
S'from'
p3288
tp3289
F0.0008136696501220504
s(S'then'
p3290
g2817
g304
tp3291
F0.0004068348250610252
s(S'is'
p3292
S'director'
p3293
S'at'
p3294
tp3295
F0.0004068348250610252
s(g750
g751
S'at'
p3296
tp3297
F0.0004068348250610252
s(S'[[adj]]'
p3298
S'director'
p3299
S'of'
p3300
tp3301
F0.0004068348250610252
s(S'[[con]]'
p3302
S'attended'
p3303
S'[[con]]'
p3304
tp3305
F0.0016273393002441008
s(S'was'
p3306
S'given'
p3307
S'as'
p3308
tp3309
F0.0004068348250610252
s(S'has'
p3310
S'served'
p3311
S'before'
p3312
tp3313
F0.0004068348250610252
s(g2134
g2135
S'[[prp]]'
p3314
tp3315
F0.0004068348250610252
s(S'was'
p3316
S'president'
p3317
S'at'
p3318
tp3319
F0.0004068348250610252
s(S'also'
p3320
S'attended'
p3321
S'in'
p3322
tp3323
F0.0004068348250610252
s(S'was'
p3324
g101
g102
tp3325
F0.0008136696501220504
s(S'attended'
p3326
S'graduated'
p3327
S'from'
p3328
tp3329
F0.0004068348250610252
s(S'was'
p3330
S'dropped'
p3331
S'from'
p3332
tp3333
F0.0004068348250610252
s(S'currently'
p3334
S'teaches'
p3335
S'in'
p3336
tp3337
F0.0004068348250610252
s(g660
g661
g1973
tp3338
F0.0004068348250610252
s(S'[[con]]'
p3339
S'graduated'
p3340
S'in'
p3341
tp3342
F0.0004068348250610252
s(S'[[con]]'
p3343
S'educated'
p3344
S'there'
p3345
tp3346
F0.0004068348250610252
s(S'also'
p3347
S'attended'
p3348
S'at'
p3349
tp3350
F0.0004068348250610252
s(S'has'
p3351
S'degree'
p3352
S'in'
p3353
tp3354
F0.0004068348250610252
s(S'[[con]]'
p3355
S'obtained'
p3356
S'[[det]]'
p3357
tp3358
F0.0004068348250610252
s(S'has'
p3359
S'attended'
p3360
S'in'
p3361
tp3362
F0.0004068348250610252
s(S'then'
p3363
S'enrolled'
p3364
S'in'
p3365
tp3366
F0.0004068348250610252
s(S'had'
p3367
S'completed'
p3368
S'from'
p3369
tp3370
F0.0004068348250610252
s(S'[[con]]'
p3371
S'president'
p3372
S'of'
p3373
tp3374
F0.0004068348250610252
s(S'to'
p3375
g1346
g1347
tp3376
F0.0008136696501220504
s(S'[[adj]]'
p3377
S'attended'
p3378
S'[[det]]'
p3379
tp3380
F0.0004068348250610252
s(S'[[num]]'
p3381
S'graduated'
p3382
S'from'
p3383
tp3384
F0.0008136696501220504
s(S'to'
p3385
S'study'
p3386
S'at'
p3387
tp3388
F0.0004068348250610252
s(S'[[con]]'
p3389
S'served'
p3390
S'to'
p3391
tp3392
F0.0004068348250610252
s(S'was'
p3393
S'director'
p3394
S'[[con]]'
p3395
tp3396
F0.0004068348250610252
s(S'then'
p3397
S'enrolled'
p3398
S'at'
p3399
tp3400
F0.0004068348250610252
s(S'[[adj]]'
p3401
S'served'
p3402
S'at'
p3403
tp3404
F0.0004068348250610252
s(S'then'
p3405
S'attended'
p3406
S'now'
p3407
tp3408
F0.0004068348250610252
s(S'also'
p3409
S'served'
p3410
S'[[num]]'
p3411
tp3412
F0.0004068348250610252
s(S'had'
p3413
S'served'
p3414
S'as'
p3415
tp3416
F0.0004068348250610252
s(S'[[con]]'
p3417
S'served'
p3418
S'[[det]]'
p3419
tp3420
F0.0004068348250610252
s(S'before'
p3421
S'going'
p3422
S'to'
p3423
tp3424
F0.0004068348250610252
s(S'also'
p3425
S'appointed'
p3426
S'in'
p3427
tp3428
F0.0004068348250610252
s(S'also'
p3429
S'enrolled'
p3430
S'at'
p3431
tp3432
F0.0004068348250610252
s(S'formerly'
p3433
S'served'
p3434
S'in'
p3435
tp3436
F0.0004068348250610252
s(S'later'
p3437
S'attended'
p3438
S'at'
p3439
tp3440
F0.0004068348250610252
s(S'to'
p3441
S'complete'
p3442
S'[[det]]'
p3443
tp3444
F0.0004068348250610252
s(g1742
S'degree'
p3445
S'[[con]]'
p3446
tp3447
F0.0016273393002441008
s(S'was'
p3448
S'enrolled'
p3449
S'as'
p3450
tp3451
F0.0004068348250610252
s(S'has'
p3452
S'taught'
p3453
S'for'
p3454
tp3455
F0.0004068348250610252
s(S'earned'
p3456
S'degree'
p3457
S'[[con]]'
p3458
tp3459
F0.0004068348250610252
s(S'later'
p3460
S'graduated'
p3461
S'at'
p3462
tp3463
F0.0004068348250610252
s(g2861
g1660
g1661
tp3464
F0.0004068348250610252
s(S'also'
p3465
S'awarded'
p3466
S'by'
p3467
tp3468
F0.0004068348250610252
s(S'has'
p3469
S'taught'
p3470
S'at'
p3471
tp3472
F0.0004068348250610252
s(S'then'
p3473
S'received'
p3474
S'at'
p3475
tp3476
F0.0004068348250610252
s(g738
g739
S'from'
p3477
tp3478
F0.0016273393002441008
s(S'holds'
p3479
S'degrees'
p3480
S'from'
p3481
tp3482
F0.0004068348250610252
s(S'again'
p3483
S'served'
p3484
S'to'
p3485
tp3486
F0.0004068348250610252
s(S'later'
p3487
S'appointed'
p3488
S'to'
p3489
tp3490
F0.0004068348250610252
s(S'became'
p3491
S'professor'
p3492
S'[[con]]'
p3493
tp3494
F0.0004068348250610252
s(S'[[con]]'
p3495
S'studied'
p3496
S'at'
p3497
tp3498
F0.0004068348250610252
s(S'had'
p3499
S'obtained'
p3500
S'[[det]]'
p3501
tp3502
F0.0004068348250610252
s(S'later'
p3503
S'entered'
p3504
S'[[det]]'
p3505
tp3506
F0.0004068348250610252
s(S'also'
p3507
S'served'
p3508
S'at'
p3509
tp3510
F0.0004068348250610252
s(S'holds'
p3511
S'[[adj]]'
p3512
S'degrees'
p3513
tp3514
F0.0016273393002441008
s(g2428
g2429
S'from'
p3515
tp3516
F0.0008136696501220504
s(S'later'
p3517
S'attended'
p3518
S'[[con]]'
p3519
tp3520
F0.0008136696501220504
s(S'soon'
p3521
S'returned'
p3522
S'to'
p3523
tp3524
F0.0004068348250610252
s(S'later'
p3525
S'served'
p3526
S'[[adj]]'
p3527
tp3528
F0.0004068348250610252
s(S'is'
p3529
S'director'
p3530
S'of'
p3531
tp3532
F0.0004068348250610252
s(S'also'
p3533
S'president'
p3534
S'in'
p3535
tp3536
F0.0004068348250610252
s(S'been'
p3537
S'professor'
p3538
S'at'
p3539
tp3540
F0.0004068348250610252
s(S'became'
p3541
S'president'
p3542
S'[[con]]'
p3543
tp3544
F0.0004068348250610252
s(S'then'
p3545
S'attended'
p3546
S'of'
p3547
tp3548
F0.0004068348250610252
s(S'then'
p3549
S'taught'
p3550
S'[[num]]'
p3551
tp3552
F0.0004068348250610252
s(S'had'
p3553
S'served'
p3554
S'in'
p3555
tp3556
F0.0004068348250610252
s(S'[[con]]'
p3557
S'entered'
p3558
S'[[det]]'
p3559
tp3560
F0.0004068348250610252
s(S'since'
p3561
S'served'
p3562
S'in'
p3563
tp3564
F0.0004068348250610252
s(g1049
g1050
S'degree'
p3565
tp3566
F0.0004068348250610252
s(S'later'
p3567
S'obtained'
p3568
S'degree'
p3569
tp3570
F0.0004068348250610252
s(g2636
g2637
S'at'
p3571
tp3572
F0.0004068348250610252
s(S'now'
p3573
S'teaches'
p3574
S'at'
p3575
tp3576
F0.0004068348250610252
s(S'has'
p3577
g3281
g3282
tp3578
F0.0008136696501220504
s(g1798
g1799
S'attended'
p3579
tp3580
F0.0004068348250610252
s(S'been'
p3581
S'president'
p3582
S'[[con]]'
p3583
tp3584
F0.0004068348250610252
s(S'continued'
p3585
g1698
g1699
tp3586
F0.0004068348250610252
s(S'[[det]]'
p3587
S'director'
p3588
S'of'
p3589
tp3590
F0.0004068348250610252
s(S'[[adj]]'
p3591
S'school'
p3592
S'of'
p3593
tp3594
F0.0004068348250610252
s(S'also'
p3595
S'attended'
p3596
S'[[adj]]'
p3597
tp3598
F0.0004068348250610252
s(S'is'
p3599
S'professor'
p3600
S'[[con]]'
p3601
tp3602
F0.0004068348250610252
s(S'later'
p3603
S'returned'
p3604
S'to'
p3605
tp3606
F0.0004068348250610252
s(S'when'
p3607
S'transferred'
p3608
S'to'
p3609
tp3610
F0.0004068348250610252
s(S'[[con]]'
p3611
S'[[num]]'
p3612
S'graduated'
p3613
tp3614
F0.0004068348250610252
s(S'have'
p3615
S'attended'
p3616
S'[[det]]'
p3617
tp3618
F0.0004068348250610252
s(g2581
g2582
S'law'
p3619
tp3620
F0.0008136696501220504
s(S'[[det]]'
p3621
S'president'
p3622
S'which'
p3623
tp3624
F0.0004068348250610252
s(S'in'
p3625
S'[[con]]'
p3626
S'educated'
p3627
tp3628
F0.0004068348250610252
s(S'been'
p3629
S'awarded'
p3630
S'[[det]]'
p3631
tp3632
F0.0004068348250610252
s(S'graduated'
p3633
g2917
g2918
tp3634
F0.0008136696501220504
s(g2724
g2725
S'from'
p3635
tp3636
F0.0016273393002441008
s(S'educated'
p3637
g430
g431
tp3638
F0.0004068348250610252
s(S'also'
p3639
S'studied'
p3640
S'at'
p3641
tp3642
F0.0004068348250610252
s(S'has'
p3643
S'taught'
p3644
S'in'
p3645
tp3646
F0.0004068348250610252
s(g3512
g3513
S'from'
p3647
tp3648
F0.0016273393002441008
s(S'undergraduate'
p3649
S'degree'
p3650
S'from'
p3651
tp3652
F0.0012205044751830757
s(S'to'
p3653
S'obtain'
p3654
S'[[det]]'
p3655
tp3656
F0.0004068348250610252
s(S'was'
p3657
S'professor'
p3658
S'for'
p3659
tp3660
F0.0004068348250610252
s(S'been'
p3661
S'professor'
p3662
S'of'
p3663
tp3664
F0.0004068348250610252
s(g1148
g1149
S'degree'
p3665
tp3666
F0.0004068348250610252
s(S'then'
p3667
S'studied'
p3668
S'at'
p3669
tp3670
F0.0004068348250610252
s(g2166
g2167
S'attended'
p3671
tp3672
F0.0004068348250610252
s(S'[[con]]'
p3673
S'attended'
p3674
S'at'
p3675
tp3676
F0.0008136696501220504
s(S'[[prp]]'
p3677
g2411
g2412
tp3678
F0.0008136696501220504
s(g2321
g2322
S'degree'
p3679
tp3680
F0.0004068348250610252
s(S'[[con]]'
p3681
S'attended'
p3682
S'[[adj]]'
p3683
tp3684
F0.0004068348250610252
s(S'holds'
p3685
S'[[det]]'
p3686
S'degree'
p3687
tp3688
F0.0052888527257933275
s(S'later'
p3689
S'attended'
p3690
S'of'
p3691
tp3692
F0.0004068348250610252
s(S'obtained'
p3693
S'[[det]]'
p3694
S'degree'
p3695
tp3696
F0.0032546786004882017
s(S'[[con]]'
p3697
S'enrolled'
p3698
S'at'
p3699
tp3700
F0.0004068348250610252
s(S'was'
p3701
g1907
g1908
tp3702
F0.0012205044751830757
s(S'studied'
p3703
S'architecture'
p3704
S'at'
p3705
tp3706
F0.0008136696501220504
s(S'also'
p3707
S'received'
p3708
S'degree'
p3709
tp3710
F0.0004068348250610252
s(S'currently'
p3711
S'holds'
p3712
S'[[det]]'
p3713
tp3714
F0.0004068348250610252
s(S'later'
p3715
S'graduated'
p3716
S'from'
p3717
tp3718
F0.0008136696501220504
s(S'also'
p3719
S'taught'
p3720
S'at'
p3721
tp3722
F0.0004068348250610252
s(S'then'
p3723
S'appointed'
p3724
S'[[pro]]'
p3725
tp3726
F0.0004068348250610252
s(S'[[con]]'
p3727
S'graduated'
p3728
S'[[det]]'
p3729
tp3730
F0.0004068348250610252
s(g1716
g1530
g1531
tp3731
F0.0004068348250610252
s(S'bachelor'
p3732
S'degree'
p3733
S'from'
p3734
tp3735
F0.0012205044751830757
s(S'was'
p3736
S'given'
p3737
S'at'
p3738
tp3739
F0.0004068348250610252
s(S'now'
p3740
S'teaches'
p3741
S'in'
p3742
tp3743
F0.0004068348250610252
s(S'[[adj]]'
p3744
S'doctorate'
p3745
S'in'
p3746
tp3747
F0.0008136696501220504
s(S'[[det]]'
p3748
S'year'
p3749
S'to'
p3750
tp3751
F0.0004068348250610252
s(S'later'
p3752
S'earned'
p3753
S'from'
p3754
tp3755
F0.0004068348250610252
s(g727
g3015
S'in'
p3756
tp3757
F0.0004068348250610252
s(S'has'
p3758
S'attended'
p3759
S'[[con]]'
p3760
tp3761
F0.0004068348250610252
s(S'then'
p3762
S'completed'
p3763
S'at'
p3764
tp3765
F0.0004068348250610252
s(S'earned'
p3766
S'[[prp]]'
p3767
S'master'
p3768
tp3769
F0.0008136696501220504
s(g2008
g2009
S'from'
p3770
tp3771
F0.0012205044751830757
s(S'later'
p3772
S'served'
p3773
S'[[con]]'
p3774
tp3775
F0.0004068348250610252
s(S'was'
p3776
S'awarded'
p3777
S'by'
p3778
tp3779
F0.0004068348250610252
s(S'first'
p3780
S'studied'
p3781
S'at'
p3782
tp3783
F0.0004068348250610252
s(S'was'
p3784
S'transferred'
p3785
S'in'
p3786
tp3787
F0.0004068348250610252
s(S'also'
p3788
S'appointed'
p3789
S'[[num]]'
p3790
tp3791
F0.0004068348250610252
s(S'studied'
p3792
S'architecture'
p3793
S'[[con]]'
p3794
tp3795
F0.0004068348250610252
s(S'first'
p3796
S'studied'
p3797
S'[[con]]'
p3798
tp3799
F0.0004068348250610252
s(S'[[num]]'
p3800
S'graduate'
p3801
S'[[con]]'
p3802
tp3803
F0.0008136696501220504
s(S'first'
p3804
g3116
g2987
tp3805
F0.0004068348250610252
s(S'attended'
p3806
S'[[con]]'
p3807
S'school'
p3808
tp3809
F0.0004068348250610252
s(S'[[det]]'
p3810
S'graduate'
p3811
S'[[det]]'
p3812
tp3813
F0.0004068348250610252
s(S'has'
p3814
S'received'
p3815
S'[[num]]'
p3816
tp3817
F0.0004068348250610252
s(S'been'
p3818
S'awarded'
p3819
S'by'
p3820
tp3821
F0.0004068348250610252
s(S'[[con]]'
p3822
S'taught'
p3823
S'at'
p3824
tp3825
F0.0004068348250610252
s(S'[[mod]]'
p3826
S'attend'
p3827
S'[[det]]'
p3828
tp3829
F0.0004068348250610252
s(S'was'
p3830
S'moved'
p3831
S'back'
p3832
tp3833
F0.0004068348250610252
s(S'then'
p3834
S'earned'
p3835
S'[[det]]'
p3836
tp3837
F0.0028478437754271765
s(S'[[det]]'
p3838
S'professor'
p3839
S'[[num]]'
p3840
tp3841
F0.0004068348250610252
s(g62
g63
S'[[con]]'
p3842
tp3843
F0.0004068348250610252
s(S'also'
p3844
S'served'
p3845
S'until'
p3846
tp3847
F0.0004068348250610252
s(g780
g781
S'law'
p3848
tp3849
F0.0004068348250610252
s(S'later'
p3850
S'earned'
p3851
S'in'
p3852
tp3853
F0.0004068348250610252
s(S'then'
p3854
S'appointed'
p3855
S'for'
p3856
tp3857
F0.0004068348250610252
s(S'[[adj]]'
p3858
S'graduate'
p3859
S'of'
p3860
tp3861
F0.0004068348250610252
s(S'[[det]]'
p3862
S'president'
p3863
S'[[adj]]'
p3864
tp3865
F0.0004068348250610252
s(S'also'
p3866
S'completed'
p3867
S'[[con]]'
p3868
tp3869
F0.0004068348250610252
s(S'[[det]]'
p3870
S'graduate'
p3871
S'[[con]]'
p3872
tp3873
F0.0020341741253051262
s(S'then'
p3874
S'entered'
p3875
S'[[det]]'
p3876
tp3877
F0.0004068348250610252
s(S'[[con]]'
p3878
S'professor'
p3879
S'in'
p3880
tp3881
F0.0004068348250610252
s(S'has'
p3882
S'served'
p3883
S'at'
p3884
tp3885
F0.0004068348250610252
s(S'received'
p3886
g1897
g1378
tp3887
F0.0028478437754271765
s(g1415
g1416
S'then'
p3888
tp3889
F0.0004068348250610252
s(S'was'
p3890
S'entered'
p3891
S'at'
p3892
tp3893
F0.0004068348250610252
s(S'then'
p3894
S'served'
p3895
S'at'
p3896
tp3897
F0.0004068348250610252
s(S'then'
p3898
S'attended'
p3899
S'school'
p3900
tp3901
F0.0004068348250610252
s(S'also'
p3902
S'holds'
p3903
S'degree'
p3904
tp3905
F0.0008136696501220504
s(S'had'
p3906
S'migrated'
p3907
S'to'
p3908
tp3909
F0.0004068348250610252
s(S'has'
p3910
S'served'
p3911
S'on'
p3912
tp3913
F0.0004068348250610252
s(S'then'
p3914
S'moved'
p3915
S'into'
p3916
tp3917
F0.0004068348250610252
s(g165
S'degrees'
p3918
S'at'
p3919
tp3920
F0.0008136696501220504
s(S'later'
p3921
S'earned'
p3922
S'[[det]]'
p3923
tp3924
F0.0008136696501220504
s(S'then'
p3925
S'director'
p3926
S'of'
p3927
tp3928
F0.0004068348250610252
s(S'then'
p3929
S'served'
p3930
S'in'
p3931
tp3932
F0.0004068348250610252
s(S'graduated'
p3933
S'[[con]]'
p3934
S'holds'
p3935
tp3936
F0.0008136696501220504
s(S'was'
p3937
g25
g26
tp3938
F0.009764035801464606
s(S'later'
p3939
S'served'
p3940
S'at'
p3941
tp3942
F0.0004068348250610252
s(S'later'
p3943
S'completed'
p3944
S'at'
p3945
tp3946
F0.0004068348250610252
s(S'degree'
p3947
g2405
g2406
tp3948
F0.0004068348250610252
s(S'became'
p3949
S'president'
p3950
S'of'
p3951
tp3952
F0.0004068348250610252
s(S'then'
p3953
S'awarded'
p3954
S'[[det]]'
p3955
tp3956
F0.0004068348250610252
s(S'raised'
p3957
g21
g22
tp3958
F0.0004068348250610252
s(S'later'
p3959
S'earned'
p3960
S'degree'
p3961
tp3962
F0.0004068348250610252
s(S'is'
p3963
S'director'
p3964
S'[[con]]'
p3965
tp3966
F0.0004068348250610252
s(S'bachelor'
p3967
g165
g3137
tp3968
F0.0020341741253051262
s(S'[[prp]]'
p3969
S'degree'
p3970
S'at'
p3971
tp3972
F0.0012205044751830757
s(S'be'
p3973
S'returned'
p3974
S'to'
p3975
tp3976
F0.0004068348250610252
s(g102
g103
S'educated'
p3977
tp3978
F0.0008136696501220504
s(S'was'
p3979
S'transferred'
p3980
S'for'
p3981
tp3982
F0.0004068348250610252
s(S'been'
p3983
S'awarded'
p3984
S'[[con]]'
p3985
tp3986
F0.0004068348250610252
s(S'was'
p3987
S'given'
p3988
S'by'
p3989
tp3990
F0.0004068348250610252
s(S'[[prp]]'
p3991
S'degree'
p3992
S'in'
p3993
tp3994
F0.0012205044751830757
s(S'graduated'
p3995
S'[[con]]'
p3996
S'attended'
p3997
tp3998
F0.0016273393002441008
s(S'[[adj]]'
p3999
S'director'
p4000
S'for'
p4001
tp4002
F0.0004068348250610252
s(g2471
g2956
S'[[con]]'
p4003
tp4004
F0.0016273393002441008
s(S'[[pro]]'
p4005
S'studied'
p4006
S'at'
p4007
tp4008
F0.0004068348250610252
s(S'to'
p4009
S'attend'
p4010
S'[[con]]'
p4011
tp4012
F0.0004068348250610252
s(S'[[con]]'
p4013
S'later'
p4014
S'received'
p4015
tp4016
F0.0008136696501220504
s(S'has'
p4017
S'taught'
p4018
S'[[det]]'
p4019
tp4020
F0.0004068348250610252
s(S'[[det]]'
p4021
S'doctorate'
p4022
S'at'
p4023
tp4024
F0.0004068348250610252
s(S'also'
p4025
S'served'
p4026
S'from'
p4027
tp4028
F0.0004068348250610252
s(S'[[con]]'
p4029
S'received'
p4030
S'in'
p4031
tp4032
F0.0004068348250610252
s(S'[[prp]]'
p4033
S'doctorate'
p4034
S'at'
p4035
tp4036
F0.0004068348250610252
s(S'[[con]]'
p4037
S'graduated'
p4038
S'at'
p4039
tp4040
F0.0008136696501220504
s(S'[[adj]]'
p4041
S'degree'
p4042
S'at'
p4043
tp4044
F0.0032546786004882017
s(g321
g322
g2066
tp4045
F0.0004068348250610252
s(S'graduated'
p4046
g4013
g4014
tp4047
F0.0012205044751830757
s(S'has'
p4048
S'obtained'
p4049
S'[[det]]'
p4050
tp4051
F0.0004068348250610252
s(g2225
g3069
S'boarder'
p4052
tp4053
F0.0004068348250610252
s(S'year'
p4054
g3421
g3422
tp4055
F0.0004068348250610252
s(S'[[con]]'
p4056
S'graduated'
p4057
S'from'
p4058
tp4059
F0.0020341741253051262
s(S'to'
p4060
S'study'
p4061
S'[[con]]'
p4062
tp4063
F0.0004068348250610252
s(S'[[con]]'
p4064
S'received'
p4065
S'at'
p4066
tp4067
F0.0008136696501220504
s(g3103
g741
g742
tp4068
F0.0016273393002441008
s(S'had'
p4069
S'transferred'
p4070
S'to'
p4071
tp4072
F0.0004068348250610252
s(S'[[pro]]'
p4073
S'graduated'
p4074
S'from'
p4075
tp4076
F0.0004068348250610252
s(g249
g250
S'graduated'
p4077
tp4078
F0.0004068348250610252
s(S'became'
p4079
S'professor'
p4080
S'at'
p4081
tp4082
F0.0004068348250610252
s(S'[[adj]]'
p4083
S'served'
p4084
S'for'
p4085
tp4086
F0.0004068348250610252
s(S'then'
p4087
S'returned'
p4088
S'at'
p4089
tp4090
F0.0004068348250610252
s(S'currently'
p4091
S'teaches'
p4092
S'[[adj]]'
p4093
tp4094
F0.0004068348250610252
s(g227
g3113
S'from'
p4095
tp4096
F0.0008136696501220504
s(S'also'
p4097
S'served'
p4098
S'on'
p4099
tp4100
F0.0004068348250610252
s(S'then'
p4101
S'earned'
p4102
S'[[prp]]'
p4103
tp4104
F0.0004068348250610252
s(S'attended'
p4105
S'school'
p4106
S'[[con]]'
p4107
tp4108
F0.0004068348250610252
s(S'[[adj]]'
p4109
S'director'
p4110
S'[[num]]'
p4111
tp4112
F0.0004068348250610252
s(g3278
g3279
S'from'
p4113
tp4114
F0.0004068348250610252
s(S'[[det]]'
p4115
g1366
g1367
tp4116
F0.0008136696501220504
s(S'[[det]]'
p4117
S'professor'
p4118
S'from'
p4119
tp4120
F0.0004068348250610252
s(g848
g849
S'at'
p4121
tp4122
F0.0032546786004882017
s(S'also'
p4123
S'received'
p4124
S'from'
p4125
tp4126
F0.0004068348250610252
s(S'attended'
p4127
g617
g618
tp4128
F0.0040683482506102524
s(S'to'
p4129
S'obtain'
p4130
S'[[prp]]'
p4131
tp4132
F0.0004068348250610252
s(S'then'
p4133
S'received'
p4134
S'[[con]]'
p4135
tp4136
F0.0004068348250610252
s(S'[[det]]'
p4137
S'professor'
p4138
S'of'
p4139
tp4140
F0.0004068348250610252
s(S'has'
p4141
S'received'
p4142
S'from'
p4143
tp4144
F0.0004068348250610252
s(g1073
g165
S'degree'
p4145
tp4146
F0.0008136696501220504
s(S'also'
p4147
S'served'
p4148
S'of'
p4149
tp4150
F0.0004068348250610252
s(S'became'
p4151
S'director'
p4152
S'at'
p4153
tp4154
F0.0004068348250610252
s(g1617
g1618
S'educated'
p4155
tp4156
F0.0004068348250610252
s(S'was'
p4157
S'awarded'
p4158
S'of'
p4159
tp4160
F0.0004068348250610252
s(S'be'
p4161
S'appointed'
p4162
S'[[det]]'
p4163
tp4164
F0.0004068348250610252
s(S'later'
p4165
S'attended'
p4166
S'[[det]]'
p4167
tp4168
F0.0008136696501220504
s(S'has'
p4169
S'taught'
p4170
S'[[adj]]'
p4171
tp4172
F0.0004068348250610252
s(g2295
g2296
S'from'
p4173
tp4174
F0.0004068348250610252
s(S'became'
p4175
S'director'
p4176
S'for'
p4177
tp4178
F0.0004068348250610252
s(S'was'
p4179
S'obtained'
p4180
S'from'
p4181
tp4182
F0.0004068348250610252
s(S'[[det]]'
p4183
S'graduate'
p4184
S'of'
p4185
tp4186
F0.0008136696501220504
s(S'became'
p4187
S'president'
p4188
S'at'
p4189
tp4190
F0.0004068348250610252
s(g966
g717
g718
tp4191
F0.0004068348250610252
s(g3145
g3146
S'degree'
p4192
tp4193
F0.0040683482506102524
s(S'was'
p4194
S'awarded'
p4195
S'[[prp]]'
p4196
tp4197
F0.0004068348250610252
s(S'to'
p4198
S'study'
p4199
S'[[det]]'
p4200
tp4201
F0.0004068348250610252
s(g1024
g1025
S'from'
p4202
tp4203
F0.0004068348250610252
s(g637
g165
g245
tp4204
F0.023596419853539462
s(S'then'
p4205
S'returned'
p4206
S'where'
p4207
tp4208
F0.0004068348250610252
s(S'received'
p4209
S'[[pro]]'
p4210
S'[[adj]]'
p4211
tp4212
F0.0016273393002441008
s(S'received'
p4213
S'[[prp]]'
p4214
S'bachelor'
p4215
tp4216
F0.006509357200976403
s.