(dp0
(S'also'
p1
S'appointed'
p2
S'in'
p3
tp4
F0.0011049723756906078
s(S'[[det]]'
p5
S'member'
p6
S'at'
p7
tp8
F0.0011049723756906078
s(S'currently'
p9
S'professor'
p10
S'[[con]]'
p11
tp12
F0.0011049723756906078
s(S'been'
p13
S'reported'
p14
S'on'
p15
tp16
F0.0011049723756906078
s(S'when'
p17
S'served'
p18
S'with'
p19
tp20
F0.0011049723756906078
s(S'[[con]]'
p21
S'served'
p22
S'with'
p23
tp24
F0.0011049723756906078
s(S'has'
p25
S'taught'
p26
S'as'
p27
tp28
F0.0011049723756906078
s(S'[[det]]'
p29
S'director'
p30
S'on'
p31
tp32
F0.0011049723756906078
s(S'serve'
p33
S'as'
p34
S'[[det]]'
p35
tp36
F0.0011049723756906078
s(S'became'
p37
S'head'
p38
S'of'
p39
tp40
F0.0011049723756906078
s(S'become'
p41
S'manager'
p42
S'at'
p43
tp44
F0.0011049723756906078
s(S'was'
p45
S'joined'
p46
S'in'
p47
tp48
F0.0011049723756906078
s(S'later'
p49
S'worked'
p50
S'to'
p51
tp52
F0.0011049723756906078
s(S'was'
p53
S'named'
p54
S'at'
p55
tp56
F0.0011049723756906078
s(S'who'
p57
S'served'
p58
S'as'
p59
tp60
F0.0011049723756906078
s(S'[[det]]'
p61
S'retired'
p62
S'in'
p63
tp64
F0.0011049723756906078
s(S'is'
p65
S'editor'
p66
S'[[det]]'
p67
tp68
F0.0011049723756906078
s(S'became'
p69
S'director'
p70
S'[[det]]'
p71
tp72
F0.0011049723756906078
s(S'become'
p73
S'head'
p74
S'at'
p75
tp76
F0.0011049723756906078
s(S'[[det]]'
p77
S'columnist'
p78
S'[[con]]'
p79
tp80
F0.0011049723756906078
s(S'later'
p81
S'join'
p82
S'[[det]]'
p83
tp84
F0.0011049723756906078
s(S'prevent'
p85
S'[[det]]'
p86
S'issue'
p87
tp88
F0.0011049723756906078
s(S'[[con]]'
p89
S'served'
p90
S'[[num]]'
p91
tp92
F0.0011049723756906078
s(S'[[mod]]'
p93
S'work'
p94
S'for'
p95
tp96
F0.0011049723756906078
s(S'also'
p97
S'involved'
p98
S'[[con]]'
p99
tp100
F0.0011049723756906078
s(S'has'
p101
S'worked'
p102
S'for'
p103
tp104
F0.0011049723756906078
s(S'[[adj]]'
p105
S'member'
p106
S'[[det]]'
p107
tp108
F0.0011049723756906078
s(S'was'
p109
S'head'
p110
S'[[con]]'
p111
tp112
F0.0011049723756906078
s(S'to'
p113
S'join'
p114
S'[[num]]'
p115
tp116
F0.0011049723756906078
s(S'[[det]]'
p117
S'professor'
p118
S'for'
p119
tp120
F0.0011049723756906078
s(S'is'
p121
S'taught'
p122
S'at'
p123
tp124
F0.0011049723756906078
s(S'instead'
p125
S'appointed'
p126
S'[[pro]]'
p127
tp128
F0.0011049723756906078
s(S'[[det]]'
p129
S'member'
p130
S'when'
p131
tp132
F0.0011049723756906078
s(S'until'
p133
S'retired'
p134
S'from'
p135
tp136
F0.0011049723756906078
s(S'then'
p137
S'worked'
p138
S'before'
p139
tp140
F0.0011049723756906078
s(S'[[det]]'
p141
S'member'
p142
S'until'
p143
tp144
F0.0011049723756906078
s(S'been'
p145
S'named'
p146
S'by'
p147
tp148
F0.0011049723756906078
s(S'became'
p149
S'involved'
p150
S'in'
p151
tp152
F0.0011049723756906078
s(S'currently'
p153
S'serves'
p154
S'to'
p155
tp156
F0.0011049723756906078
s(S'was'
p157
S'returned'
p158
S'by'
p159
tp160
F0.0011049723756906078
s(S'[[con]]'
p161
S'joined'
p162
S'[[det]]'
p163
tp164
F0.0011049723756906078
s(S'was'
p165
S'president'
p166
S'[[det]]'
p167
tp168
F0.0011049723756906078
s(S's'
p169
S'departure'
p170
S'from'
p171
tp172
F0.0011049723756906078
s(S'is'
p173
S'president'
p174
S'[[det]]'
p175
tp176
F0.0011049723756906078
s(S'is'
p177
S'involved'
p178
S'in'
p179
tp180
F0.0011049723756906078
s(S'[[adj]]'
p181
S'director'
p182
S'[[con]]'
p183
tp184
F0.0011049723756906078
s(S'was'
p185
S'lecturer'
p186
S'at'
p187
tp188
F0.0011049723756906078
s(S'[[det]]'
p189
S'lecturer'
p190
S'[[con]]'
p191
tp192
F0.0011049723756906078
s(S'currently'
p193
S'teaches'
p194
S'[[adj]]'
p195
tp196
F0.0011049723756906078
s(S'[[det]]'
p197
S'manager'
p198
S'[[con]]'
p199
tp200
F0.0011049723756906078
s(S'has'
p201
S'served'
p202
S'[[con]]'
p203
tp204
F0.0011049723756906078
s(S'[[pro]]'
p205
S'worked'
p206
S'with'
p207
tp208
F0.0011049723756906078
s(S'[[con]]'
p209
S'served'
p210
S'at'
p211
tp212
F0.0011049723756906078
s(S'was'
p213
S'member'
p214
S'for'
p215
tp216
F0.0011049723756906078
s(S'while'
p217
S'served'
p218
S'as'
p219
tp220
F0.0011049723756906078
s(S'first'
p221
S'served'
p222
S'as'
p223
tp224
F0.0011049723756906078
s(S'also'
p225
S'named'
p226
S'for'
p227
tp228
F0.0011049723756906078
s(S'[[con]]'
p229
S'director'
p230
S'of'
p231
tp232
F0.0011049723756906078
s(S'also'
p233
S'editor'
p234
S'[[con]]'
p235
tp236
F0.0011049723756906078
s(S'now'
p237
S'works'
p238
S'at'
p239
tp240
F0.0011049723756906078
s(S'[[num]]'
p241
S'professor'
p242
S'of'
p243
tp244
F0.0011049723756906078
s(S'is'
p245
S'member'
p246
S'[[con]]'
p247
tp248
F0.0011049723756906078
s(S'where'
p249
S'taught'
p250
S'in'
p251
tp252
F0.0011049723756906078
s(S'was'
p253
S'founder'
p254
S'of'
p255
tp256
F0.0011049723756906078
s(S'[[num]]'
p257
S'founder'
p258
S'of'
p259
tp260
F0.0011049723756906078
s(S'now'
p261
S'working'
p262
S'as'
p263
tp264
F0.0011049723756906078
s(S'been'
p265
S'named'
p266
S'of'
p267
tp268
F0.0011049723756906078
s(S'then'
p269
S'joined'
p270
S'to'
p271
tp272
F0.0011049723756906078
s(S'was'
p273
S'named'
p274
S'by'
p275
tp276
F0.0011049723756906078
s(S'who'
p277
S'worked'
p278
S'for'
p279
tp280
F0.0011049723756906078
s(S'[[adj]]'
p281
S'pastor'
p282
S'at'
p283
tp284
F0.0011049723756906078
s(S'is'
p285
S'director'
p286
S'for'
p287
tp288
F0.0011049723756906078
s(S'again'
p289
S'returned'
p290
S'[[con]]'
p291
tp292
F0.0011049723756906078
s(S'[[con]]'
p293
S'served'
p294
S'when'
p295
tp296
F0.0011049723756906078
s(S'also'
p297
S'nominated'
p298
S'[[num]]'
p299
tp300
F0.0011049723756906078
s(S'was'
p301
S'editor'
p302
S'[[det]]'
p303
tp304
F0.0011049723756906078
s(S'also'
p305
S'appointed'
p306
S'[[con]]'
p307
tp308
F0.0011049723756906078
s(S'then'
p309
S'joined'
p310
S'[[adj]]'
p311
tp312
F0.0011049723756906078
s(S'was'
p313
S'lecturer'
p314
S'in'
p315
tp316
F0.0011049723756906078
s(g86
g87
S'[[prp]]'
p317
tp318
F0.0011049723756906078
s(S'was'
p319
S'teaching'
p320
S'at'
p321
tp322
F0.0011049723756906078
s(S'also'
p323
S'reported'
p324
S'for'
p325
tp326
F0.0011049723756906078
s(S'had'
p327
S'joined'
p328
S'from'
p329
tp330
F0.0011049723756906078
s(S'[[adj]]'
p331
S'professor'
p332
S'[[det]]'
p333
tp334
F0.0011049723756906078
s(S'is'
p335
S'director'
p336
S'[[det]]'
p337
tp338
F0.0011049723756906078
s(S'currently'
p339
S'professor'
p340
S'at'
p341
tp342
F0.0011049723756906078
s(S'been'
p343
S'named'
p344
S'[[det]]'
p345
tp346
F0.0011049723756906078
s(S'[[adj]]'
p347
S'served'
p348
S'on'
p349
tp350
F0.0011049723756906078
s(S'[[con]]'
p351
S'member'
p352
S'[[con]]'
p353
tp354
F0.0011049723756906078
s(S'[[num]]'
p355
S'served'
p356
S'as'
p357
tp358
F0.0011049723756906078
s(S'[[adj]]'
p359
S'president'
p360
S'[[num]]'
p361
tp362
F0.0011049723756906078
s(S'[[det]]'
p363
S'professor'
p364
S'[[con]]'
p365
tp366
F0.0011049723756906078
s(S'where'
p367
S'served'
p368
S'in'
p369
tp370
F0.0011049723756906078
s(S'[[adj]]'
p371
S'editor'
p372
S'[[num]]'
p373
tp374
F0.0011049723756906078
s(S'has'
p375
S'served'
p376
S'under'
p377
tp378
F0.0011049723756906078
s(S'was'
p379
S'editor'
p380
S'[[con]]'
p381
tp382
F0.0011049723756906078
s(S'been'
p383
S'president'
p384
S'[[det]]'
p385
tp386
F0.0011049723756906078
s(S'also'
p387
S'served'
p388
S'with'
p389
tp390
F0.0011049723756906078
s(S'[[adj]]'
p391
S'lecturer'
p392
S'[[con]]'
p393
tp394
F0.0011049723756906078
s(S'has'
p395
S'worked'
p396
S'at'
p397
tp398
F0.0011049723756906078
s(S'was'
p399
S'editor'
p400
S'for'
p401
tp402
F0.0011049723756906078
s(S'later'
p403
S'served'
p404
S'on'
p405
tp406
F0.0011049723756906078
s(S'[[adj]]'
p407
S'professor'
p408
S'in'
p409
tp410
F0.0011049723756906078
s(S'has'
p411
S'taught'
p412
S'at'
p413
tp414
F0.0011049723756906078
s(S'[[con]]'
p415
S'served'
p416
S'where'
p417
tp418
F0.0011049723756906078
s(S'then'
p419
S'returned'
p420
S'to'
p421
tp422
F0.0011049723756906078
s(S'was'
p423
S'involved'
p424
S'in'
p425
tp426
F0.0011049723756906078
s(S'then'
p427
S'joined'
p428
S'side'
p429
tp430
F0.0011049723756906078
s(S'as'
p431
S'president'
p432
S'of'
p433
tp434
F0.0011049723756906078
s(S'[[con]]'
p435
S'served'
p436
S'to'
p437
tp438
F0.0011049723756906078
s(S'[[det]]'
p439
S'editor'
p440
S'on'
p441
tp442
F0.0011049723756906078
s(S'[[adj]]'
p443
S'professor'
p444
S'of'
p445
tp446
F0.0011049723756906078
s(S'when'
p447
S'joined'
p448
S'[[det]]'
p449
tp450
F0.0011049723756906078
s(S'[[con]]'
p451
S'founder'
p452
S'of'
p453
tp454
F0.0011049723756906078
s(S'again'
p455
S'named'
p456
S'as'
p457
tp458
F0.0011049723756906078
s(S'also'
p459
S'teaches'
p460
S'in'
p461
tp462
F0.0011049723756906078
s(S'[[adj]]'
p463
S'member'
p464
S'as'
p465
tp466
F0.0011049723756906078
s(S'also'
p467
S'remained'
p468
S'of'
p469
tp470
F0.0011049723756906078
s(S'currently'
p471
S'working'
p472
S'in'
p473
tp474
F0.0011049723756906078
s(S'[[adj]]'
p475
S'work'
p476
S'at'
p477
tp478
F0.0011049723756906078
s(S'then'
p479
S'served'
p480
S'before'
p481
tp482
F0.0011049723756906078
s(S'now'
p483
S'serves'
p484
S'at'
p485
tp486
F0.0011049723756906078
s(S'[[adj]]'
p487
S'member'
p488
S'on'
p489
tp490
F0.0011049723756906078
s(S'has'
p491
S'served'
p492
S'[[adj]]'
p493
tp494
F0.0011049723756906078
s(S'[[mod]]'
p495
S'work'
p496
S'at'
p497
tp498
F0.0011049723756906078
s(S'currently'
p499
S'working'
p500
S'from'
p501
tp502
F0.0011049723756906078
s(S'[[con]]'
p503
S'professor'
p504
S'in'
p505
tp506
F0.0011049723756906078
s(S'again'
p507
S'served'
p508
S'with'
p509
tp510
F0.0011049723756906078
s(S'also'
p511
S'appointed'
p512
S'on'
p513
tp514
F0.0011049723756906078
s(S'[[adj]]'
p515
S'editor'
p516
S'of'
p517
tp518
F0.0011049723756906078
s(S'had'
p519
S'worked'
p520
S'as'
p521
tp522
F0.0011049723756906078
s(S'while'
p523
S'joined'
p524
S'[[det]]'
p525
tp526
F0.0011049723756906078
s(S'is'
p527
S'director'
p528
S'of'
p529
tp530
F0.0011049723756906078
s(S'also'
p531
S'worked'
p532
S'[[adj]]'
p533
tp534
F0.0011049723756906078
s(S'[[con]]'
p535
S'professor'
p536
S'at'
p537
tp538
F0.0022099447513812156
s(S'then'
p539
S'working'
p540
S'for'
p541
tp542
F0.0011049723756906078
s(S'then'
p543
S'returned'
p544
S'at'
p545
tp546
F0.0011049723756906078
s(S'also'
p547
S'served'
p548
S'[[det]]'
p549
tp550
F0.0011049723756906078
s(S'has'
p551
S'taught'
p552
S'[[adj]]'
p553
tp554
F0.0011049723756906078
s(S'currently'
p555
S'works'
p556
S'on'
p557
tp558
F0.0011049723756906078
s(S'has'
p559
S'served'
p560
S'twice'
p561
tp562
F0.0011049723756906078
s(S'then'
p563
S'returned'
p564
S'in'
p565
tp566
F0.0011049723756906078
s(S'also'
p567
S'serves'
p568
S'[[num]]'
p569
tp570
F0.0011049723756906078
s(S'as'
p571
S'professor'
p572
S'in'
p573
tp574
F0.0011049723756906078
s(S'then'
p575
S'hired'
p576
S'in'
p577
tp578
F0.0011049723756906078
s(S'[[det]]'
p579
S'director'
p580
S'at'
p581
tp582
F0.0011049723756906078
s(S'also'
p583
S'served'
p584
S'as'
p585
tp586
F0.0011049723756906078
s(S'been'
p587
S'named'
p588
S'at'
p589
tp590
F0.0011049723756906078
s(S'twice'
p591
S'served'
p592
S'in'
p593
tp594
F0.0011049723756906078
s(S'[[det]]'
p595
S'professor'
p596
S'[[det]]'
p597
tp598
F0.0011049723756906078
s(S'is'
p599
S'retired'
p600
S'from'
p601
tp602
F0.0011049723756906078
s(S'also'
p603
S'appointed'
p604
S'of'
p605
tp606
F0.0011049723756906078
s(S'also'
p607
S'named'
p608
S'of'
p609
tp610
F0.0011049723756906078
s(S'which'
p611
S'returned'
p612
S'to'
p613
tp614
F0.0011049723756906078
s(S'later'
p615
S'appointed'
p616
S'at'
p617
tp618
F0.0011049723756906078
s(S'[[con]]'
p619
S'worked'
p620
S'as'
p621
tp622
F0.0011049723756906078
s(S'had'
p623
S'joined'
p624
S'[[det]]'
p625
tp626
F0.0011049723756906078
s(S'professor'
p627
S'emeritus'
p628
S'prior'
p629
tp630
F0.0011049723756906078
s(S'[[adj]]'
p631
S'member'
p632
S'from'
p633
tp634
F0.0011049723756906078
s(S'became'
p635
S'editor'
p636
S'[[det]]'
p637
tp638
F0.0011049723756906078
s(S'also'
p639
S'works'
p640
S'for'
p641
tp642
F0.0011049723756906078
s(S'also'
p643
S'worked'
p644
S'as'
p645
tp646
F0.0011049723756906078
s(S'also'
p647
S'working'
p648
S'for'
p649
tp650
F0.0011049723756906078
s(S'was'
p651
S'appointed'
p652
S'[[det]]'
p653
tp654
F0.0011049723756906078
s(S'also'
p655
S'director'
p656
S'of'
p657
tp658
F0.0011049723756906078
s(S'who'
p659
S'served'
p660
S'under'
p661
tp662
F0.0011049723756906078
s(S'was'
p663
S'left'
p664
S'out'
p665
tp666
F0.0011049723756906078
s(S'had'
p667
S'left'
p668
S'for'
p669
tp670
F0.0011049723756906078
s(S'also'
p671
S'remained'
p672
S'[[adj]]'
p673
tp674
F0.0011049723756906078
s(S'[[det]]'
p675
S'professor'
p676
S'in'
p677
tp678
F0.0011049723756906078
s(S'then'
p679
S'served'
p680
S'to'
p681
tp682
F0.0011049723756906078
s(S'currently'
p683
S'serves'
p684
S'on'
p685
tp686
F0.0011049723756906078
s(S'later'
p687
S'served'
p688
S'[[adj]]'
p689
tp690
F0.0011049723756906078
s(S'first'
p691
S'served'
p692
S'in'
p693
tp694
F0.0011049723756906078
s(S'also'
p695
S'president'
p696
S'[[det]]'
p697
tp698
F0.0011049723756906078
s(S'[[det]]'
p699
S'manager'
p700
S'of'
p701
tp702
F0.0011049723756906078
s(S'was'
p703
S'appointed'
p704
S'as'
p705
tp706
F0.0011049723756906078
s(S'also'
p707
S'served'
p708
S'twice'
p709
tp710
F0.0011049723756906078
s(S'soon'
p711
S'left'
p712
S'[[det]]'
p713
tp714
F0.0011049723756906078
s(S'[[det]]'
p715
S'head'
p716
S'[[con]]'
p717
tp718
F0.0011049723756906078
s(S'[[det]]'
p719
S'work'
p720
S'in'
p721
tp722
F0.0011049723756906078
s(S'as'
p723
S'editor'
p724
S'of'
p725
tp726
F0.0011049723756906078
s(S'[[adj]]'
p727
S'professor'
p728
g535
tp729
F0.0022099447513812156
s(S'[[det]]'
p730
S'matter'
p731
S'to'
p732
tp733
F0.0011049723756906078
s(S'is'
p734
S'professor'
p735
S'of'
p736
tp737
F0.0011049723756906078
s(S'been'
p738
S'working'
p739
S'for'
p740
tp741
F0.0011049723756906078
s(S'then'
p742
S'served'
p743
S'until'
p744
tp745
F0.0011049723756906078
s(S'is'
p746
S'named'
p747
S'as'
p748
tp749
F0.0011049723756906078
s(S'is'
p750
S'president'
p751
S'[[con]]'
p752
tp753
F0.0011049723756906078
s(S'then'
p754
S'served'
p755
S'on'
p756
tp757
F0.0011049723756906078
s(S'people'
p758
S'who'
p759
S'confirmed'
p760
tp761
F0.0011049723756906078
s(S'[[con]]'
p762
S'professor'
p763
S'[[det]]'
p764
tp765
F0.0011049723756906078
s(S'was'
p766
S'editor'
p767
S'of'
p768
tp769
F0.0011049723756906078
s(S'been'
p770
S'working'
p771
S'[[det]]'
p772
tp773
F0.0011049723756906078
s(g299
g758
g759
tp774
F0.0011049723756906078
s(S'soon'
p775
S'joined'
p776
S'[[det]]'
p777
tp778
F0.0011049723756906078
s(S'later'
p779
S'joined'
p780
S'[[con]]'
p781
tp782
F0.0011049723756906078
s(S'was'
p783
S'professor'
p784
S'[[con]]'
p785
tp786
F0.0011049723756906078
s(S'then'
p787
S'joined'
p788
S'[[num]]'
p789
tp790
F0.0011049723756906078
s(S'[[adj]]'
p791
S'columnist'
p792
S'for'
p793
tp794
F0.0011049723756906078
s(S'has'
p795
S'served'
p796
S'with'
p797
tp798
F0.0011049723756906078
s(S'currently'
p799
S'serves'
p800
S'[[con]]'
p801
tp802
F0.0011049723756906078
s(g298
g299
g758
tp803
F0.0011049723756906078
s(S'again'
p804
S'served'
p805
S'under'
p806
tp807
F0.0011049723756906078
s(S'is'
p808
S'working'
p809
S'as'
p810
tp811
F0.0011049723756906078
s(S'been'
p812
S'hired'
p813
S'by'
p814
tp815
F0.0011049723756906078
s(S'[[adj]]'
p816
S'work'
p817
S'as'
p818
tp819
F0.0011049723756906078
s(S'since'
p820
S'worked'
p821
S'for'
p822
tp823
F0.0011049723756906078
s(S'in'
p824
S'working'
p825
S'for'
p826
tp827
F0.0011049723756906078
s(S'also'
p828
S'teaches'
p829
S'[[det]]'
p830
tp831
F0.0011049723756906078
s(S'later'
p832
S'served'
p833
S'from'
p834
tp835
F0.0011049723756906078
s(S'[[det]]'
p836
S'lecturer'
p837
S'[[det]]'
p838
tp839
F0.0011049723756906078
s(S'to'
p840
S'work'
p841
S'among'
p842
tp843
F0.0011049723756906078
s(S'been'
p844
S'president'
p845
S'of'
p846
tp847
F0.0011049723756906078
s(S'also'
p848
S'works'
p849
S'at'
p850
tp851
F0.0011049723756906078
s(S'[[num]]'
p852
S'working'
p853
S'for'
p854
tp855
F0.0011049723756906078
s(S'who'
p856
S'served'
p857
S'with'
p858
tp859
F0.0011049723756906078
s(S'being'
p860
S'appointed'
p861
S'to'
p862
tp863
F0.0011049723756906078
s(S'then'
p864
S'returned'
p865
S'for'
p866
tp867
F0.0011049723756906078
s(S'is'
p868
S'involved'
p869
S'with'
p870
tp871
F0.0011049723756906078
s(S'had'
p872
S'worked'
p873
S'at'
p874
tp875
F0.0011049723756906078
s(S'also'
p876
S'taught'
p877
S'as'
p878
tp879
F0.0011049723756906078
s(S'later'
p880
S'appointed'
p881
S'as'
p882
tp883
F0.0011049723756906078
s(S'[[det]]'
p884
S'member'
p885
S'from'
p886
tp887
F0.0011049723756906078
s(S'also'
p888
S'president'
p889
S'in'
p890
tp891
F0.0011049723756906078
s(S'[[det]]'
p892
S'member'
p893
S'which'
p894
tp895
F0.0011049723756906078
s(S'[[con]]'
p896
S'joined'
p897
S'from'
p898
tp899
F0.0011049723756906078
s(S'was'
p900
S'director'
p901
S'of'
p902
tp903
F0.0011049723756906078
s(S'[[adj]]'
p904
S'dean'
p905
S'of'
p906
tp907
F0.0011049723756906078
s(S'been'
p908
S'involved'
p909
S'in'
p910
tp911
F0.0011049723756906078
s(S'being'
p912
S'appointed'
p913
S'of'
p914
tp915
F0.0011049723756906078
s(S'currently'
p916
S'works'
p917
S'as'
p918
tp919
F0.0011049723756906078
s(S'[[det]]'
p920
S'lecturer'
p921
S'in'
p922
tp923
F0.0011049723756906078
s(S'been'
p924
S'teaching'
p925
S'at'
p926
tp927
F0.0011049723756906078
s(S'was'
p928
S'served'
p929
S'as'
p930
tp931
F0.0011049723756906078
s(S'now'
p932
S'serves'
p933
S'as'
p934
tp935
F0.0011049723756906078
s(S'was'
p936
S'hired'
p937
S'at'
p938
tp939
F0.0011049723756906078
s(S'then'
p940
S'taught'
p941
S'at'
p942
tp943
F0.0011049723756906078
s(S'[[adj]]'
p944
S'founder'
p945
S'of'
p946
tp947
F0.0011049723756906078
s(S'became'
p948
S'manager'
p949
S'at'
p950
tp951
F0.0011049723756906078
s(S'as'
p952
S'director'
p953
S'of'
p954
tp955
F0.0011049723756906078
s(S'currently'
p956
S'teaches'
p957
S'at'
p958
tp959
F0.0011049723756906078
s(S'[[det]]'
p960
S'professor'
p961
S'from'
p962
tp963
F0.0011049723756906078
s(S'again'
p964
S'appointed'
p965
S'to'
p966
tp967
F0.0011049723756906078
s(S'was'
p968
S'involved'
p969
S'on'
p970
tp971
F0.0011049723756906078
s(S'when'
p972
S'retired'
p973
S'from'
p974
tp975
F0.0011049723756906078
s(S'been'
p976
S'involved'
p977
S'[[num]]'
p978
tp979
F0.0011049723756906078
s(S'also'
p980
S'named'
p981
S'[[con]]'
p982
tp983
F0.0011049723756906078
s(S'also'
p984
S'member'
p985
S'[[con]]'
p986
tp987
F0.0011049723756906078
s(S'being'
p988
S'appointed'
p989
S'at'
p990
tp991
F0.0011049723756906078
s(S'before'
p992
S'returned'
p993
S'to'
p994
tp995
F0.0011049723756906078
s(S'is'
p996
S'appointed'
p997
S'of'
p998
tp999
F0.0011049723756906078
s(S'have'
p1000
S'served'
p1001
S'with'
p1002
tp1003
F0.0011049723756906078
s(g169
S'worked'
p1004
S'with'
p1005
tp1006
F0.0011049723756906078
s(S'[[con]]'
p1007
S'appointed'
p1008
S'[[pro]]'
p1009
tp1010
F0.0011049723756906078
s(S'became'
p1011
S'manager'
p1012
S'of'
p1013
tp1014
F0.0011049723756906078
s(S'was'
p1015
S'left'
p1016
S'with'
p1017
tp1018
F0.0011049723756906078
s(S'have'
p1019
S'served'
p1020
S'in'
p1021
tp1022
F0.0011049723756906078
s(S'first'
p1023
S'served'
p1024
S'[[con]]'
p1025
tp1026
F0.0011049723756906078
s(S'was'
p1027
S'involved'
p1028
S'with'
p1029
tp1030
F0.0011049723756906078
s(S'who'
p1031
S'joined'
p1032
S'[[det]]'
p1033
tp1034
F0.0011049723756906078
s(S'became'
p1035
S'professor'
p1036
S'[[con]]'
p1037
tp1038
F0.0011049723756906078
s(S'also'
p1039
S'appointed'
p1040
S'to'
p1041
tp1042
F0.0011049723756906078
s(S'[[adj]]'
p1043
S'president'
p1044
S'of'
p1045
tp1046
F0.0011049723756906078
s(S'[[det]]'
p1047
S'member'
p1048
S'[[det]]'
p1049
tp1050
F0.0011049723756906078
s(S'became'
p1051
S'head'
p1052
S'[[det]]'
p1053
tp1054
F0.0011049723756906078
s(S'then'
p1055
S'left'
p1056
S'for'
p1057
tp1058
F0.0011049723756906078
s(S'is'
p1059
S'professor'
p1060
S'[[con]]'
p1061
tp1062
F0.0011049723756906078
s(S'later'
p1063
S'served'
p1064
S'with'
p1065
tp1066
F0.0011049723756906078
s(S'instead'
p1067
S'joined'
p1068
S'[[det]]'
p1069
tp1070
F0.0011049723756906078
s(S'being'
p1071
S'hired'
p1072
S'by'
p1073
tp1074
F0.0011049723756906078
s(S'also'
p1075
S'served'
p1076
S'in'
p1077
tp1078
F0.0011049723756906078
s(S'[[det]]'
p1079
S'head'
p1080
S'at'
p1081
tp1082
F0.0011049723756906078
s(S'was'
p1083
S'involved'
p1084
S'[[adj]]'
p1085
tp1086
F0.0011049723756906078
s(S'become'
p1087
S'director'
p1088
S'of'
p1089
tp1090
F0.0011049723756906078
s(S'[[det]]'
p1091
S'member'
p1092
S'of'
p1093
tp1094
F0.0011049723756906078
s(S'formerly'
p1095
S'served'
p1096
S'at'
p1097
tp1098
F0.0011049723756906078
s(S'since'
p1099
S'returned'
p1100
S'to'
p1101
tp1102
F0.0011049723756906078
s(S'found'
p1103
S'work'
p1104
S'for'
p1105
tp1106
F0.0011049723756906078
s(S'currently'
p1107
S'works'
p1108
S'with'
p1109
tp1110
F0.0011049723756906078
s(S'[[mod]]'
p1111
S'join'
p1112
S'at'
p1113
tp1114
F0.0011049723756906078
s(S'been'
p1115
S'professor'
p1116
S'in'
p1117
tp1118
F0.0011049723756906078
s(S'was'
p1119
S'director'
p1120
S'[[det]]'
p1121
tp1122
F0.0011049723756906078
s(S'[[adj]]'
p1123
S'head'
p1124
S'[[con]]'
p1125
tp1126
F0.0011049723756906078
s(S'to'
p1127
S'head'
p1128
S'[[det]]'
p1129
tp1130
F0.0011049723756906078
s(S'[[adj]]'
p1131
S'head'
p1132
S'at'
p1133
tp1134
F0.0011049723756906078
s(S'had'
p1135
S'served'
p1136
S'at'
p1137
tp1138
F0.0011049723756906078
s(S'is'
p1139
S'appointed'
p1140
S'[[det]]'
p1141
tp1142
F0.0011049723756906078
s(S'where'
p1143
S'served'
p1144
S'to'
p1145
tp1146
F0.0011049723756906078
s(g169
S'work'
p1147
S'for'
p1148
tp1149
F0.0011049723756906078
s(S'then'
p1150
S'left'
p1151
S'to'
p1152
tp1153
F0.0011049723756906078
s(S'[[adj]]'
p1154
S'head'
p1155
S'of'
p1156
tp1157
F0.0011049723756906078
s(S'became'
p1158
S'director'
p1159
S'at'
p1160
tp1161
F0.0011049723756906078
s(S'formerly'
p1162
S'served'
p1163
S'to'
p1164
tp1165
F0.0011049723756906078
s(S'currently'
p1166
S'working'
p1167
S'for'
p1168
tp1169
F0.0011049723756906078
s(S'[[det]]'
p1170
S'director'
p1171
S'for'
p1172
tp1173
F0.0011049723756906078
s(S'was'
p1174
S'named'
p1175
S'for'
p1176
tp1177
F0.0011049723756906078
s(g169
S'seat'
p1178
S'of'
p1179
tp1180
F0.0011049723756906078
s(S'becoming'
p1181
S'president'
p1182
S'of'
p1183
tp1184
F0.0011049723756906078
s(S'also'
p1185
S'editor'
p1186
S'of'
p1187
tp1188
F0.0011049723756906078
s(S'was'
p1189
S'hired'
p1190
S'by'
p1191
tp1192
F0.0011049723756906078
s(S'[[det]]'
p1193
S'member'
p1194
S'on'
p1195
tp1196
F0.0011049723756906078
s(S'has'
p1197
S'left'
p1198
S'[[det]]'
p1199
tp1200
F0.0011049723756906078
s(S'then'
p1201
S'served'
p1202
S'for'
p1203
tp1204
F0.0011049723756906078
s(S'[[det]]'
p1205
S'dean'
p1206
S'of'
p1207
tp1208
F0.0011049723756906078
s(S'be'
p1209
S'working'
p1210
S'for'
p1211
tp1212
F0.0011049723756906078
s(S'was'
p1213
S'professor'
p1214
S'from'
p1215
tp1216
F0.0011049723756906078
s(S'[[con]]'
p1217
S'worked'
p1218
S'at'
p1219
tp1220
F0.0011049723756906078
s(S'[[con]]'
p1221
S'appointed'
p1222
S'as'
p1223
tp1224
F0.0011049723756906078
s(S'[[mod]]'
p1225
S'join'
p1226
S'[[det]]'
p1227
tp1228
F0.0011049723756906078
s(S'be'
p1229
S'involved'
p1230
S'with'
p1231
tp1232
F0.0011049723756906078
s(S'just'
p1233
S'left'
p1234
S'for'
p1235
tp1236
F0.0011049723756906078
s(S'[[adj]]'
p1237
S'president'
p1238
S'[[con]]'
p1239
tp1240
F0.0011049723756906078
s(S'[[pro]]'
p1241
S'joined'
p1242
S'[[det]]'
p1243
tp1244
F0.0011049723756906078
s(S'have'
p1245
S'joined'
p1246
S'[[det]]'
p1247
tp1248
F0.0011049723756906078
s(S'done'
p1249
S'work'
p1250
S'for'
p1251
tp1252
F0.0011049723756906078
s(S'been'
p1253
S'involved'
p1254
S'at'
p1255
tp1256
F0.0011049723756906078
s(S'also'
p1257
S'president'
p1258
S'[[con]]'
p1259
tp1260
F0.0011049723756906078
s(S'had'
p1261
S'joined'
p1262
S'side'
p1263
tp1264
F0.0011049723756906078
s(S'be'
p1265
S'appointed'
p1266
S'to'
p1267
tp1268
F0.0011049723756906078
s(S'[[det]]'
p1269
S'member'
p1270
S'as'
p1271
tp1272
F0.0011049723756906078
s(S'[[adj]]'
p1273
S'manager'
p1274
S'[[con]]'
p1275
tp1276
F0.0011049723756906078
s(S'where'
p1277
S'joined'
p1278
S'[[det]]'
p1279
tp1280
F0.0011049723756906078
s(S'became'
p1281
S'involved'
p1282
S'for'
p1283
tp1284
F0.0011049723756906078
s(S'[[adj]]'
p1285
S'lecturer'
p1286
S'at'
p1287
tp1288
F0.0011049723756906078
s(S'was'
p1289
S'member'
p1290
S'[[num]]'
p1291
tp1292
F0.0011049723756906078
s(S'was'
p1293
S'taught'
p1294
S'at'
p1295
tp1296
F0.0011049723756906078
s(S'also'
p1297
S'taught'
p1298
S'in'
p1299
tp1300
F0.0011049723756906078
s(g169
S'seat'
p1301
S'in'
p1302
tp1303
F0.0011049723756906078
s(S'[[det]]'
p1304
S'founder'
p1305
S'[[det]]'
p1306
tp1307
F0.0011049723756906078
s(S'was'
p1308
S'president'
p1309
S'[[con]]'
p1310
tp1311
F0.0011049723756906078
s(S'who'
p1312
S'served'
p1313
S'[[con]]'
p1314
tp1315
F0.0011049723756906078
s(S'was'
p1316
S'reported'
p1317
S'by'
p1318
tp1319
F0.0011049723756906078
s(S'later'
p1320
S'served'
p1321
S'as'
p1322
tp1323
F0.0011049723756906078
s(S'became'
p1324
S'involved'
p1325
S'with'
p1326
tp1327
F0.0011049723756906078
s(S'became'
p1328
S'involved'
p1329
S'at'
p1330
tp1331
F0.0011049723756906078
s(S'[[adj]]'
p1332
S'dean'
p1333
S'[[det]]'
p1334
tp1335
F0.0011049723756906078
s(S'was'
p1336
S'member'
p1337
S'at'
p1338
tp1339
F0.0011049723756906078
s(S'is'
p1340
S'head'
p1341
S'at'
p1342
tp1343
F0.0011049723756906078
s(S'also'
p1344
S'named'
p1345
S'in'
p1346
tp1347
F0.0011049723756906078
s(S'then'
p1348
S'reported'
p1349
S'from'
p1350
tp1351
F0.0011049723756906078
s(S'currently'
p1352
S'works'
p1353
S'at'
p1354
tp1355
F0.0011049723756906078
s(S'[[adj]]'
p1356
S'editor'
p1357
S'[[con]]'
p1358
tp1359
F0.0011049723756906078
s(S'[[adj]]'
p1360
S'member'
p1361
S'of'
p1362
tp1363
F0.0011049723756906078
s(S'[[con]]'
p1364
S'served'
p1365
S'under'
p1366
tp1367
F0.0011049723756906078
s(S'also'
p1368
S'serves'
p1369
S'for'
p1370
tp1371
F0.0011049723756906078
s(S'also'
p1372
S'appointed'
p1373
S'as'
p1374
tp1375
F0.0011049723756906078
s(S'twice'
p1376
S'served'
p1377
S'as'
p1378
tp1379
F0.0011049723756906078
s(S'was'
p1380
S'joined'
p1381
S'on'
p1382
tp1383
F0.0011049723756906078
s(S'later'
p1384
S'joined'
p1385
S'at'
p1386
tp1387
F0.0011049723756906078
s(S'as'
p1388
S'head'
p1389
S'of'
p1390
tp1391
F0.0011049723756906078
s(S'[[con]]'
p1392
S'appointed'
p1393
S'to'
p1394
tp1395
F0.0011049723756906078
s(S'was'
p1396
S'hired'
p1397
S'as'
p1398
tp1399
F0.0011049723756906078
s(S'to'
p1400
S'join'
p1401
S'[[adj]]'
p1402
tp1403
F0.0011049723756906078
s(S'where'
p1404
S'served'
p1405
S'with'
p1406
tp1407
F0.0011049723756906078
s(S'is'
p1408
S'reported'
p1409
S'by'
p1410
tp1411
F0.0011049723756906078
s(S'had'
p1412
S'served'
p1413
S'with'
p1414
tp1415
F0.0011049723756906078
s(S'also'
p1416
S'joined'
p1417
S'[[det]]'
p1418
tp1419
F0.0011049723756906078
s(S'also'
p1420
S'serves'
p1421
S'to'
p1422
tp1423
F0.0011049723756906078
s(S'[[con]]'
p1424
S'remained'
p1425
S'at'
p1426
tp1427
F0.0011049723756906078
s(S'to'
p1428
S'work'
p1429
S'[[det]]'
p1430
tp1431
F0.0011049723756906078
s(S'[[con]]'
p1432
S'taught'
p1433
S'in'
p1434
tp1435
F0.0011049723756906078
s(S'has'
p1436
S'served'
p1437
S'in'
p1438
tp1439
F0.0011049723756906078
s(S'[[con]]'
p1440
S'professor'
p1441
S'of'
p1442
tp1443
F0.0011049723756906078
s(S'[[adj]]'
p1444
S'served'
p1445
S'as'
p1446
tp1447
F0.0011049723756906078
s(S'formerly'
p1448
S'served'
p1449
S'as'
p1450
tp1451
F0.0011049723756906078
s(S'made'
p1452
S'head'
p1453
S'at'
p1454
tp1455
F0.0011049723756906078
s(S'to'
p1456
S'work'
p1457
S'at'
p1458
tp1459
F0.0011049723756906078
s(S'became'
p1460
S'member'
p1461
S'[[det]]'
p1462
tp1463
F0.0011049723756906078
s(S'has'
p1464
S'returned'
p1465
S'to'
p1466
tp1467
F0.0011049723756906078
s(S'was'
p1468
S'named'
p1469
S'[[det]]'
p1470
tp1471
F0.0011049723756906078
s(S'currently'
p1472
S'works'
p1473
S'[[con]]'
p1474
tp1475
F0.0011049723756906078
s(S'then'
p1476
S'served'
p1477
S'with'
p1478
tp1479
F0.0011049723756906078
s(S'had'
p1480
S'left'
p1481
S'[[adj]]'
p1482
tp1483
F0.0011049723756906078
s(S'then'
p1484
S'taught'
p1485
S'[[con]]'
p1486
tp1487
F0.0011049723756906078
s(S'[[det]]'
p1488
S'professor'
p1489
S'[[adj]]'
p1490
tp1491
F0.0011049723756906078
s(S'formerly'
p1492
S'worked'
p1493
S'for'
p1494
tp1495
F0.0011049723756906078
s(S'[[con]]'
p1496
S'served'
p1497
S'as'
p1498
tp1499
F0.0011049723756906078
s(S'was'
p1500
S'head'
p1501
S'at'
p1502
tp1503
F0.0011049723756906078
s(S'been'
p1504
S'appointed'
p1505
S'at'
p1506
tp1507
F0.0011049723756906078
s(S'who'
p1508
S'left'
p1509
S'[[det]]'
p1510
tp1511
F0.0011049723756906078
s(S'[[con]]'
p1512
S'head'
p1513
S'of'
p1514
tp1515
F0.0011049723756906078
s(S'was'
p1516
S'involved'
p1517
S'to'
p1518
tp1519
F0.0011049723756906078
s(S'[[pro]]'
p1520
S'served'
p1521
S'in'
p1522
tp1523
F0.0011049723756906078
s(S'has'
p1524
S'remained'
p1525
S'with'
p1526
tp1527
F0.0011049723756906078
s(S'[[det]]'
p1528
S'president'
p1529
S'[[det]]'
p1530
tp1531
F0.0011049723756906078
s(S'also'
p1532
S'taught'
p1533
S'to'
p1534
tp1535
F0.0011049723756906078
s(S'has'
p1536
S'remained'
p1537
S'[[adj]]'
p1538
tp1539
F0.0011049723756906078
s(S'was'
p1540
S'member'
p1541
S'of'
p1542
tp1543
F0.0011049723756906078
s(S'is'
p1544
S'working'
p1545
S'for'
p1546
tp1547
F0.0011049723756906078
s(S'was'
p1548
S'appointed'
p1549
S'when'
p1550
tp1551
F0.0011049723756906078
s(S'[[det]]'
p1552
S'member'
p1553
g169
tp1554
F0.0011049723756906078
s(S'currently'
p1555
S'serves'
p1556
S'[[det]]'
p1557
tp1558
F0.0011049723756906078
s(S'[[con]]'
p1559
S'left'
p1560
S'to'
p1561
tp1562
F0.0011049723756906078
s(S'then'
p1563
S'worked'
p1564
S'as'
p1565
tp1566
F0.0011049723756906078
s(S'has'
p1567
S'served'
p1568
S'before'
p1569
tp1570
F0.0011049723756906078
s(S'is'
p1571
S'member'
p1572
S'of'
p1573
tp1574
F0.0011049723756906078
s(S'is'
p1575
S'named'
p1576
S'of'
p1577
tp1578
F0.0011049723756906078
s(S'was'
p1579
S'head'
p1580
S'[[det]]'
p1581
tp1582
F0.0011049723756906078
s(S'have'
p1583
S'left'
p1584
S'[[det]]'
p1585
tp1586
F0.0011049723756906078
s(S'then'
p1587
S'president'
p1588
S'[[det]]'
p1589
tp1590
F0.0011049723756906078
s(S'then'
p1591
S'joined'
p1592
S'then'
p1593
tp1594
F0.0011049723756906078
s(S'that'
p1595
S'worked'
p1596
S'for'
p1597
tp1598
F0.0011049723756906078
s(S'who'
p1599
S'joined'
p1600
S'from'
p1601
tp1602
F0.0011049723756906078
s(S'be'
p1603
S'appointed'
p1604
S'of'
p1605
tp1606
F0.0011049723756906078
s(S'again'
p1607
S'appointed'
p1608
S'of'
p1609
tp1610
F0.0011049723756906078
s(S'[[num]]'
p1611
S'returned'
p1612
S'to'
p1613
tp1614
F0.0011049723756906078
s(S'then'
p1615
S'president'
p1616
S'of'
p1617
tp1618
F0.0011049723756906078
s(S'was'
p1619
S'director'
p1620
S'for'
p1621
tp1622
F0.0011049723756906078
s(S'be'
p1623
S'named'
p1624
S'[[det]]'
p1625
tp1626
F0.0011049723756906078
s(S'[[adj]]'
p1627
S'lecturer'
p1628
S'in'
p1629
tp1630
F0.0011049723756906078
s(S'had'
p1631
S'left'
p1632
S'[[con]]'
p1633
tp1634
F0.0011049723756906078
s(S'[[det]]'
p1635
S'manager'
p1636
S'at'
p1637
tp1638
F0.0011049723756906078
s(S'also'
p1639
S'taught'
p1640
S'[[det]]'
p1641
tp1642
F0.0011049723756906078
s(S'currently'
p1643
S'professor'
p1644
S'of'
p1645
tp1646
F0.0011049723756906078
s(S'has'
p1647
S'served'
p1648
S'until'
p1649
tp1650
F0.0011049723756906078
s(g169
S'works'
p1651
S'which'
p1652
tp1653
F0.0011049723756906078
s(S'again'
p1654
S'served'
p1655
S'to'
p1656
tp1657
F0.0011049723756906078
s(S'first'
p1658
S'served'
p1659
S'with'
p1660
tp1661
F0.0011049723756906078
s(S'is'
p1662
S'professor'
p1663
S'at'
p1664
tp1665
F0.0011049723756906078
s(S'were'
p1666
S'named'
p1667
S'as'
p1668
tp1669
F0.0011049723756906078
s(S'has'
p1670
S'served'
p1671
S'[[det]]'
p1672
tp1673
F0.0011049723756906078
s(S'later'
p1674
S'joined'
p1675
S'[[det]]'
p1676
tp1677
F0.0011049723756906078
s(S'as'
p1678
S'manager'
p1679
S'of'
p1680
tp1681
F0.0011049723756906078
s(S'later'
p1682
S'left'
p1683
S'[[det]]'
p1684
tp1685
F0.0011049723756906078
s(S'[[adj]]'
p1686
S'manager'
p1687
S'of'
p1688
tp1689
F0.0011049723756906078
s(S'then'
p1690
S'returned'
p1691
S'with'
p1692
tp1693
F0.0011049723756906078
s(S'then'
p1694
S'left'
p1695
S'[[con]]'
p1696
tp1697
F0.0011049723756906078
s(S'retired'
p1698
g627
g628
tp1699
F0.0011049723756906078
s(S'found'
p1700
S'work'
p1701
S'at'
p1702
tp1703
F0.0011049723756906078
s(S'[[adj]]'
p1704
S'director'
p1705
S'at'
p1706
tp1707
F0.0011049723756906078
s(S'also'
p1708
S'served'
p1709
S'after'
p1710
tp1711
F0.0011049723756906078
s(S'later'
p1712
S'appointed'
p1713
S'[[pro]]'
p1714
tp1715
F0.0011049723756906078
s(S'is'
p1716
S'appointed'
p1717
S'[[con]]'
p1718
tp1719
F0.0011049723756906078
s(S'was'
p1720
S'reported'
p1721
S'in'
p1722
tp1723
F0.0011049723756906078
s(S'[[det]]'
p1724
S'returned'
p1725
S'to'
p1726
tp1727
F0.0011049723756906078
s(S'also'
p1728
S'appointed'
p1729
S'at'
p1730
tp1731
F0.0011049723756906078
s(S'[[num]]'
p1732
S'professor'
p1733
S'at'
p1734
tp1735
F0.0011049723756906078
s(S'[[num]]'
p1736
S'served'
p1737
S'on'
p1738
tp1739
F0.0011049723756906078
s(S'[[con]]'
p1740
S'member'
p1741
S'of'
p1742
tp1743
F0.0011049723756906078
s(S'[[adj]]'
p1744
S'member'
p1745
S'for'
p1746
tp1747
F0.0011049723756906078
s(S'became'
p1748
S'director'
p1749
S'for'
p1750
tp1751
F0.0011049723756906078
s(S'has'
p1752
S'served'
p1753
S'for'
p1754
tp1755
F0.0011049723756906078
s(S'also'
p1756
S'served'
p1757
S'[[adj]]'
p1758
tp1759
F0.0011049723756906078
s(S'currently'
p1760
S'working'
p1761
S'at'
p1762
tp1763
F0.0011049723756906078
s(S'had'
p1764
S'resigned'
p1765
S'as'
p1766
tp1767
F0.0011049723756906078
s(S'is'
p1768
S'head'
p1769
S'of'
p1770
tp1771
F0.0011049723756906078
s(S'was'
p1772
S'appointed'
p1773
S'[[con]]'
p1774
tp1775
F0.0011049723756906078
s(S'also'
p1776
S'taught'
p1777
S'[[adj]]'
p1778
tp1779
F0.0011049723756906078
s(S'was'
p1780
S'joined'
p1781
S'at'
p1782
tp1783
F0.0011049723756906078
s(S'[[det]]'
p1784
S'director'
p1785
S'[[con]]'
p1786
tp1787
F0.0011049723756906078
s(S'[[det]]'
p1788
S'served'
p1789
S'in'
p1790
tp1791
F0.0011049723756906078
s(S'[[adj]]'
p1792
S'member'
p1793
S'during'
p1794
tp1795
F0.0011049723756906078
s(S'[[num]]'
p1796
S'president'
p1797
S'of'
p1798
tp1799
F0.0011049723756906078
s(S'[[adj]]'
p1800
S'pastor'
p1801
S'of'
p1802
tp1803
F0.0011049723756906078
s(S'became'
p1804
S'editor'
p1805
S'[[con]]'
p1806
tp1807
F0.0011049723756906078
s(S'has'
p1808
S'worked'
p1809
S'[[con]]'
p1810
tp1811
F0.0011049723756906078
s(S'[[det]]'
p1812
S'work'
p1813
S'for'
p1814
tp1815
F0.0011049723756906078
s(S'been'
p1816
S'appointed'
p1817
S'of'
p1818
tp1819
F0.0011049723756906078
s(S'been'
p1820
S'named'
p1821
S'to'
p1822
tp1823
F0.0011049723756906078
s(S'is'
p1824
S'founder'
p1825
S'[[con]]'
p1826
tp1827
F0.0011049723756906078
s(S'been'
p1828
S'appointed'
p1829
S'to'
p1830
tp1831
F0.0011049723756906078
s(S'later'
p1832
S'worked'
p1833
S'as'
p1834
tp1835
F0.0011049723756906078
s(S'then'
p1836
S'joined'
p1837
S'with'
p1838
tp1839
F0.0011049723756906078
s(S'currently'
p1840
S'serves'
p1841
S'for'
p1842
tp1843
F0.0011049723756906078
s(S'then'
p1844
S'appointed'
p1845
S'[[num]]'
p1846
tp1847
F0.0011049723756906078
s(S'then'
p1848
S'served'
p1849
S'at'
p1850
tp1851
F0.0011049723756906078
s(S'was'
p1852
S'member'
p1853
S'[[con]]'
p1854
tp1855
F0.0011049723756906078
s(S'again'
p1856
S'served'
p1857
S'as'
p1858
tp1859
F0.0011049723756906078
s(S'was'
p1860
S'named'
p1861
S'in'
p1862
tp1863
F0.0011049723756906078
s(S'now'
p1864
S'working'
p1865
S'for'
p1866
tp1867
F0.0011049723756906078
s(S'again'
p1868
S'named'
p1869
S'in'
p1870
tp1871
F0.0011049723756906078
s(S'[[con]]'
p1872
S'joined'
p1873
S'of'
p1874
tp1875
F0.0011049723756906078
s(S'had'
p1876
S'taught'
p1877
S'at'
p1878
tp1879
F0.0022099447513812156
s(S'[[adj]]'
p1880
S'editor'
p1881
S'at'
p1882
tp1883
F0.0011049723756906078
s(S'then'
p1884
S'appointed'
p1885
S'[[pro]]'
p1886
tp1887
F0.0011049723756906078
s(S'was'
p1888
S'professor'
p1889
S'[[num]]'
p1890
tp1891
F0.0011049723756906078
s(S'[[con]]'
p1892
S'teaches'
p1893
S'at'
p1894
tp1895
F0.0011049723756906078
s(S'[[det]]'
p1896
S'columnist'
p1897
S'for'
p1898
tp1899
F0.0011049723756906078
s(S'[[det]]'
p1900
S'professor'
p1901
S'to'
p1902
tp1903
F0.0011049723756906078
s(S'first'
p1904
S'worked'
p1905
S'[[con]]'
p1906
tp1907
F0.0011049723756906078
s(S'[[det]]'
p1908
S'member'
p1909
S'who'
p1910
tp1911
F0.0011049723756906078
s(S'on'
p1912
S'coverage'
p1913
S'of'
p1914
tp1915
F0.0011049723756906078
s(S'[[con]]'
p1916
S'retired'
p1917
S'from'
p1918
tp1919
F0.0011049723756906078
s(S'has'
p1920
S'worked'
p1921
S'to'
p1922
tp1923
F0.0011049723756906078
s(S'had'
p1924
S'appointed'
p1925
S'to'
p1926
tp1927
F0.0011049723756906078
s(S'to'
p1928
S'work'
p1929
S'from'
p1930
tp1931
F0.0011049723756906078
s(S'then'
p1932
S'appointed'
p1933
S'to'
p1934
tp1935
F0.0011049723756906078
s(S'[[det]]'
p1936
S'dean'
p1937
S'[[det]]'
p1938
tp1939
F0.0011049723756906078
s(S'has'
p1940
S'served'
p1941
S'by'
p1942
tp1943
F0.0011049723756906078
s(S'was'
p1944
S'returned'
p1945
S'[[con]]'
p1946
tp1947
F0.0011049723756906078
s(S'was'
p1948
S'director'
p1949
S'at'
p1950
tp1951
F0.0011049723756906078
s(S'then'
p1952
S'hired'
p1953
S'by'
p1954
tp1955
F0.0011049723756906078
s(S'[[num]]'
p1956
S'member'
p1957
S'of'
p1958
tp1959
F0.0011049723756906078
s(S'had'
p1960
S'served'
p1961
S'[[det]]'
p1962
tp1963
F0.0011049723756906078
s(S'[[adj]]'
p1964
S'editor'
p1965
S'on'
p1966
tp1967
F0.0011049723756906078
s(S'become'
p1968
S'manager'
p1969
S'of'
p1970
tp1971
F0.0011049723756906078
s(S'is'
p1972
S'president'
p1973
S'of'
p1974
tp1975
F0.0011049723756906078
s(S'later'
p1976
S'taught'
p1977
S'[[con]]'
p1978
tp1979
F0.0011049723756906078
s(S'also'
p1980
S'serves'
p1981
S'on'
p1982
tp1983
F0.0011049723756906078
s(S'been'
p1984
S'appointed'
p1985
S'as'
p1986
tp1987
F0.0011049723756906078
s(S'[[det]]'
p1988
S'head'
p1989
S'in'
p1990
tp1991
F0.0011049723756906078
s(S'then'
p1992
S'reported'
p1993
S'to'
p1994
tp1995
F0.0011049723756906078
s(S'been'
p1996
S'named'
p1997
S'as'
p1998
tp1999
F0.0011049723756906078
s(S'[[con]]'
p2000
S'served'
p2001
S'in'
p2002
tp2003
F0.0011049723756906078
s(S'then'
p2004
S'joined'
p2005
S'[[con]]'
p2006
tp2007
F0.0011049723756906078
s(S'also'
p2008
S'named'
p2009
S'to'
p2010
tp2011
F0.0011049723756906078
s(S'was'
p2012
S'pastor'
p2013
S'[[con]]'
p2014
tp2015
F0.0011049723756906078
s(S'then'
p2016
S'hired'
p2017
S'as'
p2018
tp2019
F0.0011049723756906078
s(S'[[con]]'
p2020
S'lecturer'
p2021
S'at'
p2022
tp2023
F0.0011049723756906078
s(S'until'
p2024
S'returned'
p2025
S'to'
p2026
tp2027
F0.0011049723756906078
s(S'is'
p2028
S'founder'
p2029
S'of'
p2030
tp2031
F0.0011049723756906078
s(S'while'
p2032
S'returned'
p2033
S'to'
p2034
tp2035
F0.0011049723756906078
s(S'was'
p2036
S'hired'
p2037
S'[[det]]'
p2038
tp2039
F0.0011049723756906078
s(S'was'
p2040
S'professor'
p2041
S'at'
p2042
tp2043
F0.0011049723756906078
s(S'was'
p2044
S'founder'
p2045
S'[[con]]'
p2046
tp2047
F0.0011049723756906078
s(S'also'
p2048
S'works'
p2049
S'with'
p2050
tp2051
F0.0011049723756906078
s(S'been'
p2052
S'named'
p2053
S'[[con]]'
p2054
tp2055
F0.0011049723756906078
s(S'[[con]]'
p2056
S'left'
p2057
S'[[det]]'
p2058
tp2059
F0.0011049723756906078
s(S'[[adj]]'
p2060
S'manager'
p2061
S'[[det]]'
p2062
tp2063
F0.0011049723756906078
s(S'was'
p2064
S'professor'
p2065
S'in'
p2066
tp2067
F0.0011049723756906078
s(S'been'
p2068
S'appointed'
p2069
S'[[con]]'
p2070
tp2071
F0.0011049723756906078
s(S'then'
p2072
S'appointed'
p2073
S'at'
p2074
tp2075
F0.0011049723756906078
s(S'had'
p2076
S'served'
p2077
S'on'
p2078
tp2079
F0.0011049723756906078
s(S'[[det]]'
p2080
S'working'
p2081
S'at'
p2082
tp2083
F0.0011049723756906078
s(S'later'
p2084
S'served'
p2085
S'for'
p2086
tp2087
F0.0011049723756906078
s(S'also'
p2088
S'served'
p2089
S'under'
p2090
tp2091
F0.0011049723756906078
s(S'[[adj]]'
p2092
S'worked'
p2093
S'at'
p2094
tp2095
F0.0011049723756906078
s(S'[[det]]'
p2096
S'head'
p2097
S'[[det]]'
p2098
tp2099
F0.0011049723756906078
s(S'was'
p2100
S'manager'
p2101
S'of'
p2102
tp2103
F0.0011049723756906078
s(S'where'
p2104
S'taught'
p2105
S'at'
p2106
tp2107
F0.0011049723756906078
s(S'[[det]]'
p2108
S'lecturer'
p2109
S'of'
p2110
tp2111
F0.0011049723756906078
s(S'again'
p2112
S'named'
p2113
S'by'
p2114
tp2115
F0.0011049723756906078
s(S'[[adj]]'
p2116
S'founder'
p2117
S'[[con]]'
p2118
tp2119
F0.0011049723756906078
s(S'was'
p2120
S'manager'
p2121
S'at'
p2122
tp2123
F0.0011049723756906078
s(S'[[det]]'
p2124
S'left'
p2125
S'of'
p2126
tp2127
F0.0011049723756906078
s(S'[[con]]'
p2128
S'served'
p2129
S'on'
p2130
tp2131
F0.0011049723756906078
s(S'become'
p2132
S'head'
p2133
S'of'
p2134
tp2135
F0.0011049723756906078
s(S'was'
p2136
S'appointed'
p2137
S'at'
p2138
tp2139
F0.0011049723756906078
s(S'was'
p2140
S'manager'
p2141
S'in'
p2142
tp2143
F0.0011049723756906078
s(S'currently'
p2144
S'teaches'
p2145
S'[[det]]'
p2146
tp2147
F0.0011049723756906078
s(S'later'
p2148
S'worked'
p2149
S'on'
p2150
tp2151
F0.0011049723756906078
s(S'[[con]]'
p2152
S'returned'
p2153
S'on'
p2154
tp2155
F0.0011049723756906078
s(S'be'
p2156
S'appointed'
p2157
S'at'
p2158
tp2159
F0.0011049723756906078
s(S'became'
p2160
S'pastor'
p2161
S'of'
p2162
tp2163
F0.0011049723756906078
s(S'[[det]]'
p2164
S'member'
p2165
S'[[num]]'
p2166
tp2167
F0.0011049723756906078
s(S'was'
p2168
S'appointed'
p2169
S'in'
p2170
tp2171
F0.0011049723756906078
s(S'[[adj]]'
p2172
S'dean'
p2173
S'at'
p2174
tp2175
F0.0011049723756906078
s(S'[[adj]]'
p2176
S'president'
p2177
S'[[det]]'
p2178
tp2179
F0.0011049723756906078
s(S'became'
p2180
S'professor'
p2181
S'of'
p2182
tp2183
F0.0011049723756906078
s(S'to'
p2184
S'join'
p2185
S'at'
p2186
tp2187
F0.0011049723756906078
s(S'[[det]]'
p2188
S'editor'
p2189
S'to'
p2190
tp2191
F0.0011049723756906078
s(S'to'
p2192
S'had'
p2193
S'taught'
p2194
tp2195
F0.0011049723756906078
s(S'again'
p2196
S'returned'
p2197
S'to'
p2198
tp2199
F0.0011049723756906078
s(S'became'
p2200
S'director'
p2201
S'of'
p2202
tp2203
F0.0011049723756906078
s(S'[[det]]'
p2204
S'lecturer'
p2205
S'on'
p2206
tp2207
F0.0011049723756906078
s(S'be'
p2208
S'named'
p2209
S'of'
p2210
tp2211
F0.0011049723756906078
s(S'made'
p2212
S'professor'
p2213
S'at'
p2214
tp2215
F0.0011049723756906078
s(S'also'
p2216
S'serves'
p2217
S'as'
p2218
tp2219
F0.0011049723756906078
s(S'[[adj]]'
p2220
S'professor'
p2221
S'at'
p2222
tp2223
F0.0011049723756906078
s(S'is'
p2224
S'editor'
p2225
S'of'
p2226
tp2227
F0.0011049723756906078
s(S'had'
p2228
S'resigned'
p2229
S'from'
p2230
tp2231
F0.0011049723756906078
s(S'then'
p2232
S'manager'
p2233
S'of'
p2234
tp2235
F0.0011049723756906078
s(S'to'
p2236
S'join'
p2237
S'up'
p2238
tp2239
F0.0011049723756906078
s(S'also'
p2240
S'worked'
p2241
S'at'
p2242
tp2243
F0.0011049723756906078
s(S'was'
p2244
S'working'
p2245
S'at'
p2246
tp2247
F0.0011049723756906078
s(S'was'
p2248
S'named'
p2249
S'[[con]]'
p2250
tp2251
F0.0011049723756906078
s(g629
g2192
g2193
tp2252
F0.0011049723756906078
s(S'[[adj]]'
p2253
S'manager'
p2254
S'for'
p2255
tp2256
F0.0011049723756906078
s(S'also'
p2257
S'involved'
p2258
S'with'
p2259
tp2260
F0.0011049723756906078
s(S'then'
p2261
S'joined'
p2262
S'on'
p2263
tp2264
F0.0011049723756906078
s(S'was'
p2265
S'reported'
p2266
S'as'
p2267
tp2268
F0.0011049723756906078
s(S'was'
p2269
S'professor'
p2270
S'of'
p2271
tp2272
F0.0011049723756906078
s(S'later'
p2273
S'appointed'
p2274
S'of'
p2275
tp2276
F0.0011049723756906078
s(S'made'
p2277
S'head'
p2278
S'of'
p2279
tp2280
F0.0011049723756906078
s(S'had'
p2281
S'worked'
p2282
S'for'
p2283
tp2284
F0.0011049723756906078
s(S'[[adj]]'
p2285
S'appointed'
p2286
S'as'
p2287
tp2288
F0.0011049723756906078
s(S'[[num]]'
p2289
S'served'
p2290
S'for'
p2291
tp2292
F0.0011049723756906078
s(S'who'
p2293
S'worked'
p2294
S'at'
p2295
tp2296
F0.0011049723756906078
s(S'since'
p2297
S'worked'
p2298
S'with'
p2299
tp2300
F0.0011049723756906078
s(S'[[adj]]'
p2301
S'work'
p2302
S'in'
p2303
tp2304
F0.0011049723756906078
s(S'is'
p2305
S'returned'
p2306
S'to'
p2307
tp2308
F0.0011049723756906078
s(S'also'
p2309
S'works'
p2310
S'as'
p2311
tp2312
F0.0011049723756906078
s(S'formerly'
p2313
S'served'
p2314
S'for'
p2315
tp2316
F0.0011049723756906078
s(S'also'
p2317
S'teaches'
p2318
S'at'
p2319
tp2320
F0.0011049723756906078
s(S'[[adj]]'
p2321
S'member'
p2322
S'[[adj]]'
p2323
tp2324
F0.0011049723756906078
s(S'has'
p2325
S'taught'
p2326
S'in'
p2327
tp2328
F0.0011049723756906078
s(S'[[adj]]'
p2329
S'manager'
p2330
S'with'
p2331
tp2332
F0.0011049723756906078
s(S'later'
p2333
S'named'
p2334
S'of'
p2335
tp2336
F0.0011049723756906078
s(S'then'
p2337
S'head'
p2338
S'of'
p2339
tp2340
F0.0011049723756906078
s(S'also'
p2341
S'served'
p2342
S'against'
p2343
tp2344
F0.0011049723756906078
s(S'[[det]]'
p2345
S'served'
p2346
S'as'
p2347
tp2348
F0.0011049723756906078
s(S'then'
p2349
S'named'
p2350
S'[[det]]'
p2351
tp2352
F0.0011049723756906078
s(S'made'
p2353
S'professor'
p2354
S'in'
p2355
tp2356
F0.0011049723756906078
s(S'was'
p2357
S'appointed'
p2358
S'[[adj]]'
p2359
tp2360
F0.0011049723756906078
s(S'also'
p2361
S'served'
p2362
S'for'
p2363
tp2364
F0.0011049723756906078
s(S'then'
p2365
S'joined'
p2366
S'of'
p2367
tp2368
F0.0011049723756906078
s(S'also'
p2369
S'hired'
p2370
S'by'
p2371
tp2372
F0.0011049723756906078
s(S'[[adj]]'
p2373
S'director'
p2374
S'of'
p2375
tp2376
F0.0011049723756906078
s(S'was'
p2377
S'president'
p2378
S'[[num]]'
p2379
tp2380
F0.0011049723756906078
s(S'also'
p2381
S'served'
p2382
S'[[con]]'
p2383
tp2384
F0.0011049723756906078
s(S'was'
p2385
S'named'
p2386
S'of'
p2387
tp2388
F0.0011049723756906078
s(S'[[det]]'
p2389
S'member'
p2390
S'has'
p2391
tp2392
F0.0011049723756906078
s(S'has'
p2393
S'taught'
p2394
S'[[det]]'
p2395
tp2396
F0.0011049723756906078
s(S'that'
p2397
S'involved'
p2398
S'[[det]]'
p2399
tp2400
F0.0011049723756906078
s(S'soon'
p2401
S'left'
p2402
S'to'
p2403
tp2404
F0.0011049723756906078
s(S'became'
p2405
S'head'
p2406
S'at'
p2407
tp2408
F0.0011049723756906078
s(S'[[con]]'
p2409
S'serves'
p2410
S'in'
p2411
tp2412
F0.0011049723756906078
s(S'was'
p2413
S'professor'
p2414
S'for'
p2415
tp2416
F0.0011049723756906078
s(S'been'
p2417
S'named'
p2418
S'in'
p2419
tp2420
F0.0011049723756906078
s(S'who'
p2421
S'served'
p2422
S'in'
p2423
tp2424
F0.0011049723756906078
s(S'had'
p2425
S'worked'
p2426
S'out'
p2427
tp2428
F0.0011049723756906078
s(S'recently'
p2429
g1698
g627
tp2430
F0.0011049723756906078
s(S'[[adj]]'
p2431
S'manager'
p2432
S'at'
p2433
tp2434
F0.0011049723756906078
s(S'once'
p2435
S'served'
p2436
S'as'
p2437
tp2438
F0.0011049723756906078
s(S'currently'
p2439
S'working'
p2440
S'towards'
p2441
tp2442
F0.0011049723756906078
s(S'was'
p2443
S'involved'
p2444
S'for'
p2445
tp2446
F0.0011049723756906078
s(S'now'
p2447
S'teaches'
p2448
S'at'
p2449
tp2450
F0.0011049723756906078
s(S'was'
p2451
S'named'
p2452
S'on'
p2453
tp2454
F0.0011049723756906078
s(S'[[con]]'
p2455
S'member'
p2456
S'[[det]]'
p2457
tp2458
F0.0011049723756906078
s(S'[[adj]]'
p2459
S'work'
p2460
S'for'
p2461
tp2462
F0.0011049723756906078
s(S'[[con]]'
p2463
S'returned'
p2464
S'at'
p2465
tp2466
F0.0011049723756906078
s(S'with'
p2467
S'joined'
p2468
S'[[det]]'
p2469
tp2470
F0.0011049723756906078
s(S'currently'
p2471
S'teaches'
p2472
S'[[con]]'
p2473
tp2474
F0.0011049723756906078
s(S'[[det]]'
p2475
S'member'
p2476
S'to'
p2477
tp2478
F0.0011049723756906078
s(S'also'
p2479
S'teaches'
p2480
S'[[adj]]'
p2481
tp2482
F0.0011049723756906078
s(S'now'
p2483
S'works'
p2484
S'as'
p2485
tp2486
F0.0011049723756906078
s(S'also'
p2487
S'involved'
p2488
S'in'
p2489
tp2490
F0.0011049723756906078
s(S'[[det]]'
p2491
S'professor'
p2492
S'at'
p2493
tp2494
F0.0011049723756906078
s(S'[[det]]'
p2495
S'director'
p2496
S'[[det]]'
p2497
tp2498
F0.0011049723756906078
s(S'[[det]]'
p2499
S'founder'
p2500
S'[[con]]'
p2501
tp2502
F0.0011049723756906078
s(g169
S'departure'
p2503
S'for'
p2504
tp2505
F0.0011049723756906078
s(S'[[det]]'
p2506
S'seat'
p2507
S'on'
p2508
tp2509
F0.0011049723756906078
s(S'became'
p2510
S'editor'
p2511
S'of'
p2512
tp2513
F0.0011049723756906078
s(S'[[adj]]'
p2514
S'president'
p2515
S'for'
p2516
tp2517
F0.0011049723756906078
s(S'first'
p2518
S'worked'
p2519
S'at'
p2520
tp2521
F0.0011049723756906078
s(S'while'
p2522
S'working'
p2523
S'at'
p2524
tp2525
F0.0011049723756906078
s(S'[[det]]'
p2526
S'founder'
p2527
S'of'
p2528
tp2529
F0.0011049723756906078
s(S'[[adj]]'
p2530
S'manager'
p2531
S'in'
p2532
tp2533
F0.0011049723756906078
s(S'was'
p2534
S'president'
p2535
S'at'
p2536
tp2537
F0.0011049723756906078
s(S'was'
p2538
S'hired'
p2539
S'for'
p2540
tp2541
F0.0011049723756906078
s(S'to'
p2542
S'work'
p2543
S'[[adj]]'
p2544
tp2545
F0.0011049723756906078
s(S'also'
p2546
S'worked'
p2547
S'for'
p2548
tp2549
F0.0011049723756906078
s(S'is'
p2550
S'member'
p2551
S'[[det]]'
p2552
tp2553
F0.0011049723756906078
s(S'also'
p2554
S'taught'
p2555
S'[[con]]'
p2556
tp2557
F0.0011049723756906078
s(S'[[adj]]'
p2558
S'professor'
p2559
S'for'
p2560
tp2561
F0.0011049723756906078
s(S'[[det]]'
p2562
S'seat'
p2563
S'in'
p2564
tp2565
F0.0011049723756906078
s(g628
g629
g2192
tp2566
F0.0011049723756906078
s(S'[[num]]'
p2567
S'served'
p2568
S'in'
p2569
tp2570
F0.0011049723756906078
s(S'is'
p2571
S'involved'
p2572
S'[[con]]'
p2573
tp2574
F0.0011049723756906078
s(S'now'
p2575
S'serves'
p2576
S'for'
p2577
tp2578
F0.0011049723756906078
s(S'was'
p2579
S'dean'
p2580
S'of'
p2581
tp2582
F0.0011049723756906078
s(S'then'
p2583
S'appointed'
p2584
S'of'
p2585
tp2586
F0.0011049723756906078
s(S'being'
p2587
S'named'
p2588
S'of'
p2589
tp2590
F0.0011049723756906078
s(S'then'
p2591
S'left'
p2592
S'[[det]]'
p2593
tp2594
F0.0011049723756906078
s(S'[[det]]'
p2595
S'president'
p2596
S'of'
p2597
tp2598
F0.0011049723756906078
s(S'then'
p2599
S'joined'
p2600
S'[[det]]'
p2601
tp2602
F0.0011049723756906078
s(S'become'
p2603
S'president'
p2604
S'of'
p2605
tp2606
F0.0011049723756906078
s(S'was'
p2607
S'working'
p2608
S'for'
p2609
tp2610
F0.0011049723756906078
s(S'[[det]]'
p2611
S'lecturer'
p2612
S'at'
p2613
tp2614
F0.0011049723756906078
s(S'[[det]]'
p2615
S'work'
p2616
S'[[con]]'
p2617
tp2618
F0.0011049723756906078
s(S'[[con]]'
p2619
S'resigned'
p2620
S'from'
p2621
tp2622
F0.0011049723756906078
s(S'be'
p2623
S'involved'
p2624
S'in'
p2625
tp2626
F0.0011049723756906078
s(S'later'
p2627
S'work'
p2628
S'with'
p2629
tp2630
F0.0011049723756906078
s(g731
g732
g85
tp2631
F0.0011049723756906078
s(S'also'
p2632
S'served'
p2633
S'from'
p2634
tp2635
F0.0011049723756906078
s(S'first'
p2636
S'worked'
p2637
S'for'
p2638
tp2639
F0.0011049723756906078
s(S'later'
p2640
S'taught'
p2641
S'at'
p2642
tp2643
F0.0011049723756906078
s(S'had'
p2644
S'served'
p2645
S'[[con]]'
p2646
tp2647
F0.0011049723756906078
s(S'currently'
p2648
S'teaching'
p2649
S'at'
p2650
tp2651
F0.0011049723756906078
s(S'[[det]]'
p2652
S'manager'
p2653
S'with'
p2654
tp2655
F0.0011049723756906078
s(S'[[adj]]'
p2656
S'lecturer'
p2657
S'[[det]]'
p2658
tp2659
F0.0011049723756906078
s(S'to'
p2660
S'join'
p2661
S'[[det]]'
p2662
tp2663
F0.0011049723756906078
s(S'was'
p2664
S'involved'
p2665
S'by'
p2666
tp2667
F0.0011049723756906078
s(S'[[con]]'
p2668
S'worked'
p2669
S'for'
p2670
tp2671
F0.0011049723756906078
s(S'became'
p2672
S'head'
p2673
S'for'
p2674
tp2675
F0.0011049723756906078
s(S'had'
p2676
S'left'
p2677
S'[[det]]'
p2678
tp2679
F0.0011049723756906078
s(S'as'
p2680
S'member'
p2681
S'of'
p2682
tp2683
F0.0011049723756906078
s(S'[[det]]'
p2684
S'president'
p2685
S'[[con]]'
p2686
tp2687
F0.0011049723756906078
s(S'been'
p2688
S'working'
p2689
S'at'
p2690
tp2691
F0.0011049723756906078
s(S'been'
p2692
S'involved'
p2693
S'as'
p2694
tp2695
F0.0011049723756906078
s(S'[[det]]'
p2696
S'head'
p2697
S'of'
p2698
tp2699
F0.0011049723756906078
s(S'now'
p2700
S'works'
p2701
S'for'
p2702
tp2703
F0.0011049723756906078
s(S'[[prp]]'
p2704
S'work'
p2705
S'at'
p2706
tp2707
F0.0011049723756906078
s(S'[[adj]]'
p2708
S'president'
p2709
S'at'
p2710
tp2711
F0.0011049723756906078
s(S'has'
p2712
S'served'
p2713
S'where'
p2714
tp2715
F0.0011049723756906078
s(S'[[adj]]'
p2716
S'working'
p2717
S'for'
p2718
tp2719
F0.0011049723756906078
s(S'become'
p2720
S'director'
p2721
S'at'
p2722
tp2723
F0.0011049723756906078
s(S'[[con]]'
p2724
S'served'
p2725
S'for'
p2726
tp2727
F0.0011049723756906078
s(S'in'
p2728
S'working'
p2729
S'with'
p2730
tp2731
F0.0011049723756906078
s(S'was'
p2732
S'appointed'
p2733
S'[[num]]'
p2734
tp2735
F0.0011049723756906078
s(S'had'
p2736
S'worked'
p2737
S'in'
p2738
tp2739
F0.0011049723756906078
s(S'first'
p2740
S'joined'
p2741
S'[[con]]'
p2742
tp2743
F0.0011049723756906078
s(S'had'
p2744
S'joined'
p2745
S'of'
p2746
tp2747
F0.0011049723756906078
s(S'also'
p2748
S'served'
p2749
S'when'
p2750
tp2751
F0.0011049723756906078
s(S'is'
p2752
S'director'
p2753
S'at'
p2754
tp2755
F0.0011049723756906078
s(S'nominated'
p2756
S'to'
p2757
g33
tp2758
F0.0011049723756906078
s(S'currently'
p2759
S'working'
p2760
S'as'
p2761
tp2762
F0.0011049723756906078
s(S'was'
p2763
S'retired'
p2764
S'from'
p2765
tp2766
F0.0011049723756906078
s(S'was'
p2767
S'hired'
p2768
S'from'
p2769
tp2770
F0.0011049723756906078
s(S'later'
p2771
S'worked'
p2772
S'for'
p2773
tp2774
F0.0011049723756906078
s(S'[[det]]'
p2775
S'pastor'
p2776
S'of'
p2777
tp2778
F0.0011049723756906078
s(S'[[con]]'
p2779
S'director'
p2780
S'[[det]]'
p2781
tp2782
F0.0011049723756906078
s(S'currently'
p2783
S'teaches'
p2784
S'in'
p2785
tp2786
F0.0011049723756906078
s(S'[[con]]'
p2787
S'joined'
p2788
S'at'
p2789
tp2790
F0.0011049723756906078
s(S'was'
p2791
S'appointed'
p2792
S'to'
p2793
tp2794
F0.0011049723756906078
s(S'later'
p2795
S'left'
p2796
S'for'
p2797
tp2798
F0.0011049723756906078
s(S'[[adj]]'
p2799
S'editor'
p2800
S'[[det]]'
p2801
tp2802
F0.0011049723756906078
s(S'still'
p2803
S'working'
p2804
S'for'
p2805
tp2806
F0.0011049723756906078
s(S'then'
p2807
S'served'
p2808
S'as'
p2809
tp2810
F0.0011049723756906078
s(S'[[con]]'
p2811
S'president'
p2812
S'of'
p2813
tp2814
F0.0011049723756906078
s(S'also'
p2815
S'serves'
p2816
S'[[det]]'
p2817
tp2818
F0.0011049723756906078
s(S'later'
p2819
S'appointed'
p2820
S'[[det]]'
p2821
tp2822
F0.0011049723756906078
s(S'was'
p2823
S'appointed'
p2824
S'for'
p2825
tp2826
F0.0011049723756906078
s(S'also'
p2827
S'served'
p2828
S'along'
p2829
tp2830
F0.0011049723756906078
s(S'[[adj]]'
p2831
S'member'
p2832
S'in'
p2833
tp2834
F0.0011049723756906078
s(S'is'
p2835
S'named'
p2836
S'by'
p2837
tp2838
F0.0011049723756906078
s(S'[[adj]]'
p2839
S'served'
p2840
S'at'
p2841
tp2842
F0.0011049723756906078
s(S'[[adj]]'
p2843
S'member'
p2844
S'[[num]]'
p2845
tp2846
F0.0011049723756906078
s(S'also'
p2847
S'served'
p2848
S'[[num]]'
p2849
tp2850
F0.0011049723756906078
s(S'had'
p2851
S'served'
p2852
S'as'
p2853
tp2854
F0.0011049723756906078
s(S'[[con]]'
p2855
S'served'
p2856
S'[[det]]'
p2857
tp2858
F0.0011049723756906078
s(S'where'
p2859
S'served'
p2860
S'as'
p2861
tp2862
F0.0011049723756906078
s(S'when'
p2863
S'served'
p2864
S'as'
p2865
tp2866
F0.0011049723756906078
s(S'[[adj]]'
p2867
S'member'
p2868
S'at'
p2869
tp2870
F0.0011049723756906078
s(S'never'
p2871
S'left'
p2872
S'[[det]]'
p2873
tp2874
F0.0011049723756906078
s(S'formerly'
p2875
S'served'
p2876
S'in'
p2877
tp2878
F0.0011049723756906078
s(S'also'
p2879
S'member'
p2880
S'of'
p2881
tp2882
F0.0011049723756906078
s(S'has'
p2883
S'taught'
p2884
S'for'
p2885
tp2886
F0.0011049723756906078
s(S'first'
p2887
S'appointed'
p2888
S'to'
p2889
tp2890
F0.0011049723756906078
s(S'[[det]]'
p2891
S'member'
p2892
S'[[adj]]'
p2893
tp2894
F0.0011049723756906078
s(S'to'
p2895
S'work'
p2896
S'for'
p2897
tp2898
F0.0011049723756906078
s(S'was'
p2899
S'director'
p2900
S'[[con]]'
p2901
tp2902
F0.0011049723756906078
s(S'has'
p2903
S'served'
p2904
S'as'
p2905
tp2906
F0.0011049723756906078
s(S'also'
p2907
S'worked'
p2908
S'[[con]]'
p2909
tp2910
F0.0011049723756906078
s(S'became'
p2911
S'president'
p2912
S'of'
p2913
tp2914
F0.0011049723756906078
s(S'also'
p2915
S'served'
p2916
S'at'
p2917
tp2918
F0.0011049723756906078
s(S'was'
p2919
S'appointed'
p2920
S'was'
p2921
tp2922
F0.0011049723756906078
s(g87
g317
S'position'
p2923
tp2924
F0.0011049723756906078
s(S'has'
p2925
S'joined'
p2926
S'[[det]]'
p2927
tp2928
F0.0011049723756906078
s(S'[[det]]'
p2929
S'editor'
p2930
S'at'
p2931
tp2932
F0.0011049723756906078
s(S'was'
p2933
S'working'
p2934
S'as'
p2935
tp2936
F0.0011049723756906078
s(S'been'
p2937
S'professor'
p2938
S'at'
p2939
tp2940
F0.0011049723756906078
s(S'became'
p2941
S'president'
p2942
S'[[con]]'
p2943
tp2944
F0.0011049723756906078
s(S'then'
p2945
S'worked'
p2946
S'at'
p2947
tp2948
F0.0011049723756906078
s(S'was'
p2949
S'named'
p2950
S'to'
p2951
tp2952
F0.0011049723756906078
s(S'was'
p2953
S'professor'
p2954
S'[[det]]'
p2955
tp2956
F0.0011049723756906078
s(g728
g535
g536
tp2957
F0.0011049723756906078
s(S'was'
p2958
S'head'
p2959
S'of'
p2960
tp2961
F0.0011049723756906078
s(S'has'
p2962
S'left'
p2963
S'[[con]]'
p2964
tp2965
F0.0011049723756906078
s(g169
S'departure'
p2966
S'to'
p2967
tp2968
F0.0011049723756906078
s(S'also'
p2969
S'worked'
p2970
S'from'
p2971
tp2972
F0.0011049723756906078
s(S'currently'
p2973
S'serves'
p2974
S'at'
p2975
tp2976
F0.0011049723756906078
s(S'[[con]]'
p2977
S'joined'
p2978
S'[[adj]]'
p2979
tp2980
F0.0011049723756906078
s(S'been'
p2981
S'president'
p2982
S'[[con]]'
p2983
tp2984
F0.0011049723756906078
s(g2757
g33
g34
tp2985
F0.0011049723756906078
s(S'[[det]]'
p2986
S'dean'
p2987
S'at'
p2988
tp2989
F0.0011049723756906078
s(S'[[det]]'
p2990
S'director'
p2991
S'of'
p2992
tp2993
F0.0011049723756906078
s(S'is'
p2994
S'head'
p2995
S'[[det]]'
p2996
tp2997
F0.0011049723756906078
s(g732
g85
g86
tp2998
F0.0011049723756906078
s(S'also'
p2999
S'worked'
p3000
S'[[det]]'
p3001
tp3002
F0.0011049723756906078
s(S'had'
p3003
S'retired'
p3004
S'from'
p3005
tp3006
F0.0011049723756906078
s(S'later'
p3007
S'returned'
p3008
S'to'
p3009
tp3010
F0.0011049723756906078
s(S'[[adj]]'
p3011
S'joined'
p3012
S'[[det]]'
p3013
tp3014
F0.0011049723756906078
s(S'[[con]]'
p3015
S'appointed'
p3016
S'of'
p3017
tp3018
F0.0011049723756906078
s(S'was'
p3019
S'president'
p3020
S'of'
p3021
tp3022
F0.0011049723756906078
s(S'became'
p3023
S'president'
p3024
S'[[det]]'
p3025
tp3026
F0.0011049723756906078
s(S'[[det]]'
p3027
S'president'
p3028
S'which'
p3029
tp3030
F0.0011049723756906078
s(S'also'
p3031
S'involved'
p3032
S'for'
p3033
tp3034
F0.0011049723756906078
s(S'while'
p3035
S'working'
p3036
S'for'
p3037
tp3038
F0.0011049723756906078
s(S'is'
p3039
S'working'
p3040
S'at'
p3041
tp3042
F0.0011049723756906078
s(S'been'
p3043
S'involved'
p3044
S'with'
p3045
tp3046
F0.0011049723756906078
s(S'has'
p3047
S'taught'
p3048
S'[[con]]'
p3049
tp3050
F0.0011049723756906078
s(S'been'
p3051
S'professor'
p3052
S'of'
p3053
tp3054
F0.0011049723756906078
s(S'was'
p3055
S'head'
p3056
S'to'
p3057
tp3058
F0.0011049723756906078
s(S'[[det]]'
p3059
S'manager'
p3060
S'[[det]]'
p3061
tp3062
F0.0011049723756906078
s(S'been'
p3063
S'appointed'
p3064
S'for'
p3065
tp3066
F0.0011049723756906078
s(S'[[num]]'
p3067
S'joined'
p3068
S'[[det]]'
p3069
tp3070
F0.0011049723756906078
s(S'later'
p3071
S'hired'
p3072
S'by'
p3073
tp3074
F0.0011049723756906078
s(S'[[adj]]'
p3075
S'director'
p3076
S'[[det]]'
p3077
tp3078
F0.0011049723756906078
s(S'first'
p3079
S'taught'
p3080
S'at'
p3081
tp3082
F0.0011049723756906078
s(S'also'
p3083
S'teaches'
p3084
S'[[con]]'
p3085
tp3086
F0.0011049723756906078
s(S'was'
p3087
S'member'
p3088
S'in'
p3089
tp3090
F0.0011049723756906078
s(S'[[con]]'
p3091
S'serves'
p3092
S'on'
p3093
tp3094
F0.0011049723756906078
s(S'also'
p3095
S'named'
p3096
S'at'
p3097
tp3098
F0.0011049723756906078
s(S'[[pro]]'
p3099
S'served'
p3100
S'as'
p3101
tp3102
F0.0011049723756906078
s(S'also'
p3103
S'taught'
p3104
S'at'
p3105
tp3106
F0.0011049723756906078
s(S'[[mod]]'
p3107
S'join'
p3108
S'up'
p3109
tp3110
F0.0011049723756906078
s(S'[[adj]]'
p3111
S'seat'
p3112
S'of'
p3113
tp3114
F0.0011049723756906078
s(S'now'
p3115
S'teaches'
p3116
S'in'
p3117
tp3118
F0.0011049723756906078
s(S'also'
p3119
S'served'
p3120
S'where'
p3121
tp3122
F0.0011049723756906078
s(S'is'
p3123
S'president'
p3124
S'in'
p3125
tp3126
F0.0011049723756906078
s(S'has'
p3127
S'served'
p3128
S'to'
p3129
tp3130
F0.0011049723756906078
s(S'later'
p3131
S'worked'
p3132
S'[[con]]'
p3133
tp3134
F0.0011049723756906078
s(S'also'
p3135
S'serves'
p3136
S'[[con]]'
p3137
tp3138
F0.0011049723756906078
s(S'later'
p3139
S'served'
p3140
S'[[con]]'
p3141
tp3142
F0.0011049723756906078
s(S'[[det]]'
p3143
S'editor'
p3144
S'of'
p3145
tp3146
F0.0011049723756906078
s(S'became'
p3147
S'member'
p3148
S'for'
p3149
tp3150
F0.0011049723756906078
s(S'since'
p3151
S'left'
p3152
S'[[det]]'
p3153
tp3154
F0.0011049723756906078
s(S'was'
p3155
S'editor'
p3156
S'with'
p3157
tp3158
F0.0011049723756906078
s(S'[[det]]'
p3159
S'manager'
p3160
S'for'
p3161
tp3162
F0.0011049723756906078
s(S'[[adj]]'
p3163
S'member'
p3164
S'[[con]]'
p3165
tp3166
F0.0011049723756906078
s(S'was'
p3167
S'dean'
p3168
S'at'
p3169
tp3170
F0.0011049723756906078
s(S'[[con]]'
p3171
S'worked'
p3172
S'[[con]]'
p3173
tp3174
F0.0011049723756906078
s(S'was'
p3175
S'resigned'
p3176
S'by'
p3177
tp3178
F0.0011049723756906078
s(g34
g35
S'judge'
p3179
tp3180
F0.0011049723756906078
s(S'[[det]]'
p3181
S'member'
p3182
S'[[con]]'
p3183
tp3184
F0.0011049723756906078
s(S'have'
p3185
S'worked'
p3186
S'at'
p3187
tp3188
F0.0011049723756906078
s(S'was'
p3189
S'named'
p3190
S'with'
p3191
tp3192
F0.0011049723756906078
s(S'[[con]]'
p3193
S'taught'
p3194
S'at'
p3195
tp3196
F0.0011049723756906078
s(g317
g2923
S'as'
p3197
tp3198
F0.0011049723756906078
s(S'became'
p3199
S'dean'
p3200
S'of'
p3201
tp3202
F0.0011049723756906078
s(S'was'
p3203
S'pastor'
p3204
S'of'
p3205
tp3206
F0.0011049723756906078
s(S'have'
p3207
S'served'
p3208
S'as'
p3209
tp3210
F0.0011049723756906078
s(S'[[det]]'
p3211
S'professor'
p3212
S'[[num]]'
p3213
tp3214
F0.0011049723756906078
s(S'also'
p3215
S'served'
p3216
S'until'
p3217
tp3218
F0.0011049723756906078
s(S'had'
p3219
S'served'
p3220
S'under'
p3221
tp3222
F0.0011049723756906078
s(g169
S'work'
p3223
S'at'
p3224
tp3225
F0.0011049723756906078
s(S'[[det]]'
p3226
S'president'
p3227
S'[[adj]]'
p3228
tp3229
F0.0011049723756906078
s(S'first'
p3230
S'joined'
p3231
S'[[det]]'
p3232
tp3233
F0.0011049723756906078
s(S'when'
p3234
S'left'
p3235
S'[[det]]'
p3236
tp3237
F0.0011049723756906078
s(S'then'
p3238
S'appointed'
p3239
S'[[adj]]'
p3240
tp3241
F0.0011049723756906078
s(S'became'
p3242
S'dean'
p3243
S'at'
p3244
tp3245
F0.0011049723756906078
s(S'has'
p3246
S'served'
p3247
S'at'
p3248
tp3249
F0.0011049723756906078
s(S'[[adj]]'
p3250
S'seat'
p3251
S'in'
p3252
tp3253
F0.0011049723756906078
s(S'also'
p3254
S'president'
p3255
S'of'
p3256
tp3257
F0.0011049723756906078
s(S'was'
p3258
S'named'
p3259
S'as'
p3260
tp3261
F0.0011049723756906078
s(S'again'
p3262
S'worked'
p3263
S'for'
p3264
tp3265
F0.0011049723756906078
s(S'also'
p3266
S'named'
p3267
S'[[det]]'
p3268
tp3269
F0.0011049723756906078
s(S'was'
p3270
S'dean'
p3271
S'[[det]]'
p3272
tp3273
F0.0011049723756906078
s(S'been'
p3274
S'appointed'
p3275
S'in'
p3276
tp3277
F0.0011049723756906078
s(S'is'
p3278
S'appointed'
p3279
S'at'
p3280
tp3281
F0.0011049723756906078
s(S'has'
p3282
S'served'
p3283
S'on'
p3284
tp3285
F0.0011049723756906078
s(S'[[con]]'
p3286
S'worked'
p3287
S'again'
p3288
tp3289
F0.0011049723756906078
s(S'also'
p3290
S'taught'
p3291
S'for'
p3292
tp3293
F0.0011049723756906078
s(S'then'
p3294
S'served'
p3295
S'in'
p3296
tp3297
F0.0011049723756906078
s(S'to'
p3298
S'head'
p3299
S'at'
p3300
tp3301
F0.0011049723756906078
s(S'[[adj]]'
p3302
S'professor'
p3303
S'[[num]]'
p3304
tp3305
F0.0011049723756906078
s(S'was'
p3306
S'member'
p3307
S'[[det]]'
p3308
tp3309
F0.0011049723756906078
s(S'being'
p3310
S'appointed'
p3311
S'as'
p3312
tp3313
F0.0011049723756906078
s(S'who'
p3314
S'worked'
p3315
S'in'
p3316
tp3317
F0.0011049723756906078
s(S'was'
p3318
S'appointed'
p3319
S'on'
p3320
tp3321
F0.0011049723756906078
s(S'later'
p3322
S'served'
p3323
S'under'
p3324
tp3325
F0.0011049723756906078
s(S'is'
p3326
S'director'
p3327
S'[[con]]'
p3328
tp3329
F0.0011049723756906078
s(S'[[det]]'
p3330
S'editor'
p3331
S'[[con]]'
p3332
tp3333
F0.0011049723756906078
s(S'be'
p3334
S'returned'
p3335
S'to'
p3336
tp3337
F0.0011049723756906078
s(S'[[det]]'
p3338
S'editor'
p3339
S'[[det]]'
p3340
tp3341
F0.0011049723756906078
s(S'was'
p3342
S'appointed'
p3343
S'before'
p3344
tp3345
F0.0011049723756906078
s(S'later'
p3346
S'named'
p3347
S'[[det]]'
p3348
tp3349
F0.0011049723756906078
s(S'[[det]]'
p3350
S'member'
p3351
S'for'
p3352
tp3353
F0.0011049723756906078
s(S'again'
p3354
S'named'
p3355
S'[[det]]'
p3356
tp3357
F0.0011049723756906078
s(S'also'
p3358
S'appointed'
p3359
S'[[det]]'
p3360
tp3361
F0.0011049723756906078
s(S'currently'
p3362
S'works'
p3363
S'for'
p3364
tp3365
F0.0011049723756906078
s(S'became'
p3366
S'involved'
p3367
S'as'
p3368
tp3369
F0.0011049723756906078
s(S'[[adj]]'
p3370
S'director'
p3371
S'for'
p3372
tp3373
F0.0011049723756906078
s(S'[[adj]]'
p3374
S'editor'
p3375
S'for'
p3376
tp3377
F0.0011049723756906078
s(S'[[num]]'
p3378
S'worked'
p3379
S'for'
p3380
tp3381
F0.0011049723756906078
s(S'now'
p3382
S'working'
p3383
S'at'
p3384
tp3385
F0.0011049723756906078
s(S'was'
p3386
S'hired'
p3387
S'on'
p3388
tp3389
F0.0011049723756906078
s(S'has'
p3390
S'worked'
p3391
S'[[det]]'
p3392
tp3393
F0.0011049723756906078
s(S'[[adj]]'
p3394
S'appointed'
p3395
S'to'
p3396
tp3397
F0.0011049723756906078
s(S'was'
p3398
S'joined'
p3399
S'[[det]]'
p3400
tp3401
F0.0011049723756906078
s(S'became'
p3402
S'member'
p3403
S'of'
p3404
tp3405
F0.0011049723756906078
s(S'also'
p3406
S'served'
p3407
S'to'
p3408
tp3409
F0.0011049723756906078
s(S'was'
p3410
S'appointed'
p3411
S'of'
p3412
tp3413
F0.0011049723756906078
s(g759
g760
S'by'
p3414
tp3415
F0.0011049723756906078
s(S'is'
p3416
S'professor'
p3417
S'in'
p3418
tp3419
F0.0011049723756906078
s(S'where'
p3420
S'served'
p3421
S'under'
p3422
tp3423
F0.0011049723756906078
s(S'then'
p3424
S'served'
p3425
S'[[num]]'
p3426
tp3427
F0.0011049723756906078
s(S'became'
p3428
S'professor'
p3429
S'at'
p3430
tp3431
F0.0011049723756906078
s(S'[[adj]]'
p3432
S'served'
p3433
S'for'
p3434
tp3435
F0.0011049723756906078
s(S'currently'
p3436
S'serves'
p3437
S'as'
p3438
tp3439
F0.0011049723756906078
s(S'also'
p3440
S'served'
p3441
S'on'
p3442
tp3443
F0.0011049723756906078
s(S'then'
p3444
S'served'
p3445
S'[[det]]'
p3446
tp3447
F0.0011049723756906078
s(g169
S'worked'
p3448
S'for'
p3449
tp3450
F0.0011049723756906078
s(S'[[adj]]'
p3451
S'director'
p3452
S'[[num]]'
p3453
tp3454
F0.0011049723756906078
s(S'[[det]]'
p3455
S'manager'
p3456
S'in'
p3457
tp3458
F0.0011049723756906078
s(S'also'
p3459
S'serves'
p3460
S'at'
p3461
tp3462
F0.0011049723756906078
s(S'then'
p3463
S'served'
p3464
S'under'
p3465
tp3466
F0.0011049723756906078
s(S'until'
p3467
S'joined'
p3468
S'[[det]]'
p3469
tp3470
F0.0011049723756906078
s(S'[[con]]'
p3471
S'editor'
p3472
S'of'
p3473
tp3474
F0.0011049723756906078
s(S'[[det]]'
p3475
S'professor'
p3476
S'of'
p3477
tp3478
F0.0011049723756906078
s(S'also'
p3479
S'serves'
p3480
S'in'
p3481
tp3482
F0.0011049723756906078
s(g35
g3179
S'of'
p3483
tp3484
F0.0011049723756906078
s(S'later'
p3485
S'served'
p3486
S'in'
p3487
tp3488
F0.0011049723756906078
s(S'[[mod]]'
p3489
S'join'
p3490
S'[[adj]]'
p3491
tp3492
F0.0011049723756906078
s(S'[[adj]]'
p3493
S'teaching'
p3494
S'at'
p3495
tp3496
F0.0011049723756906078
s(S'later'
p3497
S'worked'
p3498
S'at'
p3499
tp3500
F0.0011049723756906078
s(S'then'
p3501
S'taught'
p3502
S'[[num]]'
p3503
tp3504
F0.0011049723756906078
s(S'later'
p3505
S'hired'
p3506
S'at'
p3507
tp3508
F0.0011049723756906078
s(S'then'
p3509
S'director'
p3510
S'of'
p3511
tp3512
F0.0011049723756906078
s(S'later'
p3513
S'served'
p3514
S'at'
p3515
tp3516
F0.0011049723756906078
s(S'has'
p3517
S'remained'
p3518
S'at'
p3519
tp3520
F0.0011049723756906078
s(S'had'
p3521
S'served'
p3522
S'in'
p3523
tp3524
F0.0011049723756906078
s(S'was'
p3525
S'head'
p3526
S'for'
p3527
tp3528
F0.0011049723756906078
s(S'became'
p3529
S'president'
p3530
S'at'
p3531
tp3532
F0.0011049723756906078
s(S'again'
p3533
S'joined'
p3534
S'[[det]]'
p3535
tp3536
F0.0011049723756906078
s(S'[[det]]'
p3537
S'editor'
p3538
S'for'
p3539
tp3540
F0.0011049723756906078
s(S'[[adj]]'
p3541
S'head'
p3542
S'[[det]]'
p3543
tp3544
F0.0011049723756906078
s(S'then'
p3545
S'returned'
p3546
S'where'
p3547
tp3548
F0.0011049723756906078
s(S'also'
p3549
S'served'
p3550
S'of'
p3551
tp3552
F0.0011049723756906078
s(S'then'
p3553
S'worked'
p3554
S'for'
p3555
tp3556
F0.0011049723756906078
s.