(dp0
(S'of'
p1
S'tree'
p2
S'in'
p3
tp4
F0.012345679012345678
s(S'of'
p5
S'flowering'
p6
S'plant'
p7
tp8
F0.07407407407407407
s(S'species'
p9
S'in'
p10
S'[[det]]'
p11
tp12
F0.037037037037037035
s(S'[[det]]'
p13
S'species'
p14
S'in'
p15
tp16
F0.012345679012345678
s(S'flowering'
p17
S'tree'
p18
S'in'
p19
tp20
F0.024691358024691357
s(S'flowering'
p21
S'plant'
p22
S'in'
p23
tp24
F0.07407407407407407
s(S'in'
p25
S'[[det]]'
p26
S'family'
p27
tp28
F0.1111111111111111
s(S'species'
p29
g1
g2
tp30
F0.012345679012345678
s(S'[[det]]'
p31
S'flowering'
p32
S'plant'
p33
tp34
F0.024691358024691357
s(S'[[det]]'
p35
S'plant'
p36
g9
tp37
F0.012345679012345678
s(S'species'
p38
S'of'
p39
S'plant'
p40
tp41
F0.012345679012345678
s(g32
g33
S'species'
p42
tp43
F0.012345679012345678
s(g39
g40
g25
tp44
F0.012345679012345678
s(g2
g3
S'[[det]]'
p45
tp46
F0.012345679012345678
s(S'of'
p47
g17
g18
tp48
F0.024691358024691357
s(S'plant'
p49
S'in'
p50
S'known'
p51
tp52
F0.012345679012345678
s(S'commonly'
p53
S'known'
p54
S'is'
p55
tp56
F0.012345679012345678
s(S'species'
p57
S'of'
p58
S'[[det]]'
p59
tp60
F0.012345679012345678
s(S'[[adj]]'
p61
S'shrub'
p62
S'[[det]]'
p63
tp64
F0.012345679012345678
s(S'[[adj]]'
p65
S'plant'
p66
S'in'
p67
tp68
F0.012345679012345678
s(g62
g63
S'family'
p69
tp70
F0.012345679012345678
s(g58
g59
S'family'
p71
tp72
F0.012345679012345678
s(S'species'
p73
g5
g6
tp74
F0.1111111111111111
s(g50
g51
S'by'
p75
tp76
F0.012345679012345678
s(g36
g9
g10
tp77
F0.024691358024691357
s(g55
S'[[det]]'
p78
S'species'
p79
tp80
F0.037037037037037035
s(S'[[det]]'
p81
g73
g5
tp82
F0.14814814814814814
s(S'[[det]]'
p83
S'plant'
p84
S'in'
p85
tp86
F0.012345679012345678
s(g40
g25
g26
tp87
F0.06172839506172839
s(g54
g55
g78
tp88
F0.037037037037037035
s.