(dp0
(S'done'
p1
S'work'
p2
S'[[adj]]'
p3
tp4
F0.009009009009009009
s(S'[[num]]'
p5
S'daughter'
p6
S'[[con]]'
p7
tp8
F0.009009009009009009
s(S'to'
p9
S'train'
p10
S'under'
p11
tp12
F0.009009009009009009
s(S'to'
p13
S'work'
p14
S'among'
p15
tp16
F0.009009009009009009
s(S'[[con]]'
p17
S'work'
p18
S'on'
p19
tp20
F0.009009009009009009
s(S'also'
p21
S'trained'
p22
S'[[con]]'
p23
tp24
F0.009009009009009009
s(S's'
p25
S'daughter'
p26
S'who'
p27
tp28
F0.009009009009009009
s(S'to'
p29
S'train'
p30
S'for'
p31
tp32
F0.009009009009009009
s(g25
S'daughter'
p33
S'in'
p34
tp35
F0.009009009009009009
s(S'[[adj]]'
p36
S'work'
p37
S'on'
p38
tp39
F0.009009009009009009
s(S'[[det]]'
p40
S'daughter'
p41
S'with'
p42
tp43
F0.009009009009009009
s(S'has'
p44
S'trained'
p45
S'under'
p46
tp47
F0.009009009009009009
s(S'[[det]]'
p48
S'work'
p49
S'to'
p50
tp51
F0.009009009009009009
s(S'[[prp]]'
p52
S'daughter'
p53
S'was'
p54
tp55
F0.009009009009009009
s(g25
S'daughter'
p56
S'with'
p57
tp58
F0.009009009009009009
s(S'also'
p59
S'trained'
p60
S'with'
p61
tp62
F0.009009009009009009
s(S'[[prp]]'
p63
S'daughter'
p64
S'[[con]]'
p65
tp66
F0.009009009009009009
s(S'was'
p67
S'trained'
p68
S'with'
p69
tp70
F0.009009009009009009
s(S'to'
p71
S'work'
p72
S'under'
p73
tp74
F0.009009009009009009
s(S'friends'
p75
S'with'
p76
S'[[adj]]'
p77
tp78
F0.009009009009009009
s(g25
S'work'
p79
S'as'
p80
tp81
F0.009009009009009009
s(S'[[adj]]'
p82
S'coach'
p83
S'[[con]]'
p84
tp85
F0.009009009009009009
s(S'[[adj]]'
p86
S'work'
p87
S'of'
p88
tp89
F0.009009009009009009
s(S'[[det]]'
p90
S'daughter'
p91
S'[[det]]'
p92
tp93
F0.009009009009009009
s(S'[[adj]]'
p94
S'daughter'
p95
S'by'
p96
tp97
F0.009009009009009009
s(S'[[det]]'
p98
S'daughter'
p99
S'[[pro]]'
p100
tp101
F0.009009009009009009
s(S'found'
p102
S'work'
p103
S'for'
p104
tp105
F0.009009009009009009
s(S'was'
p106
S'coached'
p107
S'by'
p108
tp109
F0.009009009009009009
s(S'has'
p110
S'coached'
p111
S'[[con]]'
p112
tp113
F0.009009009009009009
s(S'[[det]]'
p114
S'daughter'
p115
S'[[con]]'
p116
tp117
F0.009009009009009009
s(S'[[prp]]'
p118
S'work'
p119
S'with'
p120
tp121
F0.009009009009009009
s(S'[[adj]]'
p122
S'work'
p123
S'with'
p124
tp125
F0.009009009009009009
s(S'also'
p126
S'trained'
p127
S'[[adj]]'
p128
tp129
F0.009009009009009009
s(g25
S'work'
p130
S'[[con]]'
p131
tp132
F0.009009009009009009
s(S'[[det]]'
p133
S'daughter'
p134
S'to'
p135
tp136
F0.009009009009009009
s(S'to'
p137
S'work'
p138
S'again'
p139
tp140
F0.009009009009009009
s(g25
S'daughter'
p141
S'[[det]]'
p142
tp143
F0.009009009009009009
s(S'[[adj]]'
p144
S'daughter'
p145
S'[[con]]'
p146
tp147
F0.009009009009009009
s(S'[[adj]]'
p148
S'coach'
p149
S'after'
p150
tp151
F0.009009009009009009
s(S'[[num]]'
p152
S'work'
p153
S'of'
p154
tp155
F0.009009009009009009
s(S'has'
p156
S'trained'
p157
S'with'
p158
tp159
F0.009009009009009009
s(S'[[prp]]'
p160
S'work'
p161
S'on'
p162
tp163
F0.009009009009009009
s(g25
S'daughter'
p164
S'by'
p165
tp166
F0.009009009009009009
s(S'to'
p167
S'work'
p168
S'while'
p169
tp170
F0.009009009009009009
s(S'[[det]]'
p171
S'daughter'
p172
S'by'
p173
tp174
F0.009009009009009009
s(S'was'
p175
S'trained'
p176
S'by'
p177
tp178
F0.009009009009009009
s(S'to'
p179
S'work'
p180
S'by'
p181
tp182
F0.009009009009009009
s(S'[[prp]]'
p183
S'work'
p184
S'as'
p185
tp186
F0.009009009009009009
s(S'[[adj]]'
p187
g75
g76
tp188
F0.009009009009009009
s(S'to'
p189
S'work'
p190
S'as'
p191
tp192
F0.009009009009009009
s(S'only'
p193
S'daughter'
p194
S'of'
p195
tp196
F0.009009009009009009
s(S'found'
p197
S'work'
p198
S'as'
p199
tp200
F0.009009009009009009
s(S'[[det]]'
p201
S'daughter'
p202
S'[[num]]'
p203
tp204
F0.009009009009009009
s(S'to'
p205
S'work'
p206
S'[[num]]'
p207
tp208
F0.009009009009009009
s(g25
S'daughter'
p209
S'[[con]]'
p210
tp211
F0.009009009009009009
s(S'to'
p212
S'work'
p213
S'[[con]]'
p214
tp215
F0.009009009009009009
s(S'[[adj]]'
p216
S'daughter'
p217
S'[[adj]]'
p218
tp219
F0.009009009009009009
s(S'[[adj]]'
p220
S'daughter'
p221
S'of'
p222
tp223
F0.009009009009009009
s(S'[[con]]'
p224
S'work'
p225
S'with'
p226
tp227
F0.009009009009009009
s(g25
S'work'
p228
S'which'
p229
tp230
F0.009009009009009009
s(S'was'
p231
S'trained'
p232
S'[[con]]'
p233
tp234
F0.009009009009009009
s(S'is'
p235
S'daughter'
p236
S'of'
p237
tp238
F0.009009009009009009
s(S'is'
p239
S'trained'
p240
S'by'
p241
tp242
F0.009009009009009009
s(S'[[mod]]'
p243
S'work'
p244
S'with'
p245
tp246
F0.009009009009009009
s(S'[[adj]]'
p247
S'work'
p248
S'to'
p249
tp250
F0.009009009009009009
s(S'[[num]]'
p251
S'daughter'
p252
S'of'
p253
tp254
F0.009009009009009009
s(S'[[prp]]'
p255
S'work'
p256
S'[[con]]'
p257
tp258
F0.009009009009009009
s(S'to'
p259
S'work'
p260
S'together'
p261
tp262
F0.009009009009009009
s(S'is'
p263
S'paired'
p264
S'with'
p265
tp266
F0.009009009009009009
s(g25
S'work'
p267
S'with'
p268
tp269
F0.009009009009009009
s(S'[[det]]'
p270
S'work'
p271
S'by'
p272
tp273
F0.009009009009009009
s(S'is'
p274
S'coached'
p275
S'by'
p276
tp277
F0.009009009009009009
s(S'was'
p278
S'paired'
p279
S'with'
p280
tp281
F0.009009009009009009
s(S'[[prp]]'
p282
S'daughter'
p283
S'[[det]]'
p284
tp285
F0.009009009009009009
s(S'also'
p286
S'coached'
p287
S'[[adj]]'
p288
tp289
F0.009009009009009009
s(S'[[det]]'
p290
S'work'
p291
S'[[adj]]'
p292
tp293
F0.009009009009009009
s(g76
g77
S'members'
p294
tp295
F0.009009009009009009
s(S'to'
p296
S'train'
p297
S'[[adj]]'
p298
tp299
F0.009009009009009009
s(S'found'
p300
S'work'
p301
S'with'
p302
tp303
F0.009009009009009009
s(S'was'
p304
S'daughter'
p305
S'of'
p306
tp307
F0.009009009009009009
s(S'to'
p308
S'work'
p309
S'with'
p310
tp311
F0.009009009009009009
s(S'[[det]]'
p312
S'daughter'
p313
S'who'
p314
tp315
F0.009009009009009009
s(S'[[con]]'
p316
S'daughter'
p317
S'of'
p318
tp319
F0.009009009009009009
s(S'[[adj]]'
p320
S'coach'
p321
S'to'
p322
tp323
F0.009009009009009009
s(S'to'
p324
S'work'
p325
S'after'
p326
tp327
F0.009009009009009009
s(S'also'
p328
S'trained'
p329
S'under'
p330
tp331
F0.009009009009009009
s(S'has'
p332
S'coached'
p333
S'[[num]]'
p334
tp335
F0.009009009009009009
s(S'to'
p336
S'work'
p337
S'where'
p338
tp339
F0.009009009009009009
s(S'also'
p340
S'trained'
p341
S'for'
p342
tp343
F0.009009009009009009
s(S'be'
p344
S'trained'
p345
S'by'
p346
tp347
F0.009009009009009009
s(S'[[det]]'
p348
S'work'
p349
S'on'
p350
tp351
F0.009009009009009009
s(S'later'
p352
S'coached'
p353
S'by'
p354
tp355
F0.009009009009009009
s(S'was'
p356
S'paired'
p357
S'up'
p358
tp359
F0.009009009009009009
s(S'[[con]]'
p360
S'trained'
p361
S'under'
p362
tp363
F0.009009009009009009
s(S'[[det]]'
p364
S'daughter'
p365
S'of'
p366
tp367
F0.009009009009009009
s(S'to'
p368
S'work'
p369
S'[[adj]]'
p370
tp371
F0.009009009009009009
s(g25
S'work'
p372
S'[[adj]]'
p373
tp374
F0.009009009009009009
s(S'[[det]]'
p375
S'daughter'
p376
S'[[adj]]'
p377
tp378
F0.009009009009009009
s(g25
S'daughter'
p379
S'to'
p380
tp381
F0.009009009009009009
s(S'to'
p382
S'train'
p383
S'with'
p384
tp385
F0.009009009009009009
s(S'was'
p386
S'trained'
p387
S'under'
p388
tp389
F0.009009009009009009
s(S'[[det]]'
p390
S'work'
p391
S'of'
p392
tp393
F0.009009009009009009
s(S'[[adj]]'
p394
S'coach'
p395
S'under'
p396
tp397
F0.009009009009009009
s(S'[[adj]]'
p398
S'work'
p399
S'[[con]]'
p400
tp401
F0.009009009009009009
s(S'been'
p402
S'trained'
p403
S'by'
p404
tp405
F0.009009009009009009
s(S'[[prp]]'
p406
S'daughter'
p407
S'[[adj]]'
p408
tp409
F0.009009009009009009
s(S'[[adj]]'
p410
S'daughter'
p411
S'[[det]]'
p412
tp413
F0.009009009009009009
s(S'[[det]]'
p414
S'coach'
p415
S'as'
p416
tp417
F0.009009009009009009
s(S'to'
p418
S'daughter'
p419
S'of'
p420
tp421
F0.009009009009009009
s(S'[[prp]]'
p422
S'work'
p423
S'in'
p424
tp425
F0.009009009009009009
s(S'[[prp]]'
p426
S'daughter'
p427
S'to'
p428
tp429
F0.009009009009009009
s.