(dp0
(S'[[adj]]'
p1
S'released'
p2
S'to'
p3
tp4
F0.047619047619047616
s(S'was'
p5
S'released'
p6
S'[[det]]'
p7
tp8
F0.047619047619047616
s(S'was'
p9
S'released'
p10
S'after'
p11
tp12
F0.047619047619047616
s(S'was'
p13
S'released'
p14
S'as'
p15
tp16
F0.047619047619047616
s(S'been'
p17
S'released'
p18
S'[[con]]'
p19
tp20
F0.047619047619047616
s(S'[[adj]]'
p21
S'released'
p22
S'from'
p23
tp24
F0.047619047619047616
s(S'been'
p25
S'released'
p26
S'on'
p27
tp28
F0.047619047619047616
s(S'[[adj]]'
p29
S'released'
p30
S'as'
p31
tp32
F0.047619047619047616
s(S'was'
p33
S'released'
p34
S'with'
p35
tp36
F0.047619047619047616
s(S's'
p37
S'released'
p38
S'on'
p39
tp40
F0.047619047619047616
s(S'was'
p41
S'released'
p42
S'on'
p43
tp44
F0.047619047619047616
s(S'[[adj]]'
p45
S'released'
p46
S'on'
p47
tp48
F0.047619047619047616
s(S'had'
p49
S'released'
p50
S'[[det]]'
p51
tp52
F0.047619047619047616
s(S'is'
p53
S'released'
p54
S'on'
p55
tp56
F0.047619047619047616
s(S'not'
p57
S'released'
p58
S'on'
p59
tp60
F0.047619047619047616
s(S'was'
p61
S'released'
p62
S'at'
p63
tp64
F0.047619047619047616
s(S'were'
p65
S'released'
p66
S'on'
p67
tp68
F0.047619047619047616
s(S'be'
p69
S'released'
p70
S'in'
p71
tp72
F0.047619047619047616
s(S'also'
p73
S'released'
p74
S'on'
p75
tp76
F0.047619047619047616
s(S'was'
p77
S'released'
p78
S'to'
p79
tp80
F0.047619047619047616
s(S'also'
p81
S'released'
p82
S'as'
p83
tp84
F0.047619047619047616
s.