(dp0
(S'is'
p1
S'owned'
p2
S'[[con]]'
p3
tp4
F0.015151515151515152
s(S'was'
p5
S'owned'
p6
S'[[num]]'
p7
tp8
F0.015151515151515152
s(S'were'
p9
S'founded'
p10
S'by'
p11
tp12
F0.015151515151515152
s(S'were'
p13
S'formed'
p14
S'by'
p15
tp16
F0.015151515151515152
s(S'[[det]]'
p17
S'year'
p18
S'with'
p19
tp20
F0.015151515151515152
s(S'later'
p21
S'owned'
p22
S'by'
p23
tp24
F0.015151515151515152
s(S'[[adj]]'
p25
S'record'
p26
S'label'
p27
tp28
F0.045454545454545456
s(S'was'
p29
S'started'
p30
S'by'
p31
tp32
F0.015151515151515152
s(S'formerly'
p33
S'owned'
p34
S'by'
p35
tp36
F0.015151515151515152
s(S'was'
p37
S'started'
p38
S'with'
p39
tp40
F0.015151515151515152
s(g26
g27
S'started'
p41
tp42
F0.015151515151515152
s(S'[[det]]'
p43
S'artist'
p44
S'record'
p45
tp46
F0.015151515151515152
s(S'[[con]]'
p47
S'founded'
p48
S'with'
p49
tp50
F0.015151515151515152
s(S'been'
p51
S'established'
p52
S'by'
p53
tp54
F0.015151515151515152
s(S'was'
p55
S'established'
p56
S'to'
p57
tp58
F0.015151515151515152
s(S'then'
p59
S'owned'
p60
S'by'
p61
tp62
F0.015151515151515152
s(S'[[con]]'
p63
S'founded'
p64
S'by'
p65
tp66
F0.015151515151515152
s(S'[[num]]'
p67
S'universities'
p68
S'in'
p69
tp70
F0.015151515151515152
s(S'[[det]]'
p71
S'founded'
p72
S'by'
p73
tp74
F0.015151515151515152
s(S'label'
p75
S'formed'
p76
S'by'
p77
tp78
F0.015151515151515152
s(S'[[num]]'
p79
S'owned'
p80
S'by'
p81
tp82
F0.015151515151515152
s(S'[[con]]'
p83
S'formed'
p84
S'with'
p85
tp86
F0.015151515151515152
s(S'was'
p87
S'founded'
p88
S'with'
p89
tp90
F0.015151515151515152
s(S'record'
p91
S'label'
p92
S'founded'
p93
tp94
F0.045454545454545456
s(S'was'
p95
S'founded'
p96
S'by'
p97
tp98
F0.015151515151515152
s(S'was'
p99
S'established'
p100
S'under'
p101
tp102
F0.015151515151515152
s(S'record'
p103
g75
g76
tp104
F0.030303030303030304
s(S'now'
p105
S'owned'
p106
S'by'
p107
tp108
F0.015151515151515152
s(S's'
p109
S'founder'
p110
S'[[con]]'
p111
tp112
F0.015151515151515152
s(S'also'
p113
S'founded'
p114
S'by'
p115
tp116
F0.015151515151515152
s(S'was'
p117
S'incorporated'
p118
S'[[con]]'
p119
tp120
F0.015151515151515152
s(S'tours'
p121
g17
g18
tp122
F0.015151515151515152
s(S'was'
p123
S'cofounded'
p124
S'by'
p125
tp126
F0.015151515151515152
s(S'been'
p127
S'founded'
p128
S'by'
p129
tp130
F0.015151515151515152
s(S'was'
p131
S'formed'
p132
S'with'
p133
tp134
F0.015151515151515152
s(g27
g41
S'by'
p135
tp136
F0.015151515151515152
s(S'is'
p137
S'established'
p138
S'by'
p139
tp140
F0.015151515151515152
s(S'been'
p141
S'owned'
p142
S'by'
p143
tp144
F0.015151515151515152
s(S'was'
p145
S'established'
p146
S'after'
p147
tp148
F0.015151515151515152
s(g44
g45
S'label'
p149
tp150
F0.015151515151515152
s(S'was'
p151
S'formed'
p152
S'by'
p153
tp154
F0.015151515151515152
s(S'were'
p155
S'formed'
p156
S'[[con]]'
p157
tp158
F0.015151515151515152
s(g92
g93
S'by'
p159
tp160
F0.045454545454545456
s(S'[[adj]]'
p161
S'talent'
p162
S'[[con]]'
p163
tp164
F0.015151515151515152
s(S'[[det]]'
p165
S'record'
p166
S'label'
p167
tp168
F0.030303030303030304
s(S'was'
p169
S'founded'
p170
S'to'
p171
tp172
F0.015151515151515152
s(S'is'
p173
S'formed'
p174
S'by'
p175
tp176
F0.015151515151515152
s(S'is'
p177
S'founded'
p178
S'by'
p179
tp180
F0.015151515151515152
s(S'was'
p181
S'founded'
p182
S'for'
p183
tp184
F0.015151515151515152
s(S'was'
p185
S'owned'
p186
S'[[con]]'
p187
tp188
F0.015151515151515152
s(S'was'
p189
S'established'
p190
S'with'
p191
tp192
F0.015151515151515152
s(S'formerly'
p193
S'owned'
p194
S'[[con]]'
p195
tp196
F0.015151515151515152
s(S'was'
p197
S'founded'
p198
S'under'
p199
tp200
F0.015151515151515152
s(g167
S'formed'
p201
S'in'
p202
tp203
F0.015151515151515152
s(S'was'
p204
S'established'
p205
S'by'
p206
tp207
F0.015151515151515152
s(S'was'
p208
S'cofounded'
p209
S'[[con]]'
p210
tp211
F0.015151515151515152
s(S'was'
p212
S'formed'
p213
S'after'
p214
tp215
F0.015151515151515152
s(S'was'
p216
S'incorporated'
p217
S'by'
p218
tp219
F0.015151515151515152
s.