(dp0
(S'[[det]]'
p1
S'game'
p2
S'show'
p3
tp4
F0.2
s(S'[[adj]]'
p5
S'game'
p6
S'in'
p7
tp8
F0.2
s(S'[[det]]'
p9
S'game'
p10
S'by'
p11
tp12
F0.2
s(S'[[adj]]'
p13
S'game'
p14
S'[[con]]'
p15
tp16
F0.2
s(S'[[adj]]'
p17
S'game'
p18
S'of'
p19
tp20
F0.2
s.