(dp0
(S'located'
p1
S'in'
p2
S'[[det]]'
p3
tp4
F0.05263157894736842
s(S'located'
p5
S'on'
p6
S'[[det]]'
p7
tp8
F0.15789473684210525
s(S'is'
p9
g5
g6
tp10
F0.10526315789473684
s(S'is'
p11
S'located'
p12
S'at'
p13
tp14
F0.05263157894736842
s(S'was'
p15
S'located'
p16
S'on'
p17
tp18
F0.05263157894736842
s(g6
g7
S'campus'
p19
tp20
F0.15789473684210525
s(S'[[det]]'
p21
S'campus'
p22
S'of'
p23
tp24
F0.21052631578947367
s(g13
g21
g22
tp25
F0.05263157894736842
s(S'is'
p26
g1
g2
tp27
F0.05263157894736842
s(g12
g13
g21
tp28
F0.05263157894736842
s(g2
g3
S'campus'
p29
tp30
F0.05263157894736842
s.