(dp0
(S'plays'
p1
S'[[prp]]'
p2
S'home'
p3
tp4
F0.028037383177570093
s(S'soccer'
p5
S'club'
p6
S'in'
p7
tp8
F0.009345794392523364
s(S'[[det]]'
p9
S'football'
p10
S'club'
p11
tp12
F0.037383177570093455
s(S'[[det]]'
p13
S'city'
p14
S'of'
p15
tp16
F0.009345794392523364
s(S'[[adj]]'
p17
S'team'
p18
S'[[con]]'
p19
tp20
F0.009345794392523364
s(S'[[det]]'
p21
S'sports'
p22
S'club'
p23
tp24
F0.009345794392523364
s(S'is'
p25
S'based'
p26
S'in'
p27
tp28
F0.009345794392523364
s(S'to'
p29
S'play'
p30
S'[[prp]]'
p31
tp32
F0.009345794392523364
s(S'[[det]]'
p33
S'club'
p34
S'in'
p35
tp36
F0.009345794392523364
s(S'[[num]]'
p37
S'based'
p38
S'in'
p39
tp40
F0.009345794392523364
s(S'[[prp]]'
p41
S'home'
p42
S'games'
p43
tp44
F0.06542056074766354
s(S'was'
p45
S'based'
p46
S'in'
p47
tp48
F0.009345794392523364
s(S'[[det]]'
p49
S'club'
p50
S'from'
p51
tp52
F0.009345794392523364
s(S'[[adj]]'
p53
S'association'
p54
S'football'
p55
tp56
F0.009345794392523364
s(S'[[adj]]'
p57
S'team'
p58
S'from'
p59
tp60
F0.009345794392523364
s(S's'
p61
S'based'
p62
S'in'
p63
tp64
F0.009345794392523364
s(S'[[adj]]'
p65
S'club'
p66
S'in'
p67
tp68
F0.009345794392523364
s(g3
S'matches'
p69
S'at'
p70
tp71
F0.009345794392523364
s(S'soccer'
p72
S'club'
p73
S'from'
p74
tp75
F0.009345794392523364
s(S'[[con]]'
p76
S'[[mod]]'
p77
S'play'
p78
tp79
F0.009345794392523364
s(S'[[num]]'
p80
S'holding'
p81
S'home'
p82
tp83
F0.009345794392523364
s(g2
g3
g69
tp84
F0.009345794392523364
s(S'[[adj]]'
p85
S'based'
p86
S'in'
p87
tp88
F0.009345794392523364
s(S'play'
p89
S'[[prp]]'
p90
S'home'
p91
tp92
F0.04672897196261682
s(S'[[adj]]'
p93
S'football'
p94
S'club'
p95
tp96
F0.018691588785046728
s(S'from'
p97
g13
g14
tp98
F0.009345794392523364
s(S'[[mod]]'
p99
g89
g90
tp100
F0.028037383177570093
s(S'also'
p101
S'based'
p102
S'in'
p103
tp104
F0.009345794392523364
s(S'currently'
p105
S'plays'
p106
S'[[prp]]'
p107
tp108
F0.009345794392523364
s(S'association'
p109
S'football'
p110
S'club'
p111
tp112
F0.037383177570093455
s(S'soccer'
p113
S'club'
p114
S'based'
p115
tp116
F0.018691588785046728
s(S'[[det]]'
p117
g109
g110
tp118
F0.028037383177570093
s(S'led'
p119
g76
g77
tp120
F0.009345794392523364
s(S'were'
p121
S'based'
p122
S'in'
p123
tp124
F0.009345794392523364
s(S'[[adj]]'
p125
S'club'
p126
S'from'
p127
tp128
F0.009345794392523364
s(S'[[adj]]'
p129
S'site'
p130
S'which'
p131
tp132
F0.009345794392523364
s(S'is'
p133
S'based'
p134
S'out'
p135
tp136
F0.009345794392523364
s(S'plays'
p137
S'in'
p138
g80
tp139
F0.009345794392523364
s(g81
g82
S'games'
p140
tp141
F0.009345794392523364
s(S'[[det]]'
p142
S'football'
p143
g113
tp144
F0.028037383177570093
s(g10
g11
S'from'
p145
tp146
F0.018691588785046728
s(S'be'
p147
S'based'
p148
S'in'
p149
tp150
F0.009345794392523364
s(S'games'
p151
S'at'
p152
g129
tp153
F0.009345794392523364
s(g94
g95
S'in'
p154
tp155
F0.028037383177570093
s(g55
S'club'
p156
S'based'
p157
tp158
F0.04672897196261682
s(S'is'
p159
S'based'
p160
S'near'
p161
tp162
F0.009345794392523364
s(g152
g129
g130
tp163
F0.009345794392523364
s(g22
g23
S'from'
p164
tp165
F0.009345794392523364
s(S'rules'
p166
S'football'
p167
S'club'
p168
tp169
F0.009345794392523364
s(g143
g113
g114
tp170
F0.028037383177570093
s(g138
g80
g81
tp171
F0.009345794392523364
s(S'club'
p172
g97
g13
tp173
F0.009345794392523364
s(S'[[det]]'
p174
S'team'
p175
S'from'
p176
tp177
F0.009345794392523364
s(S'be'
p178
g119
g76
tp179
F0.009345794392523364
s(g82
g140
S'at'
p180
tp181
F0.07476635514018691
s(S'[[det]]'
p182
S'soccer'
p183
S'club'
p184
tp185
F0.009345794392523364
s(S'[[det]]'
p186
g166
g167
tp187
F0.009345794392523364
s(g156
g157
S'in'
p188
tp189
F0.06542056074766354
s(S'are'
p190
S'based'
p191
S'in'
p192
tp193
F0.009345794392523364
s.