(dp0
(S'was'
p1
S'transferred'
p2
S'as'
p3
tp4
F0.002403846153846154
s(S'college'
p5
S'football'
p6
S'[[det]]'
p7
tp8
F0.002403846153846154
s(S'was'
p9
S'graduated'
p10
S'from'
p11
tp12
F0.002403846153846154
s(S'football'
p13
S'[[con]]'
p14
S'basketball'
p15
tp16
F0.004807692307692308
s(S'played'
p17
S'professionally'
p18
S'[[con]]'
p19
tp20
F0.002403846153846154
s(S'played'
p21
S'basketball'
p22
S'in'
p23
tp24
F0.002403846153846154
s(g14
g15
S'at'
p25
tp26
F0.004807692307692308
s(S'[[pro]]'
p27
S'played'
p28
S'professionally'
p29
tp30
F0.002403846153846154
s(S'was'
p31
S'transferred'
p32
S'by'
p33
tp34
F0.002403846153846154
s(S'at'
p35
S'then'
p36
S'played'
p37
tp38
F0.002403846153846154
s(S'where'
p39
S'attended'
p40
S'[[con]]'
p41
tp42
F0.002403846153846154
s(S'played'
p43
S'[[num]]'
p44
S'[[adj]]'
p45
tp46
F0.002403846153846154
s(S'was'
p47
S'drafted'
p48
S'by'
p49
tp50
F0.004807692307692308
s(S'college'
p51
S'basketball'
p52
S'was'
p53
tp54
F0.002403846153846154
s(S'football'
p55
S'[[con]]'
p56
S'[[det]]'
p57
tp58
F0.004807692307692308
s(S'[[adj]]'
p59
S'football'
p60
S'games'
p61
tp62
F0.002403846153846154
s(S'was'
p63
S'graduated'
p64
S'in'
p65
tp66
F0.002403846153846154
s(S'school'
p67
S'[[con]]'
p68
S'attended'
p69
tp70
F0.002403846153846154
s(S'played'
p71
g13
g14
tp72
F0.004807692307692308
s(g56
g57
S'member'
p73
tp74
F0.004807692307692308
s(S'[[con]]'
p75
S'thereafter'
p76
S'played'
p77
tp78
F0.004807692307692308
s(S'basketball'
p79
S'[[con]]'
p80
S'thereafter'
p81
tp82
F0.002403846153846154
s(g6
g7
S'member'
p83
tp84
F0.002403846153846154
s(g60
g61
S'with'
p85
tp86
F0.002403846153846154
s(S'then'
p87
S'attended'
p88
S'[[adj]]'
p89
tp90
F0.002403846153846154
s(S'born'
p91
S'[[con]]'
p92
S'played'
p93
tp94
F0.002403846153846154
s(S'[[con]]'
p95
S'attended'
p96
S'[[con]]'
p97
tp98
F0.002403846153846154
s(S'graduated'
p99
S'[[con]]'
p100
S'played'
p101
tp102
F0.002403846153846154
s(S'college'
p103
S'football'
p104
S'for'
p105
tp106
F0.009615384615384616
s(S'played'
p107
S'basketball'
p108
S'for'
p109
tp110
F0.004807692307692308
s(S'then'
p111
S'graduated'
p112
S'from'
p113
tp114
F0.002403846153846154
s(S'being'
p115
S'transferred'
p116
S'to'
p117
tp118
F0.002403846153846154
s(S'[[adj]]'
p119
S'transferred'
p120
S'to'
p121
tp122
F0.002403846153846154
s(S'where'
p123
S'attended'
p124
S'[[det]]'
p125
tp126
F0.002403846153846154
s(S'who'
p127
S'played'
p128
S'college'
p129
tp130
F0.002403846153846154
s(S'where'
p131
S'graduated'
p132
S'from'
p133
tp134
F0.002403846153846154
s(S'played'
p135
S'college'
p136
S'for'
p137
tp138
F0.002403846153846154
s(S'later'
p139
S'played'
p140
S'[[adj]]'
p141
tp142
F0.002403846153846154
s(g77
S'professionally'
p143
S'for'
p144
tp145
F0.016826923076923076
s(S'[[con]]'
p146
S'played'
p147
S'football'
p148
tp149
F0.004807692307692308
s(S'college'
p150
S'football'
p151
S'[[con]]'
p152
tp153
F0.05048076923076923
s(S'[[con]]'
p154
S'professionally'
p155
S'in'
p156
tp157
F0.002403846153846154
s(S'played'
p158
S'[[prp]]'
p159
S'college'
p160
tp161
F0.007211538461538462
s(S'ndash'
p162
S'[[num]]'
p163
S'[[con]]'
p164
tp165
F0.002403846153846154
s(S'[[num]]'
p166
S'graduated'
p167
S'from'
p168
tp169
F0.002403846153846154
s(g53
S'recruited'
p170
S'by'
p171
tp172
F0.002403846153846154
s(S'[[con]]'
p173
S'also'
p174
S'played'
p175
tp176
F0.002403846153846154
s(S'has'
p177
S'played'
p178
S'for'
p179
tp180
F0.002403846153846154
s(S'grew'
p181
S'up'
p182
S'later'
p183
tp184
F0.002403846153846154
s(S'[[adj]]'
p185
S'school'
p186
S'basketball'
p187
tp188
F0.004807692307692308
s(S'also'
p189
S'attended'
p190
S'school'
p191
tp192
F0.002403846153846154
s(S'was'
p193
S'graduated'
p194
S'now'
p195
tp196
F0.002403846153846154
s(S'[[con]]'
p197
S'attended'
p198
S'[[adj]]'
p199
tp200
F0.004807692307692308
s(S'[[det]]'
p201
S'quarterback'
p202
S'at'
p203
tp204
F0.002403846153846154
s(S'football'
p205
S'[[con]]'
p206
S'graduated'
p207
tp208
F0.002403846153846154
s(g7
g83
S'of'
p209
tp210
F0.007211538461538462
s(S'college'
p211
S'football'
p212
S'where'
p213
tp214
F0.002403846153846154
s(S'[[det]]'
p215
S'football'
p216
S'player'
p217
tp218
F0.002403846153846154
s(S'football'
p219
S'at'
p220
S'professionally'
p221
tp222
F0.002403846153846154
s(S'was'
p223
S'transferred'
p224
S'with'
p225
tp226
F0.002403846153846154
s(S'college'
p227
S'basketball'
p228
S'at'
p229
tp230
F0.009615384615384616
s(S'football'
p231
S'[[con]]'
p232
S'played'
p233
tp234
F0.016826923076923076
s(S'[[prp]]'
p235
g227
g228
tp236
F0.002403846153846154
s(S'[[num]]'
p237
S'transferred'
p238
S'to'
p239
tp240
F0.002403846153846154
s(S'school'
p241
S'[[con]]'
p242
S'then'
p243
tp244
F0.002403846153846154
s(g52
g53
g170
tp245
F0.002403846153846154
s(S'also'
p246
S'attended'
p247
S'[[adj]]'
p248
tp249
F0.002403846153846154
s(S'football'
p250
S'after'
p251
S'graduating'
p252
tp253
F0.002403846153846154
s(S'played'
p254
S'college'
p255
S'[[con]]'
p256
tp257
F0.002403846153846154
s(S'played'
p258
S'professionally'
p259
S'in'
p260
tp261
F0.004807692307692308
s(S'[[con]]'
p262
S'played'
p263
S'[[adj]]'
p264
tp265
F0.004807692307692308
s(S'school'
p266
S'football'
p267
S'at'
p268
tp269
F0.01201923076923077
s(S'college'
p270
S'football'
p271
S'as'
p272
tp273
F0.007211538461538462
s(S'played'
p274
S'football'
p275
S'before'
p276
tp277
F0.002403846153846154
s(S'[[adj]]'
p278
g266
g267
tp279
F0.014423076923076924
s(g272
S'[[det]]'
p280
S'tackle'
p281
tp282
F0.002403846153846154
s(g182
g183
S'attended'
p283
tp284
F0.002403846153846154
s(S'in'
p285
g59
g60
tp286
F0.002403846153846154
s(S'[[con]]'
p287
S'was'
p288
S'signed'
p289
tp290
F0.002403846153846154
s(S'who'
p291
S'graduated'
p292
S'at'
p293
tp294
F0.002403846153846154
s(S'[[con]]'
p295
g162
g163
tp296
F0.002403846153846154
s(S'[[con]]'
p297
S'professionally'
p298
S'for'
p299
tp300
F0.002403846153846154
s(S'[[det]]'
p301
S'[[adj]]'
p302
S'school'
p303
tp304
F0.009615384615384616
s(S'[[adj]]'
p305
S'school'
p306
S'of'
p307
tp308
F0.002403846153846154
s(S'played'
p309
S'[[prp]]'
p310
S'[[adj]]'
p311
tp312
F0.002403846153846154
s(S'[[con]]'
p313
S'transferred'
p314
S'to'
p315
tp316
F0.002403846153846154
s(S'college'
p317
g250
g251
tp318
F0.002403846153846154
s(S'football'
p319
S'at'
p320
g154
tp321
F0.002403846153846154
s(S'when'
p322
S'transferred'
p323
S'to'
p324
tp325
F0.002403846153846154
s(S'school'
p326
S'football'
p327
S'for'
p328
tp329
F0.002403846153846154
s(g232
g233
S'professionally'
p330
tp331
F0.01201923076923077
s(g255
g256
g278
tp332
F0.002403846153846154
s(S'played'
p333
g150
g151
tp334
F0.07692307692307693
s(S'football'
p335
S'before'
p336
S'transferring'
p337
tp338
F0.004807692307692308
s(S'[[adj]]'
p339
S'school'
p340
S'from'
p341
tp342
F0.002403846153846154
s(S'who'
p343
S'graduated'
p344
S'from'
p345
tp346
F0.002403846153846154
s(S'[[con]]'
p347
g27
g28
tp348
F0.002403846153846154
s(S'college'
p349
S'basketball'
p350
S'for'
p351
tp352
F0.002403846153846154
s(S'as'
p353
g201
g202
tp354
F0.002403846153846154
s(g251
g252
S'from'
p355
tp356
F0.002403846153846154
s(S'later'
p357
S'attended'
p358
S'[[adj]]'
p359
tp360
F0.002403846153846154
s(S'football'
p361
g297
g298
tp362
F0.002403846153846154
s(S'[[con]]'
p363
g47
g48
tp364
F0.004807692307692308
s(S'school'
p365
S'[[con]]'
p366
S'played'
p367
tp368
F0.002403846153846154
s(S'grew'
p369
S'up'
p370
g39
tp371
F0.007211538461538462
s(S'was'
p372
S'transferred'
p373
S'from'
p374
tp375
F0.002403846153846154
s(S'was'
p376
S'selected'
p377
S'by'
p378
tp379
F0.004807692307692308
s(S'played'
p380
g285
g59
tp381
F0.002403846153846154
s(g220
g221
S'for'
p382
tp383
F0.002403846153846154
s(g190
g191
S'in'
p384
tp385
F0.002403846153846154
s(g163
g164
g258
tp386
F0.002403846153846154
s(S'has'
p387
S'graduated'
p388
S'from'
p389
tp390
F0.002403846153846154
s(S'attended'
p391
S'school'
p392
S'at'
p393
tp394
F0.002403846153846154
s(g76
g77
g143
tp395
F0.007211538461538462
s(S'be'
p396
S'transferred'
p397
S'to'
p398
tp399
F0.002403846153846154
s(S'football'
p400
S'[[con]]'
p401
S'was'
p402
tp403
F0.009615384615384616
s(S'played'
p404
S'[[adj]]'
p405
S'basketball'
p406
tp407
F0.01201923076923077
s(S'attended'
p408
S'school'
p409
S'from'
p410
tp411
F0.002403846153846154
s(S'previously'
p412
S'played'
p413
S'college'
p414
tp415
F0.002403846153846154
s(S'were'
p416
S'transferred'
p417
S'to'
p418
tp419
F0.002403846153846154
s(g288
g289
S'by'
p420
tp421
F0.002403846153846154
s(g370
g39
g40
tp422
F0.007211538461538462
s(S'attended'
p423
g146
g147
tp424
F0.01201923076923077
s(S'attended'
p425
S'[[con]]'
p426
S'school'
p427
tp428
F0.002403846153846154
s(S'[[con]]'
p429
S'attended'
p430
S'[[det]]'
p431
tp432
F0.002403846153846154
s(S'was'
p433
S'graduated'
p434
S'[[con]]'
p435
tp436
F0.002403846153846154
s(S'college'
p437
S'basketball'
p438
S'[[con]]'
p439
tp440
F0.01201923076923077
s(S'been'
p441
S'transferred'
p442
S'to'
p443
tp444
F0.002403846153846154
s(S'football'
p445
S'[[con]]'
p446
S'has'
p447
tp448
F0.004807692307692308
s(S'football'
p449
S'thereafter'
p450
S'played'
p451
tp452
F0.002403846153846154
s(S'[[adj]]'
p453
g365
g366
tp454
F0.01201923076923077
s(g256
g278
g266
tp455
F0.002403846153846154
s(S'grew'
p456
S'up'
p457
g262
tp458
F0.01201923076923077
s(S'was'
p459
S'transferred'
p460
S'for'
p461
tp462
F0.002403846153846154
s(g100
g101
S'college'
p463
tp464
F0.014423076923076924
s(S'[[det]]'
p465
S'school'
p466
S'of'
p467
tp468
F0.002403846153846154
s(g438
g439
S'was'
p469
tp470
F0.004807692307692308
s(S'played'
p471
g185
g186
tp472
F0.014423076923076924
s(S'attended'
p473
g301
g302
tp474
F0.009615384615384616
s(S'was'
p475
S'transferred'
p476
S'to'
p477
tp478
F0.002403846153846154
s(S'[[adj]]'
p479
S'school'
p480
S'then'
p481
tp482
F0.002403846153846154
s(g271
g272
g280
tp483
F0.004807692307692308
s(g183
g283
S'[[det]]'
p484
tp485
F0.002403846153846154
s(S'then'
p486
S'transferred'
p487
S'as'
p488
tp489
F0.002403846153846154
s(g36
g37
S'in'
p490
tp491
F0.002403846153846154
s(g320
g154
g155
tp492
F0.002403846153846154
s(S'also'
p493
S'played'
p494
S'college'
p495
tp496
F0.002403846153846154
s(g310
g311
S'school'
p497
tp498
F0.002403846153846154
s(S'was'
p499
g91
g92
tp500
F0.002403846153846154
s(S'later'
p501
S'transferred'
p502
S'to'
p503
tp504
F0.002403846153846154
s(g186
g187
S'at'
p505
tp506
F0.002403846153846154
s(S'then'
p507
S'graduated'
p508
S'at'
p509
tp510
F0.002403846153846154
s(S'basketball'
p511
g295
g162
tp512
F0.002403846153846154
s(g242
g243
S'attended'
p513
tp514
F0.002403846153846154
s(S'then'
p515
S'played'
p516
S'college'
p517
tp518
F0.004807692307692308
s(S'college'
p519
g449
g450
tp520
F0.002403846153846154
s(S'then'
p521
S'transferred'
p522
S'[[con]]'
p523
tp524
F0.002403846153846154
s(S'soon'
p525
S'transferred'
p526
S'to'
p527
tp528
F0.002403846153846154
s(g147
g148
S'for'
p529
tp530
F0.002403846153846154
s(g457
g262
g263
tp531
F0.002403846153846154
s(g402
S'selected'
p532
S'[[adj]]'
p533
tp534
F0.002403846153846154
s(S'college'
p535
S'football'
p536
S'in'
p537
tp538
F0.002403846153846154
s(g45
S'games'
p539
S'with'
p540
tp541
F0.002403846153846154
s(g336
g337
S'to'
p542
tp543
F0.004807692307692308
s(S'[[det]]'
p544
S'school'
p545
S'[[con]]'
p546
tp547
F0.002403846153846154
s(g217
g127
g128
tp548
F0.002403846153846154
s(g405
g406
S'at'
p549
tp550
F0.002403846153846154
s(S'college'
p551
S'football'
p552
g35
tp553
F0.028846153846153848
s(S'college'
p554
S'football'
p555
S'with'
p556
tp557
F0.002403846153846154
s(S'later'
p558
S'played'
p559
S'college'
p560
tp561
F0.002403846153846154
s(S'also'
p562
g107
g108
tp563
F0.004807692307692308
s(S'attended'
p564
S'[[det]]'
p565
S'school'
p566
tp567
F0.007211538461538462
s(S'[[adj]]'
p568
S'school'
p569
S'at'
p570
tp571
F0.014423076923076924
s(S'[[con]]'
p572
S'graduated'
p573
S'at'
p574
tp575
F0.002403846153846154
s(S'football'
p576
g347
g27
tp577
F0.002403846153846154
s(S'then'
p578
S'transferred'
p579
S'to'
p580
tp581
F0.002403846153846154
s(S'played'
p582
g349
g350
tp583
F0.021634615384615384
s(S'[[con]]'
p584
S'graduated'
p585
S'from'
p586
tp587
F0.004807692307692308
s(S'had'
p588
S'graduated'
p589
S'from'
p590
tp591
F0.002403846153846154
s(g44
g45
g539
tp592
F0.002403846153846154
s(S'had'
p593
S'transferred'
p594
S'to'
p595
tp596
F0.002403846153846154
s(S'[[pro]]'
p597
S'graduated'
p598
S'from'
p599
tp600
F0.002403846153846154
s(S'also'
p601
S'played'
p602
S'[[adj]]'
p603
tp604
F0.002403846153846154
s(S'then'
p605
S'played'
p606
S'basketball'
p607
tp608
F0.002403846153846154
s(S'up'
p609
g95
g96
tp610
F0.009615384615384616
s(S'attended'
p611
g453
g365
tp612
F0.02403846153846154
s(S'also'
p613
S'graduated'
p614
S'at'
p615
tp616
F0.002403846153846154
s(g137
S'[[det]]'
p617
S'football'
p618
tp619
F0.002403846153846154
s(S'attended'
p620
S'school'
p621
S'[[con]]'
p622
tp623
F0.002403846153846154
s(g552
g35
g36
tp624
F0.002403846153846154
s(g136
g137
g617
tp625
F0.002403846153846154
s(S'had'
p626
S'transferred'
p627
S'from'
p628
tp629
F0.002403846153846154
s(S'[[con]]'
p630
g43
g44
tp631
F0.002403846153846154
s(g216
g217
g127
tp632
F0.002403846153846154
s(S'college'
p633
g335
g336
tp634
F0.002403846153846154
s(S'was'
p635
S'transferred'
p636
S'back'
p637
tp638
F0.002403846153846154
s(g401
g402
g532
tp639
F0.007211538461538462
s(g446
g447
S'played'
p640
tp641
F0.004807692307692308
s(g159
g160
S'football'
p642
tp643
F0.007211538461538462
s(S'played'
p644
S'football'
p645
S'at'
p646
tp647
F0.002403846153846154
s(S'then'
p648
S'attended'
p649
S'school'
p650
tp651
F0.002403846153846154
s(S'football'
p652
g173
g174
tp653
F0.002403846153846154
s(S'school'
p654
S'basketball'
p655
S'for'
p656
tp657
F0.002403846153846154
s(S'also'
p658
S'graduated'
p659
S'from'
p660
tp661
F0.002403846153846154
s(S'is'
p662
S'transferred'
p663
S'to'
p664
tp665
F0.002403846153846154
s(g174
g175
S'professionally'
p666
tp667
F0.002403846153846154
s(S'football'
p668
g75
g76
tp669
F0.002403846153846154
s(S'later'
p670
S'graduated'
p671
S'from'
p672
tp673
F0.002403846153846154
s(g141
S'basketball'
p674
S'for'
p675
tp676
F0.007211538461538462
s(g447
g640
S'professionally'
p677
tp678
F0.002403846153846154
s(S'[[con]]'
p679
S'played'
p680
S'in'
p681
tp682
F0.002403846153846154
s(g606
g607
S'at'
p683
tp684
F0.007211538461538462
s(S'[[con]]'
p685
S'played'
p686
S'with'
p687
tp688
F0.002403846153846154
s.