(dp0
(S'also'
p1
S'appointed'
p2
S'in'
p3
tp4
F0.0009823182711198428
s(S'to'
p5
S'[[adj]]'
p6
S'family'
p7
tp8
F0.0009823182711198428
s(S'later'
p9
S'founded'
p10
S'[[det]]'
p11
tp12
F0.0009823182711198428
s(S'when'
p13
S'served'
p14
S'with'
p15
tp16
F0.0009823182711198428
s(S'[[con]]'
p17
S'served'
p18
S'with'
p19
tp20
F0.0009823182711198428
s(S'[[det]]'
p21
S'to'
p22
S'represent'
p23
tp24
F0.0009823182711198428
s(S'[[det]]'
p25
S'tour'
p26
S'of'
p27
tp28
F0.0009823182711198428
s(S'were'
p29
S'founded'
p30
S'in'
p31
tp32
F0.0009823182711198428
s(S'has'
p33
S'performed'
p34
S'on'
p35
tp36
F0.0009823182711198428
s(S'was'
p37
S'founded'
p38
S'on'
p39
tp40
F0.0009823182711198428
s(S'had'
p41
S'taken'
p42
S'part'
p43
tp44
F0.0009823182711198428
s(S'to'
p45
S'tour'
p46
S'in'
p47
tp48
F0.0009823182711198428
s(S'first'
p49
S'came'
p50
S'with'
p51
tp52
F0.0009823182711198428
s(S'began'
p53
S'[[det]]'
p54
S'[[adj]]'
p55
tp56
F0.0019646365422396855
s(S'[[adj]]'
p57
S'appointed'
p58
S'as'
p59
tp60
F0.0009823182711198428
s(S'was'
p61
S'joined'
p62
S'in'
p63
tp64
F0.0009823182711198428
s(S'[[det]]'
p65
S'metal'
p66
S'band'
p67
tp68
F0.0009823182711198428
s(S'[[adj]]'
p69
S'based'
p70
S'in'
p71
tp72
F0.0009823182711198428
s(S'hardcore'
p73
S'punk'
p74
S'band'
p75
tp76
F0.0009823182711198428
s(S'who'
p77
S'served'
p78
S'as'
p79
tp80
F0.0009823182711198428
s(S'born'
p81
S'in'
p82
S'region'
p83
tp84
F0.0009823182711198428
s(S'currently'
p85
S'lives'
p86
S'near'
p87
tp88
F0.0009823182711198428
s(S'was'
p89
S'buried'
p90
S'at'
p91
tp92
F0.0009823182711198428
s(S'spent'
p93
S'[[prp]]'
p94
S'youth'
p95
tp96
F0.0019646365422396855
s(S'[[adj]]'
p97
S'hometown'
p98
S'of'
p99
tp100
F0.0009823182711198428
s(S'orchestra'
p101
S'based'
p102
S'in'
p103
tp104
F0.0009823182711198428
s(S'[[prp]]'
p105
S'tour'
p106
S'in'
p107
tp108
F0.0009823182711198428
s(S'was'
p109
S'buried'
p110
S'in'
p111
tp112
F0.0009823182711198428
s(S'still'
p113
S'lives'
p114
S'in'
p115
tp116
F0.0009823182711198428
s(S'born'
p117
S'on'
p118
S'[[adj]]'
p119
tp120
F0.0009823182711198428
s(S'later'
p121
S'met'
p122
S'in'
p123
tp124
F0.0009823182711198428
s(S'first'
p125
S'met'
p126
S'in'
p127
tp128
F0.0009823182711198428
s(S'[[con]]'
p129
S'met'
p130
S'in'
p131
tp132
F0.0009823182711198428
s(S'who'
p133
S'served'
p134
S'with'
p135
tp136
F0.0009823182711198428
s(S'upon'
p137
S'returning'
p138
S'as'
p139
tp140
F0.0009823182711198428
s(S'instead'
p141
S'appointed'
p142
S'[[pro]]'
p143
tp144
F0.0009823182711198428
s(S'born'
p145
S'into'
p146
S'family'
p147
tp148
F0.0009823182711198428
s(S'[[num]]'
p149
S'lives'
p150
S'in'
p151
tp152
F0.0009823182711198428
s(S'[[con]]'
p153
S'later'
p154
S'moved'
p155
tp156
F0.0009823182711198428
s(S's'
p157
S'success'
p158
S'at'
p159
tp160
F0.0009823182711198428
s(S'was'
p161
S'left'
p162
S'in'
p163
tp164
F0.0009823182711198428
s(S'first'
p165
S'came'
p166
S'as'
p167
tp168
F0.0009823182711198428
s(S'formerly'
p169
S'worked'
p170
S'in'
p171
tp172
F0.0009823182711198428
s(S'currently'
p173
S'resides'
p174
S'at'
p175
tp176
F0.0009823182711198428
s(S'then'
p177
S'left'
p178
S'to'
p179
tp180
F0.0009823182711198428
s(S'was'
p181
S'left'
p182
S'at'
p183
tp184
F0.0009823182711198428
s(S'was'
p185
S'returned'
p186
S'by'
p187
tp188
F0.0009823182711198428
s(S'[[con]]'
p189
S'joined'
p190
S'[[det]]'
p191
tp192
F0.0009823182711198428
s(g6
g7
S'in'
p193
tp194
F0.003929273084479371
s(S'has'
p195
S'lived'
p196
S'most'
p197
tp198
F0.0009823182711198428
s(S'[[det]]'
p199
S'string'
p200
S'quartet'
p201
tp202
F0.0009823182711198428
s(S'has'
p203
S'performed'
p204
S'throughout'
p205
tp206
F0.0009823182711198428
s(S'[[det]]'
p207
S'band'
p208
S'formed'
p209
tp210
F0.0009823182711198428
s(S'has'
p211
S'left'
p212
S'[[det]]'
p213
tp214
F0.0009823182711198428
s(S'has'
p215
S'served'
p216
S'[[con]]'
p217
tp218
F0.0009823182711198428
s(S'[[con]]'
p219
S'served'
p220
S'at'
p221
tp222
F0.0009823182711198428
s(S'before'
p223
S'returning'
p224
S'to'
p225
tp226
F0.0009823182711198428
s(S'band'
p227
S'formed'
p228
S'from'
p229
tp230
F0.0009823182711198428
s(S'[[det]]'
p231
S'studio'
p232
S'at'
p233
tp234
F0.0009823182711198428
s(S'born'
p235
S'[[con]]'
p236
S'now'
p237
tp238
F0.0019646365422396855
s(S'[[con]]'
p239
S'died'
p240
S'at'
p241
tp242
F0.0009823182711198428
s(S'[[det]]'
p243
S'founded'
p244
S'in'
p245
tp246
F0.0009823182711198428
s(S'serve'
p247
S'as'
p248
S'[[det]]'
p249
tp250
F0.0009823182711198428
s(S'was'
p251
S'born'
p252
S'grew'
p253
tp254
F0.0009823182711198428
s(S'was'
p255
S'born'
p256
S'at'
p257
tp258
F0.0019646365422396855
s(S'before'
p259
S'moving'
p260
S'in'
p261
tp262
F0.0009823182711198428
s(S'began'
p263
S'[[det]]'
p264
S'career'
p265
tp266
F0.0009823182711198428
s(S'on'
p267
S'tour'
p268
S'in'
p269
tp270
F0.0009823182711198428
s(S'now'
p271
S'living'
p272
S'in'
p273
tp274
F0.0009823182711198428
s(S'then'
p275
S'joined'
p276
S'to'
p277
tp278
F0.0009823182711198428
s(S'[[det]]'
p279
S'alternative'
p280
S'rock'
p281
tp282
F0.0019646365422396855
s(S'again'
p283
S'returned'
p284
S'[[con]]'
p285
tp286
F0.0009823182711198428
s(S'well'
p287
S'known'
p288
S'outside'
p289
tp290
F0.0009823182711198428
s(S'was'
p291
S'returned'
p292
S'[[con]]'
p293
tp294
F0.0009823182711198428
s(S'also'
p295
S'appointed'
p296
S'[[con]]'
p297
tp298
F0.0009823182711198428
s(S'who'
p299
S'came'
p300
S'to'
p301
tp302
F0.0009823182711198428
s(S'then'
p303
S'joined'
p304
S'[[adj]]'
p305
tp306
F0.0009823182711198428
s(S'album'
p307
S'released'
p308
S'in'
p309
tp310
F0.0009823182711198428
s(S'also'
p311
S'toured'
p312
S'[[num]]'
p313
tp314
F0.0009823182711198428
s(S'had'
p315
S'joined'
p316
S'from'
p317
tp318
F0.0009823182711198428
s(S'had'
p319
S'arrived'
p320
S'in'
p321
tp322
F0.0009823182711198428
s(S'born'
p323
S'[[con]]'
p324
S'was'
p325
tp326
F0.0019646365422396855
s(S'[[adj]]'
p327
S'served'
p328
S'on'
p329
tp330
F0.0009823182711198428
s(S'to'
p331
S'live'
p332
S'in'
p333
tp334
F0.0009823182711198428
s(S'[[num]]'
p335
S'served'
p336
S'as'
p337
tp338
F0.0009823182711198428
s(S'who'
p339
S'lives'
p340
S'in'
p341
tp342
F0.0009823182711198428
s(S'where'
p343
S'served'
p344
S'in'
p345
tp346
F0.0009823182711198428
s(S'which'
p347
S'returned'
p348
S'to'
p349
tp350
F0.0009823182711198428
s(S'also'
p351
S'served'
p352
S'with'
p353
tp354
F0.0009823182711198428
s(S'[[det]]'
p355
S'rock'
p356
S'group'
p357
tp358
F0.0009823182711198428
s(S'[[prp]]'
p359
S'[[adj]]'
p360
S'career'
p361
tp362
F0.0019646365422396855
s(S'later'
p363
S'served'
p364
S'on'
p365
tp366
F0.0009823182711198428
s(S'born'
p367
S'[[con]]'
p368
S'lives'
p369
tp370
F0.0009823182711198428
s(S'mostly'
p371
S'known'
p372
S'in'
p373
tp374
F0.0009823182711198428
s(S'spent'
p375
S'[[prp]]'
p376
S'childhood'
p377
tp378
F0.0029469548133595285
s(S'was'
p379
S'born'
p380
S'of'
p381
tp382
F0.0009823182711198428
s(S'been'
p383
S'touring'
p384
S'[[det]]'
p385
tp386
F0.0009823182711198428
s(S'also'
p387
S'worked'
p388
S'in'
p389
tp390
F0.0009823182711198428
s(S'then'
p391
S'returned'
p392
S'to'
p393
tp394
F0.0009823182711198428
s(S'then'
p395
S'joined'
p396
S'side'
p397
tp398
F0.0009823182711198428
s(S'was'
p399
S'buried'
p400
S'[[con]]'
p401
tp402
F0.0009823182711198428
s(S'born'
p403
S'in'
p404
S'[[adj]]'
p405
tp406
F0.0029469548133595285
s(S'when'
p407
S'entered'
p408
S'[[det]]'
p409
tp410
F0.0009823182711198428
s(S'when'
p411
S'came'
p412
S'to'
p413
tp414
F0.0009823182711198428
s(S'is'
p415
S'buried'
p416
S'[[det]]'
p417
tp418
F0.0009823182711198428
s(S'when'
p419
S'joined'
p420
S'[[det]]'
p421
tp422
F0.0009823182711198428
s(S'on'
p423
S'tour'
p424
S'of'
p425
tp426
F0.0009823182711198428
s(S'home'
p427
S'town'
p428
S'of'
p429
tp430
F0.0019646365422396855
s(S'so'
p431
S'returned'
p432
S'to'
p433
tp434
F0.0009823182711198428
s(S'to'
p435
S'audition'
p436
S'for'
p437
tp438
F0.0009823182711198428
s(S'had'
p439
S'taken'
p440
S'to'
p441
tp442
F0.0009823182711198428
s(S'currently'
p443
S'working'
p444
S'in'
p445
tp446
F0.0009823182711198428
s(S'later'
p447
S'graduated'
p448
S'in'
p449
tp450
F0.0009823182711198428
s(S'then'
p451
S'served'
p452
S'before'
p453
tp454
F0.0009823182711198428
s(S'were'
p455
S'living'
p456
S'in'
p457
tp458
F0.0009823182711198428
s(S'on'
p459
S'[[det]]'
p460
S'coast'
p461
tp462
F0.0009823182711198428
s(S'of'
p463
S'based'
p464
S'in'
p465
tp466
F0.0009823182711198428
s(S'has'
p467
S'served'
p468
S'[[adj]]'
p469
tp470
F0.0009823182711198428
s(S'while'
p471
S'lived'
p472
S'in'
p473
tp474
F0.0009823182711198428
s(S'[[adj]]'
p475
S'based'
p476
S'at'
p477
tp478
F0.0009823182711198428
s(S'[[adj]]'
p479
S'tour'
p480
S'through'
p481
tp482
F0.0009823182711198428
s(S'also'
p483
S'appointed'
p484
S'on'
p485
tp486
F0.0009823182711198428
s(S'lives'
p487
S'[[con]]'
p488
S'works'
p489
tp490
F0.0068762278978389
s(S'[[adj]]'
p491
S'group'
p492
S'with'
p493
tp494
F0.0009823182711198428
s(S'while'
p495
S'joined'
p496
S'[[det]]'
p497
tp498
F0.0009823182711198428
s(S'then'
p499
S'returned'
p500
S'at'
p501
tp502
F0.0009823182711198428
s(S'also'
p503
S'served'
p504
S'[[det]]'
p505
tp506
F0.0009823182711198428
s(S'has'
p507
S'performed'
p508
S'in'
p509
tp510
F0.0009823182711198428
s(S'then'
p511
S'returned'
p512
S'in'
p513
tp514
F0.0009823182711198428
s(S'born'
p515
S'[[con]]'
p516
S'educated'
p517
tp518
F0.0009823182711198428
s(S'being'
p519
S'appointed'
p520
S'to'
p521
tp522
F0.0009823182711198428
s(S'was'
p523
S'married'
p524
S'[[num]]'
p525
tp526
F0.0009823182711198428
s(S'[[det]]'
p527
g101
g102
tp528
F0.0009823182711198428
s(S'then'
p529
S'spent'
p530
S'[[num]]'
p531
tp532
F0.0009823182711198428
s(S'was'
p533
S'appointed'
p534
S'[[det]]'
p535
tp536
F0.0009823182711198428
s(S'also'
p537
S'served'
p538
S'as'
p539
tp540
F0.0009823182711198428
s(S'[[det]]'
p541
S'tour'
p542
S'in'
p543
tp544
F0.0009823182711198428
s(S'twice'
p545
S'served'
p546
S'in'
p547
tp548
F0.0009823182711198428
s(S'[[det]]'
p549
S'band'
p550
S'based'
p551
tp552
F0.0009823182711198428
s(S'became'
p553
S'known'
p554
S'in'
p555
tp556
F0.0009823182711198428
s(S'[[pro]]'
p557
S'settled'
p558
S'in'
p559
tp560
F0.0009823182711198428
s(S'was'
p561
S'founded'
p562
S'[[num]]'
p563
tp564
F0.0009823182711198428
s(S'then'
p565
S'graduated'
p566
S'at'
p567
tp568
F0.0009823182711198428
s(S'also'
p569
S'appointed'
p570
S'of'
p571
tp572
F0.0009823182711198428
s(g200
g201
S'founded'
p573
tp574
F0.0009823182711198428
s(S'had'
p575
S'performed'
p576
S'as'
p577
tp578
F0.0009823182711198428
s(S'was'
p579
S'returned'
p580
S'in'
p581
tp582
F0.0009823182711198428
s(S'later'
p583
S'appointed'
p584
S'at'
p585
tp586
F0.0009823182711198428
s(S'then'
p587
S'appointed'
p588
S'[[num]]'
p589
tp590
F0.0009823182711198428
s(S'also'
p591
S'based'
p592
S'in'
p593
tp594
F0.0009823182711198428
s(S'had'
p595
S'joined'
p596
S'[[det]]'
p597
tp598
F0.0009823182711198428
s(S'to'
p599
S'prominence'
p600
S'in'
p601
tp602
F0.0009823182711198428
s(S'to'
p603
S'[[det]]'
p604
S'family'
p605
tp606
F0.0019646365422396855
s(S'to'
p607
S'tour'
p608
S'with'
p609
tp610
F0.0009823182711198428
s(S'first'
p611
S'worked'
p612
S'in'
p613
tp614
F0.0009823182711198428
s(S'then'
p615
S'appointed'
p616
S'[[pro]]'
p617
tp618
F0.0009823182711198428
s(S'[[adj]]'
p619
S'formed'
p620
S'in'
p621
tp622
F0.0009823182711198428
s(S'was'
p623
S'founded'
p624
S'in'
p625
tp626
F0.0009823182711198428
s(S'was'
p627
S'left'
p628
S'out'
p629
tp630
F0.0009823182711198428
s(S'was'
p631
S'known'
p632
S'in'
p633
tp634
F0.0009823182711198428
s(S'then'
p635
S'served'
p636
S'to'
p637
tp638
F0.0009823182711198428
s(g157
S'success'
p639
S'in'
p640
tp641
F0.0009823182711198428
s(S'first'
p642
S'served'
p643
S'in'
p644
tp645
F0.0009823182711198428
s(S'first'
p646
S'recorded'
p647
S'in'
p648
tp649
F0.0009823182711198428
s(S'when'
p650
S'died'
p651
S'at'
p652
tp653
F0.0009823182711198428
s(S'was'
p654
S'appointed'
p655
S'as'
p656
tp657
F0.0009823182711198428
s(S'is'
p658
S'interred'
p659
S'[[det]]'
p660
tp661
F0.0009823182711198428
s(S'more'
p662
S'success'
p663
S'at'
p664
tp665
F0.0009823182711198428
s(S'metalcore'
p666
S'band'
p667
S'from'
p668
tp669
F0.0009823182711198428
s(S'[[adj]]'
p670
S'band'
p671
S'from'
p672
tp673
F0.0009823182711198428
s(S'where'
p674
S'lived'
p675
S'until'
p676
tp677
F0.0009823182711198428
s(S'been'
p678
S'brought'
p679
S'to'
p680
tp681
F0.0009823182711198428
s(S'is'
p682
S'married'
p683
S'in'
p684
tp685
F0.0009823182711198428
s(S'[[con]]'
p686
S'raised'
p687
S'in'
p688
tp689
F0.0019646365422396855
s(S'then'
p690
S'served'
p691
S'on'
p692
tp693
F0.0009823182711198428
s(S'born'
p694
S'at'
p695
S'[[det]]'
p696
tp697
F0.0009823182711198428
s(S'[[det]]'
p698
S'punk'
p699
S'rock'
p700
tp701
F0.0019646365422396855
s(S'currently'
p702
S'works'
p703
S'[[con]]'
p704
tp705
F0.0009823182711198428
s(S'soon'
p706
S'joined'
p707
S'[[det]]'
p708
tp709
F0.0009823182711198428
s(S'later'
p710
S'joined'
p711
S'[[con]]'
p712
tp713
F0.0009823182711198428
s(S'had'
p714
S'married'
p715
S'in'
p716
tp717
F0.0009823182711198428
s(S'born'
p718
S'educated'
p719
S'in'
p720
tp721
F0.0009823182711198428
s(S'then'
p722
S'joined'
p723
S'[[num]]'
p724
tp725
F0.0009823182711198428
s(S'to'
p726
S'perform'
p727
S'in'
p728
tp729
F0.0009823182711198428
s(S'was'
p730
S'known'
p731
S'[[adj]]'
p732
tp733
F0.0009823182711198428
s(S'[[pro]]'
p734
S'served'
p735
S'in'
p736
tp737
F0.0009823182711198428
s(S'when'
p738
S'arrived'
p739
S'in'
p740
tp741
F0.0009823182711198428
s(S'[[det]]'
p742
S'indie'
p743
S'rock'
p744
tp745
F0.0019646365422396855
s(S'then'
p746
S'served'
p747
S'[[det]]'
p748
tp749
F0.0009823182711198428
s(S'[[prp]]'
p750
S'success'
p751
S'in'
p752
tp753
F0.0009823182711198428
s(S'with'
p754
S'founded'
p755
S'in'
p756
tp757
F0.0009823182711198428
s(S'never'
p758
S'left'
p759
S'[[det]]'
p760
tp761
F0.0009823182711198428
s(S'[[con]]'
p762
S'moved'
p763
S'to'
p764
tp765
F0.0009823182711198428
s(S'was'
p766
S'arrested'
p767
S'[[con]]'
p768
tp769
F0.0009823182711198428
s(S'[[adj]]'
p770
S'family'
p771
S'of'
p772
tp773
F0.0019646365422396855
s(S'also'
p774
S'appointed'
p775
S'[[det]]'
p776
tp777
F0.0009823182711198428
s(S'was'
p778
S'born'
p779
S'[[det]]'
p780
tp781
F0.003929273084479371
s(S'soon'
p782
S'left'
p783
S'to'
p784
tp785
F0.0009823182711198428
s(S'formerly'
p786
S'served'
p787
S'to'
p788
tp789
F0.0009823182711198428
s(S'be'
p790
S'working'
p791
S'in'
p792
tp793
F0.0009823182711198428
s(S'is'
p794
S'living'
p795
S'in'
p796
tp797
F0.0009823182711198428
s(S'[[adj]]'
p798
S'death'
p799
S'metal'
p800
tp801
F0.0009823182711198428
s(S'currently'
p802
S'living'
p803
S'in'
p804
tp805
F0.0009823182711198428
s(S'then'
p806
S'returned'
p807
S'for'
p808
tp809
F0.0009823182711198428
s(g744
g227
g228
tp810
F0.004911591355599214
s(S'[[adj]]'
p811
S'studio'
p812
S'in'
p813
tp814
F0.0009823182711198428
s(S'is'
p815
S'buried'
p816
S'on'
p817
tp818
F0.0009823182711198428
s(g157
S'based'
p819
S'in'
p820
tp821
F0.0009823182711198428
s(S'had'
p822
S'married'
p823
S'of'
p824
tp825
F0.0009823182711198428
s(S'[[num]]'
p826
S'hits'
p827
S'in'
p828
tp829
F0.0009823182711198428
s(S'on'
p830
S'tour'
p831
S'with'
p832
tp833
F0.0009823182711198428
s(S'[[con]]'
p834
S'joined'
p835
S'from'
p836
tp837
F0.0009823182711198428
s(S'had'
p838
S'returned'
p839
S'to'
p840
tp841
F0.0009823182711198428
s(S'[[con]]'
p842
S'settled'
p843
S'at'
p844
tp845
F0.0009823182711198428
s(S'[[adj]]'
p846
S'group'
p847
S'in'
p848
tp849
F0.0009823182711198428
s(S'[[det]]'
p850
S'lawsuit'
p851
S'in'
p852
tp853
F0.0009823182711198428
s(S'was'
p854
S'graduated'
p855
S'at'
p856
tp857
F0.0009823182711198428
s(S'later'
p858
S'moving'
p859
S'to'
p860
tp861
F0.0009823182711198428
s(S'had'
p862
S'died'
p863
S'at'
p864
tp865
F0.0009823182711198428
s(S'[[con]]'
p866
S'settled'
p867
S'in'
p868
tp869
F0.0009823182711198428
s(S'has'
p870
S'toured'
p871
S'across'
p872
tp873
F0.0009823182711198428
s(S'is'
p874
S'buried'
p875
S'in'
p876
tp877
F0.0009823182711198428
s(S'was'
p878
S'known'
p879
S'throughout'
p880
tp881
F0.0009823182711198428
s(S'before'
p882
S'returning'
p883
S'with'
p884
tp885
F0.0009823182711198428
s(S'also'
p886
S'came'
p887
S'[[adj]]'
p888
tp889
F0.0009823182711198428
s(S'also'
p890
S'graduated'
p891
S'in'
p892
tp893
F0.0009823182711198428
s(S'is'
p894
S'buried'
p895
S'at'
p896
tp897
F0.0009823182711198428
s(g154
g155
S'to'
p898
tp899
F0.0009823182711198428
s(g236
g237
S'resides'
p900
tp901
F0.0009823182711198428
s(S'currently'
p902
S'resides'
p903
S'in'
p904
tp905
F0.0019646365422396855
s(S'has'
p906
S'taken'
p907
S'[[prp]]'
p908
tp909
F0.0009823182711198428
s(S'was'
p910
S'performed'
p911
S'in'
p912
tp913
F0.0009823182711198428
s(S'[[adj]]'
p914
S'returned'
p915
S'to'
p916
tp917
F0.0009823182711198428
s(S'being'
p918
S'appointed'
p919
S'at'
p920
tp921
F0.0009823182711198428
s(S'then'
p922
S'lived'
p923
S'in'
p924
tp925
F0.0009823182711198428
s(S'before'
p926
S'returned'
p927
S'to'
p928
tp929
F0.0009823182711198428
s(S'is'
p930
S'appointed'
p931
S'of'
p932
tp933
F0.0009823182711198428
s(S'[[adj]]'
p934
S'appointed'
p935
S'to'
p936
tp937
F0.0009823182711198428
s(S'who'
p938
S'died'
p939
S'in'
p940
tp941
F0.0009823182711198428
s(S'better'
p942
S'known'
p943
S'in'
p944
tp945
F0.0009823182711198428
s(S'[[adj]]'
p946
S'singer'
p947
S'from'
p948
tp949
F0.0009823182711198428
s(S'indie'
p950
S'band'
p951
S'from'
p952
tp953
F0.0009823182711198428
s(S'to'
p954
S'represent'
p955
S'[[con]]'
p956
tp957
F0.0009823182711198428
s(S'have'
p958
S'served'
p959
S'in'
p960
tp961
F0.0009823182711198428
s(S'was'
p962
S'educated'
p963
S'in'
p964
tp965
F0.0009823182711198428
s(S'born'
p966
S'[[con]]'
p967
S'then'
p968
tp969
F0.0009823182711198428
s(S'when'
p970
S'died'
p971
S'in'
p972
tp973
F0.0009823182711198428
s(g146
g147
S'in'
p974
tp975
F0.0009823182711198428
s(S'who'
p976
S'joined'
p977
S'[[det]]'
p978
tp979
F0.0009823182711198428
s(S'[[adj]]'
p980
S'lived'
p981
S'in'
p982
tp983
F0.0009823182711198428
s(S'also'
p984
S'served'
p985
S'at'
p986
tp987
F0.0009823182711198428
s(S'then'
p988
S'left'
p989
S'for'
p990
tp991
F0.0009823182711198428
s(S'later'
p992
S'served'
p993
S'with'
p994
tp995
F0.0009823182711198428
s(S'instead'
p996
S'joined'
p997
S'[[det]]'
p998
tp999
F0.0009823182711198428
s(S'also'
p1000
S'served'
p1001
S'in'
p1002
tp1003
F0.0009823182711198428
s(S'had'
p1004
S'served'
p1005
S'[[det]]'
p1006
tp1007
F0.0009823182711198428
s(g157
S'known'
p1008
S'in'
p1009
tp1010
F0.0009823182711198428
s(S'formerly'
p1011
S'served'
p1012
S'at'
p1013
tp1014
F0.0009823182711198428
s(S'later'
p1015
S'attended'
p1016
S'in'
p1017
tp1018
F0.0009823182711198428
s(S'since'
p1019
S'returned'
p1020
S'to'
p1021
tp1022
F0.0009823182711198428
s(S'[[con]]'
p1023
S'now'
p1024
S'lives'
p1025
tp1026
F0.0009823182711198428
s(S'later'
p1027
S'married'
p1028
S'of'
p1029
tp1030
F0.0009823182711198428
s(S'[[adj]]'
p1031
S'career'
p1032
S'with'
p1033
tp1034
F0.0009823182711198428
s(S'born'
p1035
S'into'
p1036
g770
tp1037
F0.0019646365422396855
s(S'again'
p1038
S'left'
p1039
S'for'
p1040
tp1041
F0.0009823182711198428
s(S'had'
p1042
S'served'
p1043
S'at'
p1044
tp1045
F0.0009823182711198428
s(S'in'
p1046
S'[[det]]'
p1047
S'family'
p1048
tp1049
F0.0009823182711198428
s(S'was'
p1050
S'buried'
p1051
S'[[det]]'
p1052
tp1053
F0.0009823182711198428
s(S'had'
p1054
S'appointed'
p1055
S'to'
p1056
tp1057
F0.0009823182711198428
s(S'born'
p1058
S'[[con]]'
p1059
S'raised'
p1060
tp1061
F0.0029469548133595285
s(g118
g119
S'coast'
p1062
tp1063
F0.0009823182711198428
s(S'is'
p1064
S'born'
p1065
S'at'
p1066
tp1067
F0.0009823182711198428
s(g488
g489
S'in'
p1068
tp1069
F0.0029469548133595285
s(S'still'
p1070
S'living'
p1071
S'in'
p1072
tp1073
F0.0009823182711198428
s(S'was'
p1074
S'born'
p1075
S'raised'
p1076
tp1077
F0.0009823182711198428
s(S'[[adj]]'
p1078
S'career'
p1079
S'[[det]]'
p1080
tp1081
F0.0009823182711198428
s(S'[[prp]]'
p1082
S'[[adj]]'
p1083
S'album'
p1084
tp1085
F0.0009823182711198428
s(S'[[det]]'
p1086
S'family'
p1087
S'from'
p1088
tp1089
F0.0009823182711198428
s(S'[[det]]'
p1090
S'success'
p1091
S'with'
p1092
tp1093
F0.0009823182711198428
s(S'hardcore'
p1094
S'band'
p1095
S'from'
p1096
tp1097
F0.0009823182711198428
s(S'born'
p1098
g153
g154
tp1099
F0.0009823182711198428
s(S'then'
p1100
S'served'
p1101
S'for'
p1102
tp1103
F0.0009823182711198428
s(S'been'
p1104
S'appointed'
p1105
S'as'
p1106
tp1107
F0.0009823182711198428
s(S'is'
p1108
S'working'
p1109
S'in'
p1110
tp1111
F0.0009823182711198428
s(S'has'
p1112
S'toured'
p1113
S'throughout'
p1114
tp1115
F0.0009823182711198428
s(S'[[con]]'
p1116
S'appointed'
p1117
S'as'
p1118
tp1119
F0.0009823182711198428
s(S'[[det]]'
p1120
S'rock'
p1121
S'band'
p1122
tp1123
F0.003929273084479371
s(S'just'
p1124
S'left'
p1125
S'for'
p1126
tp1127
F0.0009823182711198428
s(S'soon'
p1128
S'left'
p1129
S'for'
p1130
tp1131
F0.0009823182711198428
s(S'then'
p1132
S'attended'
p1133
S'in'
p1134
tp1135
F0.0009823182711198428
s(S'[[pro]]'
p1136
S'joined'
p1137
S'[[det]]'
p1138
tp1139
F0.0009823182711198428
s(S'[[det]]'
p1140
S'success'
p1141
S'at'
p1142
tp1143
F0.0009823182711198428
s(S'have'
p1144
S'joined'
p1145
S'[[det]]'
p1146
tp1147
F0.0009823182711198428
s(S'[[num]]'
p1148
S'died'
p1149
S'in'
p1150
tp1151
F0.0009823182711198428
s(g1121
g1122
S'from'
p1152
tp1153
F0.005893909626719057
s(S'had'
p1154
S'joined'
p1155
S'side'
p1156
tp1157
F0.0009823182711198428
s(S'be'
p1158
S'appointed'
p1159
S'to'
p1160
tp1161
F0.0009823182711198428
s(S'then'
p1162
S'attended'
p1163
S'at'
p1164
tp1165
F0.0009823182711198428
s(S'been'
p1166
S'living'
p1167
S'at'
p1168
tp1169
F0.0009823182711198428
s(S'where'
p1170
S'joined'
p1171
S'[[det]]'
p1172
tp1173
F0.0009823182711198428
s(S'has'
p1174
S'traveled'
p1175
S'[[det]]'
p1176
tp1177
F0.0009823182711198428
s(S'went'
p1178
S'home'
p1179
S'to'
p1180
tp1181
F0.0009823182711198428
s(S'[[num]]'
p1182
S'worked'
p1183
S'in'
p1184
tp1185
F0.0009823182711198428
s(S'who'
p1186
S'served'
p1187
S'[[con]]'
p1188
tp1189
F0.0009823182711198428
s(S'later'
p1190
S'served'
p1191
S'as'
p1192
tp1193
F0.0009823182711198428
s(S'[[det]]'
p1194
S'living'
p1195
S'in'
p1196
tp1197
F0.0009823182711198428
s(S'had'
p1198
S'attended'
p1199
S'in'
p1200
tp1201
F0.0009823182711198428
s(S'later'
p1202
S'lived'
p1203
S'in'
p1204
tp1205
F0.0009823182711198428
s(S'[[pro]]'
p1206
S'met'
p1207
S'in'
p1208
tp1209
F0.0009823182711198428
s(S'at'
p1210
S'home'
p1211
S'in'
p1212
tp1213
F0.0009823182711198428
s(S'[[con]]'
p1214
S'lives'
p1215
S'in'
p1216
tp1217
F0.003929273084479371
s(S'was'
p1218
S'moving'
p1219
S'to'
p1220
tp1221
F0.0009823182711198428
s(S'[[det]]'
p1222
S'studio'
p1223
S'in'
p1224
tp1225
F0.0009823182711198428
s(S'[[adj]]'
p1226
S'died'
p1227
S'in'
p1228
tp1229
F0.0009823182711198428
s(S'just'
p1230
S'arrived'
p1231
S'in'
p1232
tp1233
F0.0009823182711198428
s(S'born'
p1234
S'moved'
p1235
S'to'
p1236
tp1237
F0.0019646365422396855
s(S'had'
p1238
S'performed'
p1239
S'in'
p1240
tp1241
F0.0009823182711198428
s(g54
g55
S'career'
p1242
tp1243
F0.0019646365422396855
s(S'born'
p1244
S'[[con]]'
p1245
S'resides'
p1246
tp1247
F0.0009823182711198428
s(S'when'
p1248
S'left'
p1249
S'for'
p1250
tp1251
F0.0009823182711198428
s(S'were'
p1252
S'formed'
p1253
S'in'
p1254
tp1255
F0.0009823182711198428
s(S'born'
p1256
g5
g6
tp1257
F0.0009823182711198428
s(S'most'
p1258
S'[[prp]]'
p1259
S'childhood'
p1260
tp1261
F0.0009823182711198428
s(S'also'
p1262
S'appointed'
p1263
S'as'
p1264
tp1265
F0.0009823182711198428
s(S'to'
p1266
S'represent'
p1267
S'in'
p1268
tp1269
F0.0009823182711198428
s(S'have'
p1270
S'married'
p1271
S'[[det]]'
p1272
tp1273
F0.0009823182711198428
s(S'twice'
p1274
S'served'
p1275
S'as'
p1276
tp1277
F0.0009823182711198428
s(S'was'
p1278
S'joined'
p1279
S'on'
p1280
tp1281
F0.0009823182711198428
s(S'have'
p1282
S'worked'
p1283
S'in'
p1284
tp1285
F0.0009823182711198428
s(S'[[con]]'
p1286
g962
g963
tp1287
F0.0009823182711198428
s(S'later'
p1288
S'joined'
p1289
S'at'
p1290
tp1291
F0.0009823182711198428
s(S'back'
p1292
S'home'
p1293
S'to'
p1294
tp1295
F0.0009823182711198428
s(S'that'
p1296
S'formed'
p1297
S'in'
p1298
tp1299
F0.0019646365422396855
s(S'[[adj]]'
p1300
S'hits'
p1301
S'in'
p1302
tp1303
F0.0009823182711198428
s(S'also'
p1304
S'known'
p1305
S'in'
p1306
tp1307
F0.0009823182711198428
s(S'later'
p1308
S'toured'
p1309
S'in'
p1310
tp1311
F0.0009823182711198428
s(S'[[adj]]'
p1312
S'suburb'
p1313
S'of'
p1314
tp1315
F0.0009823182711198428
s(S'where'
p1316
S'served'
p1317
S'with'
p1318
tp1319
F0.0009823182711198428
s(S'[[prp]]'
p1320
S'home'
p1321
S'near'
p1322
tp1323
F0.0009823182711198428
s(S'have'
p1324
S'met'
p1325
S'in'
p1326
tp1327
F0.0009823182711198428
s(S'also'
p1328
S'came'
p1329
S'to'
p1330
tp1331
F0.0009823182711198428
s(S'also'
p1332
S'joined'
p1333
S'[[det]]'
p1334
tp1335
F0.0009823182711198428
s(S'[[con]]'
p1336
S'moved'
p1337
S'[[con]]'
p1338
tp1339
F0.0009823182711198428
s(S'to'
p1340
S'represent'
p1341
S'[[det]]'
p1342
tp1343
F0.0009823182711198428
s(S'[[con]]'
p1344
S'currently'
p1345
S'resides'
p1346
tp1347
F0.0009823182711198428
s(S'was'
p1348
S'interred'
p1349
S'[[det]]'
p1350
tp1351
F0.0009823182711198428
s(S'has'
p1352
S'served'
p1353
S'in'
p1354
tp1355
F0.0009823182711198428
s(S'had'
p1356
S'brought'
p1357
S'back'
p1358
tp1359
F0.0009823182711198428
s(S'[[adj]]'
p1360
S'served'
p1361
S'as'
p1362
tp1363
F0.0009823182711198428
s(S'then'
p1364
S'living'
p1365
S'in'
p1366
tp1367
F0.0009823182711198428
s(g356
g357
S'from'
p1368
tp1369
F0.0009823182711198428
s(S'[[adj]]'
p1370
S'childhood'
p1371
S'in'
p1372
tp1373
F0.0009823182711198428
s(S'has'
p1374
S'returned'
p1375
S'to'
p1376
tp1377
F0.0009823182711198428
s(S'punk'
p1378
S'band'
p1379
S'from'
p1380
tp1381
F0.003929273084479371
s(S'then'
p1382
S'served'
p1383
S'with'
p1384
tp1385
F0.0009823182711198428
s(S'[[pro]]'
p1386
S'returned'
p1387
S'to'
p1388
tp1389
F0.0009823182711198428
s(S'was'
p1390
S'entered'
p1391
S'at'
p1392
tp1393
F0.0009823182711198428
s(S'[[pro]]'
p1394
S'home'
p1395
S'in'
p1396
tp1397
F0.0009823182711198428
s(S'then'
p1398
S'came'
p1399
S'to'
p1400
tp1401
F0.0009823182711198428
s(S'[[con]]'
p1402
S'living'
p1403
S'in'
p1404
tp1405
F0.0009823182711198428
s(S'was'
p1406
S'interred'
p1407
S'in'
p1408
tp1409
F0.0009823182711198428
s(S'has'
p1410
S'served'
p1411
S'with'
p1412
tp1413
F0.0009823182711198428
s(S'spent'
p1414
S'[[prp]]'
p1415
g1370
tp1416
F0.0019646365422396855
s(S'been'
p1417
S'appointed'
p1418
S'at'
p1419
tp1420
F0.0009823182711198428
s(S'who'
p1421
S'left'
p1422
S'[[det]]'
p1423
tp1424
F0.0009823182711198428
s(S'was'
p1425
S'arrested'
p1426
S'on'
p1427
tp1428
F0.0009823182711198428
s(S'was'
p1429
S'raised'
p1430
S'on'
p1431
tp1432
F0.0009823182711198428
s(S'was'
p1433
S'interred'
p1434
S'at'
p1435
tp1436
F0.0009823182711198428
s(S'[[prp]]'
p1437
S'home'
p1438
S'in'
p1439
tp1440
F0.0019646365422396855
s(S'currently'
p1441
S'lives'
p1442
S'[[con]]'
p1443
tp1444
F0.003929273084479371
s(S'is'
p1445
S'founded'
p1446
S'in'
p1447
tp1448
F0.0009823182711198428
s(S'then'
p1449
S'entered'
p1450
S'at'
p1451
tp1452
F0.0009823182711198428
s(S'was'
p1453
S'appointed'
p1454
S'when'
p1455
tp1456
F0.0009823182711198428
s(S'has'
p1457
S'left'
p1458
S'for'
p1459
tp1460
F0.0009823182711198428
s(S'[[pro]]'
p1461
S'died'
p1462
S'in'
p1463
tp1464
F0.0009823182711198428
s(S'first'
p1465
S'came'
p1466
S'in'
p1467
tp1468
F0.0009823182711198428
s(S'is'
p1469
S'born'
p1470
S'near'
p1471
tp1472
F0.0009823182711198428
s(S'has'
p1473
S'served'
p1474
S'before'
p1475
tp1476
F0.0009823182711198428
s(S'then'
p1477
S'entered'
p1478
S'in'
p1479
tp1480
F0.0009823182711198428
s(S'been'
p1481
S'working'
p1482
S'in'
p1483
tp1484
F0.0009823182711198428
s(S'[[adj]]'
p1485
S'indie'
p1486
S'pop'
p1487
tp1488
F0.0009823182711198428
s(S'have'
p1489
S'left'
p1490
S'[[det]]'
p1491
tp1492
F0.0009823182711198428
s(S'[[det]]'
p1493
S'suburb'
p1494
S'in'
p1495
tp1496
F0.0009823182711198428
s(S'then'
p1497
S'joined'
p1498
S'then'
p1499
tp1500
F0.0009823182711198428
s(S'band'
p1501
S'based'
p1502
S'in'
p1503
tp1504
F0.004911591355599214
s(S'who'
p1505
S'joined'
p1506
S'from'
p1507
tp1508
F0.0009823182711198428
s(S'never'
p1509
S'lived'
p1510
S'in'
p1511
tp1512
F0.0009823182711198428
s(S'[[num]]'
p1513
S'moved'
p1514
S'to'
p1515
tp1516
F0.0009823182711198428
s(S'again'
p1517
S'appointed'
p1518
S'of'
p1519
tp1520
F0.0009823182711198428
s(S'[[num]]'
p1521
S'returned'
p1522
S'to'
p1523
tp1524
F0.0009823182711198428
s(g1075
g1076
S'in'
p1525
tp1526
F0.0009823182711198428
s(g157
S'performed'
p1527
S'in'
p1528
tp1529
F0.0009823182711198428
s(S'well'
p1530
S'known'
p1531
S'in'
p1532
tp1533
F0.0009823182711198428
s(S'began'
p1534
S'[[prp]]'
p1535
S'career'
p1536
tp1537
F0.0009823182711198428
s(S'[[det]]'
p1538
S'death'
p1539
S'metal'
p1540
tp1541
F0.0009823182711198428
s(S'had'
p1542
S'left'
p1543
S'[[con]]'
p1544
tp1545
F0.0009823182711198428
s(S'[[con]]'
p1546
S'graduated'
p1547
S'in'
p1548
tp1549
F0.0009823182711198428
s(S'was'
p1550
S'married'
p1551
S'in'
p1552
tp1553
F0.0009823182711198428
s(S'has'
p1554
S'served'
p1555
S'until'
p1556
tp1557
F0.0009823182711198428
s(S'again'
p1558
S'served'
p1559
S'to'
p1560
tp1561
F0.0009823182711198428
s(S'first'
p1562
S'served'
p1563
S'with'
p1564
tp1565
F0.0009823182711198428
s(S'has'
p1566
S'served'
p1567
S'[[det]]'
p1568
tp1569
F0.0009823182711198428
s(S'whom'
p1570
S'married'
p1571
S'in'
p1572
tp1573
F0.0009823182711198428
s(S'later'
p1574
S'joined'
p1575
S'[[det]]'
p1576
tp1577
F0.0009823182711198428
s(S'makes'
p1578
g1394
g1395
tp1579
F0.0009823182711198428
s(S'later'
p1580
S'left'
p1581
S'[[det]]'
p1582
tp1583
F0.0009823182711198428
s(g1083
g1084
S'in'
p1584
tp1585
F0.0009823182711198428
s(S'has'
p1586
S'lived'
p1587
S'in'
p1588
tp1589
F0.0009823182711198428
s(S'are'
p1590
S'based'
p1591
S'in'
p1592
tp1593
F0.0009823182711198428
s(S'has'
p1594
S'taken'
p1595
S'part'
p1596
tp1597
F0.0009823182711198428
s(S'then'
p1598
S'returned'
p1599
S'with'
p1600
tp1601
F0.0009823182711198428
s(S'been'
p1602
S'taken'
p1603
S'to'
p1604
tp1605
F0.0009823182711198428
s(S'then'
p1606
S'left'
p1607
S'[[con]]'
p1608
tp1609
F0.0009823182711198428
s(S'[[adj]]'
p1610
S'metal'
p1611
S'band'
p1612
tp1613
F0.0009823182711198428
s(S'born'
p1614
g1046
g1047
tp1615
F0.003929273084479371
s(S'[[con]]'
p1616
S'works'
p1617
S'out'
p1618
tp1619
F0.0009823182711198428
s(S'then'
p1620
S'settled'
p1621
S'in'
p1622
tp1623
F0.0009823182711198428
s(S'already'
p1624
S'known'
p1625
S'in'
p1626
tp1627
F0.0009823182711198428
s(S'is'
p1628
S'appointed'
p1629
S'[[con]]'
p1630
tp1631
F0.0009823182711198428
s(S'had'
p1632
S'known'
p1633
S'in'
p1634
tp1635
F0.0009823182711198428
s(S'[[det]]'
p1636
S'returned'
p1637
S'to'
p1638
tp1639
F0.0009823182711198428
s(S'also'
p1640
S'served'
p1641
S'to'
p1642
tp1643
F0.0009823182711198428
s(S'[[adj]]'
p1644
S'artist'
p1645
S'from'
p1646
tp1647
F0.0009823182711198428
s(S'[[num]]'
p1648
S'served'
p1649
S'on'
p1650
tp1651
F0.0009823182711198428
s(S'[[num]]'
p1652
S'tour'
p1653
S'of'
p1654
tp1655
F0.0009823182711198428
s(S'then'
p1656
S'relocated'
p1657
S'to'
p1658
tp1659
F0.0009823182711198428
s(S'is'
p1660
S'known'
p1661
S'outside'
p1662
tp1663
F0.0009823182711198428
s(S'currently'
p1664
S'lives'
p1665
S'in'
p1666
tp1667
F0.0019646365422396855
s(S'to'
p1668
S'represent'
p1669
S'[[num]]'
p1670
tp1671
F0.0009823182711198428
s(S'has'
p1672
S'served'
p1673
S'for'
p1674
tp1675
F0.0009823182711198428
s(S'born'
p1676
g1344
g1345
tp1677
F0.0019646365422396855
s(S'[[adj]]'
p1678
S'rock'
p1679
S'band'
p1680
tp1681
F0.003929273084479371
s(S'also'
p1682
S'served'
p1683
S'[[adj]]'
p1684
tp1685
F0.0009823182711198428
s(S'be'
p1686
S'moving'
p1687
S'to'
p1688
tp1689
F0.0009823182711198428
s(S'in'
p1690
g1312
g1313
tp1691
F0.0009823182711198428
s(g460
g461
S'of'
p1692
tp1693
F0.0019646365422396855
s(S'just'
p1694
S'returned'
p1695
S'from'
p1696
tp1697
F0.0009823182711198428
s(S'[[det]]'
p1698
S'group'
p1699
S'in'
p1700
tp1701
F0.0009823182711198428
s(S'was'
p1702
S'appointed'
p1703
S'[[con]]'
p1704
tp1705
F0.0009823182711198428
s(S'was'
p1706
S'joined'
p1707
S'at'
p1708
tp1709
F0.0009823182711198428
s(S'has'
p1710
S'performed'
p1711
S'[[con]]'
p1712
tp1713
F0.0009823182711198428
s(S'[[det]]'
p1714
S'served'
p1715
S'in'
p1716
tp1717
F0.0009823182711198428
s(S'been'
p1718
S'raised'
p1719
S'in'
p1720
tp1721
F0.0009823182711198428
s(S'[[det]]'
p1722
S'rapper'
p1723
S'from'
p1724
tp1725
F0.0009823182711198428
s(S'born'
p1726
S'[[con]]'
p1727
g1513
tp1728
F0.0009823182711198428
s(g201
g573
S'in'
p1729
tp1730
F0.0009823182711198428
s(S'is'
p1731
S'married'
p1732
S'from'
p1733
tp1734
F0.0009823182711198428
s(S'been'
p1735
S'appointed'
p1736
S'to'
p1737
tp1738
F0.0009823182711198428
s(S'[[con]]'
p1739
S'moving'
p1740
S'to'
p1741
tp1742
F0.0009823182711198428
s(S'[[con]]'
p1743
S'founded'
p1744
S'in'
p1745
tp1746
F0.0009823182711198428
s(S'who'
p1747
S'came'
p1748
S'from'
p1749
tp1750
F0.0009823182711198428
s(S'then'
p1751
S'joined'
p1752
S'with'
p1753
tp1754
F0.0009823182711198428
s(S'first'
p1755
S'arrived'
p1756
S'in'
p1757
tp1758
F0.0009823182711198428
s(S'[[adj]]'
p1759
S'singer'
p1760
S'in'
p1761
tp1762
F0.0009823182711198428
s(S'[[prp]]'
p1763
S'studio'
p1764
S'in'
p1765
tp1766
F0.0009823182711198428
s(S'first'
p1767
S'performed'
p1768
S'with'
p1769
tp1770
F0.0009823182711198428
s(S'were'
p1771
S'based'
p1772
S'in'
p1773
tp1774
F0.0009823182711198428
s(S'[[con]]'
p1775
S'joined'
p1776
S'of'
p1777
tp1778
F0.0009823182711198428
s(S'[[prp]]'
p1779
S'tour'
p1780
S'of'
p1781
tp1782
F0.0009823182711198428
s(S'best'
p1783
S'known'
p1784
S'outside'
p1785
tp1786
F0.0009823182711198428
s(g1535
g1536
S'in'
p1787
tp1788
F0.0009823182711198428
s(S'[[num]]'
p1789
S'came'
p1790
S'to'
p1791
tp1792
F0.0009823182711198428
s(S'after'
p1793
S'moving'
p1794
S'to'
p1795
tp1796
F0.0009823182711198428
s(S'band'
p1797
g1296
g1297
tp1798
F0.0019646365422396855
s(S'filed'
p1799
g850
g851
tp1800
F0.0009823182711198428
s(S'later'
p1801
S'appointed'
p1802
S'as'
p1803
tp1804
F0.0009823182711198428
s(S'first'
p1805
S'settled'
p1806
S'in'
p1807
tp1808
F0.0009823182711198428
s(S'then'
p1809
S'appointed'
p1810
S'to'
p1811
tp1812
F0.0009823182711198428
s(S'rock'
p1813
g1797
g1296
tp1814
F0.0019646365422396855
s(S'[[con]]'
p1815
S'worked'
p1816
S'in'
p1817
tp1818
F0.0009823182711198428
s(S'[[con]]'
p1819
S'lived'
p1820
S'at'
p1821
tp1822
F0.0009823182711198428
s(S'[[adj]]'
p1823
S'group'
p1824
S'from'
p1825
tp1826
F0.0009823182711198428
s(S'been'
p1827
S'founded'
p1828
S'in'
p1829
tp1830
F0.0009823182711198428
s(S'is'
p1831
S'interred'
p1832
S'at'
p1833
tp1834
F0.0009823182711198428
s(S'was'
p1835
S'buried'
p1836
S'on'
p1837
tp1838
F0.0009823182711198428
s(g157
S'home'
p1839
S'on'
p1840
tp1841
F0.0009823182711198428
s(g695
g696
S'suburb'
p1842
tp1843
F0.0009823182711198428
s(S'[[det]]'
p1844
S'home'
p1845
S'in'
p1846
tp1847
F0.0009823182711198428
s(S'[[con]]'
p1848
S'lived'
p1849
S'in'
p1850
tp1851
F0.0009823182711198428
s(S'was'
p1852
S'graduated'
p1853
S'now'
p1854
tp1855
F0.0009823182711198428
s(S'have'
p1856
S'attended'
p1857
S'in'
p1858
tp1859
F0.0009823182711198428
s(S'[[con]]'
p1860
S'served'
p1861
S'in'
p1862
tp1863
F0.0009823182711198428
s(S'[[adj]]'
p1864
S'married'
p1865
S'in'
p1866
tp1867
F0.0009823182711198428
s(S'then'
p1868
S'joined'
p1869
S'[[con]]'
p1870
tp1871
F0.0009823182711198428
s(S'had'
p1872
S'lived'
p1873
S'in'
p1874
tp1875
F0.0009823182711198428
s(S'[[con]]'
p1876
S'died'
p1877
S'in'
p1878
tp1879
F0.0009823182711198428
s(S'be'
p1880
S'returning'
p1881
S'to'
p1882
tp1883
F0.0009823182711198428
s(S'until'
p1884
S'returned'
p1885
S'to'
p1886
tp1887
F0.0009823182711198428
s(S'is'
p1888
S'based'
p1889
S'in'
p1890
tp1891
F0.0009823182711198428
s(S'while'
p1892
S'returned'
p1893
S'to'
p1894
tp1895
F0.0009823182711198428
s(S'had'
p1896
S'left'
p1897
S'[[adj]]'
p1898
tp1899
F0.0009823182711198428
s(S'was'
p1900
S'arrested'
p1901
S'for'
p1902
tp1903
F0.0009823182711198428
s(S'since'
p1904
S'worked'
p1905
S'in'
p1906
tp1907
F0.0009823182711198428
s(S'[[adj]]'
p1908
S'success'
p1909
S'with'
p1910
tp1911
F0.0009823182711198428
s(S'was'
p1912
g323
g324
tp1913
F0.01768172888015717
s(S'[[con]]'
p1914
S'left'
p1915
S'[[det]]'
p1916
tp1917
F0.0009823182711198428
s(S'has'
p1918
S'traveled'
p1919
S'[[adj]]'
p1920
tp1921
F0.0009823182711198428
s(S'when'
p1922
S'worked'
p1923
S'in'
p1924
tp1925
F0.0009823182711198428
s(S'been'
p1926
S'appointed'
p1927
S'[[con]]'
p1928
tp1929
F0.0009823182711198428
s(S'then'
p1930
S'appointed'
p1931
S'at'
p1932
tp1933
F0.0009823182711198428
s(S'had'
p1934
S'served'
p1935
S'on'
p1936
tp1937
F0.0009823182711198428
s(S'be'
p1938
S'performed'
p1939
S'in'
p1940
tp1941
F0.0009823182711198428
s(S'was'
p1942
g1614
g1046
tp1943
F0.007858546168958742
s(S'who'
p1944
S'spent'
p1945
S'most'
p1946
tp1947
F0.0009823182711198428
s(S'were'
p1948
S'raised'
p1949
S'in'
p1950
tp1951
F0.0009823182711198428
s(S'[[adj]]'
p1952
S'tour'
p1953
S'of'
p1954
tp1955
F0.0009823182711198428
s(S'was'
p1956
S'graduated'
p1957
S'in'
p1958
tp1959
F0.0009823182711198428
s(S'being'
p1960
S'appointed'
p1961
S'as'
p1962
tp1963
F0.0009823182711198428
s(S'spent'
p1964
g1258
g1259
tp1965
F0.0009823182711198428
s(S'[[det]]'
p1966
S'left'
p1967
S'of'
p1968
tp1969
F0.0009823182711198428
s(S'[[prp]]'
p1970
S'home'
p1971
S'town'
p1972
tp1973
F0.0019646365422396855
s(S'[[con]]'
p1974
S'served'
p1975
S'on'
p1976
tp1977
F0.0009823182711198428
s(S'was'
p1978
S'touring'
p1979
S'[[con]]'
p1980
tp1981
F0.0009823182711198428
s(S'[[adj]]'
p1982
S'tour'
p1983
S'in'
p1984
tp1985
F0.0009823182711198428
s(S'was'
p1986
S'appointed'
p1987
S'at'
p1988
tp1989
F0.0009823182711198428
s(S'[[con]]'
p1990
S'performed'
p1991
S'by'
p1992
tp1993
F0.0009823182711198428
s(S'[[con]]'
p1994
S'returned'
p1995
S'on'
p1996
tp1997
F0.0009823182711198428
s(S'be'
p1998
S'appointed'
p1999
S'at'
p2000
tp2001
F0.0009823182711198428
s(S'now'
p2002
S'lives'
p2003
S'[[con]]'
p2004
tp2005
F0.0009823182711198428
s(S'divides'
p2006
S'[[prp]]'
p2007
S'home'
p2008
tp2009
F0.0009823182711198428
s(S'was'
p2010
S'founded'
p2011
S'[[det]]'
p2012
tp2013
F0.0009823182711198428
s(S'[[det]]'
p2014
S'region'
p2015
S'of'
p2016
tp2017
F0.0009823182711198428
s(S'being'
p2018
S'appointed'
p2019
S'of'
p2020
tp2021
F0.0009823182711198428
s(S'had'
p2022
S'arrived'
p2023
S'at'
p2024
tp2025
F0.0009823182711198428
s(S'was'
p2026
g718
g719
tp2027
F0.0009823182711198428
s(S'again'
p2028
S'returned'
p2029
S'to'
p2030
tp2031
F0.0009823182711198428
s(S'[[mod]]'
p2032
S'perform'
p2033
S'in'
p2034
tp2035
F0.0009823182711198428
s(g157
S'home'
p2036
S'town'
p2037
tp2038
F0.0019646365422396855
s(S'[[adj]]'
p2039
S'attended'
p2040
S'in'
p2041
tp2042
F0.0009823182711198428
s(S'is'
p2043
S'formed'
p2044
S'in'
p2045
tp2046
F0.0009823182711198428
s(S'was'
p2047
S'appointed'
p2048
S'in'
p2049
tp2050
F0.0009823182711198428
s(S'[[det]]'
p2051
S'success'
p2052
S'in'
p2053
tp2054
F0.0009823182711198428
s(S'[[con]]'
p2055
S'appointed'
p2056
S'to'
p2057
tp2058
F0.0009823182711198428
s(S'is'
p2059
S'known'
p2060
S'in'
p2061
tp2062
F0.0009823182711198428
s(S'have'
p2063
S'lived'
p2064
S'in'
p2065
tp2066
F0.0009823182711198428
s(S'[[con]]'
p2067
S'returned'
p2068
S'to'
p2069
tp2070
F0.0009823182711198428
s(S'then'
p2071
S'joined'
p2072
S'on'
p2073
tp2074
F0.0009823182711198428
s(g1727
g1513
g1514
tp2075
F0.0009823182711198428
s(S'then'
p2076
S'met'
p2077
S'in'
p2078
tp2079
F0.0009823182711198428
s(S'found'
p2080
S'success'
p2081
S'in'
p2082
tp2083
F0.0009823182711198428
s(S'later'
p2084
S'appointed'
p2085
S'of'
p2086
tp2087
F0.0009823182711198428
s(S'was'
p2088
S'served'
p2089
S'as'
p2090
tp2091
F0.0009823182711198428
s(S'was'
p2092
S'relocated'
p2093
S'in'
p2094
tp2095
F0.0009823182711198428
s(S'[[num]]'
p2096
S'served'
p2097
S'for'
p2098
tp2099
F0.0009823182711198428
s(S'born'
p2100
g762
g763
tp2101
F0.0029469548133595285
s(S'[[adj]]'
p2102
S'raised'
p2103
S'in'
p2104
tp2105
F0.0009823182711198428
s(S'later'
p2106
S'graduated'
p2107
S'at'
p2108
tp2109
F0.0009823182711198428
s(S'is'
p2110
S'returned'
p2111
S'to'
p2112
tp2113
F0.0009823182711198428
s(S'formerly'
p2114
S'served'
p2115
S'for'
p2116
tp2117
F0.0009823182711198428
s(S'was'
p2118
S'appointed'
p2119
S'[[adj]]'
p2120
tp2121
F0.0009823182711198428
s(S'also'
p2122
S'served'
p2123
S'for'
p2124
tp2125
F0.0009823182711198428
s(S'then'
p2126
S'joined'
p2127
S'of'
p2128
tp2129
F0.0009823182711198428
s(S'[[adj]]'
p2130
S'tour'
p2131
S'to'
p2132
tp2133
F0.0009823182711198428
s(S'first'
p2134
S'came'
p2135
S'to'
p2136
tp2137
F0.0009823182711198428
s(S'also'
p2138
S'served'
p2139
S'[[con]]'
p2140
tp2141
F0.0009823182711198428
s(S'also'
p2142
S'appointed'
p2143
S'to'
p2144
tp2145
F0.0009823182711198428
s(S'[[pro]]'
p2146
S'lived'
p2147
S'in'
p2148
tp2149
F0.0009823182711198428
s(S'[[con]]'
p2150
S'formed'
p2151
S'in'
p2152
tp2153
F0.0009823182711198428
s(S'works'
p2154
S'[[con]]'
p2155
S'lives'
p2156
tp2157
F0.0019646365422396855
s(S'had'
p2158
S'formed'
p2159
S'in'
p2160
tp2161
F0.0009823182711198428
s(S'also'
p2162
S'spent'
p2163
S'part'
p2164
tp2165
F0.0009823182711198428
s(S'while'
p2166
S'working'
p2167
S'in'
p2168
tp2169
F0.0009823182711198428
s(S'be'
p2170
S'based'
p2171
S'in'
p2172
tp2173
F0.0009823182711198428
s(S'later'
p2174
S'relocated'
p2175
S'to'
p2176
tp2177
F0.0009823182711198428
s(S'[[det]]'
p2178
S'group'
p2179
S'from'
p2180
tp2181
F0.0009823182711198428
s(S'[[adj]]'
p2182
S'working'
p2183
S'in'
p2184
tp2185
F0.0009823182711198428
s(S'is'
p2186
S'released'
p2187
S'in'
p2188
tp2189
F0.0009823182711198428
s(S'is'
p2190
S'known'
p2191
S'throughout'
p2192
tp2193
F0.0009823182711198428
s(S'later'
p2194
S'raised'
p2195
S'in'
p2196
tp2197
F0.0009823182711198428
s(S'power'
p2198
S'metal'
p2199
S'band'
p2200
tp2201
F0.0009823182711198428
s(S'is'
p2202
S'interred'
p2203
S'in'
p2204
tp2205
F0.0009823182711198428
s(S'[[con]]'
p2206
S'left'
p2207
S'for'
p2208
tp2209
F0.0009823182711198428
s(S'been'
p2210
S'known'
p2211
S'in'
p2212
tp2213
F0.0009823182711198428
s(S'then'
p2214
S'graduated'
p2215
S'in'
p2216
tp2217
F0.0009823182711198428
s(S'[[det]]'
p2218
S'album'
p2219
S'in'
p2220
tp2221
F0.0009823182711198428
s(S'since'
p2222
S'left'
p2223
S'[[det]]'
p2224
tp2225
F0.0009823182711198428
s(S'had'
p2226
S'died'
p2227
S'in'
p2228
tp2229
F0.0009823182711198428
s(S'[[con]]'
p2230
S'returned'
p2231
S'in'
p2232
tp2233
F0.0009823182711198428
s(S'again'
p2234
S'appointed'
p2235
S'to'
p2236
tp2237
F0.0009823182711198428
s(S'while'
p2238
S'living'
p2239
S'in'
p2240
tp2241
F0.0009823182711198428
s(S'[[adj]]'
p2242
S'region'
p2243
S'of'
p2244
tp2245
F0.0009823182711198428
s(S'[[con]]'
p2246
S'returned'
p2247
S'at'
p2248
tp2249
F0.0009823182711198428
s(S'also'
p2250
S'appointed'
p2251
S'at'
p2252
tp2253
F0.0009823182711198428
s(S'with'
p2254
S'joined'
p2255
S'[[det]]'
p2256
tp2257
F0.0009823182711198428
s(S'has'
p2258
S'toured'
p2259
S'as'
p2260
tp2261
F0.0009823182711198428
s(S'has'
p2262
S'met'
p2263
S'in'
p2264
tp2265
F0.0009823182711198428
s(S'now'
p2266
S'lives'
p2267
S'in'
p2268
tp2269
F0.0019646365422396855
s(S'later'
p2270
S'served'
p2271
S'in'
p2272
tp2273
F0.0009823182711198428
s(S'has'
p2274
S'performed'
p2275
S'[[det]]'
p2276
tp2277
F0.0009823182711198428
s(S'be'
p2278
S'appointed'
p2279
S'of'
p2280
tp2281
F0.0009823182711198428
s(S'had'
p2282
S'left'
p2283
S'for'
p2284
tp2285
F0.0009823182711198428
s(S'[[con]]'
p2286
S'relocated'
p2287
S'to'
p2288
tp2289
F0.0009823182711198428
s(S'[[con]]'
p2290
S'currently'
p2291
S'lives'
p2292
tp2293
F0.0009823182711198428
s(S'up'
p2294
S'primarily'
p2295
S'in'
p2296
tp2297
F0.0009823182711198428
s(S'born'
p2298
g459
g460
tp2299
F0.0009823182711198428
s(S'[[num]]'
p2300
S'living'
p2301
S'in'
p2302
tp2303
F0.0009823182711198428
s(S'first'
p2304
S'came'
p2305
S'at'
p2306
tp2307
F0.0009823182711198428
s(S'[[det]]'
p2308
S'success'
p2309
S'for'
p2310
tp2311
F0.0009823182711198428
s(S'often'
p2312
S'performed'
p2313
S'with'
p2314
tp2315
F0.0009823182711198428
s(g1415
g1370
g1371
tp2316
F0.0019646365422396855
s(S'was'
p2317
S'married'
p2318
S'from'
p2319
tp2320
F0.0009823182711198428
s(g967
g968
S'moved'
p2321
tp2322
F0.0009823182711198428
s(g1259
g1260
S'in'
p2323
tp2324
F0.0019646365422396855
s(S'[[det]]'
p2325
g1094
g1095
tp2326
F0.0009823182711198428
s(S'to'
p2327
S'live'
p2328
S'from'
p2329
tp2330
F0.0009823182711198428
s(S'was'
p2331
S'appointed'
p2332
S'to'
p2333
tp2334
F0.0009823182711198428
s(S'[[num]]'
p2335
S'served'
p2336
S'in'
p2337
tp2338
F0.0009823182711198428
s(S'often'
p2339
S'performed'
p2340
S'in'
p2341
tp2342
F0.0009823182711198428
s(S'[[det]]'
p2343
S'singersongwriter'
p2344
S'from'
p2345
tp2346
F0.0009823182711198428
s(S'[[adj]]'
p2347
S'met'
p2348
S'in'
p2349
tp2350
F0.0009823182711198428
s(S'is'
p2351
S'based'
p2352
S'out'
p2353
tp2354
F0.0009823182711198428
s(S'then'
p2355
S'appointed'
p2356
S'of'
p2357
tp2358
F0.0009823182711198428
s(S'in'
p2359
g2242
g2243
tp2360
F0.0009823182711198428
s(S'then'
p2361
S'left'
p2362
S'[[det]]'
p2363
tp2364
F0.0009823182711198428
s(S'have'
p2365
S'worked'
p2366
S'as'
p2367
tp2368
F0.0009823182711198428
s(S'first'
p2369
S'attended'
p2370
S'in'
p2371
tp2372
F0.0009823182711198428
s(S'then'
p2373
S'joined'
p2374
S'[[det]]'
p2375
tp2376
F0.0009823182711198428
s(S'be'
p2377
S'living'
p2378
S'in'
p2379
tp2380
F0.0009823182711198428
s(S'had'
p2381
S'served'
p2382
S'with'
p2383
tp2384
F0.0009823182711198428
s(S'born'
p2385
S'grew'
p2386
S'up'
p2387
tp2388
F0.0019646365422396855
s(S'had'
p2389
S'success'
p2390
S'in'
p2391
tp2392
F0.0009823182711198428
s(S'[[adj]]'
p2393
S'living'
p2394
S'in'
p2395
tp2396
F0.0009823182711198428
s(S'[[con]]'
p2397
S'performed'
p2398
S'along'
p2399
tp2400
F0.0009823182711198428
s(S'currently'
p2401
S'lives'
p2402
S'between'
p2403
tp2404
F0.0009823182711198428
s(g119
g1062
S'of'
p2405
tp2406
F0.0009823182711198428
s(S'[[prp]]'
p2407
S'hometown'
p2408
S'of'
p2409
tp2410
F0.0009823182711198428
s(S'has'
p2411
S'toured'
p2412
S'[[con]]'
p2413
tp2414
F0.0009823182711198428
s(S'is'
p2415
S'buried'
p2416
S'near'
p2417
tp2418
F0.0009823182711198428
s(S'had'
p2419
S'left'
p2420
S'[[det]]'
p2421
tp2422
F0.0009823182711198428
s(S'[[prp]]'
p2423
S'home'
p2424
S'country'
p2425
tp2426
F0.0009823182711198428
s(S'born'
p2427
S'into'
p2428
S'[[det]]'
p2429
tp2430
F0.0019646365422396855
s(S'also'
p2431
S'met'
p2432
S'in'
p2433
tp2434
F0.0009823182711198428
s(S'[[mod]]'
p2435
S'perform'
p2436
S'at'
p2437
tp2438
F0.0009823182711198428
s(S'began'
p2439
g359
g360
tp2440
F0.0019646365422396855
s(S'has'
p2441
S'served'
p2442
S'where'
p2443
tp2444
F0.0009823182711198428
s(S'[[con]]'
p2445
S'resides'
p2446
S'in'
p2447
tp2448
F0.0019646365422396855
s(S'had'
p2449
S'met'
p2450
S'to'
p2451
tp2452
F0.0009823182711198428
s(S'[[con]]'
p2453
S'served'
p2454
S'for'
p2455
tp2456
F0.0009823182711198428
s(g1486
g1487
S'band'
p2457
tp2458
F0.0019646365422396855
s(S'then'
p2459
S'recorded'
p2460
S'in'
p2461
tp2462
F0.0009823182711198428
s(S'first'
p2463
S'performed'
p2464
S'in'
p2465
tp2466
F0.0009823182711198428
s(S'[[con]]'
p2467
S'based'
p2468
S'in'
p2469
tp2470
F0.0009823182711198428
s(S'was'
p2471
S'appointed'
p2472
S'[[num]]'
p2473
tp2474
F0.0009823182711198428
s(S'had'
p2475
S'worked'
p2476
S'in'
p2477
tp2478
F0.0009823182711198428
s(S'born'
p2479
S'[[det]]'
p2480
S'coast'
p2481
tp2482
F0.0009823182711198428
s(S'first'
p2483
S'joined'
p2484
S'[[con]]'
p2485
tp2486
F0.0009823182711198428
s(S'[[num]]'
p2487
S'lived'
p2488
S'in'
p2489
tp2490
F0.0009823182711198428
s(S'was'
p2491
S'appointed'
p2492
S'of'
p2493
tp2494
F0.0009823182711198428
s(S'was'
p2495
S'appointed'
p2496
S'for'
p2497
tp2498
F0.0009823182711198428
s(S'was'
p2499
S'raised'
p2500
S'at'
p2501
tp2502
F0.0009823182711198428
s(S'[[con]]'
p2503
S'appointed'
p2504
S'[[pro]]'
p2505
tp2506
F0.0009823182711198428
s(S'also'
p2507
S'known'
p2508
S'outside'
p2509
tp2510
F0.0009823182711198428
s(S'nominated'
p2511
S'to'
p2512
g247
tp2513
F0.0009823182711198428
s(S'was'
p2514
S'raised'
p2515
S'in'
p2516
tp2517
F0.0029469548133595285
s(g381
S'[[adj]]'
p2518
S'family'
p2519
tp2520
F0.0009823182711198428
s(S'[[adj]]'
p2521
g307
g308
tp2522
F0.0009823182711198428
s(S'was'
p2523
S'performed'
p2524
S'at'
p2525
tp2526
F0.0009823182711198428
s(S'also'
p2527
S'attended'
p2528
S'in'
p2529
tp2530
F0.0009823182711198428
s(S'[[con]]'
p2531
S'joined'
p2532
S'at'
p2533
tp2534
F0.0009823182711198428
s(S'in'
p2535
S'[[det]]'
p2536
S'suburb'
p2537
tp2538
F0.0019646365422396855
s(S'is'
p2539
S'formed'
p2540
S'out'
p2541
tp2542
F0.0009823182711198428
s(g157
S'recorded'
p2543
S'in'
p2544
tp2545
F0.0009823182711198428
s(S'when'
p2546
S'relocated'
p2547
S'to'
p2548
tp2549
F0.0009823182711198428
s(S'has'
p2550
S'attended'
p2551
S'in'
p2552
tp2553
F0.0009823182711198428
s(S'was'
p2554
S'left'
p2555
S'with'
p2556
tp2557
F0.0009823182711198428
s(S'metal'
p2558
S'band'
p2559
S'from'
p2560
tp2561
F0.005893909626719057
s(S'later'
p2562
S'appointed'
p2563
S'[[det]]'
p2564
tp2565
F0.0009823182711198428
s(S'[[pro]]'
p2566
S'left'
p2567
S'for'
p2568
tp2569
F0.0009823182711198428
s(S'was'
p2570
S'arrested'
p2571
S'as'
p2572
tp2573
F0.0009823182711198428
s(S'had'
p2574
S'taken'
p2575
S'[[num]]'
p2576
tp2577
F0.0009823182711198428
s(S'[[adj]]'
p2578
S'served'
p2579
S'at'
p2580
tp2581
F0.0009823182711198428
s(S'also'
p2582
S'served'
p2583
S'[[num]]'
p2584
tp2585
F0.0009823182711198428
s(S'had'
p2586
S'served'
p2587
S'as'
p2588
tp2589
F0.0009823182711198428
s(S'[[det]]'
p2590
S'band'
p2591
S'from'
p2592
tp2593
F0.0009823182711198428
s(S'[[con]]'
p2594
S'served'
p2595
S'[[det]]'
p2596
tp2597
F0.0009823182711198428
s(g779
g780
S'[[adj]]'
p2598
tp2599
F0.0009823182711198428
s(S'[[adj]]'
p2600
S'recorded'
p2601
S'in'
p2602
tp2603
F0.0009823182711198428
s(S'rose'
p2604
g599
g600
tp2605
F0.0009823182711198428
s(S'has'
p2606
S'toured'
p2607
S'in'
p2608
tp2609
F0.0009823182711198428
s(S'[[prp]]'
p2610
S'childhood'
p2611
S'[[con]]'
p2612
tp2613
F0.0009823182711198428
s(S'again'
p2614
S'served'
p2615
S'with'
p2616
tp2617
F0.0009823182711198428
s(S'later'
p2618
S'attended'
p2619
S'at'
p2620
tp2621
F0.0009823182711198428
s(S'has'
p2622
S'traveled'
p2623
S'throughout'
p2624
tp2625
F0.0009823182711198428
s(S'born'
p2626
S'[[con]]'
p2627
S'grew'
p2628
tp2629
F0.0009823182711198428
s(S'was'
p2630
S'founded'
p2631
S'from'
p2632
tp2633
F0.0009823182711198428
s(S'first'
p2634
S'appointed'
p2635
S'to'
p2636
tp2637
F0.0009823182711198428
s(g780
g2598
S'family'
p2638
tp2639
F0.0009823182711198428
s(S'been'
p2640
S'appointed'
p2641
S'of'
p2642
tp2643
F0.0009823182711198428
s(g157
S'released'
p2644
S'in'
p2645
tp2646
F0.0009823182711198428
s(S'[[con]]'
p2647
S'arrived'
p2648
S'in'
p2649
tp2650
F0.0009823182711198428
s(S'also'
p2651
S'served'
p2652
S'on'
p2653
tp2654
F0.0009823182711198428
s(S'has'
p2655
S'served'
p2656
S'as'
p2657
tp2658
F0.0009823182711198428
s(S'[[det]]'
p2659
g73
g74
tp2660
F0.0009823182711198428
s(S'has'
p2661
S'lived'
p2662
S'[[con]]'
p2663
tp2664
F0.0009823182711198428
s(g264
g265
S'in'
p2665
tp2666
F0.0009823182711198428
s(S'was'
p2667
S'appointed'
p2668
S'was'
p2669
tp2670
F0.0009823182711198428
s(g380
g381
g2518
tp2671
F0.0009823182711198428
s(S'soon'
p2672
S'returned'
p2673
S'to'
p2674
tp2675
F0.0009823182711198428
s(S'has'
p2676
S'joined'
p2677
S'[[det]]'
p2678
tp2679
F0.0009823182711198428
s(S'won'
p2680
g21
g22
tp2681
F0.0009823182711198428
s(S'have'
p2682
S'died'
p2683
S'in'
p2684
tp2685
F0.0009823182711198428
s(S'was'
p2686
S'working'
p2687
S'as'
p2688
tp2689
F0.0009823182711198428
s(g1047
g1048
S'of'
p2690
tp2691
F0.0019646365422396855
s(g743
g744
g227
tp2692
F0.0019646365422396855
s(S'who'
p2693
S'lived'
p2694
S'in'
p2695
tp2696
F0.0009823182711198428
s(S'later'
p2697
S'settled'
p2698
S'in'
p2699
tp2700
F0.0009823182711198428
s(S'be'
p2701
S'buried'
p2702
S'in'
p2703
tp2704
F0.0009823182711198428
s(g280
g281
S'band'
p2705
tp2706
F0.0019646365422396855
s(g157
S'home'
p2707
S'country'
p2708
tp2709
F0.0009823182711198428
s(S'released'
p2710
g2218
g2219
tp2711
F0.0009823182711198428
s(S'has'
p2712
S'left'
p2713
S'[[con]]'
p2714
tp2715
F0.0009823182711198428
s(S'[[adj]]'
p2716
S'artist'
p2717
S'in'
p2718
tp2719
F0.0009823182711198428
s(S'then'
p2720
S'worked'
p2721
S'in'
p2722
tp2723
F0.0009823182711198428
s(S'soon'
p2724
S'left'
p2725
S'[[det]]'
p2726
tp2727
F0.0009823182711198428
s(S'[[con]]'
p2728
S'joined'
p2729
S'[[adj]]'
p2730
tp2731
F0.0009823182711198428
s(g1487
g2457
S'from'
p2732
tp2733
F0.0019646365422396855
s(S'born'
p2734
S'was'
p2735
S'raised'
p2736
tp2737
F0.0009823182711198428
s(S'formerly'
p2738
S'served'
p2739
S'in'
p2740
tp2741
F0.0009823182711198428
s(S'[[adj]]'
p2742
g1501
g1502
tp2743
F0.0009823182711198428
s(S'later'
p2744
S'returned'
p2745
S'to'
p2746
tp2747
F0.0009823182711198428
s(S'[[adj]]'
p2748
S'joined'
p2749
S'[[det]]'
p2750
tp2751
F0.0009823182711198428
s(g2428
g2429
S'family'
p2752
tp2753
F0.0019646365422396855
s(S'[[con]]'
p2754
S'appointed'
p2755
S'of'
p2756
tp2757
F0.0009823182711198428
s(S'now'
p2758
S'resides'
p2759
S'in'
p2760
tp2761
F0.0019646365422396855
s(S'had'
p2762
S'relocated'
p2763
S'to'
p2764
tp2765
F0.0009823182711198428
s(S'been'
p2766
S'living'
p2767
S'in'
p2768
tp2769
F0.0009823182711198428
s(S'[[prp]]'
p2770
S'success'
p2771
S'with'
p2772
tp2773
F0.0009823182711198428
s(S'is'
p2774
S'based'
p2775
S'near'
p2776
tp2777
F0.0009823182711198428
s(g157
S'home'
p2778
S'in'
p2779
tp2780
F0.0009823182711198428
s(S'[[adj]]'
p2781
g1378
g1379
tp2782
F0.0009823182711198428
s(S'was'
p2783
g1035
g1036
tp2784
F0.004911591355599214
s(S'is'
p2785
S'appointed'
p2786
S'[[det]]'
p2787
tp2788
F0.0009823182711198428
s(g157
S'tour'
p2789
S'in'
p2790
tp2791
F0.0009823182711198428
s(S'[[mod]]'
p2792
S'live'
p2793
S'in'
p2794
tp2795
F0.0009823182711198428
s(S'was'
p2796
S'brought'
p2797
S'to'
p2798
tp2799
F0.0009823182711198428
s(S'was'
p2800
S'brought'
p2801
S'up'
p2802
tp2803
F0.0009823182711198428
s(S'been'
p2804
S'appointed'
p2805
S'for'
p2806
tp2807
F0.0009823182711198428
s(S'[[num]]'
p2808
S'joined'
p2809
S'[[det]]'
p2810
tp2811
F0.0009823182711198428
s(S'currently'
p2812
S'based'
p2813
S'in'
p2814
tp2815
F0.0009823182711198428
s(S'later'
p2816
S'attended'
p2817
S'of'
p2818
tp2819
F0.0009823182711198428
s(S'later'
p2820
S'lived'
p2821
S'at'
p2822
tp2823
F0.0009823182711198428
s(S'[[con]]'
p2824
S'attended'
p2825
S'in'
p2826
tp2827
F0.0009823182711198428
s(g2429
g2752
S'in'
p2828
tp2829
F0.0019646365422396855
s(S'was'
p2830
S'formed'
p2831
S'[[num]]'
p2832
tp2833
F0.0009823182711198428
s(S'[[det]]'
p2834
g950
g951
tp2835
F0.0009823182711198428
s(S'[[det]]'
p2836
S'singer'
p2837
S'from'
p2838
tp2839
F0.0009823182711198428
s(S'[[adj]]'
p2840
S'founded'
p2841
S'in'
p2842
tp2843
F0.0009823182711198428
s(S'born'
p2844
g1493
g1494
tp2845
F0.0019646365422396855
s(S'had'
p2846
S'performed'
p2847
S'for'
p2848
tp2849
F0.0009823182711198428
s(S'[[det]]'
p2850
g2198
g2199
tp2851
F0.0009823182711198428
s(S'[[adj]]'
p2852
S'success'
p2853
S'at'
p2854
tp2855
F0.0009823182711198428
s(S'be'
p2856
S'taken'
p2857
S'to'
p2858
tp2859
F0.0009823182711198428
s(S'was'
p2860
g2298
g459
tp2861
F0.0019646365422396855
s(S'where'
p2862
S'worked'
p2863
S'in'
p2864
tp2865
F0.0009823182711198428
s(g249
S'judge'
p2866
S'of'
p2867
tp2868
F0.0009823182711198428
s(S'was'
p2869
S'based'
p2870
S'in'
p2871
tp2872
F0.0009823182711198428
s(S'has'
p2873
S'served'
p2874
S'to'
p2875
tp2876
F0.0009823182711198428
s(S'later'
p2877
S'worked'
p2878
S'[[con]]'
p2879
tp2880
F0.0009823182711198428
s(S'before'
p2881
S'moving'
p2882
S'to'
p2883
tp2884
F0.0009823182711198428
s(S'[[adj]]'
p2885
S'success'
p2886
S'in'
p2887
tp2888
F0.0009823182711198428
s(S'later'
p2889
S'served'
p2890
S'[[con]]'
p2891
tp2892
F0.0009823182711198428
s(g799
g800
S'band'
p2893
tp2894
F0.0019646365422396855
s(g699
g700
S'band'
p2895
tp2896
F0.0019646365422396855
s(S'after'
p2897
S'living'
p2898
S'in'
p2899
tp2900
F0.0009823182711198428
s(S'who'
p2901
S'served'
p2902
S'in'
p2903
tp2904
F0.0009823182711198428
s(S'[[det]]'
p2905
S'punk'
p2906
S'band'
p2907
tp2908
F0.0009823182711198428
s(S'had'
p2909
S'success'
p2910
S'with'
p2911
tp2912
F0.0009823182711198428
s(S'[[adj]]'
p2913
S'band'
p2914
S'formed'
p2915
tp2916
F0.0009823182711198428
s(S'had'
p2917
S'brought'
p2918
S'from'
p2919
tp2920
F0.0009823182711198428
s(S'to'
p2921
S'tour'
p2922
S'[[det]]'
p2923
tp2924
F0.0009823182711198428
s(g248
g249
g2866
tp2925
F0.0009823182711198428
s(S'also'
p2926
S'founded'
p2927
S'in'
p2928
tp2929
F0.0009823182711198428
s(S'was'
p2930
S'arrested'
p2931
S'in'
p2932
tp2933
F0.0009823182711198428
s(S'found'
p2934
S'success'
p2935
S'[[det]]'
p2936
tp2937
F0.0009823182711198428
s(g2512
g247
g248
tp2938
F0.0009823182711198428
s(g324
g325
S'raised'
p2939
tp2940
F0.0009823182711198428
s(S'[[con]]'
p2941
S'live'
p2942
S'in'
p2943
tp2944
F0.0009823182711198428
s(S'[[con]]'
p2945
S'left'
p2946
S'to'
p2947
tp2948
F0.0009823182711198428
s(S'then'
p2949
S'moving'
p2950
S'to'
p2951
tp2952
F0.0009823182711198428
s(S'also'
p2953
S'served'
p2954
S'until'
p2955
tp2956
F0.0009823182711198428
s(S'[[det]]'
p2957
S'tour'
p2958
S'through'
p2959
tp2960
F0.0009823182711198428
s(g404
g405
S'family'
p2961
tp2962
F0.0009823182711198428
s(S'band'
p2963
S'formed'
p2964
S'in'
p2965
tp2966
F0.0068762278978389
s(g157
S'home'
p2967
S'near'
p2968
tp2969
F0.0009823182711198428
s(S'first'
p2970
S'joined'
p2971
S'[[det]]'
p2972
tp2973
F0.0009823182711198428
s(S'to'
p2974
S'represent'
p2975
S'[[adj]]'
p2976
tp2977
F0.0009823182711198428
s(S'when'
p2978
S'left'
p2979
S'[[det]]'
p2980
tp2981
F0.0009823182711198428
s(S'then'
p2982
S'appointed'
p2983
S'[[adj]]'
p2984
tp2985
F0.0009823182711198428
s(S'makes'
p2986
g1437
g1438
tp2987
F0.0009823182711198428
s(S'has'
p2988
S'served'
p2989
S'at'
p2990
tp2991
F0.0009823182711198428
s(S'then'
p2992
S'married'
p2993
S'in'
p2994
tp2995
F0.0009823182711198428
s(S'to'
p2996
S'tour'
p2997
S'[[con]]'
p2998
tp2999
F0.0009823182711198428
s(S'was'
p3000
g1256
g5
tp3001
F0.0029469548133595285
s(S'then'
p3002
S'served'
p3003
S'at'
p3004
tp3005
F0.0009823182711198428
s(S'been'
p3006
S'appointed'
p3007
S'in'
p3008
tp3009
F0.0009823182711198428
s(S'is'
p3010
S'appointed'
p3011
S'at'
p3012
tp3013
F0.0009823182711198428
s(S'has'
p3014
S'served'
p3015
S'on'
p3016
tp3017
F0.0009823182711198428
s(S'was'
p3018
S'taken'
p3019
S'away'
p3020
tp3021
F0.0009823182711198428
s(g1036
g770
g771
tp3022
F0.0019646365422396855
s(S'then'
p3023
S'served'
p3024
S'in'
p3025
tp3026
F0.0009823182711198428
s(S'now'
p3027
S'lives'
p3028
S'between'
p3029
tp3030
F0.0009823182711198428
s(S'later'
p3031
S'served'
p3032
S'for'
p3033
tp3034
F0.0009823182711198428
s(S'is'
p3035
S'founded'
p3036
S'at'
p3037
tp3038
F0.0009823182711198428
s(S'then'
p3039
S'worked'
p3040
S'[[con]]'
p3041
tp3042
F0.0009823182711198428
s(S'had'
p3043
S'met'
p3044
S'while'
p3045
tp3046
F0.0009823182711198428
s(S'who'
p3047
S'worked'
p3048
S'in'
p3049
tp3050
F0.0009823182711198428
s(S'has'
p3051
S'taken'
p3052
S'to'
p3053
tp3054
F0.0009823182711198428
s(S'was'
p3055
S'appointed'
p3056
S'on'
p3057
tp3058
F0.0009823182711198428
s(g55
g1242
S'in'
p3059
tp3060
F0.0019646365422396855
s(S'had'
p3061
S'met'
p3062
S'in'
p3063
tp3064
F0.0009823182711198428
s(S'grew'
p3065
g2294
g2295
tp3066
F0.0009823182711198428
s(g2536
g2537
S'of'
p3067
tp3068
F0.0029469548133595285
s(S'were'
p3069
S'married'
p3070
S'in'
p3071
tp3072
F0.0009823182711198428
s(S'[[con]]'
p3073
S'grew'
p3074
S'up'
p3075
tp3076
F0.0019646365422396855
s(g968
g2321
S'to'
p3077
tp3078
F0.0009823182711198428
s(S'be'
p3079
S'returned'
p3080
S'to'
p3081
tp3082
F0.0009823182711198428
s(S'was'
p3083
S'appointed'
p3084
S'before'
p3085
tp3086
F0.0009823182711198428
s(S'now'
p3087
S'working'
p3088
S'in'
p3089
tp3090
F0.0009823182711198428
s(S'been'
p3091
S'born'
p3092
S'at'
p3093
tp3094
F0.0009823182711198428
s(S'is'
p3095
S'formed'
p3096
S'of'
p3097
tp3098
F0.0009823182711198428
s(g157
S'hometown'
p3099
S'of'
p3100
tp3101
F0.0009823182711198428
s(S'later'
p3102
S'served'
p3103
S'[[adj]]'
p3104
tp3105
F0.0009823182711198428
s(S'also'
p3106
S'served'
p3107
S'from'
p3108
tp3109
F0.0009823182711198428
s(S'was'
p3110
S'joined'
p3111
S'[[det]]'
p3112
tp3113
F0.0009823182711198428
s(S'was'
p3114
S'living'
p3115
S'at'
p3116
tp3117
F0.0009823182711198428
s(S'became'
p3118
S'known'
p3119
S'only'
p3120
tp3121
F0.0009823182711198428
s(S'[[con]]'
p3122
S'graduated'
p3123
S'at'
p3124
tp3125
F0.0009823182711198428
s(S'released'
p3126
g1082
g1083
tp3127
F0.0009823182711198428
s(S'[[det]]'
p3128
S'indie'
p3129
S'pop'
p3130
tp3131
F0.0009823182711198428
s(S'had'
p3132
S'joined'
p3133
S'of'
p3134
tp3135
F0.0009823182711198428
s(S'was'
p3136
S'working'
p3137
S'in'
p3138
tp3139
F0.0009823182711198428
s(g516
g517
S'in'
p3140
tp3141
F0.0009823182711198428
s(S'later'
p3142
S'left'
p3143
S'for'
p3144
tp3145
F0.0009823182711198428
s(S'later'
p3146
S'died'
p3147
S'in'
p3148
tp3149
F0.0009823182711198428
s(S'[[adj]]'
p3150
S'served'
p3151
S'for'
p3152
tp3153
F0.0009823182711198428
s(S'was'
p3154
S'living'
p3155
S'on'
p3156
tp3157
F0.0009823182711198428
s(S'been'
p3158
S'born'
p3159
S'near'
p3160
tp3161
F0.0009823182711198428
s(S'[[adj]]'
p3162
S'tour'
p3163
S'with'
p3164
tp3165
F0.0009823182711198428
s(S'was'
p3166
S'touring'
p3167
S'[[det]]'
p3168
tp3169
F0.0009823182711198428
s(S'later'
p3170
S'died'
p3171
S'at'
p3172
tp3173
F0.0009823182711198428
s(S'then'
p3174
S'settled'
p3175
S'at'
p3176
tp3177
F0.0009823182711198428
s(S'until'
p3178
S'joined'
p3179
S'[[det]]'
p3180
tp3181
F0.0009823182711198428
s(S'was'
p3182
S'born'
p3183
S'moved'
p3184
tp3185
F0.0009823182711198428
s(g157
S'studio'
p3186
S'in'
p3187
tp3188
F0.0009823182711198428
s(S'later'
p3189
S'worked'
p3190
S'in'
p3191
tp3192
F0.0009823182711198428
s(g94
g95
S'in'
p3193
tp3194
F0.0009823182711198428
s(S'in'
p3195
g2014
g2015
tp3196
F0.0009823182711198428
s(S'was'
p3197
S'formed'
p3198
S'in'
p3199
tp3200
F0.0009823182711198428
s(S'had'
p3201
S'settled'
p3202
S'in'
p3203
tp3204
F0.0009823182711198428
s(S'rock'
p3205
S'band'
p3206
S'based'
p3207
tp3208
F0.0019646365422396855
s(S'[[num]]'
p3209
S'tour'
p3210
S'to'
p3211
tp3212
F0.0009823182711198428
s(S'was'
p3213
S'met'
p3214
S'at'
p3215
tp3216
F0.0009823182711198428
s(g2707
g2708
S'of'
p3217
tp3218
F0.0019646365422396855
s(S'was'
p3219
S'formed'
p3220
S'at'
p3221
tp3222
F0.0009823182711198428
s(S'later'
p3223
S'served'
p3224
S'at'
p3225
tp3226
F0.0009823182711198428
s(S'had'
p3227
S'served'
p3228
S'in'
p3229
tp3230
F0.0009823182711198428
s(S'[[adj]]'
p3231
S'performed'
p3232
S'in'
p3233
tp3234
F0.0009823182711198428
s(S'[[con]]'
p3235
S'works'
p3236
S'[[con]]'
p3237
tp3238
F0.0009823182711198428
s(S'again'
p3239
S'joined'
p3240
S'[[det]]'
p3241
tp3242
F0.0009823182711198428
s(S'later'
p3243
S'appointed'
p3244
S'[[pro]]'
p3245
tp3246
F0.0009823182711198428
s(S'was'
p3247
S'taken'
p3248
S'back'
p3249
tp3250
F0.0009823182711198428
s(S'born'
p3251
g603
g604
tp3252
F0.0019646365422396855
s(S'also'
p3253
S'performed'
p3254
S'in'
p3255
tp3256
F0.0009823182711198428
s(S'then'
p3257
S'returned'
p3258
S'where'
p3259
tp3260
F0.0009823182711198428
s(S'also'
p3261
S'served'
p3262
S'of'
p3263
tp3264
F0.0009823182711198428
s(S'was'
p3265
S'living'
p3266
S'in'
p3267
tp3268
F0.0009823182711198428
s.