(dp0
(S'also'
p1
S'cites'
p2
S'[[con]]'
p3
tp4
F0.0006693440428380187
s(S'has'
p5
S'said'
p6
S'of'
p7
tp8
F0.0006693440428380187
s(S'also'
p9
S'introduced'
p10
S'to'
p11
tp12
F0.0006693440428380187
s(S'usually'
p13
S'referred'
p14
S'as'
p15
tp16
F0.0006693440428380187
s(S'was'
p17
S'introduced'
p18
S'[[con]]'
p19
tp20
F0.0006693440428380187
s(S'also'
p21
S'studied'
p22
S'[[con]]'
p23
tp24
F0.0006693440428380187
s(S'[[con]]'
p25
S'served'
p26
S'with'
p27
tp28
F0.0006693440428380187
s(S'[[con]]'
p29
S'did'
p30
S'in'
p31
tp32
F0.0006693440428380187
s(S'[[con]]'
p33
S'worked'
p34
S'later'
p35
tp36
F0.0006693440428380187
s(S'most'
p37
S'known'
p38
S'for'
p39
tp40
F0.0006693440428380187
s(S'attended'
p41
S'lectures'
p42
S'of'
p43
tp44
F0.0006693440428380187
s(S'later'
p45
S'said'
p46
S'of'
p47
tp48
F0.0006693440428380187
s(S'was'
p49
S'influenced'
p50
S'as'
p51
tp52
F0.0006693440428380187
s(S'gt'
p53
S'[[adj]]'
p54
S'ref'
p55
tp56
F0.0006693440428380187
s(S'was'
p57
S'based'
p58
S'with'
p59
tp60
F0.0006693440428380187
s(S'[[det]]'
p61
S'pupil'
p62
S'of'
p63
tp64
F0.0006693440428380187
s(S'[[con]]'
p65
S'appeared'
p66
S'[[adj]]'
p67
tp68
F0.0006693440428380187
s(S'to'
p69
S'know'
p70
S'that'
p71
tp72
F0.0006693440428380187
s(S'now'
p73
S'works'
p74
S'with'
p75
tp76
F0.0006693440428380187
s(S'also'
p77
S'appears'
p78
S'[[adj]]'
p79
tp80
F0.0006693440428380187
s(S'mainly'
p81
S'worked'
p82
S'under'
p83
tp84
F0.0006693440428380187
s(S'also'
p85
S'appeared'
p86
S'[[adj]]'
p87
tp88
F0.0006693440428380187
s(S'was'
p89
S'joined'
p90
S'in'
p91
tp92
F0.0006693440428380187
s(S'been'
p93
S'introduced'
p94
S'by'
p95
tp96
F0.0006693440428380187
s(S'later'
p97
S'worked'
p98
S'to'
p99
tp100
F0.0006693440428380187
s(S'also'
p101
S'known'
p102
S'by'
p103
tp104
F0.0006693440428380187
s(S'later'
p105
S'wrote'
p106
S'that'
p107
tp108
F0.0006693440428380187
s(S'which'
p109
S'wrote'
p110
S'with'
p111
tp112
F0.0006693440428380187
s(S'is'
p113
S'joined'
p114
S'with'
p115
tp116
F0.0006693440428380187
s(S'have'
p117
S'known'
p118
S'among'
p119
tp120
F0.0006693440428380187
s(S'sometimes'
p121
S'referred'
p122
S'to'
p123
tp124
F0.0006693440428380187
s(S'has'
p125
S'introduced'
p126
S'[[det]]'
p127
tp128
F0.0006693440428380187
s(S's'
p129
S'works'
p130
S'by'
p131
tp132
F0.0006693440428380187
s(S'educated'
p133
S'where'
p134
S'studied'
p135
tp136
F0.0013386880856760374
s(S'[[pro]]'
p137
S'came'
p138
S'to'
p139
tp140
F0.0006693440428380187
s(S'strongly'
p141
S'influenced'
p142
S'by'
p143
tp144
F0.002008032128514056
s(S'[[det]]'
p145
S'father'
p146
S'[[det]]'
p147
tp148
F0.0006693440428380187
s(S'that'
p149
S'worked'
p150
S'with'
p151
tp152
F0.0006693440428380187
s(S'also'
p153
S'wrote'
p154
S'at'
p155
tp156
F0.0006693440428380187
s(S'[[adj]]'
p157
S'translator'
p158
S'of'
p159
tp160
F0.0006693440428380187
s(S'translated'
p161
S'[[adj]]'
p162
S'of'
p163
tp164
F0.0006693440428380187
s(S'not'
p165
S'known'
p166
S'when'
p167
tp168
F0.0006693440428380187
s(S'[[mod]]'
p169
S'use'
p170
S'[[det]]'
p171
tp172
F0.0006693440428380187
s(S'best'
p173
S'known'
p174
S'of'
p175
tp176
F0.0006693440428380187
s(S'is'
p177
S'actually'
p178
S'[[det]]'
p179
tp180
F0.0006693440428380187
s(S'later'
p181
S'developed'
p182
S'[[det]]'
p183
tp184
F0.0006693440428380187
s(S'[[adj]]'
p185
S'translation'
p186
S'of'
p187
tp188
F0.0006693440428380187
s(S'is'
p189
S'accepted'
p190
S'into'
p191
tp192
F0.0006693440428380187
s(S'have'
p193
S'influenced'
p194
S'in'
p195
tp196
F0.0006693440428380187
s(S'was'
p197
S'inspired'
p198
S'to'
p199
tp200
F0.0006693440428380187
s(S'is'
p201
S'called'
p202
S'in'
p203
tp204
F0.0006693440428380187
s(S'was'
p205
S'followed'
p206
S'by'
p207
tp208
F0.0006693440428380187
s(S'was'
p209
S'introduced'
p210
S'to'
p211
tp212
F0.0013386880856760374
s(S'also'
p213
S'written'
p214
S'by'
p215
tp216
F0.0006693440428380187
s(S'to'
p217
S'study'
p218
S'with'
p219
tp220
F0.0006693440428380187
s(S'had'
p221
S'gone'
p222
S'back'
p223
tp224
F0.0006693440428380187
s(S'was'
p225
S'referred'
p226
S'as'
p227
tp228
F0.0006693440428380187
s(S'was'
p229
S'mentioned'
p230
S'in'
p231
tp232
F0.0006693440428380187
s(S'once'
p233
S'referred'
p234
S'as'
p235
tp236
F0.0006693440428380187
s(S'been'
p237
S'introduced'
p238
S'to'
p239
tp240
F0.0006693440428380187
s(S'had'
p241
S'met'
p242
S'when'
p243
tp244
F0.0006693440428380187
s(S'then'
p245
S'joined'
p246
S'as'
p247
tp248
F0.0006693440428380187
s(S'have'
p249
S'served'
p250
S'with'
p251
tp252
F0.0006693440428380187
s(S'[[adj]]'
p253
S'works'
p254
S'[[con]]'
p255
tp256
F0.0006693440428380187
s(S'where'
p257
S'worked'
p258
S'for'
p259
tp260
F0.0006693440428380187
s(S'[[det]]'
p261
S'lines'
p262
S'of'
p263
tp264
F0.0006693440428380187
s(S'to'
p265
S'work'
p266
S'under'
p267
tp268
F0.0006693440428380187
s(S'then'
p269
S'worked'
p270
S'before'
p271
tp272
F0.0006693440428380187
s(S'often'
p273
S'appeared'
p274
S'in'
p275
tp276
F0.0006693440428380187
s(S'[[mod]]'
p277
S'learn'
p278
S'from'
p279
tp280
F0.0006693440428380187
s(S'then'
p281
S'called'
p282
S'on'
p283
tp284
F0.0006693440428380187
s(S'[[adj]]'
p285
S'appeared'
p286
S'with'
p287
tp288
F0.0006693440428380187
s(S'where'
p289
S'worked'
p290
S'under'
p291
tp292
F0.0006693440428380187
s(S'often'
p293
S'worked'
p294
S'with'
p295
tp296
F0.0006693440428380187
s(S'where'
p297
S'founded'
p298
S'with'
p299
tp300
F0.0006693440428380187
s(S'[[num]]'
p301
S'worked'
p302
S'with'
p303
tp304
F0.0006693440428380187
s(S'also'
p305
S'mentioned'
p306
S'in'
p307
tp308
F0.0006693440428380187
s(S'[[prp]]'
p309
S'relationship'
p310
S'with'
p311
tp312
F0.0006693440428380187
s(S'[[det]]'
p313
S'influence'
p314
S'on'
p315
tp316
F0.0006693440428380187
s(S'then'
p317
S'studied'
p318
S'under'
p319
tp320
F0.0006693440428380187
s(S'is'
p321
S'known'
p322
S'only'
p323
tp324
F0.0006693440428380187
s(S'[[det]]'
p325
S'friend'
p326
S'of'
p327
tp328
F0.0006693440428380187
s(S'came'
p329
S'under'
p330
S'[[adj]]'
p331
tp332
F0.0006693440428380187
s(S'made'
p333
S'use'
p334
S'of'
p335
tp336
F0.0006693440428380187
s(S'also'
p337
S'worked'
p338
S'[[adj]]'
p339
tp340
F0.0006693440428380187
s(S'later'
p341
S'said'
p342
S'[[det]]'
p343
tp344
F0.0006693440428380187
s(S'[[det]]'
p345
S'joined'
p346
S'with'
p347
tp348
F0.0006693440428380187
s(S'[[adj]]'
p349
S'father'
p350
S'of'
p351
tp352
F0.0006693440428380187
s(S'had'
p353
S'studied'
p354
S'under'
p355
tp356
F0.0006693440428380187
s(S'has'
p357
S'served'
p358
S'[[con]]'
p359
tp360
F0.0006693440428380187
s(S'[[con]]'
p361
S'learn'
p362
S'from'
p363
tp364
F0.0006693440428380187
s(S'while'
p365
S'served'
p366
S'as'
p367
tp368
F0.0006693440428380187
s(S'been'
p369
S'mentioned'
p370
S'as'
p371
tp372
F0.0006693440428380187
s(S'first'
p373
S'served'
p374
S'as'
p375
tp376
F0.0006693440428380187
s(S'when'
p377
S'wrote'
p378
S'to'
p379
tp380
F0.0006693440428380187
s(S'[[prp]]'
p381
S'work'
p382
S'with'
p383
tp384
F0.0006693440428380187
s(S'[[det]]'
p385
S'devotee'
p386
S'of'
p387
tp388
F0.0006693440428380187
s(S'being'
p389
S'written'
p390
S'by'
p391
tp392
F0.0006693440428380187
s(S'at'
p393
S'where'
p394
S'studied'
p395
tp396
F0.0006693440428380187
s(S'also'
p397
S'written'
p398
S'[[con]]'
p399
tp400
F0.0006693440428380187
s(S'[[adj]]'
p401
S'gt'
p402
S'ref'
p403
tp404
F0.0006693440428380187
s(S'[[pro]]'
p405
S'[[det]]'
p406
S'opportunity'
p407
tp408
F0.0006693440428380187
s(S'[[adj]]'
p409
S'met'
p410
S'[[det]]'
p411
tp412
F0.0006693440428380187
s(S'[[con]]'
p413
S'met'
p414
S'[[adj]]'
p415
tp416
F0.0006693440428380187
s(g129
S'works'
p417
S'which'
p418
tp419
F0.0006693440428380187
s(S'[[num]]'
p420
S'followed'
p421
S'at'
p422
tp423
F0.0006693440428380187
s(S'later'
p424
S'followed'
p425
S'[[det]]'
p426
tp427
F0.0006693440428380187
s(S'is'
p428
S'known'
p429
S'as'
p430
tp431
F0.0006693440428380187
s(S'also'
p432
S'called'
p433
S'[[adj]]'
p434
tp435
F0.0006693440428380187
s(S'has'
p436
S'worked'
p437
S'among'
p438
tp439
F0.0006693440428380187
s(S'then'
p440
S'joined'
p441
S'by'
p442
tp443
F0.0006693440428380187
s(S'[[adj]]'
p444
S'works'
p445
S'by'
p446
tp447
F0.002008032128514056
s(S'[[adj]]'
p448
S'assistant'
p449
S'for'
p450
tp451
F0.0006693440428380187
s(S'has'
p452
S'translated'
p453
S'[[con]]'
p454
tp455
F0.0006693440428380187
s(S'was'
p456
S'mentioned'
p457
S'to'
p458
tp459
F0.0006693440428380187
s(S'later'
p460
S'worked'
p461
S'as'
p462
tp463
F0.0006693440428380187
s(S'[[det]]'
p464
S'writings'
p465
S'of'
p466
tp467
F0.004685408299866131
s(S'[[con]]'
p468
S'followed'
p469
S'by'
p470
tp471
F0.0006693440428380187
s(S'again'
p472
S'worked'
p473
S'with'
p474
tp475
F0.0006693440428380187
s(S'to'
p476
S'[[det]]'
p477
S'winter'
p478
tp479
F0.0006693440428380187
s(S'[[prp]]'
p480
S'work'
p481
S'on'
p482
tp483
F0.0006693440428380187
s(S'being'
p484
S'published'
p485
S'in'
p486
tp487
F0.0006693440428380187
s(S'has'
p488
S'joined'
p489
S'with'
p490
tp491
F0.0006693440428380187
s(S'[[det]]'
p492
S'works'
p493
S'[[adj]]'
p494
tp495
F0.0006693440428380187
s(S'published'
p496
S'work'
p497
S'by'
p498
tp499
F0.0006693440428380187
s(S'ref'
p500
S'gt'
p501
S'is'
p502
tp503
F0.0006693440428380187
s(S'has'
p504
S'said'
p505
S'about'
p506
tp507
F0.0006693440428380187
s(S'also'
p508
S'said'
p509
S'[[mod]]'
p510
tp511
F0.0006693440428380187
s(S'have'
p512
S'written'
p513
S'as'
p514
tp515
F0.0006693440428380187
s(S'that'
p516
S'did'
p517
S'not'
p518
tp519
F0.0006693440428380187
s(S'first'
p520
S'came'
p521
S'when'
p522
tp523
F0.0006693440428380187
s(S'when'
p524
S'appeared'
p525
S'with'
p526
tp527
F0.0006693440428380187
s(g129
S'relationship'
p528
S'to'
p529
tp530
F0.0006693440428380187
s(S'first'
p531
S'met'
p532
S'[[con]]'
p533
tp534
F0.0006693440428380187
s(S'name'
p535
S'gt'
p536
S'[[adj]]'
p537
tp538
F0.0006693440428380187
s(S'as'
p539
S'works'
p540
S'by'
p541
tp542
F0.0006693440428380187
s(S'then'
p543
S'worked'
p544
S'[[adj]]'
p545
tp546
F0.0006693440428380187
s(S'[[adj]]'
p547
S'friend'
p548
S'as'
p549
tp550
F0.0006693440428380187
s(g129
S'translation'
p551
S'by'
p552
tp553
F0.0006693440428380187
s(S'has'
p554
S'said'
p555
S'[[det]]'
p556
tp557
F0.0006693440428380187
s(S'[[det]]'
p558
S'study'
p559
S'of'
p560
tp561
F0.0006693440428380187
s(S'[[prp]]'
p562
S'father'
p563
S'[[num]]'
p564
tp565
F0.0006693440428380187
s(S'then'
p566
S'used'
p567
S'by'
p568
tp569
F0.0006693440428380187
s(S'where'
p570
S'studied'
p571
S'under'
p572
tp573
F0.002008032128514056
s(S'also'
p574
S'appeared'
p575
S'along'
p576
tp577
F0.0006693440428380187
s(S'[[adj]]'
p578
S'influence'
p579
S'[[con]]'
p580
tp581
F0.0006693440428380187
s(S'as'
p582
S'writing'
p583
S'for'
p584
tp585
F0.0006693440428380187
s(S'[[det]]'
p586
S'assistant'
p587
S'of'
p588
tp589
F0.0006693440428380187
s(S'was'
p590
S'mentioned'
p591
S'on'
p592
tp593
F0.0006693440428380187
s(S'[[prp]]'
p594
S'work'
p595
S'as'
p596
tp597
F0.0006693440428380187
s(S'to'
p598
S'learn'
p599
S'[[det]]'
p600
tp601
F0.0006693440428380187
s(S'studying'
p602
S'[[det]]'
p603
S'[[adj]]'
p604
tp605
F0.0006693440428380187
s(S'usually'
p606
S'known'
p607
S'as'
p608
tp609
F0.0006693440428380187
s(S'was'
p610
S'strongly'
p611
S'influenced'
p612
tp613
F0.002008032128514056
s(S'then'
p614
S'worked'
p615
S'to'
p616
tp617
F0.0006693440428380187
s(S'has'
p618
S'served'
p619
S'under'
p620
tp621
F0.0006693440428380187
s(S'also'
p622
S'wrote'
p623
S'[[num]]'
p624
tp625
F0.0006693440428380187
s(S'[[adj]]'
p626
S'father'
p627
S'in'
p628
tp629
F0.0006693440428380187
s(S'better'
p630
S'known'
p631
S'as'
p632
tp633
F0.0006693440428380187
s(S'was'
p634
S'known'
p635
S'for'
p636
tp637
F0.0006693440428380187
s(g129
S'friend'
p638
S'[[det]]'
p639
tp640
F0.0006693440428380187
s(S'[[adj]]'
p641
S'[[det]]'
p642
S'works'
p643
tp644
F0.0006693440428380187
s(S'attended'
p645
S'[[det]]'
p646
S'lectures'
p647
tp648
F0.0006693440428380187
s(S'also'
p649
S'opened'
p650
S'for'
p651
tp652
F0.0006693440428380187
s(S'[[prp]]'
p653
S'influences'
p654
S'as'
p655
tp656
F0.0006693440428380187
s(S'name'
p657
S'ref'
p658
S'gt'
p659
tp660
F0.0006693440428380187
s(S'[[det]]'
p661
S'philosophy'
p662
S'of'
p663
tp664
F0.0013386880856760374
s(S'best'
p665
S'known'
p666
S'that'
p667
tp668
F0.0006693440428380187
s(S'[[adj]]'
p669
S'friend'
p670
S'was'
p671
tp672
F0.0006693440428380187
s(S'was'
p673
S'inspired'
p674
S'by'
p675
tp676
F0.0006693440428380187
s(S'was'
p677
S'buried'
p678
S'[[con]]'
p679
tp680
F0.0006693440428380187
s(S'[[det]]'
p681
S'friend'
p682
S'in'
p683
tp684
F0.0006693440428380187
s(S'[[con]]'
p685
S'appeared'
p686
S'from'
p687
tp688
F0.0006693440428380187
s(S'[[pro]]'
p689
S'came'
p690
S'back'
p691
tp692
F0.0006693440428380187
s(S'[[det]]'
p693
S'fan'
p694
S'[[adj]]'
p695
tp696
F0.0006693440428380187
s(S'also'
p697
S'known'
p698
S'was'
p699
tp700
F0.0006693440428380187
s(S'[[con]]'
p701
S'based'
p702
S'by'
p703
tp704
F0.0006693440428380187
s(S'[[con]]'
p705
S'met'
p706
S'[[con]]'
p707
tp708
F0.0006693440428380187
s(S'when'
p709
S'appeared'
p710
S'in'
p711
tp712
F0.0006693440428380187
s(S'been'
p713
S'inspired'
p714
S'by'
p715
tp716
F0.0006693440428380187
s(S'[[adj]]'
p717
S'commentary'
p718
S'on'
p719
tp720
F0.0006693440428380187
s(S'have'
p721
S'known'
p722
S'that'
p723
tp724
F0.0006693440428380187
s(S'became'
p725
S'known'
p726
S'[[con]]'
p727
tp728
F0.0006693440428380187
s(S'[[prp]]'
p729
S'[[adj]]'
p730
S'influences'
p731
tp732
F0.0006693440428380187
s(S'[[det]]'
p733
S'[[adj]]'
p734
S'friendship'
p735
tp736
F0.0013386880856760374
s(S'then'
p737
S'served'
p738
S'before'
p739
tp740
F0.0006693440428380187
s(S'had'
p741
S'founded'
p742
S'[[con]]'
p743
tp744
F0.0006693440428380187
s(S'translated'
p745
S'works'
p746
S'of'
p747
tp748
F0.002008032128514056
s(S'have'
p749
S'appeared'
p750
S'[[con]]'
p751
tp752
F0.0006693440428380187
s(S'also'
p753
S'wrote'
p754
S'with'
p755
tp756
F0.0006693440428380187
s(S'was'
p757
S'known'
p758
S'with'
p759
tp760
F0.0006693440428380187
s(S'later'
p761
S'wrote'
p762
S'[[adj]]'
p763
tp764
F0.0006693440428380187
s(S'[[pro]]'
p765
S'did'
p766
S'to'
p767
tp768
F0.0006693440428380187
s(S'has'
p769
g745
g746
tp770
F0.0013386880856760374
s(S'[[adj]]'
p771
S'based'
p772
S'on'
p773
tp774
F0.0006693440428380187
s(S'that'
p775
S'gave'
p776
g405
tp777
F0.0006693440428380187
s(S'also'
p778
S'mentioned'
p779
S'[[con]]'
p780
tp781
F0.0006693440428380187
s(S'[[prp]]'
p782
S'work'
p783
S'[[con]]'
p784
tp785
F0.0006693440428380187
s(S'then'
p786
S'appeared'
p787
S'on'
p788
tp789
F0.0006693440428380187
s(S'well'
p790
S'known'
p791
S'about'
p792
tp793
F0.0006693440428380187
s(S'again'
p794
S'appeared'
p795
S'with'
p796
tp797
F0.0006693440428380187
s(g129
S'work'
p798
S'with'
p799
tp800
F0.0006693440428380187
s(S'[[det]]'
p801
S'works'
p802
S'of'
p803
tp804
F0.011378848728246318
s(S'had'
p805
S'read'
p806
S'[[con]]'
p807
tp808
F0.0006693440428380187
s(S'also'
p809
g141
g142
tp810
F0.0006693440428380187
s(S'[[con]]'
p811
S'studied'
p812
S'under'
p813
tp814
F0.0006693440428380187
s(S'[[adj]]'
p815
S'fan'
p816
S'of'
p817
tp818
F0.0006693440428380187
s(S'studied'
p819
S'[[det]]'
p820
S'philosophy'
p821
tp822
F0.0006693440428380187
s(S'also'
p823
S'joined'
p824
S'with'
p825
tp826
F0.0006693440428380187
s(S'also'
p827
S'published'
p828
S'on'
p829
tp830
F0.0006693440428380187
s(S'also'
p831
S'read'
p832
S'by'
p833
tp834
F0.0006693440428380187
s(S'is'
p835
S'inspired'
p836
S'by'
p837
tp838
F0.0006693440428380187
s(S'first'
p839
S'served'
p840
S'[[con]]'
p841
tp842
F0.0006693440428380187
s(S'which'
p843
S'wrote'
p844
S'that'
p845
tp846
F0.0006693440428380187
s(S'also'
p847
S'known'
p848
S'of'
p849
tp850
F0.0006693440428380187
s(S'also'
p851
S'noted'
p852
S'with'
p853
tp854
F0.0006693440428380187
s(S'also'
p855
S'mentioned'
p856
S'as'
p857
tp858
F0.0006693440428380187
s(S'has'
p859
S'served'
p860
S'twice'
p861
tp862
F0.0006693440428380187
s(S'[[adj]]'
p863
S'influenced'
p864
S'by'
p865
tp866
F0.0006693440428380187
s(S'where'
p867
S'came'
p868
S'across'
p869
tp870
F0.0006693440428380187
s(S'also'
p871
S'written'
p872
S'[[num]]'
p873
tp874
F0.0006693440428380187
s(S'[[con]]'
p875
S'served'
p876
S'when'
p877
tp878
F0.0006693440428380187
s(S'[[adj]]'
p879
S'influence'
p880
S'as'
p881
tp882
F0.0006693440428380187
s(S'once'
p883
S'wrote'
p884
S'that'
p885
tp886
F0.0006693440428380187
s(S'spent'
p887
S'most'
p888
S'studying'
p889
tp890
F0.0006693440428380187
s(S'makes'
p891
S'[[det]]'
p892
S'version'
p893
tp894
F0.0006693440428380187
s(S'been'
p895
S'heavily'
p896
S'influenced'
p897
tp898
F0.0006693440428380187
s(S'is'
p899
S'known'
p900
S'to'
p901
tp902
F0.0006693440428380187
s(S'also'
p903
S'served'
p904
S'as'
p905
tp906
F0.0006693440428380187
s(S'had'
p907
S'studied'
p908
S'with'
p909
tp910
F0.0006693440428380187
s(S'also'
p911
S'studied'
p912
S'under'
p913
tp914
F0.0006693440428380187
s(S'was'
p915
S'referred'
p916
S'by'
p917
tp918
F0.0006693440428380187
s(S'has'
p919
S'studied'
p920
S'with'
p921
tp922
F0.0006693440428380187
s(S'[[det]]'
p923
S'writing'
p924
S'of'
p925
tp926
F0.0006693440428380187
s(S'be'
p927
S'referred'
p928
S'to'
p929
tp930
F0.0006693440428380187
s(S'first'
p931
S'appears'
p932
S'in'
p933
tp934
F0.0006693440428380187
s(S'[[det]]'
p935
S'teacher'
p936
S'[[con]]'
p937
tp938
F0.0006693440428380187
s(S'was'
p939
S'deeply'
p940
S'[[adj]]'
p941
tp942
F0.0006693440428380187
s(S'also'
p943
S'met'
p944
S'[[prp]]'
p945
tp946
F0.0006693440428380187
s(S'then'
p947
S'studied'
p948
S'with'
p949
tp950
F0.0006693440428380187
s(S'is'
p951
S'mentioned'
p952
S'[[con]]'
p953
tp954
F0.0006693440428380187
s(S'[[adj]]'
p955
S'study'
p956
S'of'
p957
tp958
F0.0006693440428380187
s(S'also'
p959
S'mentioned'
p960
S'by'
p961
tp962
F0.0006693440428380187
s(S'later'
p963
S'wrote'
p964
S'[[num]]'
p965
tp966
F0.0006693440428380187
s(S'[[con]]'
p967
S'worked'
p968
S'as'
p969
tp970
F0.0006693440428380187
s(S'[[con]]'
p971
S'artists'
p972
S'[[adj]]'
p973
tp974
F0.0006693440428380187
s(S'where'
p975
S'worked'
p976
S'with'
p977
tp978
F0.002008032128514056
s(S'again'
p979
S'appeared'
p980
S'as'
p981
tp982
F0.0006693440428380187
s(S'has'
p983
S'suggested'
p984
S'that'
p985
tp986
F0.0006693440428380187
s(S'[[con]]'
p987
S'wrote'
p988
S'[[det]]'
p989
tp990
F0.0006693440428380187
s(g129
S'writing'
p991
S'with'
p992
tp993
F0.0006693440428380187
s(S'ref'
p994
S'gt'
p995
S'described'
p996
tp997
F0.0006693440428380187
s(S'[[det]]'
p998
S'known'
p999
S'as'
p1000
tp1001
F0.0006693440428380187
s(S'also'
p1002
S'known'
p1003
S'along'
p1004
tp1005
F0.0006693440428380187
s(S'awards'
p1006
g775
g776
tp1007
F0.0006693440428380187
s(S'which'
p1008
S'appeared'
p1009
S'with'
p1010
tp1011
F0.0006693440428380187
s(S'often'
p1012
S'appeared'
p1013
S'with'
p1014
tp1015
F0.0006693440428380187
s(S'whose'
p1016
S'father'
p1017
S'was'
p1018
tp1019
F0.0006693440428380187
s(S'[[det]]'
p1020
S'work'
p1021
S'on'
p1022
tp1023
F0.0006693440428380187
s(S'well'
p1024
S'known'
p1025
S'[[con]]'
p1026
tp1027
F0.0006693440428380187
s(S'has'
p1028
S'mentioned'
p1029
S'[[det]]'
p1030
tp1031
F0.0006693440428380187
s(S'[[con]]'
p1032
S'worked'
p1033
S'mainly'
p1034
tp1035
F0.0006693440428380187
s(S'to'
p1036
S'know'
p1037
S'where'
p1038
tp1039
F0.0006693440428380187
s(S'[[adj]]'
p1040
S'believed'
p1041
S'that'
p1042
tp1043
F0.0006693440428380187
s(S'became'
p1044
S'known'
p1045
S'with'
p1046
tp1047
F0.0006693440428380187
s(S'became'
p1048
S'assistant'
p1049
S'to'
p1050
tp1051
F0.0006693440428380187
s(S'who'
p1052
S'served'
p1053
S'under'
p1054
tp1055
F0.0006693440428380187
s(S'has'
p1056
S'written'
p1057
S'extensively'
p1058
tp1059
F0.0006693440428380187
s(S'be'
p1060
S'written'
p1061
S'by'
p1062
tp1063
F0.0006693440428380187
s(S'first'
p1064
S'worked'
p1065
S'with'
p1066
tp1067
F0.0006693440428380187
s(S'also'
p1068
S'met'
p1069
S'[[adj]]'
p1070
tp1071
F0.0006693440428380187
s(S'then'
p1072
S'served'
p1073
S'to'
p1074
tp1075
F0.0006693440428380187
s(S'also'
p1076
S'worked'
p1077
S'under'
p1078
tp1079
F0.0006693440428380187
s(S'spent'
p1080
S'in'
p1081
g602
tp1082
F0.0006693440428380187
s(S'[[adj]]'
p1083
S'relationship'
p1084
S'to'
p1085
tp1086
F0.0006693440428380187
s(S'also'
p1087
S'wrote'
p1088
S'under'
p1089
tp1090
F0.0006693440428380187
s(S'had'
p1091
S'studied'
p1092
S'[[adj]]'
p1093
tp1094
F0.0006693440428380187
s(S'best'
p1095
S'known'
p1096
S'to'
p1097
tp1098
F0.0006693440428380187
s(S'worked'
p1099
S'as'
p1100
S'[[det]]'
p1101
tp1102
F0.0006693440428380187
s(S'become'
p1103
S'known'
p1104
S'for'
p1105
tp1106
F0.0006693440428380187
s(S'has'
p1107
S'appeared'
p1108
S'by'
p1109
tp1110
F0.0006693440428380187
s(g129
S'work'
p1111
S'[[adj]]'
p1112
tp1113
F0.0006693440428380187
s(S'was'
p1114
S'called'
p1115
S'by'
p1116
tp1117
F0.0006693440428380187
s(S'has'
p1118
S'mentioned'
p1119
S'as'
p1120
tp1121
F0.0006693440428380187
s(S'also'
p1122
S'served'
p1123
S'twice'
p1124
tp1125
F0.0006693440428380187
s(S'was'
p1126
S'noted'
p1127
S'in'
p1128
tp1129
F0.0006693440428380187
s(g406
g407
S'to'
p1130
tp1131
F0.0006693440428380187
s(S'translated'
p1132
S'into'
p1133
S'[[det]]'
p1134
tp1135
F0.0006693440428380187
s(S'translated'
p1136
S'[[adj]]'
p1137
S'works'
p1138
tp1139
F0.002008032128514056
s(S'also'
p1140
S'mentioned'
p1141
S'to'
p1142
tp1143
F0.0006693440428380187
s(S'name'
p1144
S'[[adj]]'
p1145
S'gt'
p1146
tp1147
F0.0006693440428380187
s(g129
S'written'
p1148
S'by'
p1149
tp1150
F0.0006693440428380187
s(S'[[con]]'
p1151
S'served'
p1152
S'[[num]]'
p1153
tp1154
F0.0006693440428380187
s(S'cited'
p1155
S'writers'
p1156
S'[[adj]]'
p1157
tp1158
F0.0006693440428380187
s(g1133
g1134
S'works'
p1159
tp1160
F0.0006693440428380187
s(S'attended'
p1161
S'lectures'
p1162
S'by'
p1163
tp1164
F0.0006693440428380187
s(S'first'
p1165
S'appeared'
p1166
S'where'
p1167
tp1168
F0.0006693440428380187
s(S'[[con]]'
p1169
S'introduced'
p1170
S'[[pro]]'
p1171
tp1172
F0.0006693440428380187
s(S'where'
p1173
S'served'
p1174
S'to'
p1175
tp1176
F0.0006693440428380187
s(S'ref'
p1177
S'gt'
p1178
S'that'
p1179
tp1180
F0.0006693440428380187
s(S'[[det]]'
p1181
S'work'
p1182
S'of'
p1183
tp1184
F0.004685408299866131
s(S'[[det]]'
p1185
S'friend'
p1186
S'[[con]]'
p1187
tp1188
F0.0006693440428380187
s(S'has'
p1189
S'studied'
p1190
S'[[det]]'
p1191
tp1192
F0.0006693440428380187
s(S'assistant'
p1193
g476
g477
tp1194
F0.0006693440428380187
s(S'also'
p1195
S'appears'
p1196
S'in'
p1197
tp1198
F0.0006693440428380187
s(S'also'
p1199
S'noted'
p1200
S'that'
p1201
tp1202
F0.0006693440428380187
s(S'later'
p1203
S'worked'
p1204
S'with'
p1205
tp1206
F0.0006693440428380187
s(S'ref'
p1207
S'gt'
p1208
S'has'
p1209
tp1210
F0.0006693440428380187
s(S'[[adj]]'
p1211
S'fan'
p1212
S'[[con]]'
p1213
tp1214
F0.0006693440428380187
s(S'had'
p1215
S'founded'
p1216
S'along'
p1217
tp1218
F0.0006693440428380187
s(g129
S'relationship'
p1219
S'with'
p1220
tp1221
F0.0006693440428380187
s(S'[[adj]]'
p1222
S'ref'
p1223
g535
tp1224
F0.006024096385542169
s(S'later'
p1225
S'joined'
p1226
S'[[con]]'
p1227
tp1228
F0.0006693440428380187
s(S'[[prp]]'
p1229
S'translation'
p1230
S'[[con]]'
p1231
tp1232
F0.0006693440428380187
s(S'also'
p1233
S'worked'
p1234
S'as'
p1235
tp1236
F0.0006693440428380187
s(S'is'
p1237
S'known'
p1238
S'after'
p1239
tp1240
F0.0006693440428380187
s(S'once'
p1241
S'said'
p1242
S'about'
p1243
tp1244
F0.0006693440428380187
s(S'is'
p1245
S'known'
p1246
S'also'
p1247
tp1248
F0.0006693440428380187
s(S'[[det]]'
p1249
S'assistant'
p1250
S'[[con]]'
p1251
tp1252
F0.0006693440428380187
s(S'is'
p1253
S'noted'
p1254
S'as'
p1255
tp1256
F0.0006693440428380187
s(S'gt'
p1257
S'[[adj]]'
p1258
S'gt'
p1259
tp1260
F0.0006693440428380187
s(S'again'
p1261
S'served'
p1262
S'under'
p1263
tp1264
F0.0006693440428380187
s(S'also'
p1265
S'studied'
p1266
S'as'
p1267
tp1268
F0.0006693440428380187
s(S'has'
p1269
S'written'
p1270
S'to'
p1271
tp1272
F0.0006693440428380187
s(S'often'
p1273
S'compared'
p1274
S'to'
p1275
tp1276
F0.0006693440428380187
s(S'educated'
p1277
S'[[con]]'
p1278
S'studied'
p1279
tp1280
F0.0006693440428380187
s(S'ref'
p1281
S'gt'
p1282
S'by'
p1283
tp1284
F0.0006693440428380187
s(S'best'
p1285
S'known'
p1286
S'[[con]]'
p1287
tp1288
F0.0006693440428380187
s(S'[[adj]]'
p1289
S'philosophy'
p1290
S'[[con]]'
p1291
tp1292
F0.0006693440428380187
s(S'then'
p1293
S'worked'
p1294
S'where'
p1295
tp1296
F0.0006693440428380187
s(S'never'
p1297
S'called'
p1298
S'[[con]]'
p1299
tp1300
F0.0006693440428380187
s(S'where'
p1301
S'studied'
p1302
S'with'
p1303
tp1304
F0.0006693440428380187
s(S'has'
p1305
g1155
g1156
tp1306
F0.0006693440428380187
s(g129
S'translation'
p1307
S'[[det]]'
p1308
tp1309
F0.0006693440428380187
s(S'ref'
p1310
S'gt'
p1311
S'with'
p1312
tp1313
F0.0006693440428380187
s(S'also'
p1314
S'influenced'
p1315
S'by'
p1316
tp1317
F0.002008032128514056
s(S'later'
p1318
S'served'
p1319
S'from'
p1320
tp1321
F0.0006693440428380187
s(S'[[con]]'
p1322
g496
g497
tp1323
F0.0006693440428380187
s(S'to'
p1324
S'work'
p1325
S'[[adj]]'
p1326
tp1327
F0.0006693440428380187
s(S'done'
p1328
S'work'
p1329
S'[[adj]]'
p1330
tp1331
F0.0006693440428380187
s(S'[[det]]'
p1332
S'friend'
p1333
S'to'
p1334
tp1335
F0.0006693440428380187
s(S'currently'
p1336
S'works'
p1337
S'as'
p1338
tp1339
F0.0006693440428380187
s(S'also'
p1340
S'did'
p1341
S'not'
p1342
tp1343
F0.0006693440428380187
s(S'which'
p1344
S'appeared'
p1345
S'[[adj]]'
p1346
tp1347
F0.0006693440428380187
s(S'because'
p1348
S'believed'
p1349
S'that'
p1350
tp1351
F0.0006693440428380187
s(S'also'
p1352
S'translated'
p1353
S'from'
p1354
tp1355
F0.0006693440428380187
s(S'is'
p1356
S'influenced'
p1357
S'by'
p1358
tp1359
F0.002008032128514056
s(S'was'
p1360
S'known'
p1361
S'[[det]]'
p1362
tp1363
F0.0006693440428380187
s(S'had'
p1364
S'said'
p1365
S'that'
p1366
tp1367
F0.0006693440428380187
s(S'[[num]]'
p1368
S'wrote'
p1369
S'on'
p1370
tp1371
F0.0006693440428380187
s(S'also'
p1372
S'said'
p1373
S'of'
p1374
tp1375
F0.0006693440428380187
s(S'[[adj]]'
p1376
S'father'
p1377
S'[[con]]'
p1378
tp1379
F0.0006693440428380187
s(S'is'
p1380
S'known'
p1381
S'[[con]]'
p1382
tp1383
F0.0006693440428380187
s(S'has'
p1384
S'compared'
p1385
S'[[pro]]'
p1386
tp1387
F0.0006693440428380187
s(S'where'
p1388
S'studied'
p1389
S'[[det]]'
p1390
tp1391
F0.0006693440428380187
s(S'ref'
p1392
S'gt'
p1393
S'for'
p1394
tp1395
F0.0006693440428380187
s(S'ref'
p1396
S'gt'
p1397
S'to'
p1398
tp1399
F0.0006693440428380187
s(S'also'
p1400
S'served'
p1401
S'under'
p1402
tp1403
F0.0006693440428380187
s(S'is'
p1404
S'influenced'
p1405
S'as'
p1406
tp1407
F0.0006693440428380187
s(S'has'
p1408
S'written'
p1409
S'on'
p1410
tp1411
F0.0006693440428380187
s(S'was'
p1412
S'joined'
p1413
S'while'
p1414
tp1415
F0.0006693440428380187
s(S'[[adj]]'
p1416
S'influence'
p1417
S'on'
p1418
tp1419
F0.0006693440428380187
s(S'ref'
p1420
S'gt'
p1421
S'[[adj]]'
p1422
tp1423
F0.002677376171352075
s(S'is'
p1424
S'mentioned'
p1425
S'to'
p1426
tp1427
F0.0006693440428380187
s(g1057
g1058
S'on'
p1428
tp1429
F0.0006693440428380187
s(S'been'
p1430
S'writing'
p1431
S'for'
p1432
tp1433
F0.0006693440428380187
s(S'later'
p1434
S'joined'
p1435
S'while'
p1436
tp1437
F0.0006693440428380187
s(S'be'
p1438
S'joined'
p1439
S'by'
p1440
tp1441
F0.0006693440428380187
s(S'[[adj]]'
p1442
S'introduced'
p1443
S'by'
p1444
tp1445
F0.0006693440428380187
s(S'was'
p1446
S'served'
p1447
S'as'
p1448
tp1449
F0.0006693440428380187
s(g402
g403
S'gt'
p1450
tp1451
F0.0006693440428380187
s(S'has'
p1452
S'opened'
p1453
S'for'
p1454
tp1455
F0.0006693440428380187
s(S'[[det]]'
p1456
S'colleague'
p1457
S'of'
p1458
tp1459
F0.0006693440428380187
s(S'had'
p1460
S'written'
p1461
S'by'
p1462
tp1463
F0.0006693440428380187
s(S'where'
p1464
S'worked'
p1465
S'as'
p1466
tp1467
F0.0006693440428380187
s(S'also'
p1468
S'called'
p1469
S'for'
p1470
tp1471
F0.0006693440428380187
s(S'later'
p1472
S'worked'
p1473
S'under'
p1474
tp1475
F0.0006693440428380187
s(S'was'
p1476
S'called'
p1477
S'[[det]]'
p1478
tp1479
F0.0006693440428380187
s(S'[[det]]'
p1480
S'referred'
p1481
S'to'
p1482
tp1483
F0.0006693440428380187
s(S'was'
p1484
S'known'
p1485
S'as'
p1486
tp1487
F0.0006693440428380187
s(g129
S'worked'
p1488
S'as'
p1489
tp1490
F0.0006693440428380187
s(S'also'
p1491
S'drew'
p1492
S'[[det]]'
p1493
tp1494
F0.0006693440428380187
s(S'has'
p1495
S'written'
p1496
S'about'
p1497
tp1498
F0.0006693440428380187
s(S'also'
p1499
S'came'
p1500
S'[[adj]]'
p1501
tp1502
F0.0006693440428380187
s(S'[[pro]]'
p1503
S'came'
p1504
S'through'
p1505
tp1506
F0.0006693440428380187
s(S'was'
p1507
g133
g134
tp1508
F0.0013386880856760374
s(S'is'
p1509
S'said'
p1510
S'by'
p1511
tp1512
F0.0006693440428380187
s(S'best'
p1513
S'known'
p1514
S'as'
p1515
tp1516
F0.0006693440428380187
s(S'[[det]]'
p1517
S'work'
p1518
S'to'
p1519
tp1520
F0.0006693440428380187
s(S'to'
p1521
S'know'
p1522
S'whether'
p1523
tp1524
F0.0006693440428380187
s(S'ref'
p1525
S'gt'
p1526
S'while'
p1527
tp1528
F0.0006693440428380187
s(S'[[mod]]'
p1529
S'read'
p1530
S'[[con]]'
p1531
tp1532
F0.0006693440428380187
s(S'became'
p1533
S'known'
p1534
S'as'
p1535
tp1536
F0.0006693440428380187
s(S'has'
p1537
S'worked'
p1538
S'by'
p1539
tp1540
F0.0006693440428380187
s(S'[[con]]'
p1541
S'known'
p1542
S'as'
p1543
tp1544
F0.0006693440428380187
s(S'have'
p1545
S'worked'
p1546
S'as'
p1547
tp1548
F0.0006693440428380187
s(S'has'
p1549
S'met'
p1550
S'with'
p1551
tp1552
F0.0006693440428380187
s(S'have'
p1553
S'said'
p1554
S'to'
p1555
tp1556
F0.0006693440428380187
s(S'had'
p1557
S'met'
p1558
S'[[det]]'
p1559
tp1560
F0.0006693440428380187
s(S'been'
p1561
S'compared'
p1562
S'[[con]]'
p1563
tp1564
F0.0006693440428380187
s(S'then'
p1565
S'did'
p1566
S'[[det]]'
p1567
tp1568
F0.0006693440428380187
s(S'[[con]]'
p1569
S'written'
p1570
S'by'
p1571
tp1572
F0.0006693440428380187
s(S'also'
p1573
S'joined'
p1574
S'by'
p1575
tp1576
F0.0006693440428380187
s(g1081
g602
g603
tp1577
F0.0006693440428380187
s(S'formerly'
p1578
S'worked'
p1579
S'as'
p1580
tp1581
F0.0006693440428380187
s(S'name'
p1582
S'gt'
p1583
S'[[con]]'
p1584
tp1585
F0.0006693440428380187
s(S'made'
p1586
S'use'
p1587
S'with'
p1588
tp1589
F0.0006693440428380187
s(S'have'
p1590
S'served'
p1591
S'in'
p1592
tp1593
F0.0006693440428380187
s(S'also'
p1594
S'worked'
p1595
S'with'
p1596
tp1597
F0.0006693440428380187
s(S'also'
p1598
S'studied'
p1599
S'with'
p1600
tp1601
F0.0006693440428380187
s(S'first'
p1602
S'studied'
p1603
S'with'
p1604
tp1605
F0.0006693440428380187
s(S'was'
p1606
S'friend'
p1607
S'of'
p1608
tp1609
F0.0006693440428380187
s(S'have'
p1610
S'said'
p1611
S'that'
p1612
tp1613
F0.0006693440428380187
s(S'became'
p1614
S'known'
p1615
S'by'
p1616
tp1617
F0.0006693440428380187
s(S'has'
p1618
S'served'
p1619
S'as'
p1620
tp1621
F0.0006693440428380187
s(S'ref'
p1622
S'gt'
p1623
S'there'
p1624
tp1625
F0.0006693440428380187
s(S'once'
p1626
S'said'
p1627
S'in'
p1628
tp1629
F0.0006693440428380187
s(S'[[con]]'
p1630
S'met'
p1631
S'with'
p1632
tp1633
F0.0013386880856760374
s(S'translated'
p1634
S'[[det]]'
p1635
S'works'
p1636
tp1637
F0.002008032128514056
s(S'also'
p1638
S'wrote'
p1639
S'[[adj]]'
p1640
tp1641
F0.0013386880856760374
s(S'[[adj]]'
p1642
S'introduced'
p1643
S'to'
p1644
tp1645
F0.0006693440428380187
s(S'has'
p1646
S'translated'
p1647
S'into'
p1648
tp1649
F0.0006693440428380187
s(S'career'
p1650
S'where'
p1651
S'worked'
p1652
tp1653
F0.0006693440428380187
s(S'then'
p1654
S'appeared'
p1655
S'[[num]]'
p1656
tp1657
F0.0006693440428380187
s(S'first'
p1658
S'came'
p1659
S'as'
p1660
tp1661
F0.0006693440428380187
s(S'[[det]]'
p1662
S'pupil'
p1663
S'[[det]]'
p1664
tp1665
F0.0006693440428380187
s(S'later'
p1666
S'worked'
p1667
S'[[con]]'
p1668
tp1669
F0.0006693440428380187
s(S'was'
p1670
S'acquainted'
p1671
S'with'
p1672
tp1673
F0.0006693440428380187
s(S'visited'
p1674
S'where'
p1675
S'met'
p1676
tp1677
F0.002008032128514056
s(S'was'
p1678
S'father'
p1679
S'to'
p1680
tp1681
F0.0006693440428380187
s(S'to'
p1682
S'read'
p1683
S'[[con]]'
p1684
tp1685
F0.0006693440428380187
s(S'[[adj]]'
p1686
S'influence'
p1687
S'over'
p1688
tp1689
F0.0006693440428380187
s(S'had'
p1690
S'written'
p1691
S'that'
p1692
tp1693
F0.0006693440428380187
s(S'found'
p1694
S'work'
p1695
S'for'
p1696
tp1697
F0.0006693440428380187
s(S'currently'
p1698
S'works'
p1699
S'with'
p1700
tp1701
F0.0006693440428380187
s(S'later'
p1702
S'did'
p1703
S'[[det]]'
p1704
tp1705
F0.0006693440428380187
s(S'[[con]]'
p1706
S'studied'
p1707
S'with'
p1708
tp1709
F0.0013386880856760374
s(S'has'
p1710
g1136
g1137
tp1711
F0.0013386880856760374
s(S'[[con]]'
p1712
S'met'
p1713
S'[[det]]'
p1714
tp1715
F0.0013386880856760374
s(S'best'
p1716
S'known'
p1717
S'[[prp]]'
p1718
tp1719
F0.0006693440428380187
s(S'[[prp]]'
p1720
S'father'
p1721
g129
tp1722
F0.0006693440428380187
s(g129
S'influence'
p1723
S'[[con]]'
p1724
tp1725
F0.0006693440428380187
s(S'has'
p1726
S'studied'
p1727
S'under'
p1728
tp1729
F0.0006693440428380187
s(g129
S'father'
p1730
S'[[det]]'
p1731
tp1732
F0.0006693440428380187
s(g129
S'friend'
p1733
S'from'
p1734
tp1735
F0.0006693440428380187
s(S'been'
p1736
S'noted'
p1737
S'by'
p1738
tp1739
F0.0006693440428380187
s(S'where'
p1740
S'appeared'
p1741
S'with'
p1742
tp1743
F0.0006693440428380187
s(S'to'
p1744
S'work'
p1745
S'again'
p1746
tp1747
F0.0006693440428380187
s(S'has'
p1748
S'followed'
p1749
S'[[det]]'
p1750
tp1751
F0.0006693440428380187
s(S'to'
p1752
S'know'
p1753
S'how'
p1754
tp1755
F0.0006693440428380187
s(S'best'
p1756
S'known'
p1757
S'along'
p1758
tp1759
F0.0006693440428380187
s(S'[[num]]'
p1760
S'work'
p1761
S'of'
p1762
tp1763
F0.0006693440428380187
s(S'was'
p1764
S'noted'
p1765
S'[[con]]'
p1766
tp1767
F0.0006693440428380187
s(S'cited'
p1768
S'[[adj]]'
p1769
S'writers'
p1770
tp1771
F0.0006693440428380187
s(S'[[det]]'
p1772
S'follower'
p1773
S'of'
p1774
tp1775
F0.0006693440428380187
s(S'[[det]]'
p1776
S'relationship'
p1777
S'[[con]]'
p1778
tp1779
F0.0006693440428380187
s(S'started'
p1780
S'taking'
p1781
S'lessons'
p1782
tp1783
F0.0006693440428380187
s(S'ref'
p1784
S'gt'
p1785
S'sent'
p1786
tp1787
F0.0006693440428380187
s(S'usually'
p1788
S'referred'
p1789
S'to'
p1790
tp1791
F0.0006693440428380187
s(S'[[adj]]'
p1792
S'friend'
p1793
S'who'
p1794
tp1795
F0.0006693440428380187
s(S'[[con]]'
p1796
S'served'
p1797
S'under'
p1798
tp1799
F0.0006693440428380187
s(g129
S'father'
p1800
S'as'
p1801
tp1802
F0.0006693440428380187
s(S'was'
p1803
S'called'
p1804
S'into'
p1805
tp1806
F0.0006693440428380187
s(S'is'
p1807
S'mentioned'
p1808
S'with'
p1809
tp1810
F0.0006693440428380187
s(S'was'
p1811
S'educated'
p1812
g393
tp1813
F0.0006693440428380187
s(S'[[con]]'
p1814
S'met'
p1815
S'up'
p1816
tp1817
F0.0006693440428380187
s(S'is'
p1818
S'noted'
p1819
S'[[con]]'
p1820
tp1821
F0.0006693440428380187
s(S'developed'
p1822
S'[[det]]'
p1823
S'works'
p1824
tp1825
F0.0013386880856760374
s(S'best'
p1826
S'known'
p1827
S'[[adj]]'
p1828
tp1829
F0.0006693440428380187
s(g129
S'gt'
p1830
S'ref'
p1831
tp1832
F0.0006693440428380187
s(S'also'
p1833
S'known'
p1834
S'as'
p1835
tp1836
F0.0006693440428380187
s(S'be'
p1837
S'followed'
p1838
S'by'
p1839
tp1840
F0.0006693440428380187
s(S'once'
p1841
S'referred'
p1842
S'to'
p1843
tp1844
F0.0006693440428380187
s(S'soon'
p1845
S'joined'
p1846
S'[[con]]'
p1847
tp1848
F0.0006693440428380187
s(S'[[con]]'
p1849
S'appeared'
p1850
S'with'
p1851
tp1852
F0.0006693440428380187
s(S'[[adj]]'
p1853
S'studies'
p1854
S'with'
p1855
tp1856
F0.0006693440428380187
s(S'[[prp]]'
p1857
S'father'
p1858
S'[[det]]'
p1859
tp1860
F0.0006693440428380187
s(S'has'
p1861
S'written'
p1862
S'that'
p1863
tp1864
F0.0006693440428380187
s(S'[[pro]]'
p1865
S'did'
p1866
S'not'
p1867
tp1868
F0.0006693440428380187
s(S'[[adj]]'
p1869
S'generation'
p1870
S'member'
p1871
tp1872
F0.0006693440428380187
s(S'as'
p1873
S'did'
p1874
S'[[det]]'
p1875
tp1876
F0.0006693440428380187
s(g129
S'influence'
p1877
S'on'
p1878
tp1879
F0.0006693440428380187
s(S'to'
p1880
S'study'
p1881
S'under'
p1882
tp1883
F0.0006693440428380187
s(S'singing'
p1884
S'[[con]]'
p1885
S'followed'
p1886
tp1887
F0.0006693440428380187
s(S'also'
p1888
S'translated'
p1889
S'[[con]]'
p1890
tp1891
F0.0006693440428380187
s(S'[[adj]]'
p1892
S'writings'
p1893
S'of'
p1894
tp1895
F0.0006693440428380187
s(S'also'
p1896
S'worked'
p1897
S'along'
p1898
tp1899
F0.0006693440428380187
s(S'is'
p1900
S'called'
p1901
S'by'
p1902
tp1903
F0.0006693440428380187
s(g1223
g535
g536
tp1904
F0.0033467202141900937
s(S'[[adj]]'
p1905
S'followed'
p1906
S'by'
p1907
tp1908
F0.0006693440428380187
s(S'later'
p1909
S'met'
p1910
S'with'
p1911
tp1912
F0.0006693440428380187
s(S'has'
p1913
S'read'
p1914
S'as'
p1915
tp1916
F0.0006693440428380187
s(S'be'
p1917
S'called'
p1918
S'[[det]]'
p1919
tp1920
F0.0006693440428380187
s(S'was'
p1921
S'joined'
p1922
S'[[con]]'
p1923
tp1924
F0.0006693440428380187
s(S'best'
p1925
S'known'
p1926
S'from'
p1927
tp1928
F0.0006693440428380187
s(S'[[adj]]'
p1929
S'studies'
p1930
S'of'
p1931
tp1932
F0.0006693440428380187
s(S'[[det]]'
p1933
S'father'
p1934
S'of'
p1935
tp1936
F0.0006693440428380187
s(S'[[adj]]'
p1937
S'friends'
p1938
S'with'
p1939
tp1940
F0.0006693440428380187
s(S'to'
p1941
S'know'
p1942
S'who'
p1943
tp1944
F0.0006693440428380187
s(S'to'
p1945
S'work'
p1946
S'as'
p1947
tp1948
F0.0006693440428380187
s(S'also'
p1949
S'developed'
p1950
S'[[prp]]'
p1951
tp1952
F0.0006693440428380187
s(S'is'
p1953
S'known'
p1954
S'[[adj]]'
p1955
tp1956
F0.0006693440428380187
s(g129
S'worked'
p1957
S'on'
p1958
tp1959
F0.0006693440428380187
s(S'then'
p1960
S'appeared'
p1961
S'as'
p1962
tp1963
F0.0006693440428380187
s(S'to'
p1964
S'use'
p1965
S'[[det]]'
p1966
tp1967
F0.0006693440428380187
s(S'[[con]]'
p1968
S'friend'
p1969
S'to'
p1970
tp1971
F0.0006693440428380187
s(S'later'
p1972
S'served'
p1973
S'as'
p1974
tp1975
F0.0006693440428380187
s(S'also'
p1976
S'noted'
p1977
S'for'
p1978
tp1979
F0.0006693440428380187
s(S'been'
p1980
S'called'
p1981
S'[[num]]'
p1982
tp1983
F0.0006693440428380187
s(S'later'
p1984
S'joined'
p1985
S'along'
p1986
tp1987
F0.0006693440428380187
s(S'[[det]]'
p1988
S'pupil'
p1989
S'[[con]]'
p1990
tp1991
F0.0006693440428380187
s(S'later'
p1992
S'appeared'
p1993
S'with'
p1994
tp1995
F0.0006693440428380187
s(S'for'
p1996
S'called'
p1997
S'along'
p1998
tp1999
F0.0006693440428380187
s(S'also'
p2000
S'came'
p2001
S'with'
p2002
tp2003
F0.0006693440428380187
s(S'[[det]]'
p2004
S'writer'
p2005
S'of'
p2006
tp2007
F0.0006693440428380187
s(g129
S'father'
p2008
S'[[con]]'
p2009
tp2010
F0.0006693440428380187
s(S'where'
p2011
S'met'
p2012
S'[[det]]'
p2013
tp2014
F0.0006693440428380187
s(S'ref'
p2015
S'gt'
p2016
S'went'
p2017
tp2018
F0.0006693440428380187
s(S'also'
p2019
S'appears'
p2020
S'[[det]]'
p2021
tp2022
F0.0006693440428380187
s(S'later'
p2023
S'appeared'
p2024
S'[[adj]]'
p2025
tp2026
F0.0006693440428380187
s(S'been'
p2027
S'known'
p2028
S'as'
p2029
tp2030
F0.0006693440428380187
s(S'[[adj]]'
p2031
S'translation'
p2032
S'by'
p2033
tp2034
F0.0006693440428380187
s(S'[[adj]]'
p2035
S'worked'
p2036
S'as'
p2037
tp2038
F0.0006693440428380187
s(g1781
g1782
S'from'
p2039
tp2040
F0.0006693440428380187
s(S'wrote'
p2041
S'[[adj]]'
p2042
S'poems'
p2043
tp2044
F0.0006693440428380187
s(S'[[det]]'
p2045
S'copy'
p2046
S'of'
p2047
tp2048
F0.0006693440428380187
s(S'once'
p2049
S'said'
p2050
S'to'
p2051
tp2052
F0.0006693440428380187
s(S'ref'
p2053
S'gt'
p2054
S'[[num]]'
p2055
tp2056
F0.0006693440428380187
s(S'[[det]]'
p2057
S'translator'
p2058
S'of'
p2059
tp2060
F0.0006693440428380187
s(S'then'
p2061
S'appears'
p2062
S'with'
p2063
tp2064
F0.0006693440428380187
s(S'later'
p2065
S'wrote'
p2066
S'to'
p2067
tp2068
F0.0006693440428380187
s(S'later'
p2069
S'said'
p2070
S'[[con]]'
p2071
tp2072
F0.0006693440428380187
s(S'is'
p2073
S'believed'
p2074
S'to'
p2075
tp2076
F0.0006693440428380187
s(S'to'
p2077
S'rely'
p2078
S'on'
p2079
tp2080
F0.0006693440428380187
s(S'twice'
p2081
S'served'
p2082
S'as'
p2083
tp2084
F0.0006693440428380187
s(S'where'
p2085
S'worked'
p2086
S'along'
p2087
tp2088
F0.0006693440428380187
s(S'first'
p2089
S'appeared'
p2090
S'as'
p2091
tp2092
F0.0006693440428380187
s(S'has'
p2093
S'translated'
p2094
S'by'
p2095
tp2096
F0.0006693440428380187
s(S'[[adj]]'
p2097
S'writer'
p2098
S'of'
p2099
tp2100
F0.0006693440428380187
s(S'[[det]]'
p2101
S'[[adj]]'
p2102
S'work'
p2103
tp2104
F0.0006693440428380187
s(S'[[adj]]'
p2105
S'teacher'
p2106
S'[[con]]'
p2107
tp2108
F0.0006693440428380187
s(S'[[adj]]'
p2109
S'use'
p2110
S'[[con]]'
p2111
tp2112
F0.0006693440428380187
s(S'[[det]]'
p2113
S'father'
p2114
S'[[con]]'
p2115
tp2116
F0.0006693440428380187
s(S'[[adj]]'
p2117
S'works'
p2118
S'of'
p2119
tp2120
F0.002008032128514056
s(S'is'
p2121
S'called'
p2122
S'[[det]]'
p2123
tp2124
F0.0006693440428380187
s(S'formed'
p2125
S'[[det]]'
p2126
S'friendship'
p2127
tp2128
F0.0006693440428380187
s(S'[[num]]'
p2129
S'founded'
p2130
S'by'
p2131
tp2132
F0.0006693440428380187
s(S'[[adj]]'
p2133
S'mentioned'
p2134
S'by'
p2135
tp2136
F0.0006693440428380187
s(S'fell'
p2137
S'under'
p2138
S'[[det]]'
p2139
tp2140
F0.0006693440428380187
s(S'be'
p2141
S'known'
p2142
S'as'
p2143
tp2144
F0.0006693440428380187
s(S'also'
p2145
S'did'
p2146
S'[[det]]'
p2147
tp2148
F0.0006693440428380187
s(S'often'
p2149
S'known'
p2150
S'as'
p2151
tp2152
F0.0006693440428380187
s(S'became'
p2153
S'known'
p2154
S'after'
p2155
tp2156
F0.0006693440428380187
s(S'[[con]]'
p2157
S'colleague'
p2158
S'of'
p2159
tp2160
F0.0006693440428380187
s(S'also'
p2161
S'known'
p2162
S'[[adj]]'
p2163
tp2164
F0.0006693440428380187
s(S'also'
p2165
S'said'
p2166
S'[[det]]'
p2167
tp2168
F0.0006693440428380187
s(S'[[adj]]'
p2169
S'served'
p2170
S'as'
p2171
tp2172
F0.0006693440428380187
s(S'formerly'
p2173
S'served'
p2174
S'as'
p2175
tp2176
F0.0006693440428380187
s(S'also'
p2177
S'published'
p2178
S'[[det]]'
p2179
tp2180
F0.0006693440428380187
s(g129
S'commentary'
p2181
S'on'
p2182
tp2183
F0.0006693440428380187
s(S'best'
p2184
S'known'
p2185
S'for'
p2186
tp2187
F0.0006693440428380187
s(S'by'
p2188
g464
g465
tp2189
F0.002677376171352075
s(S'sometimes'
p2190
S'known'
p2191
S'as'
p2192
tp2193
F0.0006693440428380187
s(S'been'
p2194
S'influenced'
p2195
S'by'
p2196
tp2197
F0.002008032128514056
s(S'found'
p2198
S'work'
p2199
S'with'
p2200
tp2201
F0.0006693440428380187
s(S'[[det]]'
p2202
S'student'
p2203
S'[[con]]'
p2204
tp2205
F0.0006693440428380187
s(S'under'
p2206
S'[[det]]'
p2207
S'influence'
p2208
tp2209
F0.002677376171352075
s(S'[[adj]]'
p2210
S'work'
p2211
S'to'
p2212
tp2213
F0.0006693440428380187
s(S'[[con]]'
p2214
S'said'
p2215
S'that'
p2216
tp2217
F0.0006693440428380187
s(S'[[con]]'
p2218
S'served'
p2219
S'as'
p2220
tp2221
F0.0006693440428380187
s(S'greatly'
p2222
S'influenced'
p2223
S'by'
p2224
tp2225
F0.0013386880856760374
s(S'[[adj]]'
p2226
S'admiration'
p2227
S'for'
p2228
tp2229
F0.0006693440428380187
s(S'[[adj]]'
p2230
S'critique'
p2231
S'of'
p2232
tp2233
F0.0006693440428380187
s(S'been'
p2234
S'called'
p2235
S'[[det]]'
p2236
tp2237
F0.0006693440428380187
s(g331
S'influence'
p2238
S'of'
p2239
tp2240
F0.0013386880856760374
s(S'published'
p2241
g2101
g2102
tp2242
F0.0006693440428380187
s(S'influenced'
p2243
S'[[con]]'
p2244
S'[[det]]'
p2245
tp2246
F0.0006693440428380187
s(S'began'
p2247
g1884
g1885
tp2248
F0.0006693440428380187
s(S'[[pro]]'
p2249
S'use'
p2250
S'of'
p2251
tp2252
F0.0006693440428380187
s(S'later'
p2253
S'worked'
p2254
S'on'
p2255
tp2256
F0.0006693440428380187
s(S'soon'
p2257
S'met'
p2258
S'[[con]]'
p2259
tp2260
F0.0006693440428380187
s(S'also'
p2261
S'worked'
p2262
S'to'
p2263
tp2264
F0.0006693440428380187
s(g1769
g1770
S'as'
p2265
tp2266
F0.0006693440428380187
s(S'continue'
p2267
S'[[prp]]'
p2268
S'studies'
p2269
tp2270
F0.0006693440428380187
s(S'[[con]]'
p2271
S'appeared'
p2272
S'as'
p2273
tp2274
F0.0006693440428380187
s(S'[[det]]'
p2275
S'friend'
p2276
S'with'
p2277
tp2278
F0.0006693440428380187
s(S'first'
p2279
S'appeared'
p2280
S'by'
p2281
tp2282
F0.0006693440428380187
s(S'[[adj]]'
p2283
S'writer'
p2284
S'[[con]]'
p2285
tp2286
F0.0006693440428380187
s(S'[[pro]]'
p2287
S'[[det]]'
p2288
S'writings'
p2289
tp2290
F0.0006693440428380187
s(g129
S'use'
p2291
S'of'
p2292
tp2293
F0.0006693440428380187
s(S'was'
p2294
S'known'
p2295
S'[[con]]'
p2296
tp2297
F0.0006693440428380187
s(S'was'
p2298
S'called'
p2299
S'out'
p2300
tp2301
F0.0006693440428380187
s(S'[[det]]'
p2302
S'father'
p2303
S'to'
p2304
tp2305
F0.0006693440428380187
s(S'best'
p2306
S'friend'
p2307
S'[[con]]'
p2308
tp2309
F0.0006693440428380187
s(S'to'
p2310
S'work'
p2311
S'together'
p2312
tp2313
F0.0006693440428380187
s(S'also'
p2314
S'appeared'
p2315
S'to'
p2316
tp2317
F0.0006693440428380187
s(S'become'
p2318
S'known'
p2319
S'to'
p2320
tp2321
F0.0006693440428380187
s(S'in'
p2322
S'writing'
p2323
S'[[det]]'
p2324
tp2325
F0.0006693440428380187
s(g1885
g1886
S'[[det]]'
p2326
tp2327
F0.0013386880856760374
s(S'then'
p2328
S'worked'
p2329
S'as'
p2330
tp2331
F0.0006693440428380187
s(g658
g659
S'[[con]]'
p2332
tp2333
F0.002677376171352075
s(S'to'
p2334
S'use'
p2335
S'[[pro]]'
p2336
tp2337
F0.0006693440428380187
s(S'[[det]]'
p2338
S'critique'
p2339
S'of'
p2340
tp2341
F0.0006693440428380187
s(S'currently'
p2342
S'appears'
p2343
S'as'
p2344
tp2345
F0.0006693440428380187
s(S'first'
p2346
S'met'
p2347
S'with'
p2348
tp2349
F0.0006693440428380187
s(S'studied'
p2350
S'[[det]]'
p2351
S'[[adj]]'
p2352
tp2353
F0.0006693440428380187
s(S'twice'
p2354
S'appeared'
p2355
S'in'
p2356
tp2357
F0.0006693440428380187
s(S'[[prp]]'
p2358
S'admiration'
p2359
S'for'
p2360
tp2361
F0.0006693440428380187
s(S'also'
p2362
S'known'
p2363
S'[[num]]'
p2364
tp2365
F0.0006693440428380187
s(S'has'
p2366
S'worked'
p2367
S'as'
p2368
tp2369
F0.0006693440428380187
s(S'[[det]]'
p2370
S'writer'
p2371
S'[[con]]'
p2372
tp2373
F0.0006693440428380187
s(g1870
g1871
S'along'
p2374
tp2375
F0.0006693440428380187
s(S'has'
p2376
S'written'
p2377
S'of'
p2378
tp2379
F0.0006693440428380187
s(g129
S'based'
p2380
S'on'
p2381
tp2382
F0.0006693440428380187
s(S'been'
p2383
S'joined'
p2384
S'by'
p2385
tp2386
F0.0006693440428380187
s(S'[[det]]'
p2387
S'founded'
p2388
S'by'
p2389
tp2390
F0.0006693440428380187
s(S'is'
p2391
S'buried'
p2392
S'near'
p2393
tp2394
F0.0006693440428380187
s(S'also'
p2395
S'called'
p2396
S'was'
p2397
tp2398
F0.0006693440428380187
s(S'lists'
p2399
g653
g654
tp2400
F0.0013386880856760374
s(S'[[pro]]'
p2401
S'wrote'
p2402
S'to'
p2403
tp2404
F0.0006693440428380187
s(S'also'
p2405
S'wrote'
p2406
S'to'
p2407
tp2408
F0.0006693440428380187
s(S'who'
p2409
S'introduced'
p2410
S'[[pro]]'
p2411
tp2412
F0.0006693440428380187
s(S'[[con]]'
p2413
S'founded'
p2414
S'for'
p2415
tp2416
F0.0006693440428380187
s(S'was'
p2417
S'taught'
p2418
S'[[con]]'
p2419
tp2420
F0.0006693440428380187
s(g1100
g1101
g1193
tp2421
F0.0006693440428380187
s(S'first'
p2422
S'met'
p2423
S'[[det]]'
p2424
tp2425
F0.0006693440428380187
s(S'who'
p2426
S'studied'
p2427
S'with'
p2428
tp2429
F0.0006693440428380187
s(S'was'
p2430
S'called'
p2431
S'[[con]]'
p2432
tp2433
F0.0006693440428380187
s(S'were'
p2434
S'known'
p2435
S'as'
p2436
tp2437
F0.0006693440428380187
s(S'also'
p2438
S'worked'
p2439
S'[[con]]'
p2440
tp2441
F0.0006693440428380187
s(S'has'
p2442
S'worked'
p2443
S'with'
p2444
tp2445
F0.0006693440428380187
s(S'[[prp]]'
p2446
S'work'
p2447
S'in'
p2448
tp2449
F0.0006693440428380187
s(S'had'
p2450
S'said'
p2451
S'about'
p2452
tp2453
F0.0006693440428380187
s(S'[[adj]]'
p2454
S'friend'
p2455
S'with'
p2456
tp2457
F0.0006693440428380187
s(S'have'
p2458
S'met'
p2459
S'with'
p2460
tp2461
F0.0006693440428380187
s(S'was'
p2462
S'taught'
p2463
S'by'
p2464
tp2465
F0.0006693440428380187
s(S'also'
p2466
S'mentions'
p2467
S'that'
p2468
tp2469
F0.0006693440428380187
s(S'also'
p2470
S'mentions'
p2471
S'[[det]]'
p2472
tp2473
F0.0006693440428380187
s(S'is'
p2474
S'called'
p2475
S'[[con]]'
p2476
tp2477
F0.0006693440428380187
s(S'also'
p2478
S'taught'
p2479
S'by'
p2480
tp2481
F0.0006693440428380187
s(S'also'
p2482
S'appears'
p2483
S'on'
p2484
tp2485
F0.0006693440428380187
s(S'by'
p2486
S'[[det]]'
p2487
S'works'
p2488
tp2489
F0.0033467202141900937
s(S'has'
p2490
S'compared'
p2491
S'[[det]]'
p2492
tp2493
F0.0006693440428380187
s(S'been'
p2494
S'called'
p2495
S'by'
p2496
tp2497
F0.0006693440428380187
s(g2126
g2127
S'with'
p2498
tp2499
F0.0006693440428380187
s(S'to'
p2500
S'know'
p2501
S'[[det]]'
p2502
tp2503
F0.0006693440428380187
s(S'studied'
p2504
S'mathematics'
p2505
S'[[con]]'
p2506
tp2507
F0.0006693440428380187
s(S'is'
p2508
S'mentioned'
p2509
S'as'
p2510
tp2511
F0.0006693440428380187
s(S'been'
p2512
S'referred'
p2513
S'to'
p2514
tp2515
F0.0006693440428380187
s(g2351
g2352
S'philosophy'
p2516
tp2517
F0.0006693440428380187
s(S'[[num]]'
p2518
S'written'
p2519
S'by'
p2520
tp2521
F0.0006693440428380187
s(S'was'
p2522
S'mentioned'
p2523
S'by'
p2524
tp2525
F0.0006693440428380187
s(S'[[pro]]'
p2526
S'appears'
p2527
S'in'
p2528
tp2529
F0.0006693440428380187
s(S'[[mod]]'
p2530
S'use'
p2531
S'as'
p2532
tp2533
F0.0006693440428380187
s(S'mostly'
p2534
S'known'
p2535
S'as'
p2536
tp2537
F0.0006693440428380187
s(S'also'
p2538
S'served'
p2539
S'after'
p2540
tp2541
F0.0006693440428380187
s(S'was'
p2542
S'known'
p2543
S'after'
p2544
tp2545
F0.0006693440428380187
s(S'also'
p2546
S'written'
p2547
S'[[det]]'
p2548
tp2549
F0.0006693440428380187
s(S'also'
p2550
S'influenced'
p2551
S'as'
p2552
tp2553
F0.0006693440428380187
s(S'well'
p2554
S'acquainted'
p2555
S'with'
p2556
tp2557
F0.0006693440428380187
s(S'also'
p2558
S'served'
p2559
S'to'
p2560
tp2561
F0.0006693440428380187
s(S'translated'
p2562
S'works'
p2563
S'by'
p2564
tp2565
F0.0013386880856760374
s(S'who'
p2566
S'worked'
p2567
S'with'
p2568
tp2569
F0.0006693440428380187
s(S'was'
p2570
S'founded'
p2571
S'together'
p2572
tp2573
F0.0006693440428380187
s(S'[[det]]'
p2574
S'friend'
p2575
S'as'
p2576
tp2577
F0.0006693440428380187
s(S'also'
p2578
S'mentions'
p2579
S'in'
p2580
tp2581
F0.0006693440428380187
s(S'ref'
p2582
S'gt'
p2583
S'part'
p2584
tp2585
F0.0006693440428380187
s(g129
S'influence'
p2586
S'with'
p2587
tp2588
F0.0006693440428380187
s(S'[[pro]]'
p2589
S'did'
p2590
S'[[con]]'
p2591
tp2592
F0.0006693440428380187
s(S'as'
p2593
S'works'
p2594
S'from'
p2595
tp2596
F0.0006693440428380187
s(S'had'
p2597
S'published'
p2598
S'[[prp]]'
p2599
tp2600
F0.0006693440428380187
s(S'also'
p2601
S'wrote'
p2602
S'on'
p2603
tp2604
F0.0006693440428380187
s(S'had'
p2605
S'suggested'
p2606
S'that'
p2607
tp2608
F0.0006693440428380187
s(g129
S'works'
p2609
S'[[con]]'
p2610
tp2611
F0.0006693440428380187
s(S'of'
p2612
S'known'
p2613
S'as'
p2614
tp2615
F0.0006693440428380187
s(S'also'
p2616
g1674
g1675
tp2617
F0.0006693440428380187
s(S'was'
p2618
S'used'
p2619
S'when'
p2620
tp2621
F0.0006693440428380187
s(S'is'
p2622
S'referred'
p2623
S'to'
p2624
tp2625
F0.0006693440428380187
s(S'also'
p2626
S'said'
p2627
S'that'
p2628
tp2629
F0.0006693440428380187
s(S'had'
p2630
S'joined'
p2631
S'[[con]]'
p2632
tp2633
F0.0006693440428380187
s(S'was'
p2634
S'joined'
p2635
S'at'
p2636
tp2637
F0.0006693440428380187
s(S'then'
p2638
S'worked'
p2639
S'with'
p2640
tp2641
F0.0006693440428380187
s(S'also'
p2642
S'called'
p2643
S'out'
p2644
tp2645
F0.0006693440428380187
s(S'to'
p2646
S'work'
p2647
S'among'
p2648
tp2649
F0.0006693440428380187
s(S'[[con]]'
p2650
S'works'
p2651
S'by'
p2652
tp2653
F0.0006693440428380187
s(S'first'
p2654
S'met'
p2655
S'at'
p2656
tp2657
F0.0006693440428380187
s(S'[[prp]]'
p2658
S'guitar'
p2659
S'technique'
p2660
tp2661
F0.0006693440428380187
s(S'[[con]]'
p2662
S'work'
p2663
S'on'
p2664
tp2665
F0.0006693440428380187
s(S'also'
p2666
S'known'
p2667
S'with'
p2668
tp2669
F0.0006693440428380187
s(S'also'
p2670
S'came'
p2671
S'up'
p2672
tp2673
F0.0006693440428380187
s(S'has'
p2674
S'called'
p2675
S'[[det]]'
p2676
tp2677
F0.0006693440428380187
s(S'[[det]]'
p2678
S'father'
p2679
S'when'
p2680
tp2681
F0.0006693440428380187
s(g1886
g2326
S'stage'
p2682
tp2683
F0.0006693440428380187
s(S'[[con]]'
p2684
S'served'
p2685
S'where'
p2686
tp2687
F0.0006693440428380187
s(S'[[det]]'
p2688
S'based'
p2689
S'on'
p2690
tp2691
F0.0006693440428380187
s(S'[[con]]'
p2692
S'served'
p2693
S'to'
p2694
tp2695
F0.0006693440428380187
s(S'had'
p2696
S'written'
p2697
S'for'
p2698
tp2699
F0.0006693440428380187
s(S'first'
p2700
S'appeared'
p2701
S'with'
p2702
tp2703
F0.0006693440428380187
s(S'then'
p2704
S'joined'
p2705
S'with'
p2706
tp2707
F0.0006693440428380187
s(S'well'
p2708
S'known'
p2709
S'for'
p2710
tp2711
F0.0006693440428380187
s(S'[[adj]]'
p2712
S'attacks'
p2713
S'on'
p2714
tp2715
F0.0006693440428380187
s(S'best'
p2716
S'known'
p2717
S'with'
p2718
tp2719
F0.0006693440428380187
s(S'later'
p2720
S'joined'
p2721
S'with'
p2722
tp2723
F0.0006693440428380187
s(S'again'
p2724
S'served'
p2725
S'as'
p2726
tp2727
F0.0006693440428380187
s(g129
S'study'
p2728
S'of'
p2729
tp2730
F0.0006693440428380187
s(S'[[adj]]'
p2731
S'relationship'
p2732
S'with'
p2733
tp2734
F0.0006693440428380187
s(S'when'
p2735
S'served'
p2736
S'as'
p2737
tp2738
F0.0006693440428380187
s(S'also'
p2739
S'wrote'
p2740
S'of'
p2741
tp2742
F0.0006693440428380187
s(S'formed'
p2743
g733
g734
tp2744
F0.0013386880856760374
s(S'was'
p2745
S'influenced'
p2746
S'[[con]]'
p2747
tp2748
F0.0013386880856760374
s(S'was'
p2749
S'known'
p2750
S'while'
p2751
tp2752
F0.0006693440428380187
s(S'had'
p2753
S'written'
p2754
S'about'
p2755
tp2756
F0.0006693440428380187
s(S'[[det]]'
p2757
S'student'
p2758
S'[[det]]'
p2759
tp2760
F0.0006693440428380187
s(S'also'
p2761
S'studied'
p2762
S'[[det]]'
p2763
tp2764
F0.0013386880856760374
s(S'[[det]]'
p2765
S'house'
p2766
S'with'
p2767
tp2768
F0.0006693440428380187
s(S'also'
p2769
S'translated'
p2770
S'[[num]]'
p2771
tp2772
F0.0006693440428380187
s(S'became'
p2773
S'acquainted'
p2774
S'with'
p2775
tp2776
F0.0006693440428380187
s(S'was'
p2777
S'introduced'
p2778
S'by'
p2779
tp2780
F0.0006693440428380187
s(S'visited'
p2781
S'[[con]]'
p2782
S'met'
p2783
tp2784
F0.002008032128514056
s(S'is'
p2785
S'mentioned'
p2786
S'in'
p2787
tp2788
F0.0006693440428380187
s(S'[[det]]'
p2789
S'student'
p2790
S'of'
p2791
tp2792
F0.0006693440428380187
s(S'was'
p2793
S'referred'
p2794
S'to'
p2795
tp2796
F0.0006693440428380187
s(S'became'
p2797
S'known'
p2798
S'when'
p2799
tp2800
F0.0006693440428380187
s(S'later'
p2801
S'came'
p2802
S'with'
p2803
tp2804
F0.0006693440428380187
s(S'[[con]]'
p2805
S'came'
p2806
S'with'
p2807
tp2808
F0.0006693440428380187
s(S'[[det]]'
p2809
S'influence'
p2810
S'[[con]]'
p2811
tp2812
F0.0013386880856760374
s(S'gt'
p2813
S'p'
p2814
S'[[adj]]'
p2815
tp2816
F0.0006693440428380187
s(S'later'
p2817
S'studied'
p2818
S'with'
p2819
tp2820
F0.0006693440428380187
s(S'to'
p2821
S'use'
p2822
S'to'
p2823
tp2824
F0.0006693440428380187
s(S'has'
p2825
S'served'
p2826
S'by'
p2827
tp2828
F0.0006693440428380187
s(S'as'
p2829
S'wrote'
p2830
S'to'
p2831
tp2832
F0.0006693440428380187
s(S'also'
p2833
S'written'
p2834
S'about'
p2835
tp2836
F0.0006693440428380187
s(S'was'
p2837
S'known'
p2838
S'especially'
p2839
tp2840
F0.0006693440428380187
s(g1938
g1939
S'[[adj]]'
p2841
tp2842
F0.0006693440428380187
s(g129
S'work'
p2843
S'as'
p2844
tp2845
F0.0006693440428380187
s(S'[[pro]]'
p2846
S'said'
p2847
S'that'
p2848
tp2849
F0.0006693440428380187
s(S'was'
p2850
S'actually'
p2851
S'[[adj]]'
p2852
tp2853
F0.0006693440428380187
s(S'[[num]]'
p2854
S'ref'
p2855
S'gt'
p2856
tp2857
F0.0006693440428380187
s(S'has'
p2858
S'referred'
p2859
S'as'
p2860
tp2861
F0.0006693440428380187
s(S'translated'
p2862
g641
g642
tp2863
F0.0006693440428380187
s(S'was'
p2864
S'known'
p2865
S'being'
p2866
tp2867
F0.0006693440428380187
s(g611
g612
S'[[con]]'
p2868
tp2869
F0.0006693440428380187
s(S'[[mod]]'
p2870
S'study'
p2871
S'with'
p2872
tp2873
F0.0006693440428380187
s(S'is'
p2874
S'known'
p2875
S'of'
p2876
tp2877
F0.0006693440428380187
s(S'once'
p2878
S'served'
p2879
S'as'
p2880
tp2881
F0.0006693440428380187
s(S'[[adj]]'
p2882
S'friend'
p2883
S'[[det]]'
p2884
tp2885
F0.0006693440428380187
s(S'also'
p2886
S'used'
p2887
S'[[con]]'
p2888
tp2889
F0.0006693440428380187
s(S'[[con]]'
p2890
S'believed'
p2891
S'to'
p2892
tp2893
F0.0006693440428380187
s(S'also'
p2894
S'worked'
p2895
S'where'
p2896
tp2897
F0.0006693440428380187
s(S'later'
p2898
S'followed'
p2899
S'by'
p2900
tp2901
F0.0006693440428380187
s(S'came'
p2902
g2206
g2207
tp2903
F0.002008032128514056
s(S'[[adj]]'
p2904
S'known'
p2905
S'as'
p2906
tp2907
F0.0006693440428380187
s(S'have'
p2908
S'written'
p2909
S'[[det]]'
p2910
tp2911
F0.0006693440428380187
s(S'was'
p2912
S'known'
p2913
S'[[adj]]'
p2914
tp2915
F0.0006693440428380187
s(S'also'
p2916
S'heavily'
p2917
S'influenced'
p2918
tp2919
F0.0006693440428380187
s(S'first'
p2920
S'appeared'
p2921
S'[[con]]'
p2922
tp2923
F0.0006693440428380187
s(S'well'
p2924
S'known'
p2925
S'with'
p2926
tp2927
F0.0006693440428380187
s(S'also'
p2928
S'works'
p2929
S'with'
p2930
tp2931
F0.0006693440428380187
s(g129
S'father'
p2932
S'who'
p2933
tp2934
F0.0006693440428380187
s(S'became'
p2935
S'acquainted'
p2936
S'[[con]]'
p2937
tp2938
F0.0006693440428380187
s(S'was'
p2939
S'noted'
p2940
S'by'
p2941
tp2942
F0.0006693440428380187
s(g2244
g2245
S'work'
p2943
tp2944
F0.0006693440428380187
s(S'[[num]]'
p2945
S'known'
p2946
S'as'
p2947
tp2948
F0.0006693440428380187
s(S'[[con]]'
p2949
S'father'
p2950
S'of'
p2951
tp2952
F0.0006693440428380187
s(S'had'
p2953
S'served'
p2954
S'on'
p2955
tp2956
F0.0006693440428380187
s(S'[[adj]]'
p2957
S'writer'
p2958
S'to'
p2959
tp2960
F0.0006693440428380187
s(S'also'
p2961
S'appears'
p2962
S'[[num]]'
p2963
tp2964
F0.0006693440428380187
s(S'also'
p2965
S'known'
p2966
S'to'
p2967
tp2968
F0.0006693440428380187
s(S'well'
p2969
S'known'
p2970
S'especially'
p2971
tp2972
F0.0006693440428380187
s(S'since'
p2973
S'appeared'
p2974
S'by'
p2975
tp2976
F0.0006693440428380187
s(S'also'
p2977
S'called'
p2978
S'[[det]]'
p2979
tp2980
F0.0006693440428380187
s(S'who'
p2981
S'introduced'
p2982
S'to'
p2983
tp2984
F0.0006693440428380187
s(S'has'
p2985
S'written'
p2986
S'by'
p2987
tp2988
F0.0006693440428380187
s(g129
S'followed'
p2989
S'by'
p2990
tp2991
F0.0006693440428380187
s(S'[[det]]'
p2992
S'teacher'
p2993
S'to'
p2994
tp2995
F0.0006693440428380187
s(S'who'
p2996
S'said'
p2997
S'that'
p2998
tp2999
F0.0006693440428380187
s(S'had'
p3000
S'developed'
p3001
S'with'
p3002
tp3003
F0.0006693440428380187
s(S'was'
p3004
S'compared'
p3005
S'to'
p3006
tp3007
F0.0006693440428380187
s(S'has'
p3008
S'studied'
p3009
S'[[con]]'
p3010
tp3011
F0.0006693440428380187
s(S'often'
p3012
S'called'
p3013
S'[[det]]'
p3014
tp3015
F0.0006693440428380187
s(g2682
g1650
g1651
tp3016
F0.0006693440428380187
s(S'what'
p3017
S'called'
p3018
S'[[det]]'
p3019
tp3020
F0.0006693440428380187
s(S'[[adj]]'
p3021
S'friend'
p3022
S'of'
p3023
tp3024
F0.0006693440428380187
s(S'[[con]]'
p3025
S'worked'
p3026
S'[[prp]]'
p3027
tp3028
F0.0006693440428380187
s(S'is'
p3029
S'known'
p3030
S'though'
p3031
tp3032
F0.0006693440428380187
s(S'often'
p3033
S'compared'
p3034
S'with'
p3035
tp3036
F0.0006693440428380187
s(S'also'
p3037
S'noted'
p3038
S'by'
p3039
tp3040
F0.0006693440428380187
s(S'is'
p3041
S'known'
p3042
S'from'
p3043
tp3044
F0.0006693440428380187
s(S'where'
p3045
S'met'
p3046
S'with'
p3047
tp3048
F0.0013386880856760374
s(S'later'
p3049
S'wrote'
p3050
S'while'
p3051
tp3052
F0.0006693440428380187
s(S'[[adj]]'
p3053
S'follower'
p3054
S'of'
p3055
tp3056
F0.0006693440428380187
s(S'is'
p3057
S'noted'
p3058
S'by'
p3059
tp3060
F0.0006693440428380187
s(S'to'
p3061
S'learn'
p3062
S'more'
p3063
tp3064
F0.0006693440428380187
s(S'[[adj]]'
p3065
S'published'
p3066
S'as'
p3067
tp3068
F0.0006693440428380187
s(S'has'
p3069
S'written'
p3070
S'[[num]]'
p3071
tp3072
F0.0006693440428380187
s(S'had'
p3073
S'worked'
p3074
S'before'
p3075
tp3076
F0.0006693440428380187
s(S'was'
p3077
S'called'
p3078
S'upon'
p3079
tp3080
F0.0006693440428380187
s(g2352
g2516
S'of'
p3081
tp3082
F0.0006693440428380187
s(S'had'
p3083
S'said'
p3084
S'to'
p3085
tp3086
F0.0006693440428380187
s(S'was'
p3087
S'inspired'
p3088
S'[[con]]'
p3089
tp3090
F0.0006693440428380187
s(S'also'
p3091
S'written'
p3092
S'on'
p3093
tp3094
F0.0006693440428380187
s(S'[[det]]'
p3095
S'mentioned'
p3096
S'by'
p3097
tp3098
F0.0006693440428380187
s(S'also'
p3099
S'believed'
p3100
S'that'
p3101
tp3102
F0.0006693440428380187
s(S'was'
p3103
S'met'
p3104
S'by'
p3105
tp3106
F0.0006693440428380187
s(S'acknowledges'
p3107
S'[[det]]'
p3108
S'influence'
p3109
tp3110
F0.0006693440428380187
s(S'[[adj]]'
p3111
g1392
g1393
tp3112
F0.01740294511378849
s(S'then'
p3113
S'came'
p3114
S'out'
p3115
tp3116
F0.0006693440428380187
s(S'[[adj]]'
p3117
S'friend'
p3118
S'[[con]]'
p3119
tp3120
F0.0006693440428380187
s(S'then'
p3121
S'called'
p3122
S'as'
p3123
tp3124
F0.0006693440428380187
s(S'[[det]]'
p3125
S'relationship'
p3126
S'between'
p3127
tp3128
F0.0006693440428380187
s(g2326
g2682
g1650
tp3129
F0.0006693440428380187
s(S'[[det]]'
p3130
S'use'
p3131
S'of'
p3132
tp3133
F0.0006693440428380187
s(S'was'
p3134
S'noted'
p3135
S'for'
p3136
tp3137
F0.0006693440428380187
s(S'to'
p3138
S'work'
p3139
S'[[num]]'
p3140
tp3141
F0.0006693440428380187
s(S'was'
p3142
S'said'
p3143
S'that'
p3144
tp3145
F0.0006693440428380187
s(S'has'
p3146
S'mentioned'
p3147
S'that'
p3148
tp3149
F0.0006693440428380187
s(S'[[con]]'
p3150
S'called'
p3151
S'[[det]]'
p3152
tp3153
F0.0006693440428380187
s(S'[[adj]]'
p3154
S'student'
p3155
S'[[con]]'
p3156
tp3157
F0.0006693440428380187
s(S'not'
p3158
S'known'
p3159
S'to'
p3160
tp3161
F0.0006693440428380187
s(S'[[con]]'
p3162
S'did'
p3163
S'[[det]]'
p3164
tp3165
F0.0006693440428380187
s(S'was'
p3166
S'visited'
p3167
S'[[con]]'
p3168
tp3169
F0.0006693440428380187
s(S'also'
p3170
S'wrote'
p3171
S'about'
p3172
tp3173
F0.0006693440428380187
s(S'been'
p3174
S'called'
p3175
S'up'
p3176
tp3177
F0.0006693440428380187
s(S'[[det]]'
p3178
S'father'
p3179
S'[[num]]'
p3180
tp3181
F0.0006693440428380187
s(S'was'
p3182
S'heavily'
p3183
S'influenced'
p3184
tp3185
F0.0013386880856760374
s(S'[[con]]'
p3186
S'appeared'
p3187
S'for'
p3188
tp3189
F0.0006693440428380187
s(S'had'
p3190
S'worked'
p3191
S'with'
p3192
tp3193
F0.0006693440428380187
s(S'later'
p3194
S'introduced'
p3195
S'to'
p3196
tp3197
F0.0006693440428380187
s(S'to'
p3198
S'learn'
p3199
S'that'
p3200
tp3201
F0.0006693440428380187
s(S'since'
p3202
S'worked'
p3203
S'with'
p3204
tp3205
F0.0006693440428380187
s(S'[[adj]]'
p3206
S'student'
p3207
S'of'
p3208
tp3209
F0.0006693440428380187
s(S'been'
p3210
S'compared'
p3211
S'to'
p3212
tp3213
F0.0006693440428380187
s(g129
S'father'
p3214
S'[[num]]'
p3215
tp3216
F0.0006693440428380187
s(S'also'
p3217
S'appeared'
p3218
S'with'
p3219
tp3220
F0.0006693440428380187
s(S'has'
p3221
S'worked'
p3222
S'along'
p3223
tp3224
F0.0006693440428380187
s(S'also'
p3225
g41
g42
tp3226
F0.0006693440428380187
s(S'had'
p3227
S'used'
p3228
S'[[det]]'
p3229
tp3230
F0.0006693440428380187
s(S'to'
p3231
S'read'
p3232
S'[[det]]'
p3233
tp3234
F0.0006693440428380187
s(S'has'
p3235
S'appeared'
p3236
S'with'
p3237
tp3238
F0.0006693440428380187
s(g129
S'translation'
p3239
S'of'
p3240
tp3241
F0.0006693440428380187
s(S'soon'
p3242
S'joined'
p3243
S'by'
p3244
tp3245
F0.0006693440428380187
s(S'be'
p3246
S'mentioned'
p3247
S'by'
p3248
tp3249
F0.0006693440428380187
s(S'[[det]]'
p3250
S'served'
p3251
S'as'
p3252
tp3253
F0.0006693440428380187
s(S'[[det]]'
p3254
S'associate'
p3255
S'in'
p3256
tp3257
F0.0006693440428380187
s(S'was'
p3258
S'acknowledged'
p3259
S'as'
p3260
tp3261
F0.0006693440428380187
s(g129
S'work'
p3262
S'which'
p3263
tp3264
F0.0006693440428380187
s(S'was'
p3265
S'buried'
p3266
S'near'
p3267
tp3268
F0.0006693440428380187
s(S'is'
p3269
S'mentioned'
p3270
S'by'
p3271
tp3272
F0.0006693440428380187
s(S'[[adj]]'
p3273
S'associate'
p3274
S'of'
p3275
tp3276
F0.0006693440428380187
s(S'[[num]]'
p3277
S'based'
p3278
S'by'
p3279
tp3280
F0.0006693440428380187
s(S'is'
p3281
S'introduced'
p3282
S'by'
p3283
tp3284
F0.0006693440428380187
s(S'[[num]]'
p3285
S'works'
p3286
S'of'
p3287
tp3288
F0.0006693440428380187
s(S'also'
p3289
S'served'
p3290
S'[[con]]'
p3291
tp3292
F0.0006693440428380187
s(S'also'
p3293
S'appears'
p3294
S'by'
p3295
tp3296
F0.0006693440428380187
s(S'[[det]]'
p3297
S'work'
p3298
S'by'
p3299
tp3300
F0.0006693440428380187
s(S'was'
p3301
S'compared'
p3302
S'with'
p3303
tp3304
F0.0006693440428380187
s(S'is'
p3305
S'known'
p3306
S'although'
p3307
tp3308
F0.0006693440428380187
s(g129
S'father'
p3309
S'to'
p3310
tp3311
F0.0006693440428380187
s(S'had'
p3312
S'used'
p3313
S'to'
p3314
tp3315
F0.0006693440428380187
s(S'[[adj]]'
p3316
S'colleague'
p3317
S'of'
p3318
tp3319
F0.0006693440428380187
s(S'being'
p3320
S'called'
p3321
S'of'
p3322
tp3323
F0.0006693440428380187
s(S'soon'
p3324
S'came'
p3325
S'with'
p3326
tp3327
F0.0006693440428380187
s(S'not'
p3328
S'know'
p3329
S'that'
p3330
tp3331
F0.0006693440428380187
s(S'[[con]]'
p3332
S'wrote'
p3333
S'to'
p3334
tp3335
F0.0006693440428380187
s(g2268
g2269
S'in'
p3336
tp3337
F0.0006693440428380187
s(S'often'
p3338
S'said'
p3339
S'that'
p3340
tp3341
F0.0006693440428380187
s(S'[[num]]'
p3342
S'translated'
p3343
S'by'
p3344
tp3345
F0.0006693440428380187
s(S'also'
p3346
S'translated'
p3347
S'by'
p3348
tp3349
F0.0006693440428380187
s(S'sometimes'
p3350
S'referred'
p3351
S'as'
p3352
tp3353
F0.0006693440428380187
s(S'also'
p3354
S'met'
p3355
S'with'
p3356
tp3357
F0.0006693440428380187
s(S'has'
p3358
S'compared'
p3359
S'[[prp]]'
p3360
tp3361
F0.0006693440428380187
s(S'ref'
p3362
S'name'
p3363
S'[[num]]'
p3364
tp3365
F0.0013386880856760374
s(S'discovered'
p3366
S'[[det]]'
p3367
S'work'
p3368
tp3369
F0.0006693440428380187
s(S'also'
p3370
S'wrote'
p3371
S'as'
p3372
tp3373
F0.0006693440428380187
s(S'[[det]]'
p3374
S'translation'
p3375
S'by'
p3376
tp3377
F0.0006693440428380187
s(S'then'
p3378
S'joined'
p3379
S'along'
p3380
tp3381
F0.0006693440428380187
s(S'become'
p3382
S'known'
p3383
S'as'
p3384
tp3385
F0.0006693440428380187
s(S'been'
p3386
S'compared'
p3387
S'with'
p3388
tp3389
F0.0006693440428380187
s(g1130
g2267
g2268
tp3390
F0.0006693440428380187
s(S'[[det]]'
p3391
S'translator'
p3392
S'[[con]]'
p3393
tp3394
F0.0006693440428380187
s(S'[[pro]]'
p3395
S'called'
p3396
S'[[det]]'
p3397
tp3398
F0.0006693440428380187
s(S'was'
p3399
S'translated'
p3400
S'[[con]]'
p3401
tp3402
F0.0006693440428380187
s(S'was'
p3403
S'writing'
p3404
S'to'
p3405
tp3406
F0.0006693440428380187
s(S'well'
p3407
S'known'
p3408
S'as'
p3409
tp3410
F0.0006693440428380187
s(S'often'
p3411
S'referred'
p3412
S'to'
p3413
tp3414
F0.0006693440428380187
s(S'mainly'
p3415
S'used'
p3416
S'to'
p3417
tp3418
F0.0006693440428380187
s(S'lists'
p3419
g729
g730
tp3420
F0.0006693440428380187
s(S'then'
p3421
S'worked'
p3422
S'from'
p3423
tp3424
F0.0006693440428380187
s(S'had'
p3425
S'known'
p3426
S'since'
p3427
tp3428
F0.0006693440428380187
s(S'also'
p3429
g2862
g641
tp3430
F0.002008032128514056
s(S'by'
p3431
S'[[det]]'
p3432
S'work'
p3433
tp3434
F0.002008032128514056
s(S'not'
p3435
S'mentioned'
p3436
S'in'
p3437
tp3438
F0.0006693440428380187
s(S'[[det]]'
p3439
S'fan'
p3440
S'of'
p3441
tp3442
F0.0006693440428380187
s(S'also'
p3443
S'met'
p3444
S'[[det]]'
p3445
tp3446
F0.0006693440428380187
s(S'is'
p3447
S'noted'
p3448
S'for'
p3449
tp3450
F0.0006693440428380187
s(S'best'
p3451
S'known'
p3452
S'being'
p3453
tp3454
F0.0006693440428380187
s(S'was'
p3455
S'friend'
p3456
S'with'
p3457
tp3458
F0.0006693440428380187
s(S'is'
p3459
S'heavily'
p3460
S'influenced'
p3461
tp3462
F0.0006693440428380187
s(S'is'
p3463
S'called'
p3464
S'as'
p3465
tp3466
F0.0006693440428380187
s(S'to'
p3467
S'work'
p3468
S'after'
p3469
tp3470
F0.0006693440428380187
s(S'be'
p3471
S'known'
p3472
S'that'
p3473
tp3474
F0.0006693440428380187
s(S'[[adj]]'
p3475
S'assistant'
p3476
S'of'
p3477
tp3478
F0.0006693440428380187
s(S'has'
p3479
S'met'
p3480
S'[[con]]'
p3481
tp3482
F0.0006693440428380187
s(S'have'
p3483
S'studied'
p3484
S'under'
p3485
tp3486
F0.0006693440428380187
s(S'was'
p3487
S'joined'
p3488
S'by'
p3489
tp3490
F0.0006693440428380187
s(S'to'
p3491
S'work'
p3492
S'where'
p3493
tp3494
F0.0006693440428380187
s(S'[[adj]]'
p3495
S'met'
p3496
S'while'
p3497
tp3498
F0.0006693440428380187
s(S'have'
p3499
S'worked'
p3500
S'under'
p3501
tp3502
F0.0006693440428380187
s(g730
g731
S'as'
p3503
tp3504
F0.0006693440428380187
s(S'[[con]]'
p3505
S'translated'
p3506
S'by'
p3507
tp3508
F0.0006693440428380187
s(S'was'
p3509
S'called'
p3510
S'as'
p3511
tp3512
F0.0006693440428380187
s(S'was'
p3513
g2222
g2223
tp3514
F0.0013386880856760374
s(S'became'
p3515
S'assistant'
p3516
S'[[con]]'
p3517
tp3518
F0.0006693440428380187
s(S'was'
p3519
S'known'
p3520
S'by'
p3521
tp3522
F0.0006693440428380187
s(S'is'
p3523
S'buried'
p3524
S'[[adj]]'
p3525
tp3526
F0.0006693440428380187
s(S'in'
p3527
S'writing'
p3528
S'to'
p3529
tp3530
F0.0006693440428380187
s(S'[[det]]'
p3531
S'teacher'
p3532
S'[[det]]'
p3533
tp3534
F0.0006693440428380187
s(S'to'
p3535
S'know'
p3536
S'[[adj]]'
p3537
tp3538
F0.0006693440428380187
s(S'were'
p3539
S'influenced'
p3540
S'by'
p3541
tp3542
F0.0006693440428380187
s(S'which'
p3543
S'founded'
p3544
S'with'
p3545
tp3546
F0.0006693440428380187
s(S'was'
p3547
S'inspired'
p3548
S'in'
p3549
tp3550
F0.0006693440428380187
s(S'[[con]]'
p3551
S'based'
p3552
S'on'
p3553
tp3554
F0.0006693440428380187
s(g330
g331
g2238
tp3555
F0.0006693440428380187
s(S'[[prp]]'
p3556
S'friend'
p3557
S'[[con]]'
p3558
tp3559
F0.0006693440428380187
s(S'also'
p3560
S'appeared'
p3561
S'where'
p3562
tp3563
F0.0006693440428380187
s(S'[[adj]]'
p3564
S'works'
p3565
S'in'
p3566
tp3567
F0.0006693440428380187
s(S'particularly'
p3568
S'known'
p3569
S'in'
p3570
tp3571
F0.0006693440428380187
s(S'had'
p3572
S'suggested'
p3573
S'to'
p3574
tp3575
F0.0006693440428380187
s(S'name'
p3576
S'gt'
p3577
S'while'
p3578
tp3579
F0.0006693440428380187
s(S'have'
p3580
S'worked'
p3581
S'with'
p3582
tp3583
F0.0006693440428380187
s(S'had'
p3584
S'founded'
p3585
S'with'
p3586
tp3587
F0.0006693440428380187
s(S'best'
p3588
S'known'
p3589
S'by'
p3590
tp3591
F0.0006693440428380187
s(S'[[adj]]'
p3592
S'friend'
p3593
S'in'
p3594
tp3595
F0.0006693440428380187
s(S'[[adj]]'
p3596
S'friendship'
p3597
S'with'
p3598
tp3599
F0.0006693440428380187
s(S'been'
p3600
S'writing'
p3601
S'with'
p3602
tp3603
F0.0006693440428380187
s(S'mostly'
p3604
S'known'
p3605
S'for'
p3606
tp3607
F0.0006693440428380187
s(S'then'
p3608
S'introduced'
p3609
S'to'
p3610
tp3611
F0.0006693440428380187
s(S'had'
p3612
S'joined'
p3613
S'with'
p3614
tp3615
F0.0006693440428380187
s(S'had'
p3616
S'written'
p3617
S'with'
p3618
tp3619
F0.0006693440428380187
s(S'has'
p3620
S'referred'
p3621
S'to'
p3622
tp3623
F0.0006693440428380187
s(S'also'
p3624
S'founded'
p3625
S'with'
p3626
tp3627
F0.0006693440428380187
s(S'been'
p3628
S'translated'
p3629
S'by'
p3630
tp3631
F0.0006693440428380187
s(S'[[adj]]'
p3632
S'copy'
p3633
S'of'
p3634
tp3635
F0.0006693440428380187
s(S'had'
p3636
S'worked'
p3637
S'under'
p3638
tp3639
F0.0006693440428380187
s(S'also'
p3640
S'called'
p3641
S'[[con]]'
p3642
tp3643
F0.0006693440428380187
s(g892
g893
S'of'
p3644
tp3645
F0.0006693440428380187
s(S'has'
p3646
S'said'
p3647
S'that'
p3648
tp3649
F0.0006693440428380187
s(S'has'
p3650
S'worked'
p3651
S'together'
p3652
tp3653
F0.0006693440428380187
s(S'was'
p3654
S'said'
p3655
S'by'
p3656
tp3657
F0.0006693440428380187
s(S'to'
p3658
S'work'
p3659
S'with'
p3660
tp3661
F0.0006693440428380187
s(S'first'
p3662
S'met'
p3663
S'when'
p3664
tp3665
F0.0006693440428380187
s(S'been'
p3666
S'suggested'
p3667
S'that'
p3668
tp3669
F0.0006693440428380187
s(S'[[pro]]'
p3670
S'know'
p3671
S'that'
p3672
tp3673
F0.0006693440428380187
s(S'have'
p3674
S'used'
p3675
S'[[det]]'
p3676
tp3677
F0.0006693440428380187
s(S'to'
p3678
S'[[det]]'
p3679
S'writings'
p3680
tp3681
F0.0006693440428380187
s(S'later'
p3682
S'appeared'
p3683
S'as'
p3684
tp3685
F0.0006693440428380187
s(S'was'
p3686
g1277
g1278
tp3687
F0.0006693440428380187
s(S'[[adj]]'
p3688
S'work'
p3689
S'[[con]]'
p3690
tp3691
F0.0006693440428380187
s(S'[[adj]]'
p3692
S'debt'
p3693
S'to'
p3694
tp3695
F0.0006693440428380187
s(S'often'
p3696
S'visited'
p3697
S'[[det]]'
p3698
tp3699
F0.0006693440428380187
s(S'[[num]]'
p3700
g2813
g2814
tp3701
F0.0006693440428380187
s(g477
g478
S'[[con]]'
p3702
tp3703
F0.0006693440428380187
s(S'introduced'
p3704
g2287
g2288
tp3705
F0.0006693440428380187
s(S'[[det]]'
p3706
S'friend'
p3707
S'[[det]]'
p3708
tp3709
F0.0006693440428380187
s(S'[[con]]'
p3710
S'said'
p3711
S'of'
p3712
tp3713
F0.0006693440428380187
s(S'is'
p3714
S'met'
p3715
S'by'
p3716
tp3717
F0.0006693440428380187
s(S'that'
p3718
S'called'
p3719
S'[[det]]'
p3720
tp3721
F0.0006693440428380187
s(S'however'
p3722
S'did'
p3723
S'not'
p3724
tp3725
F0.0006693440428380187
s(S'then'
p3726
S'wrote'
p3727
S'to'
p3728
tp3729
F0.0006693440428380187
s(S'shared'
p3730
g2765
g2766
tp3731
F0.0006693440428380187
s(S'had'
p3732
S'served'
p3733
S'[[con]]'
p3734
tp3735
F0.0006693440428380187
s(S'[[con]]'
p3736
S'worked'
p3737
S'with'
p3738
tp3739
F0.0006693440428380187
s(S'was'
p3740
S'noted'
p3741
S'to'
p3742
tp3743
F0.0006693440428380187
s(S'then'
p3744
S'joined'
p3745
S'[[con]]'
p3746
tp3747
F0.0006693440428380187
s(S'since'
p3748
S'joined'
p3749
S'with'
p3750
tp3751
F0.0006693440428380187
s(g2269
g3336
g975
tp3752
F0.0006693440428380187
s(S'also'
p3753
S'appears'
p3754
S'to'
p3755
tp3756
F0.0006693440428380187
s(S'was'
p3757
S'written'
p3758
S'out'
p3759
tp3760
F0.0006693440428380187
s(S'been'
p3761
S'accepted'
p3762
S'as'
p3763
tp3764
F0.0006693440428380187
s(g603
g604
S'works'
p3765
tp3766
F0.0006693440428380187
s(S'who'
p3767
S'believed'
p3768
S'that'
p3769
tp3770
F0.0006693440428380187
s(S'[[adj]]'
p3771
S'pupil'
p3772
S'of'
p3773
tp3774
F0.0006693440428380187
s(S'has'
p3775
S'translated'
p3776
S'[[det]]'
p3777
tp3778
F0.0006693440428380187
s(S'was'
p3779
S'buried'
p3780
S'[[adj]]'
p3781
tp3782
F0.0006693440428380187
s(S'[[mod]]'
p3783
S'study'
p3784
S'under'
p3785
tp3786
F0.0006693440428380187
s(S'[[det]]'
p3787
S'father'
p3788
S'in'
p3789
tp3790
F0.0006693440428380187
s(S'have'
p3791
S'met'
p3792
S'[[con]]'
p3793
tp3794
F0.0006693440428380187
s(S'had'
p3795
S'met'
p3796
S'[[con]]'
p3797
tp3798
F0.0006693440428380187
s(S'has'
p3799
S'appeared'
p3800
S'[[con]]'
p3801
tp3802
F0.0006693440428380187
s(S'was'
p3803
S'joined'
p3804
S'as'
p3805
tp3806
F0.0006693440428380187
s(S'then'
p3807
S'said'
p3808
S'that'
p3809
tp3810
F0.0006693440428380187
s(S'has'
p3811
S'worked'
p3812
S'until'
p3813
tp3814
F0.0006693440428380187
s(S'[[con]]'
p3815
S'published'
p3816
S'in'
p3817
tp3818
F0.0006693440428380187
s(S'has'
p3819
S'worked'
p3820
S'[[con]]'
p3821
tp3822
F0.0006693440428380187
s(S'had'
p3823
S'actually'
p3824
S'been'
p3825
tp3826
F0.0006693440428380187
s(S'was'
p3827
S'visited'
p3828
S'by'
p3829
tp3830
F0.0006693440428380187
s(S'where'
p3831
S'works'
p3832
S'with'
p3833
tp3834
F0.0006693440428380187
s(S'then'
p3835
S'served'
p3836
S'as'
p3837
tp3838
F0.0006693440428380187
s(S'also'
p3839
S'suggested'
p3840
S'that'
p3841
tp3842
F0.0006693440428380187
s(S'introduced'
p3843
g3678
g3679
tp3844
F0.0006693440428380187
s(S'was'
p3845
S'translated'
p3846
S'to'
p3847
tp3848
F0.0006693440428380187
s(S'[[num]]'
p3849
S'poems'
p3850
S'by'
p3851
tp3852
F0.0006693440428380187
s(S'ref'
p3853
S'gt'
p3854
S'during'
p3855
tp3856
F0.0006693440428380187
s(S'later'
p3857
S'said'
p3858
S'that'
p3859
tp3860
F0.0006693440428380187
s(S'is'
p3861
S'known'
p3862
S'[[det]]'
p3863
tp3864
F0.0006693440428380187
s(S'[[con]]'
p3865
S'did'
p3866
S'not'
p3867
tp3868
F0.0006693440428380187
s(S'also'
p3869
g1132
g1133
tp3870
F0.0013386880856760374
s(S'had'
p3871
S'developed'
p3872
S'[[det]]'
p3873
tp3874
F0.0006693440428380187
s(S'[[adj]]'
p3875
S'wrote'
p3876
S'to'
p3877
tp3878
F0.0006693440428380187
s(g162
g163
S'works'
p3879
tp3880
F0.0006693440428380187
s(S'[[pro]]'
p3881
S'works'
p3882
S'by'
p3883
tp3884
F0.0006693440428380187
s(S'to'
p3885
S'read'
p3886
S'as'
p3887
tp3888
F0.0006693440428380187
s(S'ref'
p3889
S'gt'
p3890
S'found'
p3891
tp3892
F0.0006693440428380187
s(S'later'
p3893
S'joined'
p3894
S'by'
p3895
tp3896
F0.0006693440428380187
s(g646
g647
S'of'
p3897
tp3898
F0.0006693440428380187
s(S'[[det]]'
p3899
S'worked'
p3900
S'for'
p3901
tp3902
F0.0006693440428380187
s(S'also'
p3903
S'known'
p3904
S'for'
p3905
tp3906
F0.0006693440428380187
s(S'also'
p3907
S'appeared'
p3908
S'[[con]]'
p3909
tp3910
F0.0006693440428380187
s(S'been'
p3911
S'called'
p3912
S'[[adj]]'
p3913
tp3914
F0.0006693440428380187
s(S'is'
p3915
S'introduced'
p3916
S'to'
p3917
tp3918
F0.0006693440428380187
s(S'[[con]]'
p3919
S'wrote'
p3920
S'for'
p3921
tp3922
F0.0006693440428380187
s(S'also'
p3923
S'served'
p3924
S'when'
p3925
tp3926
F0.0006693440428380187
s(S'also'
p3927
S'joined'
p3928
S'[[con]]'
p3929
tp3930
F0.0006693440428380187
s(S'had'
p3931
S'met'
p3932
S'with'
p3933
tp3934
F0.0006693440428380187
s(S'ref'
p3935
S'gt'
p3936
S'of'
p3937
tp3938
F0.0013386880856760374
s(S'was'
p3939
S'based'
p3940
S'as'
p3941
tp3942
F0.0006693440428380187
s(S'[[adj]]'
p3943
S'work'
p3944
S'on'
p3945
tp3946
F0.0006693440428380187
s(S'also'
p3947
S'translated'
p3948
S'[[det]]'
p3949
tp3950
F0.0013386880856760374
s(S'is'
p3951
S'father'
p3952
S'to'
p3953
tp3954
F0.0006693440428380187
s(g129
S'friend'
p3955
S'[[adj]]'
p3956
tp3957
F0.0006693440428380187
s(S'[[det]]'
p3958
S'associate'
p3959
S'with'
p3960
tp3961
F0.0006693440428380187
s(S'also'
p3962
S'met'
p3963
S'from'
p3964
tp3965
F0.0006693440428380187
s(S'be'
p3966
S'compared'
p3967
S'with'
p3968
tp3969
F0.0006693440428380187
s(S'first'
p3970
S'appears'
p3971
S'as'
p3972
tp3973
F0.0006693440428380187
s(S'is'
p3974
S'said'
p3975
S'to'
p3976
tp3977
F0.0006693440428380187
s(S'[[con]]'
p3978
S'said'
p3979
S'to'
p3980
tp3981
F0.0006693440428380187
s(S'has'
p3982
S'worked'
p3983
S'again'
p3984
tp3985
F0.0006693440428380187
s(g3336
g975
g976
tp3986
F0.0006693440428380187
s(S'who'
p3987
S'founded'
p3988
S'[[num]]'
p3989
tp3990
F0.0006693440428380187
s(S'had'
p3991
S'joined'
p3992
S'up'
p3993
tp3994
F0.0006693440428380187
s(S'first'
p3995
S'appeared'
p3996
S'on'
p3997
tp3998
F0.0006693440428380187
s(S'ref'
p3999
S'gt'
p4000
S'had'
p4001
tp4002
F0.0013386880856760374
s(S'also'
p4003
S'translated'
p4004
S'works'
p4005
tp4006
F0.0013386880856760374
s(S'was'
p4007
S'noted'
p4008
S'that'
p4009
tp4010
F0.0006693440428380187
s(S'is'
p4011
S'noted'
p4012
S'in'
p4013
tp4014
F0.0006693440428380187
s(S'was'
p4015
S'followed'
p4016
S'as'
p4017
tp4018
F0.0006693440428380187
s(S'who'
p4019
S'served'
p4020
S'as'
p4021
tp4022
F0.0006693440428380187
s(S'[[det]]'
p4023
S'associate'
p4024
S'of'
p4025
tp4026
F0.0006693440428380187
s(S'was'
p4027
S'mentored'
p4028
S'by'
p4029
tp4030
F0.0006693440428380187
s(S'[[con]]'
p4031
S'suggested'
p4032
S'that'
p4033
tp4034
F0.0006693440428380187
s(S'[[prp]]'
p4035
S'studies'
p4036
S'with'
p4037
tp4038
F0.0006693440428380187
s(S'[[con]]'
p4039
S'said'
p4040
S'[[adj]]'
p4041
tp4042
F0.0006693440428380187
s(S'to'
p4043
S'use'
p4044
S'with'
p4045
tp4046
F0.0006693440428380187
s(S'also'
p4047
S'served'
p4048
S'along'
p4049
tp4050
F0.0006693440428380187
s(S'also'
p4051
S'appeared'
p4052
S'by'
p4053
tp4054
F0.0006693440428380187
s(S'also'
p4055
S'published'
p4056
S'of'
p4057
tp4058
F0.0006693440428380187
s(S'often'
p4059
S'appeared'
p4060
S'on'
p4061
tp4062
F0.0006693440428380187
s(S'has'
p4063
S'worked'
p4064
S'under'
p4065
tp4066
F0.0006693440428380187
s(S'was'
p4067
S'taught'
p4068
S'in'
p4069
tp4070
F0.0006693440428380187
s(S'[[con]]'
p4071
S'work'
p4072
S'with'
p4073
tp4074
F0.0006693440428380187
s(S'also'
p4075
S'served'
p4076
S'[[num]]'
p4077
tp4078
F0.0006693440428380187
s(S'had'
p4079
S'served'
p4080
S'as'
p4081
tp4082
F0.0006693440428380187
s(g3363
g3364
S'gt'
p4083
tp4084
F0.0013386880856760374
s(S'ref'
p4085
S'gt'
p4086
S'on'
p4087
tp4088
F0.0006693440428380187
s(g896
g897
S'by'
p4089
tp4090
F0.002677376171352075
s(S'ref'
p4091
g657
g658
tp4092
F0.0006693440428380187
s(S'[[adj]]'
p4093
S'work'
p4094
S'of'
p4095
tp4096
F0.0013386880856760374
s(S'were'
p4097
S'joined'
p4098
S'by'
p4099
tp4100
F0.0006693440428380187
s(S'was'
p4101
S'called'
p4102
S'after'
p4103
tp4104
F0.0006693440428380187
s(S'had'
p4105
S'used'
p4106
S'[[adj]]'
p4107
tp4108
F0.0006693440428380187
s(S'to'
p4109
S'know'
p4110
S'[[con]]'
p4111
tp4112
F0.0006693440428380187
s(S'[[adj]]'
p4113
S'assistant'
p4114
S'to'
p4115
tp4116
F0.0006693440428380187
s(g129
S'friend'
p4117
S'[[con]]'
p4118
tp4119
F0.0006693440428380187
s(S'once'
p4120
S'called'
p4121
S'[[det]]'
p4122
tp4123
F0.0006693440428380187
s(S'[[adj]]'
p4124
S'appeared'
p4125
S'as'
p4126
tp4127
F0.0006693440428380187
s(S'have'
p4128
S'written'
p4129
S'[[prp]]'
p4130
tp4131
F0.0006693440428380187
s(S'is'
p4132
S'buried'
p4133
S'there'
p4134
tp4135
F0.0006693440428380187
s(S'[[adj]]'
p4136
S'works'
p4137
S'as'
p4138
tp4139
F0.0006693440428380187
s(g888
g889
S'[[det]]'
p4140
tp4141
F0.0006693440428380187
s(S'is'
p4142
S'father'
p4143
S'[[con]]'
p4144
tp4145
F0.0006693440428380187
s(S'[[det]]'
p4146
S'student'
p4147
S'where'
p4148
tp4149
F0.0006693440428380187
s(S'have'
p4150
S'studied'
p4151
S'with'
p4152
tp4153
F0.0006693440428380187
s(S'is'
p4154
S'visited'
p4155
S'by'
p4156
tp4157
F0.0006693440428380187
s(S'then'
p4158
S'worked'
p4159
S'along'
p4160
tp4161
F0.0006693440428380187
s(S'where'
p4162
S'served'
p4163
S'as'
p4164
tp4165
F0.0006693440428380187
s(S'also'
p4166
S'known'
p4167
S'on'
p4168
tp4169
F0.0006693440428380187
s(S'has'
p4170
S'appeared'
p4171
S'[[adj]]'
p4172
tp4173
F0.0006693440428380187
s(S'first'
p4174
S'appeared'
p4175
S'to'
p4176
tp4177
F0.0006693440428380187
s(S'to'
p4178
S'use'
p4179
S'[[prp]]'
p4180
tp4181
F0.0006693440428380187
s(S'has'
p4182
g1768
g1769
tp4183
F0.0006693440428380187
s(S'also'
p4184
S'joined'
p4185
S'as'
p4186
tp4187
F0.0006693440428380187
s(S'[[adj]]'
p4188
S'work'
p4189
S'with'
p4190
tp4191
F0.0006693440428380187
s(S'[[det]]'
p4192
S'relationship'
p4193
S'with'
p4194
tp4195
F0.0006693440428380187
s(g129
S'work'
p4196
S'[[con]]'
p4197
tp4198
F0.0006693440428380187
s(S'was'
p4199
S'called'
p4200
S'on'
p4201
tp4202
F0.0006693440428380187
s(S'as'
p4203
S'joined'
p4204
S'along'
p4205
tp4206
F0.0006693440428380187
s(g1190
g1191
S'works'
p4207
tp4208
F0.002008032128514056
s(S'ref'
p4209
g1144
g1145
tp4210
F0.0006693440428380187
s(S'then'
p4211
S'joined'
p4212
S'under'
p4213
tp4214
F0.0006693440428380187
s(S'was'
p4215
S'influenced'
p4216
S'[[prp]]'
p4217
tp4218
F0.0006693440428380187
s(S'is'
p4219
S'known'
p4220
S'except'
p4221
tp4222
F0.0006693440428380187
s(S'also'
p4223
S'worked'
p4224
S'together'
p4225
tp4226
F0.0006693440428380187
s(S'that'
p4227
S'worked'
p4228
S'along'
p4229
tp4230
F0.0006693440428380187
s(S'studied'
p4231
S'[[adj]]'
p4232
S'philosophy'
p4233
tp4234
F0.0006693440428380187
s(S'has'
p4235
S'called'
p4236
S'[[pro]]'
p4237
tp4238
F0.0006693440428380187
s(g129
S'father'
p4239
S'of'
p4240
tp4241
F0.0006693440428380187
s(S'is'
p4242
S'known'
p4243
S'with'
p4244
tp4245
F0.0006693440428380187
s(S'had'
p4246
S'known'
p4247
S'[[con]]'
p4248
tp4249
F0.0006693440428380187
s(S'[[adj]]'
p4250
S'called'
p4251
S'with'
p4252
tp4253
F0.0006693440428380187
s(S'once'
p4254
S'said'
p4255
S'had'
p4256
tp4257
F0.0006693440428380187
s(S'became'
p4258
S'known'
p4259
S'for'
p4260
tp4261
F0.0006693440428380187
s(S'has'
p4262
S'said'
p4263
S'is'
p4264
tp4265
F0.0006693440428380187
s(S'[[adj]]'
p4266
S'founding'
p4267
S'editor'
p4268
tp4269
F0.0006693440428380187
s(S'also'
p4270
S'introduced'
p4271
S'[[con]]'
p4272
tp4273
F0.0006693440428380187
s(S'[[con]]'
p4274
S'joined'
p4275
S'[[adj]]'
p4276
tp4277
F0.0006693440428380187
s(S'had'
p4278
S'written'
p4279
S'of'
p4280
tp4281
F0.0006693440428380187
s(S'also'
p4282
S'known'
p4283
S'[[con]]'
p4284
tp4285
F0.0006693440428380187
s(S'[[adj]]'
p4286
S'assistant'
p4287
S'[[con]]'
p4288
tp4289
F0.0006693440428380187
s(S'where'
p4290
S'met'
p4291
S'[[adj]]'
p4292
tp4293
F0.0006693440428380187
s(S'has'
p4294
S'gone'
p4295
S'back'
p4296
tp4297
F0.0006693440428380187
s(S'[[prp]]'
p4298
S'father'
p4299
S'was'
p4300
tp4301
F0.0006693440428380187
s(S'also'
p4302
S'wrote'
p4303
S'[[det]]'
p4304
tp4305
F0.0006693440428380187
s(S'later'
p4306
S'studied'
p4307
S'under'
p4308
tp4309
F0.0006693440428380187
s(S'to'
p4310
S'work'
p4311
S'while'
p4312
tp4313
F0.0006693440428380187
s(S'[[det]]'
p4314
S'work'
p4315
S'as'
p4316
tp4317
F0.0006693440428380187
s(S'also'
p4318
S'founded'
p4319
S'[[con]]'
p4320
tp4321
F0.0006693440428380187
s(S'[[con]]'
p4322
S'joined'
p4323
S'by'
p4324
tp4325
F0.0006693440428380187
s(S'was'
p4326
S'called'
p4327
S'of'
p4328
tp4329
F0.0006693440428380187
s(S'[[num]]'
p4330
S'lines'
p4331
S'from'
p4332
tp4333
F0.0006693440428380187
s(S'has'
p4334
S'published'
p4335
g4314
tp4336
F0.0006693440428380187
s(S'then'
p4337
S'opened'
p4338
S'[[det]]'
p4339
tp4340
F0.0006693440428380187
s(g1812
g393
g394
tp4341
F0.0006693440428380187
s(S'has'
p4342
S'worked'
p4343
S'from'
p4344
tp4345
F0.0006693440428380187
s(S'[[prp]]'
p4346
S'father'
p4347
S'[[con]]'
p4348
tp4349
F0.0006693440428380187
s(S'[[con]]'
p4350
S'introduced'
p4351
S'to'
p4352
tp4353
F0.0006693440428380187
s(S'[[con]]'
p4354
S'friend'
p4355
S'of'
p4356
tp4357
F0.0006693440428380187
s(S'to'
p4358
S'work'
p4359
S'by'
p4360
tp4361
F0.0006693440428380187
s(S'influenced'
p4362
g2188
g464
tp4363
F0.008032128514056224
s(S'[[det]]'
p4364
S'influence'
p4365
S'in'
p4366
tp4367
F0.0006693440428380187
s(g4267
g4268
S'with'
p4368
tp4369
F0.0006693440428380187
s(S'[[adj]]'
p4370
S'inspired'
p4371
S'by'
p4372
tp4373
F0.0006693440428380187
s(S'also'
p4374
S'worked'
p4375
S'among'
p4376
tp4377
F0.0006693440428380187
s(S'has'
p4378
S'compared'
p4379
S'to'
p4380
tp4381
F0.0006693440428380187
s(S'[[prp]]'
p4382
S'friend'
p4383
S'[[det]]'
p4384
tp4385
F0.0006693440428380187
s(S'where'
p4386
S'met'
p4387
S'[[con]]'
p4388
tp4389
F0.0006693440428380187
s(S'also'
p4390
S'appears'
p4391
S'with'
p4392
tp4393
F0.0006693440428380187
s(S'found'
p4394
S'work'
p4395
S'as'
p4396
tp4397
F0.0006693440428380187
s(S'then'
p4398
S'served'
p4399
S'until'
p4400
tp4401
F0.0006693440428380187
s(g1258
g1259
S'[[num]]'
p4402
tp4403
F0.0006693440428380187
s(S'was'
p4404
S'taught'
p4405
S'from'
p4406
tp4407
F0.0006693440428380187
s(S'[[con]]'
p4408
S'joined'
p4409
S'[[con]]'
p4410
tp4411
F0.0006693440428380187
s(S'[[adj]]'
p4412
S'used'
p4413
S'to'
p4414
tp4415
F0.0006693440428380187
s(S'[[det]]'
p4416
S'follower'
p4417
S'[[con]]'
p4418
tp4419
F0.0006693440428380187
s(S'[[pro]]'
p4420
S'served'
p4421
S'as'
p4422
tp4423
F0.0006693440428380187
s(S'was'
p4424
S'influenced'
p4425
S'in'
p4426
tp4427
F0.0006693440428380187
s(S'ref'
p4428
S'gt'
p4429
S'where'
p4430
tp4431
F0.0006693440428380187
s(S'later'
p4432
S'known'
p4433
S'as'
p4434
tp4435
F0.0006693440428380187
s(S'also'
p4436
S'served'
p4437
S'against'
p4438
tp4439
F0.0006693440428380187
s(g2659
g2660
S'[[con]]'
p4440
tp4441
F0.0006693440428380187
s(S'once'
p4442
S'said'
p4443
S'of'
p4444
tp4445
F0.0006693440428380187
s(S'be'
p4446
S'used'
p4447
S'for'
p4448
tp4449
F0.0006693440428380187
s(S'to'
p4450
S'work'
p4451
S'[[con]]'
p4452
tp4453
F0.0006693440428380187
s(S'better'
p4454
S'known'
p4455
S'[[det]]'
p4456
tp4457
F0.0006693440428380187
s(S'also'
p4458
S'served'
p4459
S'where'
p4460
tp4461
F0.0006693440428380187
s(S'what'
p4462
S'did'
p4463
S'to'
p4464
tp4465
F0.0006693440428380187
s(S'also'
p4466
S'published'
p4467
S'[[adj]]'
p4468
tp4469
F0.0006693440428380187
s(S'then'
p4470
S'known'
p4471
S'as'
p4472
tp4473
F0.0006693440428380187
s(S'then'
p4474
S'worked'
p4475
S'under'
p4476
tp4477
F0.0006693440428380187
s(S'also'
p4478
S'met'
p4479
S'[[con]]'
p4480
tp4481
F0.0006693440428380187
s(S'who'
p4482
S'worked'
p4483
S'under'
p4484
tp4485
F0.0006693440428380187
s(S'was'
p4486
S'noted'
p4487
S'with'
p4488
tp4489
F0.0006693440428380187
s(S'[[adj]]'
p4490
S'relationship'
p4491
S'between'
p4492
tp4493
F0.0006693440428380187
s(S'then'
p4494
S'followed'
p4495
S'up'
p4496
tp4497
F0.0006693440428380187
s(S'later'
p4498
S'served'
p4499
S'[[con]]'
p4500
tp4501
F0.0006693440428380187
s(S'[[adj]]'
p4502
S'influence'
p4503
S'with'
p4504
tp4505
F0.0006693440428380187
s(S'best'
p4506
S'known'
p4507
S'where'
p4508
tp4509
F0.0006693440428380187
s(S'not'
p4510
S'known'
p4511
S'as'
p4512
tp4513
F0.0006693440428380187
s(S'once'
p4514
S'said'
p4515
S'that'
p4516
tp4517
F0.0006693440428380187
s(S'is'
p4518
S'noted'
p4519
S'with'
p4520
tp4521
F0.0006693440428380187
s(S'had'
p4522
S'introduced'
p4523
S'to'
p4524
tp4525
F0.0006693440428380187
s(S'has'
p4526
S'published'
p4527
S'on'
p4528
tp4529
F0.0006693440428380187
s(S'had'
p4530
S'written'
p4531
S'to'
p4532
tp4533
F0.0006693440428380187
s(S'[[det]]'
p4534
S'teacher'
p4535
S'of'
p4536
tp4537
F0.0006693440428380187
s(S'be'
p4538
S'compared'
p4539
S'to'
p4540
tp4541
F0.0006693440428380187
s(S'later'
p4542
S'wrote'
p4543
S'of'
p4544
tp4545
F0.0006693440428380187
s(S'has'
p4546
S'written'
p4547
S'with'
p4548
tp4549
F0.0006693440428380187
s(S'to'
p4550
S'know'
p4551
S'why'
p4552
tp4553
F0.0006693440428380187
s(g129
S'writings'
p4554
S'[[con]]'
p4555
tp4556
F0.0006693440428380187
s(S'[[mod]]'
p4557
S'work'
p4558
S'with'
p4559
tp4560
F0.0006693440428380187
s(S'[[det]]'
p4561
S'copy'
p4562
S'to'
p4563
tp4564
F0.0006693440428380187
s(S'most'
p4565
S'known'
p4566
S'with'
p4567
tp4568
F0.0006693440428380187
s(S'again'
p4569
S'appeared'
p4570
S'in'
p4571
tp4572
F0.0006693440428380187
s(S'[[det]]'
p4573
S'father'
p4574
S'was'
p4575
tp4576
F0.0006693440428380187
s(S'to'
p4577
S'use'
p4578
S'[[con]]'
p4579
tp4580
F0.0006693440428380187
s(S'is'
p4581
S'known'
p4582
S'for'
p4583
tp4584
F0.0006693440428380187
s(S'had'
p4585
S'written'
p4586
S'[[adj]]'
p4587
tp4588
F0.0006693440428380187
s(S'[[adj]]'
p4589
S'writer'
p4590
S'who'
p4591
tp4592
F0.0006693440428380187
s(S'have'
p4593
S'served'
p4594
S'as'
p4595
tp4596
F0.0006693440428380187
s(S'where'
p4597
S'came'
p4598
S'under'
p4599
tp4600
F0.0006693440428380187
s(S'also'
p4601
S'mentioned'
p4602
S'that'
p4603
tp4604
F0.0006693440428380187
s(g889
g4140
S'works'
p4605
tp4606
F0.0006693440428380187
s(S'had'
p4607
S'served'
p4608
S'under'
p4609
tp4610
F0.0006693440428380187
s(S'was'
p4611
S'translated'
p4612
S'by'
p4613
tp4614
F0.0006693440428380187
s(S'was'
p4615
S'mentioned'
p4616
S'as'
p4617
tp4618
F0.0006693440428380187
s(S'[[con]]'
p4619
S'said'
p4620
S'[[pro]]'
p4621
tp4622
F0.0006693440428380187
s(S'[[det]]'
p4623
S'work'
p4624
S'[[adj]]'
p4625
tp4626
F0.0006693440428380187
s(g1939
g2841
S'members'
p4627
tp4628
F0.0006693440428380187
s(S'[[det]]'
p4629
S'assistant'
p4630
S'for'
p4631
tp4632
F0.0006693440428380187
s(S'who'
p4633
S'appeared'
p4634
S'[[con]]'
p4635
tp4636
F0.0006693440428380187
s(S'also'
p4637
S'mentioned'
p4638
S'[[det]]'
p4639
tp4640
F0.0006693440428380187
s(S'since'
p4641
S'worked'
p4642
S'[[con]]'
p4643
tp4644
F0.0006693440428380187
s(S'as'
p4645
S'taught'
p4646
S'by'
p4647
tp4648
F0.0006693440428380187
s(S'has'
p4649
S'opened'
p4650
S'as'
p4651
tp4652
F0.0006693440428380187
s(S'[[adj]]'
p4653
S'follower'
p4654
S'[[con]]'
p4655
tp4656
F0.0006693440428380187
s(S'[[det]]'
p4657
S'student'
p4658
S'to'
p4659
tp4660
F0.0006693440428380187
s(S'first'
p4661
S'worked'
p4662
S'to'
p4663
tp4664
F0.0006693440428380187
s(S'also'
p4665
S'inspired'
p4666
S'by'
p4667
tp4668
F0.0006693440428380187
s(S'[[adj]]'
p4669
S'friend'
p4670
S'to'
p4671
tp4672
F0.0006693440428380187
s(S'[[pro]]'
p4673
S'relationship'
p4674
S'with'
p4675
tp4676
F0.0006693440428380187
s(S'was'
p4677
S'noted'
p4678
S'as'
p4679
tp4680
F0.0006693440428380187
s(S'sometimes'
p4681
S'called'
p4682
S'[[det]]'
p4683
tp4684
F0.0006693440428380187
s(S'had'
p4685
S'said'
p4686
S'[[pro]]'
p4687
tp4688
F0.0006693440428380187
s(S'received'
p4689
g1006
g775
tp4690
F0.0006693440428380187
s(S'be'
p4691
S'based'
p4692
S'on'
p4693
tp4694
F0.0006693440428380187
s(S'has'
p4695
S'noted'
p4696
S'that'
p4697
tp4698
F0.0006693440428380187
s(S'then'
p4699
S'appeared'
p4700
S'[[adj]]'
p4701
tp4702
F0.0006693440428380187
s(S'then'
p4703
S'worked'
p4704
S'[[con]]'
p4705
tp4706
F0.0006693440428380187
s(S'had'
p4707
S'met'
p4708
S'while'
p4709
tp4710
F0.0006693440428380187
s(S'[[prp]]'
p4711
S'study'
p4712
S'of'
p4713
tp4714
F0.0006693440428380187
s(S'are'
p4715
S'based'
p4716
S'on'
p4717
tp4718
F0.0006693440428380187
s(S'later'
p4719
S'served'
p4720
S'under'
p4721
tp4722
F0.0006693440428380187
s(S'was'
p4723
S'father'
p4724
S'of'
p4725
tp4726
F0.0006693440428380187
s(S'soon'
p4727
S'joined'
p4728
S'with'
p4729
tp4730
F0.0006693440428380187
s(S'was'
p4731
S'accepted'
p4732
S'as'
p4733
tp4734
F0.0006693440428380187
s(g129
S'influence'
p4735
S'over'
p4736
tp4737
F0.0006693440428380187
s(S'also'
p4738
S'referred'
p4739
S'to'
p4740
tp4741
F0.0006693440428380187
s(S'[[det]]'
p4742
S'use'
p4743
S'[[con]]'
p4744
tp4745
F0.0006693440428380187
s(S'[[adj]]'
p4746
S'worked'
p4747
S'for'
p4748
tp4749
F0.0006693440428380187
s(S'then'
p4750
S'met'
p4751
S'with'
p4752
tp4753
F0.0006693440428380187
s(S'also'
p4754
S'wrote'
p4755
S'[[con]]'
p4756
tp4757
F0.0006693440428380187
s(S'first'
p4758
S'studied'
p4759
S'under'
p4760
tp4761
F0.0006693440428380187
s(S'[[det]]'
p4762
S'works'
p4763
S'[[con]]'
p4764
tp4765
F0.0006693440428380187
s(S'had'
p4766
S'appeared'
p4767
S'with'
p4768
tp4769
F0.0006693440428380187
s(S'also'
p4770
S'joined'
p4771
S'along'
p4772
tp4773
F0.0006693440428380187
s(g2814
g2815
S'ref'
p4774
tp4775
F0.0006693440428380187
s(S'[[det]]'
p4776
S'associate'
p4777
S'[[con]]'
p4778
tp4779
F0.0006693440428380187
s(S'[[adj]]'
p4780
S'associate'
p4781
S'[[con]]'
p4782
tp4783
F0.0006693440428380187
s(S'[[adj]]'
p4784
S'influence'
p4785
S'from'
p4786
tp4787
F0.0006693440428380187
s(S'then'
p4788
S'appeared'
p4789
S'with'
p4790
tp4791
F0.0006693440428380187
s(g129
S'appeared'
p4792
S'on'
p4793
tp4794
F0.0006693440428380187
s(S'writers'
p4795
g971
g972
tp4796
F0.0006693440428380187
s(S'also'
p4797
S'wrote'
p4798
S'that'
p4799
tp4800
F0.0006693440428380187
s(S'also'
p4801
S'referred'
p4802
S'as'
p4803
tp4804
F0.0006693440428380187
s(S'became'
p4805
g1869
g1870
tp4806
F0.0006693440428380187
s(S'to'
p4807
S'use'
p4808
S'[[adj]]'
p4809
tp4810
F0.0006693440428380187
s(g129
S'influence'
p4811
S'that'
p4812
tp4813
F0.0006693440428380187
s(g129
S'father'
p4814
S'was'
p4815
tp4816
F0.0006693440428380187
s(S'been'
p4817
S'written'
p4818
S'by'
p4819
tp4820
F0.0006693440428380187
s(S'first'
p4821
S'appears'
p4822
S'when'
p4823
tp4824
F0.0006693440428380187
s(S'also'
p4825
S'appears'
p4826
S'as'
p4827
tp4828
F0.0006693440428380187
s(S'[[adj]]'
p4829
S'teacher'
p4830
S'of'
p4831
tp4832
F0.0006693440428380187
s(S'where'
p4833
S'joined'
p4834
S'with'
p4835
tp4836
F0.0006693440428380187
s(S'[[det]]'
p4837
S'translation'
p4838
S'of'
p4839
tp4840
F0.0006693440428380187
s(S'not'
p4841
S'mentioned'
p4842
S'by'
p4843
tp4844
F0.0006693440428380187
s(S'had'
p4845
S'published'
p4846
S'[[det]]'
p4847
tp4848
F0.0006693440428380187
s(S'had'
p4849
S'met'
p4850
S'through'
p4851
tp4852
F0.0006693440428380187
s(g407
g1130
g2267
tp4853
F0.0006693440428380187
s(S'was'
p4854
S'buried'
p4855
S'with'
p4856
tp4857
F0.0006693440428380187
s(g129
S'called'
p4858
S'[[det]]'
p4859
tp4860
F0.0006693440428380187
s(S'best'
p4861
S'friend'
p4862
S'of'
p4863
tp4864
F0.0006693440428380187
s(S'also'
p4865
S'wrote'
p4866
S'by'
p4867
tp4868
F0.0006693440428380187
s(S'to'
p4869
S'study'
p4870
S'[[con]]'
p4871
tp4872
F0.0006693440428380187
s(S'[[num]]'
p4873
S'based'
p4874
S'on'
p4875
tp4876
F0.0006693440428380187
s(S'where'
p4877
S'served'
p4878
S'under'
p4879
tp4880
F0.0006693440428380187
s(S'then'
p4881
S'served'
p4882
S'[[num]]'
p4883
tp4884
F0.0006693440428380187
s(S'[[num]]'
p4885
S'served'
p4886
S'on'
p4887
tp4888
F0.0006693440428380187
s(S'was'
p4889
S'said'
p4890
S'to'
p4891
tp4892
F0.0006693440428380187
s(S'[[adj]]'
p4893
S'served'
p4894
S'for'
p4895
tp4896
F0.0006693440428380187
s(S'had'
p4897
S'translated'
p4898
S'into'
p4899
tp4900
F0.0006693440428380187
s(S'[[con]]'
p4901
S'inspired'
p4902
S'by'
p4903
tp4904
F0.0006693440428380187
s(S'ref'
p4905
S'gt'
p4906
S'was'
p4907
tp4908
F0.0013386880856760374
s(S'[[det]]'
p4909
S'fan'
p4910
S'[[con]]'
p4911
tp4912
F0.0006693440428380187
s(S'[[con]]'
p4913
S'written'
p4914
S'of'
p4915
tp4916
F0.0006693440428380187
s(S'has'
p4917
S'served'
p4918
S'to'
p4919
tp4920
F0.0006693440428380187
s(S'[[con]]'
p4921
S'works'
p4922
S'of'
p4923
tp4924
F0.0006693440428380187
s(S'became'
p4925
S'known'
p4926
S'to'
p4927
tp4928
F0.0006693440428380187
s(g776
g405
g406
tp4929
F0.0006693440428380187
s(S'to'
p4930
S'learn'
p4931
S'from'
p4932
tp4933
F0.0006693440428380187
s(S'best'
p4934
S'known'
p4935
S'among'
p4936
tp4937
F0.0006693440428380187
s(S'is'
p4938
S'known'
p4939
S'about'
p4940
tp4941
F0.0006693440428380187
s(S'then'
p4942
S'served'
p4943
S'under'
p4944
tp4945
F0.0006693440428380187
s(S'had'
p4946
S'worked'
p4947
S'to'
p4948
tp4949
F0.0006693440428380187
s(S'as'
p4950
S'did'
p4951
S'[[con]]'
p4952
tp4953
F0.0006693440428380187
s(S'although'
p4954
S'did'
p4955
S'not'
p4956
tp4957
F0.0006693440428380187
s(S'[[adj]]'
p4958
S'poems'
p4959
S'[[con]]'
p4960
tp4961
F0.0006693440428380187
s(S'is'
p4962
S'introduced'
p4963
S'as'
p4964
tp4965
F0.0006693440428380187
s(S'be'
p4966
S'influenced'
p4967
S'by'
p4968
tp4969
F0.0013386880856760374
s(S'who'
p4970
S'used'
p4971
S'[[adj]]'
p4972
tp4973
F0.0006693440428380187
s(S'has'
p4974
S'written'
p4975
S'[[adj]]'
p4976
tp4977
F0.0006693440428380187
s(S'[[num]]'
p4978
S'gt'
p4979
S'[[con]]'
p4980
tp4981
F0.0006693440428380187
s(g3108
g3109
S'of'
p4982
tp4983
F0.0033467202141900937
s(S'was'
p4984
S'assistant'
p4985
S'of'
p4986
tp4987
F0.0006693440428380187
s(S'was'
p4988
S'introduced'
p4989
S'as'
p4990
tp4991
F0.0006693440428380187
s(S'also'
p4992
S'appeared'
p4993
S'under'
p4994
tp4995
F0.0006693440428380187
s(S'also'
p4996
S'appeared'
p4997
S'as'
p4998
tp4999
F0.0006693440428380187
s(S'best'
p5000
S'known'
p5001
S'[[num]]'
p5002
tp5003
F0.0006693440428380187
s(S'not'
p5004
S'know'
p5005
S'what'
p5006
tp5007
F0.0006693440428380187
s(S'also'
p5008
S'worked'
p5009
S'by'
p5010
tp5011
F0.0006693440428380187
s(S'is'
p5012
S'strongly'
p5013
S'influenced'
p5014
tp5015
F0.0006693440428380187
s(S'was'
p5016
S'known'
p5017
S'to'
p5018
tp5019
F0.0006693440428380187
s(S'is'
p5020
S'known'
p5021
S'by'
p5022
tp5023
F0.0006693440428380187
s(S'officially'
p5024
g4805
g1869
tp5025
F0.0006693440428380187
s(S'well'
p5026
S'known'
p5027
S'that'
p5028
tp5029
F0.0006693440428380187
s(S'were'
p5030
S'written'
p5031
S'by'
p5032
tp5033
F0.0006693440428380187
s(S'[[adj]]'
p5034
S'relationship'
p5035
S'[[con]]'
p5036
tp5037
F0.0006693440428380187
s(S'was'
p5038
S'influenced'
p5039
S'by'
p5040
tp5041
F0.002677376171352075
s(g4335
g4314
g4315
tp5042
F0.0013386880856760374
s(S'[[adj]]'
p5043
S'mentioned'
p5044
S'in'
p5045
tp5046
F0.0006693440428380187
s(g129
S'based'
p5047
S'by'
p5048
tp5049
F0.0006693440428380187
s(g1101
g1193
g476
tp5050
F0.0013386880856760374
s.