(dp0
(S'[[adj]]'
p1
S'land'
p2
S'battle'
p3
tp4
F0.02040816326530612
s(S's'
p5
S'event'
p6
S'at'
p7
tp8
F0.02040816326530612
s(S'battle'
p9
S'fought'
p10
S'in'
p11
tp12
F0.02040816326530612
s(S'took'
p13
S'place'
p14
S'during'
p15
tp16
F0.02040816326530612
s(S'[[con]]'
p17
S'fought'
p18
S'[[det]]'
p19
tp20
F0.02040816326530612
s(S'[[adj]]'
p21
S'operation'
p22
S'of'
p23
tp24
F0.02040816326530612
s(S'[[det]]'
p25
S'engagement'
p26
S'of'
p27
tp28
F0.02040816326530612
s(S'[[det]]'
p29
S'largest'
p30
S'[[adj]]'
p31
tp32
F0.02040816326530612
s(S'[[det]]'
p33
S'battle'
p34
S'of'
p35
tp36
F0.02040816326530612
s(S'took'
p37
S'place'
p38
S'on'
p39
tp40
F0.02040816326530612
s(S'[[adj]]'
p41
S'battles'
p42
S'in'
p43
tp44
F0.02040816326530612
s(S'[[det]]'
p45
S'battle'
p46
S'fought'
p47
tp48
F0.04081632653061224
s(S'[[adj]]'
p49
g9
g10
tp50
F0.04081632653061224
s(g46
g47
S'during'
p51
tp52
F0.04081632653061224
s(S'[[adj]]'
p53
S'battles'
p54
S'of'
p55
tp56
F0.02040816326530612
s(S'[[adj]]'
p57
S'event'
p58
S'at'
p59
tp60
F0.02040816326530612
s(S'[[adj]]'
p61
S'battle'
p62
S'in'
p63
tp64
F0.02040816326530612
s(g30
g31
S'battle'
p65
tp66
F0.02040816326530612
s(S'[[adj]]'
p67
S'engagement'
p68
S'of'
p69
tp70
F0.02040816326530612
s(g5
S'battle'
p71
S'with'
p72
tp73
F0.02040816326530612
s(S'land'
p74
S'battle'
p75
S'of'
p76
tp77
F0.04081632653061224
s(S'[[det]]'
p78
S'battle'
p79
S'between'
p80
tp81
F0.02040816326530612
s(S'battle'
p82
S'of'
p83
S'fought'
p84
tp85
F0.02040816326530612
s(S'[[det]]'
p86
g74
g75
tp87
F0.02040816326530612
s(S'[[det]]'
p88
S'battle'
p89
S'[[det]]'
p90
tp91
F0.02040816326530612
s(S'[[det]]'
p92
S'battle'
p93
S'during'
p94
tp95
F0.02040816326530612
s(g83
g84
S'during'
p96
tp97
F0.02040816326530612
s(S'[[adj]]'
p98
S'battle'
p99
S'of'
p100
tp101
F0.061224489795918366
s(S'[[adj]]'
p102
S'event'
p103
S'of'
p104
tp105
F0.02040816326530612
s(S'to'
p106
S'battle'
p107
S'[[det]]'
p108
tp109
F0.02040816326530612
s(S'was'
p110
S'fought'
p111
S'[[num]]'
p112
tp113
F0.02040816326530612
s(S'was'
p114
S'fought'
p115
S'as'
p116
tp117
F0.02040816326530612
s(S'[[adj]]'
p118
S'battle'
p119
S'during'
p120
tp121
F0.02040816326530612
s(S'[[det]]'
p122
S'battle'
p123
S'in'
p124
tp125
F0.02040816326530612
s(S'battle'
p126
S'fought'
p127
S'as'
p128
tp129
F0.02040816326530612
s(S'[[det]]'
p130
S'end'
p131
S'of'
p132
tp133
F0.02040816326530612
s(S'[[adj]]'
p134
S'battle'
p135
S'[[det]]'
p136
tp137
F0.02040816326530612
s(S'took'
p138
S'place'
p139
S'as'
p140
tp141
F0.02040816326530612
s(S'then'
p142
S'fought'
p143
S'[[det]]'
p144
tp145
F0.02040816326530612
s(S'was'
p146
S'fought'
p147
S'during'
p148
tp149
F0.02040816326530612
s(S'[[adj]]'
p150
S'event'
p151
S'[[con]]'
p152
tp153
F0.02040816326530612
s(S'[[adj]]'
p154
S'battle'
p155
S'[[con]]'
p156
tp157
F0.02040816326530612
s(S'[[adj]]'
p158
S'engagement'
p159
S'in'
p160
tp161
F0.02040816326530612
s.