(dp0
(S'was'
p1
S'chaired'
p2
S'by'
p3
tp4
F0.018518518518518517
s(S'[[det]]'
p5
S'headed'
p6
S'by'
p7
tp8
F0.018518518518518517
s(S'were'
p9
S'founded'
p10
S'by'
p11
tp12
F0.018518518518518517
s(S'were'
p13
S'formed'
p14
S'by'
p15
tp16
F0.018518518518518517
s(S'also'
p17
S'announced'
p18
S'that'
p19
tp20
F0.018518518518518517
s(S'[[det]]'
p21
S'year'
p22
S'with'
p23
tp24
F0.018518518518518517
s(S'[[con]]'
p25
S'was'
p26
S'founded'
p27
tp28
F0.018518518518518517
s(S'was'
p29
S'founded'
p30
S'for'
p31
tp32
F0.018518518518518517
s(S'was'
p33
S'headed'
p34
S'by'
p35
tp36
F0.018518518518518517
s(S'based'
p37
g25
g26
tp38
F0.018518518518518517
s(S'[[prp]]'
p39
S'[[adj]]'
p40
S'headquarters'
p41
tp42
F0.018518518518518517
s(S'is'
p43
S'established'
p44
S'by'
p45
tp46
F0.018518518518518517
s(S'[[con]]'
p47
S'founded'
p48
S'with'
p49
tp50
F0.018518518518518517
s(S'[[con]]'
p51
S'founded'
p52
S'by'
p53
tp54
F0.018518518518518517
s(S'[[det]]'
p55
S'founded'
p56
S'by'
p57
tp58
F0.018518518518518517
s(S'[[con]]'
p59
S'formed'
p60
S'with'
p61
tp62
F0.018518518518518517
s(S'was'
p63
S'founded'
p64
S'with'
p65
tp66
F0.018518518518518517
s(S'was'
p67
S'founded'
p68
S'by'
p69
tp70
F0.05555555555555555
s(S'opened'
p71
g39
g40
tp72
F0.018518518518518517
s(S'was'
p73
S'formed'
p74
S'by'
p75
tp76
F0.018518518518518517
s(S's'
p77
S'founder'
p78
S'[[con]]'
p79
tp80
F0.018518518518518517
s(S'also'
p81
S'founded'
p82
S'by'
p83
tp84
F0.018518518518518517
s(S'was'
p85
S'incorporated'
p86
S'[[con]]'
p87
tp88
F0.018518518518518517
s(S'was'
p89
S'announced'
p90
S'by'
p91
tp92
F0.018518518518518517
s(g40
g41
S'in'
p93
tp94
F0.018518518518518517
s(S'is'
p95
g37
g25
tp96
F0.018518518518518517
s(S'tours'
p97
g21
g22
tp98
F0.018518518518518517
s(S'was'
p99
S'cofounded'
p100
S'by'
p101
tp102
F0.018518518518518517
s(S'design'
p103
S'was'
p104
S'founded'
p105
tp106
F0.018518518518518517
s(S'been'
p107
S'founded'
p108
S'by'
p109
tp110
F0.018518518518518517
s(S'has'
p111
S'announced'
p112
S'that'
p113
tp114
F0.018518518518518517
s(S'was'
p115
S'formed'
p116
S'with'
p117
tp118
F0.018518518518518517
s(g77
S'president'
p119
S'[[con]]'
p120
tp121
F0.018518518518518517
s(S'been'
p122
S'established'
p123
S'by'
p124
tp125
F0.018518518518518517
s(S'was'
p126
S'established'
p127
S'after'
p128
tp129
F0.018518518518518517
s(S'was'
p130
S'established'
p131
S'under'
p132
tp133
F0.018518518518518517
s(S'were'
p134
S'formed'
p135
S'[[con]]'
p136
tp137
F0.018518518518518517
s(S'was'
p138
S'founded'
p139
S'to'
p140
tp141
F0.018518518518518517
s(S'is'
p142
S'formed'
p143
S'by'
p144
tp145
F0.018518518518518517
s(S'is'
p146
S'founded'
p147
S'by'
p148
tp149
F0.018518518518518517
s(S'had'
p150
S'announced'
p151
S'that'
p152
tp153
F0.018518518518518517
s(S'was'
p154
S'established'
p155
S'to'
p156
tp157
F0.018518518518518517
s(S'[[det]]'
p158
g103
g104
tp159
F0.018518518518518517
s(S'was'
p160
S'established'
p161
S'with'
p162
tp163
F0.018518518518518517
s(S'was'
p164
S'founded'
p165
S'under'
p166
tp167
F0.018518518518518517
s(S'is'
p168
S'chaired'
p169
S'by'
p170
tp171
F0.018518518518518517
s(S'was'
p172
S'run'
p173
S'by'
p174
tp175
F0.018518518518518517
s(S'was'
p176
S'established'
p177
S'by'
p178
tp179
F0.018518518518518517
s(S'was'
p180
S'cofounded'
p181
S'[[con]]'
p182
tp183
F0.018518518518518517
s(S'is'
p184
S'headed'
p185
S'by'
p186
tp187
F0.018518518518518517
s(S'was'
p188
S'formed'
p189
S'after'
p190
tp191
F0.018518518518518517
s(S'was'
p192
S'incorporated'
p193
S'by'
p194
tp195
F0.018518518518518517
s.