(dp0
(S'ref'
p1
S'gt'
p2
S'had'
p3
tp4
F0.16666666666666666
s(S'lt'
p5
S'ref'
p6
S'gt'
p7
tp8
F0.16666666666666666
s(S'[[num]]'
p9
g1
g2
tp10
F0.16666666666666666
s(S'gt'
p11
g5
g6
tp12
F0.16666666666666666
s(g6
g7
S'named'
p13
tp14
F0.16666666666666666
s(S'lt'
p15
g9
g1
tp16
F0.16666666666666666
s.