(dp0
(S'is'
p1
S'founded'
p2
S'in'
p3
tp4
F0.012987012987012988
s(S'[[det]]'
p5
S'company'
p6
S'in'
p7
tp8
F0.012987012987012988
s(S'[[adj]]'
p9
S'founded'
p10
S'in'
p11
tp12
F0.012987012987012988
s(S'also'
p13
S'operates'
p14
S'from'
p15
tp16
F0.012987012987012988
s(S's'
p17
S'based'
p18
S'in'
p19
tp20
F0.012987012987012988
s(S'[[det]]'
p21
S'founded'
p22
S'in'
p23
tp24
F0.012987012987012988
s(S'picture'
p25
S'studio'
p26
S'in'
p27
tp28
F0.012987012987012988
s(S'largest'
p29
S'operator'
p30
S'in'
p31
tp32
F0.012987012987012988
s(S'is'
p33
S'based'
p34
S'in'
p35
tp36
F0.012987012987012988
s(S'largest'
p37
S'chain'
p38
S'in'
p39
tp40
F0.025974025974025976
s(S'[[num]]'
p41
S'based'
p42
S'in'
p43
tp44
F0.012987012987012988
s(S'[[adj]]'
p45
S'theater'
p46
S'of'
p47
tp48
F0.012987012987012988
s(S'[[det]]'
p49
S'largest'
p50
S'[[adj]]'
p51
tp52
F0.025974025974025976
s(S'was'
p53
S'based'
p54
S'in'
p55
tp56
F0.012987012987012988
s(S'[[prp]]'
p57
S'products'
p58
S'in'
p59
tp60
F0.012987012987012988
s(S'was'
p61
S'founded'
p62
S'in'
p63
tp64
F0.012987012987012988
s(S'[[adj]]'
p65
S'largest'
p66
S'in'
p67
tp68
F0.012987012987012988
s(S'was'
p69
S'founded'
p70
S'on'
p71
tp72
F0.012987012987012988
s(S'[[prp]]'
p73
S'headquarters'
p74
S'[[con]]'
p75
tp76
F0.012987012987012988
s(S'[[det]]'
p77
S'network'
p78
S'in'
p79
tp80
F0.012987012987012988
s(S'[[det]]'
p81
S'manufacturer'
p82
S'based'
p83
tp84
F0.012987012987012988
s(S'also'
p85
S'operates'
p86
S'in'
p87
tp88
F0.012987012987012988
s(S'[[adj]]'
p89
S'company'
p90
S'based'
p91
tp92
F0.012987012987012988
s(S'now'
p93
S'operates'
p94
S'in'
p95
tp96
F0.012987012987012988
s(S'[[adj]]'
p97
S'channel'
p98
S'in'
p99
tp100
F0.012987012987012988
s(S'is'
p101
S'headquartered'
p102
S'in'
p103
tp104
F0.012987012987012988
s(S'is'
p105
S'headquartered'
p106
S'with'
p107
tp108
F0.012987012987012988
s(S'[[adj]]'
p109
S'based'
p110
S'in'
p111
tp112
F0.012987012987012988
s(S'[[det]]'
p113
S'company'
p114
S'based'
p115
tp116
F0.012987012987012988
s(S'[[adj]]'
p117
S'companies'
p118
S'in'
p119
tp120
F0.012987012987012988
s(S'currently'
p121
S'operates'
p122
S'in'
p123
tp124
F0.012987012987012988
s(S'[[det]]'
p125
S'largest'
p126
S'company'
p127
tp128
F0.012987012987012988
s(S'smaller'
p129
S'[[adj]]'
p130
S'offices'
p131
tp132
F0.012987012987012988
s(S'[[adj]]'
p133
S'network'
p134
S'of'
p135
tp136
F0.012987012987012988
s(S'[[adj]]'
p137
S'network'
p138
S'in'
p139
tp140
F0.012987012987012988
s(S'[[adj]]'
p141
S'manufacturer'
p142
S'based'
p143
tp144
F0.012987012987012988
s(S'be'
p145
S'viewed'
p146
S'by'
p147
tp148
F0.012987012987012988
s(S'[[prp]]'
p149
S'headquarters'
p150
S'in'
p151
tp152
F0.012987012987012988
s(S'[[adj]]'
p153
S'products'
p154
S'in'
p155
tp156
F0.012987012987012988
s(S'[[det]]'
p157
g37
g38
tp158
F0.012987012987012988
s(S'[[adj]]'
p159
S'facility'
p160
S'in'
p161
tp162
F0.012987012987012988
s(S'[[num]]'
p163
S'people'
p164
S'in'
p165
tp166
F0.012987012987012988
s(g50
g51
S'company'
p167
tp168
F0.012987012987012988
s(g114
g115
S'in'
p169
tp170
F0.03896103896103896
s(S'[[det]]'
p171
S'products'
p172
S'in'
p173
tp174
F0.012987012987012988
s(S'be'
p175
S'based'
p176
S'in'
p177
tp178
F0.012987012987012988
s(S'[[det]]'
p179
S'theater'
p180
S'in'
p181
tp182
F0.012987012987012988
s(S'manufacturer'
p183
S'based'
p184
S'in'
p185
tp186
F0.03896103896103896
s(S'[[det]]'
p187
S'chain'
p188
S'in'
p189
tp190
F0.012987012987012988
s(S'currently'
p191
S'headquartered'
p192
S'in'
p193
tp194
F0.012987012987012988
s(S'[[det]]'
p195
S'motion'
p196
g25
tp197
F0.012987012987012988
s(S'[[det]]'
p198
S'largest'
p199
S'in'
p200
tp201
F0.012987012987012988
s(S'[[det]]'
p202
g29
g30
tp203
F0.012987012987012988
s(g51
g167
S'in'
p204
tp205
F0.025974025974025976
s(S'manufacturer'
p206
S'of'
p207
S'based'
p208
tp209
F0.012987012987012988
s(S'is'
p210
S'headquartered'
p211
S'[[con]]'
p212
tp213
F0.012987012987012988
s(g130
g131
S'in'
p214
tp215
F0.012987012987012988
s(S'[[adj]]'
p216
S'theater'
p217
S'in'
p218
tp219
F0.012987012987012988
s(S'[[adj]]'
p220
S'outlets'
p221
S'in'
p222
tp223
F0.012987012987012988
s(S'[[det]]'
p224
S'network'
p225
S'of'
p226
tp227
F0.012987012987012988
s(S'[[adj]]'
p228
S'largest'
p229
S'chain'
p230
tp231
F0.012987012987012988
s(S'[[num]]'
p232
S'people'
p233
S'as'
p234
tp235
F0.012987012987012988
s(S'was'
p236
S'founded'
p237
S'[[num]]'
p238
tp239
F0.012987012987012988
s(S'employs'
p240
g232
g233
tp241
F0.025974025974025976
s(g196
g25
g26
tp242
F0.012987012987012988
s(g207
g208
S'in'
p243
tp244
F0.012987012987012988
s(g126
g127
S'in'
p245
tp246
F0.012987012987012988
s(S'was'
p247
S'founded'
p248
S'from'
p249
tp250
F0.012987012987012988
s(S'[[det]]'
p251
g206
g207
tp252
F0.012987012987012988
s.