(dp0
(S'now'
p1
S'located'
p2
S'in'
p3
tp4
F0.008547008547008548
s(S'is'
p5
S'established'
p6
S'in'
p7
tp8
F0.008547008547008548
s(S'were'
p9
S'founded'
p10
S'in'
p11
tp12
F0.008547008547008548
s(S'[[adj]]'
p13
S'facility'
p14
S'in'
p15
tp16
F0.008547008547008548
s(S'was'
p17
S'founded'
p18
S'on'
p19
tp20
F0.008547008547008548
s(S'for'
p21
S'operations'
p22
S'in'
p23
tp24
F0.008547008547008548
s(S'[[adj]]'
p25
S'based'
p26
S'in'
p27
tp28
F0.008547008547008548
s(S'[[prp]]'
p29
S'headquarters'
p30
S'at'
p31
tp32
F0.008547008547008548
s(S'were'
p33
S'based'
p34
S'in'
p35
tp36
F0.008547008547008548
s(S'is'
p37
S'located'
p38
S'of'
p39
tp40
F0.008547008547008548
s(S'[[prp]]'
p41
S'headquarters'
p42
S'in'
p43
tp44
F0.017094017094017096
s(S'[[prp]]'
p45
S'headquarters'
p46
S'from'
p47
tp48
F0.017094017094017096
s(S'has'
p49
S'offices'
p50
S'[[con]]'
p51
tp52
F0.008547008547008548
s(S'[[con]]'
p53
S'is'
p54
S'based'
p55
tp56
F0.008547008547008548
s(S'founded'
p57
S'is'
p58
S'based'
p59
tp60
F0.008547008547008548
s(S'[[adj]]'
p61
S'located'
p62
S'at'
p63
tp64
F0.008547008547008548
s(S'[[num]]'
p65
S'locations'
p66
S'in'
p67
tp68
F0.008547008547008548
s(S'[[adj]]'
p69
S'theater'
p70
S'in'
p71
tp72
F0.008547008547008548
s(S'[[adj]]'
p73
S'located'
p74
S'in'
p75
tp76
F0.008547008547008548
s(S'been'
p77
S'founded'
p78
S'in'
p79
tp80
F0.008547008547008548
s(S'[[det]]'
p81
S'facility'
p82
S'in'
p83
tp84
F0.008547008547008548
s(S'currently'
p85
S'located'
p86
S'in'
p87
tp88
F0.008547008547008548
s(S'established'
p89
S'[[con]]'
p90
S'is'
p91
tp92
F0.008547008547008548
s(S'was'
p93
S'founded'
p94
S'from'
p95
tp96
F0.008547008547008548
s(S'[[adj]]'
p97
S'company'
p98
S'based'
p99
tp100
F0.008547008547008548
s(S'moved'
p101
S'[[prp]]'
p102
S'[[adj]]'
p103
tp104
F0.017094017094017096
s(S'is'
p105
S'based'
p106
S'in'
p107
tp108
F0.02564102564102564
s(S'has'
p109
S'locations'
p110
S'in'
p111
tp112
F0.008547008547008548
s(S'[[num]]'
p113
S'based'
p114
S'in'
p115
tp116
F0.008547008547008548
s(S'[[det]]'
p117
S'founded'
p118
S'in'
p119
tp120
F0.008547008547008548
s(S'[[con]]'
p121
S'now'
p122
S'based'
p123
tp124
F0.008547008547008548
s(S'[[adj]]'
p125
S'headquarters'
p126
S'from'
p127
tp128
F0.017094017094017096
s(S'[[prp]]'
p129
S'headquarters'
p130
S'[[det]]'
p131
tp132
F0.008547008547008548
s(S'had'
p133
S'offices'
p134
S'in'
p135
tp136
F0.008547008547008548
s(S'was'
p137
g57
g58
tp138
F0.008547008547008548
s(S'[[adj]]'
p139
S'headquarters'
p140
S'in'
p141
tp142
F0.008547008547008548
s(S'founded'
p143
S'[[con]]'
p144
S'headquartered'
p145
tp146
F0.008547008547008548
s(S'[[det]]'
p147
S'theater'
p148
S'in'
p149
tp150
F0.008547008547008548
s(S'was'
p151
S'founded'
p152
S'[[det]]'
p153
tp154
F0.008547008547008548
s(S'founded'
p155
g121
g122
tp156
F0.008547008547008548
s(S'was'
p157
g155
g121
tp158
F0.03418803418803419
s(S'currently'
p159
S'headquartered'
p160
S'in'
p161
tp162
F0.008547008547008548
s(S'has'
p163
S'operations'
p164
S'in'
p165
tp166
F0.008547008547008548
s(S'is'
p167
S'headquartered'
p168
S'[[con]]'
p169
tp170
F0.008547008547008548
s(S'was'
p171
S'founded'
p172
S'[[num]]'
p173
tp174
F0.008547008547008548
s(S'[[adj]]'
p175
S'founded'
p176
S'in'
p177
tp178
F0.008547008547008548
s(S's'
p179
S'based'
p180
S'in'
p181
tp182
F0.008547008547008548
s(S'is'
p183
S'based'
p184
S'near'
p185
tp186
F0.008547008547008548
s(S'has'
p187
S'offices'
p188
S'in'
p189
tp190
F0.008547008547008548
s(S'was'
p191
S'based'
p192
S'in'
p193
tp194
F0.008547008547008548
s(S'was'
p195
S'headquartered'
p196
S'[[con]]'
p197
tp198
F0.008547008547008548
s(S'founded'
p199
g53
g54
tp200
F0.017094017094017096
s(g102
g103
S'headquarters'
p201
tp202
F0.017094017094017096
s(S'is'
p203
S'headquartered'
p204
S'with'
p205
tp206
F0.008547008547008548
s(S'[[adj]]'
p207
S'locations'
p208
S'in'
p209
tp210
F0.008547008547008548
s(g90
g91
S'headquartered'
p211
tp212
F0.017094017094017096
s(S'[[det]]'
p213
S'company'
p214
S'based'
p215
tp216
F0.008547008547008548
s(S'has'
p217
S'headquarters'
p218
S'in'
p219
tp220
F0.008547008547008548
s(S'was'
p221
S'established'
p222
S'[[num]]'
p223
tp224
F0.008547008547008548
s(S'moved'
p225
S'[[prp]]'
p226
S'headquarters'
p227
tp228
F0.03418803418803419
s(S'was'
p229
g89
g90
tp230
F0.008547008547008548
s(S'with'
p231
S'headquarters'
p232
S'in'
p233
tp234
F0.008547008547008548
s(S'[[adj]]'
p235
S'headquarters'
p236
S'to'
p237
tp238
F0.008547008547008548
s(S'[[num]]'
p239
S'located'
p240
S'in'
p241
tp242
F0.008547008547008548
s(S'be'
p243
S'based'
p244
S'in'
p245
tp246
F0.008547008547008548
s(S'was'
p247
S'located'
p248
S'in'
p249
tp250
F0.008547008547008548
s(g122
g123
S'in'
p251
tp252
F0.008547008547008548
s(S'been'
p253
S'located'
p254
S'in'
p255
tp256
F0.008547008547008548
s(S'is'
p257
S'founded'
p258
S'at'
p259
tp260
F0.008547008547008548
s(S'also'
p261
S'located'
p262
S'in'
p263
tp264
F0.008547008547008548
s(S'[[adj]]'
p265
S'offices'
p266
S'in'
p267
tp268
F0.008547008547008548
s(S'is'
p269
S'located'
p270
S'in'
p271
tp272
F0.008547008547008548
s(S'[[adj]]'
p273
S'operations'
p274
S'in'
p275
tp276
F0.008547008547008548
s(S'is'
p277
S'founded'
p278
S'in'
p279
tp280
F0.008547008547008548
s(S'also'
p281
S'based'
p282
S'in'
p283
tp284
F0.008547008547008548
s(S'with'
p285
S'offices'
p286
S'in'
p287
tp288
F0.008547008547008548
s(g179
S'operations'
p289
S'in'
p290
tp291
F0.008547008547008548
s(S'[[prp]]'
p292
S'offices'
p293
S'in'
p294
tp295
F0.008547008547008548
s(S'was'
p296
S'founded'
p297
S'in'
p298
tp299
F0.008547008547008548
s(S'is'
p300
S'headquartered'
p301
S'in'
p302
tp303
F0.02564102564102564
s(g179
S'headquarters'
p304
S'in'
p305
tp306
F0.008547008547008548
s(g179
S'located'
p307
S'in'
p308
tp309
F0.008547008547008548
s(S'[[prp]]'
p310
S'headquarters'
p311
S'to'
p312
tp313
F0.017094017094017096
s(S'was'
p314
S'established'
p315
S'on'
p316
tp317
F0.008547008547008548
s(S'has'
p318
S'established'
p319
S'[[det]]'
p320
tp321
F0.008547008547008548
s(S'[[con]]'
p322
S'headquartered'
p323
S'in'
p324
tp325
F0.017094017094017096
s(S'is'
p326
S'based'
p327
S'out'
p328
tp329
F0.008547008547008548
s(S'be'
p330
S'established'
p331
S'at'
p332
tp333
F0.008547008547008548
s(g214
g215
S'in'
p334
tp335
F0.02564102564102564
s(S'are'
p336
S'based'
p337
S'in'
p338
tp339
F0.008547008547008548
s(S'was'
p340
S'headquartered'
p341
S'in'
p342
tp343
F0.008547008547008548
s(S'[[adj]]'
p344
S'established'
p345
S'in'
p346
tp347
F0.008547008547008548
s(S'[[con]]'
p348
S'offices'
p349
S'in'
p350
tp351
F0.008547008547008548
s(S'was'
p352
S'established'
p353
S'at'
p354
tp355
F0.008547008547008548
s(S'[[con]]'
p356
S'located'
p357
S'in'
p358
tp359
F0.008547008547008548
s(S'was'
p360
S'established'
p361
S'in'
p362
tp363
F0.008547008547008548
s.