(dp0
(S'connects'
p1
S'[[det]]'
p2
S'states'
p3
tp4
F0.009433962264150943
s(S'are'
p5
S'located'
p6
S'[[det]]'
p7
tp8
F0.009433962264150943
s(S'[[adj]]'
p9
S'located'
p10
S'in'
p11
tp12
F0.009433962264150943
s(S'[[det]]'
p13
S'mountain'
p14
S'of'
p15
tp16
F0.009433962264150943
s(S'[[det]]'
p17
S'border'
p18
S'with'
p19
tp20
F0.009433962264150943
s(S'on'
p21
S'[[det]]'
p22
S'border'
p23
tp24
F0.03773584905660377
s(S'is'
p25
S'located'
p26
S'of'
p27
tp28
F0.009433962264150943
s(g22
g23
S'of'
p29
tp30
F0.03773584905660377
s(S'formerly'
p31
S'located'
p32
S'in'
p33
tp34
F0.009433962264150943
s(S'now'
p35
S'located'
p36
S'at'
p37
tp38
F0.009433962264150943
s(S'[[adj]]'
p39
S'border'
p40
S'of'
p41
tp42
F0.009433962264150943
s(S'[[det]]'
p43
S'mountain'
p44
S'[[det]]'
p45
tp46
F0.018867924528301886
s(S'[[adj]]'
p47
S'highest'
p48
S'peak'
p49
tp50
F0.009433962264150943
s(S'[[det]]'
p51
S'located'
p52
S'in'
p53
tp54
F0.009433962264150943
s(S'was'
p55
S'opened'
p56
S'[[num]]'
p57
tp58
F0.009433962264150943
s(S'is'
p59
S'located'
p60
S'[[det]]'
p61
tp62
F0.009433962264150943
s(S'was'
p63
S'opened'
p64
S'in'
p65
tp66
F0.009433962264150943
s(S'[[det]]'
p67
S'bridge'
p68
S'on'
p69
tp70
F0.009433962264150943
s(S'highest'
p71
S'point'
p72
S'of'
p73
tp74
F0.009433962264150943
s(S'[[det]]'
p75
S'bridge'
p76
S'in'
p77
tp78
F0.009433962264150943
s(S'lies'
p79
S'just'
p80
S'south'
p81
tp82
F0.009433962264150943
s(S'[[det]]'
p83
S'highest'
p84
S'mountain'
p85
tp86
F0.018867924528301886
s(S'located'
p87
g21
g22
tp88
F0.02830188679245283
s(S'longest'
p89
S'suspension'
p90
S'bridge'
p91
tp92
F0.009433962264150943
s(S'[[det]]'
p93
S'mountain'
p94
S'peak'
p95
tp96
F0.009433962264150943
s(S'crosses'
p97
S'[[det]]'
p98
S'[[adj]]'
p99
tp100
F0.009433962264150943
s(S'[[det]]'
p101
S'hill'
p102
S'in'
p103
tp104
F0.009433962264150943
s(S'crosses'
p105
S'[[det]]'
p106
S'border'
p107
tp108
F0.009433962264150943
s(S'[[adj]]'
p109
S'peak'
p110
S'in'
p111
tp112
F0.009433962264150943
s(S'are'
p113
S'located'
p114
S'in'
p115
tp116
F0.009433962264150943
s(S'[[adj]]'
p117
S'opened'
p118
S'by'
p119
tp120
F0.009433962264150943
s(S'highest'
p121
S'mountain'
p122
S'[[con]]'
p123
tp124
F0.009433962264150943
s(S'[[adj]]'
p125
S'mountain'
p126
S'range'
p127
tp128
F0.02830188679245283
s(S'[[det]]'
p129
S'mountain'
p130
S'range'
p131
tp132
F0.02830188679245283
s(S'highest'
p133
S'peak'
p134
S'[[con]]'
p135
tp136
F0.009433962264150943
s(S'[[det]]'
p137
S'highest'
p138
S'peak'
p139
tp140
F0.02830188679245283
s(S'then'
p141
S'opened'
p142
S'in'
p143
tp144
F0.009433962264150943
s(S'highest'
p145
S'point'
p146
S'[[det]]'
p147
tp148
F0.018867924528301886
s(S'[[adj]]'
p149
S'mountains'
p150
S'in'
p151
tp152
F0.009433962264150943
s(g135
S'highest'
p153
S'point'
p154
tp155
F0.009433962264150943
s(g98
g99
S'border'
p156
tp157
F0.009433962264150943
s(S'mountain'
p158
S'located'
p159
S'in'
p160
tp161
F0.009433962264150943
s(S'lies'
p162
S'on'
p163
S'[[det]]'
p164
tp165
F0.009433962264150943
s(g94
g95
S'in'
p166
tp167
F0.009433962264150943
s(S'[[adj]]'
p168
S'highest'
p169
S'mountain'
p170
tp171
F0.009433962264150943
s(S'mountain'
p172
S'[[det]]'
p173
S'border'
p174
tp175
F0.018867924528301886
s(S'[[det]]'
p176
g89
g90
tp177
F0.009433962264150943
s(S'[[det]]'
p178
S'border'
p179
S'between'
p180
tp181
F0.04716981132075472
s(S'mountain'
p182
S'range'
p183
S'in'
p184
tp185
F0.018867924528301886
s(g134
g135
g153
tp186
F0.009433962264150943
s(S'was'
p187
S'located'
p188
S'just'
p189
tp190
F0.009433962264150943
s(S'is'
p191
g87
g21
tp192
F0.018867924528301886
s(S'is'
p193
S'located'
p194
S'in'
p195
tp196
F0.009433962264150943
s(S'highest'
p197
S'point'
p198
S'in'
p199
tp200
F0.009433962264150943
s(S'[[det]]'
p201
g197
g198
tp202
F0.02830188679245283
s(S'[[adj]]'
p203
S'mountain'
p204
S'in'
p205
tp206
F0.009433962264150943
s(g90
g91
S'in'
p207
tp208
F0.009433962264150943
s(S'is'
p209
S'opened'
p210
S'in'
p211
tp212
F0.009433962264150943
s(g2
g3
S'of'
p213
tp214
F0.009433962264150943
s(S'was'
p215
S'opened'
p216
S'between'
p217
tp218
F0.009433962264150943
s(S'was'
p219
S'located'
p220
S'[[adj]]'
p221
tp222
F0.009433962264150943
s(g80
g81
S'[[det]]'
p223
tp224
F0.009433962264150943
s(S'mountain'
p225
S'located'
p226
S'on'
p227
tp228
F0.009433962264150943
s(S'stratovolcano'
p229
S'located'
p230
S'in'
p231
tp232
F0.009433962264150943
s(S'[[det]]'
p233
S'mountain'
p234
S'located'
p235
tp236
F0.02830188679245283
s(S'[[adj]]'
p237
S'mountain'
p238
S'[[det]]'
p239
tp240
F0.009433962264150943
s(S'was'
p241
S'located'
p242
S'in'
p243
tp244
F0.009433962264150943
s(g169
g170
S'in'
p245
tp246
F0.018867924528301886
s(g126
g127
S'[[det]]'
p247
tp248
F0.018867924528301886
s(g48
g49
S'in'
p249
tp250
F0.018867924528301886
s(S'[[det]]'
p251
g229
g230
tp252
F0.009433962264150943
s(S'[[det]]'
p253
S'bridge'
p254
S'across'
p255
tp256
F0.009433962264150943
s(S'[[adj]]'
p257
S'bridge'
p258
S'in'
p259
tp260
F0.009433962264150943
s(S'[[det]]'
p261
S'border'
p262
S'in'
p263
tp264
F0.009433962264150943
s(g99
g156
S'between'
p265
tp266
F0.009433962264150943
s.