(dp0
(S'[[mod]]'
p1
S'serve'
p2
S'as'
p3
tp4
F0.004016064257028112
s(S'be'
p5
S'appointed'
p6
S'[[det]]'
p7
tp8
F0.004016064257028112
s(S'[[adj]]'
p9
S'stand'
p10
S'with'
p11
tp12
F0.004016064257028112
s(S'been'
p13
S'nominated'
p14
S'[[con]]'
p15
tp16
F0.004016064257028112
s(S'is'
p17
S'appointed'
p18
S'as'
p19
tp20
F0.004016064257028112
s(S'[[con]]'
p21
S'supporter'
p22
S'of'
p23
tp24
F0.004016064257028112
s(S'being'
p25
S'appointed'
p26
S'to'
p27
tp28
F0.004016064257028112
s(S'to'
p29
S'stand'
p30
S'down'
p31
tp32
F0.004016064257028112
s(S'again'
p33
S'nominated'
p34
S'for'
p35
tp36
F0.004016064257028112
s(S'was'
p37
S'knighted'
p38
S'in'
p39
tp40
F0.004016064257028112
s(S'was'
p41
S'appointed'
p42
S'[[con]]'
p43
tp44
F0.004016064257028112
s(S'had'
p45
S'appointed'
p46
S'to'
p47
tp48
F0.004016064257028112
s(S'has'
p49
S'presented'
p50
S'with'
p51
tp52
F0.004016064257028112
s(S'then'
p53
S'appointed'
p54
S'by'
p55
tp56
F0.004016064257028112
s(S'also'
p57
S'advised'
p58
S'by'
p59
tp60
F0.004016064257028112
s(S'were'
p61
S'appointed'
p62
S'by'
p63
tp64
F0.004016064257028112
s(S'where'
p65
S'met'
p66
S'with'
p67
tp68
F0.004016064257028112
s(S'had'
p69
S'appointed'
p70
S'in'
p71
tp72
F0.004016064257028112
s(S'was'
p73
S'returned'
p74
S'for'
p75
tp76
F0.004016064257028112
s(S'is'
p77
S'appointed'
p78
S'after'
p79
tp80
F0.004016064257028112
s(S'was'
p81
S'informed'
p82
S'that'
p83
tp84
F0.004016064257028112
s(S'been'
p85
S'appointed'
p86
S'to'
p87
tp88
F0.004016064257028112
s(S'later'
p89
S'appointed'
p90
S'[[con]]'
p91
tp92
F0.004016064257028112
s(S'been'
p93
S'nominated'
p94
S'as'
p95
tp96
F0.004016064257028112
s(S'[[con]]'
p97
S'serves'
p98
S'as'
p99
tp100
F0.004016064257028112
s(S'twice'
p101
S'nominated'
p102
S'[[con]]'
p103
tp104
F0.004016064257028112
s(S'also'
p105
S'presented'
p106
S'with'
p107
tp108
F0.004016064257028112
s(S'to'
p109
S'stand'
p110
S'as'
p111
tp112
F0.004016064257028112
s(S'was'
p113
S'appointed'
p114
S'by'
p115
tp116
F0.004016064257028112
s(S'served'
p117
S'during'
p118
S'[[det]]'
p119
tp120
F0.008032128514056224
s(S'had'
p121
S'met'
p122
S'with'
p123
tp124
F0.004016064257028112
s(S'formally'
p125
S'appointed'
p126
S'as'
p127
tp128
F0.004016064257028112
s(S'has'
p129
S'met'
p130
S'with'
p131
tp132
F0.004016064257028112
s(S'been'
p133
S'informed'
p134
S'by'
p135
tp136
F0.004016064257028112
s(S'[[det]]'
p137
S'supporter'
p138
S'[[con]]'
p139
tp140
F0.004016064257028112
s(S'was'
p141
S'returned'
p142
S'as'
p143
tp144
F0.004016064257028112
s(S'later'
p145
S'appointed'
p146
S'as'
p147
tp148
F0.004016064257028112
s(S'later'
p149
S'appointed'
p150
S'[[det]]'
p151
tp152
F0.004016064257028112
s(S'to'
p153
S'serve'
p154
S'[[adj]]'
p155
tp156
F0.004016064257028112
s(S'[[con]]'
p157
S'appointed'
p158
S'[[pro]]'
p159
tp160
F0.004016064257028112
s(S'then'
p161
S'appointed'
p162
S'to'
p163
tp164
F0.004016064257028112
s(S'is'
p165
S'presented'
p166
S'as'
p167
tp168
F0.004016064257028112
s(S'had'
p169
S'met'
p170
S'when'
p171
tp172
F0.004016064257028112
s(S'been'
p173
S'nominated'
p174
S'with'
p175
tp176
F0.004016064257028112
s(S'then'
p177
S'asks'
p178
S'if'
p179
tp180
F0.004016064257028112
s(S'been'
p181
S'nominated'
p182
S'on'
p183
tp184
F0.004016064257028112
s(S'[[con]]'
p185
S'met'
p186
S'up'
p187
tp188
F0.004016064257028112
s(S'was'
p189
S'presented'
p190
S'as'
p191
tp192
F0.004016064257028112
s(S'being'
p193
S'appointed'
p194
S'by'
p195
tp196
F0.004016064257028112
s(S'was'
p197
S'sworn'
p198
S'[[con]]'
p199
tp200
F0.004016064257028112
s(S'was'
p201
S'appointed'
p202
S'under'
p203
tp204
F0.004016064257028112
s(S'later'
p205
S'appointed'
p206
S'by'
p207
tp208
F0.004016064257028112
s(S'been'
p209
S'appointed'
p210
S'as'
p211
tp212
F0.004016064257028112
s(S'been'
p213
S'appointed'
p214
S'by'
p215
tp216
F0.004016064257028112
s(S'to'
p217
S'serve'
p218
S'when'
p219
tp220
F0.004016064257028112
s(S'has'
p221
S'presented'
p222
S'[[det]]'
p223
tp224
F0.004016064257028112
s(S'then'
p225
S'returned'
p226
S'as'
p227
tp228
F0.004016064257028112
s(S'was'
p229
S'informed'
p230
S'of'
p231
tp232
F0.004016064257028112
s(S'[[prp]]'
p233
S'resignation'
p234
S'as'
p235
tp236
F0.004016064257028112
s(S'[[prp]]'
p237
S'resignation'
p238
S'to'
p239
tp240
F0.008032128514056224
s(S'formally'
p241
S'appointed'
p242
S'by'
p243
tp244
F0.004016064257028112
s(S'where'
p245
S'met'
p246
S'[[det]]'
p247
tp248
F0.004016064257028112
s(S'been'
p249
S'nominated'
p250
S'[[det]]'
p251
tp252
F0.004016064257028112
s(S'[[mod]]'
p253
S'serve'
p254
S'with'
p255
tp256
F0.004016064257028112
s(S'to'
p257
S'serve'
p258
S'[[det]]'
p259
tp260
F0.004016064257028112
s(S'also'
p261
S'serves'
p262
S'[[con]]'
p263
tp264
F0.004016064257028112
s(S'later'
p265
S'served'
p266
S'during'
p267
tp268
F0.004016064257028112
s(S'been'
p269
S'nominated'
p270
S'[[num]]'
p271
tp272
F0.004016064257028112
s(S'was'
p273
S'nominated'
p274
S'at'
p275
tp276
F0.004016064257028112
s(S'to'
p277
S'serve'
p278
S'until'
p279
tp280
F0.004016064257028112
s(S'be'
p281
S'presented'
p282
S'to'
p283
tp284
F0.004016064257028112
s(S'[[con]]'
p285
S'met'
p286
S'[[det]]'
p287
tp288
F0.004016064257028112
s(S'[[con]]'
p289
S'returned'
p290
S'as'
p291
tp292
F0.004016064257028112
s(S'is'
p293
S'nominated'
p294
S'for'
p295
tp296
F0.004016064257028112
s(S'is'
p297
S'appointed'
p298
S'[[det]]'
p299
tp300
F0.004016064257028112
s(S'[[adj]]'
p301
S'met'
p302
S'[[det]]'
p303
tp304
F0.004016064257028112
s(S'[[con]]'
p305
S'met'
p306
S'[[adj]]'
p307
tp308
F0.004016064257028112
s(S'was'
p309
S'presented'
p310
S'by'
p311
tp312
F0.004016064257028112
s(S'[[adj]]'
p313
S'stand'
p314
S'up'
p315
tp316
F0.004016064257028112
s(S'was'
p317
S'nominated'
p318
S'for'
p319
tp320
F0.004016064257028112
s(S'now'
p321
S'serves'
p322
S'[[con]]'
p323
tp324
F0.004016064257028112
s(S'to'
p325
S'serve'
p326
S'after'
p327
tp328
F0.004016064257028112
s(S'being'
p329
S'appointed'
p330
S'[[det]]'
p331
tp332
F0.004016064257028112
s(S'currently'
p333
S'serves'
p334
S'to'
p335
tp336
F0.004016064257028112
s(S'had'
p337
S'met'
p338
S'while'
p339
tp340
F0.004016064257028112
s(S'who'
p341
S'appointed'
p342
S'[[det]]'
p343
tp344
F0.004016064257028112
s(S'was'
p345
S'dismissed'
p346
S'[[con]]'
p347
tp348
F0.004016064257028112
s(S'to'
p349
S'serve'
p350
S'as'
p351
tp352
F0.004016064257028112
s(S'also'
p353
S'met'
p354
S'[[det]]'
p355
tp356
F0.004016064257028112
s(S'also'
p357
S'appointed'
p358
S'[[con]]'
p359
tp360
F0.004016064257028112
s(S'was'
p361
S'knighted'
p362
S'[[con]]'
p363
tp364
F0.004016064257028112
s(S'offered'
p365
g237
g238
tp366
F0.004016064257028112
s(S'where'
p367
S'met'
p368
S'[[adj]]'
p369
tp370
F0.004016064257028112
s(S'is'
p371
S'nominated'
p372
S'by'
p373
tp374
F0.004016064257028112
s(S'also'
p375
S'returned'
p376
S'with'
p377
tp378
F0.004016064257028112
s(S'was'
p379
S'sworn'
p380
S'in'
p381
tp382
F0.004016064257028112
s(S'[[adj]]'
p383
S'supporter'
p384
S'[[con]]'
p385
tp386
F0.004016064257028112
s(S'had'
p387
S'nominated'
p388
S'[[con]]'
p389
tp390
F0.004016064257028112
s(S'[[con]]'
p391
S'appointed'
p392
S'as'
p393
tp394
F0.004016064257028112
s(S'first'
p395
S'met'
p396
S'[[con]]'
p397
tp398
F0.004016064257028112
s(S'was'
p399
S'presented'
p400
S'[[con]]'
p401
tp402
F0.004016064257028112
s(S'[[con]]'
p403
S'returned'
p404
S'under'
p405
tp406
F0.004016064257028112
s(S'[[mod]]'
p407
S'serve'
p408
S'in'
p409
tp410
F0.004016064257028112
s(S'soon'
p411
S'returned'
p412
S'[[con]]'
p413
tp414
F0.004016064257028112
s(S'be'
p415
S'appointed'
p416
S'to'
p417
tp418
F0.004016064257028112
s(S'also'
p419
S'nominated'
p420
S'twice'
p421
tp422
F0.004016064257028112
s(S'[[adj]]'
p423
S'appointed'
p424
S'by'
p425
tp426
F0.004016064257028112
s(S'was'
p427
S'nominated'
p428
S'again'
p429
tp430
F0.004016064257028112
s(S'also'
p431
S'nominated'
p432
S'to'
p433
tp434
F0.004016064257028112
s(S'was'
p435
S'dismissed'
p436
S'by'
p437
tp438
F0.004016064257028112
s(S'where'
p439
S'serves'
p440
S'as'
p441
tp442
F0.004016064257028112
s(S'to'
p443
S'serve'
p444
S'[[con]]'
p445
tp446
F0.004016064257028112
s(S'also'
p447
S'appointed'
p448
S'by'
p449
tp450
F0.004016064257028112
s(S'also'
p451
S'serves'
p452
S'as'
p453
tp454
F0.004016064257028112
s(S'first'
p455
S'met'
p456
S'at'
p457
tp458
F0.004016064257028112
s(S'where'
p459
S'met'
p460
S'[[con]]'
p461
tp462
F0.004016064257028112
s(S'was'
p463
S'advised'
p464
S'by'
p465
tp466
F0.004016064257028112
s(g119
S'reigns'
p467
S'of'
p468
tp469
F0.008032128514056224
s(S'first'
p470
S'appointed'
p471
S'by'
p472
tp473
F0.004016064257028112
s(S'had'
p474
S'requested'
p475
S'that'
p476
tp477
F0.004016064257028112
s(S'had'
p478
S'appointed'
p479
S'as'
p480
tp481
F0.004016064257028112
s(S'later'
p482
S'appointed'
p483
S'of'
p484
tp485
F0.004016064257028112
s(S'to'
p486
S'stand'
p487
S'at'
p488
tp489
F0.004016064257028112
s(S'was'
p490
S'nominated'
p491
S'with'
p492
tp493
F0.004016064257028112
s(S'was'
p494
S'nominated'
p495
S'[[det]]'
p496
tp497
F0.004016064257028112
s(S'was'
p498
S'informed'
p499
S'by'
p500
tp501
F0.004016064257028112
s(S'[[det]]'
p502
S'appointed'
p503
S'[[con]]'
p504
tp505
F0.004016064257028112
s(S'also'
p506
S'met'
p507
S'[[con]]'
p508
tp509
F0.004016064257028112
s(S'also'
p510
S'nominated'
p511
S'on'
p512
tp513
F0.004016064257028112
s(S'[[con]]'
p514
S'met'
p515
S'[[con]]'
p516
tp517
F0.004016064257028112
s(S'is'
p518
S'returned'
p519
S'to'
p520
tp521
F0.004016064257028112
s(S'to'
p522
S'stand'
p523
S'in'
p524
tp525
F0.004016064257028112
s(S'later'
p526
S'met'
p527
S'with'
p528
tp529
F0.004016064257028112
s(S'then'
p530
S'asks'
p531
S'to'
p532
tp533
F0.004016064257028112
s(S'then'
p534
S'met'
p535
S'with'
p536
tp537
F0.004016064257028112
s(S'also'
p538
S'appointed'
p539
S'as'
p540
tp541
F0.004016064257028112
s(S'was'
p542
S'nominated'
p543
S'by'
p544
tp545
F0.004016064257028112
s(S'be'
p546
S'nominated'
p547
S'as'
p548
tp549
F0.004016064257028112
s(S'to'
p550
S'serve'
p551
S'[[num]]'
p552
tp553
F0.004016064257028112
s(S'be'
p554
S'nominated'
p555
S'for'
p556
tp557
F0.004016064257028112
s(S'was'
p558
S'nominated'
p559
S'[[num]]'
p560
tp561
F0.004016064257028112
s(S'was'
p562
S'appointed'
p563
S'[[adj]]'
p564
tp565
F0.004016064257028112
s(S'twice'
p566
S'nominated'
p567
S'[[det]]'
p568
tp569
F0.004016064257028112
s(S'now'
p570
S'serves'
p571
S'as'
p572
tp573
F0.004016064257028112
s(S'been'
p574
S'dismissed'
p575
S'by'
p576
tp577
F0.004016064257028112
s(S'[[det]]'
p578
S'appointed'
p579
S'by'
p580
tp581
F0.004016064257028112
s(S'also'
p582
S'serve'
p583
S'as'
p584
tp585
F0.004016064257028112
s(S'also'
p586
S'presented'
p587
S'by'
p588
tp589
F0.004016064257028112
s(S'been'
p590
S'nominated'
p591
S'in'
p592
tp593
F0.004016064257028112
s(S'[[adj]]'
p594
S'presented'
p595
S'by'
p596
tp597
F0.004016064257028112
s(S'to'
p598
S'serve'
p599
S'under'
p600
tp601
F0.004016064257028112
s(S'also'
p602
S'nominated'
p603
S'in'
p604
tp605
F0.004016064257028112
s(S'also'
p606
S'nominated'
p607
S'as'
p608
tp609
F0.004016064257028112
s(S'[[adj]]'
p610
S'supporter'
p611
S'of'
p612
tp613
F0.004016064257028112
s(S'be'
p614
S'appointed'
p615
S'as'
p616
tp617
F0.004016064257028112
s(S'also'
p618
S'met'
p619
S'with'
p620
tp621
F0.004016064257028112
s(S'[[det]]'
p622
S'supporter'
p623
S'[[det]]'
p624
tp625
F0.004016064257028112
s(S'to'
p626
S'stand'
p627
S'against'
p628
tp629
F0.004016064257028112
s(S'been'
p630
S'nominated'
p631
S'twice'
p632
tp633
F0.004016064257028112
s(S'[[mod]]'
p634
S'serve'
p635
S'to'
p636
tp637
F0.004016064257028112
s(S'was'
p638
S'nominated'
p639
S'[[con]]'
p640
tp641
F0.004016064257028112
s(S'later'
p642
S'returned'
p643
S'with'
p644
tp645
F0.004016064257028112
s(S'who'
p646
S'serves'
p647
S'as'
p648
tp649
F0.004016064257028112
s(S'again'
p650
S'appointed'
p651
S'[[det]]'
p652
tp653
F0.004016064257028112
s(g118
g119
g467
tp654
F0.008032128514056224
s(S'was'
p655
S'dismissed'
p656
S'as'
p657
tp658
F0.004016064257028112
s(S'was'
p659
S'appointed'
p660
S'first'
p661
tp662
F0.004016064257028112
s(S'to'
p663
S'stand'
p664
S'by'
p665
tp666
F0.004016064257028112
s(S'also'
p667
S'met'
p668
S'from'
p669
tp670
F0.004016064257028112
s(S'be'
p671
S'appointed'
p672
S'[[con]]'
p673
tp674
F0.004016064257028112
s(S'being'
p675
S'appointed'
p676
S'as'
p677
tp678
F0.004016064257028112
s(S'is'
p679
S'informed'
p680
S'by'
p681
tp682
F0.004016064257028112
s(S'also'
p683
S'met'
p684
S'[[prp]]'
p685
tp686
F0.004016064257028112
s(S'currently'
p687
S'serves'
p688
S'[[con]]'
p689
tp690
F0.004016064257028112
s(S'soon'
p691
S'met'
p692
S'[[con]]'
p693
tp694
F0.004016064257028112
s(S'were'
p695
S'nominated'
p696
S'for'
p697
tp698
F0.004016064257028112
s(S'then'
p699
S'appointed'
p700
S'[[det]]'
p701
tp702
F0.004016064257028112
s(S'has'
p703
S'met'
p704
S'[[con]]'
p705
tp706
F0.004016064257028112
s(S'[[mod]]'
p707
S'serve'
p708
S'under'
p709
tp710
F0.004016064257028112
s(S'also'
p711
S'appointed'
p712
S'[[adj]]'
p713
tp714
F0.004016064257028112
s(S'was'
p715
S'appointed'
p716
S'when'
p717
tp718
F0.004016064257028112
s(S'was'
p719
S'nominated'
p720
S'as'
p721
tp722
F0.004016064257028112
s(S'[[adj]]'
p723
S'met'
p724
S'while'
p725
tp726
F0.004016064257028112
s(S'was'
p727
S'appointed'
p728
S'before'
p729
tp730
F0.004016064257028112
s(S'twice'
p731
S'nominated'
p732
S'for'
p733
tp734
F0.004016064257028112
s(S'also'
p735
S'appointed'
p736
S'[[det]]'
p737
tp738
F0.004016064257028112
s(S'was'
p739
S'nominated'
p740
S'twice'
p741
tp742
F0.004016064257028112
s(S'[[con]]'
p743
S'met'
p744
S'with'
p745
tp746
F0.004016064257028112
s(S'[[num]]'
p747
S'appointed'
p748
S'by'
p749
tp750
F0.004016064257028112
s(S'was'
p751
S'appointed'
p752
S'[[prp]]'
p753
tp754
F0.004016064257028112
s(S'was'
p755
S'appointed'
p756
S'[[det]]'
p757
tp758
F0.004016064257028112
s(S'be'
p759
S'appointed'
p760
S'by'
p761
tp762
F0.004016064257028112
s(S'first'
p763
S'met'
p764
S'with'
p765
tp766
F0.004016064257028112
s(S'was'
p767
S'appointed'
p768
S'after'
p769
tp770
F0.004016064257028112
s(S'also'
p771
S'nominated'
p772
S'by'
p773
tp774
F0.004016064257028112
s(S'was'
p775
S'nominated'
p776
S'on'
p777
tp778
F0.004016064257028112
s(S'had'
p779
S'appointed'
p780
S'[[det]]'
p781
tp782
F0.004016064257028112
s(S'was'
p783
S'nominated'
p784
S'in'
p785
tp786
F0.004016064257028112
s(S'had'
p787
S'met'
p788
S'through'
p789
tp790
F0.004016064257028112
s(S'had'
p791
S'met'
p792
S'[[det]]'
p793
tp794
F0.004016064257028112
s(S'later'
p795
S'serve'
p796
S'as'
p797
tp798
F0.004016064257028112
s(S'first'
p799
S'appointed'
p800
S'when'
p801
tp802
F0.004016064257028112
s(S'was'
p803
S'appointed'
p804
S'as'
p805
tp806
F0.004016064257028112
s(S'is'
p807
S'sworn'
p808
S'in'
p809
tp810
F0.004016064257028112
s(S'was'
p811
S'appointed'
p812
S'with'
p813
tp814
F0.004016064257028112
s(S'first'
p815
S'met'
p816
S'[[det]]'
p817
tp818
F0.004016064257028112
s(S'been'
p819
S'nominated'
p820
S'for'
p821
tp822
F0.004016064257028112
s(S'currently'
p823
S'serves'
p824
S'as'
p825
tp826
F0.004016064257028112
s(S'is'
p827
S'appointed'
p828
S'to'
p829
tp830
F0.004016064257028112
s(S'also'
p831
S'nominated'
p832
S'for'
p833
tp834
F0.004016064257028112
s(S'being'
p835
S'nominated'
p836
S'by'
p837
tp838
F0.004016064257028112
s(S'is'
p839
S'appointed'
p840
S'by'
p841
tp842
F0.004016064257028112
s(S'to'
p843
S'stand'
p844
S'up'
p845
tp846
F0.004016064257028112
s(S'also'
p847
S'met'
p848
S'[[adj]]'
p849
tp850
F0.004016064257028112
s(S'have'
p851
S'met'
p852
S'with'
p853
tp854
F0.004016064257028112
s(S'was'
p855
S'presented'
p856
S'with'
p857
tp858
F0.004016064257028112
s(S'first'
p859
S'met'
p860
S'when'
p861
tp862
F0.004016064257028112
s(S'was'
p863
S'knighted'
p864
S'by'
p865
tp866
F0.004016064257028112
s(S'to'
p867
S'stand'
p868
S'for'
p869
tp870
F0.004016064257028112
s(S'was'
p871
g125
g126
tp872
F0.008032128514056224
s(S'was'
p873
S'nominated'
p874
S'to'
p875
tp876
F0.004016064257028112
s(S'then'
p877
S'appointed'
p878
S'as'
p879
tp880
F0.004016064257028112
s(S'was'
p881
S'appointed'
p882
S'where'
p883
tp884
F0.004016064257028112
s(S'was'
p885
S'nominated'
p886
S'of'
p887
tp888
F0.004016064257028112
s(S'been'
p889
S'nominated'
p890
S'by'
p891
tp892
F0.004016064257028112
s(S'is'
p893
S'met'
p894
S'by'
p895
tp896
F0.004016064257028112
s(S'[[con]]'
p897
S'appointed'
p898
S'[[det]]'
p899
tp900
F0.004016064257028112
s(S'was'
p901
S'met'
p902
S'by'
p903
tp904
F0.004016064257028112
s(S'was'
p905
S'nominated'
p906
S'[[adj]]'
p907
tp908
F0.004016064257028112
s(S'instead'
p909
S'appointed'
p910
S'as'
p911
tp912
F0.004016064257028112
s(S'was'
p913
S'presented'
p914
S'to'
p915
tp916
F0.004016064257028112
s(S'is'
p917
S'appointed'
p918
S'[[con]]'
p919
tp920
F0.004016064257028112
s(S'then'
p921
S'appointed'
p922
S'[[con]]'
p923
tp924
F0.004016064257028112
s(S'[[det]]'
p925
S'supporter'
p926
S'of'
p927
tp928
F0.004016064257028112
s(S'first'
p929
S'appointed'
p930
S'in'
p931
tp932
F0.004016064257028112
s(S'again'
p933
S'appointed'
p934
S'as'
p935
tp936
F0.004016064257028112
s(S'was'
p937
S'requested'
p938
S'by'
p939
tp940
F0.004016064257028112
s(S'tendered'
p941
g233
g234
tp942
F0.008032128514056224
s(S'then'
p943
S'returned'
p944
S'where'
p945
tp946
F0.004016064257028112
s(S'also'
p947
S'nominated'
p948
S'[[det]]'
p949
tp950
F0.004016064257028112
s(S'had'
p951
S'met'
p952
S'[[con]]'
p953
tp954
F0.004016064257028112
s(S'have'
p955
S'met'
p956
S'[[con]]'
p957
tp958
F0.004016064257028112
s(S'[[con]]'
p959
S'returned'
p960
S'with'
p961
tp962
F0.004016064257028112
s.