(dp0
(S'highest'
p1
S'peak'
p2
S'of'
p3
tp4
F0.1111111111111111
s(S'[[det]]'
p5
S'highest'
p6
S'mountain'
p7
tp8
F0.07407407407407407
s(S'[[con]]'
p9
S'[[adj]]'
p10
S'highest'
p11
tp12
F0.037037037037037035
s(g6
g7
S'of'
p13
tp14
F0.037037037037037035
s(S'[[adj]]'
p15
S'highest'
p16
S'[[adj]]'
p17
tp18
F0.037037037037037035
s(S'highest'
p19
S'[[adj]]'
p20
g1
tp21
F0.037037037037037035
s(S'[[det]]'
p22
S'highest'
p23
g9
tp24
F0.037037037037037035
s(S'[[adj]]'
p25
S'highest'
p26
S'mountain'
p27
tp28
F0.037037037037037035
s(S'stratovolcano'
p29
S'located'
p30
S'in'
p31
tp32
F0.037037037037037035
s(g23
g9
g10
tp33
F0.037037037037037035
s(S'[[adj]]'
p34
S'peak'
p35
S'in'
p36
tp37
F0.037037037037037035
s(g16
g17
S'mountain'
p38
tp39
F0.037037037037037035
s(S'[[adj]]'
p40
S'highest'
p41
S'peak'
p42
tp43
F0.1111111111111111
s(S'[[adj]]'
p44
S'peak'
p45
S'of'
p46
tp47
F0.037037037037037035
s(S'highest'
p48
S'peak'
p49
S'in'
p50
tp51
F0.037037037037037035
s(S'[[det]]'
p52
S'highest'
p53
S'peak'
p54
tp55
F0.1111111111111111
s(S'[[det]]'
p56
g29
g30
tp57
F0.037037037037037035
s(S'[[det]]'
p58
g19
g20
tp59
F0.037037037037037035
s(S'soon'
p60
S'fell'
p61
S'with'
p62
tp63
F0.037037037037037035
s(S'[[det]]'
p64
S'mountain'
p65
S'in'
p66
tp67
F0.037037037037037035
s.