(dp0
(S'[[det]]'
p1
S'boundary'
p2
S'with'
p3
tp4
F0.05263157894736842
s(S'forms'
p5
S'[[det]]'
p6
S'[[adj]]'
p7
tp8
F0.05263157894736842
s(S'[[det]]'
p9
S'river'
p10
S'on'
p11
tp12
F0.05263157894736842
s(S'[[adj]]'
p13
S'river'
p14
S'in'
p15
tp16
F0.05263157894736842
s(S'[[det]]'
p17
S'river'
p18
S'[[det]]'
p19
tp20
F0.05263157894736842
s(S'[[det]]'
p21
S'river'
p22
S'[[con]]'
p23
tp24
F0.05263157894736842
s(S'[[det]]'
p25
S'longest'
p26
S'river'
p27
tp28
F0.05263157894736842
s(g7
S'boundary'
p29
S'between'
p30
tp31
F0.05263157894736842
s(S'[[det]]'
p32
S'boundary'
p33
S'between'
p34
tp35
F0.05263157894736842
s(S'forms'
p36
g1
g2
tp37
F0.15789473684210525
s(S'[[adj]]'
p38
S'longest'
p39
S'river'
p40
tp41
F0.05263157894736842
s(g26
g27
S'in'
p42
tp43
F0.10526315789473684
s(S'[[det]]'
p44
S'river'
p45
S'in'
p46
tp47
F0.05263157894736842
s(g6
g7
g29
tp48
F0.05263157894736842
s(S'[[det]]'
p49
S'river'
p50
S'of'
p51
tp52
F0.05263157894736842
s(S'[[adj]]'
p53
S'river'
p54
S'of'
p55
tp56
F0.05263157894736842
s.