(dp0
(S'then'
p1
S'joins'
p2
S'[[det]]'
p3
tp4
F0.0625
s(S'in'
p5
S'[[adj]]'
p6
S'direction'
p7
tp8
F0.0625
s(S'where'
p9
S'joins'
p10
S'[[det]]'
p11
tp12
F0.125
s(S'[[det]]'
p13
S'tributary'
p14
S'[[det]]'
p15
tp16
F0.0625
s(S'[[det]]'
p17
S'tributary'
p18
S'[[con]]'
p19
tp20
F0.0625
s(S'then'
p21
S'flows'
p22
g9
tp23
F0.0625
s(S'[[con]]'
p24
S'joins'
p25
S'[[det]]'
p26
tp27
F0.125
s(S'flows'
p28
g5
g6
tp29
F0.0625
s(g22
g9
g10
tp30
F0.0625
s(S'flows'
p31
g24
g25
tp32
F0.0625
s(S'which'
p33
S'joins'
p34
S'[[det]]'
p35
tp36
F0.0625
s(S'[[adj]]'
p37
S'tributary'
p38
S'[[det]]'
p39
tp40
F0.0625
s(S'[[det]]'
p41
S'tributary'
p42
S'of'
p43
tp44
F0.0625
s(S'[[adj]]'
p45
S'tributary'
p46
S'of'
p47
tp48
F0.0625
s.