(dp0
(S'[[con]]'
p1
S'lyrics'
p2
S'by'
p3
tp4
F0.2
s(S'[[con]]'
p5
S'music'
p6
S'by'
p7
tp8
F0.06666666666666667
s(S'with'
p9
S'music'
p10
S'by'
p11
tp12
F0.06666666666666667
s(S'lyrics'
p13
g5
g6
tp14
F0.06666666666666667
s(S'[[adj]]'
p15
S'music'
p16
S'by'
p17
tp18
F0.06666666666666667
s(S'[[det]]'
p19
S'lyrics'
p20
S'music'
p21
tp22
F0.06666666666666667
s(S'with'
p23
S'lyrics'
p24
S'by'
p25
tp26
F0.06666666666666667
s(S'[[adj]]'
p27
S'lyrics'
p28
S'by'
p29
tp30
F0.06666666666666667
s(S'music'
p31
S'[[con]]'
p32
S'lyrics'
p33
tp34
F0.13333333333333333
s(S'[[adj]]'
p35
g31
g32
tp36
F0.06666666666666667
s(g20
g21
S'by'
p37
tp38
F0.06666666666666667
s(S'[[adj]]'
p39
g13
g5
tp40
F0.06666666666666667
s.