(dp0
(S'comedy'
p1
S'film'
p2
S'produced'
p3
tp4
F0.001037344398340249
s(S'also'
p5
S'known'
p6
S'as'
p7
tp8
F0.0005186721991701245
s(S'road'
p9
S'movie'
p10
S'directed'
p11
tp12
F0.001037344398340249
s(S'released'
p13
S'in'
p14
S'[[num]]'
p15
tp16
F0.0005186721991701245
s(S'thriller'
p17
S'film'
p18
S'starring'
p19
tp20
F0.005186721991701245
s(S'[[num]]'
p21
S'crime'
p22
S'film'
p23
tp24
F0.006742738589211619
s(S'television'
p25
S'drama'
p26
S'film'
p27
tp28
F0.0005186721991701245
s(S'horror'
p29
S'film'
p30
S'starring'
p31
tp32
F0.0036307053941908715
s(S'by'
p33
S'produced'
p34
S'[[con]]'
p35
tp36
F0.0005186721991701245
s(S'directed'
p37
S'starring'
p38
S'[[con]]'
p39
tp40
F0.005186721991701245
s(S'[[adj]]'
p41
S'hosted'
p42
S'by'
p43
tp44
F0.0005186721991701245
s(S'thriller'
p45
S'film'
p46
S'directed'
p47
tp48
F0.011410788381742738
s(S'is'
p49
S'[[num]]'
p50
g25
tp51
F0.0005186721991701245
s(S'comedy'
p52
S'film'
p53
S'featuring'
p54
tp55
F0.0015560165975103733
s(S'mystery'
p56
S'film'
p57
S'starring'
p58
tp59
F0.0005186721991701245
s(S'feature'
p60
S'film'
p61
S'starring'
p62
tp63
F0.0036307053941908715
s(S'[[num]]'
p64
S'film'
p65
S'[[adj]]'
p66
tp67
F0.0005186721991701245
s(S'film'
p68
S'directed'
p69
S'written'
p70
tp71
F0.005186721991701245
s(S'gentleman'
p72
S'[[num]]'
p73
S'movie'
p74
tp75
F0.0005186721991701245
s(S'produced'
p76
S'by'
p77
S'starring'
p78
tp79
F0.0005186721991701245
s(S'[[adj]]'
p80
S'arts'
p81
S'film'
p82
tp83
F0.0015560165975103733
s(S'[[det]]'
p84
S'feature'
p85
S'film'
p86
tp87
F0.002074688796680498
s(S'film'
p88
S'directed'
p89
S'by'
p90
tp91
F0.06275933609958506
s(S'was'
p92
S'directed'
p93
S'produced'
p94
tp95
F0.0005186721991701245
s(S'is'
p96
g80
g81
tp97
F0.0005186721991701245
s(S'adapted'
p98
S'[[num]]'
p99
S'movie'
p100
tp101
F0.0005186721991701245
s(g65
g66
S'[[con]]'
p102
tp103
F0.001037344398340249
s(S'action'
p104
S'film'
p105
S'[[con]]'
p106
tp107
F0.0005186721991701245
s(S'crime'
p108
S'film'
p109
S'starring'
p110
tp111
F0.002074688796680498
s(S'directed'
p112
g33
g34
tp113
F0.0005186721991701245
s(S'film'
p114
S'from'
p115
S'directed'
p116
tp117
F0.0005186721991701245
s(g14
g15
S'starring'
p118
tp119
F0.001037344398340249
s(S'[[con]]'
p120
S'action'
p121
S'film'
p122
tp123
F0.0005186721991701245
s(S'directed'
p124
S'with'
p125
S'[[det]]'
p126
tp127
F0.0015560165975103733
s(S'[[num]]'
p128
S'film'
p129
S'starring'
p130
tp131
F0.0015560165975103733
s(S'[[det]]'
p132
S'thriller'
p133
S'directed'
p134
tp135
F0.0005186721991701245
s(S'[[num]]'
p136
S'film'
p137
S'that'
p138
tp139
F0.0005186721991701245
s(S'by'
p140
S'starring'
p141
S'[[con]]'
p142
tp143
F0.004149377593360996
s(S'is'
p144
S'[[num]]'
p145
S'thriller'
p146
tp147
F0.0005186721991701245
s(S'[[num]]'
p148
S'fantasy'
p149
S'film'
p150
tp151
F0.0015560165975103733
s(S'[[num]]'
p152
S'movie'
p153
S'produced'
p154
tp155
F0.0005186721991701245
s(S'[[det]]'
p156
S'thriller'
p157
S'film'
p158
tp159
F0.001037344398340249
s(S'[[num]]'
p160
S'detective'
p161
S'film'
p162
tp163
F0.001037344398340249
s(S'into'
p164
S'[[det]]'
p165
S'film'
p166
tp167
F0.0005186721991701245
s(S'[[con]]'
p168
S'based'
p169
S'by'
p170
tp171
F0.0005186721991701245
s(S'film'
p172
S'starring'
p173
S'directed'
p174
tp175
F0.001037344398340249
s(S'[[num]]'
p176
S'drama'
p177
S'film'
p178
tp179
F0.016078838174273857
s(S'created'
p180
S'[[con]]'
p181
S'written'
p182
tp183
F0.0005186721991701245
s(S'[[adj]]'
p184
S'movie'
p185
S'directed'
p186
tp187
F0.0005186721991701245
s(S'[[adj]]'
p188
g29
g30
tp189
F0.0025933609958506223
s(S'documentary'
p190
S'directed'
p191
S'[[con]]'
p192
tp193
F0.001037344398340249
s(S'directed'
p194
S'starring'
p195
S'[[det]]'
p196
tp197
F0.0005186721991701245
s(S'[[num]]'
p198
S'film'
p199
S'directed'
p200
tp201
F0.01711618257261411
s(S'television'
p202
S'film'
p203
S'starring'
p204
tp205
F0.001037344398340249
s(S'[[con]]'
p206
S'directed'
p207
S'by'
p208
tp209
F0.025933609958506226
s(S'[[num]]'
p210
S'film'
p211
S'produced'
p212
tp213
F0.001037344398340249
s(S'was'
p214
S'directed'
p215
S'with'
p216
tp217
F0.0005186721991701245
s(S'[[adj]]'
p218
S'written'
p219
S'[[con]]'
p220
tp221
F0.001037344398340249
s(S'documentary'
p222
S'film'
p223
S'produced'
p224
tp225
F0.0005186721991701245
s(S'adventure'
p226
g13
g14
tp227
F0.0005186721991701245
s(S'comedy'
p228
S'family'
p229
S'film'
p230
tp231
F0.0005186721991701245
s(S'action'
p232
S'comedy'
p233
S'film'
p234
tp235
F0.0025933609958506223
s(S'[[num]]'
p236
S'directed'
p237
S'by'
p238
tp239
F0.0005186721991701245
s(S'adventure'
p240
S'film'
p241
S'directed'
p242
tp243
F0.0025933609958506223
s(S'horror'
p244
S'film'
p245
S'written'
p246
tp247
F0.0031120331950207467
s(S'[[con]]'
p248
S'directed'
p249
S'[[con]]'
p250
tp251
F0.010892116182572614
s(S'directed'
p252
S'produced'
p253
S'[[con]]'
p254
tp255
F0.001037344398340249
s(g73
g74
S'directed'
p256
tp257
F0.002074688796680498
s(S'was'
p258
g98
g99
tp259
F0.0005186721991701245
s(S'cult'
p260
S'[[num]]'
p261
S'drama'
p262
tp263
F0.0005186721991701245
s(S'[[adj]]'
p264
S'action'
p265
S'film'
p266
tp267
F0.002074688796680498
s(S'[[num]]'
p268
S'drama'
p269
S'[[adj]]'
p270
tp271
F0.0005186721991701245
s(g125
g126
S'screenplay'
p272
tp273
F0.001037344398340249
s(S'family'
p274
S'comedy'
p275
S'film'
p276
tp277
F0.001037344398340249
s(S'crime'
p278
S'film'
p279
S'directed'
p280
tp281
F0.007780082987551867
s(S'titled'
p282
S'is'
p283
S'[[num]]'
p284
tp285
F0.0005186721991701245
s(S'[[det]]'
p286
S'mystery'
p287
S'film'
p288
tp289
F0.0005186721991701245
s(S'of'
p290
S'directed'
p291
S'[[con]]'
p292
tp293
F0.0005186721991701245
s(S'directed'
p294
S'produced'
p295
S'by'
p296
tp297
F0.001037344398340249
s(S'[[num]]'
p298
S'film'
p299
S'noir'
p300
tp301
F0.0015560165975103733
s(g6
g7
S'[[num]]'
p302
tp303
F0.0005186721991701245
s(S'[[num]]'
p304
S'drama'
p305
S'directed'
p306
tp307
F0.0005186721991701245
s(S'drama'
p308
S'directed'
p309
S'[[con]]'
p310
tp311
F0.0015560165975103733
s(S'[[adj]]'
p312
S'drama'
p313
S'[[adj]]'
p314
tp315
F0.0005186721991701245
s(S'[[num]]'
p316
S'crime'
p317
S'drama'
p318
tp319
F0.004149377593360996
s(S'comedy'
p320
S'horror'
p321
S'film'
p322
tp323
F0.0005186721991701245
s(S'television'
p324
S'film'
p325
S'written'
p326
tp327
F0.0005186721991701245
s(S'noir'
p328
S'directed'
p329
S'[[con]]'
p330
tp331
F0.0005186721991701245
s(S'drama'
p332
S'film'
p333
S'based'
p334
tp335
F0.0005186721991701245
s(S'released'
p336
S'is'
p337
S'[[num]]'
p338
tp339
F0.0005186721991701245
s(S'[[num]]'
p340
S'fantasy'
p341
S'adventure'
p342
tp343
F0.0005186721991701245
s(g69
g70
S'[[con]]'
p344
tp345
F0.0036307053941908715
s(g81
g82
g194
tp346
F0.0015560165975103733
s(S'action'
p347
S'written'
p348
S'[[con]]'
p349
tp350
F0.001037344398340249
s(S'[[num]]'
p351
S'action'
p352
S'thriller'
p353
tp354
F0.002074688796680498
s(S'produced'
p355
S'with'
p356
S'[[det]]'
p357
tp358
F0.0005186721991701245
s(S'movie'
p359
S'directed'
p360
S'[[con]]'
p361
tp362
F0.002074688796680498
s(S'[[con]]'
p363
g355
g356
tp364
F0.0005186721991701245
s(S'drama'
p365
S'directed'
p366
S'by'
p367
tp368
F0.0005186721991701245
s(S'film'
p369
g365
g366
tp370
F0.0005186721991701245
s(S'starring'
p371
S'[[con]]'
p372
S'featuring'
p373
tp374
F0.002074688796680498
s(S'[[adj]]'
p375
S'feature'
p376
S'film'
p377
tp378
F0.001037344398340249
s(S'[[num]]'
p379
S'language'
p380
S'film'
p381
tp382
F0.002074688796680498
s(S'[[num]]'
p383
S'comedy'
p384
S'directed'
p385
tp386
F0.001037344398340249
s(g250
S'written'
p387
S'by'
p388
tp389
F0.008817427385892116
s(S'color'
p390
S'film'
p391
S'was'
p392
tp393
F0.0005186721991701245
s(S'screenplay'
p394
S'written'
p395
S'by'
p396
tp397
F0.0005186721991701245
s(S'[[adj]]'
p398
S'drama'
p399
S'film'
p400
tp401
F0.01037344398340249
s(S'[[adj]]'
p402
S'comedy'
p403
S'drama'
p404
tp405
F0.0005186721991701245
s(S'[[con]]'
p406
S'directed'
p407
S'starring'
p408
tp409
F0.004149377593360996
s(S'comedy'
p410
S'film'
p411
S'from'
p412
tp413
F0.0005186721991701245
s(S'[[num]]'
p414
S'movie'
p415
S'[[con]]'
p416
tp417
F0.0005186721991701245
s(S'was'
p418
S'hosted'
p419
S'by'
p420
tp421
F0.0005186721991701245
s(g22
g23
S'based'
p422
tp423
F0.0005186721991701245
s(S'as'
p424
S'[[det]]'
p425
S'film'
p426
tp427
F0.0005186721991701245
s(S'comedy'
p428
S'film'
p429
S'written'
p430
tp431
F0.007780082987551867
s(S'[[det]]'
p432
S'drama'
p433
S'thriller'
p434
tp435
F0.0005186721991701245
s(S'[[adj]]'
p436
g308
g309
tp437
F0.0005186721991701245
s(S'fantasy'
p438
S'action'
p439
S'film'
p440
tp441
F0.0005186721991701245
s(S'[[adj]]'
p442
g320
g321
tp443
F0.0005186721991701245
s(S'aka'
p444
g96
g80
tp445
F0.0005186721991701245
s(S'[[con]]'
p446
S'directed'
p447
S'with'
p448
tp449
F0.001037344398340249
s(S'[[num]]'
p450
S'horror'
p451
g114
tp452
F0.006742738589211619
s(S'was'
p453
S'hosted'
p454
S'[[con]]'
p455
tp456
F0.0005186721991701245
s(g391
g392
S'released'
p457
tp458
F0.0005186721991701245
s(S'[[det]]'
p459
S'film'
p460
S'written'
p461
tp462
F0.0005186721991701245
s(S'adapted'
p463
g164
g165
tp464
F0.0005186721991701245
s(S'thriller'
p465
S'written'
p466
S'[[con]]'
p467
tp468
F0.0005186721991701245
s(g439
g440
S'starring'
p469
tp470
F0.0025933609958506223
s(S'comedy'
p471
S'crime'
p472
S'film'
p473
tp474
F0.0005186721991701245
s(S'written'
p475
S'directed'
p476
S'by'
p477
tp478
F0.0005186721991701245
s(S'adapted'
p479
S'into'
p480
S'[[num]]'
p481
tp482
F0.0005186721991701245
s(S'[[adj]]'
p483
S'film'
p484
S'produced'
p485
tp486
F0.0005186721991701245
s(S'[[con]]'
p487
S'directed'
p488
S'gt'
p489
tp490
F0.0005186721991701245
s(S'edited'
p491
S'[[con]]'
p492
S'starring'
p493
tp494
F0.0005186721991701245
s(S'thriller'
p495
S'film'
p496
S'written'
p497
tp498
F0.001037344398340249
s(S'film'
p499
S'made'
p500
S'by'
p501
tp502
F0.0005186721991701245
s(S'was'
p503
S'written'
p504
S'directed'
p505
tp506
F0.0005186721991701245
s(S'[[num]]'
p507
g240
g241
tp508
F0.0036307053941908715
s(S'about'
p509
S'directed'
p510
S'[[con]]'
p511
tp512
F0.001037344398340249
s(S'[[det]]'
p513
g226
g13
tp514
F0.0005186721991701245
s(S'comedy'
p515
S'film'
p516
S'starring'
p517
tp518
F0.006224066390041493
s(S'written'
p519
S'directed'
p520
S'[[con]]'
p521
tp522
F0.0015560165975103733
s(g133
g134
S'[[con]]'
p523
tp524
F0.001037344398340249
s(S'was'
p525
S'adapted'
p526
g424
tp527
F0.0005186721991701245
s(g173
g174
S'by'
p528
tp529
F0.001037344398340249
s(g480
g481
S'film'
p530
tp531
F0.0005186721991701245
s(S'written'
p532
S'[[con]]'
p533
S'starring'
p534
tp535
F0.006224066390041493
s(g106
S'crime'
p536
S'drama'
p537
tp538
F0.0005186721991701245
s(S'action'
p539
S'film'
p540
S'about'
p541
tp542
F0.0005186721991701245
s(S'horror'
p543
S'film'
p544
S'directed'
p545
tp546
F0.006224066390041493
s(S'drama'
p547
S'film'
p548
S'produced'
p549
tp550
F0.0015560165975103733
s(g300
S'starring'
p551
S'[[con]]'
p552
tp553
F0.0005186721991701245
s(S'[[num]]'
p554
g274
g275
tp555
F0.001037344398340249
s(S'comedydrama'
p556
S'film'
p557
S'directed'
p558
tp559
F0.0025933609958506223
s(g403
g404
g88
tp560
F0.0015560165975103733
s(S'film'
p561
S'written'
p562
S'by'
p563
tp564
F0.0031120331950207467
s(S'film'
p565
g37
g38
tp566
F0.012448132780082987
s(S'directed'
p567
S'by'
p568
S'[[con]]'
p569
tp570
F0.0254149377593361
s(S'drama'
p571
S'film'
p572
S'featuring'
p573
tp574
F0.0005186721991701245
s(S'[[con]]'
p575
S'starring'
p576
S'[[con]]'
p577
tp578
F0.015560165975103735
s(S'crime'
p579
S'thriller'
p580
S'film'
p581
tp582
F0.002074688796680498
s(S'[[det]]'
p583
S'horror'
p584
S'film'
p585
tp586
F0.0015560165975103733
s(S'is'
p587
S'hosted'
p588
S'by'
p589
tp590
F0.0005186721991701245
s(S'thriller'
p591
S'film'
p592
S'released'
p593
tp594
F0.0005186721991701245
s(S'[[det]]'
p595
S'language'
p596
S'film'
p597
tp598
F0.001037344398340249
s(S'is'
p599
S'directed'
p600
S'by'
p601
tp602
F0.0005186721991701245
s(S'[[adj]]'
p603
S'comedy'
p604
S'starring'
p605
tp606
F0.0005186721991701245
s(S'[[num]]'
p607
S'family'
p608
S'film'
p609
tp610
F0.001037344398340249
s(g50
g25
g26
tp611
F0.0005186721991701245
s(g425
g426
S'in'
p612
tp613
F0.0005186721991701245
s(S'film'
p614
S'[[adj]]'
p615
S'starring'
p616
tp617
F0.0005186721991701245
s(S'written'
p618
S'by'
p619
S'[[con]]'
p620
tp621
F0.0005186721991701245
s(S'[[num]]'
p622
S'documentary'
p623
S'film'
p624
tp625
F0.0031120331950207467
s(S'[[det]]'
p626
S'directed'
p627
S'by'
p628
tp629
F0.0005186721991701245
s(S'film'
p630
S'[[con]]'
p631
S'[[adj]]'
p632
tp633
F0.0005186721991701245
s(S'crime'
p634
S'drama'
p635
S'film'
p636
tp637
F0.0031120331950207467
s(S'comedy'
p638
S'film'
p639
S'released'
p640
tp641
F0.0005186721991701245
s(g249
g250
g387
tp642
F0.010892116182572614
s(S'[[det]]'
p643
S'documentary'
p644
S'film'
p645
tp646
F0.0005186721991701245
s(S'[[num]]'
p647
S'romance'
p648
S'film'
p649
tp650
F0.0025933609958506223
s(S'directed'
p651
S'[[con]]'
p652
S'starred'
p653
tp654
F0.0005186721991701245
s(S'film'
p655
g49
g50
tp656
F0.0005186721991701245
s(S'[[det]]'
p657
g260
g261
tp658
F0.0005186721991701245
s(S'[[num]]'
p659
S'mystery'
p660
S'thriller'
p661
tp662
F0.0005186721991701245
s(g649
S'starring'
p663
S'[[con]]'
p664
tp665
F0.017634854771784232
s(S'cast'
p666
S'comedydrama'
p667
S'film'
p668
tp669
F0.0005186721991701245
s(S'war'
p670
S'film'
p671
S'directed'
p672
tp673
F0.002074688796680498
s(g411
g412
S'written'
p674
tp675
F0.0005186721991701245
s(S'movie'
p676
S'directed'
p677
S'starring'
p678
tp679
F0.0005186721991701245
s(S'assassination'
p680
g120
g121
tp681
F0.0005186721991701245
s(S'[[det]]'
p682
S'drama'
p683
S'film'
p684
tp685
F0.001037344398340249
s(S'film'
p686
g294
g295
tp687
F0.0015560165975103733
s(S'[[num]]'
p688
S'thriller'
p689
S'film'
p690
tp691
F0.008817427385892116
s(S'[[det]]'
p692
S'film'
p693
S'directed'
p694
tp695
F0.0036307053941908715
s(S'[[num]]'
p696
g232
g233
tp697
F0.0025933609958506223
s(g632
S'comedy'
p698
S'written'
p699
tp700
F0.0005186721991701245
s(g407
g408
S'as'
p701
tp702
F0.0005186721991701245
s(S'film'
p703
S'directed'
p704
S'as'
p705
tp706
F0.0005186721991701245
s(S'[[det]]'
p707
g680
g120
tp708
F0.0005186721991701245
s(S'known'
p709
S'is'
p710
S'[[adj]]'
p711
tp712
F0.0005186721991701245
s(S'drama'
p713
S'film'
p714
S'[[adj]]'
p715
tp716
F0.001037344398340249
s(S'by'
p717
S'film'
p718
S'stars'
p719
tp720
F0.0005186721991701245
s(g639
g640
S'starring'
p721
tp722
F0.0015560165975103733
s(S'crime'
p723
S'drama'
p724
S'starring'
p725
tp726
F0.0005186721991701245
s(S'[[num]]'
p727
S'action'
p728
S'film'
p729
tp730
F0.006742738589211619
s(S'comedy'
p731
S'directed'
p732
S'written'
p733
tp734
F0.0005186721991701245
s(S'film'
p735
S'[[adj]]'
p736
S'directed'
p737
tp738
F0.001037344398340249
s(S'directed'
p739
g575
g576
tp740
F0.04304979253112033
s(S'film'
p741
S'directed'
p742
S'that'
p743
tp744
F0.0005186721991701245
s(g412
g674
S'[[con]]'
p745
tp746
F0.0005186721991701245
s(g253
g254
S'starring'
p747
tp748
F0.001037344398340249
s(S'film'
p749
g739
g575
tp750
F0.044087136929460584
s(S'[[num]]'
p751
g670
g671
tp752
F0.0025933609958506223
s(S'directed'
p753
S'by'
p754
S'starring'
p755
tp756
F0.016078838174273857
s(S'by'
p757
S'starring'
p758
S'[[det]]'
p759
tp760
F0.0005186721991701245
s(S'[[num]]'
p761
g60
g61
tp762
F0.0036307053941908715
s(S'adventure'
p763
S'film'
p764
S'starring'
p765
tp766
F0.002074688796680498
s(S'starring'
p767
g248
g249
tp768
F0.004149377593360996
s(S'[[adj]]'
p769
S'comedy'
p770
g749
tp771
F0.010892116182572614
s(g608
g609
S'directed'
p772
tp773
F0.0015560165975103733
s(S'[[con]]'
p774
S'directed'
p775
S'which'
p776
tp777
F0.0005186721991701245
s(S'[[det]]'
p778
S'war'
p779
S'film'
p780
tp781
F0.0005186721991701245
s(g489
S'[[con]]'
p782
S'starring'
p783
tp784
F0.0005186721991701245
s(S'[[det]]'
p785
S'film'
p786
S'comedy'
p787
tp788
F0.0005186721991701245
s(S'comedy'
p789
g614
g615
tp790
F0.0005186721991701245
s(g562
g563
S'starring'
p791
tp792
F0.0005186721991701245
s(S'[[num]]'
p793
S'hosted'
p794
S'by'
p795
tp796
F0.0005186721991701245
s(S'[[num]]'
p797
g515
g516
tp798
F0.014004149377593362
s(S'was'
p799
S'directed'
p800
S'by'
p801
tp802
F0.0005186721991701245
s(S'was'
p803
S'written'
p804
S'produced'
p805
tp806
F0.0005186721991701245
s(g178
S'directed'
p807
S'based'
p808
tp809
F0.001037344398340249
s(S'produced'
p810
S'directed'
p811
S'by'
p812
tp813
F0.0015560165975103733
s(g137
g138
S'was'
p814
tp815
F0.0005186721991701245
s(g605
S'[[con]]'
p816
S'written'
p817
tp818
F0.0005186721991701245
s(S'was'
p819
S'directed'
p820
S'[[con]]'
p821
tp822
F0.0005186721991701245
s(g775
g776
S'starred'
p823
tp824
F0.0005186721991701245
s(S'[[adj]]'
p825
S'documentary'
p826
S'film'
p827
tp828
F0.0005186721991701245
s(S'[[num]]'
p829
S'mystery'
p830
S'crime'
p831
tp832
F0.0005186721991701245
s(g177
g178
g807
tp833
F0.02074688796680498
s(g380
g381
S'starring'
p834
tp835
F0.0015560165975103733
s(S'feature'
p836
S'film'
p837
S'directed'
p838
tp839
F0.004149377593360996
s(g341
g342
S'film'
p840
tp841
F0.0005186721991701245
s(g830
g831
S'film'
p842
tp843
F0.0005186721991701245
s(g536
g537
S'directed'
p844
tp845
F0.0005186721991701245
s(S'film'
p846
g290
g291
tp847
F0.0005186721991701245
s(S'directed'
p848
S'[[con]]'
p849
S'stars'
p850
tp851
F0.0025933609958506223
s(S'[[det]]'
p852
S'crime'
p853
S'film'
p854
tp855
F0.0005186721991701245
s(S'[[adj]]'
p856
S'mystery'
p857
S'film'
p858
tp859
F0.0005186721991701245
s(g283
g284
S'drama'
p860
tp861
F0.0005186721991701245
s(S'directed'
p862
g717
g718
tp863
F0.0005186721991701245
s(S'[[adj]]'
p864
S'film'
p865
S'directed'
p866
tp867
F0.01037344398340249
s(S'[[num]]'
p868
S'produced'
p869
S'[[con]]'
p870
tp871
F0.0005186721991701245
s(S'known'
p872
S'is'
p873
S'film'
p874
tp875
F0.0005186721991701245
s(g212
S'[[con]]'
p876
S'directed'
p877
tp878
F0.005705394190871369
s(g317
g318
S'written'
p879
tp880
F0.0005186721991701245
s(S'[[det]]'
p881
g72
g73
tp882
F0.0005186721991701245
s(S'[[num]]'
p883
g228
g229
tp884
F0.0005186721991701245
s(g153
g154
S'[[con]]'
p885
tp886
F0.0005186721991701245
s(g299
g300
g551
tp887
F0.0005186721991701245
s(S'language'
p888
S'film'
p889
S'written'
p890
tp891
F0.0005186721991701245
s(S'[[con]]'
p892
S'starring'
p893
S'as'
p894
tp895
F0.001037344398340249
s(S'by'
p896
S'[[con]]'
p897
S'featuring'
p898
tp899
F0.0005186721991701245
s(S'[[adj]]'
p900
S'comedy'
p901
S'[[adj]]'
p902
tp903
F0.001037344398340249
s(S'[[adj]]'
p904
S'romance'
p905
S'film'
p906
tp907
F0.0005186721991701245
s(g94
S'[[con]]'
p908
S'written'
p909
tp910
F0.0005186721991701245
s(g392
g457
S'starring'
p911
tp912
F0.0005186721991701245
s(g526
g424
g425
tp913
F0.0005186721991701245
s(g426
g612
S'[[num]]'
p914
tp915
F0.0005186721991701245
s(g318
g879
S'[[con]]'
p916
tp917
F0.0005186721991701245
s(S'narrated'
p918
S'by'
p919
S'actor'
p920
tp921
F0.0005186721991701245
s(S'[[det]]'
p922
S'written'
p923
S'produced'
p924
tp925
F0.0005186721991701245
s(S'directed'
p926
S'written'
p927
S'by'
p928
tp929
F0.002074688796680498
s(S'[[det]]'
p930
S'film'
p931
S'released'
p932
tp933
F0.0005186721991701245
s(S'romance'
p934
S'film'
p935
S'directed'
p936
tp937
F0.002074688796680498
s(g648
g649
g663
tp938
F0.001037344398340249
s(S'[[det]]'
p939
g846
g290
tp940
F0.0005186721991701245
s(S'film'
p941
g509
g510
tp942
F0.001037344398340249
s(S'[[adj]]'
p943
S'fantasy'
p944
S'film'
p945
tp946
F0.0005186721991701245
s(g742
g743
S'starred'
p947
tp948
F0.0005186721991701245
s(g652
g653
S'by'
p949
tp950
F0.0005186721991701245
s(g623
g624
S'directed'
p951
tp952
F0.0025933609958506223
s(S'also'
p953
g709
g710
tp954
F0.004149377593360996
s(S'film'
p955
g475
g476
tp956
F0.0015560165975103733
s(S'[[num]]'
p957
g347
g348
tp958
F0.001037344398340249
s(g814
S'written'
p959
S'[[con]]'
p960
tp961
F0.001037344398340249
s(S'[[adj]]'
p962
g278
g279
tp963
F0.0025933609958506223
s(S'action'
p964
g735
g736
tp965
F0.0005186721991701245
s(S'[[num]]'
p966
g579
g580
tp967
F0.002074688796680498
s(g804
g805
S'[[con]]'
p968
tp969
F0.001037344398340249
s(g520
g521
g491
tp970
F0.001037344398340249
s(g416
g810
g811
tp971
F0.0005186721991701245
s(S'war'
p972
S'film'
p973
S'starring'
p974
tp975
F0.0015560165975103733
s(S'[[det]]'
p976
S'color'
p977
S'film'
p978
tp979
F0.001037344398340249
s(S'[[adj]]'
p980
g465
g466
tp981
F0.0005186721991701245
s(S'[[num]]'
p982
g369
g365
tp983
F0.0005186721991701245
s(g337
g338
S'adventure'
p984
tp985
F0.0005186721991701245
s(S'is'
p986
S'directed'
p987
S'at'
p988
tp989
F0.0005186721991701245
s(S'[[num]]'
p990
S'mystery'
p991
S'film'
p992
tp993
F0.0025933609958506223
s(g488
g489
g782
tp994
F0.0005186721991701245
s(S'known'
p995
S'is'
p996
g128
tp997
F0.004149377593360996
s(S'documentary'
p998
S'film'
p999
S'starring'
p1000
tp1001
F0.0005186721991701245
s(S'[[con]]'
p1002
S'hosted'
p1003
S'by'
p1004
tp1005
F0.0005186721991701245
s(S'[[num]]'
p1006
S'comedy'
p1007
S'drama'
p1008
tp1009
F0.001037344398340249
s(g115
g116
S'by'
p1010
tp1011
F0.0005186721991701245
s(g500
g501
S'starring'
p1012
tp1013
F0.0005186721991701245
s(S'[[adj]]'
p1014
g45
g46
tp1015
F0.0031120331950207467
s(S'[[det]]'
p1016
g394
g395
tp1017
F0.0005186721991701245
s(g66
g102
S'directed'
p1018
tp1019
F0.001037344398340249
s(g770
g749
g739
tp1020
F0.016597510373443983
s(g698
g699
S'[[con]]'
p1021
tp1022
F0.0005186721991701245
s(S'[[adj]]'
p1023
S'comedy'
p1024
S'directed'
p1025
tp1026
F0.001037344398340249
s(S'[[adj]]'
p1027
g471
g472
tp1028
F0.0005186721991701245
s(g23
g422
S'directed'
p1029
tp1030
F0.0005186721991701245
s(g807
g808
S'by'
p1031
tp1032
F0.001037344398340249
s(S'[[con]]'
p1033
g532
g533
tp1034
F0.0025933609958506223
s(S'[[det]]'
p1035
S'comedy'
p1036
S'action'
p1037
tp1038
F0.0005186721991701245
s(g484
g485
S'directed'
p1039
tp1040
F0.001037344398340249
s(S'[[num]]'
p1041
g9
g10
tp1042
F0.001037344398340249
s(S'[[adj]]'
p1043
S'film'
p1044
g767
tp1045
F0.0031120331950207467
s(g736
g737
S'by'
p1046
tp1047
F0.0015560165975103733
s(S'comedydrama'
p1048
S'film'
p1049
S'starring'
p1050
tp1051
F0.0025933609958506223
s(g849
g850
S'[[con]]'
p1052
tp1053
F0.001037344398340249
s(g604
g605
g816
tp1054
F0.0005186721991701245
s(g1036
g1037
S'film'
p1055
tp1056
F0.0005186721991701245
s(g548
g549
S'by'
p1057
tp1058
F0.0005186721991701245
s(g415
g416
g810
tp1059
F0.0005186721991701245
s(S'[[con]]'
p1060
S'produced'
p1061
S'by'
p1062
tp1063
F0.006224066390041493
s(g728
g729
S'directed'
p1064
tp1065
F0.005186721991701245
s(g710
g711
S'film'
p1066
tp1067
F0.0005186721991701245
s(S'is'
p1068
g198
g199
tp1069
F0.0036307053941908715
s(g53
g54
S'[[con]]'
p1070
tp1071
F0.0005186721991701245
s(S'[[adj]]'
p1072
S'thriller'
p1073
S'directed'
p1074
tp1075
F0.0005186721991701245
s(S'documentary'
p1076
S'film'
p1077
S'written'
p1078
tp1079
F0.0005186721991701245
s(S'directed'
p1080
g168
g169
tp1081
F0.0005186721991701245
s(S'[[det]]'
p1082
g638
g639
tp1083
F0.002074688796680498
s(S'film'
p1084
g328
g329
tp1085
F0.0015560165975103733
s(g631
g632
g698
tp1086
F0.0005186721991701245
s(S'sports'
p1087
S'drama'
p1088
S'film'
p1089
tp1090
F0.0005186721991701245
s(S'article'
p1091
g1068
g198
tp1092
F0.0005186721991701245
s(g384
g385
S'[[con]]'
p1093
tp1094
F0.0015560165975103733
s(S'is'
p1095
S'narrated'
p1096
S'by'
p1097
tp1098
F0.001037344398340249
s(g211
g212
g876
tp1099
F0.0036307053941908715
s(S'[[num]]'
p1100
S'thriller'
p1101
S'directed'
p1102
tp1103
F0.0005186721991701245
s(S'[[adj]]'
p1104
g666
g667
tp1105
F0.0005186721991701245
s(S'language'
p1106
S'film'
p1107
S'directed'
p1108
tp1109
F0.001037344398340249
s(g422
g1029
S'[[con]]'
p1110
tp1111
F0.0005186721991701245
s(S'[[adj]]'
p1112
g499
g500
tp1113
F0.0005186721991701245
s(S'was'
p1114
g479
g480
tp1115
F0.001037344398340249
s(g635
g636
S'starring'
p1116
tp1117
F0.004149377593360996
s(S'[[num]]'
p1118
S'comedy'
p1119
S'[[adj]]'
p1120
tp1121
F0.001037344398340249
s(S'was'
p1122
S'hosted'
p1123
S'with'
p1124
tp1125
F0.0005186721991701245
s(g660
g661
S'film'
p1126
tp1127
F0.0005186721991701245
s(g352
g353
S'film'
p1128
tp1129
F0.002074688796680498
s(S'comedy'
p1130
g1043
g1044
tp1131
F0.0025933609958506223
s(S'film'
p1132
g124
g125
tp1133
F0.001037344398340249
s(S'directed'
p1134
S'[[con]]'
p1135
S'featuring'
p1136
tp1137
F0.0015560165975103733
s(S'comedydrama'
p1138
S'film'
p1139
S'written'
p1140
tp1141
F0.0025933609958506223
s(S'[[det]]'
p1142
g190
g191
tp1143
F0.001037344398340249
s(S'[[num]]'
p1144
S'family'
p1145
S'adventure'
p1146
tp1147
F0.0005186721991701245
s(g356
g357
S'starring'
p1148
tp1149
F0.0005186721991701245
s(g1145
g1146
S'film'
p1150
tp1151
F0.0005186721991701245
s(g991
g992
S'directed'
p1152
tp1153
F0.0031120331950207467
s(g879
g916
S'directed'
p1154
tp1155
F0.03163900414937759
s(S'[[num]]'
p1156
g438
g439
tp1157
F0.0005186721991701245
s(S'action'
p1158
S'film'
p1159
S'written'
p1160
tp1161
F0.001037344398340249
s(S'noir'
p1162
S'directed'
p1163
S'by'
p1164
tp1165
F0.001037344398340249
s(g70
g344
S'produced'
p1166
tp1167
F0.0005186721991701245
s(g10
g11
S'by'
p1168
tp1169
F0.0015560165975103733
s(S'[[adj]]'
p1170
S'film'
p1171
S'written'
p1172
tp1173
F0.0015560165975103733
s(g161
g162
S'directed'
p1174
tp1175
F0.001037344398340249
s(g1073
g1074
S'by'
p1176
tp1177
F0.0005186721991701245
s(S'[[con]]'
p1178
S'edited'
p1179
S'by'
p1180
tp1181
F0.0005186721991701245
s(S'[[num]]'
p1182
g324
g325
tp1183
F0.0015560165975103733
s(g105
g106
g536
tp1184
F0.0005186721991701245
s(S'[[adj]]'
p1185
S'adventure'
p1186
S'film'
p1187
tp1188
F0.001037344398340249
s(S'[[det]]'
p1189
S'film'
p1190
g1162
tp1191
F0.0005186721991701245
s(S'[[num]]'
p1192
g655
g49
tp1193
F0.0005186721991701245
s(g451
g114
g115
tp1194
F0.0005186721991701245
s(g873
g874
S'starring'
p1195
tp1196
F0.0005186721991701245
s(S'crime'
p1197
S'film'
p1198
S'written'
p1199
tp1200
F0.0005186721991701245
s(g149
g150
S'directed'
p1201
tp1202
F0.002074688796680498
s(g138
g814
g959
tp1203
F0.0005186721991701245
s(g521
g491
g492
tp1204
F0.0005186721991701245
s(S'directed'
p1205
S'starring'
p1206
S'with'
p1207
tp1208
F0.001037344398340249
s(g7
g302
S'comedy'
p1209
tp1210
F0.0005186721991701245
s(S'[[adj]]'
p1211
g630
g631
tp1212
F0.0005186721991701245
s(S'show'
p1213
S'hosted'
p1214
S'by'
p1215
tp1216
F0.0005186721991701245
s(g866
g1060
g1061
tp1217
F0.006224066390041493
s(S'film'
p1218
S'written'
p1219
g406
tp1220
F0.026970954356846474
s(S'[[det]]'
p1221
g1087
g1088
tp1222
F0.0005186721991701245
s(g313
g314
S'film'
p1223
tp1224
F0.001037344398340249
s(S'is'
p1225
S'[[num]]'
p1226
S'mystery'
p1227
tp1228
F0.0005186721991701245
s(g786
g787
S'starring'
p1229
tp1230
F0.0005186721991701245
s(S'[[num]]'
p1231
g556
g557
tp1232
F0.00466804979253112
s(S'aka'
p1233
S'is'
p1234
S'[[num]]'
p1235
tp1236
F0.001037344398340249
s(S'drama'
p1237
S'film'
p1238
S'written'
p1239
tp1240
F0.005186721991701245
s(S'is'
p1241
S'[[num]]'
p1242
S'crime'
p1243
tp1244
F0.001037344398340249
s(S'adventure'
p1245
S'film'
p1246
S'written'
p1247
tp1248
F0.001037344398340249
s(S'[[num]]'
p1249
S'film'
p1250
S'written'
p1251
tp1252
F0.004149377593360996
s(S'with'
p1253
S'[[det]]'
p1254
S'script'
p1255
tp1256
F0.0005186721991701245
s(g433
g434
S'film'
p1257
tp1258
F0.0005186721991701245
s(g568
g569
S'starring'
p1259
tp1260
F0.0254149377593361
s(S'[[det]]'
p1261
g1130
g1043
tp1262
F0.0005186721991701245
s(g977
g978
S'starring'
p1263
tp1264
F0.0005186721991701245
s.