(dp0
(S'also'
p1
S'appointed'
p2
S'in'
p3
tp4
F0.00045599635202918376
s(S'only'
p5
S'played'
p6
S'twice'
p7
tp8
F0.00045599635202918376
s(S'then'
p9
S'played'
p10
S'with'
p11
tp12
F0.00045599635202918376
s(S'again'
p13
S'played'
p14
S'against'
p15
tp16
F0.00045599635202918376
s(S'when'
p17
S'served'
p18
S'with'
p19
tp20
F0.00045599635202918376
s(S'was'
p21
S'representative'
p22
S'in'
p23
tp24
F0.00045599635202918376
s(S'to'
p25
S'play'
p26
S'when'
p27
tp28
F0.00045599635202918376
s(S'serve'
p29
S'as'
p30
S'[[det]]'
p31
tp32
F0.00045599635202918376
s(S'first'
p33
S'came'
p34
S'with'
p35
tp36
F0.00045599635202918376
s(S's'
p37
S'history'
p38
S'of'
p39
tp40
F0.00045599635202918376
s(S'later'
p41
S'worked'
p42
S'to'
p43
tp44
F0.00045599635202918376
s(S'[[det]]'
p45
S'years'
p46
S'in'
p47
tp48
F0.0009119927040583675
s(S'then'
p49
S'graduated'
p50
S'from'
p51
tp52
F0.00045599635202918376
s(S'was'
p53
S'won'
p54
S'for'
p55
tp56
F0.00045599635202918376
s(S'who'
p57
S'graduated'
p58
S'at'
p59
tp60
F0.00045599635202918376
s(S'later'
p61
S'join'
p62
S'[[det]]'
p63
tp64
F0.00045599635202918376
s(S'to'
p65
S'leave'
p66
S'[[prp]]'
p67
tp68
F0.00045599635202918376
s(S'had'
p69
S'come'
p70
S'to'
p71
tp72
F0.00045599635202918376
s(S'[[det]]'
p73
S'time'
p74
S'at'
p75
tp76
F0.00045599635202918376
s(S'was'
p77
S'selected'
p78
S'at'
p79
tp80
F0.00045599635202918376
s(S'[[prp]]'
p81
S'return'
p82
S'from'
p83
tp84
F0.00045599635202918376
s(S'had'
p85
S'represented'
p86
S'in'
p87
tp88
F0.00045599635202918376
s(S'has'
p89
S'played'
p90
S'for'
p91
tp92
F0.0013679890560875513
s(S'then'
p93
S'left'
p94
S'to'
p95
tp96
F0.00045599635202918376
s(S'[[num]]'
p97
S'years'
p98
S'with'
p99
tp100
F0.00045599635202918376
s(S'also'
p101
S'worked'
p102
S'[[adj]]'
p103
tp104
F0.00045599635202918376
s(S'currently'
p105
S'plays'
p106
S'as'
p107
tp108
F0.00045599635202918376
s(S'[[con]]'
p109
S'was'
p110
S'educated'
p111
tp112
F0.00045599635202918376
s(S'[[det]]'
p113
S'director'
p114
S'at'
p115
tp116
F0.00045599635202918376
s(S'was'
p117
S'member'
p118
S'for'
p119
tp120
F0.00045599635202918376
s(S'when'
p121
S'moved'
p122
S'from'
p123
tp124
F0.00045599635202918376
s(S'[[det]]'
p125
S'fellow'
p126
S'at'
p127
tp128
F0.00045599635202918376
s(S'then'
p129
S'fought'
p130
S'for'
p131
tp132
F0.00045599635202918376
s(S'made'
p133
S'history'
p134
S'in'
p135
tp136
F0.00045599635202918376
s(S'was'
p137
S'founder'
p138
S'of'
p139
tp140
F0.00045599635202918376
s(S'[[det]]'
p141
S'officer'
p142
S'[[con]]'
p143
tp144
F0.00045599635202918376
s(S'league'
p145
S'appearances'
p146
S'for'
p147
tp148
F0.00045599635202918376
s(S'then'
p149
S'joined'
p150
S'to'
p151
tp152
F0.00045599635202918376
s(S'[[adj]]'
p153
S'representative'
p154
S'for'
p155
tp156
F0.00045599635202918376
s(S'also'
p157
S'appointed'
p158
S'[[con]]'
p159
tp160
F0.00045599635202918376
s(S'who'
p161
S'came'
p162
S'to'
p163
tp164
F0.00045599635202918376
s(S'also'
p165
S'received'
p166
S'in'
p167
tp168
F0.00045599635202918376
s(S'has'
p169
S'traveled'
p170
S'[[adj]]'
p171
tp172
F0.00045599635202918376
s(S'been'
p173
S'featured'
p174
S'for'
p175
tp176
F0.00045599635202918376
s(S'has'
p177
S'run'
p178
S'for'
p179
tp180
F0.00045599635202918376
s(S'later'
p181
S'moved'
p182
S'at'
p183
tp184
F0.00045599635202918376
s(S'was'
p185
S'leading'
p186
S'[[det]]'
p187
tp188
F0.00045599635202918376
s(S'appointed'
p189
S'[[adj]]'
p190
S'ambassador'
p191
tp192
F0.00045599635202918376
s(S'appointed'
p193
S'as'
p194
S'ambassador'
p195
tp196
F0.00045599635202918376
s(S'had'
p197
S'joined'
p198
S'from'
p199
tp200
F0.00045599635202918376
s(S'[[mod]]'
p201
S'come'
p202
S'back'
p203
tp204
F0.00045599635202918376
s(S'became'
p205
S'director'
p206
S'of'
p207
tp208
F0.00045599635202918376
s(g37
S'won'
p209
S'[[det]]'
p210
tp211
F0.00045599635202918376
s(S'born'
p212
g109
g110
tp213
F0.00045599635202918376
s(S'to'
p214
S'live'
p215
S'in'
p216
tp217
F0.00045599635202918376
s(S'commissioned'
p218
S'as'
p219
S'[[det]]'
p220
tp221
F0.00045599635202918376
s(S'became'
p222
S'head'
p223
S'at'
p224
tp225
F0.00045599635202918376
s(S'lived'
p226
S'when'
p227
S'returned'
p228
tp229
F0.00045599635202918376
s(S'had'
p230
S'won'
p231
S'[[pro]]'
p232
tp233
F0.00045599635202918376
s(S'then'
p234
S'moved'
p235
S'in'
p236
tp237
F0.00045599635202918376
s(S'who'
p238
S'began'
p239
S'as'
p240
tp241
F0.00045599635202918376
s(S'[[prp]]'
p242
S'time'
p243
S'at'
p244
tp245
F0.00045599635202918376
s(S'then'
p246
S'joined'
p247
S'side'
p248
tp249
F0.00045599635202918376
s(S'[[det]]'
p250
S'representative'
p251
S'in'
p252
tp253
F0.00045599635202918376
s(S'then'
p254
S'founded'
p255
S'[[det]]'
p256
tp257
F0.00045599635202918376
s(S'was'
p258
S'previously'
p259
S'[[con]]'
p260
tp261
F0.00045599635202918376
s(S'when'
p262
S'came'
p263
S'to'
p264
tp265
F0.00045599635202918376
s(S'[[det]]'
p266
S'member'
p267
S'[[con]]'
p268
tp269
F0.0013679890560875513
s(S'when'
p270
S'joined'
p271
S'[[det]]'
p272
tp273
F0.00045599635202918376
s(S'[[con]]'
p274
S'founder'
p275
S'of'
p276
tp277
F0.00045599635202918376
s(S'again'
p278
S'named'
p279
S'as'
p280
tp281
F0.00045599635202918376
s(S'has'
p282
S'played'
p283
S'[[det]]'
p284
tp285
F0.00045599635202918376
s(S'received'
p286
S'[[det]]'
p287
S'bachelor'
p288
tp289
F0.001823985408116735
s(S'played'
p290
S'with'
p291
S'[[adj]]'
p292
tp293
F0.00045599635202918376
s(S'now'
p294
S'serves'
p295
S'at'
p296
tp297
F0.00045599635202918376
s(S'[[det]]'
p298
S'captain'
p299
S'in'
p300
tp301
F0.00045599635202918376
s(S'to'
p302
S'played'
p303
S'for'
p304
tp305
F0.00045599635202918376
s(S'be'
p306
S'nominated'
p307
S'for'
p308
tp309
F0.00045599635202918376
s(S'[[adj]]'
p310
S'met'
p311
S'while'
p312
tp313
F0.00045599635202918376
s(S'served'
p314
S'[[num]]'
p315
S'years'
p316
tp317
F0.004103967168262654
s(S'[[det]]'
p318
S'nominee'
p319
S'to'
p320
tp321
F0.00045599635202918376
s(S'also'
p322
S'appointed'
p323
S'on'
p324
tp325
F0.00045599635202918376
s(S'[[adj]]'
p326
S'awarded'
p327
S'by'
p328
tp329
F0.00045599635202918376
s(S'had'
p330
S'received'
p331
S'[[det]]'
p332
tp333
F0.00045599635202918376
s(S'also'
p334
S'established'
p335
S'[[con]]'
p336
tp337
F0.00045599635202918376
s(S'[[det]]'
p338
S'award'
p339
S'[[num]]'
p340
tp341
F0.00045599635202918376
s(S'was'
p342
S'awarded'
p343
S'[[prp]]'
p344
tp345
F0.00045599635202918376
s(S'to'
p346
S'play'
p347
S'for'
p348
tp349
F0.00045599635202918376
s(S'where'
p350
S'played'
p351
S'for'
p352
tp353
F0.00045599635202918376
s(S'had'
p354
S'worked'
p355
S'out'
p356
tp357
F0.00045599635202918376
s(S'born'
p358
S'[[con]]'
p359
S'educated'
p360
tp361
F0.00045599635202918376
s(S'had'
p362
S'played'
p363
S'in'
p364
tp365
F0.00045599635202918376
s(S'was'
p366
S'moved'
p367
S'to'
p368
tp369
F0.00045599635202918376
s(S'been'
p370
S'recognized'
p371
S'in'
p372
tp373
F0.00045599635202918376
s(S'been'
p374
S'named'
p375
S'at'
p376
tp377
F0.00045599635202918376
s(S'became'
p378
S'known'
p379
S'in'
p380
tp381
F0.00045599635202918376
s(S'[[prp]]'
p382
S'[[adj]]'
p383
S'years'
p384
tp385
F0.0013679890560875513
s(S'[[det]]'
p386
S'director'
p387
S'[[det]]'
p388
tp389
F0.00045599635202918376
s(S'also'
p390
S'met'
p391
S'[[prp]]'
p392
tp393
F0.00045599635202918376
s(S'has'
p394
S'played'
p395
S'with'
p396
tp397
F0.00045599635202918376
s(S'also'
p398
S'visited'
p399
S'in'
p400
tp401
F0.00045599635202918376
s(S'has'
p402
S'received'
p403
S'[[det]]'
p404
tp405
F0.00045599635202918376
s(S'also'
p406
S'received'
p407
S'[[con]]'
p408
tp409
F0.00045599635202918376
s(S'[[adj]]'
p410
S'member'
p411
S'as'
p412
tp413
F0.00045599635202918376
s(S'[[adj]]'
p414
S'member'
p415
S'from'
p416
tp417
F0.00045599635202918376
s(S'had'
p418
S'played'
p419
S'[[det]]'
p420
tp421
F0.00045599635202918376
s(S'had'
p422
S'joined'
p423
S'[[det]]'
p424
tp425
F0.00045599635202918376
s(S'to'
p426
S'head'
p427
S'[[det]]'
p428
tp429
F0.00045599635202918376
s(S'also'
p430
S'met'
p431
S'[[adj]]'
p432
tp433
F0.00045599635202918376
s(S'born'
p434
S'[[det]]'
p435
S'family'
p436
tp437
F0.00045599635202918376
s(S'currently'
p438
S'serves'
p439
S'on'
p440
tp441
F0.00045599635202918376
s(S'was'
p442
S'recognized'
p443
S'by'
p444
tp445
F0.00045599635202918376
s(S'been'
p446
S'called'
p447
S'up'
p448
tp449
F0.00045599635202918376
s(S'who'
p450
S'play'
p451
S'in'
p452
tp453
F0.00045599635202918376
s(S'also'
p454
S'selected'
p455
S'by'
p456
tp457
F0.00045599635202918376
s(S'[[con]]'
p458
S'played'
p459
S'for'
p460
tp461
F0.00045599635202918376
s(S'[[det]]'
p462
S'[[adj]]'
p463
S'town'
p464
tp465
F0.00045599635202918376
s(S'when'
p466
S'won'
p467
S'in'
p468
tp469
F0.00045599635202918376
s(S'be'
p470
S'published'
p471
S'in'
p472
tp473
F0.00045599635202918376
s(S'later'
p474
S'joined'
p475
S'[[con]]'
p476
tp477
F0.00045599635202918376
s(S'won'
p478
g338
g339
tp479
F0.00045599635202918376
s(S'appointed'
p480
S'as'
p481
S'[[det]]'
p482
tp483
F0.00045599635202918376
s(S'again'
p484
S'moved'
p485
S'to'
p486
tp487
F0.00045599635202918376
s(S'has'
p488
S'signed'
p489
S'with'
p490
tp491
F0.00045599635202918376
s(S'was'
p492
S'previously'
p493
S'of'
p494
tp495
F0.00045599635202918376
s(S'began'
p496
S'work'
p497
S'with'
p498
tp499
F0.00045599635202918376
s(S'has'
p500
S'played'
p501
S'in'
p502
tp503
F0.00045599635202918376
s(S'[[con]]'
p504
S'moved'
p505
S'to'
p506
tp507
F0.00045599635202918376
s(S'been'
p508
S'signed'
p509
S'by'
p510
tp511
F0.00045599635202918376
s(S'[[adj]]'
p512
S'family'
p513
S'of'
p514
tp515
F0.0009119927040583675
s(S'was'
p516
S'born'
p517
S'[[det]]'
p518
tp519
F0.001823985408116735
s(S'[[adj]]'
p520
S'member'
p521
S'during'
p522
tp523
F0.00045599635202918376
s(S'was'
p524
S'commissioned'
p525
S'by'
p526
tp527
F0.00045599635202918376
s(S'was'
p528
S'awarded'
p529
S'from'
p530
tp531
F0.00045599635202918376
s(g315
g316
S'in'
p532
tp533
F0.004559963520291838
s(S'also'
p534
S'played'
p535
S'[[con]]'
p536
tp537
F0.00045599635202918376
s(S'[[adj]]'
p538
S'stay'
p539
S'in'
p540
tp541
F0.00045599635202918376
s(S'[[det]]'
p542
S'member'
p543
S'from'
p544
tp545
F0.00045599635202918376
s(S'had'
p546
S'played'
p547
S'[[con]]'
p548
tp549
F0.00045599635202918376
s(S'also'
p550
S'honored'
p551
S'in'
p552
tp553
F0.00045599635202918376
s(S'[[con]]'
p554
S'then'
p555
S'returned'
p556
tp557
F0.00045599635202918376
s(S'also'
p558
S'honored'
p559
S'with'
p560
tp561
F0.00045599635202918376
s(S'was'
p562
S'signed'
p563
S'to'
p564
tp565
F0.00045599635202918376
s(S'then'
p566
S'received'
p567
S'[[prp]]'
p568
tp569
F0.00045599635202918376
s(S'first'
p570
S'worked'
p571
S'for'
p572
tp573
F0.00045599635202918376
s(S'also'
p574
S'visited'
p575
S'[[con]]'
p576
tp577
F0.00045599635202918376
s(S'[[con]]'
p578
S'visited'
p579
S'[[con]]'
p580
tp581
F0.00045599635202918376
s(S'[[det]]'
p582
S'run'
p583
S'for'
p584
tp585
F0.00045599635202918376
s(S'later'
p586
S'moved'
p587
S'to'
p588
tp589
F0.00045599635202918376
s(S'has'
p590
S'met'
p591
S'with'
p592
tp593
F0.00045599635202918376
s(S'[[adj]]'
p594
S'signed'
p595
S'with'
p596
tp597
F0.00045599635202918376
s(S'[[con]]'
p598
S'played'
p599
S'together'
p600
tp601
F0.00045599635202918376
s(S'before'
p602
S'returned'
p603
S'to'
p604
tp605
F0.00045599635202918376
s(S'then'
p606
S'moved'
p607
S'into'
p608
tp609
F0.00045599635202918376
s(S'then'
p610
S'selected'
p611
S'to'
p612
tp613
F0.00045599635202918376
s(S'where'
p614
S'received'
p615
S'from'
p616
tp617
F0.00045599635202918376
s(S'also'
p618
S'established'
p619
S'[[det]]'
p620
tp621
F0.00045599635202918376
s(S'have'
p622
S'served'
p623
S'in'
p624
tp625
F0.00045599635202918376
s(S'born'
p626
S'[[con]]'
p627
S'then'
p628
tp629
F0.00045599635202918376
s(S'who'
p630
S'joined'
p631
S'[[det]]'
p632
tp633
F0.00045599635202918376
s(S'to'
p634
S'run'
p635
S'at'
p636
tp637
F0.00045599635202918376
s(S'[[con]]'
p638
S'met'
p639
S'with'
p640
tp641
F0.00045599635202918376
s(S'became'
p642
S'head'
p643
S'[[det]]'
p644
tp645
F0.00045599635202918376
s(S'[[adj]]'
p646
S'received'
p647
S'from'
p648
tp649
F0.00045599635202918376
s(S'become'
p650
S'director'
p651
S'of'
p652
tp653
F0.00045599635202918376
s(S'[[det]]'
p654
S'minister'
p655
S'to'
p656
tp657
F0.00045599635202918376
s(S'[[adj]]'
p658
S'run'
p659
S'in'
p660
tp661
F0.00045599635202918376
s(S'since'
p662
S'returned'
p663
S'to'
p664
tp665
F0.00045599635202918376
s(S'born'
p666
S'into'
p667
S'[[adj]]'
p668
tp669
F0.0009119927040583675
s(S'[[det]]'
p670
S'representative'
p671
S'for'
p672
tp673
F0.00045599635202918376
s(S'then'
p674
S'commissioned'
p675
S'as'
p676
tp677
F0.00045599635202918376
s(S'[[adj]]'
p678
S'nominee'
p679
S'for'
p680
tp681
F0.00045599635202918376
s(S'[[adj]]'
p682
S'woman'
p683
S'from'
p684
tp685
F0.00045599635202918376
s(S'became'
p686
S'director'
p687
S'at'
p688
tp689
F0.00045599635202918376
s(S'then'
p690
S'played'
p691
S'[[con]]'
p692
tp693
F0.00045599635202918376
s(S'[[det]]'
p694
S'director'
p695
S'for'
p696
tp697
F0.00045599635202918376
s(S'[[con]]'
p698
S'works'
p699
S'in'
p700
tp701
F0.0013679890560875513
s(S'then'
p702
S'coached'
p703
S'in'
p704
tp705
F0.00045599635202918376
s(S'[[det]]'
p706
S'governor'
p707
S'of'
p708
tp709
F0.00045599635202918376
s(S'only'
p710
S'played'
p711
S'with'
p712
tp713
F0.00045599635202918376
s(S'also'
p714
S'recognized'
p715
S'by'
p716
tp717
F0.00045599635202918376
s(S'born'
p718
S'[[con]]'
p719
g586
tp720
F0.00045599635202918376
s(S'[[det]]'
p721
S'bachelor'
p722
g37
tp723
F0.00045599635202918376
s(S'later'
p724
S'played'
p725
S'against'
p726
tp727
F0.00045599635202918376
s(S'[[con]]'
p728
S'worked'
p729
S'at'
p730
tp731
F0.00045599635202918376
s(S'been'
p732
S'featured'
p733
S'as'
p734
tp735
F0.00045599635202918376
s(S'to'
p736
S'head'
p737
S'for'
p738
tp739
F0.00045599635202918376
s(S'also'
p740
S'represented'
p741
S'against'
p742
tp743
F0.00045599635202918376
s(S'had'
p744
S'joined'
p745
S'side'
p746
tp747
F0.00045599635202918376
s(S'who'
p748
S'graduated'
p749
S'from'
p750
tp751
F0.00045599635202918376
s(S'instead'
p752
S'signed'
p753
S'for'
p754
tp755
F0.00045599635202918376
s(S'had'
p756
S'called'
p757
S'for'
p758
tp759
F0.00045599635202918376
s(S'also'
p760
S'won'
p761
S'in'
p762
tp763
F0.00045599635202918376
s(g219
g220
S'officer'
p764
tp765
F0.001823985408116735
s(S'was'
p766
S'president'
p767
S'[[con]]'
p768
tp769
F0.00045599635202918376
s(S'also'
p770
S'received'
p771
S'[[prp]]'
p772
tp773
F0.00045599635202918376
s(S'born'
p774
S'moved'
p775
S'to'
p776
tp777
F0.0009119927040583675
s(g481
g482
S'member'
p778
tp779
F0.0009119927040583675
s(S'played'
p780
S'for'
p781
S'team'
p782
tp783
F0.0013679890560875513
s(S'born'
p784
S'to'
p785
S'[[adj]]'
p786
tp787
F0.0009119927040583675
s(S'[[adj]]'
p788
S'ambassador'
p789
S'for'
p790
tp791
F0.00045599635202918376
s(S'then'
p792
S'signed'
p793
S'on'
p794
tp795
F0.00045599635202918376
s(S'is'
p796
S'head'
p797
S'at'
p798
tp799
F0.00045599635202918376
s(S'also'
p800
S'known'
p801
S'in'
p802
tp803
F0.00045599635202918376
s(S'[[adj]]'
p804
S'time'
p805
S'[[adj]]'
p806
tp807
F0.00045599635202918376
s(S'where'
p808
S'served'
p809
S'with'
p810
tp811
F0.00045599635202918376
s(S'also'
p812
S'played'
p813
S'from'
p814
tp815
F0.00045599635202918376
s(S'also'
p816
S'play'
p817
S'with'
p818
tp819
F0.00045599635202918376
s(S'to'
p820
S'represent'
p821
S'[[det]]'
p822
tp823
F0.00045599635202918376
s(S'then'
p824
S'signed'
p825
S'for'
p826
tp827
F0.00045599635202918376
s(S'[[adj]]'
p828
S'play'
p829
S'against'
p830
tp831
F0.00045599635202918376
s(S'served'
p832
S'as'
p833
S'[[det]]'
p834
tp835
F0.002279981760145919
s(S'[[con]]'
p836
S'ambassador'
p837
S'to'
p838
tp839
F0.00045599635202918376
s(S'[[mod]]'
p840
S'serve'
p841
S'to'
p842
tp843
F0.00045599635202918376
s(S'had'
p844
S'represented'
p845
S'[[det]]'
p846
tp847
F0.00045599635202918376
s(S'was'
p848
S'selected'
p849
S'[[num]]'
p850
tp851
F0.00045599635202918376
s(S'was'
p852
S'head'
p853
S'at'
p854
tp855
F0.00045599635202918376
s(S'[[con]]'
p856
S'visited'
p857
S'[[det]]'
p858
tp859
F0.00045599635202918376
s(S'[[mod]]'
p860
S'play'
p861
S'in'
p862
tp863
F0.00045599635202918376
s(S'was'
p864
S'represented'
p865
S'for'
p866
tp867
F0.00045599635202918376
s(S'soon'
p868
S'met'
p869
S'[[con]]'
p870
tp871
F0.00045599635202918376
s(S'been'
p872
S'awarded'
p873
S'[[con]]'
p874
tp875
F0.00045599635202918376
s(S'was'
p876
S'member'
p877
S'of'
p878
tp879
F0.00045599635202918376
s(S'also'
p880
S'joined'
p881
S'[[det]]'
p882
tp883
F0.00045599635202918376
s(S'has'
p884
S'fought'
p885
S'in'
p886
tp887
F0.00045599635202918376
s(S'[[det]]'
p888
S'politician'
p889
S'from'
p890
tp891
F0.0009119927040583675
s(S'then'
p892
S'worked'
p893
S'as'
p894
tp895
F0.00045599635202918376
s(S'has'
p896
S'served'
p897
S'before'
p898
tp899
F0.00045599635202918376
s(g37
S'stay'
p900
S'in'
p901
tp902
F0.00045599635202918376
s(S'is'
p903
S'named'
p904
S'of'
p905
tp906
F0.00045599635202918376
s(S'was'
p907
S'head'
p908
S'[[det]]'
p909
tp910
F0.00045599635202918376
s(S'have'
p911
S'left'
p912
S'[[det]]'
p913
tp914
F0.00045599635202918376
s(S'which'
p915
S'received'
p916
S'[[det]]'
p917
tp918
F0.00045599635202918376
s(S'has'
p919
S'previously'
p920
S'been'
p921
tp922
F0.00045599635202918376
s(S'was'
p923
S'awarded'
p924
S'[[det]]'
p925
tp926
F0.005015959872321021
s(S'[[mod]]'
p927
S'run'
p928
S'as'
p929
tp930
F0.00045599635202918376
s(S'later'
p931
S'received'
p932
S'[[con]]'
p933
tp934
F0.00045599635202918376
s(S'born'
p935
S'into'
p936
S'[[det]]'
p937
tp938
F0.0009119927040583675
s(S'born'
p939
S'is'
p940
S'player'
p941
tp942
F0.00045599635202918376
s(S'later'
p943
S'joined'
p944
S'[[det]]'
p945
tp946
F0.00045599635202918376
s(S'[[adj]]'
p947
S'years'
p948
S'spent'
p949
tp950
F0.00045599635202918376
s(S'was'
p951
S'previously'
p952
S'in'
p953
tp954
F0.00045599635202918376
s(S'been'
p955
S'nominated'
p956
S'by'
p957
tp958
F0.00045599635202918376
s(S'not'
p959
S'played'
p960
S'for'
p961
tp962
F0.00045599635202918376
s(S'born'
p963
S'in'
p964
S'[[det]]'
p965
tp966
F0.0013679890560875513
s(S'served'
p967
S'as'
p968
S'officer'
p969
tp970
F0.0009119927040583675
s(S'had'
p971
S'known'
p972
S'in'
p973
tp974
F0.00045599635202918376
s(S'[[con]]'
p975
S'return'
p976
S'to'
p977
tp978
F0.00045599635202918376
s(S'also'
p979
S'served'
p980
S'to'
p981
tp982
F0.00045599635202918376
s(S'[[num]]'
p983
S'served'
p984
S'on'
p985
tp986
F0.00045599635202918376
s(S'rated'
p987
S'[[det]]'
p988
S'[[adj]]'
p989
tp990
F0.00045599635202918376
s(S'[[adj]]'
p991
S'figure'
p992
S'in'
p993
tp994
F0.00045599635202918376
s(S'is'
p995
S'known'
p996
S'outside'
p997
tp998
F0.00045599635202918376
s(S'have'
p999
S'gone'
p1000
S'to'
p1001
tp1002
F0.00045599635202918376
s(S'[[adj]]'
p1003
S'ambassador'
p1004
S'of'
p1005
tp1006
F0.00045599635202918376
s(S'later'
p1007
S'coached'
p1008
S'with'
p1009
tp1010
F0.00045599635202918376
s(S'was'
p1011
S'joined'
p1012
S'at'
p1013
tp1014
F0.00045599635202918376
s(S'[[det]]'
p1015
S'director'
p1016
S'[[con]]'
p1017
tp1018
F0.00045599635202918376
s(S'been'
p1019
S'named'
p1020
S'of'
p1021
tp1022
F0.00045599635202918376
s(S'[[adj]]'
p1023
S'worked'
p1024
S'at'
p1025
tp1026
F0.00045599635202918376
s(S'[[num]]'
p1027
S'played'
p1028
S'for'
p1029
tp1030
F0.00045599635202918376
s(S'returned'
p1031
S'to'
p1032
S'[[prp]]'
p1033
tp1034
F0.00045599635202918376
s(S'[[con]]'
p1035
S'worked'
p1036
S'again'
p1037
tp1038
F0.00045599635202918376
s(S'been'
p1039
S'named'
p1040
S'to'
p1041
tp1042
F0.00045599635202918376
s(S'[[con]]'
p1043
S'won'
p1044
S'with'
p1045
tp1046
F0.00045599635202918376
s(S'had'
p1047
S'signed'
p1048
S'with'
p1049
tp1050
F0.00045599635202918376
s(S'who'
p1051
S'came'
p1052
S'from'
p1053
tp1054
F0.00045599635202918376
s(S'never'
p1055
S'played'
p1056
S'[[con]]'
p1057
tp1058
F0.00045599635202918376
s(S'again'
p1059
S'named'
p1060
S'in'
p1061
tp1062
F0.00045599635202918376
s(S'also'
p1063
S'signed'
p1064
S'by'
p1065
tp1066
F0.00045599635202918376
s(S'then'
p1067
S'appointed'
p1068
S'[[pro]]'
p1069
tp1070
F0.00045599635202918376
s(S'that'
p1071
S'played'
p1072
S'in'
p1073
tp1074
F0.00045599635202918376
s(S'[[con]]'
p1075
S'teaches'
p1076
S'at'
p1077
tp1078
F0.00045599635202918376
s(g988
g989
S'player'
p1079
tp1080
F0.00045599635202918376
s(S'later'
p1081
S'appointed'
p1082
S'as'
p1083
tp1084
F0.00045599635202918376
s(S'also'
p1085
S'nominated'
p1086
S'[[num]]'
p1087
tp1088
F0.00045599635202918376
s(S'later'
p1089
S'elected'
p1090
S'of'
p1091
tp1092
F0.00045599635202918376
s(S'[[det]]'
p1093
S'head'
p1094
S'at'
p1095
tp1096
F0.00045599635202918376
s(S'who'
p1097
S'moved'
p1098
S'from'
p1099
tp1100
F0.00045599635202918376
s(S'also'
p1101
S'serves'
p1102
S'on'
p1103
tp1104
F0.00045599635202918376
s(S'also'
p1105
S'named'
p1106
S'to'
p1107
tp1108
F0.00045599635202918376
s(S'[[prp]]'
p1109
S'time'
p1110
S'to'
p1111
tp1112
F0.00045599635202918376
s(S'[[adj]]'
p1113
S'elected'
p1114
S'from'
p1115
tp1116
F0.00045599635202918376
s(S'[[det]]'
p1117
S'governor'
p1118
S'[[det]]'
p1119
tp1120
F0.00045599635202918376
s(S'been'
p1121
S'named'
p1122
S'[[con]]'
p1123
tp1124
F0.00045599635202918376
s(S'was'
p1125
S'awarded'
p1126
S'of'
p1127
tp1128
F0.00045599635202918376
s(S'never'
p1129
S'played'
p1130
S'for'
p1131
tp1132
F0.0009119927040583675
s(S'ran'
p1133
S'unsuccessfully'
p1134
S'for'
p1135
tp1136
F0.0009119927040583675
s(S'then'
p1137
S'appointed'
p1138
S'at'
p1139
tp1140
F0.00045599635202918376
s(S'[[con]]'
p1141
S'based'
p1142
S'in'
p1143
tp1144
F0.00045599635202918376
s(S'[[det]]'
p1145
S'citizen'
p1146
S'of'
p1147
tp1148
F0.00045599635202918376
s(S'[[adj]]'
p1149
S'served'
p1150
S'to'
p1151
tp1152
F0.00045599635202918376
s(S'also'
p1153
S'played'
p1154
S'for'
p1155
tp1156
F0.001823985408116735
s(S'[[con]]'
p1157
S'head'
p1158
S'of'
p1159
tp1160
F0.00045599635202918376
s(S'also'
p1161
S'received'
p1162
S'at'
p1163
tp1164
F0.00045599635202918376
s(S'who'
p1165
S'served'
p1166
S'from'
p1167
tp1168
F0.0009119927040583675
s(S'has'
p1169
S'founded'
p1170
S'[[con]]'
p1171
tp1172
F0.00045599635202918376
s(S'was'
p1173
S'appointed'
p1174
S'at'
p1175
tp1176
F0.00045599635202918376
s(S'now'
p1177
S'lives'
p1178
S'[[con]]'
p1179
tp1180
F0.00045599635202918376
s(S'[[adj]]'
p1181
S'instructor'
p1182
S'at'
p1183
tp1184
F0.00045599635202918376
s(S'had'
p1185
S'worked'
p1186
S'for'
p1187
tp1188
F0.00045599635202918376
s(S'later'
p1189
S'awarded'
p1190
S'from'
p1191
tp1192
F0.00045599635202918376
s(S'[[adj]]'
p1193
S'governor'
p1194
S'in'
p1195
tp1196
F0.00045599635202918376
s(S'who'
p1197
S'signed'
p1198
S'[[det]]'
p1199
tp1200
F0.00045599635202918376
s(S'had'
p1201
S'arrived'
p1202
S'in'
p1203
tp1204
F0.00045599635202918376
s(S'also'
p1205
S'worked'
p1206
S'at'
p1207
tp1208
F0.00045599635202918376
s(S'is'
p1209
S'known'
p1210
S'in'
p1211
tp1212
F0.00045599635202918376
s(S'later'
p1213
S'won'
p1214
S'in'
p1215
tp1216
F0.00045599635202918376
s(S'[[prp]]'
p1217
S'time'
p1218
S'in'
p1219
tp1220
F0.00045599635202918376
s(S'[[adj]]'
p1221
S'run'
p1222
S'for'
p1223
tp1224
F0.00045599635202918376
s(S'on'
p1225
S'behalf'
p1226
S'of'
p1227
tp1228
F0.00045599635202918376
s(S'first'
p1229
S'played'
p1230
S'for'
p1231
tp1232
F0.00045599635202918376
s(S'since'
p1233
S'worked'
p1234
S'with'
p1235
tp1236
F0.00045599635202918376
s(S'[[adj]]'
p1237
S'work'
p1238
S'in'
p1239
tp1240
F0.00045599635202918376
s(S'has'
p1241
S'moved'
p1242
S'on'
p1243
tp1244
F0.00045599635202918376
s(g518
S'town'
p1245
S'in'
p1246
tp1247
F0.00045599635202918376
s(S'to'
p1248
S'play'
p1249
S'[[num]]'
p1250
tp1251
F0.00045599635202918376
s(S'[[det]]'
p1252
S'instructor'
p1253
S'[[con]]'
p1254
tp1255
F0.00045599635202918376
s(S'[[adj]]'
p1256
S'fought'
p1257
S'at'
p1258
tp1259
F0.00045599635202918376
s(S'has'
p1260
S'played'
p1261
S'[[num]]'
p1262
tp1263
F0.00045599635202918376
s(S'also'
p1264
S'known'
p1265
S'outside'
p1266
tp1267
F0.00045599635202918376
s(S'to'
p1268
S'play'
p1269
S'again'
p1270
tp1271
F0.00045599635202918376
s(S'also'
p1272
S'served'
p1273
S'for'
p1274
tp1275
F0.00045599635202918376
s(S'[[num]]'
p1276
S'produced'
p1277
S'by'
p1278
tp1279
F0.00045599635202918376
s(S'then'
p1280
S'joined'
p1281
S'of'
p1282
tp1283
F0.00045599635202918376
s(S'played'
p1284
S'for'
p1285
S'[[adj]]'
p1286
tp1287
F0.0013679890560875513
s(S'[[adj]]'
p1288
S'activities'
p1289
S'in'
p1290
tp1291
F0.00045599635202918376
s(S'was'
p1292
S'named'
p1293
S'of'
p1294
tp1295
F0.00045599635202918376
s(S'works'
p1296
S'[[con]]'
p1297
S'lives'
p1298
tp1299
F0.00045599635202918376
s(S'to'
p1300
S'head'
p1301
S'in'
p1302
tp1303
F0.00045599635202918376
s(S'[[adj]]'
p1304
S'honor'
p1305
S'in'
p1306
tp1307
F0.00045599635202918376
s(S'been'
p1308
S'named'
p1309
S'in'
p1310
tp1311
F0.00045599635202918376
s(S'[[det]]'
p1312
S'representative'
p1313
S'[[det]]'
p1314
tp1315
F0.00045599635202918376
s(S'had'
p1316
S'coached'
p1317
S'[[det]]'
p1318
tp1319
F0.00045599635202918376
s(S'also'
p1320
S'met'
p1321
S'[[det]]'
p1322
tp1323
F0.00045599635202918376
s(S'[[con]]'
p1324
S'returned'
p1325
S'at'
p1326
tp1327
F0.00045599635202918376
s(g340
S'times'
p1328
S'[[det]]'
p1329
tp1330
F0.00045599635202918376
s(S'also'
p1331
S'attended'
p1332
S'[[con]]'
p1333
tp1334
F0.00045599635202918376
s(S'has'
p1335
S'visited'
p1336
S'[[con]]'
p1337
tp1338
F0.00045599635202918376
s(S'was'
p1339
S'appointed'
p1340
S'ambassador'
p1341
tp1342
F0.002279981760145919
s(S'had'
p1343
S'arrived'
p1344
S'to'
p1345
tp1346
F0.00045599635202918376
s(S'[[adj]]'
p1347
S'played'
p1348
S'with'
p1349
tp1350
F0.00045599635202918376
s(S'later'
p1351
S'coached'
p1352
S'[[det]]'
p1353
tp1354
F0.00045599635202918376
s(S'then'
p1355
S'played'
p1356
S'then'
p1357
tp1358
F0.00045599635202918376
s(S'was'
p1359
S'featured'
p1360
S'of'
p1361
tp1362
F0.00045599635202918376
s(S'when'
p1363
S'attended'
p1364
S'[[det]]'
p1365
tp1366
F0.00045599635202918376
s(S'is'
p1367
S'member'
p1368
S'[[det]]'
p1369
tp1370
F0.00045599635202918376
s(S'also'
p1371
S'play'
p1372
S'[[det]]'
p1373
tp1374
F0.00045599635202918376
s(S'to'
p1375
S'serve'
p1376
S'at'
p1377
tp1378
F0.00045599635202918376
s(S'to'
p1379
S'play'
p1380
S'of'
p1381
tp1382
F0.00045599635202918376
s(S'now'
p1383
S'serves'
p1384
S'for'
p1385
tp1386
F0.00045599635202918376
s(S'then'
p1387
S'appointed'
p1388
S'of'
p1389
tp1390
F0.00045599635202918376
s(S'[[det]]'
p1391
S'nominee'
p1392
S'for'
p1393
tp1394
F0.00045599635202918376
s(S'was'
p1395
S'commissioned'
p1396
S'into'
p1397
tp1398
F0.00045599635202918376
s(S'[[adj]]'
p1399
S'time'
p1400
S'with'
p1401
tp1402
F0.00045599635202918376
s(S'then'
p1403
S'joined'
p1404
S'[[det]]'
p1405
tp1406
F0.00045599635202918376
s(S'was'
p1407
S'member'
p1408
S'[[num]]'
p1409
tp1410
F0.00045599635202918376
s(S'[[det]]'
p1411
S'work'
p1412
S'[[con]]'
p1413
tp1414
F0.00045599635202918376
s(S'[[adj]]'
p1415
S'years'
p1416
S'in'
p1417
tp1418
F0.001823985408116735
s(S'in'
p1419
S'leading'
p1420
S'[[det]]'
p1421
tp1422
F0.00045599635202918376
s(S'now'
p1423
S'plays'
p1424
S'in'
p1425
tp1426
F0.00045599635202918376
s(S'[[con]]'
p1427
S'established'
p1428
S'[[det]]'
p1429
tp1430
F0.00045599635202918376
s(S'had'
p1431
S'signed'
p1432
S'up'
p1433
tp1434
F0.00045599635202918376
s(S'has'
p1435
S'coached'
p1436
S'for'
p1437
tp1438
F0.00045599635202918376
s(S'had'
p1439
S'met'
p1440
S'[[con]]'
p1441
tp1442
F0.00045599635202918376
s(S'was'
p1443
S'graduated'
p1444
S'from'
p1445
tp1446
F0.00045599635202918376
s(S'currently'
p1447
S'serving'
p1448
S'in'
p1449
tp1450
F0.00045599635202918376
s(S'[[con]]'
p1451
S'visited'
p1452
S'[[adj]]'
p1453
tp1454
F0.00045599635202918376
s(g37
S'time'
p1455
S'at'
p1456
tp1457
F0.00045599635202918376
s(S'become'
p1458
S'director'
p1459
S'at'
p1460
tp1461
F0.00045599635202918376
s(S'later'
p1462
S'selected'
p1463
S'by'
p1464
tp1465
F0.00045599635202918376
s(S'also'
p1466
S'played'
p1467
S'twice'
p1468
tp1469
F0.00045599635202918376
s(S'[[det]]'
p1470
S'awarded'
p1471
S'by'
p1472
tp1473
F0.00045599635202918376
s(S'also'
p1474
S'founded'
p1475
S'[[det]]'
p1476
tp1477
F0.00045599635202918376
s(S'also'
p1478
S'received'
p1479
S'[[det]]'
p1480
tp1481
F0.00045599635202918376
s(S'ran'
p1482
S'unsuccessfully'
p1483
S'in'
p1484
tp1485
F0.00045599635202918376
s(S'[[con]]'
p1486
S'governor'
p1487
S'of'
p1488
tp1489
F0.00045599635202918376
s(S'[[adj]]'
p1490
S'come'
p1491
S'to'
p1492
tp1493
F0.00045599635202918376
s(g948
g949
S'in'
p1494
tp1495
F0.00045599635202918376
s(S'also'
p1496
S'met'
p1497
S'from'
p1498
tp1499
F0.00045599635202918376
s(S'first'
p1500
S'ran'
p1501
S'as'
p1502
tp1503
F0.00045599635202918376
s(S'[[con]]'
p1504
S'joined'
p1505
S'at'
p1506
tp1507
F0.00045599635202918376
s(S'also'
p1508
S'visited'
p1509
S'[[det]]'
p1510
tp1511
F0.00045599635202918376
s(S'[[con]]'
p1512
S'spent'
p1513
S'[[num]]'
p1514
tp1515
F0.00045599635202918376
s(S'[[con]]'
p1516
S'president'
p1517
S'of'
p1518
tp1519
F0.00045599635202918376
s(S'[[num]]'
p1520
S'graduated'
p1521
S'from'
p1522
tp1523
F0.00045599635202918376
s(S'[[adj]]'
p1524
S'member'
p1525
S'[[num]]'
p1526
tp1527
F0.00045599635202918376
s(S'not'
p1528
S'play'
p1529
S'for'
p1530
tp1531
F0.00045599635202918376
s(S'born'
p1532
S'[[con]]'
p1533
S'grew'
p1534
tp1535
F0.00045599635202918376
s(S'has'
p1536
S'served'
p1537
S'until'
p1538
tp1539
F0.00045599635202918376
s(S'[[con]]'
p1540
S'met'
p1541
S'[[con]]'
p1542
tp1543
F0.00045599635202918376
s(S'[[det]]'
p1544
S'team'
p1545
S'played'
p1546
tp1547
F0.00045599635202918376
s(S'[[con]]'
p1548
S'ran'
p1549
S'for'
p1550
tp1551
F0.00045599635202918376
s(S'became'
p1552
S'president'
p1553
S'of'
p1554
tp1555
F0.00045599635202918376
s(S'[[adj]]'
p1556
S'years'
p1557
S'[[con]]'
p1558
tp1559
F0.00045599635202918376
s(S'had'
p1560
S'come'
p1561
S'from'
p1562
tp1563
F0.00045599635202918376
s(S'part'
p1564
S'time'
p1565
S'at'
p1566
tp1567
F0.00045599635202918376
s(S'has'
p1568
S'fought'
p1569
S'for'
p1570
tp1571
F0.00045599635202918376
s(S'[[adj]]'
p1572
S'head'
p1573
S'at'
p1574
tp1575
F0.00045599635202918376
s(S'had'
p1576
S'served'
p1577
S'in'
p1578
tp1579
F0.00045599635202918376
s(S'also'
p1580
S'played'
p1581
S'to'
p1582
tp1583
F0.00045599635202918376
s(S'[[det]]'
p1584
S'elected'
p1585
S'from'
p1586
tp1587
F0.00045599635202918376
s(g37
S'home'
p1588
S'country'
p1589
tp1590
F0.00045599635202918376
s(S'was'
p1591
S'moved'
p1592
S'after'
p1593
tp1594
F0.00045599635202918376
s(S'that'
p1595
S'won'
p1596
S'for'
p1597
tp1598
F0.00045599635202918376
s(S'born'
p1599
S'[[num]]'
p1600
S'player'
p1601
tp1602
F0.00045599635202918376
s(S'[[det]]'
p1603
S'governor'
p1604
S'in'
p1605
tp1606
F0.00045599635202918376
s(S'where'
p1607
S'met'
p1608
S'[[adj]]'
p1609
tp1610
F0.00045599635202918376
s(S'had'
p1611
S'retired'
p1612
S'from'
p1613
tp1614
F0.00045599635202918376
s(g936
g937
S'family'
p1615
tp1616
F0.0009119927040583675
s(S'born'
p1617
S'in'
p1618
S'town'
p1619
tp1620
F0.00045599635202918376
s(S'then'
p1621
S'fought'
p1622
S'at'
p1623
tp1624
F0.00045599635202918376
s(S'again'
p1625
S'selected'
p1626
S'for'
p1627
tp1628
F0.00045599635202918376
s(S'was'
p1629
S'honored'
p1630
S'as'
p1631
tp1632
F0.00045599635202918376
s(S'also'
p1633
S'teaches'
p1634
S'at'
p1635
tp1636
F0.00045599635202918376
s(S'[[adj]]'
p1637
S'director'
p1638
S'[[det]]'
p1639
tp1640
F0.00045599635202918376
s(S'of'
p1641
S'based'
p1642
S'in'
p1643
tp1644
F0.00045599635202918376
s(S'was'
p1645
S'head'
p1646
S'of'
p1647
tp1648
F0.00045599635202918376
s(S'formerly'
p1649
S'played'
p1650
S'with'
p1651
tp1652
F0.00045599635202918376
s(S'been'
p1653
S'featured'
p1654
S'on'
p1655
tp1656
F0.00045599635202918376
s(S'was'
p1657
S'selected'
p1658
S'as'
p1659
tp1660
F0.00045599635202918376
s(S'is'
p1661
S'president'
p1662
S'in'
p1663
tp1664
F0.00045599635202918376
s(S'was'
p1665
S'selected'
p1666
S'to'
p1667
tp1668
F0.00045599635202918376
s(S'also'
p1669
S'appointed'
p1670
S'[[num]]'
p1671
tp1672
F0.00045599635202918376
s(S'was'
p1673
S'signed'
p1674
S'by'
p1675
tp1676
F0.00045599635202918376
s(S'player'
p1677
S'born'
p1678
S'in'
p1679
tp1680
F0.00045599635202918376
s(S'has'
p1681
S'received'
p1682
S'[[num]]'
p1683
tp1684
F0.00045599635202918376
s(S'[[con]]'
p1685
S'left'
p1686
S'to'
p1687
tp1688
F0.00045599635202918376
s(S'been'
p1689
S'serving'
p1690
S'in'
p1691
tp1692
F0.00045599635202918376
s(S'competed'
p1693
S'for'
p1694
S'[[det]]'
p1695
tp1696
F0.00045599635202918376
s(S'had'
p1697
S'previously'
p1698
S'been'
p1699
tp1700
F0.00045599635202918376
s(S'to'
p1701
S'represent'
p1702
S'[[adj]]'
p1703
tp1704
F0.00045599635202918376
s(S'now'
p1705
S'plays'
p1706
S'with'
p1707
tp1708
F0.00045599635202918376
s(S'[[con]]'
p1709
S'remained'
p1710
S'in'
p1711
tp1712
F0.00045599635202918376
s(S'then'
p1713
S'appointed'
p1714
S'[[adj]]'
p1715
tp1716
F0.00045599635202918376
s(S'has'
p1717
S'served'
p1718
S'at'
p1719
tp1720
F0.00045599635202918376
s(S'[[adj]]'
p1721
g1677
g1678
tp1722
F0.00045599635202918376
s(S'again'
p1723
S'represented'
p1724
S'[[det]]'
p1725
tp1726
F0.00045599635202918376
s(S'later'
p1727
S'signed'
p1728
S'for'
p1729
tp1730
F0.00045599635202918376
s(S'was'
p1731
S'member'
p1732
S'[[det]]'
p1733
tp1734
F0.00045599635202918376
s(S'who'
p1735
S'worked'
p1736
S'in'
p1737
tp1738
F0.00045599635202918376
s(S'was'
p1739
S'appointed'
p1740
S'on'
p1741
tp1742
F0.00045599635202918376
s(S'again'
p1743
S'selected'
p1744
S'in'
p1745
tp1746
F0.00045599635202918376
s(S'was'
p1747
S'previously'
p1748
S'[[det]]'
p1749
tp1750
F0.00045599635202918376
s(S'[[adj]]'
p1751
S'nominee'
p1752
S'of'
p1753
tp1754
F0.00045599635202918376
s(S'is'
p1755
S'director'
p1756
S'[[con]]'
p1757
tp1758
F0.00045599635202918376
s(S'[[adj]]'
p1759
S'authors'
p1760
S'of'
p1761
tp1762
F0.00045599635202918376
s(g1533
g1534
S'up'
p1763
tp1764
F0.00045599635202918376
s(g628
S'moved'
p1765
S'to'
p1766
tp1767
F0.0009119927040583675
s(S'pitcher'
p1768
g238
g239
tp1769
F0.00045599635202918376
s(S'[[adj]]'
p1770
S'elected'
p1771
S'in'
p1772
tp1773
F0.00045599635202918376
s(S'[[det]]'
p1774
S'member'
p1775
S'for'
p1776
tp1777
F0.00045599635202918376
s(S'also'
p1778
S'represented'
p1779
S'[[det]]'
p1780
tp1781
F0.00045599635202918376
s(S'have'
p1782
S'come'
p1783
S'from'
p1784
tp1785
F0.00045599635202918376
s(S'also'
p1786
S'attended'
p1787
S'[[det]]'
p1788
tp1789
F0.00045599635202918376
s(S'[[num]]'
p1790
S'worked'
p1791
S'for'
p1792
tp1793
F0.00045599635202918376
s(S'became'
p1794
S'member'
p1795
S'of'
p1796
tp1797
F0.00045599635202918376
s(S'later'
p1798
S'played'
p1799
S'in'
p1800
tp1801
F0.00045599635202918376
s(g37
S'return'
p1802
S'from'
p1803
tp1804
F0.00045599635202918376
s(S'was'
p1805
S'named'
p1806
S'with'
p1807
tp1808
F0.00045599635202918376
s(S'was'
p1809
S'recognized'
p1810
S'to'
p1811
tp1812
F0.00045599635202918376
s(S'[[con]]'
p1813
S'received'
p1814
S'at'
p1815
tp1816
F0.00045599635202918376
s(S'later'
p1817
S'left'
p1818
S'for'
p1819
tp1820
F0.00045599635202918376
s(S'[[pro]]'
p1821
S'graduated'
p1822
S'from'
p1823
tp1824
F0.00045599635202918376
s(S'[[det]]'
p1825
S'candidate'
p1826
S'as'
p1827
tp1828
F0.00045599635202918376
s(S'had'
p1829
S'served'
p1830
S'as'
p1831
tp1832
F0.00045599635202918376
s(S'[[prp]]'
p1833
S'ambassador'
p1834
S'to'
p1835
tp1836
F0.00045599635202918376
s(S'is'
p1837
S'appointed'
p1838
S'to'
p1839
tp1840
F0.00045599635202918376
s(S'now'
p1841
S'teaches'
p1842
S'at'
p1843
tp1844
F0.00045599635202918376
s(S'to'
p1845
S'work'
p1846
S'in'
p1847
tp1848
F0.00045599635202918376
s(S'also'
p1849
S'received'
p1850
S'from'
p1851
tp1852
F0.00045599635202918376
s(S'have'
p1853
S'come'
p1854
S'in'
p1855
tp1856
F0.00045599635202918376
s(S'was'
p1857
S'previously'
p1858
S'with'
p1859
tp1860
F0.00045599635202918376
s(S'made'
p1861
S'captain'
p1862
S'of'
p1863
tp1864
F0.00045599635202918376
s(S'later'
p1865
S'worked'
p1866
S'at'
p1867
tp1868
F0.00045599635202918376
s(g667
g668
S'family'
p1869
tp1870
F0.0009119927040583675
s(S'later'
p1871
S'served'
p1872
S'at'
p1873
tp1874
F0.00045599635202918376
s(S'[[det]]'
p1875
S'time'
p1876
S'[[pro]]'
p1877
tp1878
F0.00045599635202918376
s(S'then'
p1879
S'signed'
p1880
S'in'
p1881
tp1882
F0.00045599635202918376
s(g968
g969
S'in'
p1883
tp1884
F0.00045599635202918376
s(S'was'
p1885
S'selected'
p1886
S'from'
p1887
tp1888
F0.00045599635202918376
s(S'[[con]]'
p1889
S'entered'
p1890
S'[[det]]'
p1891
tp1892
F0.00045599635202918376
s(S'born'
p1893
S'to'
p1894
S'[[det]]'
p1895
tp1896
F0.00045599635202918376
s(S'has'
p1897
S'remained'
p1898
S'in'
p1899
tp1900
F0.00045599635202918376
s(S'received'
p1901
S'[[prp]]'
p1902
S'bachelor'
p1903
tp1904
F0.0009119927040583675
s(S'then'
p1905
S'worked'
p1906
S'for'
p1907
tp1908
F0.00045599635202918376
s(S'not'
p1909
S'run'
p1910
S'for'
p1911
tp1912
F0.00045599635202918376
s(S'[[det]]'
p1913
S'sergeant'
p1914
S'in'
p1915
tp1916
F0.00045599635202918376
s(S'[[adj]]'
p1917
S'captain'
p1918
S'in'
p1919
tp1920
F0.00045599635202918376
s(g785
g786
S'family'
p1921
tp1922
F0.0009119927040583675
s(S'[[con]]'
p1923
S'served'
p1924
S'with'
p1925
tp1926
F0.00045599635202918376
s(S'[[det]]'
p1927
S'director'
p1928
S'on'
p1929
tp1930
F0.00045599635202918376
s(g37
S'published'
p1931
S'by'
p1932
tp1933
F0.00045599635202918376
s(S'[[con]]'
p1934
S'attended'
p1935
S'[[det]]'
p1936
tp1937
F0.00045599635202918376
s(S'also'
p1938
S'coached'
p1939
S'in'
p1940
tp1941
F0.00045599635202918376
s(S'[[prp]]'
p1942
S'place'
p1943
S'at'
p1944
tp1945
F0.00045599635202918376
s(S'became'
p1946
S'director'
p1947
S'[[det]]'
p1948
tp1949
F0.00045599635202918376
s(S'that'
p1950
S'won'
p1951
S'in'
p1952
tp1953
F0.00045599635202918376
s(S'[[det]]'
p1954
S'[[adj]]'
p1955
S'years'
p1956
tp1957
F0.0009119927040583675
s(S'[[adj]]'
p1958
S'team'
p1959
S'of'
p1960
tp1961
F0.0009119927040583675
s(S'prevent'
p1962
S'[[det]]'
p1963
S'issue'
p1964
tp1965
F0.00045599635202918376
s(S'also'
p1966
S'honored'
p1967
S'by'
p1968
tp1969
F0.00045599635202918376
s(S'was'
p1970
S'called'
p1971
S'back'
p1972
tp1973
F0.00045599635202918376
s(S'[[num]]'
p1974
S'published'
p1975
S'in'
p1976
tp1977
F0.00045599635202918376
s(S'[[adj]]'
p1978
S'fellow'
p1979
S'in'
p1980
tp1981
F0.00045599635202918376
s(S'was'
p1982
S'signed'
p1983
S'under'
p1984
tp1985
F0.00045599635202918376
s(S'as'
p1986
S'[[adj]]'
p1987
S'minister'
p1988
tp1989
F0.00045599635202918376
s(S'who'
p1990
S'arrived'
p1991
S'in'
p1992
tp1993
F0.00045599635202918376
s(g719
g586
g587
tp1994
F0.00045599635202918376
s(S'lived'
p1995
S'[[con]]'
p1996
S'returned'
p1997
tp1998
F0.00045599635202918376
s(S'until'
p1999
S'retired'
p2000
S'from'
p2001
tp2002
F0.00045599635202918376
s(S'later'
p2003
S'signed'
p2004
S'with'
p2005
tp2006
F0.00045599635202918376
s(S'on'
p2007
S'[[det]]'
p2008
S'team'
p2009
tp2010
F0.0009119927040583675
s(S'[[det]]'
p2011
S'member'
p2012
S'until'
p2013
tp2014
F0.00045599635202918376
s(S'been'
p2015
S'named'
p2016
S'by'
p2017
tp2018
F0.00045599635202918376
s(g786
g1921
S'in'
p2019
tp2020
F0.0009119927040583675
s(S'spent'
p2021
g45
g46
tp2022
F0.0009119927040583675
s(S'[[det]]'
p2023
S'candidate'
p2024
S'[[det]]'
p2025
tp2026
F0.00045599635202918376
s(S'[[adj]]'
p2027
S'director'
p2028
S'[[con]]'
p2029
tp2030
F0.00045599635202918376
s(S'mainly'
p2031
S'played'
p2032
S'for'
p2033
tp2034
F0.00045599635202918376
s(S'currently'
p2035
S'teaches'
p2036
S'[[adj]]'
p2037
tp2038
F0.00045599635202918376
s(S'[[con]]'
p2039
S'served'
p2040
S'at'
p2041
tp2042
F0.00045599635202918376
s(S'formerly'
p2043
S'worked'
p2044
S'for'
p2045
tp2046
F0.00045599635202918376
s(S'[[prp]]'
p2047
S'work'
p2048
S'with'
p2049
tp2050
F0.00045599635202918376
s(S'also'
p2051
S'named'
p2052
S'for'
p2053
tp2054
F0.00045599635202918376
s(S'played'
p2055
S'[[con]]'
p2056
S'[[det]]'
p2057
tp2058
F0.00045599635202918376
s(S'was'
p2059
S'born'
p2060
S'grew'
p2061
tp2062
F0.00045599635202918376
s(S'[[adj]]'
p2063
S'met'
p2064
S'[[det]]'
p2065
tp2066
F0.00045599635202918376
s(S'is'
p2067
S'member'
p2068
S'[[con]]'
p2069
tp2070
F0.00045599635202918376
s(S'also'
p2071
S'played'
p2072
S'with'
p2073
tp2074
F0.0013679890560875513
s(S'then'
p2075
S'joined'
p2076
S'[[adj]]'
p2077
tp2078
F0.00045599635202918376
s(S'first'
p2079
S'met'
p2080
S'[[con]]'
p2081
tp2082
F0.00045599635202918376
s(S'to'
p2083
S'join'
p2084
S'at'
p2085
tp2086
F0.00045599635202918376
s(S'is'
p2087
S'director'
p2088
S'[[det]]'
p2089
tp2090
F0.00045599635202918376
s(S'been'
p2091
S'appointed'
p2092
S'of'
p2093
tp2094
F0.00045599635202918376
s(S'formerly'
p2095
S'played'
p2096
S'for'
p2097
tp2098
F0.00045599635202918376
s(S'only'
p2099
S'played'
p2100
S'against'
p2101
tp2102
F0.00045599635202918376
s(S'where'
p2103
S'played'
p2104
S'against'
p2105
tp2106
F0.00045599635202918376
s(S'is'
p2107
S'considered'
p2108
S'by'
p2109
tp2110
F0.00045599635202918376
s(S'later'
p2111
S'appointed'
p2112
S'at'
p2113
tp2114
F0.00045599635202918376
s(S'ever'
p2115
S'play'
p2116
S'for'
p2117
tp2118
F0.00045599635202918376
s(S'was'
p2119
S'selected'
p2120
S'by'
p2121
tp2122
F0.00045599635202918376
s(S'where'
p2123
S'entered'
p2124
S'[[det]]'
p2125
tp2126
F0.00045599635202918376
s(S'is'
p2127
S'signed'
p2128
S'to'
p2129
tp2130
F0.00045599635202918376
s(S'as'
p2131
S'president'
p2132
S'of'
p2133
tp2134
F0.00045599635202918376
s(S'born'
p2135
S'in'
p2136
S'[[adj]]'
p2137
tp2138
F0.0013679890560875513
s(S'[[con]]'
p2139
S'served'
p2140
S'to'
p2141
tp2142
F0.00045599635202918376
s(S'when'
p2143
S'entered'
p2144
S'[[det]]'
p2145
tp2146
F0.00045599635202918376
s(S'[[adj]]'
p2147
S'woman'
p2148
S'of'
p2149
tp2150
F0.00045599635202918376
s(S'now'
p2151
S'signed'
p2152
S'with'
p2153
tp2154
F0.00045599635202918376
s(S'[[adj]]'
p2155
S'fellow'
p2156
S'[[con]]'
p2157
tp2158
F0.00045599635202918376
s(S'began'
p2159
S'work'
p2160
S'to'
p2161
tp2162
F0.00045599635202918376
s(S'have'
p2163
S'won'
p2164
S'with'
p2165
tp2166
F0.00045599635202918376
s(S'[[mod]]'
p2167
S'serve'
p2168
S'in'
p2169
tp2170
F0.00045599635202918376
s(S'was'
p2171
S'selected'
p2172
S'[[con]]'
p2173
tp2174
F0.00045599635202918376
s(S'currently'
p2175
S'serves'
p2176
S'at'
p2177
tp2178
F0.00045599635202918376
s(S'[[num]]'
p2179
S'years'
p2180
S'as'
p2181
tp2182
F0.0013679890560875513
s(S'[[mod]]'
p2183
S'stay'
p2184
S'in'
p2185
tp2186
F0.00045599635202918376
s(S'again'
p2187
S'served'
p2188
S'with'
p2189
tp2190
F0.00045599635202918376
s(S'also'
p2191
S'played'
p2192
S'against'
p2193
tp2194
F0.00045599635202918376
s(S'[[pro]]'
p2195
S'flee'
p2196
S'to'
p2197
tp2198
F0.00045599635202918376
s(S'had'
p2199
S'worked'
p2200
S'as'
p2201
tp2202
F0.00045599635202918376
s(S'[[mod]]'
p2203
S'run'
p2204
S'for'
p2205
tp2206
F0.00045599635202918376
s(S'who'
p2207
S'attended'
p2208
S'[[det]]'
p2209
tp2210
F0.00045599635202918376
s(S'[[num]]'
p2211
S'leading'
p2212
S'[[det]]'
p2213
tp2214
F0.00045599635202918376
s(S'then'
p2215
S'returned'
p2216
S'at'
p2217
tp2218
F0.00045599635202918376
s(S'was'
p2219
S'ambassador'
p2220
S'to'
p2221
tp2222
F0.00045599635202918376
s(S'been'
p2223
S'honored'
p2224
S'[[det]]'
p2225
tp2226
F0.00045599635202918376
s(S'[[con]]'
p2227
S'played'
p2228
S'against'
p2229
tp2230
F0.00045599635202918376
s(S'[[det]]'
p2231
S'supporter'
p2232
S'[[det]]'
p2233
tp2234
F0.00045599635202918376
s(S'was'
p2235
S'considered'
p2236
S'as'
p2237
tp2238
F0.00045599635202918376
s(S'again'
p2239
S'ran'
p2240
S'for'
p2241
tp2242
F0.00045599635202918376
s(S'commissioned'
p2243
S'officer'
p2244
S'in'
p2245
tp2246
F0.00045599635202918376
s(S'also'
p2247
S'appointed'
p2248
S'of'
p2249
tp2250
F0.00045599635202918376
s(S'also'
p2251
S'named'
p2252
S'of'
p2253
tp2254
F0.00045599635202918376
s(S'which'
p2255
S'returned'
p2256
S'to'
p2257
tp2258
F0.00045599635202918376
s(S'[[con]]'
p2259
S'worked'
p2260
S'as'
p2261
tp2262
F0.00045599635202918376
s(S'[[num]]'
p2263
S'time'
p2264
S'to'
p2265
tp2266
F0.00045599635202918376
s(S'was'
p2267
S'governor'
p2268
S'[[det]]'
p2269
tp2270
F0.00045599635202918376
s(S'formerly'
p2271
S'played'
p2272
S'in'
p2273
tp2274
F0.00045599635202918376
s(S'also'
p2275
S'director'
p2276
S'of'
p2277
tp2278
F0.00045599635202918376
s(S'was'
p2279
S'selected'
p2280
S'[[det]]'
p2281
tp2282
F0.00045599635202918376
s(S'was'
p2283
S'known'
p2284
S'in'
p2285
tp2286
F0.00045599635202918376
s(S'been'
p2287
S'brought'
p2288
S'to'
p2289
tp2290
F0.00045599635202918376
s(S'people'
p2291
S'who'
p2292
S'confirmed'
p2293
tp2294
F0.00045599635202918376
s(S'first'
p2295
S'served'
p2296
S'in'
p2297
tp2298
F0.00045599635202918376
s(S'been'
p2299
S'honored'
p2300
S'with'
p2301
tp2302
F0.00045599635202918376
s(S'then'
p2303
S'elected'
p2304
S'of'
p2305
tp2306
F0.00045599635202918376
s(S'had'
p2307
S'left'
p2308
S'for'
p2309
tp2310
F0.00045599635202918376
s(S'played'
p2311
S'on'
p2312
S'team'
p2313
tp2314
F0.00045599635202918376
s(S'[[con]]'
p2315
S'won'
p2316
S'for'
p2317
tp2318
F0.00045599635202918376
s(S'was'
p2319
S'candidate'
p2320
S'of'
p2321
tp2322
F0.00045599635202918376
s(S'has'
p2323
S'featured'
p2324
S'for'
p2325
tp2326
F0.00045599635202918376
s(g227
g228
S'to'
p2327
tp2328
F0.00045599635202918376
s(S'had'
p2329
S'signed'
p2330
S'to'
p2331
tp2332
F0.00045599635202918376
s(S'also'
p2333
S'fought'
p2334
S'with'
p2335
tp2336
F0.00045599635202918376
s(S'then'
p2337
S'joined'
p2338
S'[[num]]'
p2339
tp2340
F0.00045599635202918376
s(S'was'
p2341
S'signed'
p2342
S'[[con]]'
p2343
tp2344
F0.00045599635202918376
s(S'also'
p2345
S'graduated'
p2346
S'from'
p2347
tp2348
F0.00045599635202918376
s(S'with'
p2349
S'established'
p2350
S'[[det]]'
p2351
tp2352
F0.00045599635202918376
s(S'since'
p2353
S'worked'
p2354
S'for'
p2355
tp2356
F0.00045599635202918376
s(S'also'
p2357
S'teaches'
p2358
S'[[det]]'
p2359
tp2360
F0.00045599635202918376
s(S'be'
p2361
S'awarded'
p2362
S'[[det]]'
p2363
tp2364
F0.00045599635202918376
s(S'to'
p2365
S'work'
p2366
S'from'
p2367
tp2368
F0.00045599635202918376
s(S'[[adj]]'
p2369
S'president'
p2370
S'in'
p2371
tp2372
F0.00045599635202918376
s(S'while'
p2373
S'played'
p2374
S'for'
p2375
tp2376
F0.00045599635202918376
s(S'also'
p2377
S'president'
p2378
S'in'
p2379
tp2380
F0.00045599635202918376
s(S'[[det]]'
p2381
S'member'
p2382
S'which'
p2383
tp2384
F0.00045599635202918376
s(S'being'
p2385
S'appointed'
p2386
S'of'
p2387
tp2388
F0.00045599635202918376
s(S'was'
p2389
S'served'
p2390
S'as'
p2391
tp2392
F0.00045599635202918376
s(S'was'
p2393
S'recognized'
p2394
S'at'
p2395
tp2396
F0.00045599635202918376
s(S'later'
p2397
S'coached'
p2398
S'for'
p2399
tp2400
F0.00045599635202918376
s(S'as'
p2401
S'director'
p2402
S'of'
p2403
tp2404
F0.00045599635202918376
s(S'who'
p2405
S'served'
p2406
S'in'
p2407
tp2408
F0.00045599635202918376
s(S'again'
p2409
S'appointed'
p2410
S'to'
p2411
tp2412
F0.00045599635202918376
s(S'first'
p2413
S'arrived'
p2414
S'in'
p2415
tp2416
F0.00045599635202918376
s(S'have'
p2417
S'played'
p2418
S'for'
p2419
tp2420
F0.00045599635202918376
s(S'[[adj]]'
p2421
S'instructor'
p2422
S'for'
p2423
tp2424
F0.00045599635202918376
s(S'is'
p2425
S'appointed'
p2426
S'of'
p2427
tp2428
F0.00045599635202918376
s(S'[[con]]'
p2429
S'appointed'
p2430
S'[[pro]]'
p2431
tp2432
F0.00045599635202918376
s(S'before'
p2433
S'moved'
p2434
S'to'
p2435
tp2436
F0.00045599635202918376
s(S'later'
p2437
S'played'
p2438
S'[[con]]'
p2439
tp2440
F0.00045599635202918376
s(S'into'
p2441
S'family'
p2442
S'in'
p2443
tp2444
F0.00045599635202918376
s(S'also'
p2445
S'served'
p2446
S'at'
p2447
tp2448
F0.00045599635202918376
s(S'[[adj]]'
p2449
S'president'
p2450
S'of'
p2451
tp2452
F0.00045599635202918376
s(S'[[adj]]'
p2453
S'served'
p2454
S'in'
p2455
tp2456
F0.00045599635202918376
s(S'then'
p2457
S'moved'
p2458
S'with'
p2459
tp2460
F0.00045599635202918376
s(S'was'
p2461
S'born'
p2462
S'into'
p2463
tp2464
F0.0027359781121751026
s(S'[[det]]'
p2465
S'member'
p2466
S'of'
p2467
tp2468
F0.0031919744642042863
s(S'formerly'
p2469
S'served'
p2470
S'at'
p2471
tp2472
F0.00045599635202918376
s(S'also'
p2473
S'selected'
p2474
S'for'
p2475
tp2476
F0.00045599635202918376
s(S'was'
p2477
S'commissioned'
p2478
S'to'
p2479
tp2480
F0.00045599635202918376
s(S'later'
p2481
S'coached'
p2482
S'at'
p2483
tp2484
F0.00045599635202918376
s(S'was'
p2485
S'director'
p2486
S'[[det]]'
p2487
tp2488
F0.00045599635202918376
s(S'had'
p2489
S'served'
p2490
S'at'
p2491
tp2492
F0.00045599635202918376
s(S'still'
p2493
S'serving'
p2494
S'as'
p2495
tp2496
F0.00045599635202918376
s(S'[[adj]]'
p2497
S'head'
p2498
S'of'
p2499
tp2500
F0.00045599635202918376
s(S'formerly'
p2501
S'played'
p2502
S'as'
p2503
tp2504
F0.00045599635202918376
s(S'also'
p2505
S'met'
p2506
S'with'
p2507
tp2508
F0.00045599635202918376
s(S'later'
p2509
S'played'
p2510
S'with'
p2511
tp2512
F0.00045599635202918376
s(S'was'
p2513
S'named'
p2514
S'for'
p2515
tp2516
F0.00045599635202918376
s(S'become'
p2517
S'head'
p2518
S'at'
p2519
tp2520
F0.00045599635202918376
s(S'was'
p2521
S'head'
p2522
S'[[con]]'
p2523
tp2524
F0.00045599635202918376
s(S'[[adj]]'
p2525
g1768
g238
tp2526
F0.00045599635202918376
s(S'[[con]]'
p2527
S'signed'
p2528
S'for'
p2529
tp2530
F0.00045599635202918376
s(S'[[det]]'
p2531
S'candidate'
p2532
S'of'
p2533
tp2534
F0.00045599635202918376
s(S'[[det]]'
p2535
S'time'
p2536
S'was'
p2537
tp2538
F0.00045599635202918376
s(S'[[mod]]'
p2539
S'join'
p2540
S'[[det]]'
p2541
tp2542
F0.00045599635202918376
s(S'just'
p2543
S'left'
p2544
S'for'
p2545
tp2546
F0.00045599635202918376
s(g359
g360
S'in'
p2547
tp2548
F0.00045599635202918376
s(S'[[adj]]'
p2549
S'president'
p2550
S'[[con]]'
p2551
tp2552
F0.00045599635202918376
s(S'[[pro]]'
p2553
S'joined'
p2554
S'[[det]]'
p2555
tp2556
F0.00045599635202918376
s(S'was'
p2557
S'serving'
p2558
S'in'
p2559
tp2560
F0.00045599635202918376
s(S'is'
p2561
S'elected'
p2562
S'of'
p2563
tp2564
F0.00045599635202918376
s(S'[[con]]'
p2565
S'said'
p2566
S'[[det]]'
p2567
tp2568
F0.00045599635202918376
s(S'[[adj]]'
p2569
S'captain'
p2570
S'of'
p2571
tp2572
F0.00045599635202918376
s(S'was'
p2573
S'commissioned'
p2574
S'in'
p2575
tp2576
F0.00045599635202918376
s(S'[[adj]]'
p2577
S'politician'
p2578
S'from'
p2579
tp2580
F0.0009119927040583675
s(S'born'
p2581
S'[[num]]'
p2582
S'[[det]]'
p2583
tp2584
F0.0009119927040583675
s(S'also'
p2585
S'named'
p2586
S'in'
p2587
tp2588
F0.00045599635202918376
s(S'[[adj]]'
p2589
S'officer'
p2590
S'in'
p2591
tp2592
F0.0009119927040583675
s(S'was'
p2593
S'educated'
p2594
S'in'
p2595
tp2596
F0.0009119927040583675
s(S'had'
p2597
S'arrived'
p2598
S'from'
p2599
tp2600
F0.00045599635202918376
s(S'later'
p2601
S'represented'
p2602
S'in'
p2603
tp2604
F0.00045599635202918376
s(S'also'
p2605
S'attended'
p2606
S'from'
p2607
tp2608
F0.00045599635202918376
s(S'was'
p2609
S'joined'
p2610
S'on'
p2611
tp2612
F0.00045599635202918376
s(S'[[adj]]'
p2613
S'representative'
p2614
S'from'
p2615
tp2616
F0.00045599635202918376
s(S'been'
p2617
S'featured'
p2618
S'to'
p2619
tp2620
F0.00045599635202918376
s(S'also'
p2621
S'came'
p2622
S'to'
p2623
tp2624
F0.00045599635202918376
s(S'been'
p2625
S'transferred'
p2626
S'to'
p2627
tp2628
F0.00045599635202918376
s(S'currently'
p2629
S'lives'
p2630
S'[[con]]'
p2631
tp2632
F0.0009119927040583675
s(S'also'
p2633
S'serves'
p2634
S'to'
p2635
tp2636
F0.00045599635202918376
s(S'has'
p2637
S'served'
p2638
S'in'
p2639
tp2640
F0.00045599635202918376
s(S'[[adj]]'
p2641
S'time'
p2642
S'to'
p2643
tp2644
F0.00045599635202918376
s(S'had'
p2645
S'brought'
p2646
S'back'
p2647
tp2648
F0.00045599635202918376
s(S'[[adj]]'
p2649
S'fellow'
p2650
S'[[det]]'
p2651
tp2652
F0.00045599635202918376
s(S'has'
p2653
S'returned'
p2654
S'to'
p2655
tp2656
F0.00045599635202918376
s(S'never'
p2657
S'played'
p2658
S'[[det]]'
p2659
tp2660
F0.00045599635202918376
s(S'has'
p2661
S'received'
p2662
S'[[adj]]'
p2663
tp2664
F0.00045599635202918376
s(S'later'
p2665
S'worked'
p2666
S'on'
p2667
tp2668
F0.00045599635202918376
s(g1033
S'home'
p2669
S'in'
p2670
tp2671
F0.00045599635202918376
s(S'[[det]]'
p2672
S'president'
p2673
S'[[det]]'
p2674
tp2675
F0.00045599635202918376
s(S'[[adj]]'
p2676
S'candidate'
p2677
S'as'
p2678
tp2679
F0.00045599635202918376
s(S'served'
p2680
S'for'
p2681
g2179
tp2682
F0.001823985408116735
s(S'was'
p2683
S'appointed'
p2684
S'when'
p2685
tp2686
F0.00045599635202918376
s(S'appointed'
p2687
S'ambassador'
p2688
S'[[con]]'
p2689
tp2690
F0.00045599635202918376
s(S'[[adj]]'
p2691
S'returning'
p2692
S'to'
p2693
tp2694
F0.00045599635202918376
s(S'awarded'
p2695
S'[[det]]'
p2696
S'award'
p2697
tp2698
F0.00045599635202918376
s(S'then'
p2699
S'president'
p2700
S'[[det]]'
p2701
tp2702
F0.00045599635202918376
s(S'then'
p2703
S'joined'
p2704
S'then'
p2705
tp2706
F0.00045599635202918376
s(S'also'
p2707
S'coached'
p2708
S'with'
p2709
tp2710
F0.00045599635202918376
s(S'also'
p2711
S'served'
p2712
S'until'
p2713
tp2714
F0.00045599635202918376
s(S'then'
p2715
S'president'
p2716
S'of'
p2717
tp2718
F0.00045599635202918376
s(S'had'
p2719
S'stayed'
p2720
S'in'
p2721
tp2722
F0.00045599635202918376
s(S'was'
p2723
S'signed'
p2724
S'with'
p2725
tp2726
F0.00045599635202918376
s(S'where'
p2727
S'signed'
p2728
S'for'
p2729
tp2730
F0.00045599635202918376
s(S'began'
p2731
S'work'
p2732
S'at'
p2733
tp2734
F0.00045599635202918376
s(S'first'
p2735
S'met'
p2736
S'[[det]]'
p2737
tp2738
F0.00045599635202918376
s(S'to'
p2739
S'write'
p2740
S'[[det]]'
p2741
tp2742
F0.00045599635202918376
s(S'was'
p2743
S'moved'
p2744
S'as'
p2745
tp2746
F0.00045599635202918376
s(S'also'
p2747
S'played'
p2748
S'once'
p2749
tp2750
F0.00045599635202918376
s(S'as'
p2751
S'moved'
p2752
S'to'
p2753
tp2754
F0.00045599635202918376
s(S'first'
p2755
S'served'
p2756
S'with'
p2757
tp2758
F0.00045599635202918376
s(S'were'
p2759
S'named'
p2760
S'as'
p2761
tp2762
F0.00045599635202918376
s(S'is'
p2763
S'returning'
p2764
S'to'
p2765
tp2766
F0.00045599635202918376
s(S'[[adj]]'
p2767
S'signed'
p2768
S'by'
p2769
tp2770
F0.00045599635202918376
s(S'is'
p2771
S'head'
p2772
S'[[det]]'
p2773
tp2774
F0.00045599635202918376
s(S'later'
p2775
S'left'
p2776
S'[[det]]'
p2777
tp2778
F0.00045599635202918376
s(S'was'
p2779
S'nominated'
p2780
S'to'
p2781
tp2782
F0.00045599635202918376
s(S'was'
p2783
S'previously'
p2784
S'at'
p2785
tp2786
F0.00045599635202918376
s(S'[[adj]]'
p2787
S'award'
p2788
S'from'
p2789
tp2790
F0.00045599635202918376
s(S'[[num]]'
p2791
S'published'
p2792
S'by'
p2793
tp2794
F0.00045599635202918376
s(S'then'
p2795
S'moved'
p2796
S'up'
p2797
tp2798
F0.00045599635202918376
s(g2292
g2293
S'by'
p2799
tp2800
F0.00045599635202918376
s(S'[[con]]'
p2801
S'member'
p2802
S'of'
p2803
tp2804
F0.00045599635202918376
s(g2136
g2137
S'town'
p2805
tp2806
F0.0009119927040583675
s(S'[[adj]]'
p2807
S'member'
p2808
S'for'
p2809
tp2810
F0.00045599635202918376
s(S'became'
p2811
S'director'
p2812
S'for'
p2813
tp2814
F0.00045599635202918376
s(S'c'
p2815
S'[[det]]'
p2816
S'politician'
p2817
tp2818
F0.00045599635202918376
s(S'to'
p2819
S'represent'
p2820
S'[[num]]'
p2821
tp2822
F0.00045599635202918376
s(S'has'
p2823
S'served'
p2824
S'for'
p2825
tp2826
F0.00045599635202918376
s(S'[[adj]]'
p2827
S'instructor'
p2828
S'[[con]]'
p2829
tp2830
F0.00045599635202918376
s(S'appointed'
p2831
S'ambassador'
p2832
S'for'
p2833
tp2834
F0.00045599635202918376
s(S'born'
p2835
S'is'
p2836
g2577
tp2837
F0.0009119927040583675
s(S'was'
p2838
S'appointed'
p2839
S'[[con]]'
p2840
tp2841
F0.00045599635202918376
s(S'[[prp]]'
p2842
S'place'
p2843
S'in'
p2844
tp2845
F0.00045599635202918376
s(S'[[det]]'
p2846
S'served'
p2847
S'in'
p2848
tp2849
F0.00045599635202918376
s(S'currently'
p2850
S'plays'
p2851
S'[[con]]'
p2852
tp2853
F0.0009119927040583675
s(S'[[num]]'
p2854
S'president'
p2855
S'of'
p2856
tp2857
F0.00045599635202918376
s(S'was'
p2858
S'awarded'
p2859
S'at'
p2860
tp2861
F0.00045599635202918376
s(S'also'
p2862
S'featured'
p2863
S'for'
p2864
tp2865
F0.00045599635202918376
s(S'also'
p2866
S'serve'
p2867
S'in'
p2868
tp2869
F0.00045599635202918376
s(S'currently'
p2870
S'serves'
p2871
S'for'
p2872
tp2873
F0.00045599635202918376
s(S'then'
p2874
S'appointed'
p2875
S'[[num]]'
p2876
tp2877
F0.00045599635202918376
s(S'who'
p2878
S'won'
p2879
S'with'
p2880
tp2881
F0.00045599635202918376
s(S'was'
p2882
S'member'
p2883
S'[[con]]'
p2884
tp2885
F0.00045599635202918376
s(S'was'
p2886
S'named'
p2887
S'in'
p2888
tp2889
F0.00045599635202918376
s(S'spent'
p2890
S'most'
p2891
S'[[det]]'
p2892
tp2893
F0.00045599635202918376
s(S'which'
p2894
S'played'
p2895
S'[[con]]'
p2896
tp2897
F0.00045599635202918376
s(S'was'
p2898
S'returning'
p2899
S'to'
p2900
tp2901
F0.00045599635202918376
s(S'[[adj]]'
p2902
S'sergeant'
p2903
S'in'
p2904
tp2905
F0.00045599635202918376
s(g965
S'town'
p2906
S'of'
p2907
tp2908
F0.0013679890560875513
s(S'later'
p2909
S'fought'
p2910
S'with'
p2911
tp2912
F0.00045599635202918376
s(S'[[con]]'
p2913
S'retired'
p2914
S'from'
p2915
tp2916
F0.00045599635202918376
s(S'[[con]]'
p2917
S'played'
p2918
S'on'
p2919
tp2920
F0.00045599635202918376
s(S'then'
p2921
S'appointed'
p2922
S'to'
p2923
tp2924
F0.00045599635202918376
s(S'has'
p2925
S'visited'
p2926
S'on'
p2927
tp2928
F0.00045599635202918376
s(S'has'
p2929
S'played'
p2930
S'to'
p2931
tp2932
F0.00045599635202918376
s(S'[[adj]]'
p2933
S'woman'
p2934
S'in'
p2935
tp2936
F0.00045599635202918376
s(S'[[mod]]'
p2937
S'come'
p2938
S'to'
p2939
tp2940
F0.00045599635202918376
s(S'also'
p2941
S'represented'
p2942
S'while'
p2943
tp2944
F0.00045599635202918376
s(S'[[det]]'
p2945
S'head'
p2946
S'in'
p2947
tp2948
F0.00045599635202918376
s(S'[[con]]'
p2949
S'represented'
p2950
S'[[det]]'
p2951
tp2952
F0.00045599635202918376
s(S'awarded'
p2953
S'[[det]]'
p2954
S'title'
p2955
tp2956
F0.001823985408116735
s(S'been'
p2957
S'named'
p2958
S'as'
p2959
tp2960
F0.00045599635202918376
s(S'[[con]]'
p2961
S'served'
p2962
S'in'
p2963
tp2964
F0.0013679890560875513
s(S'member'
p2965
S'of'
p2966
S'[[num]]'
p2967
tp2968
F0.00045599635202918376
s(S'[[con]]'
p2969
S'leading'
p2970
S'[[det]]'
p2971
tp2972
F0.00045599635202918376
s(S'was'
p2973
S'founder'
p2974
S'[[con]]'
p2975
tp2976
F0.00045599635202918376
s(S'[[adj]]'
p2977
S'governor'
p2978
S'of'
p2979
tp2980
F0.00045599635202918376
s(S'been'
p2981
S'appointed'
p2982
S'[[con]]'
p2983
tp2984
F0.00045599635202918376
s(S'to'
p2985
S'play'
p2986
S'during'
p2987
tp2988
F0.00045599635202918376
s(S'again'
p2989
S'elected'
p2990
S'from'
p2991
tp2992
F0.00045599635202918376
s(S'who'
p2993
S'spent'
p2994
S'most'
p2995
tp2996
F0.00045599635202918376
s(S'[[det]]'
p2997
S'captain'
p2998
S'for'
p2999
tp3000
F0.00045599635202918376
s(S'[[adj]]'
p3001
S'government'
p3002
S'of'
p3003
tp3004
F0.00045599635202918376
s(S'[[det]]'
p3005
S'family'
p3006
S'of'
p3007
tp3008
F0.0009119927040583675
s(S'then'
p3009
S'attended'
p3010
S'[[det]]'
p3011
tp3012
F0.00045599635202918376
s(S'[[adj]]'
p3013
S'instructor'
p3014
S'in'
p3015
tp3016
F0.00045599635202918376
s(S'[[prp]]'
p3017
S'[[num]]'
p3018
S'years'
p3019
tp3020
F0.0009119927040583675
s(S'[[det]]'
p3021
S'member'
p3022
S'[[num]]'
p3023
tp3024
F0.00045599635202918376
s(S'was'
p3025
S'appointed'
p3026
S'in'
p3027
tp3028
F0.00045599635202918376
s(S'to'
p3029
S'play'
p3030
S'against'
p3031
tp3032
F0.00045599635202918376
s(S'[[adj]]'
p3033
S'player'
p3034
S'was'
p3035
tp3036
F0.00045599635202918376
s(S'first'
p3037
S'played'
p3038
S'against'
p3039
tp3040
F0.00045599635202918376
s(S'was'
p3041
S'ambassador'
p3042
S'of'
p3043
tp3044
F0.00045599635202918376
s(S'later'
p3045
S'received'
p3046
S'from'
p3047
tp3048
F0.00045599635202918376
s(S'while'
p3049
S'leading'
p3050
S'[[det]]'
p3051
tp3052
F0.00045599635202918376
s(S'be'
p3053
S'named'
p3054
S'of'
p3055
tp3056
F0.00045599635202918376
s(S'[[pro]]'
p3057
S'return'
p3058
S'to'
p3059
tp3060
F0.00045599635202918376
s(S'[[adj]]'
p3061
S'place'
p3062
S'in'
p3063
tp3064
F0.00045599635202918376
s(S'was'
p3065
S'named'
p3066
S'[[con]]'
p3067
tp3068
F0.00045599635202918376
s(S'[[adj]]'
p3069
S'attended'
p3070
S'at'
p3071
tp3072
F0.00045599635202918376
s(g1996
g1997
S'to'
p3073
tp3074
F0.00045599635202918376
s(S'[[adj]]'
p3075
S'founder'
p3076
S'of'
p3077
tp3078
F0.00045599635202918376
s(S'member'
p3079
S'of'
p3080
g1165
tp3081
F0.00045599635202918376
s(S'also'
p3082
S'plays'
p3083
S'in'
p3084
tp3085
F0.00045599635202918376
s(S'is'
p3086
S'member'
p3087
S'as'
p3088
tp3089
F0.00045599635202918376
s(S'[[adj]]'
p3090
S'work'
p3091
S'with'
p3092
tp3093
F0.00045599635202918376
s(S'[[adj]]'
p3094
S'appointed'
p3095
S'as'
p3096
tp3097
F0.00045599635202918376
s(S'served'
p3098
S'as'
p3099
S'member'
p3100
tp3101
F0.00045599635202918376
s(S'[[num]]'
p3102
S'served'
p3103
S'for'
p3104
tp3105
F0.00045599635202918376
s(g339
g340
g1328
tp3106
F0.00045599635202918376
s(S'not'
p3107
S'selected'
p3108
S'against'
p3109
tp3110
F0.00045599635202918376
s(S'then'
p3111
S'met'
p3112
S'with'
p3113
tp3114
F0.00045599635202918376
s(S'is'
p3115
S'appointed'
p3116
S'at'
p3117
tp3118
F0.00045599635202918376
s(S'also'
p3119
S'spent'
p3120
S'part'
p3121
tp3122
F0.00045599635202918376
s(S'is'
p3123
S'recognized'
p3124
S'in'
p3125
tp3126
F0.00045599635202918376
s(S'then'
p3127
S'spent'
p3128
S'[[det]]'
p3129
tp3130
F0.00045599635202918376
s(S'is'
p3131
S'known'
p3132
S'throughout'
p3133
tp3134
F0.00045599635202918376
s(S'who'
p3135
S'served'
p3136
S'as'
p3137
tp3138
F0.0009119927040583675
s(S'also'
p3139
S'won'
p3140
S'with'
p3141
tp3142
F0.00045599635202918376
s(g1285
g1286
S'team'
p3143
tp3144
F0.0013679890560875513
s(S'had'
p3145
S'played'
p3146
S'at'
p3147
tp3148
F0.00045599635202918376
s(S'then'
p3149
S'played'
p3150
S'at'
p3151
tp3152
F0.00045599635202918376
s(S'was'
p3153
S'named'
p3154
S'on'
p3155
tp3156
F0.00045599635202918376
s(S'been'
p3157
S'serving'
p3158
S'to'
p3159
tp3160
F0.00045599635202918376
s(S'has'
p3161
S'played'
p3162
S'[[adj]]'
p3163
tp3164
F0.00045599635202918376
s(S'more'
p3165
S'[[num]]'
p3166
S'years'
p3167
tp3168
F0.00045599635202918376
s(S'formerly'
p3169
S'played'
p3170
S'at'
p3171
tp3172
F0.00045599635202918376
s(S'has'
p3173
S'met'
p3174
S'[[con]]'
p3175
tp3176
F0.00045599635202918376
s(S'[[prp]]'
p3177
S'work'
p3178
S'for'
p3179
tp3180
F0.00045599635202918376
s(S'be'
p3181
S'signed'
p3182
S'by'
p3183
tp3184
F0.00045599635202918376
s(S'[[det]]'
p3185
S'founder'
p3186
S'[[con]]'
p3187
tp3188
F0.00045599635202918376
s(S'also'
p3189
S'attended'
p3190
S'for'
p3191
tp3192
F0.00045599635202918376
s(g3099
g3100
S'[[det]]'
p3193
tp3194
F0.00045599635202918376
s(S'been'
p3195
S'awarded'
p3196
S'from'
p3197
tp3198
F0.00045599635202918376
s(S'later'
p3199
S'signed'
p3200
S'by'
p3201
tp3202
F0.00045599635202918376
s(S'first'
p3203
S'worked'
p3204
S'at'
p3205
tp3206
F0.00045599635202918376
s(S'was'
p3207
S'president'
p3208
S'at'
p3209
tp3210
F0.00045599635202918376
s(S'also'
p3211
S'worked'
p3212
S'for'
p3213
tp3214
F0.00045599635202918376
s(S'later'
p3215
S'received'
p3216
S'[[det]]'
p3217
tp3218
F0.00045599635202918376
s(S'commissioned'
p3219
S'as'
p3220
g2589
tp3221
F0.00045599635202918376
s(S'[[num]]'
p3222
S'served'
p3223
S'in'
p3224
tp3225
F0.00045599635202918376
s(S'be'
p3226
S'considered'
p3227
S'[[det]]'
p3228
tp3229
F0.00045599635202918376
s(S'first'
p3230
S'met'
p3231
S'when'
p3232
tp3233
F0.00045599635202918376
s(S'has'
p3234
S'traveled'
p3235
S'[[det]]'
p3236
tp3237
F0.00045599635202918376
s(S'has'
p3238
S'represented'
p3239
S'[[det]]'
p3240
tp3241
F0.00045599635202918376
s(S'born'
p3242
g2815
g2816
tp3243
F0.00045599635202918376
s(S'be'
p3244
S'selected'
p3245
S'to'
p3246
tp3247
F0.00045599635202918376
s(S'[[det]]'
p3248
S'ambassador'
p3249
S'of'
p3250
tp3251
F0.00045599635202918376
s(S'was'
p3252
S'featured'
p3253
S'on'
p3254
tp3255
F0.00045599635202918376
s(g220
g764
S'in'
p3256
tp3257
F0.0013679890560875513
s(S'also'
p3258
S'published'
p3259
S'[[con]]'
p3260
tp3261
F0.00045599635202918376
s(S'became'
p3262
S'governor'
p3263
S'of'
p3264
tp3265
F0.00045599635202918376
s(S'[[prp]]'
p3266
S'home'
p3267
S'country'
p3268
tp3269
F0.00045599635202918376
s(S'had'
p3270
S'gone'
p3271
S'to'
p3272
tp3273
F0.00045599635202918376
s(S'spent'
p3274
g3017
g3018
tp3275
F0.0009119927040583675
s(S'[[adj]]'
p3276
S'president'
p3277
S'at'
p3278
tp3279
F0.00045599635202918376
s(S'has'
p3280
S'served'
p3281
S'where'
p3282
tp3283
F0.00045599635202918376
s(S'[[adj]]'
p3284
S'serving'
p3285
S'in'
p3286
tp3287
F0.00045599635202918376
s(S'[[con]]'
p3288
S'served'
p3289
S'for'
p3290
tp3291
F0.00045599635202918376
s(S'has'
p3292
S'published'
p3293
S'with'
p3294
tp3295
F0.00045599635202918376
s(S'be'
p3296
S'appointed'
p3297
S'ambassador'
p3298
tp3299
F0.00045599635202918376
s(S'be'
p3300
S'nominated'
p3301
S'by'
p3302
tp3303
F0.00045599635202918376
s(S'is'
p3304
S'director'
p3305
S'at'
p3306
tp3307
F0.00045599635202918376
s(S'later'
p3308
S'worked'
p3309
S'for'
p3310
tp3311
F0.00045599635202918376
s(S'[[con]]'
p3312
S'director'
p3313
S'[[det]]'
p3314
tp3315
F0.00045599635202918376
s(S'also'
p3316
S'produced'
p3317
S'by'
p3318
tp3319
F0.00045599635202918376
s(S'currently'
p3320
S'teaches'
p3321
S'in'
p3322
tp3323
F0.00045599635202918376
s(S'played'
p3324
g2007
g2008
tp3325
F0.0009119927040583675
s(S'ten'
p3326
S'years'
p3327
S'in'
p3328
tp3329
F0.00045599635202918376
s(S'to'
p3330
S'represent'
p3331
S'[[con]]'
p3332
tp3333
F0.00045599635202918376
s(S'also'
p3334
S'serves'
p3335
S'[[det]]'
p3336
tp3337
F0.00045599635202918376
s(S'was'
p3338
S'appointed'
p3339
S'for'
p3340
tp3341
F0.00045599635202918376
s(S'[[adj]]'
p3342
S'member'
p3343
S'in'
p3344
tp3345
F0.00045599635202918376
s(S'is'
p3346
S'named'
p3347
S'by'
p3348
tp3349
F0.00045599635202918376
s(S'was'
p3350
S'signed'
p3351
S'in'
p3352
tp3353
F0.00045599635202918376
s(S'before'
p3354
S'going'
p3355
S'to'
p3356
tp3357
F0.00045599635202918376
s(S'has'
p3358
S'won'
p3359
S'[[adj]]'
p3360
tp3361
F0.00045599635202918376
s(S'formerly'
p3362
S'served'
p3363
S'in'
p3364
tp3365
F0.00045599635202918376
s(S'also'
p3366
S'member'
p3367
S'of'
p3368
tp3369
F0.00045599635202918376
s(S'been'
p3370
S'recognized'
p3371
S'by'
p3372
tp3373
F0.00045599635202918376
s(S'lived'
p3374
g554
g555
tp3375
F0.00045599635202918376
s(S'first'
p3376
S'represented'
p3377
S'for'
p3378
tp3379
F0.00045599635202918376
s(S'being'
p3380
S'commissioned'
p3381
S'in'
p3382
tp3383
F0.00045599635202918376
s(S'later'
p3384
S'entered'
p3385
S'[[det]]'
p3386
tp3387
F0.00045599635202918376
s(S'highest'
p3388
g1304
g1305
tp3389
F0.00045599635202918376
s(S'later'
p3390
S'served'
p3391
S'[[adj]]'
p3392
tp3393
F0.00045599635202918376
s(g3128
g3129
S'[[num]]'
p3394
tp3395
F0.0013679890560875513
s(S'[[con]]'
p3396
S'member'
p3397
S'[[det]]'
p3398
tp3399
F0.00045599635202918376
s(S'then'
p3400
S'worked'
p3401
S'at'
p3402
tp3403
F0.00045599635202918376
s(S'spent'
p3404
S'[[num]]'
p3405
S'years'
p3406
tp3407
F0.0027359781121751026
s(S'to'
p3408
S'play'
p3409
S'as'
p3410
tp3411
F0.00045599635202918376
s(S'was'
p3412
S'elected'
p3413
S'in'
p3414
tp3415
F0.00045599635202918376
s(S'has'
p3416
S'left'
p3417
S'[[con]]'
p3418
tp3419
F0.00045599635202918376
s(S'to'
p3420
S'study'
p3421
S'in'
p3422
tp3423
F0.00045599635202918376
s(S'soon'
p3424
S'left'
p3425
S'[[det]]'
p3426
tp3427
F0.00045599635202918376
s(S'to'
p3428
g1962
g1963
tp3429
F0.00045599635202918376
s(S'later'
p3430
S'returned'
p3431
S'to'
p3432
tp3433
F0.00045599635202918376
s(S'[[adj]]'
p3434
S'joined'
p3435
S'[[det]]'
p3436
tp3437
F0.00045599635202918376
s(S'was'
p3438
S'president'
p3439
S'of'
p3440
tp3441
F0.00045599635202918376
s(S'[[con]]'
p3442
S'member'
p3443
S'[[con]]'
p3444
tp3445
F0.00045599635202918376
s(S'[[adj]]'
p3446
S'government'
p3447
S'in'
p3448
tp3449
F0.00045599635202918376
s(S'[[con]]'
p3450
S'visited'
p3451
S'[[pro]]'
p3452
tp3453
F0.00045599635202918376
s(S'was'
p3454
S'considered'
p3455
S'for'
p3456
tp3457
F0.00045599635202918376
s(S'to'
p3458
S'run'
p3459
S'[[det]]'
p3460
tp3461
F0.00045599635202918376
s(g37
S'return'
p3462
S'in'
p3463
tp3464
F0.00045599635202918376
s(S'was'
p3465
S'commissioned'
p3466
S'from'
p3467
tp3468
F0.00045599635202918376
s(S'was'
p3469
S'brought'
p3470
S'to'
p3471
tp3472
F0.00045599635202918376
s(S'was'
p3473
S'brought'
p3474
S'up'
p3475
tp3476
F0.00045599635202918376
s(S'[[con]]'
p3477
S'attended'
p3478
S'at'
p3479
tp3480
F0.00045599635202918376
s(S'where'
p3481
S'met'
p3482
S'[[con]]'
p3483
tp3484
F0.00045599635202918376
s(S'[[det]]'
p3485
S'politician'
p3486
S'who'
p3487
tp3488
F0.00045599635202918376
s(S'then'
p3489
S'received'
p3490
S'[[con]]'
p3491
tp3492
F0.00045599635202918376
s(S'also'
p3493
S'named'
p3494
S'at'
p3495
tp3496
F0.00045599635202918376
s(g1694
g1695
S'team'
p3497
tp3498
F0.0031919744642042863
s(S'was'
p3499
S'born'
p3500
S'on'
p3501
tp3502
F0.00045599635202918376
s(g463
g464
S'in'
p3503
tp3504
F0.00045599635202918376
s(g2056
g2057
S'team'
p3505
tp3506
F0.00045599635202918376
s(S'later'
p3507
S'worked'
p3508
S'[[con]]'
p3509
tp3510
F0.00045599635202918376
s(S'later'
p3511
S'served'
p3512
S'[[con]]'
p3513
tp3514
F0.00045599635202918376
s(S'never'
p3515
S'return'
p3516
S'to'
p3517
tp3518
F0.00045599635202918376
s(S'[[adj]]'
p3519
S'member'
p3520
S'[[con]]'
p3521
tp3522
F0.00045599635202918376
s(S'was'
p3523
S'transferred'
p3524
S'in'
p3525
tp3526
F0.00045599635202918376
s(g3080
g1165
g1166
tp3527
F0.00045599635202918376
s(S'[[adj]]'
p3528
S'played'
p3529
S'on'
p3530
tp3531
F0.00045599635202918376
s(S'also'
p3532
S'serves'
p3533
S'for'
p3534
tp3535
F0.00045599635202918376
s(S'has'
p3536
S'played'
p3537
S'[[con]]'
p3538
tp3539
F0.00045599635202918376
s(g2681
g2179
g2180
tp3540
F0.001823985408116735
s(S'[[con]]'
p3541
S'played'
p3542
S'twice'
p3543
tp3544
F0.00045599635202918376
s(S'have'
p3545
S'met'
p3546
S'with'
p3547
tp3548
F0.00045599635202918376
s(S'[[det]]'
p3549
S'president'
p3550
S'[[adj]]'
p3551
tp3552
F0.00045599635202918376
s(g2816
g2817
S'in'
p3553
tp3554
F0.0013679890560875513
s(S'also'
p3555
S'played'
p3556
S'in'
p3557
tp3558
F0.00045599635202918376
s(g37
S'work'
p3559
S'in'
p3560
tp3561
F0.00045599635202918376
s(S'was'
p3562
g784
g785
tp3563
F0.0013679890560875513
s(S'later'
p3564
S'attended'
p3565
S'[[det]]'
p3566
tp3567
F0.00045599635202918376
s(S'been'
p3568
S'appointed'
p3569
S'in'
p3570
tp3571
F0.00045599635202918376
s(S'lived'
p3572
S'before'
p3573
S'returning'
p3574
tp3575
F0.00045599635202918376
s(S'then'
p3576
S'director'
p3577
S'of'
p3578
tp3579
F0.00045599635202918376
s(S'currently'
p3580
S'plays'
p3581
S'in'
p3582
tp3583
F0.00045599635202918376
s(S'later'
p3584
S'served'
p3585
S'for'
p3586
tp3587
F0.00045599635202918376
s(S'be'
p3588
S'returned'
p3589
S'to'
p3590
tp3591
F0.00045599635202918376
s(S'later'
p3592
S'named'
p3593
S'[[det]]'
p3594
tp3595
F0.00045599635202918376
s(S'unsuccessfully'
p3596
S'ran'
p3597
S'for'
p3598
tp3599
F0.00045599635202918376
s(S'also'
p3600
S'called'
p3601
S'for'
p3602
tp3603
F0.00045599635202918376
s(S'[[det]]'
p3604
S'citizen'
p3605
S'[[con]]'
p3606
tp3607
F0.00045599635202918376
s(S'was'
p3608
S'ambassador'
p3609
S'in'
p3610
tp3611
F0.00045599635202918376
s(S'has'
p3612
S'worked'
p3613
S'[[det]]'
p3614
tp3615
F0.00045599635202918376
s(S'also'
p3616
S'served'
p3617
S'from'
p3618
tp3619
F0.00045599635202918376
s(S'[[con]]'
p3620
S'received'
p3621
S'in'
p3622
tp3623
F0.00045599635202918376
s(S'again'
p3624
S'joined'
p3625
S'[[det]]'
p3626
tp3627
F0.00045599635202918376
s(S'in'
p3628
g3005
g3006
tp3629
F0.00045599635202918376
s(S'later'
p3630
S'play'
p3631
S'with'
p3632
tp3633
F0.00045599635202918376
s(S'was'
p3634
S'signed'
p3635
S'at'
p3636
tp3637
F0.00045599635202918376
s(S'was'
p3638
S'commissioned'
p3639
S'[[det]]'
p3640
tp3641
F0.0009119927040583675
s(S'was'
p3642
S'appointed'
p3643
S'of'
p3644
tp3645
F0.00045599635202918376
s(S'later'
p3646
S'signed'
p3647
S'to'
p3648
tp3649
F0.00045599635202918376
s(S'was'
p3650
S'governor'
p3651
S'of'
p3652
tp3653
F0.00045599635202918376
s(S'currently'
p3654
S'serves'
p3655
S'as'
p3656
tp3657
F0.00045599635202918376
s(S'also'
p3658
S'served'
p3659
S'on'
p3660
tp3661
F0.00045599635202918376
s(S'made'
p3662
S'governor'
p3663
S'of'
p3664
tp3665
F0.00045599635202918376
s(S'later'
p3666
S'attended'
p3667
S'[[con]]'
p3668
tp3669
F0.00045599635202918376
s(S'[[adj]]'
p3670
S'director'
p3671
S'[[num]]'
p3672
tp3673
F0.00045599635202918376
s(S'awarded'
p3674
S'[[det]]'
p3675
S'[[adj]]'
p3676
tp3677
F0.0009119927040583675
s(S'be'
p3678
S'educated'
p3679
S'in'
p3680
tp3681
F0.00045599635202918376
s(S'also'
p3682
S'serves'
p3683
S'in'
p3684
tp3685
F0.00045599635202918376
s(S'was'
p3686
S'transferred'
p3687
S'[[con]]'
p3688
tp3689
F0.00045599635202918376
s(S'appointed'
p3690
S'[[det]]'
p3691
S'ambassador'
p3692
tp3693
F0.00045599635202918376
s(S'was'
p3694
S'head'
p3695
S'for'
p3696
tp3697
F0.00045599635202918376
s(S'became'
p3698
S'president'
p3699
S'at'
p3700
tp3701
F0.00045599635202918376
s(S'[[det]]'
p3702
S'instructor'
p3703
S'for'
p3704
tp3705
F0.00045599635202918376
s(S'[[adj]]'
p3706
S'head'
p3707
S'[[det]]'
p3708
tp3709
F0.00045599635202918376
s(S'then'
p3710
S'returned'
p3711
S'where'
p3712
tp3713
F0.00045599635202918376
s(S'[[mod]]'
p3714
S'join'
p3715
S'[[adj]]'
p3716
tp3717
F0.00045599635202918376
s(S'[[det]]'
p3718
S'member'
p3719
S'at'
p3720
tp3721
F0.00045599635202918376
s(S'upon'
p3722
S'returning'
p3723
S'to'
p3724
tp3725
F0.00045599635202918376
s(S'[[adj]]'
p3726
S'captain'
p3727
S'at'
p3728
tp3729
F0.00045599635202918376
s(S'later'
p3730
S'played'
p3731
S'twice'
p3732
tp3733
F0.00045599635202918376
s(S'first'
p3734
S'played'
p3735
S'at'
p3736
tp3737
F0.00045599635202918376
s(S'also'
p3738
S'received'
p3739
S'[[num]]'
p3740
tp3741
F0.00045599635202918376
s(S'while'
p3742
S'moved'
p3743
S'to'
p3744
tp3745
F0.00045599635202918376
s(S'was'
p3746
S'joined'
p3747
S'in'
p3748
tp3749
F0.00045599635202918376
s(S'was'
p3750
S'named'
p3751
S'at'
p3752
tp3753
F0.00045599635202918376
s(S'[[det]]'
p3754
S'retired'
p3755
S'in'
p3756
tp3757
F0.00045599635202918376
s(S'is'
p3758
S'director'
p3759
S'of'
p3760
tp3761
F0.00045599635202918376
s(S'[[det]]'
p3762
S'title'
p3763
S'of'
p3764
tp3765
F0.00045599635202918376
s(S'also'
p3766
S'established'
p3767
S'[[pro]]'
p3768
tp3769
F0.00045599635202918376
s(S'had'
p3770
S'attended'
p3771
S'[[con]]'
p3772
tp3773
F0.00045599635202918376
s(S'who'
p3774
S'played'
p3775
S'with'
p3776
tp3777
F0.00045599635202918376
s(S'[[adj]]'
p3778
S'member'
p3779
S'[[det]]'
p3780
tp3781
F0.00045599635202918376
s(S'also'
p3782
S'attended'
p3783
S'now'
p3784
tp3785
F0.00045599635202918376
s(S'been'
p3786
S'known'
p3787
S'in'
p3788
tp3789
F0.00045599635202918376
s(S'was'
p3790
S'selected'
p3791
S'against'
p3792
tp3793
F0.00045599635202918376
s(S'instead'
p3794
S'appointed'
p3795
S'[[pro]]'
p3796
tp3797
F0.00045599635202918376
s(S'born'
p3798
g2441
g2442
tp3799
F0.00045599635202918376
s(S'[[mod]]'
p3800
S'live'
p3801
S'in'
p3802
tp3803
F0.00045599635202918376
s(S'had'
p3804
S'met'
p3805
S'when'
p3806
tp3807
F0.00045599635202918376
s(S'[[det]]'
p3808
S'moved'
p3809
S'to'
p3810
tp3811
F0.00045599635202918376
s(S'[[adj]]'
p3812
S'fellow'
p3813
S'at'
p3814
tp3815
F0.00045599635202918376
s(S'[[con]]'
p3816
S'met'
p3817
S'up'
p3818
tp3819
F0.00045599635202918376
s(S'first'
p3820
S'came'
p3821
S'as'
p3822
tp3823
F0.00045599635202918376
s(S'then'
p3824
S'worked'
p3825
S'before'
p3826
tp3827
F0.00045599635202918376
s(S'which'
p3828
S'ran'
p3829
S'to'
p3830
tp3831
F0.00045599635202918376
s(S'currently'
p3832
S'serves'
p3833
S'to'
p3834
tp3835
F0.00045599635202918376
s(S'was'
p3836
S'returned'
p3837
S'by'
p3838
tp3839
F0.00045599635202918376
s(S'born'
p3840
S'is'
p3841
S'[[det]]'
p3842
tp3843
F0.001823985408116735
s(S'[[con]]'
p3844
S'joined'
p3845
S'[[det]]'
p3846
tp3847
F0.00045599635202918376
s(S'where'
p3848
S'met'
p3849
S'[[det]]'
p3850
tp3851
F0.00045599635202918376
s(S'were'
p3852
S'awarded'
p3853
S'from'
p3854
tp3855
F0.00045599635202918376
s(S'[[pro]]'
p3856
S'worked'
p3857
S'with'
p3858
tp3859
F0.00045599635202918376
s(S'before'
p3860
S'returning'
p3861
S'to'
p3862
tp3863
F0.0013679890560875513
s(S'[[con]]'
p3864
S'stayed'
p3865
S'in'
p3866
tp3867
F0.00045599635202918376
s(S'[[num]]'
p3868
S'founder'
p3869
S'of'
p3870
tp3871
F0.00045599635202918376
s(S'[[mod]]'
p3872
S'play'
p3873
S'[[con]]'
p3874
tp3875
F0.00045599635202918376
s(S'was'
p3876
S'returned'
p3877
S'[[con]]'
p3878
tp3879
F0.00045599635202918376
s(g1963
g1964
S'[[prp]]'
p3880
tp3881
F0.00045599635202918376
s(S'be'
p3882
S'awarded'
p3883
S'by'
p3884
tp3885
F0.00045599635202918376
s(S'[[adj]]'
p3886
S'served'
p3887
S'on'
p3888
tp3889
F0.00045599635202918376
s(S'[[num]]'
p3890
S'served'
p3891
S'as'
p3892
tp3893
F0.00045599635202918376
s(S'[[adj]]'
p3894
S'president'
p3895
S'[[num]]'
p3896
tp3897
F0.00045599635202918376
s(S'also'
p3898
S'served'
p3899
S'with'
p3900
tp3901
F0.00045599635202918376
s(S'[[det]]'
p3902
S'time'
p3903
S'to'
p3904
tp3905
F0.00045599635202918376
s(S'was'
p3906
S'honored'
p3907
S'[[con]]'
p3908
tp3909
F0.00045599635202918376
s(S'had'
p3910
S'left'
p3911
S'[[det]]'
p3912
tp3913
F0.00045599635202918376
s(S'was'
p3914
S'governor'
p3915
S'[[con]]'
p3916
tp3917
F0.00045599635202918376
s(S'[[con]]'
p3918
S'published'
p3919
S'by'
p3920
tp3921
F0.00045599635202918376
s(S'later'
p3922
S'appointed'
p3923
S'to'
p3924
tp3925
F0.00045599635202918376
s(S'[[det]]'
p3926
S'return'
p3927
S'at'
p3928
tp3929
F0.00045599635202918376
s(S'later'
p3930
S'received'
p3931
S'in'
p3932
tp3933
F0.00045599635202918376
s(S'also'
p3934
S'selected'
p3935
S'in'
p3936
tp3937
F0.00045599635202918376
s(S'of'
p3938
S'returning'
p3939
S'to'
p3940
tp3941
F0.00045599635202918376
s(S'be'
p3942
S'transferred'
p3943
S'to'
p3944
tp3945
F0.00045599635202918376
s(S'ever'
p3946
S'played'
p3947
S'for'
p3948
tp3949
F0.00045599635202918376
s(S'[[det]]'
p3950
S'received'
p3951
S'from'
p3952
tp3953
F0.00045599635202918376
s(S'[[det]]'
p3954
S'instructor'
p3955
S'of'
p3956
tp3957
F0.00045599635202918376
s(g925
g3388
g1304
tp3958
F0.00045599635202918376
s(S'to'
p3959
S'play'
p3960
S'[[det]]'
p3961
tp3962
F0.00045599635202918376
s(S'then'
p3963
S'served'
p3964
S'before'
p3965
tp3966
F0.00045599635202918376
s(S'of'
p3967
S'[[adj]]'
p3968
S'team'
p3969
tp3970
F0.00045599635202918376
s(S'was'
p3971
S'recognized'
p3972
S'as'
p3973
tp3974
F0.00045599635202918376
s(S'is'
p3975
S'appointed'
p3976
S'in'
p3977
tp3978
F0.00045599635202918376
s(S'be'
p3979
S'appointed'
p3980
S'to'
p3981
tp3982
F0.00045599635202918376
s(S'was'
p3983
S'honored'
p3984
S'by'
p3985
tp3986
F0.00045599635202918376
s(S'to'
p3987
S'serve'
p3988
S'in'
p3989
tp3990
F0.00045599635202918376
s(S'when'
p3991
S'signed'
p3992
S'for'
p3993
tp3994
F0.00045599635202918376
s(S'while'
p3995
S'joined'
p3996
S'[[det]]'
p3997
tp3998
F0.00045599635202918376
s(S'[[det]]'
p3999
S'woman'
p4000
S'from'
p4001
tp4002
F0.00045599635202918376
s(S'also'
p4003
S'served'
p4004
S'[[det]]'
p4005
tp4006
F0.00045599635202918376
s(S'also'
p4007
S'coached'
p4008
S'for'
p4009
tp4010
F0.00045599635202918376
s(S'then'
p4011
S'returned'
p4012
S'in'
p4013
tp4014
F0.00045599635202918376
s(S'also'
p4015
S'serves'
p4016
S'[[num]]'
p4017
tp4018
F0.00045599635202918376
s(S'has'
p4019
S'coached'
p4020
S'at'
p4021
tp4022
F0.00045599635202918376
s(S'then'
p4023
S'moved'
p4024
S'for'
p4025
tp4026
F0.00045599635202918376
s(S'also'
p4027
S'served'
p4028
S'as'
p4029
tp4030
F0.00045599635202918376
s(S'since'
p4031
S'played'
p4032
S'with'
p4033
tp4034
F0.00045599635202918376
s(S'had'
p4035
S'played'
p4036
S'with'
p4037
tp4038
F0.00045599635202918376
s(S'then'
p4039
S'graduated'
p4040
S'at'
p4041
tp4042
F0.00045599635202918376
s(S'[[adj]]'
p4043
S'officer'
p4044
S'of'
p4045
tp4046
F0.00045599635202918376
s(S'then'
p4047
S'received'
p4048
S'from'
p4049
tp4050
F0.00045599635202918376
s(S'was'
p4051
S'signed'
p4052
S'on'
p4053
tp4054
F0.00045599635202918376
s(g989
g1079
S'by'
p4055
tp4056
F0.00045599635202918376
s(S'still'
p4057
S'considered'
p4058
S'[[det]]'
p4059
tp4060
F0.00045599635202918376
s(S'[[pro]]'
p4061
S'played'
p4062
S'together'
p4063
tp4064
F0.00045599635202918376
s(S'was'
p4065
S'featured'
p4066
S'by'
p4067
tp4068
F0.00045599635202918376
s(S'[[mod]]'
p4069
S'return'
p4070
S'to'
p4071
tp4072
F0.00045599635202918376
s(S'was'
p4073
S'left'
p4074
S'out'
p4075
tp4076
F0.00045599635202918376
s(S'also'
p4077
S'played'
p4078
S'before'
p4079
tp4080
F0.00045599635202918376
s(S'then'
p4081
S'served'
p4082
S'to'
p4083
tp4084
F0.00045599635202918376
s(S'[[mod]]'
p4085
S'play'
p4086
S'[[num]]'
p4087
tp4088
F0.00045599635202918376
s(g291
g292
S'team'
p4089
tp4090
F0.00045599635202918376
s(S'was'
p4091
S'born'
p4092
S'from'
p4093
tp4094
F0.00045599635202918376
s(S'with'
p4095
S'played'
p4096
S'for'
p4097
tp4098
F0.00045599635202918376
s(S'then'
p4099
S'moved'
p4100
S'[[con]]'
p4101
tp4102
F0.00045599635202918376
s(S'later'
p4103
S'moved'
p4104
S'with'
p4105
tp4106
F0.00045599635202918376
s(S'have'
p4107
S'played'
p4108
S'in'
p4109
tp4110
F0.00045599635202918376
s(S'returned'
p4111
S'home'
p4112
S'from'
p4113
tp4114
F0.00045599635202918376
s(S'[[prp]]'
p4115
S'stay'
p4116
S'in'
p4117
tp4118
F0.00045599635202918376
s(S'signed'
p4119
g1225
g1226
tp4120
F0.00045599635202918376
s(S'soon'
p4121
S'moved'
p4122
S'on'
p4123
tp4124
F0.00045599635202918376
s(S'[[con]]'
p4125
S'moved'
p4126
S'on'
p4127
tp4128
F0.00045599635202918376
s(S'only'
p4129
S'played'
p4130
S'in'
p4131
tp4132
F0.00045599635202918376
s(g940
g941
S'from'
p4133
tp4134
F0.00045599635202918376
s(S'then'
p4135
S'served'
p4136
S'on'
p4137
tp4138
F0.00045599635202918376
s(g1087
g2291
g2292
tp4139
F0.00045599635202918376
s(S'has'
p4140
S'coached'
p4141
S'with'
p4142
tp4143
F0.00045599635202918376
s(S'to'
p4144
S'return'
p4145
S'in'
p4146
tp4147
F0.00045599635202918376
s(S'was'
p4148
S'known'
p4149
S'[[adj]]'
p4150
tp4151
F0.00045599635202918376
s(g1086
g1087
g2291
tp4152
F0.00045599635202918376
s(S'have'
p4153
S'played'
p4154
S'[[det]]'
p4155
tp4156
F0.00045599635202918376
s(S'began'
p4157
g3090
g3091
tp4158
F0.00045599635202918376
s(S'voted'
p4159
S'[[det]]'
p4160
S'highest'
p4161
tp4162
F0.00045599635202918376
s(S'to'
p4163
S'return'
p4164
S'from'
p4165
tp4166
F0.00045599635202918376
s(S'later'
p4167
S'served'
p4168
S'from'
p4169
tp4170
F0.00045599635202918376
s(S'[[con]]'
p4171
S'plays'
p4172
S'for'
p4173
tp4174
F0.00045599635202918376
s(g1618
g1619
S'of'
p4175
tp4176
F0.00045599635202918376
s(S'been'
p4177
S'president'
p4178
S'of'
p4179
tp4180
F0.00045599635202918376
s(S'to'
p4181
S'captain'
p4182
S'[[det]]'
p4183
tp4184
F0.00045599635202918376
s(S'then'
p4185
S'returned'
p4186
S'for'
p4187
tp4188
F0.00045599635202918376
s(S'then'
p4189
S'signed'
p4190
S'by'
p4191
tp4192
F0.00045599635202918376
s(g924
g925
g3388
tp4193
F0.0009119927040583675
s(S'then'
p4194
S'played'
p4195
S'for'
p4196
tp4197
F0.00045599635202918376
s(S'was'
p4198
S'graduated'
p4199
S'in'
p4200
tp4201
F0.00045599635202918376
s(S'[[con]]'
p4202
S'joined'
p4203
S'from'
p4204
tp4205
F0.00045599635202918376
s(S'was'
p4206
S'director'
p4207
S'of'
p4208
tp4209
F0.00045599635202918376
s(g2852
S'[[det]]'
p4210
S'member'
p4211
tp4212
F0.0009119927040583675
s(S'was'
p4213
S'commissioned'
p4214
S'as'
p4215
tp4216
F0.0013679890560875513
s(S'[[mod]]'
p4217
S'serve'
p4218
S'on'
p4219
tp4220
F0.00045599635202918376
s(S'played'
p4221
S'for'
p4222
S'[[det]]'
p4223
tp4224
F0.0027359781121751026
s(S'were'
p4225
S'awarded'
p4226
S'[[det]]'
p4227
tp4228
F0.00045599635202918376
s(S'[[num]]'
p4229
S'won'
p4230
S'by'
p4231
tp4232
F0.00045599635202918376
s(S'that'
p4233
S'won'
p4234
S'against'
p4235
tp4236
F0.00045599635202918376
s(S'currently'
p4237
S'teaches'
p4238
S'at'
p4239
tp4240
F0.00045599635202918376
s(S'where'
p4241
S'attended'
p4242
S'[[det]]'
p4243
tp4244
F0.00045599635202918376
s(S'been'
p4245
S'selected'
p4246
S'for'
p4247
tp4248
F0.00045599635202918376
s(g3500
g3501
S'[[det]]'
p4249
tp4250
F0.00045599635202918376
s(S'when'
p4251
S'retired'
p4252
S'from'
p4253
tp4254
F0.00045599635202918376
s(S'who'
p4255
S'played'
p4256
S'in'
p4257
tp4258
F0.00045599635202918376
s(S'commissioned'
p4259
S'[[det]]'
p4260
S'officer'
p4261
tp4262
F0.00045599635202918376
s(S'been'
p4263
S'selected'
p4264
S'by'
p4265
tp4266
F0.00045599635202918376
s(g37
S'worked'
p4267
S'with'
p4268
tp4269
F0.00045599635202918376
s(S'was'
p4270
S'ambassador'
p4271
S'[[con]]'
p4272
tp4273
F0.00045599635202918376
s(S'was'
p4274
S'left'
p4275
S'with'
p4276
tp4277
F0.00045599635202918376
s(S'[[det]]'
p4278
S'instructor'
p4279
S'in'
p4280
tp4281
F0.00045599635202918376
s(S'be'
p4282
S'published'
p4283
S'by'
p4284
tp4285
F0.00045599635202918376
s(S'has'
p4286
S'served'
p4287
S'as'
p4288
tp4289
F0.00045599635202918376
s(S'[[det]]'
p4290
S'member'
p4291
S'[[det]]'
p4292
tp4293
F0.001823985408116735
s(S'is'
p4294
S'elected'
p4295
S'[[det]]'
p4296
tp4297
F0.00045599635202918376
s(S'also'
p4298
S'served'
p4299
S'in'
p4300
tp4301
F0.00045599635202918376
s(g37
S'known'
p4302
S'in'
p4303
tp4304
F0.00045599635202918376
s(S'[[con]]'
p4305
S'met'
p4306
S'[[det]]'
p4307
tp4308
F0.00045599635202918376
s(S'[[det]]'
p4309
S'played'
p4310
S'for'
p4311
tp4312
F0.00045599635202918376
s(S'[[det]]'
p4313
S'head'
p4314
S'[[det]]'
p4315
tp4316
F0.00045599635202918376
s(S'is'
p4317
S'appointed'
p4318
S'[[det]]'
p4319
tp4320
F0.00045599635202918376
s(S'[[det]]'
p4321
S'history'
p4322
S'of'
p4323
tp4324
F0.00045599635202918376
s(S'had'
p4325
S'played'
p4326
S'for'
p4327
tp4328
F0.00045599635202918376
s(S'where'
p4329
S'played'
p4330
S'in'
p4331
tp4332
F0.00045599635202918376
s(S'spent'
p4333
g3165
g3166
tp4334
F0.00045599635202918376
s(S'becoming'
p4335
S'president'
p4336
S'of'
p4337
tp4338
F0.00045599635202918376
s(S'[[det]]'
p4339
S'member'
p4340
S'on'
p4341
tp4342
F0.00045599635202918376
s(S'[[adj]]'
p4343
S'study'
p4344
S'[[con]]'
p4345
tp4346
F0.00045599635202918376
s(S'has'
p4347
S'left'
p4348
S'[[det]]'
p4349
tp4350
F0.00045599635202918376
s(S'currently'
p4351
S'plays'
p4352
S'[[det]]'
p4353
tp4354
F0.00045599635202918376
s(S'[[mod]]'
p4355
S'split'
p4356
S'[[adj]]'
p4357
tp4358
F0.00045599635202918376
s(S'become'
p4359
S'president'
p4360
S'[[det]]'
p4361
tp4362
F0.00045599635202918376
s(S'[[num]]'
p4363
S'years'
p4364
S'[[con]]'
p4365
tp4366
F0.00045599635202918376
s(S'has'
p4367
S'worked'
p4368
S'at'
p4369
tp4370
F0.00045599635202918376
s(S'later'
p4371
S'served'
p4372
S'on'
p4373
tp4374
F0.00045599635202918376
s(S'was'
p4375
S'awarded'
p4376
S'[[con]]'
p4377
tp4378
F0.00045599635202918376
s(S'have'
p4379
S'joined'
p4380
S'[[det]]'
p4381
tp4382
F0.00045599635202918376
s(S'to'
p4383
S'represent'
p4384
S'in'
p4385
tp4386
F0.00045599635202918376
s(S'[[adj]]'
p4387
S'member'
p4388
S'on'
p4389
tp4390
F0.00045599635202918376
s(S'been'
p4391
S'commissioned'
p4392
S'by'
p4393
tp4394
F0.00045599635202918376
s(S'was'
p4395
S'graduated'
p4396
S'[[con]]'
p4397
tp4398
F0.00045599635202918376
s(S'later'
p4399
S'met'
p4400
S'with'
p4401
tp4402
F0.00045599635202918376
s(S'[[det]]'
p4403
S'member'
p4404
S'as'
p4405
tp4406
F0.00045599635202918376
s(S'later'
p4407
S'served'
p4408
S'as'
p4409
tp4410
F0.00045599635202918376
s(S'had'
p4411
S'served'
p4412
S'on'
p4413
tp4414
F0.00045599635202918376
s(S'been'
p4415
S'educated'
p4416
S'in'
p4417
tp4418
F0.00045599635202918376
s(S'is'
p4419
S'selected'
p4420
S'by'
p4421
tp4422
F0.00045599635202918376
s(S'has'
p4423
S'graduated'
p4424
S'from'
p4425
tp4426
F0.00045599635202918376
s(S'appointed'
p4427
S'[[det]]'
p4428
S'member'
p4429
tp4430
F0.0009119927040583675
s(S'is'
p4431
S'honored'
p4432
S'by'
p4433
tp4434
F0.00045599635202918376
s(S'appointed'
p4435
S'ambassador'
p4436
S'of'
p4437
tp4438
F0.00045599635202918376
s(S'later'
p4439
S'received'
p4440
S'[[prp]]'
p4441
tp4442
F0.00045599635202918376
s(S'also'
p4443
S'appointed'
p4444
S'as'
p4445
tp4446
F0.00045599635202918376
s(S'twice'
p4447
S'served'
p4448
S'as'
p4449
tp4450
F0.00045599635202918376
s(S'been'
p4451
S'honored'
p4452
S'by'
p4453
tp4454
F0.00045599635202918376
s(S'[[con]]'
p4455
S'appointed'
p4456
S'to'
p4457
tp4458
F0.00045599635202918376
s(S'was'
p4459
S'bestowed'
p4460
S'[[det]]'
p4461
tp4462
F0.00045599635202918376
s(S'already'
p4463
S'played'
p4464
S'for'
p4465
tp4466
F0.00045599635202918376
s(S'never'
p4467
S'played'
p4468
S'in'
p4469
tp4470
F0.00045599635202918376
s(S'[[adj]]'
p4471
S'served'
p4472
S'as'
p4473
tp4474
F0.00045599635202918376
s(S'also'
p4475
S'recognized'
p4476
S'in'
p4477
tp4478
F0.00045599635202918376
s(S'is'
p4479
S'head'
p4480
S'of'
p4481
tp4482
F0.00045599635202918376
s(S'was'
p4483
S'named'
p4484
S'[[det]]'
p4485
tp4486
F0.00045599635202918376
s(S'that'
p4487
S'won'
p4488
S'[[prp]]'
p4489
tp4490
F0.00045599635202918376
s(S'unsuccessfully'
p4491
S'ran'
p4492
S'as'
p4493
tp4494
F0.00045599635202918376
s(S'was'
p4495
S'signed'
p4496
S'from'
p4497
tp4498
F0.00045599635202918376
s(S'then'
p4499
S'came'
p4500
S'to'
p4501
tp4502
F0.00045599635202918376
s(S'where'
p4503
S'played'
p4504
S'[[con]]'
p4505
tp4506
F0.00045599635202918376
s(S'who'
p4507
S'left'
p4508
S'[[det]]'
p4509
tp4510
F0.00045599635202918376
s(S'also'
p4511
S'featured'
p4512
S'[[num]]'
p4513
tp4514
F0.00045599635202918376
s(S'[[det]]'
p4515
S'fellow'
p4516
S'[[det]]'
p4517
tp4518
F0.00045599635202918376
s(S'[[con]]'
p4519
S'director'
p4520
S'of'
p4521
tp4522
F0.00045599635202918376
s(S'currently'
p4523
S'serves'
p4524
S'[[det]]'
p4525
tp4526
F0.00045599635202918376
s(S'also'
p4527
S'awarded'
p4528
S'at'
p4529
tp4530
F0.00045599635202918376
s(S'first'
p4531
S'came'
p4532
S'in'
p4533
tp4534
F0.00045599635202918376
s(S'[[adj]]'
p4535
S'captain'
p4536
S'for'
p4537
tp4538
F0.00045599635202918376
s(S'had'
p4539
S'entered'
p4540
S'[[det]]'
p4541
tp4542
F0.00045599635202918376
s(S'then'
p4543
S'attended'
p4544
S'[[con]]'
p4545
tp4546
F0.00045599635202918376
s(S'is'
p4547
S'member'
p4548
S'of'
p4549
tp4550
F0.00045599635202918376
s(S'[[prp]]'
p4551
S'time'
p4552
S'with'
p4553
tp4554
F0.00045599635202918376
s(S'first'
p4555
S'met'
p4556
S'with'
p4557
tp4558
F0.00045599635202918376
s(S'[[adj]]'
p4559
S'time'
p4560
S'[[det]]'
p4561
tp4562
F0.00045599635202918376
s(S'that'
p4563
S'worked'
p4564
S'for'
p4565
tp4566
F0.00045599635202918376
s(S'who'
p4567
S'joined'
p4568
S'from'
p4569
tp4570
F0.00045599635202918376
s(S'[[num]]'
p4571
S'moved'
p4572
S'to'
p4573
tp4574
F0.00045599635202918376
s(S'[[num]]'
p4575
S'returned'
p4576
S'to'
p4577
tp4578
F0.00045599635202918376
s(S'well'
p4579
S'known'
p4580
S'in'
p4581
tp4582
F0.00045599635202918376
s(S'was'
p4583
S'honored'
p4584
S'in'
p4585
tp4586
F0.00045599635202918376
s(S'had'
p4587
S'graduated'
p4588
S'from'
p4589
tp4590
F0.00045599635202918376
s(S'had'
p4591
S'left'
p4592
S'[[con]]'
p4593
tp4594
F0.00045599635202918376
s(S'[[det]]'
p4595
S'study'
p4596
S'in'
p4597
tp4598
F0.00045599635202918376
s(S'[[pro]]'
p4599
S'won'
p4600
S'[[num]]'
p4601
tp4602
F0.00045599635202918376
s(S'served'
p4603
S'as'
p4604
S'minister'
p4605
tp4606
F0.00045599635202918376
s(S'has'
p4607
S'served'
p4608
S'[[det]]'
p4609
tp4610
F0.00045599635202918376
s(S'then'
p4611
S'moved'
p4612
S'back'
p4613
tp4614
F0.00045599635202918376
s(g435
g436
S'in'
p4615
tp4616
F0.0013679890560875513
s(S'[[prp]]'
p4617
S'return'
p4618
S'to'
p4619
tp4620
F0.00045599635202918376
s(S'[[mod]]'
p4621
S'play'
p4622
S'for'
p4623
tp4624
F0.00045599635202918376
s(S'[[adj]]'
p4625
S'director'
p4626
S'at'
p4627
tp4628
F0.00045599635202918376
s(S'later'
p4629
S'appointed'
p4630
S'[[pro]]'
p4631
tp4632
F0.00045599635202918376
s(S'is'
p4633
S'appointed'
p4634
S'[[con]]'
p4635
tp4636
F0.00045599635202918376
s(S'began'
p4637
S'work'
p4638
S'for'
p4639
tp4640
F0.00045599635202918376
s(S'[[adj]]'
p4641
S'elected'
p4642
S'of'
p4643
tp4644
F0.00045599635202918376
s(S'also'
p4645
S'coached'
p4646
S'[[det]]'
p4647
tp4648
F0.00045599635202918376
s(S'is'
p4649
S'recognized'
p4650
S'as'
p4651
tp4652
F0.00045599635202918376
s(S'also'
p4653
S'served'
p4654
S'[[adj]]'
p4655
tp4656
F0.00045599635202918376
s(S'[[mod]]'
p4657
S'play'
p4658
S'again'
p4659
tp4660
F0.00045599635202918376
s(S'also'
p4661
S'played'
p4662
S'on'
p4663
tp4664
F0.00045599635202918376
s(S'first'
p4665
S'met'
p4666
S'at'
p4667
tp4668
F0.00045599635202918376
s(S'born'
p4669
S'[[con]]'
p4670
g4571
tp4671
F0.00045599635202918376
s(S'to'
p4672
S'leave'
p4673
S'[[adj]]'
p4674
tp4675
F0.00045599635202918376
s(S'[[adj]]'
p4676
S'fellow'
p4677
S'of'
p4678
tp4679
F0.00045599635202918376
s(S'later'
p4680
S'worked'
p4681
S'as'
p4682
tp4683
F0.00045599635202918376
s(S'then'
p4684
S'joined'
p4685
S'with'
p4686
tp4687
F0.00045599635202918376
s(S'as'
p4688
S'won'
p4689
S'[[det]]'
p4690
tp4691
F0.00045599635202918376
s(S'[[adj]]'
p4692
S'based'
p4693
S'at'
p4694
tp4695
F0.00045599635202918376
s(S'twice'
p4696
S'served'
p4697
S'in'
p4698
tp4699
F0.00045599635202918376
s(S'made'
p4700
S'head'
p4701
S'of'
p4702
tp4703
F0.00045599635202918376
s(S'where'
p4704
S'graduated'
p4705
S'from'
p4706
tp4707
F0.00045599635202918376
s(S'also'
p4708
S'signed'
p4709
S'to'
p4710
tp4711
F0.00045599635202918376
s(S'has'
p4712
S'played'
p4713
S'most'
p4714
tp4715
F0.00045599635202918376
s(S'[[adj]]'
p4716
S'established'
p4717
S'[[pro]]'
p4718
tp4719
F0.00045599635202918376
s(S'first'
p4720
S'worked'
p4721
S'[[con]]'
p4722
tp4723
F0.00045599635202918376
s(S'[[det]]'
p4724
S'member'
p4725
S'who'
p4726
tp4727
F0.0013679890560875513
s(S'[[con]]'
p4728
S'played'
p4729
S'with'
p4730
tp4731
F0.00045599635202918376
s(S'soon'
p4732
S'signed'
p4733
S'with'
p4734
tp4735
F0.00045599635202918376
s(S'has'
p4736
S'worked'
p4737
S'to'
p4738
tp4739
F0.00045599635202918376
s(S'first'
p4740
S'attended'
p4741
S'[[det]]'
p4742
tp4743
F0.00045599635202918376
s(S'was'
p4744
S'selected'
p4745
S'for'
p4746
tp4747
F0.00045599635202918376
s(S'later'
p4748
S'play'
p4749
S'for'
p4750
tp4751
F0.00045599635202918376
s(S'currently'
p4752
S'plays'
p4753
S'from'
p4754
tp4755
F0.00045599635202918376
s(S'[[mod]]'
p4756
S'join'
p4757
S'at'
p4758
tp4759
F0.00045599635202918376
s(S'is'
p4760
S'president'
p4761
S'of'
p4762
tp4763
F0.00045599635202918376
s(S'been'
p4764
S'appointed'
p4765
S'as'
p4766
tp4767
F0.00045599635202918376
s(S'honor'
p4768
S'given'
p4769
S'by'
p4770
tp4771
F0.0013679890560875513
s(S'was'
p4772
S'graduated'
p4773
S'now'
p4774
tp4775
F0.00045599635202918376
s(S'now'
p4776
S'plays'
p4777
S'for'
p4778
tp4779
F0.00045599635202918376
s(S'had'
p4780
S'served'
p4781
S'with'
p4782
tp4783
F0.00045599635202918376
s(g4160
g4161
g4768
tp4784
F0.0013679890560875513
s(S'had'
p4785
S'left'
p4786
S'[[adj]]'
p4787
tp4788
F0.00045599635202918376
s(S'was'
p4789
S'featured'
p4790
S'from'
p4791
tp4792
F0.00045599635202918376
s(S'[[con]]'
p4793
S'left'
p4794
S'[[det]]'
p4795
tp4796
F0.00045599635202918376
s(S'have'
p4797
S'visited'
p4798
S'[[con]]'
p4799
tp4800
F0.00045599635202918376
s(S'has'
p4801
S'arrived'
p4802
S'in'
p4803
tp4804
F0.00045599635202918376
s(S'been'
p4805
S'awarded'
p4806
S'at'
p4807
tp4808
F0.00045599635202918376
s(S'ran'
p4809
S'unsuccessfully'
p4810
S'to'
p4811
tp4812
F0.00045599635202918376
s(S'again'
p4813
S'named'
p4814
S'by'
p4815
tp4816
F0.00045599635202918376
s(S'[[adj]]'
p4817
S'founder'
p4818
S'[[con]]'
p4819
tp4820
F0.00045599635202918376
s(S'then'
p4821
S'selected'
p4822
S'against'
p4823
tp4824
F0.00045599635202918376
s(S'has'
p4825
S'run'
p4826
S'under'
p4827
tp4828
F0.00045599635202918376
s(S'become'
p4829
S'head'
p4830
S'of'
p4831
tp4832
F0.00045599635202918376
s(S'is'
p4833
S'nominated'
p4834
S'by'
p4835
tp4836
F0.00045599635202918376
s(S'currently'
p4837
S'teaches'
p4838
S'[[det]]'
p4839
tp4840
F0.00045599635202918376
s(S'[[con]]'
p4841
S'returned'
p4842
S'on'
p4843
tp4844
F0.00045599635202918376
s(S'first'
p4845
S'joined'
p4846
S'[[con]]'
p4847
tp4848
F0.00045599635202918376
s(S'later'
p4849
S'appointed'
p4850
S'on'
p4851
tp4852
F0.00045599635202918376
s(S'[[adj]]'
p4853
S'time'
p4854
S'at'
p4855
tp4856
F0.00045599635202918376
s(S'again'
p4857
S'returned'
p4858
S'to'
p4859
tp4860
F0.00045599635202918376
s(S'was'
p4861
S'met'
p4862
S'by'
p4863
tp4864
F0.00045599635202918376
s(S'also'
p4865
S'serves'
p4866
S'as'
p4867
tp4868
F0.00045599635202918376
s(S'is'
p4869
S'signed'
p4870
S'with'
p4871
tp4872
F0.00045599635202918376
s(S'was'
p4873
S'awarded'
p4874
S'[[num]]'
p4875
tp4876
F0.00045599635202918376
s(S'born'
p4877
g504
g505
tp4878
F0.0013679890560875513
s(S'has'
p4879
S'traveled'
p4880
S'throughout'
p4881
tp4882
F0.00045599635202918376
s(g4161
g4768
g4769
tp4883
F0.0013679890560875513
s(S'also'
p4884
S'worked'
p4885
S'from'
p4886
tp4887
F0.00045599635202918376
s(S'then'
p4888
S'head'
p4889
S'of'
p4890
tp4891
F0.00045599635202918376
s(S'was'
p4892
S'received'
p4893
S'into'
p4894
tp4895
F0.00045599635202918376
s(S'then'
p4896
S'named'
p4897
S'[[det]]'
p4898
tp4899
F0.00045599635202918376
s(S'was'
p4900
S'president'
p4901
S'[[num]]'
p4902
tp4903
F0.00045599635202918376
s(S'also'
p4904
S'served'
p4905
S'[[con]]'
p4906
tp4907
F0.00045599635202918376
s(S'became'
p4908
S'head'
p4909
S'for'
p4910
tp4911
F0.00045599635202918376
s(S'also'
p4912
S'featured'
p4913
S'on'
p4914
tp4915
F0.00045599635202918376
s(g2966
g2967
S'team'
p4916
tp4917
F0.00045599635202918376
s(S'mainly'
p4918
S'played'
p4919
S'with'
p4920
tp4921
F0.00045599635202918376
s(S'was'
p4922
S'minister'
p4923
S'[[con]]'
p4924
tp4925
F0.00045599635202918376
s(S'[[con]]'
p4926
S'signed'
p4927
S'with'
p4928
tp4929
F0.00045599635202918376
s(S'[[con]]'
p4930
S'serves'
p4931
S'in'
p4932
tp4933
F0.00045599635202918376
s(S'then'
p4934
S'moved'
p4935
S'over'
p4936
tp4937
F0.00045599635202918376
s(S'where'
p4938
S'served'
p4939
S'in'
p4940
tp4941
F0.00045599635202918376
s(S'being'
p4942
S'signed'
p4943
S'by'
p4944
tp4945
F0.00045599635202918376
s(S'had'
p4946
S'founded'
p4947
S'[[det]]'
p4948
tp4949
F0.00045599635202918376
s(S'then'
p4950
S'played'
p4951
S'in'
p4952
tp4953
F0.00045599635202918376
s(S'has'
p4954
S'signed'
p4955
S'for'
p4956
tp4957
F0.00045599635202918376
s(S'was'
p4958
S'awarded'
p4959
S'[[adj]]'
p4960
tp4961
F0.00045599635202918376
s(S'was'
p4962
S'recognized'
p4963
S'[[con]]'
p4964
tp4965
F0.00045599635202918376
s(S'has'
p4966
S'coached'
p4967
S'[[num]]'
p4968
tp4969
F0.00045599635202918376
s(S'[[det]]'
p4970
S'member'
p4971
S'to'
p4972
tp4973
F0.0009119927040583675
s(S'with'
p4974
S'[[det]]'
p4975
S'team'
p4976
tp4977
F0.0009119927040583675
s(S'also'
p4978
S'plays'
p4979
S'with'
p4980
tp4981
F0.00045599635202918376
s(S'[[adj]]'
p4982
S'played'
p4983
S'in'
p4984
tp4985
F0.00045599635202918376
s(S'[[adj]]'
p4986
S'time'
p4987
S'against'
p4988
tp4989
F0.00045599635202918376
s(S'also'
p4990
S'remained'
p4991
S'[[det]]'
p4992
tp4993
F0.00045599635202918376
s(g2851
g2852
g4210
tp4994
F0.00045599635202918376
s(S'also'
p4995
S'featured'
p4996
S'as'
p4997
tp4998
F0.00045599635202918376
s(S'[[det]]'
p4999
S'officer'
p5000
S'of'
p5001
tp5002
F0.00045599635202918376
s(S'[[adj]]'
p5003
S'president'
p5004
S'for'
p5005
tp5006
F0.00045599635202918376
s(S'who'
p5007
S'played'
p5008
S'for'
p5009
tp5010
F0.00045599635202918376
s(S'[[adj]]'
p5011
S'works'
p5012
S'in'
p5013
tp5014
F0.00045599635202918376
s(S'then'
p5015
S'coached'
p5016
S'for'
p5017
tp5018
F0.00045599635202918376
s(S'of'
p5019
S'[[det]]'
p5020
S'team'
p5021
tp5022
F0.0013679890560875513
s(g627
g628
g1765
tp5023
F0.00045599635202918376
s(S'to'
p5024
S'live'
p5025
S'from'
p5026
tp5027
F0.00045599635202918376
s(S'after'
p5028
S'played'
p5029
S'with'
p5030
tp5031
F0.00045599635202918376
s(S'to'
p5032
S'play'
p5033
S'in'
p5034
tp5035
F0.00045599635202918376
s(S'become'
p5036
S'president'
p5037
S'of'
p5038
tp5039
F0.00045599635202918376
s(S'also'
p5040
S'selected'
p5041
S'to'
p5042
tp5043
F0.00045599635202918376
s(S'born'
p5044
S'grew'
p5045
S'up'
p5046
tp5047
F0.0009119927040583675
s(g37
S'run'
p5048
S'by'
p5049
tp5050
F0.00045599635202918376
s(S'is'
p5051
S'met'
p5052
S'by'
p5053
tp5054
F0.00045599635202918376
s(S'then'
p5055
S'played'
p5056
S'[[det]]'
p5057
tp5058
F0.00045599635202918376
s(S'had'
p5059
S'moved'
p5060
S'on'
p5061
tp5062
F0.00045599635202918376
s(S'has'
p5063
S'played'
p5064
S'at'
p5065
tp5066
F0.00045599635202918376
s(S'[[con]]'
p5067
S'worked'
p5068
S'for'
p5069
tp5070
F0.00045599635202918376
s(S'also'
p5071
S'established'
p5072
S'at'
p5073
tp5074
F0.00045599635202918376
s(S'[[det]]'
p5075
S'president'
p5076
S'[[con]]'
p5077
tp5078
F0.00045599635202918376
s(S'also'
p5079
S'works'
p5080
S'in'
p5081
tp5082
F0.00045599635202918376
s(S'have'
p5083
S'met'
p5084
S'[[con]]'
p5085
tp5086
F0.00045599635202918376
s(S'[[det]]'
p5087
S'head'
p5088
S'of'
p5089
tp5090
F0.00045599635202918376
s(S'[[prp]]'
p5091
S'work'
p5092
S'at'
p5093
tp5094
F0.00045599635202918376
s(S'has'
p5095
S'worked'
p5096
S'[[con]]'
p5097
tp5098
F0.00045599635202918376
s(S'have'
p5099
S'arrived'
p5100
S'in'
p5101
tp5102
F0.00045599635202918376
s(S'was'
p5103
S'selected'
p5104
S'[[adj]]'
p5105
tp5106
F0.00045599635202918376
s(S'[[adj]]'
p5107
S'architect'
p5108
S'for'
p5109
tp5110
F0.00045599635202918376
s(S'also'
p5111
S'ran'
p5112
S'for'
p5113
tp5114
F0.00045599635202918376
s(g4357
g145
g146
tp5115
F0.00045599635202918376
s(S'later'
p5116
S'founded'
p5117
S'[[det]]'
p5118
tp5119
F0.00045599635202918376
s(S'is'
p5120
g888
g889
tp5121
F0.0013679890560875513
s(S'was'
p5122
S'appointed'
p5123
S'[[num]]'
p5124
tp5125
F0.00045599635202918376
s(S'had'
p5126
S'worked'
p5127
S'in'
p5128
tp5129
F0.00045599635202918376
s(S'where'
p5130
S'met'
p5131
S'with'
p5132
tp5133
F0.00045599635202918376
s(S'is'
p5134
S'awarded'
p5135
S'by'
p5136
tp5137
F0.00045599635202918376
s(S'when'
p5138
S'played'
p5139
S'for'
p5140
tp5141
F0.00045599635202918376
s(S'was'
p5142
S'born'
p5143
S'educated'
p5144
tp5145
F0.00045599635202918376
s(S'was'
p5146
S'moved'
p5147
S'for'
p5148
tp5149
F0.00045599635202918376
s(S'[[adj]]'
p5150
S'director'
p5151
S'of'
p5152
tp5153
F0.00045599635202918376
s(S'[[adj]]'
p5154
S'supporter'
p5155
S'in'
p5156
tp5157
F0.00045599635202918376
s(S'[[con]]'
p5158
S'attended'
p5159
S'[[con]]'
p5160
tp5161
F0.00045599635202918376
s(S'[[adj]]'
p5162
S'played'
p5163
S'for'
p5164
tp5165
F0.00045599635202918376
s(S'[[det]]'
p5166
S'minister'
p5167
S'in'
p5168
tp5169
F0.00045599635202918376
s(S'be'
p5170
S'honored'
p5171
S'by'
p5172
tp5173
F0.00045599635202918376
s(S'competed'
p5174
g4974
g4975
tp5175
F0.00045599635202918376
s(S'[[det]]'
p5176
S'ambassador'
p5177
S'to'
p5178
tp5179
F0.0009119927040583675
s(S'then'
p5180
S'coached'
p5181
S'[[det]]'
p5182
tp5183
F0.00045599635202918376
s(S'was'
p5184
S'considered'
p5185
S'[[num]]'
p5186
tp5187
F0.00045599635202918376
s(S'[[adj]]'
p5188
S'attended'
p5189
S'[[det]]'
p5190
tp5191
F0.00045599635202918376
s(S'to'
p5192
S'stay'
p5193
S'in'
p5194
tp5195
F0.00045599635202918376
s(S'then'
p5196
S'attended'
p5197
S'now'
p5198
tp5199
F0.00045599635202918376
s(S'[[con]]'
p5200
S'served'
p5201
S'[[det]]'
p5202
tp5203
F0.00045599635202918376
s(S'[[adj]]'
p5204
S'member'
p5205
S'at'
p5206
tp5207
F0.00045599635202918376
s(S'never'
p5208
S'left'
p5209
S'[[det]]'
p5210
tp5211
F0.00045599635202918376
s(S'later'
p5212
S'attended'
p5213
S'at'
p5214
tp5215
F0.00045599635202918376
s(S'once'
p5216
S'played'
p5217
S'for'
p5218
tp5219
F0.00045599635202918376
s(S'has'
p5220
S'won'
p5221
S'with'
p5222
tp5223
F0.00045599635202918376
s(S'had'
p5224
S'signed'
p5225
S'for'
p5226
tp5227
F0.00045599635202918376
s(S'to'
p5228
S'play'
p5229
S'[[con]]'
p5230
tp5231
F0.00045599635202918376
s(S'again'
p5232
S'served'
p5233
S'to'
p5234
tp5235
F0.00045599635202918376
s(S'member'
p5236
S'who'
p5237
S'served'
p5238
tp5239
F0.0009119927040583675
s(S'also'
p5240
S'worked'
p5241
S'[[con]]'
p5242
tp5243
F0.00045599635202918376
s(S'as'
p5244
S'officer'
p5245
S'for'
p5246
tp5247
F0.00045599635202918376
s(g1964
g3880
S'position'
p5248
tp5249
F0.00045599635202918376
s(S'has'
p5250
S'joined'
p5251
S'[[det]]'
p5252
tp5253
F0.00045599635202918376
s(S'first'
p5254
S'played'
p5255
S'with'
p5256
tp5257
F0.00045599635202918376
s(S'is'
p5258
S'featured'
p5259
S'for'
p5260
tp5261
F0.00045599635202918376
s(S'[[det]]'
p5262
S'years'
p5263
S'[[num]]'
p5264
tp5265
F0.00045599635202918376
s(S'became'
p5266
S'president'
p5267
S'[[con]]'
p5268
tp5269
F0.00045599635202918376
s(S'was'
p5270
S'signed'
p5271
S'as'
p5272
tp5273
F0.00045599635202918376
s(S'to'
p5274
S'serve'
p5275
S'with'
p5276
tp5277
F0.00045599635202918376
s(S'were'
p5278
S'published'
p5279
S'by'
p5280
tp5281
F0.00045599635202918376
s(S'[[det]]'
p5282
S'president'
p5283
S'in'
p5284
tp5285
F0.00045599635202918376
s(S'[[num]]'
p5286
S'played'
p5287
S'at'
p5288
tp5289
F0.00045599635202918376
s(S'to'
p5290
S'play'
p5291
S'with'
p5292
tp5293
F0.00045599635202918376
s(S'also'
p5294
S'worked'
p5295
S'[[det]]'
p5296
tp5297
F0.00045599635202918376
s(g37
S'works'
p5298
S'in'
p5299
tp5300
F0.00045599635202918376
s(S'[[con]]'
p5301
S'signed'
p5302
S'up'
p5303
tp5304
F0.00045599635202918376
s(S'[[con]]'
p5305
S'appointed'
p5306
S'of'
p5307
tp5308
F0.00045599635202918376
s(S'became'
p5309
S'president'
p5310
S'[[det]]'
p5311
tp5312
F0.00045599635202918376
s(S'[[det]]'
p5313
S'president'
p5314
S'which'
p5315
tp5316
F0.00045599635202918376
s(S'was'
p5317
g987
g988
tp5318
F0.00045599635202918376
s(g37
S'activities'
p5319
S'in'
p5320
tp5321
F0.00045599635202918376
s(S'first'
p5322
S'appointed'
p5323
S'to'
p5324
tp5325
F0.00045599635202918376
s(S'currently'
p5326
S'based'
p5327
S'in'
p5328
tp5329
F0.00045599635202918376
s(S'was'
p5330
g4877
g504
tp5331
F0.004559963520291838
s(S'later'
p5332
S'won'
p5333
S'[[det]]'
p5334
tp5335
F0.00045599635202918376
s(S'also'
p5336
S'played'
p5337
S'over'
p5338
tp5339
F0.00045599635202918376
s(g3501
g4249
S'town'
p5340
tp5341
F0.00045599635202918376
s(S'later'
p5342
S'graduated'
p5343
S'from'
p5344
tp5345
F0.00045599635202918376
s(S'later'
p5346
S'played'
p5347
S'[[det]]'
p5348
tp5349
F0.00045599635202918376
s(S'[[adj]]'
p5350
S'candidate'
p5351
S'for'
p5352
tp5353
F0.00045599635202918376
s(S'had'
p5354
S'met'
p5355
S'with'
p5356
tp5357
F0.00045599635202918376
s(S'has'
p5358
S'attended'
p5359
S'[[con]]'
p5360
tp5361
F0.00045599635202918376
s(S'was'
p5362
S'transferred'
p5363
S'at'
p5364
tp5365
F0.00045599635202918376
s(S'[[pro]]'
p5366
S'arrived'
p5367
S'in'
p5368
tp5369
F0.00045599635202918376
s(S'was'
p5370
S'awarded'
p5371
S'by'
p5372
tp5373
F0.00045599635202918376
s(S'became'
p5374
S'member'
p5375
S'for'
p5376
tp5377
F0.00045599635202918376
s(S'[[con]]'
p5378
S'worked'
p5379
S'[[con]]'
p5380
tp5381
F0.00045599635202918376
s(S'been'
p5382
S'signed'
p5383
S'from'
p5384
tp5385
F0.00045599635202918376
s(S'also'
p5386
S'selected'
p5387
S'[[det]]'
p5388
tp5389
F0.00045599635202918376
s(S'has'
p5390
S'run'
p5391
S'as'
p5392
tp5393
F0.00045599635202918376
s(S'also'
p5394
S'honored'
p5395
S'as'
p5396
tp5397
F0.00045599635202918376
s(S'have'
p5398
S'worked'
p5399
S'at'
p5400
tp5401
F0.00045599635202918376
s(g3880
g5248
S'as'
p5402
tp5403
F0.00045599635202918376
s(S'had'
p5404
S'signed'
p5405
S'from'
p5406
tp5407
F0.00045599635202918376
s(S'later'
p5408
S'played'
p5409
S'for'
p5410
tp5411
F0.00045599635202918376
s(S'[[con]]'
p5412
S'live'
p5413
S'in'
p5414
tp5415
F0.00045599635202918376
s(S'in'
p5416
S'[[adj]]'
p5417
S'family'
p5418
tp5419
F0.00045599635202918376
s(S'also'
p5420
S'play'
p5421
S'in'
p5422
tp5423
F0.00045599635202918376
s(S'became'
p5424
S'president'
p5425
S'in'
p5426
tp5427
F0.00045599635202918376
s(S'[[det]]'
p5428
S'ambassador'
p5429
S'[[con]]'
p5430
tp5431
F0.00045599635202918376
s(S'played'
p5432
S'with'
p5433
S'[[det]]'
p5434
tp5435
F0.00045599635202918376
s(S'then'
p5436
S'served'
p5437
S'in'
p5438
tp5439
F0.00045599635202918376
s(S'spent'
p5440
S'much'
p5441
g1415
tp5442
F0.00045599635202918376
s(S'began'
p5443
g3177
g3178
tp5444
F0.0013679890560875513
s(S'being'
p5445
S'selected'
p5446
S'by'
p5447
tp5448
F0.00045599635202918376
s(S'being'
p5449
S'appointed'
p5450
S'as'
p5451
tp5452
F0.00045599635202918376
s(S'not'
p5453
S'played'
p5454
S'in'
p5455
tp5456
F0.00045599635202918376
s(S'[[det]]'
p5457
S'time'
p5458
S'as'
p5459
tp5460
F0.00045599635202918376
s(S'then'
p5461
S'awarded'
p5462
S'[[det]]'
p5463
tp5464
F0.00045599635202918376
s(g1032
g1033
g2669
tp5465
F0.00045599635202918376
s(S'was'
p5466
S'minister'
p5467
S'to'
p5468
tp5469
F0.00045599635202918376
s(S'awarded'
p5470
S'[[det]]'
p5471
S'honor'
p5472
tp5473
F0.00045599635202918376
s(S'be'
p5474
S'called'
p5475
S'up'
p5476
tp5477
F0.00045599635202918376
s(S'spent'
p5478
S'[[adj]]'
p5479
S'years'
p5480
tp5481
F0.00045599635202918376
s(S'was'
p5482
S'selected'
p5483
S'after'
p5484
tp5485
F0.00045599635202918376
s(S'was'
p5486
S'serving'
p5487
S'to'
p5488
tp5489
F0.00045599635202918376
s(S'was'
p5490
S'joined'
p5491
S'[[det]]'
p5492
tp5493
F0.00045599635202918376
s(S'became'
p5494
S'known'
p5495
S'only'
p5496
tp5497
F0.00045599635202918376
s(S'had'
p5498
S'met'
p5499
S'through'
p5500
tp5501
F0.00045599635202918376
s(S'then'
p5502
S'visited'
p5503
S'[[con]]'
p5504
tp5505
F0.00045599635202918376
s(S'also'
p5506
S'appointed'
p5507
S'at'
p5508
tp5509
F0.00045599635202918376
s(S'had'
p5510
S'joined'
p5511
S'of'
p5512
tp5513
F0.00045599635202918376
s(S'[[con]]'
p5514
S'graduated'
p5515
S'from'
p5516
tp5517
F0.00045599635202918376
s(S'[[det]]'
p5518
S'candidate'
p5519
S'in'
p5520
tp5521
F0.00045599635202918376
s(S'then'
p5522
g314
g315
tp5523
F0.00045599635202918376
s(S'[[adj]]'
p5524
S'served'
p5525
S'for'
p5526
tp5527
F0.00045599635202918376
s(S'was'
p5528
S'honored'
p5529
S'with'
p5530
tp5531
F0.00045599635202918376
s(S'has'
p5532
S'returned'
p5533
S'home'
p5534
tp5535
F0.00045599635202918376
s(g37
S'worked'
p5536
S'for'
p5537
tp5538
F0.00045599635202918376
s(S'also'
p5539
S'coached'
p5540
S'at'
p5541
tp5542
F0.00045599635202918376
s(S'also'
p5543
S'serves'
p5544
S'at'
p5545
tp5546
F0.00045599635202918376
s(S'[[adj]]'
p5547
S'head'
p5548
S'in'
p5549
tp5550
F0.00045599635202918376
s(g31
S'judge'
p5551
S'of'
p5552
tp5553
F0.00045599635202918376
s(S'was'
p5554
S'moved'
p5555
S'back'
p5556
tp5557
F0.00045599635202918376
s(S'[[mod]]'
p5558
S'play'
p5559
S'against'
p5560
tp5561
F0.00045599635202918376
s(S'was'
p5562
S'named'
p5563
S'to'
p5564
tp5565
F0.00045599635202918376
s(S'has'
p5566
S'coached'
p5567
S'in'
p5568
tp5569
F0.00045599635202918376
s(S'to'
p5570
S'run'
p5571
S'for'
p5572
tp5573
F0.00045599635202918376
s(S'[[adj]]'
p5574
S'ambassador'
p5575
S'to'
p5576
tp5577
F0.0009119927040583675
s(S'[[det]]'
p5578
S'member'
p5579
S'in'
p5580
tp5581
F0.00045599635202918376
s(S'also'
p5582
S'served'
p5583
S'of'
p5584
tp5585
F0.00045599635202918376
s(S'again'
p5586
S'played'
p5587
S'for'
p5588
tp5589
F0.00045599635202918376
s(S'then'
p5590
S'signed'
p5591
S'to'
p5592
tp5593
F0.00045599635202918376
s(S'be'
p5594
S'appointed'
p5595
S'[[det]]'
p5596
tp5597
F0.00045599635202918376
s(S'[[adj]]'
p5598
S'citizen'
p5599
S'of'
p5600
tp5601
F0.00045599635202918376
s(S'also'
p5602
S'fought'
p5603
S'for'
p5604
tp5605
F0.00045599635202918376
s(g5441
g1415
g1416
tp5606
F0.00045599635202918376
s(S'[[mod]]'
p5607
S'serve'
p5608
S'[[num]]'
p5609
tp5610
F0.00045599635202918376
s(S'also'
p5611
S'won'
p5612
S'from'
p5613
tp5614
F0.00045599635202918376
s(S'[[mod]]'
p5615
S'return'
p5616
S'[[con]]'
p5617
tp5618
F0.00045599635202918376
s(S'also'
p5619
S'signed'
p5620
S'for'
p5621
tp5622
F0.00045599635202918376
s(S'be'
p5623
S'selected'
p5624
S'by'
p5625
tp5626
F0.00045599635202918376
s(S'[[det]]'
p5627
S'nominee'
p5628
S'of'
p5629
tp5630
F0.00045599635202918376
s(S'[[con]]'
p5631
S'received'
p5632
S'[[det]]'
p5633
tp5634
F0.00045599635202918376
s(S'[[adj]]'
p5635
S'based'
p5636
S'in'
p5637
tp5638
F0.00045599635202918376
s(S'to'
p5639
S'join'
p5640
S'up'
p5641
tp5642
F0.00045599635202918376
s(S'also'
p5643
S'selected'
p5644
S'as'
p5645
tp5646
F0.00045599635202918376
s(S'[[num]]'
p5647
S'years'
p5648
S'on'
p5649
tp5650
F0.0009119927040583675
s(S'[[det]]'
p5651
S'return'
p5652
S'[[con]]'
p5653
tp5654
F0.00045599635202918376
s(g1894
g1895
S'family'
p5655
tp5656
F0.00045599635202918376
s(S'who'
p5657
S'remained'
p5658
S'in'
p5659
tp5660
F0.00045599635202918376
s(S'[[det]]'
p5661
S'minister'
p5662
S'[[con]]'
p5663
tp5664
F0.00045599635202918376
s(S'has'
p5665
S'worked'
p5666
S'for'
p5667
tp5668
F0.00045599635202918376
s(S'to'
p5669
S'flee'
p5670
S'from'
p5671
tp5672
F0.00045599635202918376
s(S'to'
p5673
S'join'
p5674
S'[[num]]'
p5675
tp5676
F0.00045599635202918376
s(S'who'
p5677
S'served'
p5678
S'with'
p5679
tp5680
F0.00045599635202918376
s(S'also'
p5681
S'teaches'
p5682
S'[[con]]'
p5683
tp5684
F0.00045599635202918376
s(S'upon'
p5685
S'returning'
p5686
S'as'
p5687
tp5688
F0.00045599635202918376
s(S'[[det]]'
p5689
S'member'
p5690
S'when'
p5691
tp5692
F0.00045599635202918376
s(S'[[det]]'
p5693
S'president'
p5694
S'to'
p5695
tp5696
F0.00045599635202918376
s(S'was'
p5697
S'awarded'
p5698
S'to'
p5699
tp5700
F0.00045599635202918376
s(S'[[det]]'
p5701
S'candidate'
p5702
S'for'
p5703
tp5704
F0.00045599635202918376
s(S'[[con]]'
p5705
S'published'
p5706
S'[[adj]]'
p5707
tp5708
F0.00045599635202918376
s(S'[[det]]'
p5709
S'candidate'
p5710
S'[[con]]'
p5711
tp5712
F0.00045599635202918376
s(S'was'
p5713
S'president'
p5714
S'[[det]]'
p5715
tp5716
F0.00045599635202918376
s(S'[[adj]]'
p5717
S'ambassador'
p5718
S'in'
p5719
tp5720
F0.00045599635202918376
s(S'since'
p5721
S'played'
p5722
S'for'
p5723
tp5724
F0.00045599635202918376
s(S'is'
p5725
S'president'
p5726
S'[[det]]'
p5727
tp5728
F0.00045599635202918376
s(S'played'
p5729
S'with'
p5730
S'team'
p5731
tp5732
F0.0009119927040583675
s(S'[[det]]'
p5733
S'bachelor'
p5734
S'in'
p5735
tp5736
F0.00045599635202918376
s(S'has'
p5737
S'served'
p5738
S'[[con]]'
p5739
tp5740
F0.00045599635202918376
s(S'is'
p5741
S'considered'
p5742
S'[[adj]]'
p5743
tp5744
F0.00045599635202918376
s(S'has'
p5745
S'coached'
p5746
S'[[con]]'
p5747
tp5748
F0.00045599635202918376
s(S'[[con]]'
p5749
S'leave'
p5750
S'for'
p5751
tp5752
F0.00045599635202918376
s(S'since'
p5753
S'served'
p5754
S'in'
p5755
tp5756
F0.00045599635202918376
s(S'[[con]]'
p5757
S'met'
p5758
S'[[adj]]'
p5759
tp5760
F0.00045599635202918376
s(S'later'
p5761
S'represented'
p5762
S'[[det]]'
p5763
tp5764
F0.00045599635202918376
s(S'was'
p5765
S'named'
p5766
S'by'
p5767
tp5768
F0.00045599635202918376
s(S'who'
p5769
S'worked'
p5770
S'for'
p5771
tp5772
F0.00045599635202918376
s(S'is'
p5773
S'director'
p5774
S'for'
p5775
tp5776
F0.00045599635202918376
s(S'again'
p5777
S'returned'
p5778
S'[[con]]'
p5779
tp5780
F0.00045599635202918376
s(S'well'
p5781
S'known'
p5782
S'outside'
p5783
tp5784
F0.00045599635202918376
s(S'has'
p5785
S'visited'
p5786
S'[[det]]'
p5787
tp5788
F0.00045599635202918376
s(S'was'
p5789
S'appointed'
p5790
S'from'
p5791
tp5792
F0.00045599635202918376
s(S'formerly'
p5793
S'played'
p5794
S'[[con]]'
p5795
tp5796
F0.00045599635202918376
s(S'also'
p5797
S'play'
p5798
S'for'
p5799
tp5800
F0.00045599635202918376
s(S'been'
p5801
S'named'
p5802
S'[[det]]'
p5803
tp5804
F0.00045599635202918376
s(S'when'
p5805
S'signed'
p5806
S'with'
p5807
tp5808
F0.00045599635202918376
s(S'first'
p5809
S'came'
p5810
S'to'
p5811
tp5812
F0.00045599635202918376
s(S'[[con]]'
p5813
S'received'
p5814
S'from'
p5815
tp5816
F0.00045599635202918376
s(S'been'
p5817
S'president'
p5818
S'[[det]]'
p5819
tp5820
F0.00045599635202918376
s(S'been'
p5821
S'awarded'
p5822
S'[[det]]'
p5823
tp5824
F0.00045599635202918376
s(S'instead'
p5825
S'signed'
p5826
S'with'
p5827
tp5828
F0.00045599635202918376
s(S'had'
p5829
S'coached'
p5830
S'at'
p5831
tp5832
F0.00045599635202918376
s(S'mostly'
p5833
S'known'
p5834
S'in'
p5835
tp5836
F0.00045599635202918376
s(S'[[adj]]'
p5837
S'architect'
p5838
S'of'
p5839
tp5840
F0.00045599635202918376
s(S'also'
p5841
S'published'
p5842
S'by'
p5843
tp5844
F0.00045599635202918376
s(S'then'
p5845
S'returned'
p5846
S'to'
p5847
tp5848
F0.0009119927040583675
s(S'later'
p5849
S'received'
p5850
S'at'
p5851
tp5852
F0.00045599635202918376
s(S'[[det]]'
p5853
S'woman'
p5854
S'in'
p5855
tp5856
F0.00045599635202918376
s(S'was'
p5857
S'director'
p5858
S'[[con]]'
p5859
tp5860
F0.00045599635202918376
s(S'[[adj]]'
p5861
S'play'
p5862
S'in'
p5863
tp5864
F0.00045599635202918376
s(S'also'
p5865
S'teaches'
p5866
S'in'
p5867
tp5868
F0.00045599635202918376
s(S'[[num]]'
p5869
S'time'
p5870
S'of'
p5871
tp5872
F0.00045599635202918376
s(S'[[det]]'
p5873
S'director'
p5874
S'of'
p5875
tp5876
F0.00045599635202918376
s(g3129
g3394
S'years'
p5877
tp5878
F0.0013679890560875513
s(S'is'
p5879
S'selected'
p5880
S'as'
p5881
tp5882
F0.00045599635202918376
s(S'when'
p5883
S'signed'
p5884
S'up'
p5885
tp5886
F0.00045599635202918376
s(S'has'
p5887
S'served'
p5888
S'[[adj]]'
p5889
tp5890
F0.00045599635202918376
s(S'[[det]]'
p5891
g2243
g2244
tp5892
F0.00045599635202918376
s(S'to'
p5893
S'serve'
p5894
S'for'
p5895
tp5896
F0.00045599635202918376
s(S'had'
p5897
S'established'
p5898
S'[[pro]]'
p5899
tp5900
F0.00045599635202918376
s(S'[[det]]'
p5901
S'captain'
p5902
S'at'
p5903
tp5904
F0.00045599635202918376
s(S'also'
p5905
S'received'
p5906
S'to'
p5907
tp5908
F0.00045599635202918376
s(S'to'
p5909
S'head'
p5910
S'at'
p5911
tp5912
F0.00045599635202918376
s(S'lives'
p5913
g698
g699
tp5914
F0.001823985408116735
s(S'spent'
p5915
S'years'
p5916
S'in'
p5917
tp5918
F0.00045599635202918376
s(S'ran'
p5919
S'unsuccessfully'
p5920
S'as'
p5921
tp5922
F0.00045599635202918376
s(g287
g288
S'from'
p5923
tp5924
F0.00045599635202918376
s(S'also'
p5925
S'played'
p5926
S'where'
p5927
tp5928
F0.00045599635202918376
s(S'had'
p5929
S'served'
p5930
S'to'
p5931
tp5932
F0.00045599635202918376
s(S'was'
p5933
S'signed'
p5934
S'up'
p5935
tp5936
F0.00045599635202918376
s(S'then'
p5937
S'spent'
p5938
S'[[num]]'
p5939
tp5940
F0.0009119927040583675
s(S'also'
p5941
S'coached'
p5942
S'[[con]]'
p5943
tp5944
F0.00045599635202918376
s(S'currently'
p5945
S'signed'
p5946
S'to'
p5947
tp5948
F0.00045599635202918376
s(S'also'
p5949
S'published'
p5950
S'at'
p5951
tp5952
F0.00045599635202918376
s(S'is'
p5953
S'retired'
p5954
S'from'
p5955
tp5956
F0.00045599635202918376
s(S'were'
p5957
S'signed'
p5958
S'by'
p5959
tp5960
F0.00045599635202918376
s(S'then'
p5961
S'transferred'
p5962
S'[[con]]'
p5963
tp5964
F0.00045599635202918376
s(S'also'
p5965
S'selected'
p5966
S'[[adj]]'
p5967
tp5968
F0.00045599635202918376
s(g3675
g3676
S'title'
p5969
tp5970
F0.00045599635202918376
s(S'was'
p5971
S'appointed'
p5972
S'[[det]]'
p5973
tp5974
F0.001823985408116735
s(S'been'
p5975
S'nominated'
p5976
S'to'
p5977
tp5978
F0.00045599635202918376
s(S'then'
p5979
S'called'
p5980
S'from'
p5981
tp5982
F0.00045599635202918376
s(S'matter'
p5983
g3428
g1962
tp5984
F0.00045599635202918376
s(S'then'
p5985
S'selected'
p5986
S'in'
p5987
tp5988
F0.00045599635202918376
s(S'has'
p5989
S'received'
p5990
S'at'
p5991
tp5992
F0.00045599635202918376
s(S'[[num]]'
p5993
S'[[adj]]'
p5994
S'politician'
p5995
tp5996
F0.0009119927040583675
s(S'was'
p5997
S'returning'
p5998
S'after'
p5999
tp6000
F0.00045599635202918376
s(S'also'
p6001
S'president'
p6002
S'[[det]]'
p6003
tp6004
F0.00045599635202918376
s(S'was'
p6005
S'appointed'
p6006
S'as'
p6007
tp6008
F0.0013679890560875513
s(S'became'
p6009
S'captain'
p6010
S'of'
p6011
tp6012
F0.00045599635202918376
s(S'[[det]]'
p6013
S'head'
p6014
S'[[con]]'
p6015
tp6016
F0.00045599635202918376
s(S'also'
p6017
S'founded'
p6018
S'at'
p6019
tp6020
F0.00045599635202918376
s(S'[[det]]'
p6021
g5983
g3428
tp6022
F0.00045599635202918376
s(S'spent'
p6023
S'[[det]]'
p6024
g3326
tp6025
F0.00045599635202918376
s(S'has'
p6026
S'coached'
p6027
S'[[det]]'
p6028
tp6029
F0.00045599635202918376
s(S'also'
p6030
S'graduated'
p6031
S'at'
p6032
tp6033
F0.00045599635202918376
s(S'is'
p6034
S'named'
p6035
S'as'
p6036
tp6037
F0.00045599635202918376
s(S'is'
p6038
S'president'
p6039
S'[[con]]'
p6040
tp6041
F0.00045599635202918376
s(S'then'
p6042
S'moved'
p6043
S'onto'
p6044
tp6045
F0.00045599635202918376
s(S'soon'
p6046
S'joined'
p6047
S'[[det]]'
p6048
tp6049
F0.00045599635202918376
s(S'also'
p6050
S'worked'
p6051
S'as'
p6052
tp6053
F0.00045599635202918376
s(g5143
g5144
S'in'
p6054
tp6055
F0.00045599635202918376
s(S'has'
p6056
S'served'
p6057
S'with'
p6058
tp6059
F0.00045599635202918376
s(S'currently'
p6060
S'serves'
p6061
S'[[con]]'
p6062
tp6063
F0.00045599635202918376
s(S'then'
p6064
S'served'
p6065
S'[[det]]'
p6066
tp6067
F0.00045599635202918376
s(S'being'
p6068
S'awarded'
p6069
S'[[det]]'
p6070
tp6071
F0.00045599635202918376
s(S'then'
p6072
S'moved'
p6073
S'then'
p6074
tp6075
F0.00045599635202918376
s(S'[[prp]]'
p6076
S'work'
p6077
S'in'
p6078
tp6079
F0.00045599635202918376
s(S'then'
p6080
S'coached'
p6081
S'[[con]]'
p6082
tp6083
F0.00045599635202918376
s(S'[[num]]'
p6084
S'years'
p6085
S'at'
p6086
tp6087
F0.0009119927040583675
s(S'soon'
p6088
S'left'
p6089
S'to'
p6090
tp6091
F0.00045599635202918376
s(S'become'
p6092
S'director'
p6093
S'in'
p6094
tp6095
F0.00045599635202918376
s(S'formerly'
p6096
S'served'
p6097
S'to'
p6098
tp6099
F0.00045599635202918376
s(S'[[pro]]'
p6100
S'time'
p6101
S'in'
p6102
tp6103
F0.00045599635202918376
s(S'being'
p6104
S'appointed'
p6105
S'to'
p6106
tp6107
F0.00045599635202918376
s(S'[[adj]]'
p6108
S'officer'
p6109
S'on'
p6110
tp6111
F0.00045599635202918376
s(S'be'
p6112
S'considered'
p6113
S'[[adj]]'
p6114
tp6115
F0.00045599635202918376
s(S'had'
p6116
S'worked'
p6117
S'at'
p6118
tp6119
F0.00045599635202918376
s(S'had'
p6120
S'appointed'
p6121
S'to'
p6122
tp6123
F0.00045599635202918376
s(S'[[det]]'
p6124
S'left'
p6125
S'of'
p6126
tp6127
F0.00045599635202918376
s(S'then'
p6128
S'played'
p6129
S'against'
p6130
tp6131
F0.00045599635202918376
s(S'had'
p6132
S'played'
p6133
S'against'
p6134
tp6135
F0.00045599635202918376
s(S'been'
p6136
S'awarded'
p6137
S'[[adj]]'
p6138
tp6139
F0.00045599635202918376
s(S'was'
p6140
S'known'
p6141
S'throughout'
p6142
tp6143
F0.00045599635202918376
s(S'was'
p6144
S'honored'
p6145
S'to'
p6146
tp6147
F0.00045599635202918376
s(S'before'
p6148
S'returning'
p6149
S'with'
p6150
tp6151
F0.00045599635202918376
s(S'also'
p6152
S'came'
p6153
S'[[adj]]'
p6154
tp6155
F0.00045599635202918376
s(S'has'
p6156
S'moved'
p6157
S'from'
p6158
tp6159
F0.00045599635202918376
s(S'also'
p6160
S'plays'
p6161
S'for'
p6162
tp6163
F0.00045599635202918376
s(S'also'
p6164
S'named'
p6165
S'[[con]]'
p6166
tp6167
F0.00045599635202918376
s(S'also'
p6168
S'member'
p6169
S'[[con]]'
p6170
tp6171
F0.00045599635202918376
s(S'never'
p6172
S'received'
p6173
S'[[det]]'
p6174
tp6175
F0.00045599635202918376
s(S'being'
p6176
S'appointed'
p6177
S'at'
p6178
tp6179
F0.00045599635202918376
s(S'had'
p6180
S'met'
p6181
S'[[det]]'
p6182
tp6183
F0.00045599635202918376
s(S'then'
p6184
S'moved'
p6185
S'on'
p6186
tp6187
F0.00045599635202918376
s(S'[[adj]]'
p6188
S'play'
p6189
S'with'
p6190
tp6191
F0.00045599635202918376
s(S'was'
p6192
S'director'
p6193
S'at'
p6194
tp6195
F0.00045599635202918376
s(S'better'
p6196
S'known'
p6197
S'in'
p6198
tp6199
F0.00045599635202918376
s(S'[[det]]'
p6200
S'captain'
p6201
S'of'
p6202
tp6203
F0.00045599635202918376
s(S'first'
p6204
S'entered'
p6205
S'[[det]]'
p6206
tp6207
F0.00045599635202918376
s(S'[[adj]]'
p6208
S'educated'
p6209
S'in'
p6210
tp6211
F0.00045599635202918376
s(S'to'
p6212
S'play'
p6213
S'at'
p6214
tp6215
F0.00045599635202918376
s(g1545
g1546
S'against'
p6216
tp6217
F0.00045599635202918376
s(S'then'
p6218
S'left'
p6219
S'for'
p6220
tp6221
F0.00045599635202918376
s(S'after'
p6222
S'returning'
p6223
S'to'
p6224
tp6225
F0.00045599635202918376
s(S'later'
p6226
S'served'
p6227
S'with'
p6228
tp6229
F0.00045599635202918376
s(S'instead'
p6230
S'joined'
p6231
S'[[det]]'
p6232
tp6233
F0.00045599635202918376
s(S'[[det]]'
p6234
S'representative'
p6235
S'to'
p6236
tp6237
F0.00045599635202918376
s(S'[[prp]]'
p6238
S'bachelor'
p6239
S'from'
p6240
tp6241
F0.00045599635202918376
s(S'then'
p6242
S'received'
p6243
S'in'
p6244
tp6245
F0.00045599635202918376
s(S'[[pro]]'
p6246
S'ran'
p6247
S'for'
p6248
tp6249
F0.00045599635202918376
s(S'then'
p6250
S'moved'
p6251
S'[[det]]'
p6252
tp6253
F0.00045599635202918376
s(S'[[adj]]'
p6254
S'director'
p6255
S'for'
p6256
tp6257
F0.00045599635202918376
s(g3220
g2589
g2590
tp6258
F0.001823985408116735
s(S'also'
p6259
S'awarded'
p6260
S'from'
p6261
tp6262
F0.00045599635202918376
s(S'[[adj]]'
p6263
S'played'
p6264
S'as'
p6265
tp6266
F0.00045599635202918376
s(S'became'
p6267
S'head'
p6268
S'of'
p6269
tp6270
F0.00045599635202918376
s(S'[[adj]]'
p6271
S'governor'
p6272
S'[[det]]'
p6273
tp6274
F0.00045599635202918376
s(S'with'
p6275
S'founded'
p6276
S'[[det]]'
p6277
tp6278
F0.00045599635202918376
s(S'[[adj]]'
p6279
S'candidate'
p6280
S'[[det]]'
p6281
tp6282
F0.00045599635202918376
s(S'then'
p6283
S'served'
p6284
S'for'
p6285
tp6286
F0.00045599635202918376
s(S'still'
p6287
S'plays'
p6288
S'for'
p6289
tp6290
F0.00045599635202918376
s(S'[[con]]'
p6291
S'come'
p6292
S'to'
p6293
tp6294
F0.00045599635202918376
s(S'[[con]]'
p6295
S'appointed'
p6296
S'as'
p6297
tp6298
F0.00045599635202918376
s(S'also'
p6299
S'president'
p6300
S'[[con]]'
p6301
tp6302
F0.00045599635202918376
s(S'then'
p6303
S'attended'
p6304
S'at'
p6305
tp6306
F0.00045599635202918376
s(S'where'
p6307
S'joined'
p6308
S'[[det]]'
p6309
tp6310
F0.00045599635202918376
s(S'had'
p6311
S'visited'
p6312
S'[[con]]'
p6313
tp6314
F0.00045599635202918376
s(S'to'
p6315
S'serve'
p6316
S'[[con]]'
p6317
tp6318
F0.00045599635202918376
s(S'later'
p6319
S'work'
p6320
S'in'
p6321
tp6322
F0.00045599635202918376
s(S'[[det]]'
p6323
S'founder'
p6324
S'[[det]]'
p6325
tp6326
F0.00045599635202918376
s(S'currently'
p6327
S'plays'
p6328
S'for'
p6329
tp6330
F0.00045599635202918376
s(S'who'
p6331
S'served'
p6332
S'[[con]]'
p6333
tp6334
F0.00045599635202918376
s(S'was'
p6335
S'member'
p6336
S'at'
p6337
tp6338
F0.00045599635202918376
s(g1297
g1298
S'in'
p6339
tp6340
F0.00045599635202918376
s(S'returned'
p6341
S'home'
p6342
S'by'
p6343
tp6344
F0.00045599635202918376
s(S'[[adj]]'
p6345
S'member'
p6346
S'of'
p6347
tp6348
F0.0013679890560875513
s(S'[[adj]]'
p6349
S'figure'
p6350
S'[[det]]'
p6351
tp6352
F0.00045599635202918376
s(g37
S'return'
p6353
S'to'
p6354
tp6355
F0.00045599635202918376
s(S'[[num]]'
p6356
S'time'
p6357
S'[[adj]]'
p6358
tp6359
F0.00045599635202918376
s(S'also'
p6360
S'played'
p6361
S'of'
p6362
tp6363
F0.00045599635202918376
s(S'were'
p6364
S'transferred'
p6365
S'to'
p6366
tp6367
F0.00045599635202918376
s(S'to'
p6368
S'play'
p6369
S'until'
p6370
tp6371
F0.00045599635202918376
s(S'when'
p6372
S'served'
p6373
S'in'
p6374
tp6375
F0.00045599635202918376
s(S'later'
p6376
S'joined'
p6377
S'at'
p6378
tp6379
F0.00045599635202918376
s(S'had'
p6380
S'attended'
p6381
S'[[det]]'
p6382
tp6383
F0.00045599635202918376
s(S'to'
p6384
S'serve'
p6385
S'[[det]]'
p6386
tp6387
F0.00045599635202918376
s(S'to'
p6388
S'join'
p6389
S'[[adj]]'
p6390
tp6391
F0.00045599635202918376
s(S'then'
p6392
S'signed'
p6393
S'with'
p6394
tp6395
F0.00045599635202918376
s(S'[[det]]'
p6396
S'member'
p6397
g37
tp6398
F0.00045599635202918376
s(S'[[adj]]'
p6399
S'director'
p6400
S'in'
p6401
tp6402
F0.00045599635202918376
s(S'[[con]]'
p6403
S'moved'
p6404
S'[[con]]'
p6405
tp6406
F0.00045599635202918376
s(S'also'
p6407
S'nominated'
p6408
S'as'
p6409
tp6410
F0.00045599635202918376
s(g2582
g2583
S'politician'
p6411
tp6412
F0.0009119927040583675
s(S'made'
p6413
S'head'
p6414
S'at'
p6415
tp6416
F0.00045599635202918376
s(S'became'
p6417
S'member'
p6418
S'[[det]]'
p6419
tp6420
F0.00045599635202918376
s(g37
S'government'
p6421
S'of'
p6422
tp6423
F0.00045599635202918376
s(S'while'
p6424
S'returned'
p6425
S'to'
p6426
tp6427
F0.00045599635202918376
s(S'then'
p6428
S'served'
p6429
S'with'
p6430
tp6431
F0.00045599635202918376
s(S'was'
p6432
S'entered'
p6433
S'at'
p6434
tp6435
F0.00045599635202918376
s(g2137
g2805
S'of'
p6436
tp6437
F0.00045599635202918376
s(S'also'
p6438
S'awarded'
p6439
S'[[det]]'
p6440
tp6441
F0.00045599635202918376
s(S'been'
p6442
S'appointed'
p6443
S'at'
p6444
tp6445
F0.00045599635202918376
s(S'[[det]]'
p6446
S'place'
p6447
S'at'
p6448
tp6449
F0.00045599635202918376
s(S'later'
p6450
S'moved'
p6451
S'on'
p6452
tp6453
F0.00045599635202918376
s(S'to'
p6454
S'run'
p6455
S'as'
p6456
tp6457
F0.00045599635202918376
s(S'[[pro]]'
p6458
S'served'
p6459
S'in'
p6460
tp6461
F0.00045599635202918376
s(S'was'
p6462
S'selected'
p6463
S'with'
p6464
tp6465
F0.00045599635202918376
s(S'[[adj]]'
p6466
S'representative'
p6467
S'[[det]]'
p6468
tp6469
F0.00045599635202918376
s(S'was'
p6470
S'commissioned'
p6471
S'[[adj]]'
p6472
tp6473
F0.00045599635202918376
s(S'though'
p6474
S'continued'
p6475
S'with'
p6476
tp6477
F0.00045599635202918376
s(S'to'
p6478
S'write'
p6479
S'in'
p6480
tp6481
F0.00045599635202918376
s(S'also'
p6482
S'represented'
p6483
S'on'
p6484
tp6485
F0.00045599635202918376
s(S'later'
p6486
S'played'
p6487
S'at'
p6488
tp6489
F0.00045599635202918376
s(S'[[con]]'
p6490
S'coached'
p6491
S'[[det]]'
p6492
tp6493
F0.00045599635202918376
s(S'[[mod]]'
p6494
S'play'
p6495
S'[[det]]'
p6496
tp6497
F0.00045599635202918376
s(S'later'
p6498
S'attended'
p6499
S'now'
p6500
tp6501
F0.00045599635202918376
s(S'again'
p6502
S'appointed'
p6503
S'of'
p6504
tp6505
F0.00045599635202918376
s(S'was'
p6506
S'elected'
p6507
S'from'
p6508
tp6509
F0.00045599635202918376
s(S'was'
p6510
S'director'
p6511
S'for'
p6512
tp6513
F0.00045599635202918376
s(S'be'
p6514
S'named'
p6515
S'[[det]]'
p6516
tp6517
F0.00045599635202918376
s(S'be'
p6518
S'selected'
p6519
S'for'
p6520
tp6521
F0.00045599635202918376
s(S'also'
p6522
S'played'
p6523
S'[[num]]'
p6524
tp6525
F0.00045599635202918376
s(S'was'
p6526
S'honored'
p6527
S'at'
p6528
tp6529
F0.00045599635202918376
s(S'later'
p6530
S'coached'
p6531
S'[[con]]'
p6532
tp6533
F0.00045599635202918376
s(S'[[det]]'
p6534
S'time'
p6535
S'[[det]]'
p6536
tp6537
F0.00045599635202918376
s(S'spent'
p6538
g1954
g1955
tp6539
F0.0009119927040583675
s(S'has'
p6540
S'represented'
p6541
S'[[con]]'
p6542
tp6543
F0.00045599635202918376
s(S'was'
p6544
S'appointed'
p6545
S'where'
p6546
tp6547
F0.00045599635202918376
s(S'then'
p6548
S'returned'
p6549
S'with'
p6550
tp6551
F0.00045599635202918376
s(S'[[con]]'
p6552
S'signed'
p6553
S'by'
p6554
tp6555
F0.00045599635202918376
s(S'then'
p6556
S'left'
p6557
S'[[con]]'
p6558
tp6559
F0.00045599635202918376
s(S'[[mod]]'
p6560
S'join'
p6561
S'up'
p6562
tp6563
F0.00045599635202918376
s(S'[[det]]'
p6564
S'title'
p6565
S'by'
p6566
tp6567
F0.00045599635202918376
s(S'[[det]]'
p6568
S'returned'
p6569
S'to'
p6570
tp6571
F0.00045599635202918376
s(S'when'
p6572
S'left'
p6573
S'[[det]]'
p6574
tp6575
F0.00045599635202918376
s(g3841
g3842
S'player'
p6576
tp6577
F0.00045599635202918376
s(S'then'
p6578
S'moved'
p6579
S'[[num]]'
p6580
tp6581
F0.00045599635202918376
s(S'later'
p6582
S'transferred'
p6583
S'in'
p6584
tp6585
F0.00045599635202918376
s(S'is'
p6586
S'founder'
p6587
S'[[con]]'
p6588
tp6589
F0.00045599635202918376
s(S'been'
p6590
S'appointed'
p6591
S'to'
p6592
tp6593
F0.00045599635202918376
s(S'first'
p6594
S'played'
p6595
S'in'
p6596
tp6597
F0.00045599635202918376
s(S'then'
p6598
S'selected'
p6599
S'by'
p6600
tp6601
F0.00045599635202918376
s(S'[[det]]'
p6602
S'published'
p6603
S'by'
p6604
tp6605
F0.00045599635202918376
s(S'then'
p6606
S'served'
p6607
S'at'
p6608
tp6609
F0.00045599635202918376
s(g2836
g2577
g2578
tp6610
F0.0009119927040583675
s(S'[[con]]'
p6611
S'play'
p6612
S'for'
p6613
tp6614
F0.00045599635202918376
s(S'was'
p6615
S'honored'
p6616
S'[[det]]'
p6617
tp6618
F0.00045599635202918376
s(S'[[con]]'
p6619
S'joined'
p6620
S'of'
p6621
tp6622
F0.00045599635202918376
s(S'best'
p6623
S'known'
p6624
S'outside'
p6625
tp6626
F0.00045599635202918376
s(S'also'
p6627
S'represented'
p6628
S'to'
p6629
tp6630
F0.00045599635202918376
s(S'[[adj]]'
p6631
S'candidate'
p6632
S'at'
p6633
tp6634
F0.00045599635202918376
s(S'served'
p6635
S'[[con]]'
p6636
S'[[det]]'
p6637
tp6638
F0.00045599635202918376
s(S'been'
p6639
S'recognized'
p6640
S'as'
p6641
tp6642
F0.00045599635202918376
s(S'has'
p6643
S'founded'
p6644
S'[[det]]'
p6645
tp6646
F0.00045599635202918376
s(S'[[mod]]'
p6647
S'play'
p6648
S'from'
p6649
tp6650
F0.00045599635202918376
s(S'[[num]]'
p6651
S'member'
p6652
S'of'
p6653
tp6654
F0.00045599635202918376
s(S'had'
p6655
S'served'
p6656
S'[[det]]'
p6657
tp6658
F0.00045599635202918376
s(S'[[pro]]'
p6659
S'signed'
p6660
S'with'
p6661
tp6662
F0.00045599635202918376
s(S'then'
p6663
S'played'
p6664
S'also'
p6665
tp6666
F0.00045599635202918376
s(S'[[adj]]'
p6667
S'history'
p6668
S'of'
p6669
tp6670
F0.00045599635202918376
s(g2954
g2955
S'[[det]]'
p6671
tp6672
F0.00045599635202918376
s(S'then'
p6673
S'joined'
p6674
S'[[con]]'
p6675
tp6676
F0.00045599635202918376
s(S'was'
p6677
S'conferred'
p6678
S'by'
p6679
tp6680
F0.00045599635202918376
s(S'[[det]]'
p6681
g2787
g2788
tp6682
F0.00045599635202918376
s(S'until'
p6683
S'returned'
p6684
S'to'
p6685
tp6686
F0.00045599635202918376
s(S'is'
p6687
S'founder'
p6688
S'of'
p6689
tp6690
F0.00045599635202918376
s(S'of'
p6691
S'published'
p6692
S'by'
p6693
tp6694
F0.00045599635202918376
s(S'returned'
p6695
S'home'
p6696
S'in'
p6697
tp6698
F0.00045599635202918376
s(S'already'
p6699
S'known'
p6700
S'in'
p6701
tp6702
F0.00045599635202918376
s(S'[[det]]'
p6703
S'signed'
p6704
S'with'
p6705
tp6706
F0.00045599635202918376
s(g3035
S'born'
p6707
S'in'
p6708
tp6709
F0.00364797081623347
s(S'then'
p6710
S'appointed'
p6711
S'in'
p6712
tp6713
F0.00045599635202918376
s(S'was'
p6714
S'called'
p6715
S'in'
p6716
tp6717
F0.00045599635202918376
s(S'then'
p6718
S'selected'
p6719
S'as'
p6720
tp6721
F0.00045599635202918376
s(S'[[con]]'
p6722
S'served'
p6723
S'on'
p6724
tp6725
F0.00045599635202918376
s(S'being'
p6726
S'commissioned'
p6727
S'into'
p6728
tp6729
F0.00045599635202918376
s(S'has'
p6730
S'received'
p6731
S'[[con]]'
p6732
tp6733
F0.00045599635202918376
s(S'in'
p6734
S'[[det]]'
p6735
S'team'
p6736
tp6737
F0.00045599635202918376
s(S'[[adj]]'
p6738
S'president'
p6739
S'[[det]]'
p6740
tp6741
F0.00045599635202918376
s(S'[[num]]'
p6742
S'awarded'
p6743
S'by'
p6744
tp6745
F0.00045599635202918376
s(S'[[det]]'
p6746
S'fellow'
p6747
S'of'
p6748
tp6749
F0.00045599635202918376
s(g142
g143
S'served'
p6750
tp6751
F0.00045599635202918376
s(S'currently'
p6752
S'plays'
p6753
S'with'
p6754
tp6755
F0.00045599635202918376
s(S'been'
p6756
S'honored'
p6757
S'as'
p6758
tp6759
F0.00045599635202918376
s(g37
S'representative'
p6760
S'in'
p6761
tp6762
F0.00045599635202918376
s(S'had'
p6763
S'received'
p6764
S'in'
p6765
tp6766
F0.00045599635202918376
s(S'also'
p6767
S'represented'
p6768
S'[[con]]'
p6769
tp6770
F0.00045599635202918376
s(S'then'
p6771
S'joined'
p6772
S'on'
p6773
tp6774
F0.00045599635202918376
s(S'not'
p6775
S'return'
p6776
S'to'
p6777
tp6778
F0.00045599635202918376
s(S'became'
p6779
S'ambassador'
p6780
S'to'
p6781
tp6782
F0.00045599635202918376
s(S'then'
p6783
S'moved'
p6784
S'at'
p6785
tp6786
F0.00045599635202918376
s(S'later'
p6787
S'appointed'
p6788
S'of'
p6789
tp6790
F0.00045599635202918376
s(S'also'
p6791
S'met'
p6792
S'[[con]]'
p6793
tp6794
F0.00045599635202918376
s(S'now'
p6795
S'serves'
p6796
S'as'
p6797
tp6798
F0.00045599635202918376
s(S'[[adj]]'
p6799
S'arrived'
p6800
S'in'
p6801
tp6802
F0.00045599635202918376
s(S'is'
p6803
S'returned'
p6804
S'to'
p6805
tp6806
F0.00045599635202918376
s(S'formerly'
p6807
S'served'
p6808
S'for'
p6809
tp6810
F0.00045599635202918376
s(S'[[adj]]'
p6811
S'member'
p6812
S'[[adj]]'
p6813
tp6814
F0.00045599635202918376
s(S'[[con]]'
p6815
S'received'
p6816
S'[[prp]]'
p6817
tp6818
F0.00045599635202918376
s(S'was'
p6819
S'coached'
p6820
S'at'
p6821
tp6822
F0.00045599635202918376
s(S'later'
p6823
S'named'
p6824
S'of'
p6825
tp6826
F0.00045599635202918376
s(g6024
g3326
g3327
tp6827
F0.00045599635202918376
s(S'then'
p6828
S'coached'
p6829
S'at'
p6830
tp6831
F0.00045599635202918376
s(S'was'
p6832
S'appointed'
p6833
S'[[adj]]'
p6834
tp6835
F0.0009119927040583675
s(S'to'
p6836
S'leave'
p6837
S'for'
p6838
tp6839
F0.00045599635202918376
s(S'[[num]]'
p6840
S'represented'
p6841
S'in'
p6842
tp6843
F0.00045599635202918376
s(S'member'
p6844
g5019
g5020
tp6845
F0.0013679890560875513
s(S'never'
p6846
S'played'
p6847
S'with'
p6848
tp6849
F0.00045599635202918376
s(g37
S'government'
p6850
S'in'
p6851
tp6852
F0.00045599635202918376
s(S'spent'
p6853
g382
g383
tp6854
F0.0013679890560875513
s(S'only'
p6855
S'played'
p6856
S'for'
p6857
tp6858
F0.00045599635202918376
s(g37
S'time'
p6859
S'with'
p6860
tp6861
F0.00045599635202918376
s(S'was'
p6862
S'captain'
p6863
S'of'
p6864
tp6865
F0.00045599635202918376
s(S'member'
p6866
S'[[con]]'
p6867
S'served'
p6868
tp6869
F0.00045599635202918376
s(g5994
g5995
S'in'
p6870
tp6871
F0.0009119927040583675
s(S'since'
p6872
S'left'
p6873
S'[[det]]'
p6874
tp6875
F0.00045599635202918376
s(S'was'
p6876
S'deported'
p6877
S'from'
p6878
tp6879
F0.00045599635202918376
s(S'[[det]]'
p6880
S'team'
p6881
S'against'
p6882
tp6883
F0.00045599635202918376
s(S'[[det]]'
p6884
S'time'
p6885
S'from'
p6886
tp6887
F0.00045599635202918376
s(S'has'
p6888
S'attended'
p6889
S'[[det]]'
p6890
tp6891
F0.00045599635202918376
s(S'is'
p6892
S'serving'
p6893
S'in'
p6894
tp6895
F0.00045599635202918376
s(S'where'
p6896
S'received'
p6897
S'in'
p6898
tp6899
F0.00045599635202918376
s(S'as'
p6900
S'head'
p6901
S'of'
p6902
tp6903
F0.00045599635202918376
s(S'with'
p6904
S'joined'
p6905
S'[[det]]'
p6906
tp6907
F0.00045599635202918376
s(S'currently'
p6908
S'teaches'
p6909
S'[[con]]'
p6910
tp6911
F0.00045599635202918376
s(S'also'
p6912
S'teaches'
p6913
S'[[adj]]'
p6914
tp6915
F0.00045599635202918376
s(S'has'
p6916
S'received'
p6917
S'in'
p6918
tp6919
F0.00045599635202918376
s(S'[[det]]'
p6920
S'supporter'
p6921
S'in'
p6922
tp6923
F0.00045599635202918376
s(S'has'
p6924
S'said'
p6925
S'[[pro]]'
p6926
tp6927
F0.00045599635202918376
s(S'not'
p6928
S'selected'
p6929
S'by'
p6930
tp6931
F0.00045599635202918376
s(g2891
g2892
S'years'
p6932
tp6933
F0.00045599635202918376
s(S'[[det]]'
p6934
S'founder'
p6935
S'of'
p6936
tp6937
F0.00045599635202918376
s(S'later'
p6938
S'served'
p6939
S'to'
p6940
tp6941
F0.00045599635202918376
s(S'to'
p6942
S'return'
p6943
S'to'
p6944
tp6945
F0.00045599635202918376
s(S'when'
p6946
S'played'
p6947
S'against'
p6948
tp6949
F0.00045599635202918376
s(S'[[adj]]'
p6950
S'played'
p6951
S'against'
p6952
tp6953
F0.00045599635202918376
s(g3034
g3035
g6707
tp6954
F0.00045599635202918376
s(S'has'
p6955
S'played'
p6956
S'mainly'
p6957
tp6958
F0.00045599635202918376
s(S'being'
p6959
S'named'
p6960
S'of'
p6961
tp6962
F0.00045599635202918376
s(S'then'
p6963
S'left'
p6964
S'[[det]]'
p6965
tp6966
F0.00045599635202918376
s(S'[[det]]'
p6967
S'president'
p6968
S'of'
p6969
tp6970
F0.00045599635202918376
s(S'was'
p6971
S'transferred'
p6972
S'back'
p6973
tp6974
F0.00045599635202918376
s(S'[[adj]]'
p6975
S'appointed'
p6976
S'to'
p6977
tp6978
F0.00045599635202918376
s(S'then'
p6979
S'continued'
p6980
S'at'
p6981
tp6982
F0.00045599635202918376
s(S'to'
p6983
S'join'
p6984
S'[[det]]'
p6985
tp6986
F0.00045599635202918376
s(S'[[det]]'
p6987
S'fellow'
p6988
S'[[con]]'
p6989
tp6990
F0.00045599635202918376
s(S'for'
p6991
S'leading'
p6992
S'[[det]]'
p6993
tp6994
F0.00045599635202918376
s(S'[[mod]]'
p6995
S'play'
p6996
S'with'
p6997
tp6998
F0.00045599635202918376
s(g4670
g4571
g4572
tp6999
F0.00045599635202918376
s(S'when'
p7000
S'played'
p7001
S'[[det]]'
p7002
tp7003
F0.00045599635202918376
s(S'[[adj]]'
p7004
S'candidate'
p7005
S'of'
p7006
tp7007
F0.00045599635202918376
s(S'already'
p7008
S'played'
p7009
S'in'
p7010
tp7011
F0.00045599635202918376
s(S'be'
p7012
S'appointed'
p7013
S'at'
p7014
tp7015
F0.00045599635202918376
s(S'was'
p7016
S'captain'
p7017
S'in'
p7018
tp7019
F0.00045599635202918376
s(S'also'
p7020
S'honored'
p7021
S'at'
p7022
tp7023
F0.00045599635202918376
s(S'as'
p7024
S'member'
p7025
S'of'
p7026
tp7027
F0.00045599635202918376
s(S'nominated'
p7028
S'to'
p7029
g29
tp7030
F0.00045599635202918376
s(S'was'
p7031
S'retired'
p7032
S'from'
p7033
tp7034
F0.00045599635202918376
s(S'be'
p7035
S'returning'
p7036
S'to'
p7037
tp7038
F0.00045599635202918376
s(S'also'
p7039
S'member'
p7040
S'[[det]]'
p7041
tp7042
F0.00045599635202918376
s(S'also'
p7043
S'played'
p7044
S'as'
p7045
tp7046
F0.00045599635202918376
s(S'be'
p7047
S'elected'
p7048
S'in'
p7049
tp7050
F0.00045599635202918376
s(g5533
g5534
S'to'
p7051
tp7052
F0.0009119927040583675
s(S'then'
p7053
S'appointed'
p7054
S'for'
p7055
tp7056
F0.00045599635202918376
s(S'was'
p7057
S'appointed'
p7058
S'to'
p7059
tp7060
F0.00045599635202918376
s(S'until'
p7061
S'joined'
p7062
S'[[det]]'
p7063
tp7064
F0.00045599635202918376
s(S'also'
p7065
S'attended'
p7066
S'at'
p7067
tp7068
F0.00045599635202918376
s(S'also'
p7069
S'founded'
p7070
S'for'
p7071
tp7072
F0.00045599635202918376
s(S'later'
p7073
S'appointed'
p7074
S'[[det]]'
p7075
tp7076
F0.00045599635202918376
s(S'[[adj]]'
p7077
S'served'
p7078
S'at'
p7079
tp7080
F0.00045599635202918376
s(S'[[det]]'
p7081
S'team'
p7082
S'of'
p7083
tp7084
F0.00045599635202918376
s(S'also'
p7085
S'served'
p7086
S'[[num]]'
p7087
tp7088
F0.0013679890560875513
s(S'born'
p7089
g5993
g5994
tp7090
F0.0009119927040583675
s(S'born'
p7091
g462
g463
tp7092
F0.00045599635202918376
s(S'[[det]]'
p7093
S'play'
p7094
S'for'
p7095
tp7096
F0.00045599635202918376
s(S'[[num]]'
p7097
S'years'
p7098
S'[[num]]'
p7099
tp7100
F0.0009119927040583675
s(S'had'
p7101
S'migrated'
p7102
S'to'
p7103
tp7104
F0.00045599635202918376
s(S'[[det]]'
p7105
S'member'
p7106
S'[[adj]]'
p7107
tp7108
F0.00045599635202918376
s(S'later'
p7109
S'coached'
p7110
S'in'
p7111
tp7112
F0.00045599635202918376
s(S'[[con]]'
p7113
S'founded'
p7114
S'[[det]]'
p7115
tp7116
F0.00045599635202918376
s(S'also'
p7117
S'awarded'
p7118
S'by'
p7119
tp7120
F0.00045599635202918376
s(S'has'
p7121
S'established'
p7122
S'[[pro]]'
p7123
tp7124
F0.00045599635202918376
s(S'then'
p7125
S'received'
p7126
S'at'
p7127
tp7128
F0.00045599635202918376
s(S'holds'
p7129
S'[[adj]]'
p7130
S'citizenship'
p7131
tp7132
F0.00045599635202918376
s(S'also'
p7133
S'appointed'
p7134
S'to'
p7135
tp7136
F0.00045599635202918376
s(S'was'
p7137
S'appointed'
p7138
S'was'
p7139
tp7140
F0.00045599635202918376
s(S'to'
p7141
S'serve'
p7142
S'on'
p7143
tp7144
F0.00045599635202918376
s(S'then'
p7145
S'attended'
p7146
S'of'
p7147
tp7148
F0.00045599635202918376
s(S'[[mod]]'
p7149
S'serve'
p7150
S'[[det]]'
p7151
tp7152
F0.00045599635202918376
s(S'currently'
p7153
S'signed'
p7154
S'with'
p7155
tp7156
F0.00045599635202918376
s(S'been'
p7157
S'featured'
p7158
S'from'
p7159
tp7160
F0.00045599635202918376
s(S'been'
p7161
S'commissioned'
p7162
S'as'
p7163
tp7164
F0.00045599635202918376
s(S'[[det]]'
p7165
S'fellow'
p7166
S'in'
p7167
tp7168
F0.00045599635202918376
s(S'been'
p7169
S'selected'
p7170
S'as'
p7171
tp7172
F0.00045599635202918376
s(S'had'
p7173
S'gone'
p7174
S'back'
p7175
tp7176
F0.00045599635202918376
s(S'[[con]]'
p7177
S'joined'
p7178
S'[[adj]]'
p7179
tp7180
F0.00045599635202918376
s(S'been'
p7181
S'president'
p7182
S'[[con]]'
p7183
tp7184
F0.00045599635202918376
s(g7029
g29
g30
tp7185
F0.00045599635202918376
s(S'[[det]]'
p7186
S'instructor'
p7187
S'at'
p7188
tp7189
F0.00045599635202918376
s(S'to'
p7190
S'leave'
p7191
S'in'
p7192
tp7193
F0.00045599635202918376
s(S'have'
p7194
S'attended'
p7195
S'[[det]]'
p7196
tp7197
F0.00045599635202918376
s(S'ever'
p7198
S'play'
p7199
S'in'
p7200
tp7201
F0.00045599635202918376
s(S'member'
p7202
g3967
g3968
tp7203
F0.00045599635202918376
s(S'member'
p7204
S'of'
p7205
S'team'
p7206
tp7207
F0.0009119927040583675
s(S'then'
p7208
S'founded'
p7209
S'for'
p7210
tp7211
F0.00045599635202918376
s(S'was'
p7212
S'head'
p7213
S'to'
p7214
tp7215
F0.00045599635202918376
s(S'was'
p7216
S'called'
p7217
S'to'
p7218
tp7219
F0.00045599635202918376
s(S'been'
p7220
S'appointed'
p7221
S'for'
p7222
tp7223
F0.00045599635202918376
s(S'[[num]]'
p7224
S'joined'
p7225
S'[[det]]'
p7226
tp7227
F0.00045599635202918376
s(S'that'
p7228
S'won'
p7229
S'[[num]]'
p7230
tp7231
F0.00045599635202918376
s(S'was'
p7232
S'born'
p7233
S'moved'
p7234
tp7235
F0.00045599635202918376
s(S'later'
p7236
S'attended'
p7237
S'of'
p7238
tp7239
F0.00045599635202918376
s(g4356
g4357
g145
tp7240
F0.00045599635202918376
s(S'was'
p7241
S'member'
p7242
S'in'
p7243
tp7244
F0.00045599635202918376
s(S'[[con]]'
p7245
S'serves'
p7246
S'on'
p7247
tp7248
F0.00045599635202918376
s(g3297
g3298
S'to'
p7249
tp7250
F0.0013679890560875513
s(g517
g518
g1245
tp7251
F0.0009119927040583675
s(S'now'
p7252
S'teaches'
p7253
S'in'
p7254
tp7255
F0.00045599635202918376
s(S'played'
p7256
S'before'
p7257
S'returning'
p7258
tp7259
F0.00045599635202918376
s(S'as'
p7260
g5166
g5167
tp7261
F0.00045599635202918376
s(g964
g965
g2906
tp7262
F0.0009119927040583675
s(S'has'
p7263
S'served'
p7264
S'to'
p7265
tp7266
F0.00045599635202918376
s(S'also'
p7267
S'serves'
p7268
S'[[con]]'
p7269
tp7270
F0.00045599635202918376
s(S'was'
p7271
S'based'
p7272
S'in'
p7273
tp7274
F0.00045599635202918376
s(S'later'
p7275
S'served'
p7276
S'in'
p7277
tp7278
F0.00045599635202918376
s(S'had'
p7279
S'brought'
p7280
S'from'
p7281
tp7282
F0.00045599635202918376
s(g30
g31
g5551
tp7283
F0.00045599635202918376
s(S'first'
p7284
S'represented'
p7285
S'[[det]]'
p7286
tp7287
F0.00045599635202918376
s(g1600
g1601
S'from'
p7288
tp7289
F0.00045599635202918376
s(S'been'
p7290
S'awarded'
p7291
S'by'
p7292
tp7293
F0.00045599635202918376
s(S'[[adj]]'
p7294
S'selected'
p7295
S'for'
p7296
tp7297
F0.00045599635202918376
s(S'be'
p7298
S'appointed'
p7299
S'of'
p7300
tp7301
F0.00045599635202918376
s(S'first'
p7302
S'joined'
p7303
S'[[det]]'
p7304
tp7305
F0.00045599635202918376
s(S'played'
p7306
S'in'
p7307
S'team'
p7308
tp7309
F0.00045599635202918376
s(S'then'
p7310
S'entered'
p7311
S'[[det]]'
p7312
tp7313
F0.00045599635202918376
s(S'[[adj]]'
p7314
S'return'
p7315
S'to'
p7316
tp7317
F0.00045599635202918376
s(S'also'
p7318
S'president'
p7319
S'of'
p7320
tp7321
F0.00045599635202918376
s(S'was'
p7322
S'named'
p7323
S'as'
p7324
tp7325
F0.00045599635202918376
s(S'again'
p7326
S'worked'
p7327
S'for'
p7328
tp7329
F0.00045599635202918376
s(S'also'
p7330
S'named'
p7331
S'[[det]]'
p7332
tp7333
F0.00045599635202918376
s(S'[[det]]'
p7334
S'place'
p7335
S'in'
p7336
tp7337
F0.00045599635202918376
s(S'has'
p7338
S'served'
p7339
S'on'
p7340
tp7341
F0.00045599635202918376
s(S'first'
p7342
g1133
g1134
tp7343
F0.00045599635202918376
s(S'had'
p7344
S'met'
p7345
S'while'
p7346
tp7347
F0.00045599635202918376
s(S'[[adj]]'
p7348
S'head'
p7349
S'[[con]]'
p7350
tp7351
F0.00045599635202918376
s(S'who'
p7352
S'worked'
p7353
S'at'
p7354
tp7355
F0.00045599635202918376
s(S'was'
p7356
S'appointed'
p7357
S'before'
p7358
tp7359
F0.00045599635202918376
s(S'was'
p7360
S'transferred'
p7361
S'for'
p7362
tp7363
F0.00045599635202918376
s(S'[[det]]'
p7364
S'member'
p7365
S'has'
p7366
tp7367
F0.00045599635202918376
s(S'again'
p7368
S'named'
p7369
S'[[det]]'
p7370
tp7371
F0.00045599635202918376
s(S'also'
p7372
S'appointed'
p7373
S'[[det]]'
p7374
tp7375
F0.00045599635202918376
s(g3676
g5969
S'of'
p7376
tp7377
F0.00045599635202918376
s(S'was'
p7378
S'played'
p7379
S'for'
p7380
tp7381
F0.00045599635202918376
s(S'first'
p7382
S'came'
p7383
S'at'
p7384
tp7385
F0.00045599635202918376
s(S'once'
p7386
S'played'
p7387
S'with'
p7388
tp7389
F0.00045599635202918376
s(S'[[det]]'
p7390
S'candidate'
p7391
S'at'
p7392
tp7393
F0.00045599635202918376
s(S'[[con]]'
p7394
S'graduated'
p7395
S'at'
p7396
tp7397
F0.00045599635202918376
s(S'were'
p7398
S'signed'
p7399
S'from'
p7400
tp7401
F0.00045599635202918376
s(S'served'
p7402
g1986
g1987
tp7403
F0.001823985408116735
s(S'year'
p7404
g3354
g3355
tp7405
F0.00045599635202918376
s(S'was'
p7406
S'deported'
p7407
S'to'
p7408
tp7409
F0.00045599635202918376
s(S'also'
p7410
S'signed'
p7411
S'with'
p7412
tp7413
F0.00045599635202918376
s(S'was'
p7414
g4159
g4160
tp7415
F0.00045599635202918376
s(S'to'
p7416
S'come'
p7417
S'from'
p7418
tp7419
F0.00045599635202918376
s(S'was'
p7420
S'signed'
p7421
S'for'
p7422
tp7423
F0.00045599635202918376
s(S'played'
p7424
g6734
g6735
tp7425
F0.00045599635202918376
s(S'has'
p7426
S'received'
p7427
S'from'
p7428
tp7429
F0.00045599635202918376
s(S'was'
p7430
S'nominated'
p7431
S'of'
p7432
tp7433
F0.00045599635202918376
s(g1588
g1589
S'of'
p7434
tp7435
F0.0009119927040583675
s(S'[[adj]]'
p7436
S'study'
p7437
S'in'
p7438
tp7439
F0.00045599635202918376
s(S'then'
p7440
S'ran'
p7441
S'for'
p7442
tp7443
F0.00045599635202918376
s(S'[[adj]]'
p7444
S'minister'
p7445
S'of'
p7446
tp7447
F0.0009119927040583675
s.