(dp0
(S'later'
p1
S'wrote'
p2
S'for'
p3
tp4
F0.005
s(S'has'
p5
S'won'
p6
S'in'
p7
tp8
F0.005
s(S'also'
p9
S'wrote'
p10
S'on'
p11
tp12
F0.005
s(S'[[adj]]'
p13
S'book'
p14
S'about'
p15
tp16
F0.005
s(S'which'
p17
S'won'
p18
S'[[con]]'
p19
tp20
F0.005
s(S'on'
p21
S'[[det]]'
p22
S'drama'
p23
tp24
F0.005
s(S's'
p25
S'novel'
p26
S'with'
p27
tp28
F0.005
s(S'[[num]]'
p29
S'gt'
p30
S'[[adj]]'
p31
tp32
F0.005
s(S'[[num]]'
p33
S'won'
p34
S'[[det]]'
p35
tp36
F0.005
s(S'later'
p37
S'wrote'
p38
S'in'
p39
tp40
F0.005
s(g25
S'book'
p41
S'about'
p42
tp43
F0.005
s(S'[[con]]'
p44
S'won'
p45
S'at'
p46
tp47
F0.005
s(S'where'
p48
S'won'
p49
S'[[det]]'
p50
tp51
F0.005
s(S'[[adj]]'
p52
S'novel'
p53
S'which'
p54
tp55
F0.005
s(g25
S'book'
p56
S'at'
p57
tp58
F0.005
s(g25
S'book'
p59
S'for'
p60
tp61
F0.005
s(S'had'
p62
S'won'
p63
S'for'
p64
tp65
F0.005
s(S'that'
p66
S'won'
p67
S'at'
p68
tp69
F0.005
s(S'[[con]]'
p70
S'wrote'
p71
S'for'
p72
tp73
F0.005
s(S'as'
p74
S'won'
p75
S'[[det]]'
p76
tp77
F0.005
s(g25
S'novel'
p78
S'about'
p79
tp80
F0.005
s(S'also'
p81
S'won'
p82
S'[[det]]'
p83
tp84
F0.005
s(S'later'
p85
S'wrote'
p86
S'[[det]]'
p87
tp88
F0.005
s(S'also'
p89
S'wrote'
p90
S'of'
p91
tp92
F0.005
s(S'[[adj]]'
p93
S'film'
p94
S'with'
p95
tp96
F0.005
s(S'[[num]]'
p97
S'novel'
p98
S'[[con]]'
p99
tp100
F0.005
s(S'also'
p101
S'wrote'
p102
S'in'
p103
tp104
F0.005
s(S'[[adj]]'
p105
S'novel'
p106
S'in'
p107
tp108
F0.005
s(S'had'
p109
S'won'
p110
S'[[prp]]'
p111
tp112
F0.005
s(S'while'
p113
S'won'
p114
S'[[det]]'
p115
tp116
F0.005
s(g25
S'film'
p117
S'in'
p118
tp119
F0.005
s(S'had'
p120
S'won'
p121
S'at'
p122
tp123
F0.005
s(S'[[det]]'
p124
S'book'
p125
S'about'
p126
tp127
F0.005
s(S'has'
p128
S'won'
p129
S'[[det]]'
p130
tp131
F0.005
s(g25
S'novel'
p132
S'which'
p133
tp134
F0.005
s(S'[[con]]'
p135
S'won'
p136
S'[[prp]]'
p137
tp138
F0.005
s(S'[[det]]'
p139
S'film'
p140
S'[[con]]'
p141
tp142
F0.005
s(S'already'
p143
S'won'
p144
S'[[det]]'
p145
tp146
F0.005
s(g25
S'film'
p147
S'[[num]]'
p148
tp149
F0.005
s(g25
S'book'
p150
g25
tp151
F0.005
s(g25
S'appearance'
p152
S'as'
p153
tp154
F0.005
s(S'[[num]]'
p155
S'film'
p156
S'[[det]]'
p157
tp158
F0.005
s(S'[[adj]]'
p159
S'book'
p160
S'[[num]]'
p161
tp162
F0.005
s(g25
S'book'
p163
S'in'
p164
tp165
F0.005
s(g25
S'book'
p166
S'[[con]]'
p167
tp168
F0.005
s(S'had'
p169
S'won'
p170
S'[[det]]'
p171
tp172
F0.005
s(S'also'
p173
S'won'
p174
S'as'
p175
tp176
F0.005
s(S'had'
p177
S'won'
p178
S'[[num]]'
p179
tp180
F0.005
s(S'also'
p181
S'won'
p182
S'for'
p183
tp184
F0.005
s(S'[[pro]]'
p185
S'book'
p186
S'on'
p187
tp188
F0.005
s(g25
S'novel'
p189
S'in'
p190
tp191
F0.005
s(S'also'
p192
S'won'
p193
S'[[con]]'
p194
tp195
F0.005
s(S'after'
p196
S'won'
p197
S'[[det]]'
p198
tp199
F0.005
s(S'[[det]]'
p200
S'film'
p201
S'as'
p202
tp203
F0.005
s(S'which'
p204
S'won'
p205
S'[[pro]]'
p206
tp207
F0.005
s(S'[[adj]]'
p208
S'book'
p209
S'in'
p210
tp211
F0.005
s(S'[[adj]]'
p212
S'novel'
p213
S'to'
p214
tp215
F0.005
s(g25
S'novel'
p216
S'[[num]]'
p217
tp218
F0.005
s(S'has'
p219
S'won'
p220
S'on'
p221
tp222
F0.005
s(S'[[prp]]'
p223
S'book'
p224
S'[[con]]'
p225
tp226
F0.005
s(S'also'
p227
S'wrote'
p228
S'for'
p229
tp230
F0.005
s(S'[[adj]]'
p231
S'film'
p232
S'as'
p233
tp234
F0.005
s(S'[[adj]]'
p235
S'film'
p236
S'[[adj]]'
p237
tp238
F0.005
s(S'in'
p239
S'won'
p240
S'[[det]]'
p241
tp242
F0.005
s(S'[[num]]'
p243
S'book'
p244
S'[[con]]'
p245
tp246
F0.005
s(S'wrote'
p247
g25
S'[[con]]'
p248
tp249
F0.005
s(S'[[con]]'
p250
S'won'
p251
S'[[num]]'
p252
tp253
F0.005
s(S'have'
p254
S'won'
p255
S'[[det]]'
p256
tp257
F0.005
s(S'then'
p258
S'wrote'
p259
S'for'
p260
tp261
F0.005
s(S'where'
p262
S'won'
p263
S'[[con]]'
p264
tp265
F0.005
s(S'[[det]]'
p266
S'book'
p267
S'of'
p268
tp269
F0.005
s(g25
S'book'
p270
S'of'
p271
tp272
F0.005
s(S'[[pro]]'
p273
S'book'
p274
S'at'
p275
tp276
F0.005
s(S'[[adj]]'
p277
S'novel'
p278
S'[[num]]'
p279
tp280
F0.005
s(S'also'
p281
S'wrote'
p282
S'[[det]]'
p283
tp284
F0.005
s(S'[[adj]]'
p285
S'won'
p286
S'[[det]]'
p287
tp288
F0.005
s(S'with'
p289
S'won'
p290
S'[[det]]'
p291
tp292
F0.005
s(g25
S'won'
p293
S'[[det]]'
p294
tp295
F0.005
s(S'which'
p296
S'won'
p297
S'for'
p298
tp299
F0.005
s(S'[[adj]]'
p300
S'book'
p301
S'[[adj]]'
p302
tp303
F0.005
s(S'when'
p304
S'won'
p305
S'[[prp]]'
p306
tp307
F0.005
s(S'has'
p308
S'won'
p309
S'[[num]]'
p310
tp311
F0.005
s(S'[[adj]]'
p312
S'won'
p313
S'for'
p314
tp315
F0.005
s(S'[[adj]]'
p316
S'book'
p317
S'of'
p318
tp319
F0.005
s(S'[[con]]'
p320
S'won'
p321
S'[[con]]'
p322
tp323
F0.005
s(S'also'
p324
S'wrote'
p325
S'[[num]]'
p326
tp327
F0.005
s(S'that'
p328
S'won'
p329
S'[[num]]'
p330
tp331
F0.005
s(S'also'
p332
S'won'
p333
S'in'
p334
tp335
F0.005
s(S'[[adj]]'
p336
S'appearance'
p337
S'[[con]]'
p338
tp339
F0.005
s(S'[[adj]]'
p340
S'book'
p341
S'to'
p342
tp343
F0.005
s(S'[[det]]'
p344
S'won'
p345
S'[[det]]'
p346
tp347
F0.005
s(S'[[det]]'
p348
S'novel'
p349
S'in'
p350
tp351
F0.005
s(g25
S'novel'
p352
S'of'
p353
tp354
F0.005
s(S'also'
p355
S'won'
p356
S'[[num]]'
p357
tp358
F0.005
s(S'[[adj]]'
p359
S'film'
p360
S'[[num]]'
p361
tp362
F0.005
s(S'then'
p363
S'wrote'
p364
S'[[det]]'
p365
tp366
F0.005
s(S'[[det]]'
p367
S'book'
p368
S'on'
p369
tp370
F0.005
s(g25
S'book'
p371
S'on'
p372
tp373
F0.005
s(S'[[num]]'
p374
S'novel'
p375
S'in'
p376
tp377
F0.005
s(S'[[det]]'
p378
S'film'
p379
S'[[det]]'
p380
tp381
F0.005
s(S'won'
p382
S'in'
p383
S'[[det]]'
p384
tp385
F0.005
s(S'[[adj]]'
p386
S'novel'
p387
S'[[con]]'
p388
tp389
F0.005
s(S'again'
p390
S'won'
p391
S'[[det]]'
p392
tp393
F0.005
s(S'[[num]]'
p394
S'book'
p395
S'[[det]]'
p396
tp397
F0.005
s(S'[[det]]'
p398
S'film'
p399
S'[[adj]]'
p400
tp401
F0.005
s(g25
S'film'
p402
S'of'
p403
tp404
F0.005
s(S'has'
p405
S'won'
p406
S'with'
p407
tp408
F0.005
s(g383
g384
S'drama'
p409
tp410
F0.005
s(S'where'
p411
S'wrote'
p412
S'for'
p413
tp414
F0.005
s(S'[[adj]]'
p415
S'film'
p416
S'of'
p417
tp418
F0.005
s(S'has'
p419
S'worked'
p420
g21
tp421
F0.005
s(g25
S'book'
p422
S'to'
p423
tp424
F0.005
s(S'[[num]]'
p425
S'won'
p426
S'[[num]]'
p427
tp428
F0.005
s(S'since'
p429
S'won'
p430
S'[[det]]'
p431
tp432
F0.005
s(g25
S'book'
p433
S'[[adj]]'
p434
tp435
F0.005
s(S'[[adj]]'
p436
S'novel'
p437
S'of'
p438
tp439
F0.005
s(S'[[con]]'
p440
S'won'
p441
S'[[det]]'
p442
tp443
F0.005
s(S'[[det]]'
p444
S'appearance'
p445
S'in'
p446
tp447
F0.005
s(S'which'
p448
S'won'
p449
S'at'
p450
tp451
F0.005
s(S'when'
p452
S'won'
p453
S'[[det]]'
p454
tp455
F0.005
s(S'[[adj]]'
p456
S'appearance'
p457
S'on'
p458
tp459
F0.005
s(S'has'
p460
S'won'
p461
S'[[con]]'
p462
tp463
F0.005
s(S'later'
p464
S'won'
p465
S'[[det]]'
p466
tp467
F0.005
s(S'[[adj]]'
p468
S'film'
p469
S'[[det]]'
p470
tp471
F0.005
s(S'[[det]]'
p472
S'appearance'
p473
S'at'
p474
tp475
F0.005
s(S'later'
p476
S'won'
p477
S'for'
p478
tp479
F0.005
s(S'also'
p480
S'won'
p481
S'[[prp]]'
p482
tp483
F0.005
s(g420
g21
g22
tp484
F0.005
s(S'[[adj]]'
p485
S'film'
p486
S'after'
p487
tp488
F0.005
s(S'that'
p489
S'won'
p490
S'[[det]]'
p491
tp492
F0.005
s(S'also'
p493
S'wrote'
p494
S'as'
p495
tp496
F0.005
s(S'[[prp]]'
p497
S'appearance'
p498
S'in'
p499
tp500
F0.005
s(S'[[prp]]'
p501
S'appearance'
p502
S'on'
p503
tp504
F0.005
s(S'with'
p505
S'won'
p506
S'in'
p507
tp508
F0.005
s(g25
S'novel'
p509
S'[[adj]]'
p510
tp511
F0.005
s(S'had'
p512
S'won'
p513
S'as'
p514
tp515
F0.005
s(S'also'
p516
S'won'
p517
S'on'
p518
tp519
F0.005
s(S'[[num]]'
p520
S'film'
p521
S'[[num]]'
p522
tp523
F0.005
s(S'[[num]]'
p524
S'novel'
p525
S'of'
p526
tp527
F0.005
s(g25
S'book'
p528
S'[[num]]'
p529
tp530
F0.005
s(S'[[adj]]'
p531
S'book'
p532
S'from'
p533
tp534
F0.005
s(S'[[det]]'
p535
S'appearance'
p536
S'[[det]]'
p537
tp538
F0.005
s(S'never'
p539
S'won'
p540
S'on'
p541
tp542
F0.005
s(S'[[adj]]'
p543
S'novel'
p544
S'[[det]]'
p545
tp546
F0.005
s(g25
S'appearance'
p547
S'at'
p548
tp549
F0.005
s(S'who'
p550
S'won'
p551
S'[[det]]'
p552
tp553
F0.005
s(S'[[num]]'
p554
S'gt'
p555
S'[[num]]'
p556
tp557
F0.005
s(S'[[pro]]'
p558
S'won'
p559
S'[[det]]'
p560
tp561
F0.005
s(S'[[num]]'
p562
S'film'
p563
S'of'
p564
tp565
F0.005
s(S'[[con]]'
p566
S'wrote'
p567
S'[[det]]'
p568
tp569
F0.005
s(S'[[num]]'
p570
S'novel'
p571
S'with'
p572
tp573
F0.005
s(S'also'
p574
S'wrote'
p575
S'[[con]]'
p576
tp577
F0.005
s(S'[[prp]]'
p578
S'book'
p579
S'of'
p580
tp581
F0.005
s(g25
S'novel'
p582
S'by'
p583
tp584
F0.005
s(S'[[num]]'
p585
S'appearance'
p586
S'in'
p587
tp588
F0.005
s(g25
S'appearance'
p589
S'in'
p590
tp591
F0.005
s(S'[[adj]]'
p592
S'film'
p593
S'[[con]]'
p594
tp595
F0.005
s(S'had'
p596
S'won'
p597
S'[[con]]'
p598
tp599
F0.005
s(S'[[det]]'
p600
S'film'
p601
S'on'
p602
tp603
F0.005
s(S'never'
p604
S'won'
p605
S'[[det]]'
p606
tp607
F0.005
s(S'[[con]]'
p608
S'won'
p609
S'twice'
p610
tp611
F0.005
s(S'[[adj]]'
p612
S'appearance'
p613
S'during'
p614
tp615
F0.005
s(g25
S'film'
p616
S'[[con]]'
p617
tp618
F0.005
s(S'then'
p619
S'won'
p620
S'[[det]]'
p621
tp622
F0.005
s(S'which'
p623
S'won'
p624
S'[[det]]'
p625
tp626
F0.005
s(g25
S'novel'
p627
S'[[det]]'
p628
tp629
F0.005
s(S'has'
p630
S'won'
p631
S'for'
p632
tp633
F0.005
s(S'also'
p634
S'won'
p635
S'of'
p636
tp637
F0.005
s(g25
g248
S'wrote'
p638
tp639
F0.005
s(S'[[adj]]'
p640
S'appearance'
p641
S'in'
p642
tp643
F0.005
s(S'first'
p644
S'won'
p645
S'[[det]]'
p646
tp647
F0.005
s(g25
S'appearance'
p648
S'on'
p649
tp650
F0.005
s(S'[[num]]'
p651
S'book'
p652
S'to'
p653
tp654
F0.005
s(S'[[det]]'
p655
S'appearance'
p656
S'on'
p657
tp658
F0.005
s(S'has'
p659
S'won'
p660
S'twice'
p661
tp662
F0.005
s(S'[[adj]]'
p663
S'appearance'
p664
S'at'
p665
tp666
F0.005
s(S'[[con]]'
p667
S'won'
p668
S'for'
p669
tp670
F0.005
s(S'[[num]]'
p671
S'book'
p672
S'of'
p673
tp674
F0.005
s(S'which'
p675
S'won'
p676
S'in'
p677
tp678
F0.005
s(S'twice'
p679
S'won'
p680
S'for'
p681
tp682
F0.005
s(S'[[det]]'
p683
S'film'
p684
S'of'
p685
tp686
F0.005
s(S'[[adj]]'
p687
S'book'
p688
S'[[det]]'
p689
tp690
F0.005
s(g25
S'novel'
p691
S'[[con]]'
p692
tp693
F0.005
s(g25
S'book'
p694
S'[[det]]'
p695
tp696
F0.005
s(g25
S'film'
p697
S'[[det]]'
p698
tp699
F0.005
s(S'[[num]]'
p700
S'film'
p701
S'[[con]]'
p702
tp703
F0.005
s(S'[[adj]]'
p704
S'book'
p705
S'[[con]]'
p706
tp707
F0.005
s(S'also'
p708
S'won'
p709
S'at'
p710
tp711
F0.005
s(S'then'
p712
S'won'
p713
S'at'
p714
tp715
F0.005
s(S'[[det]]'
p716
S'film'
p717
S'to'
p718
tp719
F0.005
s(S'[[adj]]'
p720
S'book'
p721
S'for'
p722
tp723
F0.005
s(S'also'
p724
S'wrote'
p725
S'[[prp]]'
p726
tp727
F0.005
s(g25
S'appearance'
p728
S'of'
p729
tp730
F0.005
s(S'who'
p731
S'won'
p732
S'for'
p733
tp734
F0.005
s(S'[[prp]]'
p735
S'book'
p736
S'in'
p737
tp738
F0.005
s(S'[[pro]]'
p739
S'won'
p740
S'[[con]]'
p741
tp742
F0.005
s(g25
S'film'
p743
S'for'
p744
tp745
F0.005
s(S'has'
p746
S'won'
p747
S'at'
p748
tp749
F0.005
s(S'[[prp]]'
p750
S'novel'
p751
S'[[con]]'
p752
tp753
F0.005
s(S'twice'
p754
S'won'
p755
S'[[det]]'
p756
tp757
F0.005
s.