(dp0
(S'also'
p1
S'appointed'
p2
S'in'
p3
tp4
F0.0006195786864931846
s(S'become'
p5
S'manager'
p6
S'at'
p7
tp8
F0.0006195786864931846
s(S'when'
p9
S'served'
p10
S'with'
p11
tp12
F0.0006195786864931846
s(S'where'
p13
S'served'
p14
S'in'
p15
tp16
F0.0006195786864931846
s(S'[[con]]'
p17
S'worked'
p18
S'later'
p19
tp20
F0.0006195786864931846
s(S'then'
p21
S'spent'
p22
S'most'
p23
tp24
F0.0006195786864931846
s(S'has'
p25
S'taught'
p26
S'as'
p27
tp28
F0.0006195786864931846
s(S'was'
p29
S'awarded'
p30
S'in'
p31
tp32
F0.0006195786864931846
s(S'was'
p33
S'owner'
p34
S'of'
p35
tp36
F0.0006195786864931846
s(S'serve'
p37
S'as'
p38
S'[[det]]'
p39
tp40
F0.0006195786864931846
s(S'later'
p41
S'worked'
p42
S'to'
p43
tp44
F0.0006195786864931846
s(S'that'
p45
S'worked'
p46
S'with'
p47
tp48
F0.0006195786864931846
s(S'later'
p49
S'promoted'
p50
S'to'
p51
tp52
F0.0006195786864931846
s(S'later'
p53
S'join'
p54
S'[[det]]'
p55
tp56
F0.0006195786864931846
s(S'[[con]]'
p57
S'served'
p58
S'[[num]]'
p59
tp60
F0.0006195786864931846
s(S'[[adj]]'
p61
S'team'
p62
S'at'
p63
tp64
F0.0006195786864931846
s(S'is'
p65
S'taught'
p66
S'at'
p67
tp68
F0.0006195786864931846
s(S'where'
p69
S'worked'
p70
S'for'
p71
tp72
F0.0006195786864931846
s(S'[[adj]]'
p73
S'coach'
p74
S'[[con]]'
p75
tp76
F0.0006195786864931846
s(S'then'
p77
S'left'
p78
S'to'
p79
tp80
F0.0006195786864931846
s(S'been'
p81
S'awarded'
p82
S'[[num]]'
p83
tp84
F0.0006195786864931846
s(S'been'
p85
S'appointed'
p86
S'by'
p87
tp88
F0.0006195786864931846
s(S'also'
p89
S'worked'
p90
S'[[adj]]'
p91
tp92
F0.0006195786864931846
s(S'was'
p93
S'member'
p94
S'for'
p95
tp96
F0.0006195786864931846
s(S'when'
p97
S'moved'
p98
S'from'
p99
tp100
F0.0006195786864931846
s(S'is'
p101
S'visiting'
p102
S'professor'
p103
tp104
F0.0012391573729863693
s(S'where'
p105
S'taught'
p106
S'in'
p107
tp108
F0.0006195786864931846
s(S'was'
p109
S'founder'
p110
S'of'
p111
tp112
F0.0006195786864931846
s(S'then'
p113
S'joined'
p114
S'to'
p115
tp116
F0.0006195786864931846
s(S'also'
p117
S'appointed'
p118
S'[[con]]'
p119
tp120
F0.0006195786864931846
s(S'mainly'
p121
S'worked'
p122
S'under'
p123
tp124
F0.0006195786864931846
s(S'also'
p125
S'received'
p126
S'in'
p127
tp128
F0.0006195786864931846
s(S'later'
p129
S'moved'
p130
S'at'
p131
tp132
F0.0006195786864931846
s(S'[[adj]]'
p133
S'owner'
p134
S'of'
p135
tp136
F0.0006195786864931846
s(S'had'
p137
S'joined'
p138
S'from'
p139
tp140
F0.0006195786864931846
s(S'became'
p141
S'director'
p142
S'of'
p143
tp144
F0.0006195786864931846
s(S's'
p145
S'won'
p146
S'[[det]]'
p147
tp148
F0.0006195786864931846
s(S'currently'
p149
S'professor'
p150
S'at'
p151
tp152
F0.0006195786864931846
s(S'then'
p153
S'manager'
p154
S'of'
p155
tp156
F0.0006195786864931846
s(S'be'
p157
S'named'
p158
S'[[adj]]'
p159
tp160
F0.0006195786864931846
s(S'[[det]]'
p161
S'professor'
p162
S'[[con]]'
p163
tp164
F0.0006195786864931846
s(S'became'
p165
S'head'
p166
S'at'
p167
tp168
F0.0006195786864931846
s(S'then'
p169
S'moved'
p170
S'in'
p171
tp172
F0.0006195786864931846
s(S'then'
p173
S'joined'
p174
S'side'
p175
tp176
F0.0006195786864931846
s(S'then'
p177
S'founded'
p178
S'[[det]]'
p179
tp180
F0.0006195786864931846
s(S'moved'
p181
S'when'
p182
S'joined'
p183
tp184
F0.0006195786864931846
s(S'when'
p185
S'joined'
p186
S'[[det]]'
p187
tp188
F0.0006195786864931846
s(S'[[con]]'
p189
S'founder'
p190
S'of'
p191
tp192
F0.0006195786864931846
s(S'again'
p193
S'named'
p194
S'as'
p195
tp196
F0.0006195786864931846
s(S'regularly'
p197
S'[[det]]'
p198
S'has'
p199
tp200
F0.0006195786864931846
s(S'[[adj]]'
p201
S'work'
p202
S'at'
p203
tp204
F0.0006195786864931846
s(S'now'
p205
S'serves'
p206
S'at'
p207
tp208
F0.0006195786864931846
s(S'be'
p209
S'nominated'
p210
S'for'
p211
tp212
F0.0006195786864931846
s(S'[[adj]]'
p213
S'executive'
p214
S'[[con]]'
p215
tp216
F0.0006195786864931846
s(S'[[adj]]'
p217
S'host'
p218
S'for'
p219
tp220
F0.0006195786864931846
s(S'also'
p221
S'appointed'
p222
S'on'
p223
tp224
F0.0006195786864931846
s(S'when'
p225
S'won'
p226
S'[[det]]'
p227
tp228
F0.0006195786864931846
s(S'had'
p229
S'received'
p230
S'[[det]]'
p231
tp232
F0.0006195786864931846
s(S'been'
p233
S'nominated'
p234
S'in'
p235
tp236
F0.0006195786864931846
s(S'which'
p237
S'won'
p238
S'in'
p239
tp240
F0.0006195786864931846
s(S'had'
p241
S'worked'
p242
S'out'
p243
tp244
F0.0006195786864931846
s(S'[[con]]'
p245
S'served'
p246
S'when'
p247
tp248
F0.0006195786864931846
s(S'as'
p249
S'professor'
p250
S'in'
p251
tp252
F0.0006195786864931846
s(S'was'
p253
S'moved'
p254
S'to'
p255
tp256
F0.0006195786864931846
s(S'been'
p257
S'named'
p258
S'at'
p259
tp260
F0.0006195786864931846
s(S'[[det]]'
p261
S'chairman'
p262
S'[[con]]'
p263
tp264
F0.0006195786864931846
s(S'became'
p265
S'chairman'
p266
S'at'
p267
tp268
F0.0006195786864931846
s(S'wrote'
p269
S'[[det]]'
p270
S'article'
p271
tp272
F0.0024783147459727386
s(S'[[det]]'
p273
S'professor'
p274
S'[[det]]'
p275
tp276
F0.0006195786864931846
s(S'[[det]]'
p277
S'chairman'
p278
S'for'
p279
tp280
F0.0006195786864931846
s(S'later'
p281
S'appointed'
p282
S'at'
p283
tp284
F0.0006195786864931846
s(S'were'
p285
S'nominated'
p286
S'for'
p287
tp288
F0.0006195786864931846
s(S'has'
p289
S'received'
p290
S'[[det]]'
p291
tp292
F0.0006195786864931846
s(S'then'
p293
S'appointed'
p294
S'[[det]]'
p295
tp296
F0.0006195786864931846
s(S'also'
p297
S'received'
p298
S'[[con]]'
p299
tp300
F0.0006195786864931846
s(S'[[adj]]'
p301
S'member'
p302
S'as'
p303
tp304
F0.0006195786864931846
s(S'[[adj]]'
p305
S'member'
p306
S'from'
p307
tp308
F0.0006195786864931846
s(S'[[con]]'
p309
S'[[adj]]'
p310
S'professor'
p311
tp312
F0.0006195786864931846
s(S'[[det]]'
p313
S'executive'
p314
S'for'
p315
tp316
F0.0006195786864931846
s(S'was'
p317
S'nominated'
p318
S'twice'
p319
tp320
F0.0006195786864931846
s(S'had'
p321
S'joined'
p322
S'[[det]]'
p323
tp324
F0.0006195786864931846
s(S'then'
p325
S'won'
p326
S'[[det]]'
p327
tp328
F0.0006195786864931846
s(S'to'
p329
S'head'
p330
S'[[det]]'
p331
tp332
F0.0006195786864931846
s(S'[[det]]'
p333
S'professor'
p334
S'in'
p335
tp336
F0.0006195786864931846
s(S'currently'
p337
S'serves'
p338
S'on'
p339
tp340
F0.0006195786864931846
s(S'been'
p341
S'nominated'
p342
S'[[num]]'
p343
tp344
F0.0006195786864931846
s(S'in'
p345
S'[[det]]'
p346
S'category'
p347
tp348
F0.0018587360594795538
s(S'who'
p349
S'served'
p350
S'[[con]]'
p351
tp352
F0.0006195786864931846
s(S'later'
p353
S'joined'
p354
S'[[con]]'
p355
tp356
F0.0006195786864931846
s(S'won'
p357
S'[[det]]'
p358
S'award'
p359
tp360
F0.0055762081784386614
s(S'appointed'
p361
S'as'
p362
S'[[det]]'
p363
tp364
F0.0006195786864931846
s(S'again'
p365
S'moved'
p366
S'to'
p367
tp368
F0.0006195786864931846
s(S'also'
p369
S'awarded'
p370
S'of'
p371
tp372
F0.0006195786864931846
s(S'[[con]]'
p373
S'moved'
p374
S'to'
p375
tp376
F0.0006195786864931846
s(S'twice'
p377
S'won'
p378
S'[[det]]'
p379
tp380
F0.0006195786864931846
s(S'to'
p381
S'work'
p382
S'among'
p383
tp384
F0.0006195786864931846
s(S'[[num]]'
p385
S'won'
p386
S'[[det]]'
p387
tp388
F0.0006195786864931846
s(S'be'
p389
S'promoted'
p390
S'to'
p391
tp392
F0.0006195786864931846
s(S'[[det]]'
p393
S'member'
p394
S'from'
p395
tp396
F0.0006195786864931846
s(S'[[det]]'
p397
S'chairman'
p398
S'in'
p399
tp400
F0.0006195786864931846
s(S'was'
p401
S'leader'
p402
S'[[con]]'
p403
tp404
F0.0006195786864931846
s(S'later'
p405
S'worked'
p406
S'under'
p407
tp408
F0.0006195786864931846
s(S'then'
p409
S'received'
p410
S'[[prp]]'
p411
tp412
F0.0006195786864931846
s(S'on'
p413
S'[[det]]'
p414
S'board'
p415
tp416
F0.0012391573729863693
s(S'first'
p417
S'worked'
p418
S'for'
p419
tp420
F0.0006195786864931846
s(S'were'
p421
S'named'
p422
S'to'
p423
tp424
F0.0006195786864931846
s(S'have'
p425
S'worked'
p426
S'as'
p427
tp428
F0.0006195786864931846
s(S'before'
p429
S'returned'
p430
S'to'
p431
tp432
F0.0006195786864931846
s(S'then'
p433
S'moved'
p434
S'into'
p435
tp436
F0.0006195786864931846
s(S'where'
p437
S'received'
p438
S'from'
p439
tp440
F0.0006195786864931846
s(S'also'
p441
S'served'
p442
S'when'
p443
tp444
F0.0006195786864931846
s(S'twice'
p445
S'nominated'
p446
S'by'
p447
tp448
F0.0006195786864931846
s(S'have'
p449
S'served'
p450
S'in'
p451
tp452
F0.0006195786864931846
s(S'who'
p453
S'joined'
p454
S'[[det]]'
p455
tp456
F0.0006195786864931846
s(S'became'
p457
S'head'
p458
S'[[det]]'
p459
tp460
F0.0006195786864931846
s(S'[[adj]]'
p461
S'received'
p462
S'from'
p463
tp464
F0.0006195786864931846
s(S'[[adj]]'
p465
S'award'
p466
S'for'
p467
tp468
F0.0012391573729863693
s(S'career'
p469
S'where'
p470
S'worked'
p471
tp472
F0.0006195786864931846
s(S'being'
p473
S'hired'
p474
S'by'
p475
tp476
F0.0006195786864931846
s(S'become'
p477
S'director'
p478
S'of'
p479
tp480
F0.0006195786864931846
s(S'since'
p481
S'returned'
p482
S'to'
p483
tp484
F0.0006195786864931846
s(S'found'
p485
S'work'
p486
S'for'
p487
tp488
F0.0006195786864931846
s(S'was'
p489
S'nominated'
p490
S'at'
p491
tp492
F0.0006195786864931846
s(S'as'
p493
S'host'
p494
S'of'
p495
tp496
F0.0006195786864931846
s(S'since'
p497
S'left'
p498
S'[[det]]'
p499
tp500
F0.0006195786864931846
s(S'became'
p501
S'director'
p502
S'at'
p503
tp504
F0.0006195786864931846
s(S'[[det]]'
p505
S'director'
p506
S'for'
p507
tp508
F0.0006195786864931846
s(S'was'
p509
S'returned'
p510
S'by'
p511
tp512
F0.0006195786864931846
s(S'was'
p513
S'cofounder'
p514
S'of'
p515
tp516
F0.0006195786864931846
s(S'[[con]]'
p517
S'worked'
p518
S'at'
p519
tp520
F0.0006195786864931846
s(S'had'
p521
S'left'
p522
S'[[det]]'
p523
tp524
F0.0006195786864931846
s(S'done'
p525
S'work'
p526
S'for'
p527
tp528
F0.0006195786864931846
s(S'had'
p529
S'joined'
p530
S'side'
p531
tp532
F0.0006195786864931846
s(S'was'
p533
S'member'
p534
S'[[num]]'
p535
tp536
F0.0006195786864931846
s(S'[[det]]'
p537
S'host'
p538
S'of'
p539
tp540
F0.0006195786864931846
s(S'[[adj]]'
p541
S'position'
p542
S'in'
p543
tp544
F0.0006195786864931846
s(S'was'
p545
S'president'
p546
S'[[con]]'
p547
tp548
F0.0006195786864931846
s(S'also'
p549
S'received'
p550
S'[[prp]]'
p551
tp552
F0.0006195786864931846
s(S'[[det]]'
p553
S'award'
p554
S'[[con]]'
p555
tp556
F0.0006195786864931846
s(S'[[adj]]'
p557
S'book'
p558
S'on'
p559
tp560
F0.0006195786864931846
s(S'where'
p561
S'worked'
p562
S'along'
p563
tp564
F0.0006195786864931846
s(S'is'
p565
S'head'
p566
S'at'
p567
tp568
F0.0006195786864931846
s(S'was'
p569
S'hired'
p570
S'as'
p571
tp572
F0.0006195786864931846
s(S'where'
p573
S'served'
p574
S'with'
p575
tp576
F0.0006195786864931846
s(S'then'
p577
S'taught'
p578
S'[[con]]'
p579
tp580
F0.0006195786864931846
s(S'was'
p581
S'head'
p582
S'at'
p583
tp584
F0.0006195786864931846
s(S'was'
p585
S'member'
p586
S'of'
p587
tp588
F0.0006195786864931846
s(S'[[det]]'
p589
S'member'
p590
g145
tp591
F0.0006195786864931846
s(S'[[con]]'
p592
S'followed'
p593
S'[[det]]'
p594
tp595
F0.0006195786864931846
s(S'then'
p596
S'worked'
p597
S'as'
p598
tp599
F0.0006195786864931846
s(S'has'
p600
S'served'
p601
S'before'
p602
tp603
F0.0006195786864931846
s(S'then'
p604
S'promoted'
p605
S'to'
p606
tp607
F0.0006195786864931846
s(S'is'
p608
S'named'
p609
S'of'
p610
tp611
F0.0006195786864931846
s(S'was'
p612
S'head'
p613
S'[[det]]'
p614
tp615
F0.0006195786864931846
s(S'be'
p616
S'appointed'
p617
S'by'
p618
tp619
F0.0006195786864931846
s(S'which'
p620
S'received'
p621
S'[[det]]'
p622
tp623
F0.0006195786864931846
s(S'has'
p624
S'worked'
p625
S'as'
p626
tp627
F0.0006195786864931846
s(S'also'
p628
S'won'
p629
S'of'
p630
tp631
F0.0006195786864931846
s(g414
g415
S'directors'
p632
tp633
F0.0018587360594795538
s(S'later'
p634
S'received'
p635
S'[[con]]'
p636
tp637
F0.0006195786864931846
s(S'has'
p638
S'worked'
p639
S'with'
p640
tp641
F0.0006195786864931846
s(S'[[det]]'
p642
S'faculty'
p643
S'of'
p644
tp645
F0.0024783147459727386
s(S'later'
p646
S'joined'
p647
S'[[det]]'
p648
tp649
F0.0012391573729863693
s(S'[[adj]]'
p650
S'manager'
p651
S'of'
p652
tp653
F0.0006195786864931846
s(S'also'
p654
S'named'
p655
S'as'
p656
tp657
F0.0006195786864931846
s(S'also'
p658
S'served'
p659
S'to'
p660
tp661
F0.0006195786864931846
s(S'[[num]]'
p662
S'served'
p663
S'on'
p664
tp665
F0.0006195786864931846
s(S'has'
p666
S'won'
p667
S'at'
p668
tp669
F0.0006195786864931846
s(S'named'
p670
S'[[det]]'
p671
S'president'
p672
tp673
F0.0012391573729863693
s(S'not'
p674
S'named'
p675
S'in'
p676
tp677
F0.0006195786864931846
s(g199
S'appeared'
p678
S'on'
p679
tp680
F0.0006195786864931846
s(S'which'
p681
S'won'
p682
S'[[con]]'
p683
tp684
F0.0006195786864931846
s(S'[[adj]]'
p685
S'executive'
p686
S'of'
p687
tp688
F0.0006195786864931846
s(S'again'
p689
S'nominated'
p690
S'for'
p691
tp692
F0.0006195786864931846
s(S'was'
p693
S'joined'
p694
S'at'
p695
tp696
F0.0006195786864931846
s(S'[[det]]'
p697
S'director'
p698
S'[[con]]'
p699
tp700
F0.0006195786864931846
s(S'been'
p701
S'named'
p702
S'of'
p703
tp704
F0.0006195786864931846
s(S'[[adj]]'
p705
S'worked'
p706
S'at'
p707
tp708
F0.0006195786864931846
s(S'[[con]]'
p709
S'worked'
p710
S'again'
p711
tp712
F0.0006195786864931846
s(S'been'
p713
S'named'
p714
S'to'
p715
tp716
F0.0006195786864931846
s(S'again'
p717
S'named'
p718
S'in'
p719
tp720
F0.0006195786864931846
s(S'had'
p721
S'taught'
p722
S'at'
p723
tp724
F0.0012391573729863693
s(S'then'
p725
S'appointed'
p726
S'[[pro]]'
p727
tp728
F0.0006195786864931846
s(S'[[prp]]'
p729
g557
g558
tp730
F0.0018587360594795538
s(S'[[adj]]'
p731
S'team'
p732
S'with'
p733
tp734
F0.0006195786864931846
s(g358
g359
S'for'
p735
tp736
F0.0024783147459727386
s(S'had'
p737
S'appointed'
p738
S'to'
p739
tp740
F0.0006195786864931846
s(S'was'
p741
S'returned'
p742
S'[[con]]'
p743
tp744
F0.0006195786864931846
s(S'was'
p745
S'director'
p746
S'at'
p747
tp748
F0.0006195786864931846
s(S'[[adj]]'
p749
S'owner'
p750
S'[[con]]'
p751
tp752
F0.0006195786864931846
s(S'who'
p753
S'moved'
p754
S'from'
p755
tp756
F0.0006195786864931846
s(S'was'
p757
S'appointed'
p758
S'under'
p759
tp760
F0.0006195786864931846
s(S'later'
p761
S'taught'
p762
S'[[con]]'
p763
tp764
F0.0006195786864931846
s(S'also'
p765
S'serves'
p766
S'on'
p767
tp768
F0.0006195786864931846
s(S'[[det]]'
p769
S'host'
p770
S'show'
p771
tp772
F0.0006195786864931846
s(S'also'
p773
S'named'
p774
S'to'
p775
tp776
F0.0006195786864931846
s(S'was'
p777
S'nominated'
p778
S'[[num]]'
p779
tp780
F0.0006195786864931846
s(S'[[con]]'
p781
S'won'
p782
S'[[det]]'
p783
tp784
F0.0006195786864931846
s(S'to'
p785
S'coach'
p786
S'at'
p787
tp788
F0.0006195786864931846
s(S'been'
p789
S'named'
p790
S'[[con]]'
p791
tp792
F0.0006195786864931846
s(S'was'
p793
S'awarded'
p794
S'of'
p795
tp796
F0.0006195786864931846
s(S'moved'
p797
S'where'
p798
S'joined'
p799
tp800
F0.0012391573729863693
s(S'also'
p801
S'cofounder'
p802
S'of'
p803
tp804
F0.0006195786864931846
s(S'then'
p805
S'appointed'
p806
S'at'
p807
tp808
F0.0006195786864931846
s(S'was'
p809
S'manager'
p810
S'of'
p811
tp812
F0.0006195786864931846
s(S'has'
p813
S'received'
p814
S'[[adj]]'
p815
tp816
F0.0006195786864931846
s(S'also'
p817
S'received'
p818
S'at'
p819
tp820
F0.0006195786864931846
s(S'[[adj]]'
p821
S'manager'
p822
S'[[det]]'
p823
tp824
F0.0006195786864931846
s(S'was'
p825
S'manager'
p826
S'in'
p827
tp828
F0.0006195786864931846
s(S'had'
p829
S'worked'
p830
S'for'
p831
tp832
F0.0006195786864931846
s(S'[[det]]'
p833
S'[[num]]'
p834
S'award'
p835
tp836
F0.0012391573729863693
s(S'[[det]]'
p837
S'coach'
p838
S'for'
p839
tp840
F0.0006195786864931846
s(S'has'
p841
S'won'
p842
S'[[num]]'
p843
tp844
F0.0006195786864931846
s(S'to'
p845
S'had'
p846
S'taught'
p847
tp848
F0.0006195786864931846
s(S'also'
p849
S'worked'
p850
S'at'
p851
tp852
F0.0006195786864931846
s(g594
S'stage'
p853
g469
tp854
F0.0006195786864931846
s(S'[[adj]]'
p855
S'manager'
p856
S'for'
p857
tp858
F0.0006195786864931846
s(S'[[det]]'
p859
S'category'
p860
S'of'
p861
tp862
F0.0018587360594795538
s(S'named'
p863
S'president'
p864
S'for'
p865
tp866
F0.0006195786864931846
s(S'since'
p867
S'worked'
p868
S'with'
p869
tp870
F0.0006195786864931846
s(S'[[adj]]'
p871
S'work'
p872
S'in'
p873
tp874
F0.0006195786864931846
s(S'appointed'
p875
S'professor'
p876
S'at'
p877
tp878
F0.0006195786864931846
s(S'nominated'
p879
g345
g346
tp880
F0.0018587360594795538
s(S'[[adj]]'
p881
S'manager'
p882
S'with'
p883
tp884
F0.0006195786864931846
s(S'then'
p885
S'founded'
p886
S'for'
p887
tp888
F0.0006195786864931846
s(S'[[prp]]'
p889
S'coach'
p890
S'at'
p891
tp892
F0.0006195786864931846
s(S'also'
p893
S'served'
p894
S'for'
p895
tp896
F0.0006195786864931846
s(S'then'
p897
S'joined'
p898
S'of'
p899
tp900
F0.0006195786864931846
s(S'was'
p901
S'named'
p902
S'of'
p903
tp904
F0.0006195786864931846
s(S'[[num]]'
p905
S'leaders'
p906
S'of'
p907
tp908
F0.0006195786864931846
s(S'currently'
p909
S'serves'
p910
S'for'
p911
tp912
F0.0006195786864931846
s(S'also'
p913
S'won'
p914
S'[[prp]]'
p915
tp916
F0.0006195786864931846
s(S'been'
p917
S'named'
p918
S'in'
p919
tp920
F0.0006195786864931846
s(S'[[det]]'
p921
S'team'
p922
S'[[con]]'
p923
tp924
F0.0006195786864931846
s(S'recently'
p925
S'retired'
p926
S'professor'
p927
tp928
F0.0006195786864931846
s(S'is'
p929
S'cofounder'
p930
S'[[con]]'
p931
tp932
F0.0006195786864931846
s(S'was'
p933
S'promoted'
p934
S'as'
p935
tp936
F0.0006195786864931846
s(S'appointed'
p937
S'[[det]]'
p938
S'professor'
p939
tp940
F0.0006195786864931846
s(g145
S'position'
p941
S'in'
p942
tp943
F0.0006195786864931846
s(S'[[con]]'
p944
S'returned'
p945
S'at'
p946
tp947
F0.0006195786864931846
s(S'won'
p948
S'[[det]]'
p949
g465
tp950
F0.0006195786864931846
s(S'have'
p951
S'worked'
p952
S'under'
p953
tp954
F0.0006195786864931846
s(S'[[num]]'
p955
S'appointed'
p956
S'by'
p957
tp958
F0.0006195786864931846
s(S'[[con]]'
p959
S'won'
p960
S'twice'
p961
tp962
F0.0006195786864931846
s(S'which'
p963
S'won'
p964
S'[[det]]'
p965
tp966
F0.0006195786864931846
s(S'later'
p967
S'awarded'
p968
S'[[det]]'
p969
tp970
F0.0006195786864931846
s(S'[[adj]]'
p971
S'manager'
p972
S'in'
p973
tp974
F0.0006195786864931846
s(S'is'
p975
S'member'
p976
S'[[det]]'
p977
tp978
F0.0006195786864931846
s(S'now'
p979
S'serves'
p980
S'for'
p981
tp982
F0.0006195786864931846
s(S'has'
p983
S'worked'
p984
S'together'
p985
tp986
F0.0006195786864931846
s(S'then'
p987
S'joined'
p988
S'[[det]]'
p989
tp990
F0.0030978934324659233
s(S'also'
p991
S'won'
p992
S'in'
p993
tp994
F0.0006195786864931846
s(S'[[det]]'
p995
S'work'
p996
S'[[con]]'
p997
tp998
F0.0006195786864931846
s(S'[[det]]'
p999
S'award'
p1000
S'in'
p1001
tp1002
F0.0012391573729863693
s(S'later'
p1003
S'work'
p1004
S'with'
p1005
tp1006
F0.0006195786864931846
s(S'who'
p1007
S'won'
p1008
S'for'
p1009
tp1010
F0.0006195786864931846
s(S'studies'
p1011
S'in'
p1012
S'where'
p1013
tp1014
F0.0006195786864931846
s(S'had'
p1015
S'appointed'
p1016
S'as'
p1017
tp1018
F0.0006195786864931846
s(S'[[det]]'
p1019
S'[[adj]]'
p1020
S'professor'
p1021
tp1022
F0.0006195786864931846
s(S'then'
p1023
S'served'
p1024
S'as'
p1025
tp1026
F0.0006195786864931846
s(S'[[con]]'
p1027
S'president'
p1028
S'of'
p1029
tp1030
F0.0006195786864931846
s(S'become'
p1031
S'director'
p1032
S'at'
p1033
tp1034
F0.0006195786864931846
s(S'not'
p1035
S'leave'
p1036
S'[[det]]'
p1037
tp1038
F0.0006195786864931846
s(S'also'
p1039
S'founded'
p1040
S'[[det]]'
p1041
tp1042
F0.0006195786864931846
s(S'also'
p1043
S'received'
p1044
S'[[det]]'
p1045
tp1046
F0.0006195786864931846
s(S'have'
p1047
S'worked'
p1048
S'with'
p1049
tp1050
F0.0006195786864931846
s(g1012
g1013
S'worked'
p1051
tp1052
F0.0006195786864931846
s(S'[[det]]'
p1053
S'team'
p1054
S'that'
p1055
tp1056
F0.0006195786864931846
s(S'[[con]]'
p1057
S'spent'
p1058
S'[[num]]'
p1059
tp1060
F0.0006195786864931846
s(S'visiting'
p1061
S'professor'
p1062
S'at'
p1063
tp1064
F0.004337050805452293
s(S'also'
p1065
S'set'
p1066
S'up'
p1067
tp1068
F0.0006195786864931846
s(S'was'
p1069
S'recruited'
p1070
S'by'
p1071
tp1072
F0.0006195786864931846
s(S'[[adj]]'
p1073
S'team'
p1074
S'[[det]]'
p1075
tp1076
F0.0006195786864931846
s(S'has'
p1077
S'taught'
p1078
S'for'
p1079
tp1080
F0.0006195786864931846
s(S'been'
p1081
S'nominated'
p1082
S'[[det]]'
p1083
tp1084
F0.0006195786864931846
s(S'[[prp]]'
p1085
S'resignation'
p1086
S'from'
p1087
tp1088
F0.0006195786864931846
s(S'where'
p1089
S'served'
p1090
S'as'
p1091
tp1092
F0.0006195786864931846
s(S'became'
p1093
S'president'
p1094
S'of'
p1095
tp1096
F0.0006195786864931846
s(S'was'
p1097
S'hired'
p1098
S'on'
p1099
tp1100
F0.0006195786864931846
s(S'appointed'
p1101
S'professor'
p1102
S'of'
p1103
tp1104
F0.0006195786864931846
s(S'been'
p1105
S'professor'
p1106
S'at'
p1107
tp1108
F0.0006195786864931846
s(S'were'
p1109
S'named'
p1110
S'as'
p1111
tp1112
F0.0006195786864931846
s(S'had'
p1113
S'served'
p1114
S'in'
p1115
tp1116
F0.0006195786864931846
s(S'[[con]]'
p1117
S'entered'
p1118
S'[[det]]'
p1119
tp1120
F0.0006195786864931846
s(S'has'
p1121
S'won'
p1122
S'on'
p1123
tp1124
F0.0006195786864931846
s(S'was'
p1125
S'moved'
p1126
S'after'
p1127
tp1128
F0.0006195786864931846
s(g145
S'published'
p1129
g729
tp1130
F0.0006195786864931846
s(S'had'
p1131
S'retired'
p1132
S'from'
p1133
tp1134
F0.0006195786864931846
s(S'[[det]]'
p1135
S'leave'
p1136
S'from'
p1137
tp1138
F0.0006195786864931846
s(S'been'
p1139
S'professor'
p1140
S'of'
p1141
tp1142
F0.0006195786864931846
s(S'[[det]]'
p1143
S'manager'
p1144
S'[[det]]'
p1145
tp1146
F0.0006195786864931846
s(S'later'
p1147
S'hired'
p1148
S'by'
p1149
tp1150
F0.0006195786864931846
s(S'[[adj]]'
p1151
S'director'
p1152
S'[[det]]'
p1153
tp1154
F0.0006195786864931846
s(S'first'
p1155
S'taught'
p1156
S'at'
p1157
tp1158
F0.0006195786864931846
s(S'then'
p1159
S'served'
p1160
S'until'
p1161
tp1162
F0.0006195786864931846
s(S'was'
p1163
S'head'
p1164
S'of'
p1165
tp1166
F0.0006195786864931846
s(S'also'
p1167
S'taught'
p1168
S'at'
p1169
tp1170
F0.0006195786864931846
s(S'[[adj]]'
p1171
S'team'
p1172
S'[[con]]'
p1173
tp1174
F0.0006195786864931846
s(S'is'
p1175
S'president'
p1176
S'in'
p1177
tp1178
F0.0006195786864931846
s(S'[[det]]'
p1179
S'appointed'
p1180
S'[[con]]'
p1181
tp1182
F0.0006195786864931846
s(S'who'
p1183
S'worked'
p1184
S'under'
p1185
tp1186
F0.0006195786864931846
s(S'has'
p1187
S'won'
p1188
S'with'
p1189
tp1190
F0.0006195786864931846
s(S'[[det]]'
p1191
S'faculty'
p1192
S'[[det]]'
p1193
tp1194
F0.0006195786864931846
s(S'joined'
p1195
g373
g374
tp1196
F0.0012391573729863693
s(S'since'
p1197
S'won'
p1198
S'[[det]]'
p1199
tp1200
F0.0006195786864931846
s(S'has'
p1201
S'received'
p1202
S'[[num]]'
p1203
tp1204
F0.0006195786864931846
s(S'[[det]]'
p1205
S'host'
p1206
S'for'
p1207
tp1208
F0.0006195786864931846
s(S'[[det]]'
p1209
S'appointed'
p1210
S'by'
p1211
tp1212
F0.0006195786864931846
s(S'[[con]]'
p1213
S'appeared'
p1214
S'regularly'
p1215
tp1216
F0.0006195786864931846
s(S'[[con]]'
p1217
S'left'
p1218
S'to'
p1219
tp1220
F0.0006195786864931846
s(S'[[det]]'
p1221
S'professor'
p1222
S'[[num]]'
p1223
tp1224
F0.0006195786864931846
s(S'also'
p1225
S'served'
p1226
S'until'
p1227
tp1228
F0.0006195786864931846
s(S'named'
p1229
S'[[adj]]'
p1230
S'president'
p1231
tp1232
F0.0006195786864931846
s(S'then'
p1233
S'appointed'
p1234
S'[[adj]]'
p1235
tp1236
F0.0006195786864931846
s(S'has'
p1237
S'served'
p1238
S'at'
p1239
tp1240
F0.0006195786864931846
s(S'was'
p1241
S'chairman'
p1242
S'of'
p1243
tp1244
F0.0006195786864931846
s(S'first'
p1245
S'worked'
p1246
S'to'
p1247
tp1248
F0.0006195786864931846
s(S'then'
p1249
S'worked'
p1250
S'[[con]]'
p1251
tp1252
F0.0006195786864931846
s(S'who'
p1253
S'worked'
p1254
S'in'
p1255
tp1256
F0.0006195786864931846
s(S'was'
p1257
S'convicted'
p1258
S'in'
p1259
tp1260
F0.0006195786864931846
s(S'was'
p1261
S'appointed'
p1262
S'on'
p1263
tp1264
F0.0006195786864931846
s(S'is'
p1265
S'director'
p1266
S'[[con]]'
p1267
tp1268
F0.0006195786864931846
s(S'[[det]]'
p1269
S'book'
p1270
S'[[con]]'
p1271
tp1272
F0.0006195786864931846
s(S'then'
p1273
S'moved'
p1274
S'to'
p1275
tp1276
F0.0018587360594795538
s(g415
g632
S'of'
p1277
tp1278
F0.0018587360594795538
s(S'was'
p1279
S'leader'
p1280
S'of'
p1281
tp1282
F0.0006195786864931846
s(S'[[num]]'
p1283
S'worked'
p1284
S'for'
p1285
tp1286
F0.0006195786864931846
s(S'[[det]]'
p1287
S'returned'
p1288
S'to'
p1289
tp1290
F0.0006195786864931846
s(S'was'
p1291
S'coach'
p1292
S'of'
p1293
tp1294
F0.0006195786864931846
s(S'[[con]]'
p1295
S'received'
p1296
S'at'
p1297
tp1298
F0.0006195786864931846
s(S'later'
p1299
S'left'
p1300
S'for'
p1301
tp1302
F0.0006195786864931846
s(S'became'
p1303
S'professor'
p1304
S'at'
p1305
tp1306
F0.0006195786864931846
s(S'had'
p1307
S'served'
p1308
S'as'
p1309
tp1310
F0.0006195786864931846
s(S'is'
p1311
S'appointed'
p1312
S'to'
p1313
tp1314
F0.0006195786864931846
s(S'also'
p1315
S'nominated'
p1316
S'for'
p1317
tp1318
F0.0006195786864931846
s(S'that'
p1319
S'worked'
p1320
S'along'
p1321
tp1322
F0.0006195786864931846
s(S'also'
p1323
S'received'
p1324
S'from'
p1325
tp1326
F0.0006195786864931846
s(S'[[adj]]'
p1327
S'position'
p1328
S'with'
p1329
tp1330
F0.0006195786864931846
s(S'later'
p1331
S'worked'
p1332
S'at'
p1333
tp1334
F0.0006195786864931846
s(S'[[con]]'
p1335
S'appointed'
p1336
S'[[det]]'
p1337
tp1338
F0.0006195786864931846
s(S'later'
p1339
S'served'
p1340
S'at'
p1341
tp1342
F0.0006195786864931846
s(S'again'
p1343
S'joined'
p1344
S'[[det]]'
p1345
tp1346
F0.0006195786864931846
s(S'first'
p1347
S'appointed'
p1348
S'in'
p1349
tp1350
F0.0006195786864931846
s(S'later'
p1351
S'named'
p1352
S'by'
p1353
tp1354
F0.0006195786864931846
s(S'then'
p1355
S'worked'
p1356
S'for'
p1357
tp1358
F0.0006195786864931846
s(S'currently'
p1359
S'professor'
p1360
S'[[con]]'
p1361
tp1362
F0.0006195786864931846
s(S'[[prp]]'
p1363
S'position'
p1364
S'at'
p1365
tp1366
F0.0006195786864931846
s(S'[[con]]'
p1367
S'served'
p1368
S'with'
p1369
tp1370
F0.0006195786864931846
s(S'[[det]]'
p1371
S'director'
p1372
S'on'
p1373
tp1374
F0.0006195786864931846
s(S'later'
p1375
S'named'
p1376
S'[[con]]'
p1377
tp1378
F0.0006195786864931846
s(S'became'
p1379
S'director'
p1380
S'[[det]]'
p1381
tp1382
F0.0006195786864931846
s(S'part'
p1383
S'owner'
p1384
S'of'
p1385
tp1386
F0.0006195786864931846
s(S'[[det]]'
p1387
S'chairman'
p1388
S'[[det]]'
p1389
tp1390
F0.0006195786864931846
s(S'[[adj]]'
p1391
S'team'
p1392
S'of'
p1393
tp1394
F0.0006195786864931846
s(S'prevent'
p1395
S'[[det]]'
p1396
S'issue'
p1397
tp1398
F0.0006195786864931846
s(S'[[mod]]'
p1399
S'work'
p1400
S'for'
p1401
tp1402
F0.0006195786864931846
s(S'has'
p1403
S'appeared'
p1404
S'regularly'
p1405
tp1406
F0.0012391573729863693
s(S'now'
p1407
S'serves'
p1408
S'[[con]]'
p1409
tp1410
F0.0006195786864931846
s(S'was'
p1411
S'purchased'
p1412
S'by'
p1413
tp1414
F0.0006195786864931846
s(S'have'
p1415
S'served'
p1416
S'with'
p1417
tp1418
F0.0006195786864931846
s(S'[[det]]'
p1419
S'member'
p1420
S'until'
p1421
tp1422
F0.0006195786864931846
s(S'been'
p1423
S'named'
p1424
S'by'
p1425
tp1426
F0.0006195786864931846
s(S'often'
p1427
S'worked'
p1428
S'with'
p1429
tp1430
F0.0006195786864931846
s(S'[[adj]]'
p1431
S'director'
p1432
S'[[con]]'
p1433
tp1434
F0.0006195786864931846
s(S'[[adj]]'
p1435
S'executive'
p1436
S'at'
p1437
tp1438
F0.0006195786864931846
s(S'[[con]]'
p1439
S'served'
p1440
S'at'
p1441
tp1442
F0.0006195786864931846
s(S'formerly'
p1443
S'worked'
p1444
S'for'
p1445
tp1446
F0.0006195786864931846
s(S'also'
p1447
S'named'
p1448
S'for'
p1449
tp1450
F0.0006195786864931846
s(S'[[con]]'
p1451
S'director'
p1452
S'of'
p1453
tp1454
F0.0006195786864931846
s(S'[[det]]'
p1455
S'position'
p1456
S'in'
p1457
tp1458
F0.0006195786864931846
s(S'[[num]]'
p1459
S'professor'
p1460
S'of'
p1461
tp1462
F0.0006195786864931846
s(S'is'
p1463
S'member'
p1464
S'[[con]]'
p1465
tp1466
F0.0006195786864931846
s(S'[[det]]'
p1467
S'[[adj]]'
p1468
S'faculty'
p1469
tp1470
F0.0006195786864931846
s(S'[[con]]'
p1471
S'leader'
p1472
S'of'
p1473
tp1474
F0.0006195786864931846
s(S'was'
p1475
S'purchased'
p1476
S'from'
p1477
tp1478
F0.0006195786864931846
s(S'then'
p1479
S'joined'
p1480
S'[[adj]]'
p1481
tp1482
F0.0006195786864931846
s(S'to'
p1483
S'join'
p1484
S'at'
p1485
tp1486
F0.0006195786864931846
s(S'with'
p1487
S'won'
p1488
S'[[det]]'
p1489
tp1490
F0.0006195786864931846
s(S'is'
p1491
S'director'
p1492
S'[[det]]'
p1493
tp1494
F0.0006195786864931846
s(S'then'
p1495
S'worked'
p1496
S'[[adj]]'
p1497
tp1498
F0.0006195786864931846
s(S'[[adj]]'
p1499
S'team'
p1500
S'[[num]]'
p1501
tp1502
F0.0006195786864931846
s(S'[[adj]]'
p1503
S'appointed'
p1504
S'by'
p1505
tp1506
F0.0006195786864931846
s(S'also'
p1507
S'named'
p1508
S'along'
p1509
tp1510
F0.0006195786864931846
s(g145
S'tenure'
p1511
S'as'
p1512
tp1513
F0.0006195786864931846
s(S'to'
p1514
S'leave'
p1515
S'[[det]]'
p1516
tp1517
F0.0006195786864931846
s(g593
g594
g853
tp1518
F0.0006195786864931846
s(S'where'
p1519
S'entered'
p1520
S'[[det]]'
p1521
tp1522
F0.0006195786864931846
s(S'[[con]]'
p1523
S'served'
p1524
S'where'
p1525
tp1526
F0.0006195786864931846
s(S'as'
p1527
S'president'
p1528
S'of'
p1529
tp1530
F0.0006195786864931846
s(S'[[con]]'
p1531
S'served'
p1532
S'to'
p1533
tp1534
F0.0006195786864931846
s(S'when'
p1535
S'entered'
p1536
S'[[det]]'
p1537
tp1538
F0.0006195786864931846
s(S'also'
p1539
S'nominated'
p1540
S'on'
p1541
tp1542
F0.0006195786864931846
s(S'[[adj]]'
p1543
S'leaders'
p1544
S'of'
p1545
tp1546
F0.0006195786864931846
s(g145
S'named'
p1547
S'after'
p1548
tp1549
F0.0006195786864931846
s(g362
g363
S'professor'
p1550
tp1551
F0.0006195786864931846
s(g102
g103
S'of'
p1552
tp1553
F0.0012391573729863693
s(S'again'
p1554
S'served'
p1555
S'with'
p1556
tp1557
F0.0006195786864931846
s(S'had'
p1558
S'worked'
p1559
S'as'
p1560
tp1561
F0.0006195786864931846
s(S'[[con]]'
p1562
S'professor'
p1563
S'at'
p1564
tp1565
F0.0012391573729863693
s(S'then'
p1566
S'returned'
p1567
S'at'
p1568
tp1569
F0.0006195786864931846
s(S'has'
p1570
S'served'
p1571
S'twice'
p1572
tp1573
F0.0006195786864931846
s(S'was'
p1574
S'elected'
p1575
S'to'
p1576
tp1577
F0.0006195786864931846
s(S'has'
p1578
S'spent'
p1579
S'most'
p1580
tp1581
F0.0006195786864931846
s(S'was'
p1582
S'named'
p1583
S'when'
p1584
tp1585
F0.0006195786864931846
s(S'also'
p1586
S'appointed'
p1587
S'of'
p1588
tp1589
F0.0006195786864931846
s(S'also'
p1590
S'nominated'
p1591
S'[[con]]'
p1592
tp1593
F0.0006195786864931846
s(S'also'
p1594
S'named'
p1595
S'of'
p1596
tp1597
F0.0006195786864931846
s(S'which'
p1598
S'returned'
p1599
S'to'
p1600
tp1601
F0.0006195786864931846
s(S'[[con]]'
p1602
S'worked'
p1603
S'as'
p1604
tp1605
F0.0006195786864931846
s(g1013
g1051
S'with'
p1606
tp1607
F0.0018587360594795538
s(S'[[det]]'
p1608
S'pilot'
p1609
S'with'
p1610
tp1611
F0.0006195786864931846
s(S'was'
p1612
S'nominated'
p1613
S'as'
p1614
tp1615
F0.0006195786864931846
s(S'awards'
p1616
S'that'
p1617
S'gave'
p1618
tp1619
F0.0006195786864931846
s(S'had'
p1620
S'won'
p1621
S'[[con]]'
p1622
tp1623
F0.0006195786864931846
s(S'also'
p1624
S'director'
p1625
S'of'
p1626
tp1627
F0.0006195786864931846
s(S'[[con]]'
p1628
S'worked'
p1629
S'mainly'
p1630
tp1631
F0.0006195786864931846
s(S'was'
p1632
S'appointed'
p1633
S'during'
p1634
tp1635
F0.0006195786864931846
s(S'people'
p1636
S'who'
p1637
S'confirmed'
p1638
tp1639
F0.0006195786864931846
s(S'first'
p1640
S'served'
p1641
S'in'
p1642
tp1643
F0.0006195786864931846
s(S'appeared'
p1644
S'regularly'
p1645
S'with'
p1646
tp1647
F0.0006195786864931846
s(g145
S'named'
p1648
S'for'
p1649
tp1650
F0.0006195786864931846
s(S'[[det]]'
p1651
S'opportunity'
p1652
S'to'
p1653
tp1654
F0.0006195786864931846
s(S'had'
p1655
S'left'
p1656
S'for'
p1657
tp1658
F0.0006195786864931846
s(S'[[con]]'
p1659
S'won'
p1660
S'for'
p1661
tp1662
F0.0006195786864931846
s(S'is'
p1663
S'professor'
p1664
S'of'
p1665
tp1666
F0.0006195786864931846
s(S'where'
p1667
S'served'
p1668
S'to'
p1669
tp1670
F0.0006195786864931846
s(S'[[det]]'
p1671
S'award'
p1672
S'at'
p1673
tp1674
F0.0018587360594795538
s(S'also'
p1675
S'worked'
p1676
S'under'
p1677
tp1678
F0.0006195786864931846
s(S'became'
p1679
S'leader'
p1680
S'of'
p1681
tp1682
F0.0006195786864931846
s(S'then'
p1683
S'joined'
p1684
S'[[num]]'
p1685
tp1686
F0.0006195786864931846
s(S'again'
p1687
S'served'
p1688
S'under'
p1689
tp1690
F0.0006195786864931846
s(g1575
g1576
S'[[det]]'
p1691
tp1692
F0.0006195786864931846
s(S'be'
p1693
S'awarded'
p1694
S'[[det]]'
p1695
tp1696
F0.0006195786864931846
s(S'was'
p1697
S'convicted'
p1698
S'of'
p1699
tp1700
F0.0006195786864931846
s(S'to'
p1701
S'work'
p1702
S'from'
p1703
tp1704
F0.0006195786864931846
s(S'also'
p1705
S'president'
p1706
S'in'
p1707
tp1708
F0.0006195786864931846
s(S'[[det]]'
p1709
S'member'
p1710
S'which'
p1711
tp1712
F0.0006195786864931846
s(S'being'
p1713
S'appointed'
p1714
S'of'
p1715
tp1716
F0.0006195786864931846
s(S'was'
p1717
S'served'
p1718
S'as'
p1719
tp1720
F0.0006195786864931846
s(S'was'
p1721
S'hired'
p1722
S'at'
p1723
tp1724
F0.0006195786864931846
s(S'become'
p1725
S'chairman'
p1726
S'[[con]]'
p1727
tp1728
F0.0006195786864931846
s(S'then'
p1729
S'appointed'
p1730
S'to'
p1731
tp1732
F0.0006195786864931846
s(S'also'
p1733
S'nominated'
p1734
S'in'
p1735
tp1736
F0.0012391573729863693
s(S'who'
p1737
S'served'
p1738
S'in'
p1739
tp1740
F0.0006195786864931846
s(S'again'
p1741
S'appointed'
p1742
S'to'
p1743
tp1744
F0.0006195786864931846
s(S'has'
p1745
S'worked'
p1746
S'by'
p1747
tp1748
F0.0006195786864931846
s(S'[[adj]]'
p1749
S'leader'
p1750
S'for'
p1751
tp1752
F0.0006195786864931846
s(S'[[det]]'
p1753
S'work'
p1754
S'in'
p1755
tp1756
F0.0006195786864931846
s(S'[[con]]'
p1757
S'appointed'
p1758
S'[[pro]]'
p1759
tp1760
F0.0006195786864931846
s(S'before'
p1761
S'moved'
p1762
S'to'
p1763
tp1764
F0.0006195786864931846
s(S'first'
p1765
S'served'
p1766
S'[[con]]'
p1767
tp1768
F0.0006195786864931846
s(S'[[con]]'
p1769
S'won'
p1770
S'[[prp]]'
p1771
tp1772
F0.0006195786864931846
s(S'also'
p1773
S'served'
p1774
S'at'
p1775
tp1776
F0.0006195786864931846
s(S'[[adj]]'
p1777
S'president'
p1778
S'of'
p1779
tp1780
F0.0018587360594795538
s(S'later'
p1781
S'appointed'
p1782
S'by'
p1783
tp1784
F0.0006195786864931846
s(S'then'
p1785
S'moved'
p1786
S'with'
p1787
tp1788
F0.0006195786864931846
s(S'was'
p1789
S'coach'
p1790
S'for'
p1791
tp1792
F0.0006195786864931846
s(S'was'
p1793
S'born'
p1794
S'into'
p1795
tp1796
F0.0006195786864931846
s(S'[[det]]'
p1797
S'member'
p1798
S'of'
p1799
tp1800
F0.0006195786864931846
s(S'formerly'
p1801
S'served'
p1802
S'at'
p1803
tp1804
F0.0006195786864931846
s(S'visiting'
p1805
S'[[con]]'
p1806
S'visiting'
p1807
tp1808
F0.0006195786864931846
s(S'had'
p1809
S'won'
p1810
S'[[num]]'
p1811
tp1812
F0.0006195786864931846
s(S'was'
p1813
S'recruited'
p1814
S'from'
p1815
tp1816
F0.0006195786864931846
s(S'been'
p1817
S'professor'
p1818
S'in'
p1819
tp1820
F0.0006195786864931846
s(S'was'
p1821
S'director'
p1822
S'[[det]]'
p1823
tp1824
F0.0006195786864931846
s(S'had'
p1825
S'served'
p1826
S'at'
p1827
tp1828
F0.0006195786864931846
s(S'was'
p1829
S'nominated'
p1830
S'in'
p1831
tp1832
F0.0018587360594795538
s(S'also'
p1833
S'appeared'
p1834
S'regularly'
p1835
tp1836
F0.0006195786864931846
s(S'[[adj]]'
p1837
S'head'
p1838
S'of'
p1839
tp1840
F0.0006195786864931846
s(S'was'
p1841
S'named'
p1842
S'for'
p1843
tp1844
F0.0006195786864931846
s(S'become'
p1845
S'head'
p1846
S'at'
p1847
tp1848
F0.0006195786864931846
s(S'also'
p1849
S'host'
p1850
S'of'
p1851
tp1852
F0.0006195786864931846
s(S'was'
p1853
S'head'
p1854
S'[[con]]'
p1855
tp1856
F0.0006195786864931846
s(S'[[det]]'
p1857
S'manager'
p1858
S'for'
p1859
tp1860
F0.0006195786864931846
s(S'[[det]]'
p1861
S'manager'
p1862
S'with'
p1863
tp1864
F0.0006195786864931846
s(S'[[mod]]'
p1865
S'join'
p1866
S'[[det]]'
p1867
tp1868
F0.0006195786864931846
s(S'just'
p1869
S'left'
p1870
S'for'
p1871
tp1872
F0.0006195786864931846
s(S'[[det]]'
p1873
S'coach'
p1874
S'in'
p1875
tp1876
F0.0006195786864931846
s(S'[[adj]]'
p1877
S'president'
p1878
S'[[con]]'
p1879
tp1880
F0.0006195786864931846
s(S'[[pro]]'
p1881
S'joined'
p1882
S'[[det]]'
p1883
tp1884
F0.0006195786864931846
s(S'[[adj]]'
p1885
S'coach'
p1886
S'of'
p1887
tp1888
F0.0006195786864931846
s(S'also'
p1889
S'worked'
p1890
S'along'
p1891
tp1892
F0.0006195786864931846
s(S'also'
p1893
S'taught'
p1894
S'in'
p1895
tp1896
F0.0006195786864931846
s(S'also'
p1897
S'spent'
p1898
S'[[num]]'
p1899
tp1900
F0.0006195786864931846
s(S'also'
p1901
S'named'
p1902
S'in'
p1903
tp1904
F0.0006195786864931846
s(S'[[adj]]'
p1905
S'worked'
p1906
S'as'
p1907
tp1908
F0.0006195786864931846
s(S'[[con]]'
p1909
S'served'
p1910
S'under'
p1911
tp1912
F0.0006195786864931846
s(S'[[det]]'
p1913
S'host'
p1914
S'on'
p1915
tp1916
F0.0006195786864931846
s(S'was'
p1917
S'joined'
p1918
S'on'
p1919
tp1920
F0.0006195786864931846
s(S'[[num]]'
p1921
S'won'
p1922
S'[[num]]'
p1923
tp1924
F0.0006195786864931846
s(S'has'
p1925
S'won'
p1926
S'[[con]]'
p1927
tp1928
F0.0006195786864931846
s(S'also'
p1929
S'serves'
p1930
S'to'
p1931
tp1932
F0.0006195786864931846
s(S'[[prp]]'
p1933
S'stake'
p1934
S'to'
p1935
tp1936
F0.0006195786864931846
s(S'has'
p1937
S'served'
p1938
S'in'
p1939
tp1940
F0.0006195786864931846
s(S'[[con]]'
p1941
S'professor'
p1942
S'of'
p1943
tp1944
F0.0006195786864931846
s(S'has'
p1945
S'returned'
p1946
S'to'
p1947
tp1948
F0.0006195786864931846
s(S'[[det]]'
p1949
S'[[adj]]'
p1950
S'article'
p1951
tp1952
F0.0012391573729863693
s(S'[[det]]'
p1953
S'professor'
p1954
S'[[adj]]'
p1955
tp1956
F0.0006195786864931846
s(S'also'
p1957
S'promoted'
p1958
S'to'
p1959
tp1960
F0.0006195786864931846
s(S'[[con]]'
p1961
S'served'
p1962
S'as'
p1963
tp1964
F0.0006195786864931846
s(S'[[con]]'
p1965
S'head'
p1966
S'of'
p1967
tp1968
F0.0006195786864931846
s(S'later'
p1969
S'worked'
p1970
S'on'
p1971
tp1972
F0.0006195786864931846
s(S'[[det]]'
p1973
S'president'
p1974
S'[[det]]'
p1975
tp1976
F0.0006195786864931846
s(S'also'
p1977
S'taught'
p1978
S'to'
p1979
tp1980
F0.0006195786864931846
s(S'appointed'
p1981
g1019
g1020
tp1982
F0.0006195786864931846
s(S'[[con]]'
p1983
S'named'
p1984
S'[[det]]'
p1985
tp1986
F0.0006195786864931846
s(S'[[pro]]'
p1987
S'won'
p1988
S'[[det]]'
p1989
tp1990
F0.0006195786864931846
s(S'been'
p1991
g1061
g1062
tp1992
F0.0012391573729863693
s(S'also'
p1993
S'appointed'
p1994
S'[[adj]]'
p1995
tp1996
F0.0006195786864931846
s(S'was'
p1997
S'appointed'
p1998
S'when'
p1999
tp2000
F0.0006195786864931846
s(S'is'
p2001
S'named'
p2002
S'[[det]]'
p2003
tp2004
F0.0006195786864931846
s(g1653
S'continue'
p2005
S'[[prp]]'
p2006
tp2007
F0.0006195786864931846
s(S'visiting'
p2008
S'professor'
p2009
S'for'
p2010
tp2011
F0.0006195786864931846
s(S'then'
p2012
S'president'
p2013
S'[[det]]'
p2014
tp2015
F0.0006195786864931846
s(S'then'
p2016
S'joined'
p2017
S'then'
p2018
tp2019
F0.0006195786864931846
s(S'later'
p2020
S'taught'
p2021
S'at'
p2022
tp2023
F0.0006195786864931846
s(g1576
g1691
S'board'
p2024
tp2025
F0.0006195786864931846
s(S'then'
p2026
S'president'
p2027
S'of'
p2028
tp2029
F0.0006195786864931846
s(S'became'
p2030
S'coach'
p2031
S'for'
p2032
tp2033
F0.0006195786864931846
s(g270
g271
S'in'
p2034
tp2035
F0.0006195786864931846
s(S'was'
p2036
S'moved'
p2037
S'as'
p2038
tp2039
F0.0006195786864931846
s(S'currently'
p2040
S'professor'
p2041
S'of'
p2042
tp2043
F0.0006195786864931846
s(S'[[adj]]'
p2044
S'chairman'
p2045
S'at'
p2046
tp2047
F0.0006195786864931846
s(S'as'
p2048
S'moved'
p2049
S'to'
p2050
tp2051
F0.0006195786864931846
s(S'first'
p2052
S'served'
p2053
S'with'
p2054
tp2055
F0.0006195786864931846
s(S'is'
p2056
S'professor'
p2057
S'at'
p2058
tp2059
F0.0006195786864931846
s(S'[[adj]]'
p2060
S'head'
p2061
S'at'
p2062
tp2063
F0.0006195786864931846
s(S'is'
p2064
S'head'
p2065
S'[[det]]'
p2066
tp2067
F0.0006195786864931846
s(S'when'
p2068
S'won'
p2069
S'[[prp]]'
p2070
tp2071
F0.0006195786864931846
s(S'[[adj]]'
p2072
S'position'
p2073
S'as'
p2074
tp2075
F0.0006195786864931846
s(S'later'
p2076
S'left'
p2077
S'[[det]]'
p2078
tp2079
F0.0006195786864931846
s(S'to'
p2080
S'set'
p2081
S'up'
p2082
tp2083
F0.0006195786864931846
s(S'found'
p2084
S'work'
p2085
S'at'
p2086
tp2087
F0.0006195786864931846
s(S'been'
p2088
S'recruited'
p2089
S'by'
p2090
tp2091
F0.0006195786864931846
s(S'then'
p2092
S'moved'
p2093
S'up'
p2094
tp2095
F0.0006195786864931846
s(g1637
g1638
S'by'
p2096
tp2097
F0.0006195786864931846
s(S'[[con]]'
p2098
S'member'
p2099
S'of'
p2100
tp2101
F0.0006195786864931846
s(S'[[adj]]'
p2102
S'member'
p2103
S'for'
p2104
tp2105
F0.0006195786864931846
s(S'became'
p2106
S'director'
p2107
S'for'
p2108
tp2109
F0.0006195786864931846
s(S'has'
p2110
S'served'
p2111
S'for'
p2112
tp2113
F0.0006195786864931846
s(S'has'
p2114
S'won'
p2115
S'in'
p2116
tp2117
F0.0006195786864931846
s(S'been'
p2118
S'nominated'
p2119
S'twice'
p2120
tp2121
F0.0006195786864931846
s(S'was'
p2122
S'appointed'
p2123
S'[[con]]'
p2124
tp2125
F0.0006195786864931846
s(S'[[det]]'
p2126
S'served'
p2127
S'in'
p2128
tp2129
F0.0006195786864931846
s(S'[[adj]]'
p2130
S'member'
p2131
S'during'
p2132
tp2133
F0.0006195786864931846
s(S'[[num]]'
p2134
S'president'
p2135
S'of'
p2136
tp2137
F0.0006195786864931846
s(S'been'
p2138
S'appointed'
p2139
S'of'
p2140
tp2141
F0.0006195786864931846
s(S'[[det]]'
p2142
S'visiting'
p2143
S'[[adj]]'
p2144
tp2145
F0.0006195786864931846
s(S'that'
p2146
S'won'
p2147
S'at'
p2148
tp2149
F0.0006195786864931846
s(S'been'
p2150
S'nominated'
p2151
S'as'
p2152
tp2153
F0.0006195786864931846
s(S'[[mod]]'
p2154
S'work'
p2155
S'at'
p2156
tp2157
F0.0006195786864931846
s(S'then'
p2158
S'appointed'
p2159
S'[[num]]'
p2160
tp2161
F0.0006195786864931846
s(S'was'
p2162
S'member'
p2163
S'[[con]]'
p2164
tp2165
F0.0006195786864931846
s(S'was'
p2166
S'named'
p2167
S'in'
p2168
tp2169
F0.0006195786864931846
s(S'when'
p2170
S'served'
p2171
S'as'
p2172
tp2173
F0.0006195786864931846
s(S'joined'
p2174
S'[[con]]'
p2175
S'then'
p2176
tp2177
F0.0006195786864931846
s(S'while'
p2178
S'won'
p2179
S'[[det]]'
p2180
tp2181
F0.0006195786864931846
s(S'[[con]]'
p2182
S'retired'
p2183
S'from'
p2184
tp2185
F0.0006195786864931846
s(S'as'
p2186
S'director'
p2187
S'of'
p2188
tp2189
F0.0006195786864931846
s(S'then'
p2190
S'hired'
p2191
S'by'
p2192
tp2193
F0.0006195786864931846
s(S'was'
p2194
S'recruited'
p2195
S'as'
p2196
tp2197
F0.0006195786864931846
s(S'[[det]]'
p2198
S'head'
p2199
S'in'
p2200
tp2201
F0.0006195786864931846
s(S'been'
p2202
S'named'
p2203
S'as'
p2204
tp2205
F0.0006195786864931846
s(S'[[con]]'
p2206
S'served'
p2207
S'in'
p2208
tp2209
F0.0006195786864931846
s(S'to'
p2210
S'coach'
p2211
S'in'
p2212
tp2213
F0.0006195786864931846
s(S'then'
p2214
S'hired'
p2215
S'as'
p2216
tp2217
F0.0006195786864931846
s(S'[[det]]'
p2218
S'position'
p2219
S'at'
p2220
tp2221
F0.0006195786864931846
s(S'was'
p2222
S'founder'
p2223
S'[[con]]'
p2224
tp2225
F0.0006195786864931846
s(S'been'
p2226
S'appointed'
p2227
S'[[con]]'
p2228
tp2229
F0.0006195786864931846
s(g926
g927
S'emeritus'
p2230
tp2231
F0.0006195786864931846
s(S'[[adj]]'
p2232
S'agent'
p2233
S'with'
p2234
tp2235
F0.0006195786864931846
s(S'being'
p2236
S'appointed'
p2237
S'[[det]]'
p2238
tp2239
F0.0006195786864931846
s(S'was'
p2240
S'member'
p2241
S'[[det]]'
p2242
tp2243
F0.0006195786864931846
s(S'to'
p2244
S'host'
p2245
S'[[adj]]'
p2246
tp2247
F0.0006195786864931846
s(S'[[adj]]'
p2248
S'agent'
p2249
S'in'
p2250
tp2251
F0.0006195786864931846
s(S'[[det]]'
p2252
S'member'
p2253
S'[[num]]'
p2254
tp2255
F0.0006195786864931846
s(S'was'
p2256
S'appointed'
p2257
S'in'
p2258
tp2259
F0.0006195786864931846
s(S'had'
p2260
S'worked'
p2261
S'before'
p2262
tp2263
F0.0006195786864931846
s(S'later'
p2264
S'received'
p2265
S'from'
p2266
tp2267
F0.0006195786864931846
s(S'be'
p2268
S'named'
p2269
S'of'
p2270
tp2271
F0.0006195786864931846
s(S'[[det]]'
p2272
S'faculty'
p2273
S'where'
p2274
tp2275
F0.0006195786864931846
s(S'was'
p2276
S'named'
p2277
S'[[con]]'
p2278
tp2279
F0.0006195786864931846
s(S'[[adj]]'
p2280
S'founder'
p2281
S'of'
p2282
tp2283
F0.0006195786864931846
s(S'was'
p2284
S'professor'
p2285
S'of'
p2286
tp2287
F0.0006195786864931846
s(S'[[adj]]'
p2288
S'appointed'
p2289
S'as'
p2290
tp2291
F0.0006195786864931846
s(S'[[num]]'
p2292
S'served'
p2293
S'for'
p2294
tp2295
F0.0006195786864931846
s(S'was'
p2296
S'nominated'
p2297
S'for'
p2298
tp2299
F0.0012391573729863693
s(S'be'
p2300
S'named'
p2301
S'after'
p2302
tp2303
F0.0006195786864931846
s(S'[[adj]]'
p2304
S'coach'
p2305
S'[[num]]'
p2306
tp2307
F0.0006195786864931846
s(S'[[det]]'
p2308
S'served'
p2309
S'as'
p2310
tp2311
F0.0006195786864931846
s(S'became'
p2312
S'manager'
p2313
S'at'
p2314
tp2315
F0.0006195786864931846
s(S'also'
p2316
S'hired'
p2317
S'by'
p2318
tp2319
F0.0006195786864931846
s(S'is'
p2320
S'appointed'
p2321
S'at'
p2322
tp2323
F0.0006195786864931846
s(S'also'
p2324
S'appointed'
p2325
S'to'
p2326
tp2327
F0.0006195786864931846
s(S'also'
p2328
S'recruited'
p2329
S'by'
p2330
tp2331
F0.0006195786864931846
s(S'also'
p2332
S'spent'
p2333
S'part'
p2334
tp2335
F0.0006195786864931846
s(S'[[det]]'
p2336
S'member'
p2337
S'for'
p2338
tp2339
F0.0006195786864931846
s(S'be'
p2340
S'appointed'
p2341
S'as'
p2342
tp2343
F0.0006195786864931846
s(S'who'
p2344
S'served'
p2345
S'as'
p2346
tp2347
F0.0006195786864931846
s(S'was'
p2348
S'named'
p2349
S'on'
p2350
tp2351
F0.0006195786864931846
s(S'being'
p2352
S'recruited'
p2353
S'by'
p2354
tp2355
F0.0006195786864931846
s(S'[[det]]'
p2356
S'head'
p2357
S'[[det]]'
p2358
tp2359
F0.0006195786864931846
s(S'[[det]]'
p2360
S'founder'
p2361
S'[[con]]'
p2362
tp2363
F0.0006195786864931846
s(S'had'
p2364
S'received'
p2365
S'in'
p2366
tp2367
F0.0006195786864931846
s(S'first'
p2368
S'worked'
p2369
S'at'
p2370
tp2371
F0.0006195786864931846
s(S'was'
p2372
S'promoted'
p2373
S'from'
p2374
tp2375
F0.0006195786864931846
s(S'[[det]]'
p2376
S'executive'
p2377
S'at'
p2378
tp2379
F0.0006195786864931846
s(S'was'
p2380
S'president'
p2381
S'at'
p2382
tp2383
F0.0006195786864931846
s(S'was'
p2384
S'hired'
p2385
S'for'
p2386
tp2387
F0.0006195786864931846
s(S'also'
p2388
S'worked'
p2389
S'for'
p2390
tp2391
F0.0006195786864931846
s(S'later'
p2392
S'received'
p2393
S'[[det]]'
p2394
tp2395
F0.0006195786864931846
s(S'also'
p2396
S'taught'
p2397
S'[[con]]'
p2398
tp2399
F0.0006195786864931846
s(S'[[num]]'
p2400
S'served'
p2401
S'in'
p2402
tp2403
F0.0006195786864931846
s(S'[[adj]]'
p2404
S'coach'
p2405
S'at'
p2406
tp2407
F0.0006195786864931846
s(S'first'
p2408
S'appointed'
p2409
S'by'
p2410
tp2411
F0.0006195786864931846
s(S'[[con]]'
p2412
S'resigned'
p2413
S'from'
p2414
tp2415
F0.0006195786864931846
s(S'also'
p2416
S'won'
p2417
S'at'
p2418
tp2419
F0.0006195786864931846
s(S'was'
p2420
S'named'
p2421
S'along'
p2422
tp2423
F0.0006195786864931846
s(S'[[det]]'
p2424
S'executive'
p2425
S'of'
p2426
tp2427
F0.0006195786864931846
s(S'was'
p2428
S'host'
p2429
S'of'
p2430
tp2431
F0.0006195786864931846
s(S'as'
p2432
S'member'
p2433
S'of'
p2434
tp2435
F0.0006195786864931846
s(S'won'
p2436
g833
g834
tp2437
F0.0012391573729863693
s(S'[[adj]]'
p2438
S'president'
p2439
S'at'
p2440
tp2441
F0.0006195786864931846
s(S'has'
p2442
S'served'
p2443
S'where'
p2444
tp2445
F0.0006195786864931846
s(S'[[con]]'
p2446
S'served'
p2447
S'for'
p2448
tp2449
F0.0006195786864931846
s(S'[[det]]'
p2450
S'chairman'
p2451
S'of'
p2452
tp2453
F0.0006195786864931846
s(S'[[con]]'
p2454
S'won'
p2455
S'at'
p2456
tp2457
F0.0006195786864931846
s(S'is'
p2458
S'director'
p2459
S'at'
p2460
tp2461
F0.0006195786864931846
s(S'[[con]]'
p2462
S'joined'
p2463
S'in'
p2464
tp2465
F0.0006195786864931846
s(S'later'
p2466
S'worked'
p2467
S'for'
p2468
tp2469
F0.0006195786864931846
s(S'[[con]]'
p2470
S'director'
p2471
S'[[det]]'
p2472
tp2473
F0.0006195786864931846
s(S'where'
p2474
S'served'
p2475
S'under'
p2476
tp2477
F0.0006195786864931846
s(S'[[con]]'
p2478
S'awarded'
p2479
S'[[det]]'
p2480
tp2481
F0.0006195786864931846
s(S'also'
p2482
S'serves'
p2483
S'[[det]]'
p2484
tp2485
F0.0006195786864931846
s(S'again'
p2486
S'won'
p2487
S'[[det]]'
p2488
tp2489
F0.0006195786864931846
s(S'was'
p2490
S'appointed'
p2491
S'for'
p2492
tp2493
F0.0006195786864931846
s(S'[[adj]]'
p2494
S'member'
p2495
S'in'
p2496
tp2497
F0.0006195786864931846
s(S'is'
p2498
S'named'
p2499
S'by'
p2500
tp2501
F0.0006195786864931846
s(S'already'
p2502
S'won'
p2503
S'[[det]]'
p2504
tp2505
F0.0006195786864931846
s(S'formerly'
p2506
S'served'
p2507
S'in'
p2508
tp2509
F0.0006195786864931846
s(S'also'
p2510
S'member'
p2511
S'of'
p2512
tp2513
F0.0006195786864931846
s(S'first'
p2514
S'appointed'
p2515
S'to'
p2516
tp2517
F0.0006195786864931846
s(S'[[con]]'
p2518
S'owner'
p2519
S'of'
p2520
tp2521
F0.0006195786864931846
s(S'became'
p2522
S'professor'
p2523
S'[[con]]'
p2524
tp2525
F0.0006195786864931846
s(S'later'
p2526
S'entered'
p2527
S'[[det]]'
p2528
tp2529
F0.0006195786864931846
s(S'later'
p2530
S'served'
p2531
S'[[adj]]'
p2532
tp2533
F0.0006195786864931846
s(S'part'
p2534
S'owner'
p2535
S'[[det]]'
p2536
tp2537
F0.0006195786864931846
s(S'[[con]]'
p2538
S'member'
p2539
S'[[det]]'
p2540
tp2541
F0.0006195786864931846
s(S'then'
p2542
S'worked'
p2543
S'at'
p2544
tp2545
F0.0006195786864931846
s(S'was'
p2546
S'named'
p2547
S'to'
p2548
tp2549
F0.0006195786864931846
s(S'has'
p2550
S'left'
p2551
S'[[con]]'
p2552
tp2553
F0.0006195786864931846
s(S'[[det]]'
p2554
S'manager'
p2555
S'in'
p2556
tp2557
F0.0006195786864931846
s(S'[[prp]]'
p2558
S'stake'
p2559
S'in'
p2560
tp2561
F0.0006195786864931846
s(S'soon'
p2562
S'left'
p2563
S'[[det]]'
p2564
tp2565
F0.0006195786864931846
s(S'have'
p2566
S'won'
p2567
S'[[det]]'
p2568
tp2569
F0.0006195786864931846
s(S'where'
p2570
S'won'
p2571
S'[[con]]'
p2572
tp2573
F0.0006195786864931846
s(S'to'
p2574
g1395
g1396
tp2575
F0.0006195786864931846
s(S'later'
p2576
S'returned'
p2577
S'to'
p2578
tp2579
F0.0006195786864931846
s(S'[[adj]]'
p2580
S'joined'
p2581
S'[[det]]'
p2582
tp2583
F0.0006195786864931846
s(S'was'
p2584
S'president'
p2585
S'of'
p2586
tp2587
F0.0006195786864931846
s(S'[[con]]'
p2588
S'member'
p2589
S'[[con]]'
p2590
tp2591
F0.0006195786864931846
s(S'been'
p2592
S'appointed'
p2593
S'[[det]]'
p2594
tp2595
F0.0006195786864931846
s(S'is'
p2596
S'chairman'
p2597
S'[[con]]'
p2598
tp2599
F0.0006195786864931846
s(S'has'
p2600
S'worked'
p2601
S'from'
p2602
tp2603
F0.0006195786864931846
s(S'was'
p2604
S'nominated'
p2605
S'again'
p2606
tp2607
F0.0006195786864931846
s(S'been'
p2608
S'hired'
p2609
S'by'
p2610
tp2611
F0.0006195786864931846
s(S'[[pro]]'
p2612
S'served'
p2613
S'as'
p2614
tp2615
F0.0006195786864931846
s(S'[[det]]'
p2616
S'professor'
p2617
S'of'
p2618
tp2619
F0.0006195786864931846
s(S'was'
p2620
S'promoted'
p2621
S'to'
p2622
tp2623
F0.0006195786864931846
s(S'first'
p2624
S'appointed'
p2625
S'as'
p2626
tp2627
F0.0006195786864931846
s(S'later'
p2628
S'served'
p2629
S'[[con]]'
p2630
tp2631
F0.0006195786864931846
s(S'[[adj]]'
p2632
S'member'
p2633
S'[[con]]'
p2634
tp2635
F0.0006195786864931846
s(S'also'
p2636
S'nominated'
p2637
S'twice'
p2638
tp2639
F0.0006195786864931846
s(S'have'
p2640
S'served'
p2641
S'as'
p2642
tp2643
F0.0006195786864931846
s(S'later'
p2644
S'won'
p2645
S'for'
p2646
tp2647
F0.0006195786864931846
s(S'[[det]]'
p2648
S'president'
p2649
S'[[adj]]'
p2650
tp2651
F0.0006195786864931846
s(S'[[con]]'
p2652
S'chairman'
p2653
S'of'
p2654
tp2655
F0.0006195786864931846
s(S'again'
p2656
S'appointed'
p2657
S'[[det]]'
p2658
tp2659
F0.0006195786864931846
s(S'then'
p2660
S'coach'
p2661
S'of'
p2662
tp2663
F0.0006195786864931846
s(S'was'
p2664
S'born'
p2665
S'[[con]]'
p2666
tp2667
F0.0006195786864931846
s(S'later'
p2668
S'served'
p2669
S'for'
p2670
tp2671
F0.0006195786864931846
s(S'be'
p2672
S'returned'
p2673
S'to'
p2674
tp2675
F0.0006195786864931846
s(S'later'
p2676
S'named'
p2677
S'[[det]]'
p2678
tp2679
F0.0006195786864931846
s(S'was'
p2680
S'chairman'
p2681
S'on'
p2682
tp2683
F0.0006195786864931846
s(g1617
g1618
S'[[pro]]'
p2684
tp2685
F0.0006195786864931846
s(S'has'
p2686
S'worked'
p2687
S'[[det]]'
p2688
tp2689
F0.0006195786864931846
s(S'[[adj]]'
p2690
S'appointed'
p2691
S'to'
p2692
tp2693
F0.0006195786864931846
s(S'had'
p2694
S'appointed'
p2695
S'[[det]]'
p2696
tp2697
F0.0006195786864931846
s(S'was'
p2698
S'appointed'
p2699
S'of'
p2700
tp2701
F0.0006195786864931846
s(S'[[adj]]'
p2702
S'pilot'
p2703
S'for'
p2704
tp2705
F0.0006195786864931846
s(S'has'
p2706
S'won'
p2707
S'twice'
p2708
tp2709
F0.0006195786864931846
s(S'currently'
p2710
S'serves'
p2711
S'as'
p2712
tp2713
F0.0006195786864931846
s(S'also'
p2714
S'served'
p2715
S'on'
p2716
tp2717
F0.0006195786864931846
s(S'[[adj]]'
p2718
S'director'
p2719
S'[[num]]'
p2720
tp2721
F0.0006195786864931846
s(S'become'
p2722
S'leader'
p2723
S'of'
p2724
tp2725
F0.0006195786864931846
s(S'also'
p2726
S'serves'
p2727
S'in'
p2728
tp2729
F0.0006195786864931846
s(S'also'
p2730
S'nominated'
p2731
S'[[det]]'
p2732
tp2733
F0.0006195786864931846
s(S'appointed'
p2734
S'[[adj]]'
p2735
S'professor'
p2736
tp2737
F0.0012391573729863693
s(S'[[det]]'
p2738
S'leader'
p2739
S'at'
p2740
tp2741
F0.0006195786864931846
s(S'later'
p2742
S'hired'
p2743
S'at'
p2744
tp2745
F0.0006195786864931846
s(S'was'
p2746
S'head'
p2747
S'for'
p2748
tp2749
F0.0006195786864931846
s(S'became'
p2750
S'president'
p2751
S'at'
p2752
tp2753
F0.0006195786864931846
s(S'[[adj]]'
p2754
S'head'
p2755
S'[[det]]'
p2756
tp2757
F0.0006195786864931846
s(S'[[mod]]'
p2758
S'leave'
p2759
S'for'
p2760
tp2761
F0.0006195786864931846
s(S'then'
p2762
S'returned'
p2763
S'where'
p2764
tp2765
F0.0006195786864931846
s(S'[[mod]]'
p2766
S'join'
p2767
S'[[adj]]'
p2768
tp2769
F0.0006195786864931846
s(S'to'
p2770
S'host'
p2771
S'[[con]]'
p2772
tp2773
F0.0006195786864931846
s(S'[[det]]'
p2774
S'member'
p2775
S'at'
p2776
tp2777
F0.0006195786864931846
s(S'published'
p2778
g1269
g1270
tp2779
F0.0012391573729863693
s(S'also'
p2780
S'received'
p2781
S'[[num]]'
p2782
tp2783
F0.0006195786864931846
s(S'while'
p2784
S'moved'
p2785
S'to'
p2786
tp2787
F0.0006195786864931846
s(S'was'
p2788
S'joined'
p2789
S'in'
p2790
tp2791
F0.0006195786864931846
s(S'was'
p2792
S'named'
p2793
S'at'
p2794
tp2795
F0.0006195786864931846
s(S'[[det]]'
p2796
S'retired'
p2797
S'in'
p2798
tp2799
F0.0006195786864931846
s(S'is'
p2800
S'director'
p2801
S'of'
p2802
tp2803
F0.0006195786864931846
s(S'also'
p2804
S'chairman'
p2805
S'[[det]]'
p2806
tp2807
F0.0006195786864931846
s(S'[[mod]]'
p2808
S'leave'
p2809
S'[[det]]'
p2810
tp2811
F0.0006195786864931846
s(S'[[adj]]'
p2812
S'member'
p2813
S'[[det]]'
p2814
tp2815
F0.0006195786864931846
s(S'[[det]]'
p2816
S'professor'
p2817
S'for'
p2818
tp2819
F0.0006195786864931846
s(S'instead'
p2820
S'appointed'
p2821
S'[[pro]]'
p2822
tp2823
F0.0006195786864931846
s(S'[[det]]'
p2824
S'coach'
p2825
S'with'
p2826
tp2827
F0.0006195786864931846
s(S'[[det]]'
p2828
S'moved'
p2829
S'to'
p2830
tp2831
F0.0006195786864931846
s(S'been'
p2832
S'nominated'
p2833
S'on'
p2834
tp2835
F0.0006195786864931846
s(S'then'
p2836
S'worked'
p2837
S'before'
p2838
tp2839
F0.0006195786864931846
s(S'currently'
p2840
S'serves'
p2841
S'to'
p2842
tp2843
F0.0006195786864931846
s(S'[[num]]'
p2844
S'worked'
p2845
S'with'
p2846
tp2847
F0.0006195786864931846
s(S'[[adj]]'
p2848
S'executive'
p2849
S'in'
p2850
tp2851
F0.0006195786864931846
s(S'[[con]]'
p2852
S'joined'
p2853
S'[[det]]'
p2854
tp2855
F0.0018587360594795538
s(S'[[det]]'
p2856
S'faculty'
p2857
S'[[con]]'
p2858
tp2859
F0.0006195786864931846
s(S'[[con]]'
p2860
S'promoted'
p2861
S'to'
p2862
tp2863
F0.0006195786864931846
s(S'[[pro]]'
p2864
S'worked'
p2865
S'with'
p2866
tp2867
F0.0006195786864931846
s(S'while'
p2868
S'served'
p2869
S'as'
p2870
tp2871
F0.0006195786864931846
s(S'after'
p2872
S'won'
p2873
S'[[det]]'
p2874
tp2875
F0.0006195786864931846
s(S'also'
p2876
S'taught'
p2877
S'[[det]]'
p2878
tp2879
F0.0006195786864931846
s(S'[[num]]'
p2880
S'founder'
p2881
S'of'
p2882
tp2883
F0.0006195786864931846
s(S'has'
p2884
S'worked'
p2885
S'among'
p2886
tp2887
F0.0006195786864931846
s(S'later'
p2888
S'named'
p2889
S'[[pro]]'
p2890
tp2891
F0.0006195786864931846
s(S'[[adj]]'
p2892
S'professor'
p2893
S'for'
p2894
tp2895
F0.0006195786864931846
s(g145
S'team'
p2896
S'[[det]]'
p2897
tp2898
F0.0006195786864931846
s(S'also'
p2899
S'nominated'
p2900
S'[[num]]'
p2901
tp2902
F0.0006195786864931846
s(S'[[det]]'
p2903
S'award'
p2904
S'as'
p2905
tp2906
F0.0006195786864931846
s(g1396
g1397
S'[[prp]]'
p2907
tp2908
F0.0006195786864931846
s(S'[[con]]'
p2909
S'received'
p2910
S'[[det]]'
p2911
tp2912
F0.0006195786864931846
s(S'subsequently'
p2913
S'served'
p2914
S'as'
p2915
tp2916
F0.0006195786864931846
s(S'as'
p2917
S'chairman'
p2918
S'of'
p2919
tp2920
F0.0006195786864931846
s(S'[[adj]]'
p2921
S'served'
p2922
S'on'
p2923
tp2924
F0.0006195786864931846
s(S'[[num]]'
p2925
S'served'
p2926
S'as'
p2927
tp2928
F0.0006195786864931846
s(S'[[adj]]'
p2929
S'president'
p2930
S'[[num]]'
p2931
tp2932
F0.0006195786864931846
s(S'then'
p2933
S'worked'
p2934
S'to'
p2935
tp2936
F0.0006195786864931846
s(S'also'
p2937
S'served'
p2938
S'with'
p2939
tp2940
F0.0006195786864931846
s(S'was'
p2941
S'awarded'
p2942
S'during'
p2943
tp2944
F0.0006195786864931846
s(S'twice'
p2945
S'nominated'
p2946
S'for'
p2947
tp2948
F0.0006195786864931846
s(S'later'
p2949
S'received'
p2950
S'in'
p2951
tp2952
F0.0006195786864931846
s(S'became'
p2953
S'chairman'
p2954
S'[[det]]'
p2955
tp2956
F0.0006195786864931846
s(S'as'
p2957
S'leader'
p2958
S'of'
p2959
tp2960
F0.0006195786864931846
s(S'[[det]]'
p2961
S'received'
p2962
S'from'
p2963
tp2964
F0.0006195786864931846
s(S'then'
p2965
S'served'
p2966
S'before'
p2967
tp2968
F0.0006195786864931846
s(S'[[con]]'
p2969
S'professor'
p2970
S'in'
p2971
tp2972
F0.0006195786864931846
s(S'was'
p2973
S'chairman'
p2974
S'[[det]]'
p2975
tp2976
F0.0006195786864931846
s(S'while'
p2977
S'joined'
p2978
S'[[det]]'
p2979
tp2980
F0.0006195786864931846
s(S'also'
p2981
S'served'
p2982
S'[[det]]'
p2983
tp2984
F0.0006195786864931846
s(S'then'
p2985
S'returned'
p2986
S'in'
p2987
tp2988
F0.0006195786864931846
s(S'also'
p2989
S'serves'
p2990
S'[[num]]'
p2991
tp2992
F0.0006195786864931846
s(S'then'
p2993
S'moved'
p2994
S'for'
p2995
tp2996
F0.0006195786864931846
s(S'had'
p2997
S'won'
p2998
S'as'
p2999
tp3000
F0.0006195786864931846
s(S'also'
p3001
S'served'
p3002
S'as'
p3003
tp3004
F0.0006195786864931846
s(S'was'
p3005
S'appointed'
p3006
S'first'
p3007
tp3008
F0.0006195786864931846
s(S'then'
p3009
S'received'
p3010
S'from'
p3011
tp3012
F0.0006195786864931846
s(S'[[det]]'
p3013
S'awarded'
p3014
S'for'
p3015
tp3016
F0.0006195786864931846
s(S'as'
p3017
S'[[adj]]'
p3018
S'professor'
p3019
tp3020
F0.0006195786864931846
s(g927
g2230
S'prior'
p3021
tp3022
F0.0006195786864931846
s(S'became'
p3023
S'coach'
p3024
S'at'
p3025
tp3026
F0.0006195786864931846
s(S'was'
p3027
S'left'
p3028
S'out'
p3029
tp3030
F0.0006195786864931846
s(S'first'
p3031
S'worked'
p3032
S'with'
p3033
tp3034
F0.0006195786864931846
s(S'then'
p3035
S'served'
p3036
S'to'
p3037
tp3038
F0.0006195786864931846
s(S'was'
p3039
S'born'
p3040
S'from'
p3041
tp3042
F0.0006195786864931846
s(S'[[adj]]'
p3043
S'coach'
p3044
S'in'
p3045
tp3046
F0.0006195786864931846
s(S'[[det]]'
p3047
S'manager'
p3048
S'of'
p3049
tp3050
F0.0006195786864931846
s(S'[[mod]]'
p3051
S'leave'
p3052
S'[[con]]'
p3053
tp3054
F0.0006195786864931846
s(S'[[num]]'
p3055
S'award'
p3056
S'to'
p3057
tp3058
F0.0006195786864931846
s(S'then'
p3059
S'moved'
p3060
S'[[con]]'
p3061
tp3062
F0.0018587360594795538
s(S'later'
p3063
S'moved'
p3064
S'with'
p3065
tp3066
F0.0006195786864931846
s(S'[[adj]]'
p3067
S'coach'
p3068
S'with'
p3069
tp3070
F0.0006195786864931846
s(S'been'
p3071
S'nominated'
p3072
S'for'
p3073
tp3074
F0.0012391573729863693
s(S'soon'
p3075
S'moved'
p3076
S'on'
p3077
tp3078
F0.0006195786864931846
s(S'[[con]]'
p3079
S'moved'
p3080
S'on'
p3081
tp3082
F0.0012391573729863693
s(S'then'
p3083
S'served'
p3084
S'on'
p3085
tp3086
F0.0006195786864931846
s(S'later'
p3087
S'worked'
p3088
S'with'
p3089
tp3090
F0.0006195786864931846
s(S'[[con]]'
p3091
S'professor'
p3092
S'[[det]]'
p3093
tp3094
F0.0006195786864931846
s(g2901
g1636
g1637
tp3095
F0.0006195786864931846
s(S'was'
p3096
S'professor'
p3097
S'[[con]]'
p3098
tp3099
F0.0006195786864931846
s(g2900
g2901
g1636
tp3100
F0.0006195786864931846
s(S'[[pro]]'
p3101
S'won'
p3102
S'[[con]]'
p3103
tp3104
F0.0006195786864931846
s(S'[[adj]]'
p3105
S'work'
p3106
S'as'
p3107
tp3108
F0.0006195786864931846
s(S'then'
p3109
S'worked'
p3110
S'where'
p3111
tp3112
F0.0006195786864931846
s(S'later'
p3113
S'served'
p3114
S'from'
p3115
tp3116
F0.0006195786864931846
s(S'become'
p3117
S'chairman'
p3118
S'of'
p3119
tp3120
F0.0006195786864931846
s(S'been'
p3121
S'president'
p3122
S'of'
p3123
tp3124
F0.0006195786864931846
s(S'then'
p3125
S'returned'
p3126
S'for'
p3127
tp3128
F0.0006195786864931846
s(S'also'
p3129
S'taught'
p3130
S'as'
p3131
tp3132
F0.0006195786864931846
s(S'[[adj]]'
p3133
S'coach'
p3134
S'[[det]]'
p3135
tp3136
F0.0006195786864931846
s(S'wrote'
p3137
g1949
g1950
tp3138
F0.0012391573729863693
s(S'become'
p3139
S'chairman'
p3140
S'to'
p3141
tp3142
F0.0006195786864931846
s(S'[[con]]'
p3143
S'joined'
p3144
S'from'
p3145
tp3146
F0.0006195786864931846
s(S'was'
p3147
S'director'
p3148
S'of'
p3149
tp3150
F0.0006195786864931846
s(S'to'
p3151
S'coach'
p3152
S'[[det]]'
p3153
tp3154
F0.0006195786864931846
s(S'then'
p3155
S'taught'
p3156
S'at'
p3157
tp3158
F0.0006195786864931846
s(S'where'
p3159
S'worked'
p3160
S'as'
p3161
tp3162
F0.0006195786864931846
s(g145
S'worked'
p3163
S'as'
p3164
tp3165
F0.0006195786864931846
s(S'visiting'
p3166
S'professor'
p3167
S'[[det]]'
p3168
tp3169
F0.0006195786864931846
s(S'when'
p3170
S'retired'
p3171
S'from'
p3172
tp3173
F0.0006195786864931846
s(S'[[adj]]'
p3174
S'coach'
p3175
S'for'
p3176
tp3177
F0.0006195786864931846
s(S'until'
p3178
S'retired'
p3179
S'from'
p3180
tp3181
F0.0006195786864931846
s(g145
S'worked'
p3182
S'with'
p3183
tp3184
F0.0006195786864931846
s(S'became'
p3185
S'manager'
p3186
S'of'
p3187
tp3188
F0.0006195786864931846
s(g145
S'coach'
p3189
S'with'
p3190
tp3191
F0.0006195786864931846
s(S'was'
p3192
S'left'
p3193
S'with'
p3194
tp3195
F0.0006195786864931846
s(S'also'
p3196
S'worked'
p3197
S'with'
p3198
tp3199
F0.0006195786864931846
s(S'was'
p3200
S'chairman'
p3201
S'[[con]]'
p3202
tp3203
F0.0006195786864931846
s(S'has'
p3204
S'served'
p3205
S'as'
p3206
tp3207
F0.0006195786864931846
s(S'[[det]]'
p3208
S'member'
p3209
S'[[det]]'
p3210
tp3211
F0.0006195786864931846
s(S'is'
p3212
S'professor'
p3213
S'[[con]]'
p3214
tp3215
F0.0006195786864931846
s(S'also'
p3216
S'served'
p3217
S'in'
p3218
tp3219
F0.0006195786864931846
s(S'currently'
p3220
S'sits'
p3221
g413
tp3222
F0.0006195786864931846
s(S'[[det]]'
p3223
S'agent'
p3224
S'for'
p3225
tp3226
F0.0006195786864931846
s(S'joined'
p3227
S'then'
p3228
S'moved'
p3229
tp3230
F0.0006195786864931846
s(S'is'
p3231
S'appointed'
p3232
S'[[det]]'
p3233
tp3234
F0.0006195786864931846
s(g145
S'work'
p3235
S'for'
p3236
tp3237
F0.0006195786864931846
s(S'where'
p3238
S'worked'
p3239
S'under'
p3240
tp3241
F0.0006195786864931846
s(S'where'
p3242
S'won'
p3243
S'[[det]]'
p3244
tp3245
F0.0006195786864931846
s(S'becoming'
p3246
S'president'
p3247
S'of'
p3248
tp3249
F0.0006195786864931846
s(S'[[adj]]'
p3250
S'team'
p3251
S'[[adj]]'
p3252
tp3253
F0.0006195786864931846
s(S'was'
p3254
S'hired'
p3255
S'by'
p3256
tp3257
F0.0006195786864931846
s(S'[[det]]'
p3258
S'member'
p3259
S'on'
p3260
tp3261
F0.0006195786864931846
s(S'named'
p3262
S'president'
p3263
S'of'
p3264
tp3265
F0.0006195786864931846
s(S'had'
p3266
S'won'
p3267
S'[[det]]'
p3268
tp3269
F0.0006195786864931846
s(S'has'
p3270
S'left'
p3271
S'[[det]]'
p3272
tp3273
F0.0006195786864931846
s(S'[[adj]]'
p3274
S'won'
p3275
S'[[det]]'
p3276
tp3277
F0.0006195786864931846
s(S'has'
p3278
S'worked'
p3279
S'at'
p3280
tp3281
F0.0006195786864931846
s(S'later'
p3282
S'served'
p3283
S'on'
p3284
tp3285
F0.0006195786864931846
s(S'have'
p3286
S'joined'
p3287
S'[[det]]'
p3288
tp3289
F0.0006195786864931846
s(S'[[adj]]'
p3290
S'member'
p3291
S'on'
p3292
tp3293
F0.0006195786864931846
s(S'[[adj]]'
p3294
S'professor'
p3295
S'of'
p3296
tp3297
F0.0006195786864931846
s(S'be'
p3298
S'appointed'
p3299
S'to'
p3300
tp3301
F0.0006195786864931846
s(S'[[det]]'
p3302
S'member'
p3303
S'as'
p3304
tp3305
F0.0006195786864931846
s(S'[[adj]]'
p3306
S'manager'
p3307
S'[[con]]'
p3308
tp3309
F0.0006195786864931846
s(S'where'
p3310
S'serves'
p3311
S'as'
p3312
tp3313
F0.0006195786864931846
s(g145
S'worked'
p3314
S'on'
p3315
tp3316
F0.0006195786864931846
s(S'later'
p3317
S'served'
p3318
S'as'
p3319
tp3320
F0.0006195786864931846
s(S'[[adj]]'
p3321
S'visiting'
p3322
S'professor'
p3323
tp3324
F0.0006195786864931846
s(S'[[det]]'
p3325
S'position'
p3326
S'to'
p3327
tp3328
F0.0006195786864931846
s(S'also'
p3329
S'serves'
p3330
S'for'
p3331
tp3332
F0.0006195786864931846
s(S'also'
p3333
S'appointed'
p3334
S'as'
p3335
tp3336
F0.0006195786864931846
s(S'twice'
p3337
S'served'
p3338
S'as'
p3339
tp3340
F0.0006195786864931846
s(S'[[det]]'
p3341
S'leader'
p3342
S'to'
p3343
tp3344
F0.0006195786864931846
s(S'[[con]]'
p3345
S'appointed'
p3346
S'to'
p3347
tp3348
F0.0006195786864931846
s(S'was'
p3349
S'awarded'
p3350
S'on'
p3351
tp3352
F0.0006195786864931846
s(S'received'
p3353
S'[[det]]'
p3354
S'[[adj]]'
p3355
tp3356
F0.0006195786864931846
s(S'[[adj]]'
p3357
S'served'
p3358
S'as'
p3359
tp3360
F0.0006195786864931846
s(S'is'
p3361
S'head'
p3362
S'of'
p3363
tp3364
F0.0006195786864931846
s(S'was'
p3365
S'named'
p3366
S'[[det]]'
p3367
tp3368
F0.0024783147459727386
s(S'then'
p3369
S'appointed'
p3370
S'of'
p3371
tp3372
F0.0006195786864931846
s(S'who'
p3373
S'left'
p3374
S'[[det]]'
p3375
tp3376
F0.0006195786864931846
s(S'began'
p3377
S'singing'
p3378
g592
tp3379
F0.0006195786864931846
s(g2143
g2144
S'professor'
p3380
tp3381
F0.0012391573729863693
s(S'currently'
p3382
S'serves'
p3383
S'[[det]]'
p3384
tp3385
F0.0006195786864931846
s(S'also'
p3386
S'awarded'
p3387
S'at'
p3388
tp3389
F0.0006195786864931846
s(S'had'
p3390
S'entered'
p3391
S'[[det]]'
p3392
tp3393
F0.0006195786864931846
s(S'[[adj]]'
p3394
S'host'
p3395
S'of'
p3396
tp3397
F0.0006195786864931846
s(S'never'
p3398
S'won'
p3399
S'[[det]]'
p3400
tp3401
F0.0006195786864931846
s(S'is'
p3402
S'member'
p3403
S'of'
p3404
tp3405
F0.0006195786864931846
s(S'that'
p3406
S'worked'
p3407
S'for'
p3408
tp3409
F0.0006195786864931846
s(S'who'
p3410
S'joined'
p3411
S'from'
p3412
tp3413
F0.0006195786864931846
s(g3021
g845
g846
tp3414
F0.0006195786864931846
s(S'back'
p3415
S'[[con]]'
p3416
S'joined'
p3417
tp3418
F0.0006195786864931846
s(S'later'
p3419
S'founded'
p3420
S'[[det]]'
p3421
tp3422
F0.0006195786864931846
s(g2684
g1651
g1652
tp3423
F0.0006195786864931846
s(S'had'
p3424
S'left'
p3425
S'[[con]]'
p3426
tp3427
F0.0006195786864931846
s(S'was'
p3428
g875
g876
tp3429
F0.0030978934324659233
s(S'also'
p3430
S'worked'
p3431
S'[[con]]'
p3432
tp3433
F0.0006195786864931846
s(S'has'
p3434
S'served'
p3435
S'[[det]]'
p3436
tp3437
F0.0006195786864931846
s(S'was'
p3438
S'named'
p3439
S'president'
p3440
tp3441
F0.0024783147459727386
s(S'then'
p3442
S'moved'
p3443
S'back'
p3444
tp3445
F0.0006195786864931846
s(S'as'
p3446
S'manager'
p3447
S'of'
p3448
tp3449
F0.0006195786864931846
s(S'then'
p3450
S'appointed'
p3451
S'as'
p3452
tp3453
F0.0006195786864931846
s(S'became'
p3454
S'chairman'
p3455
S'on'
p3456
tp3457
F0.0006195786864931846
s(S'[[adj]]'
p3458
S'director'
p3459
S'at'
p3460
tp3461
F0.0006195786864931846
s(S'later'
p3462
S'appointed'
p3463
S'[[pro]]'
p3464
tp3465
F0.0006195786864931846
s(S'is'
p3466
S'appointed'
p3467
S'[[con]]'
p3468
tp3469
F0.0006195786864931846
s(S'been'
p3470
S'named'
p3471
S'after'
p3472
tp3473
F0.0006195786864931846
s(S'moved'
p3474
S'[[con]]'
p3475
S'joined'
p3476
tp3477
F0.0037174721189591076
s(S'who'
p3478
S'worked'
p3479
S'with'
p3480
tp3481
F0.0006195786864931846
s(S'be'
p3482
S'named'
p3483
S'later'
p3484
tp3485
F0.0006195786864931846
s(S'[[det]]'
p3486
S'coach'
p3487
S'[[num]]'
p3488
tp3489
F0.0006195786864931846
s(S'been'
p3490
S'nominated'
p3491
S'[[con]]'
p3492
tp3493
F0.0006195786864931846
s(S'also'
p3494
S'served'
p3495
S'[[adj]]'
p3496
tp3497
F0.0006195786864931846
s(S'[[det]]'
p3498
S'owner'
p3499
S'[[det]]'
p3500
tp3501
F0.0006195786864931846
s(S'[[adj]]'
p3502
S'promoted'
p3503
S'to'
p3504
tp3505
F0.0006195786864931846
s(S'was'
p3506
S'named'
p3507
S'from'
p3508
tp3509
F0.0006195786864931846
s(S'[[det]]'
p3510
S'work'
p3511
S'for'
p3512
tp3513
F0.0006195786864931846
s(S'to'
p3514
S'leave'
p3515
S'[[adj]]'
p3516
tp3517
F0.0006195786864931846
s(S'was'
p3518
S'named'
p3519
S'by'
p3520
tp3521
F0.0006195786864931846
s(S'then'
p3522
S'joined'
p3523
S'with'
p3524
tp3525
F0.0006195786864931846
s(S'as'
p3526
S'won'
p3527
S'[[det]]'
p3528
tp3529
F0.0006195786864931846
s(S'again'
p3530
S'served'
p3531
S'as'
p3532
tp3533
F0.0006195786864931846
s(S'twice'
p3534
S'served'
p3535
S'in'
p3536
tp3537
F0.0006195786864931846
s(S'made'
p3538
S'head'
p3539
S'of'
p3540
tp3541
F0.0006195786864931846
s(S'[[det]]'
p3542
S'coach'
p3543
S'[[det]]'
p3544
tp3545
F0.0006195786864931846
s(S'first'
p3546
S'worked'
p3547
S'[[con]]'
p3548
tp3549
F0.0006195786864931846
s(S'[[det]]'
p3550
S'member'
p3551
S'who'
p3552
tp3553
F0.0006195786864931846
s(S'has'
p3554
S'worked'
p3555
S'to'
p3556
tp3557
F0.0006195786864931846
s(S'visiting'
p3558
g309
g310
tp3559
F0.0006195786864931846
s(S'for'
p3560
g859
g860
tp3561
F0.0012391573729863693
s(S'[[mod]]'
p3562
S'join'
p3563
S'at'
p3564
tp3565
F0.0006195786864931846
s(S'is'
p3566
S'president'
p3567
S'of'
p3568
tp3569
F0.0006195786864931846
s(S'been'
p3570
S'appointed'
p3571
S'as'
p3572
tp3573
F0.0006195786864931846
s(S'once'
p3574
S'served'
p3575
S'as'
p3576
tp3577
F0.0006195786864931846
s(S'also'
p3578
S'won'
p3579
S'for'
p3580
tp3581
F0.0006195786864931846
s(S'had'
p3582
S'served'
p3583
S'with'
p3584
tp3585
F0.0006195786864931846
s(S'while'
p3586
S'returned'
p3587
S'to'
p3588
tp3589
F0.0006195786864931846
s(S'had'
p3590
S'left'
p3591
S'[[adj]]'
p3592
tp3593
F0.0006195786864931846
s(S'[[con]]'
p3594
S'left'
p3595
S'[[det]]'
p3596
tp3597
F0.0006195786864931846
s(S'was'
p3598
S'professor'
p3599
S'in'
p3600
tp3601
F0.0006195786864931846
s(S'[[mod]]'
p3602
S'join'
p3603
S'up'
p3604
tp3605
F0.0006195786864931846
s(S'been'
p3606
S'awarded'
p3607
S'at'
p3608
tp3609
F0.0006195786864931846
s(S'again'
p3610
S'named'
p3611
S'by'
p3612
tp3613
F0.0006195786864931846
s(S'[[adj]]'
p3614
S'founder'
p3615
S'[[con]]'
p3616
tp3617
F0.0006195786864931846
s(S'become'
p3618
S'head'
p3619
S'of'
p3620
tp3621
F0.0006195786864931846
s(S'[[con]]'
p3622
S'worked'
p3623
S'[[prp]]'
p3624
tp3625
F0.0006195786864931846
s(S'[[con]]'
p3626
S'returned'
p3627
S'on'
p3628
tp3629
F0.0006195786864931846
s(S'first'
p3630
S'joined'
p3631
S'[[con]]'
p3632
tp3633
F0.0006195786864931846
s(S'again'
p3634
S'returned'
p3635
S'to'
p3636
tp3637
F0.0006195786864931846
s(S'made'
p3638
S'professor'
p3639
S'at'
p3640
tp3641
F0.0006195786864931846
s(S'also'
p3642
S'serves'
p3643
S'as'
p3644
tp3645
F0.0006195786864931846
s(S'had'
p3646
S'resigned'
p3647
S'from'
p3648
tp3649
F0.0006195786864931846
s(S'[[mod]]'
p3650
S'retire'
p3651
S'from'
p3652
tp3653
F0.0006195786864931846
s(S'has'
p3654
S'worked'
p3655
S'along'
p3656
tp3657
F0.0006195786864931846
s(S'also'
p3658
S'worked'
p3659
S'from'
p3660
tp3661
F0.0006195786864931846
s(S'visiting'
p3662
S'professor'
p3663
S'from'
p3664
tp3665
F0.0006195786864931846
s(S'has'
p3666
S'taught'
p3667
S'in'
p3668
tp3669
F0.0006195786864931846
s(S'was'
p3670
S'visiting'
p3671
S'[[adj]]'
p3672
tp3673
F0.0006195786864931846
s(S'then'
p3674
S'head'
p3675
S'of'
p3676
tp3677
F0.0006195786864931846
s(S'was'
p3678
S'chairman'
p3679
S'in'
p3680
tp3681
F0.0006195786864931846
s(S'was'
p3682
S'received'
p3683
S'into'
p3684
tp3685
F0.0006195786864931846
s(S'then'
p3686
S'named'
p3687
S'[[det]]'
p3688
tp3689
F0.0006195786864931846
s(S'was'
p3690
S'president'
p3691
S'[[num]]'
p3692
tp3693
F0.0006195786864931846
s(S'also'
p3694
S'served'
p3695
S'[[con]]'
p3696
tp3697
F0.0006195786864931846
s(S'which'
p3698
S'won'
p3699
S'at'
p3700
tp3701
F0.0006195786864931846
s(S'became'
p3702
S'head'
p3703
S'for'
p3704
tp3705
F0.0006195786864931846
s(S'[[det]]'
p3706
S'member'
p3707
S'has'
p3708
tp3709
F0.0006195786864931846
s(S'has'
p3710
S'taught'
p3711
S'[[det]]'
p3712
tp3713
F0.0006195786864931846
s(g2006
g1011
g1012
tp3714
F0.0006195786864931846
s(S'be'
p3715
S'awarded'
p3716
S'during'
p3717
tp3718
F0.0006195786864931846
s(S'[[con]]'
p3719
S'serves'
p3720
S'in'
p3721
tp3722
F0.0006195786864931846
s(S'then'
p3723
S'moved'
p3724
S'over'
p3725
tp3726
F0.0006195786864931846
s(S'was'
p3727
S'professor'
p3728
S'for'
p3729
tp3730
F0.0006195786864931846
s(S'[[det]]'
p3731
S'agent'
p3732
S'of'
p3733
tp3734
F0.0006195786864931846
s(S'had'
p3735
S'founded'
p3736
S'[[det]]'
p3737
tp3738
F0.0006195786864931846
s(g834
g835
S'for'
p3739
tp3740
F0.0006195786864931846
s(S'[[adj]]'
p3741
S'work'
p3742
S'for'
p3743
tp3744
F0.0006195786864931846
s(S'[[det]]'
p3745
S'member'
p3746
S'to'
p3747
tp3748
F0.0006195786864931846
s(S'[[det]]'
p3749
S'professor'
p3750
S'at'
p3751
tp3752
F0.0018587360594795538
s(S'[[det]]'
p3753
S'director'
p3754
S'[[det]]'
p3755
tp3756
F0.0006195786864931846
s(S'[[det]]'
p3757
S'executive'
p3758
S'in'
p3759
tp3760
F0.0006195786864931846
s(S'[[adj]]'
p3761
S'president'
p3762
S'for'
p3763
tp3764
F0.0006195786864931846
s(S'have'
p3765
S'left'
p3766
S'[[det]]'
p3767
tp3768
F0.0006195786864931846
s(S'[[det]]'
p3769
S'owner'
p3770
S'[[con]]'
p3771
tp3772
F0.0006195786864931846
s(S'also'
p3773
S'nominated'
p3774
S'by'
p3775
tp3776
F0.0006195786864931846
s(S'[[det]]'
p3777
S'visiting'
p3778
S'professor'
p3779
tp3780
F0.004956629491945477
s(S'to'
p3781
S'work'
p3782
S'[[adj]]'
p3783
tp3784
F0.0006195786864931846
s(S'first'
p3785
S'won'
p3786
S'[[det]]'
p3787
tp3788
F0.0006195786864931846
s(g2175
g2176
S'moved'
p3789
tp3790
F0.0006195786864931846
s(S'as'
p3791
S'coach'
p3792
S'of'
p3793
tp3794
F0.0006195786864931846
s(S'was'
p3795
S'appointed'
p3796
S'with'
p3797
tp3798
F0.0006195786864931846
s(S'had'
p3799
S'worked'
p3800
S'under'
p3801
tp3802
F0.0006195786864931846
s(S'become'
p3803
S'president'
p3804
S'of'
p3805
tp3806
F0.0006195786864931846
s(S'[[det]]'
p3807
S'position'
p3808
S'for'
p3809
tp3810
F0.0006195786864931846
s(S'had'
p3811
S'moved'
p3812
S'on'
p3813
tp3814
F0.0006195786864931846
s(S'had'
p3815
S'served'
p3816
S'[[con]]'
p3817
tp3818
F0.0006195786864931846
s(S'announced'
p3819
S'[[prp]]'
p3820
S'resignation'
p3821
tp3822
F0.0012391573729863693
s(S'[[num]]'
p3823
S'returned'
p3824
S'to'
p3825
tp3826
F0.0006195786864931846
s(S'[[con]]'
p3827
S'worked'
p3828
S'for'
p3829
tp3830
F0.0006195786864931846
s(S'again'
p3831
S'appointed'
p3832
S'as'
p3833
tp3834
F0.0006195786864931846
s(S'joined'
p3835
g642
g643
tp3836
F0.007434944237918215
s(S'[[det]]'
p3837
S'president'
p3838
S'[[con]]'
p3839
tp3840
F0.0006195786864931846
s(S'[[det]]'
p3841
S'head'
p3842
S'of'
p3843
tp3844
F0.0006195786864931846
s(S'was'
p3845
S'recruited'
p3846
S'for'
p3847
tp3848
F0.0006195786864931846
s(S'[[prp]]'
p3849
S'work'
p3850
S'at'
p3851
tp3852
F0.0006195786864931846
s(S'has'
p3853
S'worked'
p3854
S'[[con]]'
p3855
tp3856
F0.0006195786864931846
s(S'[[det]]'
p3857
S'chairman'
p3858
S'at'
p3859
tp3860
F0.0006195786864931846
s(S'was'
p3861
S'appointed'
p3862
S'[[num]]'
p3863
tp3864
F0.0006195786864931846
s(S'had'
p3865
S'worked'
p3866
S'in'
p3867
tp3868
F0.0006195786864931846
s(S'subsequently'
p3869
S'served'
p3870
S'under'
p3871
tp3872
F0.0006195786864931846
s(S'was'
p3873
S'host'
p3874
S'on'
p3875
tp3876
F0.0006195786864931846
s(S'later'
p3877
S'appointed'
p3878
S'[[con]]'
p3879
tp3880
F0.0006195786864931846
s(S'was'
p3881
S'moved'
p3882
S'for'
p3883
tp3884
F0.0006195786864931846
s(S'[[adj]]'
p3885
S'director'
p3886
S'of'
p3887
tp3888
F0.0006195786864931846
s(S'twice'
p3889
S'nominated'
p3890
S'[[con]]'
p3891
tp3892
F0.0006195786864931846
s(S'later'
p3893
S'wrote'
p3894
S'[[det]]'
p3895
tp3896
F0.0006195786864931846
s(S'[[adj]]'
p3897
S'chairman'
p3898
S'of'
p3899
tp3900
F0.0006195786864931846
s(g2230
g3021
g845
tp3901
F0.0006195786864931846
s(S'had'
p3902
S'won'
p3903
S'[[prp]]'
p3904
tp3905
F0.0006195786864931846
s(g1806
g1807
S'professor'
p3906
tp3907
F0.0006195786864931846
s(S'was'
p3908
S'named'
p3909
S'was'
p3910
tp3911
F0.0006195786864931846
s(S'was'
p3912
S'chairman'
p3913
S'to'
p3914
tp3915
F0.0006195786864931846
s(S'has'
p3916
S'worked'
p3917
S'under'
p3918
tp3919
F0.0006195786864931846
s(S'[[adj]]'
p3920
S'member'
p3921
S'[[num]]'
p3922
tp3923
F0.0006195786864931846
s(S'[[con]]'
p3924
S'served'
p3925
S'[[det]]'
p3926
tp3927
F0.0006195786864931846
s(S'[[det]]'
p3928
S'named'
p3929
S'after'
p3930
tp3931
F0.0006195786864931846
s(S'[[adj]]'
p3932
S'member'
p3933
S'at'
p3934
tp3935
F0.0006195786864931846
s(S'never'
p3936
S'left'
p3937
S'[[det]]'
p3938
tp3939
F0.0006195786864931846
s(S'[[det]]'
p3940
S'article'
p3941
S'[[det]]'
p3942
tp3943
F0.0006195786864931846
s(S'to'
p3944
S'work'
p3945
S'for'
p3946
tp3947
F0.0006195786864931846
s(S'was'
p3948
S'director'
p3949
S'[[con]]'
p3950
tp3951
F0.0006195786864931846
s(S'to'
p3952
S'coach'
p3953
S'[[num]]'
p3954
tp3955
F0.0006195786864931846
s(S'was'
p3956
S'recruited'
p3957
S'[[con]]'
p3958
tp3959
F0.0006195786864931846
s(S'again'
p3960
S'served'
p3961
S'to'
p3962
tp3963
F0.0006195786864931846
s(g1397
g2907
S'position'
p3964
tp3965
F0.0006195786864931846
s(S'has'
p3966
S'joined'
p3967
S'[[det]]'
p3968
tp3969
F0.0006195786864931846
s(S'also'
p3970
S'chairman'
p3971
S'of'
p3972
tp3973
F0.0006195786864931846
s(S'became'
p3974
S'president'
p3975
S'[[con]]'
p3976
tp3977
F0.0006195786864931846
s(S'was'
p3978
S'convicted'
p3979
S'[[con]]'
p3980
tp3981
F0.0006195786864931846
s(S'currently'
p3982
S'serves'
p3983
S'at'
p3984
tp3985
F0.0006195786864931846
s(S'who'
p3986
S'appointed'
p3987
S'[[det]]'
p3988
tp3989
F0.0006195786864931846
s(S'[[det]]'
p3990
S'book'
p3991
S'in'
p3992
tp3993
F0.0006195786864931846
s(S'also'
p3994
S'worked'
p3995
S'[[det]]'
p3996
tp3997
F0.0006195786864931846
s(S'in'
p3998
S'won'
p3999
S'[[det]]'
p4000
tp4001
F0.0006195786864931846
s(S'[[con]]'
p4002
S'appointed'
p4003
S'of'
p4004
tp4005
F0.0006195786864931846
s(S'became'
p4006
S'president'
p4007
S'[[det]]'
p4008
tp4009
F0.0006195786864931846
s(S'[[det]]'
p4010
S'president'
p4011
S'which'
p4012
tp4013
F0.0006195786864931846
s(S'[[det]]'
p4014
S'coach'
p4015
S'at'
p4016
tp4017
F0.0006195786864931846
s(S'[[adj]]'
p4018
S'chairman'
p4019
S'[[det]]'
p4020
tp4021
F0.0006195786864931846
s(S'[[adj]]'
p4022
S'position'
p4023
S'at'
p4024
tp4025
F0.0006195786864931846
s(S'[[adj]]'
p4026
S'won'
p4027
S'for'
p4028
tp4029
F0.0006195786864931846
s(S'was'
p4030
S'cofounder'
p4031
S'[[con]]'
p4032
tp4033
F0.0006195786864931846
s(S'later'
p4034
S'won'
p4035
S'[[det]]'
p4036
tp4037
F0.0006195786864931846
s(S'since'
p4038
S'worked'
p4039
S'for'
p4040
tp4041
F0.0006195786864931846
s(S'also'
p4042
S'served'
p4043
S'where'
p4044
tp4045
F0.0006195786864931846
s(S'then'
p4046
S'worked'
p4047
S'under'
p4048
tp4049
F0.0006195786864931846
s(S'became'
p4050
S'member'
p4051
S'for'
p4052
tp4053
F0.0006195786864931846
s(g3221
g413
g414
tp4054
F0.0012391573729863693
s(S'appointed'
p4055
g3017
g3018
tp4056
F0.0006195786864931846
s(S'[[con]]'
p4057
S'worked'
p4058
S'[[con]]'
p4059
tp4060
F0.0006195786864931846
s(S'[[det]]'
p4061
S'leader'
p4062
S'[[con]]'
p4063
tp4064
F0.0006195786864931846
s(S'[[det]]'
p4065
S'member'
p4066
S'[[con]]'
p4067
tp4068
F0.0006195786864931846
s(S'have'
p4069
S'worked'
p4070
S'at'
p4071
tp4072
F0.0006195786864931846
s(g2907
g3964
S'as'
p4073
tp4074
F0.0006195786864931846
s(g3895
S'article'
p4075
S'for'
p4076
tp4077
F0.0012391573729863693
s(S'had'
p4078
S'served'
p4079
S'under'
p4080
tp4081
F0.0006195786864931846
s(g145
S'work'
p4082
S'at'
p4083
tp4084
F0.0006195786864931846
s(S'has'
p4085
S'founded'
p4086
S'[[con]]'
p4087
tp4088
F0.0006195786864931846
s(S'joined'
p4089
g1467
g1468
tp4090
F0.0006195786864931846
s(S'since'
p4091
S'worked'
p4092
S'[[con]]'
p4093
tp4094
F0.0006195786864931846
s(S'that'
p4095
S'won'
p4096
S'[[det]]'
p4097
tp4098
F0.0006195786864931846
s(S'who'
p4099
S'serves'
p4100
S'as'
p4101
tp4102
F0.0006195786864931846
s(S'then'
p4103
S'served'
p4104
S'in'
p4105
tp4106
F0.0006195786864931846
s(S'is'
p4107
S'chairman'
p4108
S'of'
p4109
tp4110
F0.0006195786864931846
s(S'be'
p4111
S'appointed'
p4112
S'[[con]]'
p4113
tp4114
F0.0006195786864931846
s(S'also'
p4115
S'served'
p4116
S'after'
p4117
tp4118
F0.0006195786864931846
s(S'being'
p4119
S'appointed'
p4120
S'as'
p4121
tp4122
F0.0006195786864931846
s(S'later'
p4123
S'served'
p4124
S'under'
p4125
tp4126
F0.0006195786864931846
s(S'visiting'
p4127
S'professor'
p4128
S'[[con]]'
p4129
tp4130
F0.0012391573729863693
s(S'[[adj]]'
p4131
S'team'
p4132
S'for'
p4133
tp4134
F0.0006195786864931846
s(S'[[det]]'
p4135
S'executive'
p4136
S'with'
p4137
tp4138
F0.0006195786864931846
s(S'was'
p4139
S'nominated'
p4140
S'on'
p4141
tp4142
F0.0006195786864931846
s(S'was'
p4143
S'joined'
p4144
S'[[det]]'
p4145
tp4146
F0.0006195786864931846
s(S'has'
p4147
S'worked'
p4148
S'until'
p4149
tp4150
F0.0006195786864931846
s(S'also'
p4151
S'appointed'
p4152
S'at'
p4153
tp4154
F0.0006195786864931846
s(S'had'
p4155
S'joined'
p4156
S'of'
p4157
tp4158
F0.0006195786864931846
s(S'is'
p4159
S'chairman'
p4160
S'[[det]]'
p4161
tp4162
F0.0006195786864931846
s(S'then'
p4163
S'served'
p4164
S'[[num]]'
p4165
tp4166
F0.0006195786864931846
s(S'[[adj]]'
p4167
S'served'
p4168
S'for'
p4169
tp4170
F0.0006195786864931846
s(S'was'
p4171
S'named'
p4172
S'[[adj]]'
p4173
tp4174
F0.0012391573729863693
s(S'is'
p4175
S'appointed'
p4176
S'by'
p4177
tp4178
F0.0006195786864931846
s(g145
S'worked'
p4179
S'for'
p4180
tp4181
F0.0006195786864931846
s(g1618
g2684
g1651
tp4182
F0.0006195786864931846
s(S'also'
p4183
S'serves'
p4184
S'at'
p4185
tp4186
F0.0006195786864931846
s(S'[[det]]'
p4187
S'faculty'
p4188
S'at'
p4189
tp4190
F0.0012391573729863693
s(S'then'
p4191
S'served'
p4192
S'under'
p4193
tp4194
F0.0006195786864931846
s(S'had'
p4195
S'worked'
p4196
S'to'
p4197
tp4198
F0.0006195786864931846
s(S'is'
p4199
S'cofounder'
p4200
S'of'
p4201
tp4202
F0.0006195786864931846
s(S'then'
p4203
S'received'
p4204
S'[[con]]'
p4205
tp4206
F0.0006195786864931846
s(g39
S'judge'
p4207
S'of'
p4208
tp4209
F0.0006195786864931846
s(S'also'
p4210
S'worked'
p4211
S'together'
p4212
tp4213
F0.0006195786864931846
s(S'was'
p4214
S'coach'
p4215
S'at'
p4216
tp4217
F0.0006195786864931846
s(S'was'
p4218
S'moved'
p4219
S'back'
p4220
tp4221
F0.0006195786864931846
s(S'then'
p4222
S'taught'
p4223
S'[[num]]'
p4224
tp4225
F0.0006195786864931846
s(S'then'
p4226
S'director'
p4227
S'of'
p4228
tp4229
F0.0006195786864931846
s(S'[[adj]]'
p4230
S'professor'
p4231
S'[[num]]'
p4232
tp4233
F0.0006195786864931846
s(S'[[det]]'
p4234
S'leader'
p4235
S'in'
p4236
tp4237
F0.0006195786864931846
s(S'also'
p4238
S'served'
p4239
S'of'
p4240
tp4241
F0.0006195786864931846
s(S'be'
p4242
S'appointed'
p4243
S'[[det]]'
p4244
tp4245
F0.0006195786864931846
s(S'had'
p4246
S'appointed'
p4247
S'in'
p4248
tp4249
F0.0006195786864931846
s(S'to'
p4250
S'join'
p4251
S'up'
p4252
tp4253
F0.0006195786864931846
s(S'has'
p4254
S'worked'
p4255
S'for'
p4256
tp4257
F0.0006195786864931846
s(S'to'
p4258
S'join'
p4259
S'[[num]]'
p4260
tp4261
F0.0006195786864931846
s(S'who'
p4262
S'served'
p4263
S'with'
p4264
tp4265
F0.0006195786864931846
s(S'named'
p4266
S'[[det]]'
p4267
S'[[adj]]'
p4268
tp4269
F0.0006195786864931846
s(S'had'
p4270
S'won'
p4271
S'at'
p4272
tp4273
F0.0006195786864931846
s(S'[[det]]'
p4274
S'member'
p4275
S'when'
p4276
tp4277
F0.0006195786864931846
s(S'was'
p4278
S'awarded'
p4279
S'to'
p4280
tp4281
F0.0006195786864931846
s(S'is'
p4282
S'host'
p4283
S'of'
p4284
tp4285
F0.0006195786864931846
s(S'was'
p4286
S'president'
p4287
S'[[det]]'
p4288
tp4289
F0.0006195786864931846
s(S'was'
p4290
S'named'
p4291
S'while'
p4292
tp4293
F0.0006195786864931846
s(S'is'
p4294
S'president'
p4295
S'[[det]]'
p4296
tp4297
F0.0006195786864931846
s(S'is'
p4298
S'promoted'
p4299
S'to'
p4300
tp4301
F0.0006195786864931846
s(S'[[det]]'
p4302
S'manager'
p4303
S'[[con]]'
p4304
tp4305
F0.0006195786864931846
s(S'has'
p4306
S'served'
p4307
S'[[con]]'
p4308
tp4309
F0.0006195786864931846
s(S'[[adj]]'
p4310
S'named'
p4311
S'after'
p4312
tp4313
F0.0006195786864931846
s(S'first'
p4314
S'served'
p4315
S'as'
p4316
tp4317
F0.0006195786864931846
s(S'also'
p4318
S'won'
p4319
S'[[con]]'
p4320
tp4321
F0.0006195786864931846
s(S'be'
p4322
S'named'
p4323
S'by'
p4324
tp4325
F0.0006195786864931846
s(S'[[con]]'
p4326
S'leave'
p4327
S'for'
p4328
tp4329
F0.0006195786864931846
s(S'to'
p4330
S'host'
p4331
S'[[prp]]'
p4332
tp4333
F0.0006195786864931846
s(S'later'
p4334
S'worked'
p4335
S'as'
p4336
tp4337
F0.0006195786864931846
s(S'[[det]]'
p4338
S'coach'
p4339
S'of'
p4340
tp4341
F0.0006195786864931846
s(S'who'
p4342
S'worked'
p4343
S'for'
p4344
tp4345
F0.0006195786864931846
s(S'again'
p4346
S'worked'
p4347
S'with'
p4348
tp4349
F0.0006195786864931846
s(S'is'
p4350
S'director'
p4351
S'for'
p4352
tp4353
F0.0006195786864931846
s(S'again'
p4354
S'returned'
p4355
S'[[con]]'
p4356
tp4357
F0.0006195786864931846
s(S'became'
p4358
S'coach'
p4359
S'[[det]]'
p4360
tp4361
F0.0006195786864931846
s(S'[[adj]]'
p4362
S'professor'
p4363
S'[[det]]'
p4364
tp4365
F0.0006195786864931846
s(S'been'
p4366
S'named'
p4367
S'[[det]]'
p4368
tp4369
F0.0006195786864931846
s(S'made'
p4370
S'professor'
p4371
S'in'
p4372
tp4373
F0.0006195786864931846
s(S'[[con]]'
p4374
S'won'
p4375
S'[[con]]'
p4376
tp4377
F0.0006195786864931846
s(S'has'
p4378
S'served'
p4379
S'under'
p4380
tp4381
F0.0006195786864931846
s(S'[[con]]'
p4382
S'received'
p4383
S'from'
p4384
tp4385
F0.0006195786864931846
s(S'been'
p4386
S'president'
p4387
S'[[det]]'
p4388
tp4389
F0.0006195786864931846
s(S'been'
p4390
S'named'
p4391
S'for'
p4392
tp4393
F0.0006195786864931846
s(S'also'
p4394
S'won'
p4395
S'as'
p4396
tp4397
F0.0006195786864931846
s(S'nominated'
p4398
g3560
g859
tp4399
F0.0012391573729863693
s(S'[[adj]]'
p4400
S'professor'
p4401
S'in'
p4402
tp4403
F0.0012391573729863693
s(S'then'
p4404
S'returned'
p4405
S'to'
p4406
tp4407
F0.0006195786864931846
s(S'nominated'
p4408
S'[[det]]'
p4409
S'category'
p4410
tp4411
F0.0006195786864931846
s(S'later'
p4412
S'received'
p4413
S'at'
p4414
tp4415
F0.0006195786864931846
s(g1129
g729
g557
tp4416
F0.0018587360594795538
s(S'has'
p4417
S'taught'
p4418
S'at'
p4419
tp4420
F0.0006195786864931846
s(S'[[det]]'
p4421
S'team'
p4422
g145
tp4423
F0.0006195786864931846
s(S'[[det]]'
p4424
S'director'
p4425
S'of'
p4426
tp4427
F0.0006195786864931846
s(S'has'
p4428
S'served'
p4429
S'[[adj]]'
p4430
tp4431
F0.0006195786864931846
s(S'was'
p4432
S'nominated'
p4433
S'[[det]]'
p4434
tp4435
F0.0012391573729863693
s(S'also'
p4436
S'received'
p4437
S'to'
p4438
tp4439
F0.0006195786864931846
s(S'[[con]]'
p4440
S'cofounder'
p4441
S'of'
p4442
tp4443
F0.0006195786864931846
s(S'to'
p4444
S'head'
p4445
S'at'
p4446
tp4447
F0.0006195786864931846
s(S'[[det]]'
p4448
g1805
g1806
tp4449
F0.0012391573729863693
s(S'has'
p4450
S'taught'
p4451
S'[[adj]]'
p4452
tp4453
F0.0006195786864931846
s(S'with'
p4454
S'won'
p4455
S'in'
p4456
tp4457
F0.0006195786864931846
s(S'then'
p4458
S'hired'
p4459
S'in'
p4460
tp4461
F0.0006195786864931846
s(S'[[det]]'
p4462
S'director'
p4463
S'at'
p4464
tp4465
F0.0006195786864931846
s(S'is'
p4466
S'retired'
p4467
S'from'
p4468
tp4469
F0.0006195786864931846
s(S'was'
p4470
S'awarded'
p4471
S'after'
p4472
tp4473
F0.0006195786864931846
s(S'[[adj]]'
p4474
S'manager'
p4475
S'at'
p4476
tp4477
F0.0006195786864931846
s(S'was'
p4478
S'awarded'
p4479
S'with'
p4480
tp4481
F0.0006195786864931846
s(S'was'
p4482
S'appointed'
p4483
S'[[det]]'
p4484
tp4485
F0.0018587360594795538
s(S'who'
p4486
S'served'
p4487
S'under'
p4488
tp4489
F0.0006195786864931846
s(S'matter'
p4490
g2574
g1395
tp4491
F0.0006195786864931846
s(S'has'
p4492
S'received'
p4493
S'at'
p4494
tp4495
F0.0006195786864931846
s(S'also'
p4496
S'president'
p4497
S'[[det]]'
p4498
tp4499
F0.0006195786864931846
s(S'was'
p4500
S'appointed'
p4501
S'as'
p4502
tp4503
F0.0018587360594795538
s(S'also'
p4504
S'served'
p4505
S'twice'
p4506
tp4507
F0.0006195786864931846
s(S'[[det]]'
p4508
S'head'
p4509
S'[[con]]'
p4510
tp4511
F0.0006195786864931846
s(S'also'
p4512
S'founded'
p4513
S'at'
p4514
tp4515
F0.0006195786864931846
s(S'[[adj]]'
p4516
S'professor'
p4517
g1562
tp4518
F0.0012391573729863693
s(S'[[det]]'
p4519
g4490
g2574
tp4520
F0.0006195786864931846
s(S'also'
p4521
S'won'
p4522
S'[[det]]'
p4523
tp4524
F0.0024783147459727386
s(S'also'
p4525
S'won'
p4526
S'[[num]]'
p4527
tp4528
F0.0006195786864931846
s(S'is'
p4529
S'named'
p4530
S'as'
p4531
tp4532
F0.0006195786864931846
s(S'is'
p4533
S'president'
p4534
S'[[con]]'
p4535
tp4536
F0.0006195786864931846
s(S'then'
p4537
S'moved'
p4538
S'onto'
p4539
tp4540
F0.0006195786864931846
s(S'soon'
p4541
S'joined'
p4542
S'[[det]]'
p4543
tp4544
F0.0006195786864931846
s(S'also'
p4545
S'worked'
p4546
S'as'
p4547
tp4548
F0.0006195786864931846
s(S'has'
p4549
S'served'
p4550
S'with'
p4551
tp4552
F0.0006195786864931846
s(S'currently'
p4553
S'serves'
p4554
S'[[con]]'
p4555
tp4556
F0.0006195786864931846
s(S'is'
p4557
S'named'
p4558
S'with'
p4559
tp4560
F0.0006195786864931846
s(S'then'
p4561
S'served'
p4562
S'[[det]]'
p4563
tp4564
F0.0006195786864931846
s(S'then'
p4565
S'appointed'
p4566
S'[[con]]'
p4567
tp4568
F0.0006195786864931846
s(S'then'
p4569
S'moved'
p4570
S'then'
p4571
tp4572
F0.0006195786864931846
s(S'[[det]]'
p4573
S'position'
p4574
S'with'
p4575
tp4576
F0.0006195786864931846
s(S'soon'
p4577
S'left'
p4578
S'to'
p4579
tp4580
F0.0006195786864931846
s(S'formerly'
p4581
S'served'
p4582
S'to'
p4583
tp4584
F0.0006195786864931846
s(S'being'
p4585
S'appointed'
p4586
S'to'
p4587
tp4588
F0.0006195786864931846
s(S'[[det]]'
p4589
S'coach'
p4590
S'[[con]]'
p4591
tp4592
F0.0006195786864931846
s(S'had'
p4593
S'worked'
p4594
S'at'
p4595
tp4596
F0.0006195786864931846
s(S'later'
p4597
S'appointed'
p4598
S'as'
p4599
tp4600
F0.0006195786864931846
s(S'then'
p4601
S'appointed'
p4602
S'by'
p4603
tp4604
F0.0006195786864931846
s(S'[[det]]'
p4605
S'left'
p4606
S'of'
p4607
tp4608
F0.0006195786864931846
s(S'is'
p4609
S'appointed'
p4610
S'after'
p4611
tp4612
F0.0006195786864931846
s(S'received'
p4613
S'[[det]]'
p4614
S'award'
p4615
tp4616
F0.0018587360594795538
s(S'now'
p4617
S'serves'
p4618
S'as'
p4619
tp4620
F0.0006195786864931846
s(S'to'
p4621
S'retire'
p4622
S'from'
p4623
tp4624
F0.0006195786864931846
s(S'has'
p4625
S'moved'
p4626
S'from'
p4627
tp4628
F0.0006195786864931846
s(S'visiting'
p4629
S'professor'
p4630
S'in'
p4631
tp4632
F0.0012391573729863693
s(S'also'
p4633
S'named'
p4634
S'[[con]]'
p4635
tp4636
F0.0006195786864931846
s(S'also'
p4637
S'member'
p4638
S'[[con]]'
p4639
tp4640
F0.0006195786864931846
s(S'never'
p4641
S'received'
p4642
S'[[det]]'
p4643
tp4644
F0.0006195786864931846
s(S'being'
p4645
S'appointed'
p4646
S'at'
p4647
tp4648
F0.0006195786864931846
s(S'then'
p4649
S'moved'
p4650
S'on'
p4651
tp4652
F0.0006195786864931846
s(S'has'
p4653
S'taught'
p4654
S'[[con]]'
p4655
tp4656
F0.0006195786864931846
s(S'formerly'
p4657
S'worked'
p4658
S'as'
p4659
tp4660
F0.0006195786864931846
s(S'first'
p4661
S'entered'
p4662
S'[[det]]'
p4663
tp4664
F0.0006195786864931846
s(S'has'
p4665
S'won'
p4666
S'[[det]]'
p4667
tp4668
F0.0006195786864931846
s(S'then'
p4669
S'left'
p4670
S'for'
p4671
tp4672
F0.0006195786864931846
s(S'later'
p4673
S'served'
p4674
S'with'
p4675
tp4676
F0.0006195786864931846
s(S'instead'
p4677
S'joined'
p4678
S'[[det]]'
p4679
tp4680
F0.0006195786864931846
s(S'[[det]]'
p4681
S'head'
p4682
S'at'
p4683
tp4684
F0.0006195786864931846
s(S'later'
p4685
S'worked'
p4686
S'[[con]]'
p4687
tp4688
F0.0006195786864931846
s(S'[[adj]]'
p4689
S'chairman'
p4690
S'[[con]]'
p4691
tp4692
F0.0006195786864931846
s(S'[[det]]'
p4693
S'chairman'
p4694
S'on'
p4695
tp4696
F0.0006195786864931846
s(S'also'
p4697
S'taught'
p4698
S'[[adj]]'
p4699
tp4700
F0.0006195786864931846
s(S'[[adj]]'
p4701
S'head'
p4702
S'[[con]]'
p4703
tp4704
F0.0006195786864931846
s(S'which'
p4705
S'won'
p4706
S'[[pro]]'
p4707
tp4708
F0.0006195786864931846
s(S'[[adj]]'
p4709
S'director'
p4710
S'for'
p4711
tp4712
F0.0006195786864931846
s(g145
S'team'
p4713
S'in'
p4714
tp4715
F0.0006195786864931846
s(S'became'
p4716
S'head'
p4717
S'of'
p4718
tp4719
F0.0006195786864931846
s(S'with'
p4720
S'founded'
p4721
S'[[det]]'
p4722
tp4723
F0.0006195786864931846
s(S'[[det]]'
p4724
S'leaders'
p4725
S'of'
p4726
tp4727
F0.0006195786864931846
s(S'[[con]]'
p4728
S'won'
p4729
S'[[num]]'
p4730
tp4731
F0.0006195786864931846
s(S'[[adj]]'
p4732
S'book'
p4733
S'published'
p4734
tp4735
F0.0006195786864931846
s(S'then'
p4736
S'served'
p4737
S'for'
p4738
tp4739
F0.0006195786864931846
s(S'was'
p4740
S'professor'
p4741
S'from'
p4742
tp4743
F0.0006195786864931846
s(S'[[con]]'
p4744
S'appointed'
p4745
S'as'
p4746
tp4747
F0.0006195786864931846
s(g3378
g592
g593
tp4748
F0.0006195786864931846
s(S'also'
p4749
S'president'
p4750
S'[[con]]'
p4751
tp4752
F0.0006195786864931846
s(S'where'
p4753
S'joined'
p4754
S'[[det]]'
p4755
tp4756
F0.0012391573729863693
s(S'[[adj]]'
p4757
S'book'
p4758
S'of'
p4759
tp4760
F0.0006195786864931846
s(S'was'
p4761
S'taught'
p4762
S'at'
p4763
tp4764
F0.0006195786864931846
s(S'[[det]]'
p4765
S'founder'
p4766
S'[[det]]'
p4767
tp4768
F0.0006195786864931846
s(S'had'
p4769
S'won'
p4770
S'for'
p4771
tp4772
F0.0006195786864931846
s(S'was'
p4773
S'member'
p4774
S'at'
p4775
tp4776
F0.0006195786864931846
s(S'[[adj]]'
p4777
S'article'
p4778
S'in'
p4779
tp4780
F0.0006195786864931846
s(S'[[adj]]'
p4781
S'member'
p4782
S'of'
p4783
tp4784
F0.0006195786864931846
s(S'also'
p4785
S'awarded'
p4786
S'for'
p4787
tp4788
F0.0006195786864931846
s(S'[[det]]'
p4789
S'owner'
p4790
S'of'
p4791
tp4792
F0.0006195786864931846
s(S'[[adj]]'
p4793
S'executive'
p4794
S'for'
p4795
tp4796
F0.0006195786864931846
s(S'later'
p4797
S'joined'
p4798
S'at'
p4799
tp4800
F0.0006195786864931846
s(S'to'
p4801
S'join'
p4802
S'[[adj]]'
p4803
tp4804
F0.0006195786864931846
s(S'[[det]]'
p4805
S'leader'
p4806
S'for'
p4807
tp4808
F0.0006195786864931846
s(S'being'
p4809
S'named'
p4810
S'[[det]]'
p4811
tp4812
F0.0006195786864931846
s(S'also'
p4813
S'joined'
p4814
S'[[det]]'
p4815
tp4816
F0.0012391573729863693
s(S'to'
p4817
S'work'
p4818
S'[[det]]'
p4819
tp4820
F0.0006195786864931846
s(S'[[con]]'
p4821
S'taught'
p4822
S'in'
p4823
tp4824
F0.0006195786864931846
s(S'also'
p4825
S'nominated'
p4826
S'as'
p4827
tp4828
F0.0006195786864931846
s(S'formerly'
p4829
S'served'
p4830
S'as'
p4831
tp4832
F0.0006195786864931846
s(S'made'
p4833
S'head'
p4834
S'at'
p4835
tp4836
F0.0006195786864931846
s(S'became'
p4837
S'member'
p4838
S'[[det]]'
p4839
tp4840
F0.0006195786864931846
s(S'was'
p4841
S'nominated'
p4842
S'[[con]]'
p4843
tp4844
F0.0006195786864931846
s(S'then'
p4845
S'served'
p4846
S'with'
p4847
tp4848
F0.0006195786864931846
s(S'was'
p4849
S'entered'
p4850
S'at'
p4851
tp4852
F0.0006195786864931846
s(S'also'
p4853
S'named'
p4854
S'[[adj]]'
p4855
tp4856
F0.0006195786864931846
s(S'also'
p4857
S'awarded'
p4858
S'[[det]]'
p4859
tp4860
F0.0006195786864931846
s(S'also'
p4861
S'won'
p4862
S'on'
p4863
tp4864
F0.0006195786864931846
s(S'been'
p4865
S'appointed'
p4866
S'at'
p4867
tp4868
F0.0006195786864931846
s(S'later'
p4869
S'moved'
p4870
S'on'
p4871
tp4872
F0.0006195786864931846
s(S'[[pro]]'
p4873
S'served'
p4874
S'in'
p4875
tp4876
F0.0006195786864931846
s(S'also'
p4877
S'worked'
p4878
S'to'
p4879
tp4880
F0.0006195786864931846
s(g2005
g2006
g1011
tp4881
F0.0006195786864931846
s(S'has'
p4882
S'named'
p4883
S'as'
p4884
tp4885
F0.0006195786864931846
s(S'to'
p4886
S'coach'
p4887
S'[[con]]'
p4888
tp4889
F0.0006195786864931846
s(S'was'
p4890
S'appointed'
p4891
S'after'
p4892
tp4893
F0.0006195786864931846
s(S'being'
p4894
S'awarded'
p4895
S'[[det]]'
p4896
tp4897
F0.0006195786864931846
s(S'again'
p4898
S'appointed'
p4899
S'of'
p4900
tp4901
F0.0006195786864931846
s(S'was'
p4902
S'director'
p4903
S'for'
p4904
tp4905
F0.0006195786864931846
s(S'be'
p4906
S'named'
p4907
S'[[det]]'
p4908
tp4909
F0.0006195786864931846
s(S'[[det]]'
p4910
S'manager'
p4911
S'at'
p4912
tp4913
F0.0006195786864931846
s(S'has'
p4914
S'served'
p4915
S'until'
p4916
tp4917
F0.0006195786864931846
s(S'[[adj]]'
p4918
S'host'
p4919
S'on'
p4920
tp4921
F0.0006195786864931846
s(S'was'
p4922
S'appointed'
p4923
S'where'
p4924
tp4925
F0.0006195786864931846
s(S'then'
p4926
S'returned'
p4927
S'with'
p4928
tp4929
F0.0006195786864931846
s(S'then'
p4930
S'left'
p4931
S'[[con]]'
p4932
tp4933
F0.0006195786864931846
s(S'had'
p4934
S'served'
p4935
S'on'
p4936
tp4937
F0.0006195786864931846
s(S'became'
p4938
S'member'
p4939
S'of'
p4940
tp4941
F0.0006195786864931846
s(S'[[num]]'
p4942
S'professor'
p4943
S'at'
p4944
tp4945
F0.0006195786864931846
s(S'be'
p4946
S'named'
p4947
S'for'
p4948
tp4949
F0.0006195786864931846
s(S'had'
p4950
S'resigned'
p4951
S'as'
p4952
tp4953
F0.0006195786864931846
s(S'then'
p4954
S'worked'
p4955
S'with'
p4956
tp4957
F0.0006195786864931846
s(S'became'
p4958
S'chairman'
p4959
S'of'
p4960
tp4961
F0.0006195786864931846
s(S'then'
p4962
S'moved'
p4963
S'[[num]]'
p4964
tp4965
F0.0006195786864931846
s(S'is'
p4966
S'founder'
p4967
S'[[con]]'
p4968
tp4969
F0.0006195786864931846
s(S'been'
p4970
S'appointed'
p4971
S'to'
p4972
tp4973
F0.0006195786864931846
s(S'then'
p4974
S'served'
p4975
S'at'
p4976
tp4977
F0.0006195786864931846
s(S'[[con]]'
p4978
S'joined'
p4979
S'of'
p4980
tp4981
F0.0006195786864931846
s(S'was'
p4982
S'appointed'
p4983
S'by'
p4984
tp4985
F0.0006195786864931846
s(S'was'
p4986
S'professor'
p4987
S'[[num]]'
p4988
tp4989
F0.0006195786864931846
s(S'[[adj]]'
p4990
S'agent'
p4991
S'of'
p4992
tp4993
F0.0006195786864931846
s(S'been'
p4994
S'appointed'
p4995
S'in'
p4996
tp4997
F0.0006195786864931846
s(S'subsequently'
p4998
S'served'
p4999
S'to'
p5000
tp5001
F0.0006195786864931846
s(S'[[det]]'
p5002
S'professor'
p5003
S'to'
p5004
tp5005
F0.0006195786864931846
s(S'has'
p5006
S'founded'
p5007
S'[[det]]'
p5008
tp5009
F0.0006195786864931846
s(S'later'
p5010
S'received'
p5011
S'[[prp]]'
p5012
tp5013
F0.0006195786864931846
s(S'has'
p5014
S'served'
p5015
S'by'
p5016
tp5017
F0.0006195786864931846
s(S'named'
p5018
S'president'
p5019
S'[[det]]'
p5020
tp5021
F0.0006195786864931846
s(S'[[num]]'
p5022
S'member'
p5023
S'of'
p5024
tp5025
F0.0006195786864931846
s(S'had'
p5026
S'served'
p5027
S'[[det]]'
p5028
tp5029
F0.0006195786864931846
s(S'was'
p5030
S'promoted'
p5031
S'[[det]]'
p5032
tp5033
F0.0006195786864931846
s(S'become'
p5034
S'manager'
p5035
S'of'
p5036
tp5037
F0.0006195786864931846
s(S'[[det]]'
p5038
S'cofounder'
p5039
S'of'
p5040
tp5041
F0.0006195786864931846
s(S'[[det]]'
p5042
S'team'
p5043
S'after'
p5044
tp5045
F0.0006195786864931846
s(S'then'
p5046
S'joined'
p5047
S'[[con]]'
p5048
tp5049
F0.0006195786864931846
s(g1214
g1215
S'on'
p5050
tp5051
F0.0024783147459727386
s(g949
g465
g466
tp5052
F0.0012391573729863693
s(S'also'
p5053
S'worked'
p5054
S'where'
p5055
tp5056
F0.0006195786864931846
s(S'until'
p5057
S'returned'
p5058
S'to'
p5059
tp5060
F0.0006195786864931846
s(S'is'
p5061
S'founder'
p5062
S'of'
p5063
tp5064
F0.0006195786864931846
s(S'was'
p5065
S'hired'
p5066
S'[[det]]'
p5067
tp5068
F0.0006195786864931846
s(S'[[det]]'
p5069
S'leader'
p5070
S'of'
p5071
tp5072
F0.0006195786864931846
s(S'was'
p5073
S'professor'
p5074
S'at'
p5075
tp5076
F0.0006195786864931846
s(g1950
g1951
S'for'
p5077
tp5078
F0.0006195786864931846
s(S'was'
p5079
S'appointed'
p5080
S'at'
p5081
tp5082
F0.0006195786864931846
s(S'[[con]]'
p5083
S'joined'
p5084
S'at'
p5085
tp5086
F0.0012391573729863693
s(S'also'
p5087
S'served'
p5088
S'under'
p5089
tp5090
F0.0006195786864931846
s(S'where'
p5091
S'taught'
p5092
S'at'
p5093
tp5094
F0.0006195786864931846
s(S'was'
p5095
S'manager'
p5096
S'at'
p5097
tp5098
F0.0006195786864931846
s(S'[[con]]'
p5099
S'served'
p5100
S'on'
p5101
tp5102
F0.0006195786864931846
s(g853
g469
g470
tp5103
F0.0006195786864931846
s(S'has'
p5104
S'received'
p5105
S'[[con]]'
p5106
tp5107
F0.0006195786864931846
s(S'[[adj]]'
p5108
S'president'
p5109
S'[[det]]'
p5110
tp5111
F0.0006195786864931846
s(S'[[con]]'
p5112
S'named'
p5113
S'as'
p5114
tp5115
F0.0006195786864931846
s(S'appointed'
p5116
S'professor'
p5117
S'in'
p5118
tp5119
F0.0006195786864931846
s(S'also'
p5120
S'appointed'
p5121
S'by'
p5122
tp5123
F0.0006195786864931846
s(S'[[adj]]'
p5124
S'professor'
p5125
S'at'
p5126
tp5127
F0.004337050805452293
s(g1468
g1469
S'at'
p5128
tp5129
F0.0006195786864931846
s(S'was'
p5130
S'awarded'
p5131
S'as'
p5132
tp5133
F0.0006195786864931846
s(S'[[adj]]'
p5134
S'executive'
p5135
S'with'
p5136
tp5137
F0.0006195786864931846
s(S'then'
p5138
S'joined'
p5139
S'on'
p5140
tp5141
F0.0006195786864931846
s(S'then'
p5142
S'moved'
p5143
S'at'
p5144
tp5145
F0.0006195786864931846
s(S'later'
p5146
S'appointed'
p5147
S'of'
p5148
tp5149
F0.0006195786864931846
s(S'became'
p5150
S'professor'
p5151
S'of'
p5152
tp5153
F0.0006195786864931846
s(S'majority'
p5154
S'owner'
p5155
S'of'
p5156
tp5157
F0.0006195786864931846
s(S'had'
p5158
S'worked'
p5159
S'with'
p5160
tp5161
F0.0006195786864931846
s(S'who'
p5162
S'worked'
p5163
S'at'
p5164
tp5165
F0.0006195786864931846
s(S'is'
p5166
S'returned'
p5167
S'to'
p5168
tp5169
F0.0006195786864931846
s(S'[[adj]]'
p5170
S'leader'
p5171
S'[[det]]'
p5172
tp5173
F0.0006195786864931846
s(S'was'
p5174
S'chairman'
p5175
S'at'
p5176
tp5177
F0.0006195786864931846
s(S'formerly'
p5178
S'served'
p5179
S'for'
p5180
tp5181
F0.0006195786864931846
s(S'[[adj]]'
p5182
S'member'
p5183
S'[[adj]]'
p5184
tp5185
F0.0006195786864931846
s(S'[[con]]'
p5186
S'received'
p5187
S'[[prp]]'
p5188
tp5189
F0.0006195786864931846
s(S'later'
p5190
S'named'
p5191
S'of'
p5192
tp5193
F0.0006195786864931846
s(S'also'
p5194
S'served'
p5195
S'against'
p5196
tp5197
F0.0006195786864931846
s(S'was'
p5198
S'appointed'
p5199
S'[[adj]]'
p5200
tp5201
F0.0018587360594795538
s(S'to'
p5202
S'leave'
p5203
S'for'
p5204
tp5205
F0.0006195786864931846
s(S'[[adj]]'
p5206
S'agent'
p5207
S'for'
p5208
tp5209
F0.0006195786864931846
s(S'be'
p5210
S'awarded'
p5211
S'in'
p5212
tp5213
F0.0006195786864931846
s(S'also'
p5214
S'appointed'
p5215
S'[[det]]'
p5216
tp5217
F0.0006195786864931846
s(S'then'
p5218
S'worked'
p5219
S'from'
p5220
tp5221
F0.0006195786864931846
s(S'never'
p5222
S'won'
p5223
S'on'
p5224
tp5225
F0.0006195786864931846
s(S'where'
p5226
S'received'
p5227
S'in'
p5228
tp5229
F0.0006195786864931846
s(S'as'
p5230
S'head'
p5231
S'of'
p5232
tp5233
F0.0006195786864931846
s(S'with'
p5234
S'joined'
p5235
S'[[det]]'
p5236
tp5237
F0.0006195786864931846
s(S'sold'
p5238
g1933
g1934
tp5239
F0.0012391573729863693
s(S'has'
p5240
S'received'
p5241
S'in'
p5242
tp5243
F0.0006195786864931846
s(S'was'
p5244
S'appointed'
p5245
S'[[prp]]'
p5246
tp5247
F0.0006195786864931846
s(S'[[adj]]'
p5248
S'leader'
p5249
S'in'
p5250
tp5251
F0.0006195786864931846
s(S'[[det]]'
p5252
S'won'
p5253
S'[[det]]'
p5254
tp5255
F0.0012391573729863693
s(S'[[det]]'
p5256
S'founder'
p5257
S'of'
p5258
tp5259
F0.0006195786864931846
s(S'first'
p5260
S'appointed'
p5261
S'when'
p5262
tp5263
F0.0006195786864931846
s(S'twice'
p5264
S'won'
p5265
S'for'
p5266
tp5267
F0.0006195786864931846
s(S'being'
p5268
S'named'
p5269
S'of'
p5270
tp5271
F0.0006195786864931846
s(S'then'
p5272
S'left'
p5273
S'[[det]]'
p5274
tp5275
F0.0006195786864931846
s(S'[[det]]'
p5276
S'president'
p5277
S'of'
p5278
tp5279
F0.0012391573729863693
s(S'also'
p5280
S'served'
p5281
S'from'
p5282
tp5283
F0.0006195786864931846
s(S'[[con]]'
p5284
S'received'
p5285
S'in'
p5286
tp5287
F0.0006195786864931846
s(S'[[con]]'
p5288
S'worked'
p5289
S'with'
p5290
tp5291
F0.0006195786864931846
s(S'[[adj]]'
p5292
S'leader'
p5293
S'of'
p5294
tp5295
F0.0006195786864931846
s(S'to'
p5296
S'join'
p5297
S'[[det]]'
p5298
tp5299
F0.0006195786864931846
s(S'then'
p5300
S'recruited'
p5301
S'to'
p5302
tp5303
F0.0006195786864931846
s(S'is'
p5304
S'appointed'
p5305
S'as'
p5306
tp5307
F0.0006195786864931846
s(S'is'
p5308
S'appointed'
p5309
S'of'
p5310
tp5311
F0.0006195786864931846
s(S'is'
p5312
S'named'
p5313
S'[[con]]'
p5314
tp5315
F0.0006195786864931846
s(S'were'
p5316
S'appointed'
p5317
S'by'
p5318
tp5319
F0.0006195786864931846
s(S'be'
p5320
S'appointed'
p5321
S'at'
p5322
tp5323
F0.0006195786864931846
s(S'[[det]]'
p5324
S'worked'
p5325
S'for'
p5326
tp5327
F0.0006195786864931846
s(S'is'
p5328
S'named'
p5329
S'to'
p5330
tp5331
F0.0006195786864931846
s(S'[[con]]'
p5332
S'serves'
p5333
S'as'
p5334
tp5335
F0.0006195786864931846
s(S'nominated'
p5336
S'to'
p5337
g37
tp5338
F0.0006195786864931846
s(S'was'
p5339
S'retired'
p5340
S'from'
p5341
tp5342
F0.0006195786864931846
s(S'was'
p5343
S'hired'
p5344
S'from'
p5345
tp5346
F0.0006195786864931846
s(S'has'
p5347
S'worked'
p5348
S'again'
p5349
tp5350
F0.0006195786864931846
s(S'was'
p5351
S'appointed'
p5352
S'to'
p5353
tp5354
F0.0006195786864931846
s(S'until'
p5355
S'joined'
p5356
S'[[det]]'
p5357
tp5358
F0.0006195786864931846
s(g198
g199
g678
tp5359
F0.0006195786864931846
s(S'also'
p5360
S'founded'
p5361
S'for'
p5362
tp5363
F0.0006195786864931846
s(S'later'
p5364
S'appointed'
p5365
S'[[det]]'
p5366
tp5367
F0.0006195786864931846
s(S'also'
p5368
S'served'
p5369
S'along'
p5370
tp5371
F0.0006195786864931846
s(g4267
g4268
S'president'
p5372
tp5373
F0.0006195786864931846
s(S'[[adj]]'
p5374
S'served'
p5375
S'at'
p5376
tp5377
F0.0006195786864931846
s(S'also'
p5378
S'served'
p5379
S'[[num]]'
p5380
tp5381
F0.0006195786864931846
s(g3820
g3821
S'as'
p5382
tp5383
F0.0006195786864931846
s(S'also'
p5384
S'appointed'
p5385
S'for'
p5386
tp5387
F0.0006195786864931846
s(S'was'
p5388
S'recruited'
p5389
S'to'
p5390
tp5391
F0.0006195786864931846
s(S'became'
p5392
S'coach'
p5393
S'of'
p5394
tp5395
F0.0006195786864931846
s(S'[[det]]'
p5396
S'member'
p5397
S'[[adj]]'
p5398
tp5399
F0.0006195786864931846
s(S'[[con]]'
p5400
S'founded'
p5401
S'[[det]]'
p5402
tp5403
F0.0006195786864931846
s(S'then'
p5404
S'received'
p5405
S'at'
p5406
tp5407
F0.0006195786864931846
s(S'then'
p5408
S'worked'
p5409
S'along'
p5410
tp5411
F0.0006195786864931846
s(g145
S'team'
p5412
S'at'
p5413
tp5414
F0.0006195786864931846
s(S'who'
p5415
S'won'
p5416
S'[[det]]'
p5417
tp5418
F0.0006195786864931846
s(S'was'
p5419
S'appointed'
p5420
S'was'
p5421
tp5422
F0.0006195786864931846
s(S'was'
p5423
g4629
g4630
tp5424
F0.0012391573729863693
s(S'[[adj]]'
p5425
S'host'
p5426
S'[[con]]'
p5427
tp5428
F0.0006195786864931846
s(S'was'
p5429
S'professor'
p5430
S'[[det]]'
p5431
tp5432
F0.0006195786864931846
s(g4517
g1562
g1563
tp5433
F0.0006195786864931846
s(S'[[con]]'
p5434
S'joined'
p5435
S'[[adj]]'
p5436
tp5437
F0.0006195786864931846
s(S'been'
p5438
S'president'
p5439
S'[[con]]'
p5440
tp5441
F0.0006195786864931846
s(g5337
g37
g38
tp5442
F0.0006195786864931846
s(S'moved'
p5443
g3415
g3416
tp5444
F0.0006195786864931846
s(S'which'
p5445
S'won'
p5446
S'for'
p5447
tp5448
F0.0006195786864931846
s(S'[[det]]'
p5449
g5154
g5155
tp5450
F0.0006195786864931846
s(S'has'
p5451
S'moved'
p5452
S'on'
p5453
tp5454
F0.0006195786864931846
s(S'was'
p5455
S'hired'
p5456
S'[[con]]'
p5457
tp5458
F0.0006195786864931846
s(S'was'
p5459
S'head'
p5460
S'to'
p5461
tp5462
F0.0006195786864931846
s(S'also'
p5463
S'worked'
p5464
S'among'
p5465
tp5466
F0.0006195786864931846
s(S'been'
p5467
S'appointed'
p5468
S'for'
p5469
tp5470
F0.0006195786864931846
s(S'[[num]]'
p5471
S'joined'
p5472
S'[[det]]'
p5473
tp5474
F0.0006195786864931846
s(S'that'
p5475
S'won'
p5476
S'[[num]]'
p5477
tp5478
F0.0006195786864931846
s(S'was'
p5479
S'member'
p5480
S'in'
p5481
tp5482
F0.0006195786864931846
s(S'[[con]]'
p5483
S'serves'
p5484
S'on'
p5485
tp5486
F0.0006195786864931846
s(S'[[adj]]'
p5487
S'team'
p5488
S'against'
p5489
tp5490
F0.0006195786864931846
s(S'has'
p5491
S'served'
p5492
S'to'
p5493
tp5494
F0.0006195786864931846
s(S'also'
p5495
S'serves'
p5496
S'[[con]]'
p5497
tp5498
F0.0006195786864931846
s(S'also'
p5499
S'named'
p5500
S'at'
p5501
tp5502
F0.0006195786864931846
s(S'was'
p5503
S'resigned'
p5504
S'by'
p5505
tp5506
F0.0006195786864931846
s(g38
g39
g4207
tp5507
F0.0006195786864931846
s(S'was'
p5508
S'named'
p5509
S'with'
p5510
tp5511
F0.0006195786864931846
s(S'[[con]]'
p5512
S'taught'
p5513
S'at'
p5514
tp5515
F0.0006195786864931846
s(S'was'
p5516
S'recruited'
p5517
S'into'
p5518
tp5519
F0.0006195786864931846
s(S'be'
p5520
S'appointed'
p5521
S'of'
p5522
tp5523
F0.0006195786864931846
s(S'first'
p5524
S'joined'
p5525
S'[[det]]'
p5526
tp5527
F0.0006195786864931846
s(S'then'
p5528
S'won'
p5529
S'at'
p5530
tp5531
F0.0006195786864931846
s(S'when'
p5532
S'left'
p5533
S'[[det]]'
p5534
tp5535
F0.0006195786864931846
s(S'then'
p5536
S'entered'
p5537
S'[[det]]'
p5538
tp5539
F0.0006195786864931846
s(S'being'
p5540
S'appointed'
p5541
S'by'
p5542
tp5543
F0.0006195786864931846
s(S'also'
p5544
S'president'
p5545
S'of'
p5546
tp5547
F0.0006195786864931846
s(S'was'
p5548
S'named'
p5549
S'as'
p5550
tp5551
F0.0006195786864931846
s(S'again'
p5552
S'worked'
p5553
S'for'
p5554
tp5555
F0.0006195786864931846
s(S'also'
p5556
S'named'
p5557
S'[[det]]'
p5558
tp5559
F0.0006195786864931846
s(S'has'
p5560
S'served'
p5561
S'on'
p5562
tp5563
F0.0006195786864931846
s(S'received'
p5564
g1616
g1617
tp5565
F0.0006195786864931846
s(S'also'
p5566
S'taught'
p5567
S'for'
p5568
tp5569
F0.0006195786864931846
s(S'has'
p5570
S'named'
p5571
S'[[con]]'
p5572
tp5573
F0.0006195786864931846
s(S'then'
p5574
S'received'
p5575
S'in'
p5576
tp5577
F0.0006195786864931846
s(S'[[det]]'
p5578
S'cofounder'
p5579
S'[[det]]'
p5580
tp5581
F0.0006195786864931846
s(S'[[adj]]'
p5582
S'worked'
p5583
S'for'
p5584
tp5585
F0.0006195786864931846
s(S'was'
p5586
S'appointed'
p5587
S'before'
p5588
tp5589
F0.0006195786864931846
s(S'again'
p5590
S'named'
p5591
S'[[det]]'
p5592
tp5593
F0.0006195786864931846
s(S'then'
p5594
S'moved'
p5595
S'[[det]]'
p5596
tp5597
F0.0006195786864931846
s(S'has'
p5598
S'won'
p5599
S'for'
p5600
tp5601
F0.0006195786864931846
s(S'appointed'
p5602
S'professor'
p5603
S'[[con]]'
p5604
tp5605
F0.0006195786864931846
s(g1652
g1653
g2005
tp5606
F0.0006195786864931846
s(S'is'
p5607
S'professor'
p5608
S'in'
p5609
tp5610
F0.0006195786864931846
s(S'been'
p5611
S'promoted'
p5612
S'to'
p5613
tp5614
F0.0006195786864931846
s(S'[[det]]'
p5615
S'faculty'
p5616
S'in'
p5617
tp5618
F0.0006195786864931846
s(S'[[det]]'
p5619
S'professor'
p5620
S'from'
p5621
tp5622
F0.0006195786864931846
s(S'has'
p5623
S'received'
p5624
S'from'
p5625
tp5626
F0.0006195786864931846
s(S'to'
p5627
S'work'
p5628
S'at'
p5629
tp5630
F0.0006195786864931846
s(S'later'
p5631
S'served'
p5632
S'in'
p5633
tp5634
F0.0006195786864931846
s(S'instead'
p5635
S'appointed'
p5636
S'as'
p5637
tp5638
F0.0006195786864931846
s(S'also'
p5639
S'worked'
p5640
S'by'
p5641
tp5642
F0.0006195786864931846
s(S'[[det]]'
p5643
S'cofounder'
p5644
S'[[con]]'
p5645
tp5646
F0.0006195786864931846
s(S'being'
p5647
S'recruited'
p5648
S'to'
p5649
tp5650
F0.0006195786864931846
s.