(dp0
(S'also'
p1
S'appointed'
p2
S'in'
p3
tp4
F0.0019569471624266144
s(S'[[det]]'
p5
S'member'
p6
S'at'
p7
tp8
F0.003913894324853229
s(S'when'
p9
S'served'
p10
S'with'
p11
tp12
F0.0019569471624266144
s(S'[[con]]'
p13
S'served'
p14
S'with'
p15
tp16
F0.0019569471624266144
s(S'serve'
p17
S'as'
p18
S'[[det]]'
p19
tp20
F0.0019569471624266144
s(S'was'
p21
S'joined'
p22
S'in'
p23
tp24
F0.0019569471624266144
s(S'to'
p25
S'join'
p26
S'up'
p27
tp28
F0.0019569471624266144
s(S'to'
p29
S'[[det]]'
p30
S'member'
p31
tp32
F0.003913894324853229
s(S'later'
p33
S'join'
p34
S'[[det]]'
p35
tp36
F0.0019569471624266144
s(S'prevent'
p37
S'[[det]]'
p38
S'issue'
p39
tp40
F0.0019569471624266144
s(S'[[adj]]'
p41
S'member'
p42
S'[[det]]'
p43
tp44
F0.003913894324853229
s(S'also'
p45
S'led'
p46
S'[[det]]'
p47
tp48
F0.0019569471624266144
s(S'was'
p49
S'head'
p50
S'[[con]]'
p51
tp52
F0.0019569471624266144
s(S'to'
p53
S'join'
p54
S'[[num]]'
p55
tp56
F0.0019569471624266144
s(S'who'
p57
S'served'
p58
S'with'
p59
tp60
F0.0019569471624266144
s(S'instead'
p61
S'appointed'
p62
S'[[pro]]'
p63
tp64
F0.0019569471624266144
s(S'elected'
p65
S'member'
p66
S'[[det]]'
p67
tp68
F0.003913894324853229
s(S'[[det]]'
p69
S'member'
p70
S'when'
p71
tp72
F0.0019569471624266144
s(S'[[adj]]'
p73
S'elected'
p74
S'as'
p75
tp76
F0.0019569471624266144
s(S'[[det]]'
p77
S'member'
p78
S'until'
p79
tp80
F0.0019569471624266144
s(S'then'
p81
S'left'
p82
S'to'
p83
tp84
F0.0019569471624266144
s(S'also'
p85
S'served'
p86
S'until'
p87
tp88
F0.0019569471624266144
s(S'[[con]]'
p89
S'joined'
p90
S'[[det]]'
p91
tp92
F0.0019569471624266144
s(S'has'
p93
S'served'
p94
S'[[con]]'
p95
tp96
F0.0019569471624266144
s(S'[[con]]'
p97
S'served'
p98
S'at'
p99
tp100
F0.0019569471624266144
s(S'was'
p101
S'member'
p102
S'for'
p103
tp104
F0.0019569471624266144
s(S'is'
p105
S'member'
p106
S'[[con]]'
p107
tp108
F0.0019569471624266144
s(S'[[con]]'
p109
S'leader'
p110
S'of'
p111
tp112
F0.0019569471624266144
s(S'then'
p113
S'joined'
p114
S'to'
p115
tp116
F0.0019569471624266144
s(S'also'
p117
S'appointed'
p118
S'[[con]]'
p119
tp120
F0.0019569471624266144
s(S'then'
p121
S'joined'
p122
S'[[adj]]'
p123
tp124
F0.0019569471624266144
s(g38
g39
S'[[prp]]'
p125
tp126
F0.0019569471624266144
s(S'which'
p127
S'led'
p128
S'at'
p129
tp130
F0.0019569471624266144
s(S'had'
p131
S'joined'
p132
S'from'
p133
tp134
F0.0019569471624266144
s(S'to'
p135
S'join'
p136
S'at'
p137
tp138
F0.0019569471624266144
s(S'[[adj]]'
p139
S'served'
p140
S'on'
p141
tp142
F0.0019569471624266144
s(S'elected'
p143
S'as'
p144
S'[[adj]]'
p145
tp146
F0.003913894324853229
s(S'elected'
p147
S'[[det]]'
p148
S'member'
p149
tp150
F0.0136986301369863
s(S'[[num]]'
p151
S'served'
p152
S'as'
p153
tp154
F0.0019569471624266144
s(S'[[adj]]'
p155
S'leader'
p156
S'for'
p157
tp158
F0.0019569471624266144
s(S'became'
p159
S'head'
p160
S'at'
p161
tp162
F0.0019569471624266144
s(S'also'
p163
S'served'
p164
S'with'
p165
tp166
F0.0019569471624266144
s(S'[[pro]]'
p167
S'joined'
p168
S'[[det]]'
p169
tp170
F0.0019569471624266144
s(S'is'
p171
S'elected'
p172
S'leader'
p173
tp174
F0.0019569471624266144
s(S'as'
p175
S'head'
p176
S'of'
p177
tp178
F0.0019569471624266144
s(S'then'
p179
S'joined'
p180
S'side'
p181
tp182
F0.0019569471624266144
s(S'as'
p183
S'leader'
p184
S'of'
p185
tp186
F0.003913894324853229
s(S'when'
p187
S'joined'
p188
S'[[det]]'
p189
tp190
F0.0019569471624266144
s(S'[[adj]]'
p191
S'member'
p192
S'as'
p193
tp194
F0.0019569471624266144
s(S'then'
p195
S'served'
p196
S'before'
p197
tp198
F0.0019569471624266144
s(S'has'
p199
S'served'
p200
S'[[adj]]'
p201
tp202
F0.0019569471624266144
s(S'again'
p203
S'served'
p204
S'with'
p205
tp206
F0.0019569471624266144
s(S'also'
p207
S'appointed'
p208
S'on'
p209
tp210
F0.0019569471624266144
s(S'was'
p211
S'leader'
p212
S'of'
p213
tp214
F0.0019569471624266144
s(S'first'
p215
S'joined'
p216
S'[[det]]'
p217
tp218
F0.0019569471624266144
s(S'while'
p219
S'joined'
p220
S'[[det]]'
p221
tp222
F0.0019569471624266144
s(S'elected'
p223
S'as'
p224
S'member'
p225
tp226
F0.003913894324853229
s(S'also'
p227
S'served'
p228
S'[[det]]'
p229
tp230
F0.0019569471624266144
s(S'was'
p231
S'elected'
p232
g29
tp233
F0.007827788649706457
s(S'later'
p234
S'led'
p235
S'[[det]]'
p236
tp237
F0.0019569471624266144
s(S'member'
p238
S'[[con]]'
p239
S'later'
p240
tp241
F0.0019569471624266144
s(S'also'
p242
S'served'
p243
S'as'
p244
tp245
F0.0019569471624266144
s(S'twice'
p246
S'served'
p247
S'in'
p248
tp249
F0.0019569471624266144
s(S'was'
p250
S'elected'
p251
S'[[con]]'
p252
tp253
F0.005870841487279843
s(S'also'
p254
S'appointed'
p255
S'of'
p256
tp257
F0.0019569471624266144
s(S'later'
p258
S'appointed'
p259
S'at'
p260
tp261
F0.0019569471624266144
s(S'was'
p262
S'appointed'
p263
S'[[det]]'
p264
tp265
F0.0019569471624266144
s(S'[[adj]]'
p266
S'member'
p267
S'from'
p268
tp269
F0.0019569471624266144
s(S'had'
p270
S'joined'
p271
S'[[det]]'
p272
tp273
F0.0019569471624266144
s(S'matter'
p274
S'to'
p275
g37
tp276
F0.0019569471624266144
s(S'was'
p277
S'left'
p278
S'out'
p279
tp280
F0.0019569471624266144
s(S'had'
p281
S'left'
p282
S'for'
p283
tp284
F0.0019569471624266144
s(S'then'
p285
S'served'
p286
S'to'
p287
tp288
F0.0019569471624266144
s(S'first'
p289
S'served'
p290
S'in'
p291
tp292
F0.0019569471624266144
s(S'was'
p293
S'appointed'
p294
S'as'
p295
tp296
F0.0019569471624266144
s(S'to'
p297
S'head'
p298
S'[[det]]'
p299
tp300
F0.0019569471624266144
s(S'[[det]]'
p301
S'head'
p302
S'[[con]]'
p303
tp304
F0.0019569471624266144
s(S'[[det]]'
p305
g274
g275
tp306
F0.0019569471624266144
s(S'then'
p307
S'served'
p308
S'on'
p309
tp310
F0.0019569471624266144
s(S'[[det]]'
p311
S'elected'
p312
S'member'
p313
tp314
F0.005870841487279843
s(S'elected'
p315
S'[[con]]'
p316
S'[[adj]]'
p317
tp318
F0.0019569471624266144
s(S'soon'
p319
S'joined'
p320
S'[[det]]'
p321
tp322
F0.0019569471624266144
s(S'later'
p323
S'joined'
p324
S'[[con]]'
p325
tp326
F0.0019569471624266144
s(S'became'
p327
S'leader'
p328
S'of'
p329
tp330
F0.0019569471624266144
s(S'then'
p331
S'joined'
p332
S'[[num]]'
p333
tp334
F0.0019569471624266144
s(S'has'
p335
S'served'
p336
S'with'
p337
tp338
F0.0019569471624266144
s(S'[[pro]]'
p339
S'served'
p340
S'in'
p341
tp342
F0.0019569471624266144
s(S'later'
p343
S'served'
p344
S'as'
p345
tp346
F0.0019569471624266144
s(g232
g29
g30
tp347
F0.003913894324853229
s(S'[[adj]]'
p348
S'member'
p349
S'during'
p350
tp351
F0.0019569471624266144
s(S'formerly'
p352
S'served'
p353
S'to'
p354
tp355
F0.0019569471624266144
s(S'being'
p356
S'appointed'
p357
S'to'
p358
tp359
F0.0019569471624266144
s(S'later'
p360
S'appointed'
p361
S'as'
p362
tp363
F0.0019569471624266144
s(S'[[det]]'
p364
S'member'
p365
S'from'
p366
tp367
F0.0019569471624266144
s(S'[[det]]'
p368
S'member'
p369
S'which'
p370
tp371
F0.0019569471624266144
s(S'[[con]]'
p372
S'joined'
p373
S'from'
p374
tp375
F0.0019569471624266144
s(g252
S'[[det]]'
p376
S'member'
p377
tp378
F0.005870841487279843
s(S'being'
p379
S'appointed'
p380
S'of'
p381
tp382
F0.0019569471624266144
s(S'was'
p383
S'served'
p384
S'as'
p385
tp386
F0.0019569471624266144
s(S'was'
p387
S'leader'
p388
S'[[con]]'
p389
tp390
F0.0019569471624266144
s(S'member'
p391
S'of'
p392
S'[[det]]'
p393
tp394
F0.0019569471624266144
s(S'who'
p395
S'served'
p396
S'in'
p397
tp398
F0.0019569471624266144
s(S'again'
p399
S'appointed'
p400
S'to'
p401
tp402
F0.0019569471624266144
s(S'also'
p403
S'member'
p404
S'[[con]]'
p405
tp406
F0.0019569471624266144
s(S'being'
p407
S'appointed'
p408
S'at'
p409
tp410
F0.0019569471624266144
s(S'is'
p411
S'appointed'
p412
S'of'
p413
tp414
F0.0019569471624266144
s(S'[[con]]'
p415
S'appointed'
p416
S'[[pro]]'
p417
tp418
F0.0019569471624266144
s(S'been'
p419
S'elected'
p420
S'as'
p421
tp422
F0.0019569471624266144
s(S'was'
p423
S'left'
p424
S'with'
p425
tp426
F0.0019569471624266144
s(S'have'
p427
S'served'
p428
S'in'
p429
tp430
F0.0019569471624266144
s(S'who'
p431
S'joined'
p432
S'[[det]]'
p433
tp434
F0.0019569471624266144
s(S'has'
p435
S'served'
p436
S'as'
p437
tp438
F0.0019569471624266144
s(S'also'
p439
S'served'
p440
S'at'
p441
tp442
F0.0019569471624266144
s(S'[[con]]'
p443
S'led'
p444
S'to'
p445
tp446
F0.0019569471624266144
s(S'[[det]]'
p447
S'member'
p448
S'[[det]]'
p449
tp450
F0.007827788649706457
s(S'became'
p451
S'head'
p452
S'[[det]]'
p453
tp454
F0.0019569471624266144
s(S'then'
p455
S'left'
p456
S'for'
p457
tp458
F0.0019569471624266144
s(S'later'
p459
S'served'
p460
S'with'
p461
tp462
F0.0019569471624266144
s(S'instead'
p463
S'joined'
p464
S'[[det]]'
p465
tp466
F0.0019569471624266144
s(S'also'
p467
S'served'
p468
S'in'
p469
tp470
F0.0019569471624266144
s(S'[[det]]'
p471
S'head'
p472
S'at'
p473
tp474
F0.0019569471624266144
s(S'[[det]]'
p475
S'member'
p476
S'of'
p477
tp478
F0.023483365949119372
s(S'formerly'
p479
S'served'
p480
S'at'
p481
tp482
F0.0019569471624266144
s(S'elected'
p483
S'[[det]]'
p484
S'[[adj]]'
p485
tp486
F0.005870841487279843
s(S'[[adj]]'
p487
S'head'
p488
S'[[con]]'
p489
tp490
F0.0019569471624266144
s(S'had'
p491
S'served'
p492
S'at'
p493
tp494
F0.0019569471624266144
s(S'is'
p495
S'appointed'
p496
S'[[det]]'
p497
tp498
F0.0019569471624266144
s(S'[[adj]]'
p499
S'head'
p500
S'of'
p501
tp502
F0.0019569471624266144
s(g239
g240
S'elected'
p503
tp504
F0.0019569471624266144
s(S'became'
p505
S'head'
p506
S'of'
p507
tp508
F0.0019569471624266144
s(S'become'
p509
S'head'
p510
S'at'
p511
tp512
F0.0019569471624266144
s(S'[[det]]'
p513
S'member'
p514
S'on'
p515
tp516
F0.0019569471624266144
s(S'has'
p517
S'left'
p518
S'[[det]]'
p519
tp520
F0.0019569471624266144
s(S'[[num]]'
p521
S'led'
p522
S'[[det]]'
p523
tp524
F0.0019569471624266144
s(S'then'
p525
S'served'
p526
S'for'
p527
tp528
F0.0019569471624266144
s(S'[[con]]'
p529
S'appointed'
p530
S'as'
p531
tp532
F0.0019569471624266144
s(S'[[mod]]'
p533
S'join'
p534
S'[[det]]'
p535
tp536
F0.0019569471624266144
s(S'just'
p537
S'left'
p538
S'for'
p539
tp540
F0.0019569471624266144
s(S'later'
p541
S'served'
p542
S'on'
p543
tp544
F0.0019569471624266144
s(S'have'
p545
S'joined'
p546
S'[[det]]'
p547
tp548
F0.0019569471624266144
s(S'[[adj]]'
p549
S'member'
p550
S'on'
p551
tp552
F0.0019569471624266144
s(S'had'
p553
S'joined'
p554
S'side'
p555
tp556
F0.0019569471624266144
s(S'be'
p557
S'appointed'
p558
S'to'
p559
tp560
F0.0019569471624266144
s(S'[[det]]'
p561
S'member'
p562
S'as'
p563
tp564
F0.0019569471624266144
s(S'where'
p565
S'joined'
p566
S'[[det]]'
p567
tp568
F0.0019569471624266144
s(S'was'
p569
S'joined'
p570
S'on'
p571
tp572
F0.0019569471624266144
s(S'who'
p573
S'served'
p574
S'[[con]]'
p575
tp576
F0.0019569471624266144
s(g144
g145
S'member'
p577
tp578
F0.003913894324853229
s(S'was'
p579
S'member'
p580
S'at'
p581
tp582
F0.0019569471624266144
s(S'is'
p583
S'head'
p584
S'at'
p585
tp586
F0.0019569471624266144
s(S'[[adj]]'
p587
S'member'
p588
S'of'
p589
tp590
F0.009784735812133072
s(S'as'
p591
S'[[det]]'
p592
S'member'
p593
tp594
F0.0136986301369863
s(S'also'
p595
S'appointed'
p596
S'as'
p597
tp598
F0.0019569471624266144
s(S'twice'
p599
S'served'
p600
S'as'
p601
tp602
F0.0019569471624266144
s(S'[[det]]'
p603
S'leader'
p604
S'to'
p605
tp606
F0.0019569471624266144
s(S'later'
p607
S'joined'
p608
S'at'
p609
tp610
F0.0019569471624266144
s(S's'
p611
S'bid'
p612
S'to'
p613
tp614
F0.0019569471624266144
s(S'[[con]]'
p615
S'appointed'
p616
S'to'
p617
tp618
F0.0019569471624266144
s(S'elected'
p619
S'as'
p620
S'leader'
p621
tp622
F0.0019569471624266144
s(S'to'
p623
S'join'
p624
S'[[adj]]'
p625
tp626
F0.0019569471624266144
s(S'where'
p627
S'served'
p628
S'with'
p629
tp630
F0.0019569471624266144
s(S'[[det]]'
p631
S'leader'
p632
S'for'
p633
tp634
F0.0019569471624266144
s(S'also'
p635
S'joined'
p636
S'[[det]]'
p637
tp638
F0.0019569471624266144
s(S'has'
p639
S'served'
p640
S'in'
p641
tp642
F0.0019569471624266144
s(S'[[adj]]'
p643
S'served'
p644
S'as'
p645
tp646
F0.0019569471624266144
s(S'made'
p647
S'head'
p648
S'at'
p649
tp650
F0.0019569471624266144
s(S'became'
p651
S'member'
p652
S'[[det]]'
p653
tp654
F0.0019569471624266144
s(S'is'
p655
S'head'
p656
S'of'
p657
tp658
F0.0019569471624266144
s(S'then'
p659
S'served'
p660
S'with'
p661
tp662
F0.0019569471624266144
s(S'to'
p663
S'lead'
p664
S'[[det]]'
p665
tp666
F0.003913894324853229
s(S'was'
p667
S'head'
p668
S'at'
p669
tp670
F0.0019569471624266144
s(S'been'
p671
S'appointed'
p672
S'at'
p673
tp674
F0.0019569471624266144
s(S'who'
p675
S'left'
p676
S'[[det]]'
p677
tp678
F0.0019569471624266144
s(S'has'
p679
S'led'
p680
S'[[det]]'
p681
tp682
F0.0019569471624266144
s(S'[[con]]'
p683
S'head'
p684
S'of'
p685
tp686
F0.0019569471624266144
s(S'was'
p687
S'member'
p688
S'of'
p689
tp690
F0.0019569471624266144
s(S'was'
p691
S'appointed'
p692
S'when'
p693
tp694
F0.0019569471624266144
s(S'[[det]]'
p695
S'member'
p696
g611
tp697
F0.0019569471624266144
s(S'has'
p698
S'served'
p699
S'before'
p700
tp701
F0.0019569471624266144
s(S'is'
p702
S'member'
p703
S'of'
p704
tp705
F0.0019569471624266144
s(S'was'
p706
S'head'
p707
S'[[det]]'
p708
tp709
F0.0019569471624266144
s(S'have'
p710
S'left'
p711
S'[[det]]'
p712
tp713
F0.0019569471624266144
s(S'then'
p714
S'joined'
p715
S'then'
p716
tp717
F0.0019569471624266144
s(S'who'
p718
S'joined'
p719
S'from'
p720
tp721
F0.0019569471624266144
s(S'was'
p722
S'elected'
p723
S'[[adj]]'
p724
tp725
F0.0019569471624266144
s(S'again'
p726
S'appointed'
p727
S'of'
p728
tp729
F0.0019569471624266144
s(S'elected'
p730
g591
g592
tp731
F0.0136986301369863
s(S'had'
p732
S'left'
p733
S'[[con]]'
p734
tp735
F0.0019569471624266144
s(S'has'
p736
S'served'
p737
S'until'
p738
tp739
F0.0019569471624266144
s(S'again'
p740
S'served'
p741
S'to'
p742
tp743
F0.0019569471624266144
s(S'first'
p744
S'served'
p745
S'with'
p746
tp747
F0.0019569471624266144
s(S'was'
p748
g143
g144
tp749
F0.019569471624266144
s(S'[[adj]]'
p750
S'head'
p751
S'at'
p752
tp753
F0.0019569471624266144
s(S'has'
p754
S'served'
p755
S'[[det]]'
p756
tp757
F0.0019569471624266144
s(S'later'
p758
S'joined'
p759
S'[[det]]'
p760
tp761
F0.0019569471624266144
s(S'later'
p762
S'left'
p763
S'[[det]]'
p764
tp765
F0.0019569471624266144
s(S'to'
p766
S'lead'
p767
S'in'
p768
tp769
F0.0019569471624266144
s(S'then'
p770
S'left'
p771
S'[[con]]'
p772
tp773
F0.0019569471624266144
s(S'[[mod]]'
p774
S'join'
p775
S'up'
p776
tp777
F0.0019569471624266144
s(g392
g393
S'elected'
p778
tp779
F0.0019569471624266144
s(S'later'
p780
S'appointed'
p781
S'[[pro]]'
p782
tp783
F0.0019569471624266144
s(S'is'
p784
S'appointed'
p785
S'[[con]]'
p786
tp787
F0.0019569471624266144
s(S'became'
p788
S'member'
p789
S'of'
p790
tp791
F0.0019569471624266144
s(S'also'
p792
S'appointed'
p793
S'at'
p794
tp795
F0.0019569471624266144
s(S'[[num]]'
p796
S'served'
p797
S'on'
p798
tp799
F0.0019569471624266144
s(S'[[con]]'
p800
S'member'
p801
S'of'
p802
tp803
F0.0019569471624266144
s(S'[[adj]]'
p804
S'member'
p805
S'for'
p806
tp807
F0.003913894324853229
s(S'then'
p808
S'appointed'
p809
S'[[adj]]'
p810
tp811
F0.0019569471624266144
s(S'has'
p812
S'served'
p813
S'for'
p814
tp815
F0.0019569471624266144
s(S'was'
p816
g483
g484
tp817
F0.023483365949119372
s(S'also'
p818
S'served'
p819
S'[[adj]]'
p820
tp821
F0.0019569471624266144
s(S'was'
p822
S'appointed'
p823
S'[[con]]'
p824
tp825
F0.0019569471624266144
s(S'was'
p826
S'joined'
p827
S'at'
p828
tp829
F0.0019569471624266144
s(S'[[det]]'
p830
S'served'
p831
S'in'
p832
tp833
F0.0019569471624266144
s(S'soon'
p834
S'left'
p835
S'to'
p836
tp837
F0.0019569471624266144
s(S'been'
p838
S'appointed'
p839
S'of'
p840
tp841
F0.0019569471624266144
s(S'been'
p842
S'appointed'
p843
S'to'
p844
tp845
F0.0019569471624266144
s(S'then'
p846
S'joined'
p847
S'with'
p848
tp849
F0.0019569471624266144
s(S'then'
p850
S'appointed'
p851
S'[[num]]'
p852
tp853
F0.0019569471624266144
s(S'was'
p854
S'member'
p855
S'[[con]]'
p856
tp857
F0.0019569471624266144
s(S'[[con]]'
p858
S'joined'
p859
S'of'
p860
tp861
F0.0019569471624266144
s(S'made'
p862
S'head'
p863
S'of'
p864
tp865
F0.0019569471624266144
s(S'then'
p866
S'appointed'
p867
S'[[pro]]'
p868
tp869
F0.0019569471624266144
s(S'[[con]]'
p870
S'was'
p871
S'elected'
p872
tp873
F0.007827788649706457
s(S'[[det]]'
p874
S'member'
p875
S'who'
p876
tp877
F0.0019569471624266144
s(S'had'
p878
S'appointed'
p879
S'to'
p880
tp881
F0.0019569471624266144
s(S'then'
p882
S'appointed'
p883
S'to'
p884
tp885
F0.0019569471624266144
s(S'[[num]]'
p886
S'member'
p887
S'of'
p888
tp889
F0.0019569471624266144
s(S'had'
p890
S'served'
p891
S'[[det]]'
p892
tp893
F0.0019569471624266144
s(S'[[mod]]'
p894
S'join'
p895
S'at'
p896
tp897
F0.0019569471624266144
s(S'been'
p898
S'appointed'
p899
S'as'
p900
tp901
F0.0019569471624266144
s(S'[[det]]'
p902
S'head'
p903
S'in'
p904
tp905
F0.0019569471624266144
s(S'[[con]]'
p906
S'served'
p907
S'in'
p908
tp909
F0.0019569471624266144
s(g484
g485
S'member'
p910
tp911
F0.005870841487279843
s(S'then'
p912
S'joined'
p913
S'[[con]]'
p914
tp915
F0.0019569471624266144
s(g723
g724
S'member'
p916
tp917
F0.0019569471624266144
s(S'had'
p918
S'served'
p919
S'with'
p920
tp921
F0.0019569471624266144
s(S'had'
p922
S'left'
p923
S'[[adj]]'
p924
tp925
F0.0019569471624266144
s(S'[[det]]'
p926
S'leader'
p927
S'of'
p928
tp929
F0.003913894324853229
s(S'elected'
p930
S'member'
p931
S'of'
p932
tp933
F0.003913894324853229
s(S'[[con]]'
p934
S'left'
p935
S'[[det]]'
p936
tp937
F0.0019569471624266144
s(S'then'
p938
S'led'
p939
S'[[det]]'
p940
tp941
F0.0019569471624266144
s(S'been'
p942
S'appointed'
p943
S'[[con]]'
p944
tp945
F0.0019569471624266144
s(S'then'
p946
S'appointed'
p947
S'at'
p948
tp949
F0.0019569471624266144
s(S'had'
p950
S'served'
p951
S'on'
p952
tp953
F0.0019569471624266144
s(S'[[det]]'
p954
S'left'
p955
S'of'
p956
tp957
F0.0019569471624266144
s(S'[[con]]'
p958
S'served'
p959
S'on'
p960
tp961
F0.0019569471624266144
s(S'become'
p962
S'head'
p963
S'of'
p964
tp965
F0.0019569471624266144
s(S'was'
p966
S'appointed'
p967
S'at'
p968
tp969
F0.0019569471624266144
s(S'be'
p970
S'appointed'
p971
S'at'
p972
tp973
F0.0019569471624266144
s(S'[[det]]'
p974
S'member'
p975
S'[[num]]'
p976
tp977
F0.0019569471624266144
s(S'was'
p978
S'appointed'
p979
S'in'
p980
tp981
F0.0019569471624266144
s(g172
g173
S'of'
p982
tp983
F0.003913894324853229
s(S'to'
p984
S'member'
p985
S'of'
p986
tp987
F0.0019569471624266144
s(S'then'
p988
S'joined'
p989
S'on'
p990
tp991
F0.0019569471624266144
s(S'elected'
p992
S'[[det]]'
p993
S'leader'
p994
tp995
F0.003913894324853229
s(S'again'
p996
S'led'
p997
S'[[det]]'
p998
tp999
F0.0019569471624266144
s(S'later'
p1000
S'appointed'
p1001
S'of'
p1002
tp1003
F0.0019569471624266144
s(S'[[adj]]'
p1004
S'appointed'
p1005
S'as'
p1006
tp1007
F0.0019569471624266144
s(S'[[num]]'
p1008
S'served'
p1009
S'for'
p1010
tp1011
F0.0019569471624266144
s(S'[[adj]]'
p1012
S'leader'
p1013
S'[[det]]'
p1014
tp1015
F0.0019569471624266144
s(S'formerly'
p1016
S'served'
p1017
S'for'
p1018
tp1019
F0.0019569471624266144
s(g251
g252
g376
tp1020
F0.005870841487279843
s(S'then'
p1021
S'head'
p1022
S'of'
p1023
tp1024
F0.0019569471624266144
s(S'was'
p1025
S'appointed'
p1026
S'[[adj]]'
p1027
tp1028
F0.0019569471624266144
s(S'also'
p1029
S'served'
p1030
S'for'
p1031
tp1032
F0.0019569471624266144
s(S'then'
p1033
S'joined'
p1034
S'of'
p1035
tp1036
F0.0019569471624266144
s(S'is'
p1037
S'appointed'
p1038
S'at'
p1039
tp1040
F0.0019569471624266144
s(S'also'
p1041
S'served'
p1042
S'[[con]]'
p1043
tp1044
F0.0019569471624266144
s(S'became'
p1045
S'head'
p1046
S'for'
p1047
tp1048
F0.0019569471624266144
s(S'[[det]]'
p1049
S'member'
p1050
S'has'
p1051
tp1052
F0.0019569471624266144
s(S'[[con]]'
p1053
S'led'
p1054
S'[[det]]'
p1055
tp1056
F0.0019569471624266144
s(S'where'
p1057
S'served'
p1058
S'in'
p1059
tp1060
F0.0019569471624266144
s(S'who'
p1061
S'served'
p1062
S'as'
p1063
tp1064
F0.0019569471624266144
s(S'been'
p1065
S'elected'
p1066
S'[[det]]'
p1067
tp1068
F0.0019569471624266144
s(S'since'
p1069
S'left'
p1070
S'[[det]]'
p1071
tp1072
F0.0019569471624266144
s(S'member'
p1073
g870
g871
tp1074
F0.007827788649706457
s(S'with'
p1075
S'joined'
p1076
S'[[det]]'
p1077
tp1078
F0.0019569471624266144
s(S'[[det]]'
p1079
S'member'
p1080
S'to'
p1081
tp1082
F0.0019569471624266144
s(S'elected'
p1083
g984
g985
tp1084
F0.0019569471624266144
s(S'[[adj]]'
p1085
S'leader'
p1086
S'in'
p1087
tp1088
F0.0019569471624266144
s(S'is'
p1089
S'member'
p1090
S'[[det]]'
p1091
tp1092
F0.0019569471624266144
s(S'[[num]]'
p1093
S'served'
p1094
S'in'
p1095
tp1096
F0.0019569471624266144
s(S'then'
p1097
S'appointed'
p1098
S'of'
p1099
tp1100
F0.0019569471624266144
s(S'then'
p1101
S'left'
p1102
S'[[det]]'
p1103
tp1104
F0.0019569471624266144
s(S'when'
p1105
S'led'
p1106
S'[[det]]'
p1107
tp1108
F0.0019569471624266144
s(S'then'
p1109
S'joined'
p1110
S'[[det]]'
p1111
tp1112
F0.0019569471624266144
s(S'was'
p1113
S'member'
p1114
S'[[num]]'
p1115
tp1116
F0.0019569471624266144
s(S'that'
p1117
S'led'
p1118
S'at'
p1119
tp1120
F0.0019569471624266144
s(S'where'
p1121
S'led'
p1122
S'[[det]]'
p1123
tp1124
F0.0019569471624266144
s(S'[[adj]]'
p1125
S'leader'
p1126
S'of'
p1127
tp1128
F0.0019569471624266144
s(S'to'
p1129
S'join'
p1130
S'[[det]]'
p1131
tp1132
F0.0019569471624266144
s(S'had'
p1133
S'left'
p1134
S'[[det]]'
p1135
tp1136
F0.0019569471624266144
s(S'that'
p1137
S'led'
p1138
S'[[det]]'
p1139
tp1140
F0.0019569471624266144
s(g240
g503
S'[[det]]'
p1141
tp1142
F0.0019569471624266144
s(S'[[det]]'
p1143
S'head'
p1144
S'of'
p1145
tp1146
F0.0019569471624266144
s(S'has'
p1147
S'served'
p1148
S'where'
p1149
tp1150
F0.0019569471624266144
s(S'elected'
p1151
S'leader'
p1152
S'[[det]]'
p1153
tp1154
F0.0019569471624266144
s(S'[[con]]'
p1155
S'served'
p1156
S'for'
p1157
tp1158
F0.0019569471624266144
s(S'was'
p1159
S'appointed'
p1160
S'[[num]]'
p1161
tp1162
F0.0019569471624266144
s(S'first'
p1163
S'joined'
p1164
S'[[con]]'
p1165
tp1166
F0.0019569471624266144
s(S'was'
p1167
S'appointed'
p1168
S'of'
p1169
tp1170
F0.0019569471624266144
s(S'elected'
p1171
S'member'
p1172
S'[[con]]'
p1173
tp1174
F0.003913894324853229
s(S'as'
p1175
S'member'
p1176
S'of'
p1177
tp1178
F0.003913894324853229
s(S'nominated'
p1179
S'to'
p1180
g17
tp1181
F0.0019569471624266144
s(S'which'
p1182
S'led'
p1183
S'[[det]]'
p1184
tp1185
F0.0019569471624266144
s(S'[[con]]'
p1186
S'joined'
p1187
S'at'
p1188
tp1189
F0.0019569471624266144
s(S'was'
p1190
S'appointed'
p1191
S'to'
p1192
tp1193
F0.0019569471624266144
s(S'until'
p1194
S'joined'
p1195
S'[[det]]'
p1196
tp1197
F0.0019569471624266144
s(S'later'
p1198
S'appointed'
p1199
S'[[det]]'
p1200
tp1201
F0.0019569471624266144
s(S'was'
p1202
S'appointed'
p1203
S'for'
p1204
tp1205
F0.0019569471624266144
s(S'[[adj]]'
p1206
S'member'
p1207
S'in'
p1208
tp1209
F0.0019569471624266144
s(S'[[adj]]'
p1210
S'served'
p1211
S'at'
p1212
tp1213
F0.0019569471624266144
s(S'[[adj]]'
p1214
S'member'
p1215
S'[[num]]'
p1216
tp1217
F0.0019569471624266144
s(S'also'
p1218
S'served'
p1219
S'[[num]]'
p1220
tp1221
F0.0019569471624266144
s(S'[[adj]]'
p1222
S'served'
p1223
S'for'
p1224
tp1225
F0.0019569471624266144
s(S'[[con]]'
p1226
S'served'
p1227
S'[[det]]'
p1228
tp1229
F0.0019569471624266144
s(S'[[adj]]'
p1230
S'member'
p1231
S'at'
p1232
tp1233
F0.003913894324853229
s(S'never'
p1234
S'left'
p1235
S'[[det]]'
p1236
tp1237
F0.0019569471624266144
s(S'formerly'
p1238
S'served'
p1239
S'in'
p1240
tp1241
F0.0019569471624266144
s(S'also'
p1242
S'member'
p1243
S'of'
p1244
tp1245
F0.0019569471624266144
s(S'first'
p1246
S'appointed'
p1247
S'to'
p1248
tp1249
F0.0019569471624266144
s(S'[[det]]'
p1250
S'member'
p1251
S'[[adj]]'
p1252
tp1253
F0.0019569471624266144
s(S'was'
p1254
S'elected'
p1255
S'leader'
p1256
tp1257
F0.003913894324853229
s(S'also'
p1258
S'appointed'
p1259
S'to'
p1260
tp1261
F0.0019569471624266144
s(S'was'
p1262
S'appointed'
p1263
S'was'
p1264
tp1265
F0.0019569471624266144
s(g39
g125
S'position'
p1266
tp1267
F0.0019569471624266144
s(S'has'
p1268
S'joined'
p1269
S'[[det]]'
p1270
tp1271
F0.0019569471624266144
s(S'[[con]]'
p1272
S'member'
p1273
S'[[det]]'
p1274
tp1275
F0.0019569471624266144
s(S'as'
p1276
S'led'
p1277
S'[[det]]'
p1278
tp1279
F0.0019569471624266144
s(S'had'
p1280
S'served'
p1281
S'in'
p1282
tp1283
F0.0019569471624266144
s(S'has'
p1284
S'left'
p1285
S'[[con]]'
p1286
tp1287
F0.0019569471624266144
s(S'soon'
p1288
S'left'
p1289
S'[[det]]'
p1290
tp1291
F0.0019569471624266144
s(S'[[con]]'
p1292
S'joined'
p1293
S'[[adj]]'
p1294
tp1295
F0.0019569471624266144
s(g1180
g17
g18
tp1296
F0.0019569471624266144
s(S'is'
p1297
S'head'
p1298
S'[[det]]'
p1299
tp1300
F0.0019569471624266144
s(g275
g37
g38
tp1301
F0.0019569471624266144
s(S'[[adj]]'
p1302
S'joined'
p1303
S'[[det]]'
p1304
tp1305
F0.0019569471624266144
s(S'[[con]]'
p1306
S'appointed'
p1307
S'of'
p1308
tp1309
F0.0019569471624266144
s(S'[[con]]'
p1310
S'member'
p1311
S'[[con]]'
p1312
tp1313
F0.0019569471624266144
s(S'[[adj]]'
p1314
S'member'
p1315
S'[[adj]]'
p1316
tp1317
F0.0019569471624266144
s(S'also'
p1318
S'elected'
p1319
S'[[con]]'
p1320
tp1321
F0.0019569471624266144
s(S'was'
p1322
S'elected'
p1323
S'member'
p1324
tp1325
F0.007827788649706457
s(S'was'
p1326
S'head'
p1327
S'to'
p1328
tp1329
F0.0019569471624266144
s(S'been'
p1330
S'appointed'
p1331
S'for'
p1332
tp1333
F0.0019569471624266144
s(S'[[num]]'
p1334
S'joined'
p1335
S'[[det]]'
p1336
tp1337
F0.0019569471624266144
s(S'was'
p1338
S'member'
p1339
S'in'
p1340
tp1341
F0.0019569471624266144
s(S'then'
p1342
S'served'
p1343
S'[[det]]'
p1344
tp1345
F0.0019569471624266144
s(S'was'
p1346
S'head'
p1347
S'of'
p1348
tp1349
F0.0019569471624266144
s(S'has'
p1350
S'served'
p1351
S'to'
p1352
tp1353
F0.0019569471624266144
s(S'later'
p1354
S'served'
p1355
S'[[con]]'
p1356
tp1357
F0.0019569471624266144
s(S'became'
p1358
S'member'
p1359
S'for'
p1360
tp1361
F0.0019569471624266144
s(S'also'
p1362
S'led'
p1363
S'[[con]]'
p1364
tp1365
F0.0019569471624266144
s(S'[[adj]]'
p1366
S'member'
p1367
S'[[con]]'
p1368
tp1369
F0.003913894324853229
s(g18
g19
S'judge'
p1370
tp1371
F0.0019569471624266144
s(S'[[det]]'
p1372
S'leader'
p1373
S'[[con]]'
p1374
tp1375
F0.0019569471624266144
s(S'[[det]]'
p1376
S'member'
p1377
S'[[con]]'
p1378
tp1379
F0.011741682974559686
s(g125
g1266
S'as'
p1380
tp1381
F0.0019569471624266144
s(S'[[con]]'
p1382
S'left'
p1383
S'to'
p1384
tp1385
F0.0019569471624266144
s(S'be'
p1386
S'appointed'
p1387
S'of'
p1388
tp1389
F0.0019569471624266144
s(S'had'
p1390
S'led'
p1391
S'[[det]]'
p1392
tp1393
F0.0019569471624266144
s(S'when'
p1394
S'left'
p1395
S'[[det]]'
p1396
tp1397
F0.0019569471624266144
s(S'[[pro]]'
p1398
S'led'
p1399
S'[[det]]'
p1400
tp1401
F0.0019569471624266144
s(S'has'
p1402
S'served'
p1403
S'at'
p1404
tp1405
F0.0019569471624266144
s(S'then'
p1406
S'served'
p1407
S'at'
p1408
tp1409
F0.0019569471624266144
s(S'been'
p1410
S'appointed'
p1411
S'in'
p1412
tp1413
F0.0019569471624266144
s(S'has'
p1414
S'served'
p1415
S'on'
p1416
tp1417
F0.0019569471624266144
s(S'then'
p1418
S'served'
p1419
S'in'
p1420
tp1421
F0.0019569471624266144
s(S'to'
p1422
S'head'
p1423
S'at'
p1424
tp1425
F0.0019569471624266144
s(S'later'
p1426
S'served'
p1427
S'for'
p1428
tp1429
F0.0019569471624266144
s(S'was'
p1430
S'member'
p1431
S'[[det]]'
p1432
tp1433
F0.0019569471624266144
s(S'being'
p1434
S'appointed'
p1435
S'as'
p1436
tp1437
F0.0019569471624266144
s(S'was'
p1438
S'appointed'
p1439
S'on'
p1440
tp1441
F0.0019569471624266144
s(S'was'
p1442
S'appointed'
p1443
S'before'
p1444
tp1445
F0.0019569471624266144
s(S'[[det]]'
p1446
S'member'
p1447
S'for'
p1448
tp1449
F0.005870841487279843
s(S'also'
p1450
S'appointed'
p1451
S'[[det]]'
p1452
tp1453
F0.0019569471624266144
s(g1323
g1324
S'for'
p1454
tp1455
F0.0019569471624266144
s(S'[[det]]'
p1456
S'head'
p1457
S'[[det]]'
p1458
tp1459
F0.0019569471624266144
s(S'later'
p1460
S'served'
p1461
S'[[adj]]'
p1462
tp1463
F0.0019569471624266144
s(S'also'
p1464
S'served'
p1465
S'from'
p1466
tp1467
F0.0019569471624266144
s(S'was'
p1468
S'joined'
p1469
S'[[det]]'
p1470
tp1471
F0.0019569471624266144
s(S'also'
p1472
S'served'
p1473
S'to'
p1474
tp1475
F0.0019569471624266144
s(S'had'
p1476
S'joined'
p1477
S'of'
p1478
tp1479
F0.0019569471624266144
s(S'also'
p1480
S'elected'
p1481
S'[[det]]'
p1482
tp1483
F0.0019569471624266144
s(S'later'
p1484
S'left'
p1485
S'for'
p1486
tp1487
F0.0019569471624266144
s(S'had'
p1488
S'served'
p1489
S'as'
p1490
tp1491
F0.0019569471624266144
s(S'also'
p1492
S'served'
p1493
S'on'
p1494
tp1495
F0.0019569471624266144
s(S'bid'
p1496
g766
g767
tp1497
F0.005870841487279843
s(S'become'
p1498
S'leader'
p1499
S'of'
p1500
tp1501
F0.0019569471624266144
s(g19
g1370
S'of'
p1502
tp1503
F0.0019569471624266144
s(S'[[adj]]'
p1504
S'appointed'
p1505
S'to'
p1506
tp1507
F0.0019569471624266144
s(S'later'
p1508
S'served'
p1509
S'in'
p1510
tp1511
F0.0019569471624266144
s(S'[[mod]]'
p1512
S'join'
p1513
S'[[adj]]'
p1514
tp1515
F0.0019569471624266144
s(S'[[det]]'
p1516
S'leader'
p1517
S'at'
p1518
tp1519
F0.0019569471624266144
s(g316
g317
S'member'
p1520
tp1521
F0.0019569471624266144
s(S'later'
p1522
S'served'
p1523
S'at'
p1524
tp1525
F0.0019569471624266144
s(S'was'
p1526
S'head'
p1527
S'for'
p1528
tp1529
F0.0019569471624266144
s(S'again'
p1530
S'joined'
p1531
S'[[det]]'
p1532
tp1533
F0.0019569471624266144
s(S'[[det]]'
p1534
S'leader'
p1535
S'in'
p1536
tp1537
F0.0019569471624266144
s(S'[[adj]]'
p1538
S'head'
p1539
S'[[det]]'
p1540
tp1541
F0.0019569471624266144
s(S'[[det]]'
p1542
S'member'
p1543
S'in'
p1544
tp1545
F0.0019569471624266144
s(S'also'
p1546
S'served'
p1547
S'of'
p1548
tp1549
F0.0019569471624266144
s.