(dp0
(S'highest'
p1
S'peak'
p2
S'of'
p3
tp4
F0.16666666666666666
s(S'[[con]]'
p5
S'[[adj]]'
p6
S'highest'
p7
tp8
F0.05555555555555555
s(S'[[det]]'
p9
S'subsidiary'
p10
S'summit'
p11
tp12
F0.05555555555555555
s(S'highest'
p13
S'[[adj]]'
p14
g1
tp15
F0.05555555555555555
s(S'[[det]]'
p16
S'highest'
p17
g5
tp18
F0.05555555555555555
s(S'[[adj]]'
p19
S'summit'
p20
S'of'
p21
tp22
F0.05555555555555555
s(g10
g11
S'of'
p23
tp24
F0.05555555555555555
s(g17
g5
g6
tp25
F0.05555555555555555
s(S'[[adj]]'
p26
S'highest'
p27
S'peak'
p28
tp29
F0.16666666666666666
s(S'highest'
p30
S'peak'
p31
S'in'
p32
tp33
F0.05555555555555555
s(S'[[det]]'
p34
S'highest'
p35
S'peak'
p36
tp37
F0.16666666666666666
s(S'[[det]]'
p38
g13
g14
tp39
F0.05555555555555555
s.