(dp0
(S's'
p1
S'oldest'
p2
S'daughter'
p3
tp4
F0.000564334085778781
s(S'ref'
p5
S'name'
p6
S'that'
p7
tp8
F0.000564334085778781
s(S'[[prp]]'
p9
S'son'
p10
S'who'
p11
tp12
F0.000564334085778781
s(S'younger'
p13
S'son'
p14
S'of'
p15
tp16
F0.001128668171557562
s(S'wrote'
p17
S'that'
p18
S'lt'
p19
tp20
F0.000564334085778781
s(S'history'
p21
S'for'
p22
S'of'
p23
tp24
F0.000564334085778781
s(S'is'
p25
S'[[det]]'
p26
S'son'
p27
tp28
F0.000564334085778781
s(S'[[det]]'
p29
S'youngest'
p30
S'son'
p31
tp32
F0.000564334085778781
s(S'also'
p33
S'known'
p34
S'as'
p35
tp36
F0.001128668171557562
s(S'manager'
p37
S'lt'
p38
S'ref'
p39
tp40
F0.000564334085778781
s(S'name'
p41
S'is'
p42
S'given'
p43
tp44
F0.000564334085778781
s(S'gt'
p45
S'[[adj]]'
p46
S'ref'
p47
tp48
F0.000564334085778781
s(S'[[det]]'
p49
S'brother'
p50
S'to'
p51
tp52
F0.000564334085778781
s(S'ref'
p53
S'name'
p54
S'lt'
p55
tp56
F0.000564334085778781
s(S'[[con]]'
p57
S'[[prp]]'
p58
S'son'
p59
tp60
F0.001128668171557562
s(S'eldest'
p61
S'daughter'
p62
S'[[con]]'
p63
tp64
F0.000564334085778781
s(S'[[pro]]'
p65
S'son'
p66
S'of'
p67
tp68
F0.000564334085778781
s(S'had'
p69
S'succeeded'
p70
S'in'
p71
tp72
F0.000564334085778781
s(S'daughter'
p73
S'of'
p74
S'[[adj]]'
p75
tp76
F0.001128668171557562
s(S'[[prp]]'
p77
S'wife'
p78
S'as'
p79
tp80
F0.000564334085778781
s(S'oldest'
p81
S'child'
p82
S'[[con]]'
p83
tp84
F0.000564334085778781
s(S'was'
p85
S'[[det]]'
p86
S'eldest'
p87
tp88
F0.000564334085778781
s(S'[[det]]'
p89
S'son'
p90
S'with'
p91
tp92
F0.000564334085778781
s(S'[[det]]'
p93
S'father'
p94
S'[[det]]'
p95
tp96
F0.000564334085778781
s(S'[[adj]]'
p97
S'surviving'
p98
S'child'
p99
tp100
F0.001128668171557562
s(S'is'
p101
S'son'
p102
S'of'
p103
tp104
F0.000564334085778781
s(S'is'
p105
S'born'
p106
S'[[num]]'
p107
tp108
F0.000564334085778781
s(S'born'
p109
S'in'
p110
S'son'
p111
tp112
F0.000564334085778781
s(S'[[adj]]'
p113
S'child'
p114
S'[[prp]]'
p115
tp116
F0.000564334085778781
s(S'[[prp]]'
p117
S'daughter'
p118
S'was'
p119
tp120
F0.000564334085778781
s(S'[[adj]]'
p121
S'brother'
p122
S'in'
p123
tp124
F0.000564334085778781
s(S'formerly'
p125
S'married'
p126
S'to'
p127
tp128
F0.000564334085778781
s(S'eldest'
p129
S'son'
p130
S'[[adj]]'
p131
tp132
F0.000564334085778781
s(S'[[det]]'
p133
S'actors'
p134
S'[[con]]'
p135
tp136
F0.000564334085778781
s(S'ref'
p137
S'gt'
p138
S'[[prp]]'
p139
tp140
F0.000564334085778781
s(S'born'
p141
S'on'
p142
S'[[adj]]'
p143
tp144
F0.001128668171557562
s(S'[[adj]]'
p145
S'wife'
p146
S'of'
p147
tp148
F0.001128668171557562
s(S'elder'
p149
S'daughter'
p150
S'[[adj]]'
p151
tp152
F0.000564334085778781
s(S'at'
p153
S'[[det]]'
p154
S'son'
p155
tp156
F0.000564334085778781
s(S'in'
p157
S'[[det]]'
p158
S'daughter'
p159
tp160
F0.002257336343115124
s(S'ref'
p161
S'gt'
p162
S'according'
p163
tp164
F0.000564334085778781
s(S'ref'
p165
S'gt'
p166
S'p'
p167
tp168
F0.000564334085778781
s(S'[[det]]'
p169
S'eldest'
p170
S'daughter'
p171
tp172
F0.001693002257336343
s(g142
g143
S'son'
p173
tp174
F0.000564334085778781
s(S'[[det]]'
p175
S'brother'
p176
S'of'
p177
tp178
F0.000564334085778781
s(S'[[det]]'
p179
S'tributary'
p180
S'of'
p181
tp182
F0.000564334085778781
s(S'[[det]]'
p183
S'tributary'
p184
S'[[det]]'
p185
tp186
F0.000564334085778781
s(S'play'
p187
S'[[num]]'
p188
S'lt'
p189
tp190
F0.000564334085778781
s(g1
S'mother'
p191
S'that'
p192
tp193
F0.000564334085778781
s(S'lt'
p194
S'ref'
p195
S'gt'
p196
tp197
F0.06941309255079006
s(g1
S'brother'
p198
S'who'
p199
tp200
F0.000564334085778781
s(g1
S'children'
p201
S'with'
p202
tp203
F0.000564334085778781
s(g1
S'wife'
p204
S'[[det]]'
p205
tp206
F0.000564334085778781
s(S'born'
p207
g25
g26
tp208
F0.001128668171557562
s(g6
g7
S'loved'
p209
tp210
F0.000564334085778781
s(g1
S'cousin'
p211
S'[[det]]'
p212
tp213
F0.000564334085778781
s(S'[[prp]]'
p214
S'father'
p215
S'as'
p216
tp217
F0.001693002257336343
s(S'[[mod]]'
p218
S'leave'
p219
S'gt'
p220
tp221
F0.000564334085778781
s(S'son'
p222
S'[[prp]]'
p223
S'wife'
p224
tp225
F0.000564334085778781
s(S'[[det]]'
p226
S'wife'
p227
S'[[con]]'
p228
tp229
F0.000564334085778781
s(S'by'
p230
S'[[adj]]'
p231
S'wife'
p232
tp233
F0.001693002257336343
s(S'by'
p234
S'[[prp]]'
p235
S'father'
p236
tp237
F0.000564334085778781
s(S'parish'
p238
S'lt'
p239
S'ref'
p240
tp241
F0.000564334085778781
s(S'of'
p242
S'[[adj]]'
p243
S'king'
p244
tp245
F0.001128668171557562
s(S'[[adj]]'
p246
S'father'
p247
S'of'
p248
tp249
F0.000564334085778781
s(S'[[adj]]'
p250
S'brother'
p251
S'to'
p252
tp253
F0.000564334085778781
s(S'[[adj]]'
p254
S'child'
p255
S'born'
p256
tp257
F0.000564334085778781
s(S'veteran'
p258
S'[[num]]'
p259
S'lt'
p260
tp261
F0.000564334085778781
s(S'daughter'
p262
S'of'
p263
S'[[con]]'
p264
tp265
F0.000564334085778781
s(S'of'
p266
S'actor'
p267
S'[[con]]'
p268
tp269
F0.000564334085778781
s(S'[[adj]]'
p270
S'children'
p271
S'with'
p272
tp273
F0.000564334085778781
s(S'ranked'
p274
S'[[adj]]'
p275
S'lt'
p276
tp277
F0.000564334085778781
s(S'was'
p278
S'born'
p279
S'at'
p280
tp281
F0.0028216704288939053
s(S'[[det]]'
p282
S'heir'
p283
S'[[adj]]'
p284
tp285
F0.000564334085778781
s(S'had'
p286
S'succeeded'
p287
S'[[prp]]'
p288
tp289
F0.000564334085778781
s(S'[[det]]'
p290
S'death'
p291
S'[[con]]'
p292
tp293
F0.000564334085778781
s(S'ref'
p294
S'gt'
p295
S'[[mod]]'
p296
tp297
F0.000564334085778781
s(g42
g43
S'as'
p298
tp299
F0.000564334085778781
s(g54
g55
S'[[num]]'
p300
tp301
F0.000564334085778781
s(g167
S'[[num]]'
p302
S'lt'
p303
tp304
F0.000564334085778781
s(S'ref'
p305
S'gt'
p306
S'said'
p307
tp308
F0.001128668171557562
s(S'died'
p309
S'[[con]]'
p310
S'succeeded'
p311
tp312
F0.001693002257336343
s(S'oldest'
p313
S'son'
p314
S'[[det]]'
p315
tp316
F0.000564334085778781
s(S'[[adj]]'
p317
S'brother'
p318
S'of'
p319
tp320
F0.000564334085778781
s(S'eldest'
p321
S'[[adj]]'
p322
S'son'
p323
tp324
F0.000564334085778781
s(S'[[det]]'
p325
S'cousin'
p326
S'who'
p327
tp328
F0.000564334085778781
s(g1
S'daughter'
p329
S'by'
p330
tp331
F0.000564334085778781
s(S'[[con]]'
p332
S'[[adj]]'
p333
S'child'
p334
tp335
F0.001693002257336343
s(g188
g189
S'gt'
p336
tp337
F0.000564334085778781
s(S'[[adj]]'
p338
S'wife'
p339
S'[[adj]]'
p340
tp341
F0.000564334085778781
s(S'[[det]]'
p342
S'son'
p343
S'to'
p344
tp345
F0.000564334085778781
s(S'when'
p346
S'married'
p347
S'[[det]]'
p348
tp349
F0.000564334085778781
s(S'[[adj]]'
p350
S'children'
p351
S'[[con]]'
p352
tp353
F0.000564334085778781
s(S'[[det]]'
p354
S'cousin'
p355
S'of'
p356
tp357
F0.000564334085778781
s(S'out'
p358
S'lt'
p359
S'ref'
p360
tp361
F0.000564334085778781
s(S'[[adj]]'
p362
S'ref'
p363
S'gt'
p364
tp365
F0.016930022573363433
s(S'[[con]]'
p366
S'married'
p367
S'to'
p368
tp369
F0.000564334085778781
s(S'ref'
p370
S'gt'
p371
g41
tp372
F0.000564334085778781
s(S'[[prp]]'
p373
S'father'
p374
S'[[num]]'
p375
tp376
F0.000564334085778781
s(S'performed'
p377
S'[[adj]]'
p378
S'ref'
p379
tp380
F0.001128668171557562
s(S'[[adj]]'
p381
S'son'
p382
S'in'
p383
tp384
F0.000564334085778781
s(S'studied'
p385
S'in'
p386
S'lt'
p387
tp388
F0.000564334085778781
s(S'ref'
p389
S'gt'
p390
S'made'
p391
tp392
F0.000564334085778781
s(S'of'
p393
S'[[con]]'
p394
S'wife'
p395
tp396
F0.001128668171557562
s(S'succeeds'
p397
S'[[prp]]'
p398
S'father'
p399
tp400
F0.001693002257336343
s(S'born'
p401
S'[[det]]'
p402
S'son'
p403
tp404
F0.000564334085778781
s(g1
S'death'
p405
S'[[det]]'
p406
tp407
F0.000564334085778781
s(S'[[det]]'
p408
S'sons'
p409
S'of'
p410
tp411
F0.000564334085778781
s(S'[[det]]'
p412
S'[[adj]]'
p413
S'child'
p414
tp415
F0.000564334085778781
s(S'is'
p416
S'brother'
p417
S'of'
p418
tp419
F0.000564334085778781
s(S'of'
p420
S'born'
p421
S'[[num]]'
p422
tp423
F0.000564334085778781
s(g398
g399
S'[[pro]]'
p424
tp425
F0.000564334085778781
s(S'[[det]]'
p426
S'son'
p427
S'born'
p428
tp429
F0.000564334085778781
s(S'ref'
p430
S'gt'
p431
S'returned'
p432
tp433
F0.001128668171557562
s(S'[[adj]]'
p434
S'father'
p435
S'in'
p436
tp437
F0.000564334085778781
s(S'child'
p438
S'[[con]]'
p439
S'only'
p440
tp441
F0.001128668171557562
s(S'said'
p442
S'lt'
p443
S'[[adj]]'
p444
tp445
F0.000564334085778781
s(S'on'
p446
S'[[det]]'
p447
S'son'
p448
tp449
F0.000564334085778781
s(S'[[det]]'
p450
S'daughter'
p451
S'[[num]]'
p452
tp453
F0.000564334085778781
s(S'[[det]]'
p454
S'cousin'
p455
S'[[con]]'
p456
tp457
F0.000564334085778781
s(S'of'
p458
S'[[det]]'
p459
S'actors'
p460
tp461
F0.001128668171557562
s(S'[[det]]'
p462
S'child'
p463
S'[[con]]'
p464
tp465
F0.000564334085778781
s(S'on'
p466
S'lt'
p467
S'ref'
p468
tp469
F0.000564334085778781
s(S'[[con]]'
p470
S'lt'
p471
S'[[num]]'
p472
tp473
F0.000564334085778781
s(S'[[num]]'
p474
S'[[det]]'
p475
S'eldest'
p476
tp477
F0.000564334085778781
s(S'[[con]]'
p478
S'wife'
p479
S'of'
p480
tp481
F0.001693002257336343
s(S'younger'
p482
S'[[num]]'
p483
S'sons'
p484
tp485
F0.000564334085778781
s(g1
S'daughter'
p486
S'[[con]]'
p487
tp488
F0.001128668171557562
s(S'[[con]]'
p489
S'gave'
p490
S'up'
p491
tp492
F0.000564334085778781
s(S'was'
p493
S'kept'
p494
S'out'
p495
tp496
F0.000564334085778781
s(S'[[det]]'
p497
S'eldest'
p498
S'surviving'
p499
tp500
F0.001128668171557562
s(S'born'
p501
S'in'
p502
S'[[adj]]'
p503
tp504
F0.0028216704288939053
s(S'[[num]]'
p505
S'sons'
p506
S'who'
p507
tp508
F0.000564334085778781
s(S'gt'
p509
S'list'
p510
S'[[con]]'
p511
tp512
F0.000564334085778781
s(S'[[det]]'
p513
S'son'
p514
S'was'
p515
tp516
F0.000564334085778781
s(S'is'
p517
S'reported'
p518
S'in'
p519
tp520
F0.000564334085778781
s(S'gt'
p521
S'brought'
p522
S'[[pro]]'
p523
tp524
F0.000564334085778781
s(g386
g387
S'ref'
p525
tp526
F0.003386004514672686
s(S'later'
p527
S'married'
p528
S'to'
p529
tp530
F0.000564334085778781
s(S'oldest'
p531
S'daughter'
p532
S'of'
p533
tp534
F0.000564334085778781
s(g1
S'reign'
p535
S'[[con]]'
p536
tp537
F0.000564334085778781
s(g167
S'lt'
p538
S'ref'
p539
tp540
F0.0028216704288939053
s(S'[[num]]'
p541
S'gt'
p542
S'lt'
p543
tp544
F0.0039503386004514675
s(g1
S'son'
p545
S'as'
p546
tp547
F0.000564334085778781
s(g219
g220
S'lt'
p548
tp549
F0.000564334085778781
s(S'ref'
p550
S'gt'
p551
S'attended'
p552
tp553
F0.000564334085778781
s(S'[[pro]]'
p554
S'son'
p555
S'as'
p556
tp557
F0.000564334085778781
s(S'ref'
p558
S'gt'
p559
S'with'
p560
tp561
F0.001128668171557562
s(S'younger'
p562
S'son'
p563
S'[[con]]'
p564
tp565
F0.000564334085778781
s(S'son'
p566
S'of'
p567
S'actor'
p568
tp569
F0.001128668171557562
s(S'in'
p570
S'[[num]]'
p571
S'son'
p572
tp573
F0.000564334085778781
s(S'[[prp]]'
p574
S'son'
p575
S'is'
p576
tp577
F0.000564334085778781
s(S'[[det]]'
p578
S'son'
p579
S'of'
p580
tp581
F0.01636568848758465
s(S'of'
p582
S'[[prp]]'
p583
S'father'
p584
tp585
F0.000564334085778781
s(S'now'
p586
S'married'
p587
S'to'
p588
tp589
F0.000564334085778781
s(g439
g440
S'daughter'
p590
tp591
F0.000564334085778781
s(S'was'
p592
S'married'
p593
S'[[num]]'
p594
tp595
F0.000564334085778781
s(S'lt'
p596
S'ref'
p597
S'name'
p598
tp599
F0.014672686230248307
s(S'[[det]]'
p600
S'subrange'
p601
S'of'
p602
tp603
F0.001128668171557562
s(S'born'
p604
g570
g571
tp605
F0.000564334085778781
s(S'son'
p606
g230
g231
tp607
F0.001128668171557562
s(S'daughter'
p608
g478
g479
tp609
F0.001693002257336343
s(S'[[adj]]'
p610
S'wife'
p611
S'daughter'
p612
tp613
F0.000564334085778781
s(S'eldest'
p614
S'son'
p615
S'[[con]]'
p616
tp617
F0.001693002257336343
s(S'[[det]]'
p618
S'mother'
p619
S'of'
p620
tp621
F0.000564334085778781
s(S'[[prp]]'
p622
S'mother'
p623
g1
tp624
F0.000564334085778781
s(g279
g280
S'son'
p625
tp626
F0.000564334085778781
s(S'[[adj]]'
p627
S'cousin'
p628
S'of'
p629
tp630
F0.000564334085778781
s(g1
S'brother'
p631
S'[[pro]]'
p632
tp633
F0.000564334085778781
s(S'in'
p634
S'daughter'
p635
S'of'
p636
tp637
F0.000564334085778781
s(S'born'
p638
S'was'
p639
S'[[det]]'
p640
tp641
F0.001693002257336343
s(S'[[num]]'
p642
S'son'
p643
S'who'
p644
tp645
F0.000564334085778781
s(S'wife'
p646
S'[[con]]'
p647
S'daughter'
p648
tp649
F0.001128668171557562
s(S'[[con]]'
p650
S'gave'
p651
S'to'
p652
tp653
F0.000564334085778781
s(g280
g625
S'of'
p654
tp655
F0.000564334085778781
s(S'[[det]]'
p656
S'lt'
p657
S'ref'
p658
tp659
F0.0028216704288939053
s(S'gt'
p660
S'along'
p661
S'[[prp]]'
p662
tp663
F0.000564334085778781
s(S'[[con]]'
p664
S'[[prp]]'
p665
S'wife'
p666
tp667
F0.003386004514672686
s(S'gt'
p668
S'[[det]]'
p669
S'copy'
p670
tp671
F0.000564334085778781
s(S'[[num]]'
p672
S'sons'
p673
S'[[num]]'
p674
tp675
F0.000564334085778781
s(S'died'
p676
S'[[prp]]'
p677
S'son'
p678
tp679
F0.000564334085778781
s(g1
S'daughter'
p680
S'wife'
p681
tp682
F0.000564334085778781
s(S'more'
p683
S'children'
p684
S'[[num]]'
p685
tp686
F0.000564334085778781
s(S'whose'
p687
S'father'
p688
S'was'
p689
tp690
F0.000564334085778781
s(S'was'
p691
S'succeeded'
p692
S'[[pro]]'
p693
tp694
F0.000564334085778781
s(g1
S'death'
p695
S'to'
p696
tp697
F0.000564334085778781
s(g1
S'son'
p698
S'[[pro]]'
p699
tp700
F0.000564334085778781
s(S'[[con]]'
p701
S'lt'
p702
S'ref'
p703
tp704
F0.001128668171557562
s(S'at'
p705
S'lt'
p706
S'[[num]]'
p707
tp708
F0.000564334085778781
s(S'son'
p709
S'known'
p710
S'as'
p711
tp712
F0.000564334085778781
s(S'ref'
p713
S'gt'
p714
S'married'
p715
tp716
F0.001128668171557562
s(S'[[adj]]'
p717
S'father'
p718
S'[[con]]'
p719
tp720
F0.000564334085778781
s(S'graduate'
p721
S'of'
p722
S'lt'
p723
tp724
F0.000564334085778781
s(S'twice'
p725
S'married'
p726
S'first'
p727
tp728
F0.000564334085778781
s(S'[[det]]'
p729
S'daughter'
p730
S'[[adj]]'
p731
tp732
F0.000564334085778781
s(S'born'
p733
S'[[num]]'
p734
S'born'
p735
tp736
F0.000564334085778781
s(g1
S'gt'
p737
S'lt'
p738
tp739
F0.000564334085778781
s(S'[[num]]'
p740
S'lt'
p741
S'[[num]]'
p742
tp743
F0.007900677200902935
s(S'died'
p744
S'with'
p745
S'[[prp]]'
p746
tp747
F0.000564334085778781
s(S'[[adj]]'
p748
S'wife'
p749
S'to'
p750
tp751
F0.000564334085778781
s(S'son'
p752
S'of'
p753
S'actors'
p754
tp755
F0.001128668171557562
s(S'son'
p756
S'of'
p757
S'[[prp]]'
p758
tp759
F0.001128668171557562
s(S'was'
p760
S'son'
p761
S'to'
p762
tp763
F0.000564334085778781
s(g1
S'son'
p764
S'whom'
p765
tp766
F0.000564334085778781
s(g498
g499
S'child'
p767
tp768
F0.000564334085778781
s(S'[[det]]'
p769
S'mother'
p770
S'[[det]]'
p771
tp772
F0.000564334085778781
s(g1
S'death'
p773
S'in'
p774
tp775
F0.000564334085778781
s(S'election'
p776
S'[[num]]'
p777
S'lt'
p778
tp779
F0.000564334085778781
s(g1
S'death'
p780
S'when'
p781
tp782
F0.000564334085778781
s(S'ref'
p783
S'gt'
p784
S'has'
p785
tp786
F0.000564334085778781
s(S'lt'
p787
S'gt'
p788
S'while'
p789
tp790
F0.000564334085778781
s(S'[[adj]]'
p791
S'league'
p792
S'lt'
p793
tp794
F0.000564334085778781
s(S'in'
p795
S'[[det]]'
p796
S'son'
p797
tp798
F0.003386004514672686
s(g378
g379
S'name'
p799
tp800
F0.003386004514672686
s(g1
S'sons'
p801
S'[[con]]'
p802
tp803
F0.000564334085778781
s(S'was'
p804
S'succeeded'
p805
S'as'
p806
tp807
F0.001128668171557562
s(S'[[adj]]'
p808
S'wife'
p809
S'[[num]]'
p810
tp811
F0.000564334085778781
s(S'[[det]]'
p812
S'oldest'
p813
S'son'
p814
tp815
F0.000564334085778781
s(S'was'
p816
S'succeeded'
p817
S'to'
p818
tp819
F0.000564334085778781
s(S'ref'
p820
S'worked'
p821
S'for'
p822
tp823
F0.000564334085778781
s(S'[[det]]'
p824
S'children'
p825
S'of'
p826
tp827
F0.000564334085778781
s(S'was'
p828
S'married'
p829
S'again'
p830
tp831
F0.000564334085778781
s(S'[[con]]'
p832
S'moved'
p833
S'to'
p834
tp835
F0.000564334085778781
s(S'lt'
p836
S'blockquote'
p837
S'gt'
p838
tp839
F0.001128668171557562
s(S'born'
p840
S'to'
p841
S'[[adj]]'
p842
tp843
F0.000564334085778781
s(S'[[det]]'
p844
g531
g532
tp845
F0.000564334085778781
s(S'was'
p846
S'born'
p847
S'[[det]]'
p848
tp849
F0.0028216704288939053
s(S'[[adj]]'
p850
S'son'
p851
S'born'
p852
tp853
F0.000564334085778781
s(S'near'
p854
S'[[det]]'
p855
S'son'
p856
tp857
F0.000564334085778781
s(S'as'
p858
S'[[det]]'
p859
S'daughter'
p860
tp861
F0.000564334085778781
s(S'[[prp]]'
p862
S'son'
p863
S'to'
p864
tp865
F0.000564334085778781
s(g851
g852
S'to'
p866
tp867
F0.000564334085778781
s(S'also'
p868
S'succeeded'
p869
g214
tp870
F0.000564334085778781
s(S'of'
p871
S'[[adj]]'
p872
S'wife'
p873
tp874
F0.001693002257336343
s(g1
S'son'
p875
S'[[det]]'
p876
tp877
F0.000564334085778781
s(g502
g503
S'son'
p878
tp879
F0.001128668171557562
s(S'ref'
p880
S'gt'
p881
S'to'
p882
tp883
F0.002257336343115124
s(S'[[num]]'
p884
S'page'
p885
S'[[num]]'
p886
tp887
F0.001128668171557562
s(S'[[num]]'
p888
S'son'
p889
S'born'
p890
tp891
F0.000564334085778781
s(g1
S'daughter'
p892
S'who'
p893
tp894
F0.000564334085778781
s(S'child'
p895
S'[[con]]'
p896
S'[[prp]]'
p897
tp898
F0.000564334085778781
s(S'ref'
p899
S'gt'
p900
S'[[adj]]'
p901
tp902
F0.0028216704288939053
s(S'[[prp]]'
p903
S'brother'
p904
S'[[det]]'
p905
tp906
F0.000564334085778781
s(S'had'
p907
S'married'
p908
S'[[con]]'
p909
tp910
F0.000564334085778781
s(S'[[adj]]'
p911
S'child'
p912
S'to'
p913
tp914
F0.000564334085778781
s(S'ref'
p915
S'gt'
p916
S'is'
p917
tp918
F0.001693002257336343
s(S'[[adj]]'
p919
S'oldest'
p920
S'son'
p921
tp922
F0.000564334085778781
s(g1
S'younger'
p923
S'son'
p924
tp925
F0.001128668171557562
s(S'was'
p926
S'succeeded'
p927
S'on'
p928
tp929
F0.000564334085778781
s(g1
S'brother'
p930
S'of'
p931
tp932
F0.000564334085778781
s(S'[[det]]'
p933
S'lt'
p934
S'[[num]]'
p935
tp936
F0.000564334085778781
s(g1
S'children'
p937
S'[[con]]'
p938
tp939
F0.000564334085778781
s(S'[[det]]'
p940
S'son'
p941
S'later'
p942
tp943
F0.000564334085778781
s(S'born'
p944
g446
g447
tp945
F0.000564334085778781
s(S'younger'
p946
S'son'
p947
S'was'
p948
tp949
F0.000564334085778781
s(S'[[con]]'
p950
S'was'
p951
S'born'
p952
tp953
F0.000564334085778781
s(S'on'
p954
S'[[adj]]'
p955
S'child'
p956
tp957
F0.000564334085778781
s(S'[[det]]'
p958
S'area'
p959
S'[[con]]'
p960
tp961
F0.000564334085778781
s(S'born'
p962
S'in'
p963
S'as'
p964
tp965
F0.000564334085778781
s(S'[[num]]'
p966
S'children'
p967
S'from'
p968
tp969
F0.000564334085778781
s(g542
g543
S'ref'
p970
tp971
F0.01580135440180587
s(S'succeeded'
p972
g234
g235
tp973
F0.000564334085778781
s(S'[[adj]]'
p974
S'son'
p975
S'with'
p976
tp977
F0.000564334085778781
s(S'then'
p978
S'succeeded'
p979
S'by'
p980
tp981
F0.000564334085778781
s(S'[[num]]'
p982
S'children'
p983
S'with'
p984
tp985
F0.000564334085778781
s(S'born'
p986
S'at'
p987
S'[[adj]]'
p988
tp989
F0.000564334085778781
s(S'eldest'
p990
S'son'
p991
S'[[num]]'
p992
tp993
F0.000564334085778781
s(S'[[num]]'
p994
S'[[det]]'
p995
S'daughter'
p996
tp997
F0.000564334085778781
s(S'[[prp]]'
p998
S'daughter'
p999
S'[[con]]'
p1000
tp1001
F0.000564334085778781
s(S'[[prp]]'
p1002
S'son'
p1003
S'died'
p1004
tp1005
F0.000564334085778781
s(S'wrote'
p1006
S'lt'
p1007
S'ref'
p1008
tp1009
F0.000564334085778781
s(S'child'
p1010
S'of'
p1011
S'[[prp]]'
p1012
tp1013
F0.000564334085778781
s(S'ref'
p1014
g660
g661
tp1015
F0.000564334085778781
s(S'younger'
p1016
S'son'
p1017
S'[[num]]'
p1018
tp1019
F0.000564334085778781
s(S'daughter'
p1020
S'[[con]]'
p1021
S'[[prp]]'
p1022
tp1023
F0.000564334085778781
s(S'died'
p1024
S'[[num]]'
p1025
S'succeeded'
p1026
tp1027
F0.000564334085778781
s(S'[[det]]'
p1028
S'son'
p1029
S'[[con]]'
p1030
tp1031
F0.003386004514672686
s(S'[[det]]'
p1032
S'wife'
p1033
S'of'
p1034
tp1035
F0.001128668171557562
s(S'[[con]]'
p1036
S'gave'
p1037
S'[[adj]]'
p1038
tp1039
F0.000564334085778781
s(S'[[adj]]'
p1040
S'daughter'
p1041
S'by'
p1042
tp1043
F0.001128668171557562
s(S'died'
p1044
S'[[num]]'
p1045
S'[[det]]'
p1046
tp1047
F0.001128668171557562
s(S'worked'
p1048
S'with'
p1049
S'lt'
p1050
tp1051
F0.000564334085778781
s(S'was'
p1052
S'father'
p1053
S'to'
p1054
tp1055
F0.000564334085778781
s(S'[[det]]'
p1056
S'daughter'
p1057
S'[[pro]]'
p1058
tp1059
F0.000564334085778781
s(g1
S'grandson'
p1060
S'[[det]]'
p1061
tp1062
F0.000564334085778781
s(S'ref'
p1063
g509
g510
tp1064
F0.000564334085778781
s(S'been'
p1065
S'married'
p1066
S'twice'
p1067
tp1068
F0.000564334085778781
s(S'accessed'
p1069
S'[[num]]'
p1070
S'[[adj]]'
p1071
tp1072
F0.001693002257336343
s(g722
g723
S'ref'
p1073
tp1074
F0.001693002257336343
s(S'[[adj]]'
p1075
S'tributary'
p1076
S'[[det]]'
p1077
tp1078
F0.000564334085778781
s(S'[[prp]]'
p1079
S'father'
p1080
g1
tp1081
F0.000564334085778781
s(S'c'
p1082
S'[[num]]'
p1083
S'son'
p1084
tp1085
F0.000564334085778781
s(S'[[det]]'
p1086
S'daughter'
p1087
S'to'
p1088
tp1089
F0.000564334085778781
s(g1
S'father'
p1090
S'[[det]]'
p1091
tp1092
F0.000564334085778781
s(S'[[adj]]'
p1093
S'child'
p1094
S'[[con]]'
p1095
tp1096
F0.004514672686230248
s(S'[[adj]]'
p1097
S'daughter'
p1098
S'[[con]]'
p1099
tp1100
F0.001128668171557562
s(S'[[con]]'
p1101
S'youngest'
p1102
S'son'
p1103
tp1104
F0.000564334085778781
s(S'[[adj]]'
p1105
g258
g259
tp1106
F0.000564334085778781
s(S'died'
p1107
S'[[prp]]'
p1108
S'[[adj]]'
p1109
tp1110
F0.000564334085778781
s(S'[[adj]]'
p1111
S'son'
p1112
S'of'
p1113
tp1114
F0.008465011286681716
s(S'[[prp]]'
p1115
S'son'
p1116
S'born'
p1117
tp1118
F0.000564334085778781
s(S'[[con]]'
p1119
S'[[adj]]'
p1120
S'wife'
p1121
tp1122
F0.002257336343115124
s(S'[[det]]'
p1123
S'younger'
p1124
S'son'
p1125
tp1126
F0.002257336343115124
s(S'[[det]]'
p1127
S'grandson'
p1128
S'[[con]]'
p1129
tp1130
F0.000564334085778781
s(S'later'
p1131
S'succeeded'
p1132
S'as'
p1133
tp1134
F0.000564334085778781
s(g1
S'father'
p1135
S'as'
p1136
tp1137
F0.000564334085778781
s(S'[[adj]]'
p1138
S'son'
p1139
S'[[det]]'
p1140
tp1141
F0.000564334085778781
s(S'then'
p1142
S'succeeded'
p1143
S'as'
p1144
tp1145
F0.000564334085778781
s(S'[[num]]'
p1146
S'born'
p1147
S'to'
p1148
tp1149
F0.000564334085778781
s(S'get'
p1150
S'married'
p1151
S'to'
p1152
tp1153
F0.000564334085778781
s(g114
g115
S'wife'
p1154
tp1155
F0.000564334085778781
s(S'wife'
p1156
g57
g58
tp1157
F0.001128668171557562
s(g665
g666
S'[[det]]'
p1158
tp1159
F0.000564334085778781
s(S'eldest'
p1160
S'son'
p1161
S'of'
p1162
tp1163
F0.005079006772009029
s(S'[[prp]]'
p1164
S'father'
p1165
S'[[det]]'
p1166
tp1167
F0.000564334085778781
s(S'[[adj]]'
p1168
S'children'
p1169
S'[[adj]]'
p1170
tp1171
F0.000564334085778781
s(S'[[adj]]'
p1172
g37
g38
tp1173
F0.000564334085778781
s(S'then'
p1174
S'gave'
p1175
S'[[pro]]'
p1176
tp1177
F0.000564334085778781
s(S'[[det]]'
p1178
g81
g82
tp1179
F0.001128668171557562
s(S'[[prp]]'
p1180
S'children'
p1181
S'[[con]]'
p1182
tp1183
F0.000564334085778781
s(S'also'
p1184
S'succeeded'
p1185
S'as'
p1186
tp1187
F0.000564334085778781
s(S'[[det]]'
p1188
S'daughter'
p1189
S'by'
p1190
tp1191
F0.001128668171557562
s(S'be'
p1192
S'succeeded'
p1193
S'by'
p1194
tp1195
F0.000564334085778781
s(S'born'
p1196
S'as'
p1197
S'[[adj]]'
p1198
tp1199
F0.000564334085778781
s(S'is'
p1200
S'cousin'
p1201
S'to'
p1202
tp1203
F0.000564334085778781
s(S'daughter'
p1204
S'of'
p1205
S'wife'
p1206
tp1207
F0.000564334085778781
s(S'currently'
p1208
S'married'
p1209
S'to'
p1210
tp1211
F0.000564334085778781
s(S'was'
p1212
S'brother'
p1213
S'[[con]]'
p1214
tp1215
F0.000564334085778781
s(S'eldest'
p1216
S'son'
p1217
S'[[det]]'
p1218
tp1219
F0.001128668171557562
s(g1
g1156
g57
tp1220
F0.003386004514672686
s(S'then'
p1221
S'married'
p1222
S'[[pro]]'
p1223
tp1224
F0.000564334085778781
s(S'ref'
p1225
S'gt'
p1226
S'worked'
p1227
tp1228
F0.001128668171557562
s(S'[[det]]'
p1229
S'eldest'
p1230
S'[[num]]'
p1231
tp1232
F0.000564334085778781
s(S'only'
p1233
S'daughter'
p1234
S'of'
p1235
tp1236
F0.001128668171557562
s(S'[[adj]]'
p1237
S'cousin'
p1238
S'[[con]]'
p1239
tp1240
F0.000564334085778781
s(S'ref'
p1241
g521
g522
tp1242
F0.000564334085778781
s(S'accessed'
p1243
S'lt'
p1244
S'ref'
p1245
tp1246
F0.000564334085778781
s(g885
g886
S'[[adj]]'
p1247
tp1248
F0.001693002257336343
s(S'was'
p1249
S'married'
p1250
S'[[con]]'
p1251
tp1252
F0.000564334085778781
s(S'gt'
p1253
S'[[con]]'
p1254
S'joined'
p1255
tp1256
F0.000564334085778781
s(g792
g793
S'ref'
p1257
tp1258
F0.000564334085778781
s(S'[[det]]'
p1259
S'grandson'
p1260
S'[[det]]'
p1261
tp1262
F0.000564334085778781
s(S'born'
p1263
S'on'
p1264
S'[[num]]'
p1265
tp1266
F0.000564334085778781
s(S'was'
p1267
S'born'
p1268
g85
tp1269
F0.000564334085778781
s(S'ref'
p1270
S'gt'
p1271
S'on'
p1272
tp1273
F0.000564334085778781
s(S'of'
p1274
S'[[adj]]'
p1275
S'actor'
p1276
tp1277
F0.001128668171557562
s(S'born'
p1278
S'[[num]]'
p1279
S'[[det]]'
p1280
tp1281
F0.001693002257336343
s(g1
S'elder'
p1282
S'daughter'
p1283
tp1284
F0.000564334085778781
s(S'ref'
p1285
g596
g597
tp1286
F0.004514672686230248
s(S'name'
p1287
S'gt'
p1288
S'where'
p1289
tp1290
F0.000564334085778781
s(g1
S'father'
p1291
S'[[con]]'
p1292
tp1293
F0.000564334085778781
s(S'[[adj]]'
p1294
S'daughter'
p1295
S'[[adj]]'
p1296
tp1297
F0.000564334085778781
s(S'[[adj]]'
p1298
S'children'
p1299
S'by'
p1300
tp1301
F0.000564334085778781
s(S'still'
p1302
S'married'
p1303
S'to'
p1304
tp1305
F0.000564334085778781
s(S'of'
p1306
S'[[det]]'
p1307
S'emperor'
p1308
tp1309
F0.000564334085778781
s(S'[[det]]'
p1310
S'king'
p1311
S'lt'
p1312
tp1313
F0.000564334085778781
s(g1
S'younger'
p1314
S'sons'
p1315
tp1316
F0.000564334085778781
s(S'[[det]]'
p1317
S'reign'
p1318
S'[[con]]'
p1319
tp1320
F0.000564334085778781
s(S'in'
p1321
S'[[prp]]'
p1322
S'son'
p1323
tp1324
F0.000564334085778781
s(S'ref'
p1325
S'gt'
p1326
S'[[num]]'
p1327
tp1328
F0.005079006772009029
s(S'[[det]]'
p1329
S'son'
p1330
S'who'
p1331
tp1332
F0.001128668171557562
s(g639
g640
S'son'
p1333
tp1334
F0.000564334085778781
s(S'born'
p1335
S'[[con]]'
p1336
S'[[det]]'
p1337
tp1338
F0.002257336343115124
s(S'name'
p1339
S'[[num]]'
p1340
S'gt'
p1341
tp1342
F0.0028216704288939053
s(S'[[prp]]'
p1343
S'brother'
p1344
S'[[adj]]'
p1345
tp1346
F0.000564334085778781
s(S'[[num]]'
p1347
S'children'
p1348
S'of'
p1349
tp1350
F0.001693002257336343
s(S'of'
p1351
S'later'
p1352
S'known'
p1353
tp1354
F0.000564334085778781
s(S'[[prp]]'
p1355
S'son'
p1356
S'by'
p1357
tp1358
F0.000564334085778781
s(S'gt'
p1359
g832
g833
tp1360
F0.000564334085778781
s(S'whose'
p1361
S'mother'
p1362
S'was'
p1363
tp1364
F0.000564334085778781
s(S'patron'
p1365
S'[[num]]'
p1366
S'ref'
p1367
tp1368
F0.000564334085778781
s(S'gt'
p1369
S'[[det]]'
p1370
S'son'
p1371
tp1372
F0.000564334085778781
s(S'at'
p1373
S'[[det]]'
p1374
S'daughter'
p1375
tp1376
F0.000564334085778781
s(S'[[det]]'
p1377
S'father'
p1378
S'[[con]]'
p1379
tp1380
F0.000564334085778781
s(S'[[pro]]'
p1381
S'death'
p1382
S'[[con]]'
p1383
tp1384
F0.000564334085778781
s(g848
S'[[adj]]'
p1385
S'son'
p1386
tp1387
F0.000564334085778781
s(S'was'
p1388
S'married'
p1389
S'by'
p1390
tp1391
F0.000564334085778781
s(S'[[prp]]'
p1392
S'daughter'
p1393
S'[[det]]'
p1394
tp1395
F0.000564334085778781
s(S'son'
p1396
g393
g394
tp1397
F0.000564334085778781
s(g1
S'son'
p1398
g33
tp1399
F0.000564334085778781
s(S'was'
p1400
S'[[det]]'
p1401
S'daughter'
p1402
tp1403
F0.001128668171557562
s(S'[[adj]]'
p1404
g21
g22
tp1405
F0.000564334085778781
s(S'eldest'
p1406
S'[[adj]]'
p1407
S'children'
p1408
tp1409
F0.000564334085778781
s(S'[[prp]]'
p1410
S'youngest'
p1411
S'daughter'
p1412
tp1413
F0.000564334085778781
s(g1
S'death'
p1414
S'[[con]]'
p1415
tp1416
F0.000564334085778781
s(S'lt'
p1417
S'lt'
p1418
S'ref'
p1419
tp1420
F0.000564334085778781
s(S'[[adj]]'
p1421
S'wife'
p1422
S'in'
p1423
tp1424
F0.000564334085778781
s(S'was'
p1425
S'brother'
p1426
S'of'
p1427
tp1428
F0.000564334085778781
s(S'[[det]]'
p1429
S'cousin'
p1430
S'to'
p1431
tp1432
F0.000564334085778781
s(S'oldest'
p1433
S'[[num]]'
p1434
S'children'
p1435
tp1436
F0.000564334085778781
s(S'ref'
p1437
S'gt'
p1438
S'by'
p1439
tp1440
F0.001128668171557562
s(S'was'
p1441
S'married'
p1442
S'when'
p1443
tp1444
F0.000564334085778781
s(g1
S'mother'
p1445
S'of'
p1446
tp1447
F0.000564334085778781
s(g799
g45
g46
tp1448
F0.000564334085778781
s(S'[[con]]'
p1449
S'[[det]]'
p1450
g1365
tp1451
F0.000564334085778781
s(S'in'
p1452
S'by'
p1453
S'lt'
p1454
tp1455
F0.000564334085778781
s(S'name'
p1456
S'[[det]]'
p1457
S'block'
p1458
tp1459
F0.000564334085778781
s(S'[[det]]'
p1460
S'mother'
p1461
S'from'
p1462
tp1463
F0.000564334085778781
s(S'was'
p1464
S'son'
p1465
S'[[con]]'
p1466
tp1467
F0.000564334085778781
s(S'was'
p1468
S'wife'
p1469
S'of'
p1470
tp1471
F0.000564334085778781
s(g1398
g33
g34
tp1472
F0.001128668171557562
s(g661
g662
S'siblings'
p1473
tp1474
F0.000564334085778781
s(S'was'
p1475
S'grandson'
p1476
S'to'
p1477
tp1478
F0.000564334085778781
s(S'ref'
p1479
S'gt'
p1480
S'ref'
p1481
tp1482
F0.000564334085778781
s(S'[[det]]'
p1483
S'father'
p1484
S'to'
p1485
tp1486
F0.000564334085778781
s(S'pp'
p1487
S'[[num]]'
p1488
S'lt'
p1489
tp1490
F0.001128668171557562
s(S'[[num]]'
p1491
S'[[adj]]'
p1492
S'son'
p1493
tp1494
F0.000564334085778781
s(S'hit'
p1495
S'lt'
p1496
S'ref'
p1497
tp1498
F0.000564334085778781
s(S'ref'
p1499
S'gt'
p1500
S'[[con]]'
p1501
tp1502
F0.006772009029345372
s(g1
S'son'
p1503
S'[[con]]'
p1504
tp1505
F0.001693002257336343
s(S'ref'
p1506
S'gt'
p1507
S'pp'
p1508
tp1509
F0.000564334085778781
s(S'ref'
p1510
S'gt'
p1511
S'joined'
p1512
tp1513
F0.001693002257336343
s(S'[[adj]]'
p1514
S'son'
p1515
S'[[con]]'
p1516
tp1517
F0.003386004514672686
s(g110
g111
S'of'
p1518
tp1519
F0.000564334085778781
s(S'[[adj]]'
p1520
S'son'
p1521
S'later'
p1522
tp1523
F0.000564334085778781
s(S'[[prp]]'
p1524
S'oldest'
p1525
S'son'
p1526
tp1527
F0.000564334085778781
s(S'[[det]]'
p1528
S'son'
p1529
S'[[num]]'
p1530
tp1531
F0.001128668171557562
s(g1
S'lt'
p1532
S'ref'
p1533
tp1534
F0.002257336343115124
s(S'younger'
p1535
S'son'
p1536
S'[[det]]'
p1537
tp1538
F0.000564334085778781
s(S'gt'
p1539
g836
g837
tp1540
F0.001128668171557562
s(g1
S'wife'
p1541
S'in'
p1542
tp1543
F0.000564334085778781
s(g1
S'eldest'
p1544
S'son'
p1545
tp1546
F0.001128668171557562
s(S'was'
p1547
S'kept'
p1548
S'[[adj]]'
p1549
tp1550
F0.000564334085778781
s(g959
g960
g600
tp1551
F0.000564334085778781
s(S'member'
p1552
S'[[det]]'
p1553
S'daughter'
p1554
tp1555
F0.000564334085778781
s(S'[[num]]'
p1556
S'children'
p1557
S'[[num]]'
p1558
tp1559
F0.000564334085778781
s(S'was'
p1560
S'son'
p1561
S'by'
p1562
tp1563
F0.000564334085778781
s(g1
S'son'
p1564
S'by'
p1565
tp1566
F0.000564334085778781
s(S'died'
p1567
S'in'
p1568
S'[[adj]]'
p1569
tp1570
F0.000564334085778781
s(S'is'
p1571
S'son'
p1572
S'to'
p1573
tp1574
F0.000564334085778781
s(S'[[con]]'
p1575
S'brother'
p1576
S'to'
p1577
tp1578
F0.000564334085778781
s(S'[[det]]'
p1579
S'son'
p1580
S'whom'
p1581
tp1582
F0.000564334085778781
s(S'[[prp]]'
p1583
S'father'
p1584
S'was'
p1585
tp1586
F0.000564334085778781
s(S'daughter'
p1587
S'of'
p1588
S'[[prp]]'
p1589
tp1590
F0.001128668171557562
s(g1
S'sons'
p1591
S'[[num]]'
p1592
tp1593
F0.000564334085778781
s(S'[[adj]]'
p1594
S'wife'
p1595
S'[[pro]]'
p1596
tp1597
F0.000564334085778781
s(S'as'
p1598
S'[[det]]'
p1599
S'son'
p1600
tp1601
F0.000564334085778781
s(g1
S'eldest'
p1602
S'daughter'
p1603
tp1604
F0.000564334085778781
s(S'son'
p1605
S'of'
p1606
S'son'
p1607
tp1608
F0.000564334085778781
s(S'[[det]]'
p1609
S'son'
p1610
S'became'
p1611
tp1612
F0.000564334085778781
s(S'[[adj]]'
p1613
g238
g239
tp1614
F0.000564334085778781
s(S'born'
p1615
g795
g796
tp1616
F0.006772009029345372
s(S'[[det]]'
p1617
S'brother'
p1618
S'[[det]]'
p1619
tp1620
F0.000564334085778781
s(S'died'
p1621
g1321
g1322
tp1622
F0.000564334085778781
s(S'twice'
p1623
S'married'
p1624
S'[[adj]]'
p1625
tp1626
F0.000564334085778781
s(S'was'
p1627
S'mother'
p1628
S'to'
p1629
tp1630
F0.000564334085778781
s(g1070
g1071
g1325
tp1631
F0.005079006772009029
s(S'[[adj]]'
p1632
S'wife'
p1633
S'[[con]]'
p1634
tp1635
F0.000564334085778781
s(S'lived'
p1636
S'in'
p1637
S'lt'
p1638
tp1639
F0.000564334085778781
s(S'[[adj]]'
p1640
S'death'
p1641
S'of'
p1642
tp1643
F0.000564334085778781
s(S'born'
p1644
S'near'
p1645
S'[[adj]]'
p1646
tp1647
F0.000564334085778781
s(S'[[num]]'
p1648
S'children'
p1649
S'[[det]]'
p1650
tp1651
F0.000564334085778781
s(S'was'
p1652
S'succeeded'
p1653
S'in'
p1654
tp1655
F0.000564334085778781
s(S'[[adj]]'
p1656
S'son'
p1657
S'de'
p1658
tp1659
F0.000564334085778781
s(g987
g988
S'son'
p1660
tp1661
F0.000564334085778781
s(S'[[adj]]'
p1662
g776
g777
tp1663
F0.000564334085778781
s(g1
S'wife'
p1664
S'who'
p1665
tp1666
F0.000564334085778781
s(S'[[det]]'
p1667
g482
g483
tp1668
F0.000564334085778781
s(S'[[adj]]'
p1669
S'emperor'
p1670
S'as'
p1671
tp1672
F0.000564334085778781
s(S'[[adj]]'
p1673
S'heir'
p1674
S'[[con]]'
p1675
tp1676
F0.000564334085778781
s(g1279
g1280
S'son'
p1677
tp1678
F0.001693002257336343
s(S'al'
p1679
g167
g302
tp1680
F0.000564334085778781
s(S'[[num]]'
p1681
S'issue'
p1682
S'page'
p1683
tp1684
F0.000564334085778781
s(S'[[con]]'
p1685
g1032
g1033
tp1686
F0.000564334085778781
s(S'[[det]]'
p1687
S'son'
p1688
S'[[det]]'
p1689
tp1690
F0.001128668171557562
s(S'was'
p1691
S'brother'
p1692
S'to'
p1693
tp1694
F0.000564334085778781
s(S'been'
p1695
S'born'
p1696
S'to'
p1697
tp1698
F0.000564334085778781
s(g1
g709
g710
tp1699
F0.000564334085778781
s(S'child'
p1700
S'[[det]]'
p1701
S'son'
p1702
tp1703
F0.000564334085778781
s(S'[[det]]'
p1704
S'heir'
p1705
S'of'
p1706
tp1707
F0.000564334085778781
s(S'died'
p1708
S'[[adj]]'
p1709
S'ref'
p1710
tp1711
F0.000564334085778781
s(S'pp'
p1712
S'[[num]]'
p1713
S'[[adj]]'
p1714
tp1715
F0.001128668171557562
s(S'succeeded'
p1716
S'[[prp]]'
p1717
S'father'
p1718
tp1719
F0.0039503386004514675
s(S'then'
p1720
S'gave'
p1721
S'to'
p1722
tp1723
F0.000564334085778781
s(S'[[con]]'
p1724
S'gave'
p1725
S'[[det]]'
p1726
tp1727
F0.000564334085778781
s(S'to'
p1728
S'overthrow'
p1729
S'[[det]]'
p1730
tp1731
F0.000564334085778781
s(S'[[det]]'
p1732
S'heir'
p1733
S'to'
p1734
tp1735
F0.000564334085778781
s(g1
S'brother'
p1736
S'in'
p1737
tp1738
F0.000564334085778781
s(S'[[det]]'
p1739
S'father'
p1740
S'when'
p1741
tp1742
F0.000564334085778781
s(S'awarded'
p1743
S'lt'
p1744
S'ref'
p1745
tp1746
F0.000564334085778781
s(S'[[adj]]'
p1747
S'works'
p1748
S'are'
p1749
tp1750
F0.000564334085778781
s(S'name'
p1751
g1369
g1370
tp1752
F0.000564334085778781
s(S'[[adj]]'
p1753
S'tributary'
p1754
S'of'
p1755
tp1756
F0.000564334085778781
s(S'[[con]]'
p1757
S'brother'
p1758
S'of'
p1759
tp1760
F0.000564334085778781
s(S'[[adj]]'
p1761
S'sons'
p1762
S'[[con]]'
p1763
tp1764
F0.000564334085778781
s(S'for'
p1765
S'lt'
p1766
S'ref'
p1767
tp1768
F0.000564334085778781
s(S'[[adj]]'
p1769
S'actress'
p1770
g1452
tp1771
F0.000564334085778781
s(S'[[prp]]'
p1772
S'son'
p1773
S'[[con]]'
p1774
tp1775
F0.000564334085778781
s(S'was'
p1776
S'married'
p1777
S'to'
p1778
tp1779
F0.000564334085778781
s(g1
S'daughter'
p1780
S'with'
p1781
tp1782
F0.000564334085778781
s(S'[[det]]'
p1783
S'child'
p1784
S'of'
p1785
tp1786
F0.000564334085778781
s(g1
S'death'
p1787
S'by'
p1788
tp1789
F0.000564334085778781
s(S'[[det]]'
p1790
S'child'
p1791
S'with'
p1792
tp1793
F0.000564334085778781
s(S'born'
p1794
S'in'
p1795
S'to'
p1796
tp1797
F0.000564334085778781
s(S'[[det]]'
p1798
S'children'
p1799
g1
tp1800
F0.000564334085778781
s(S'as'
p1801
S'son'
p1802
S'of'
p1803
tp1804
F0.001128668171557562
s(g1264
g1265
S'son'
p1805
tp1806
F0.000564334085778781
s(g1
S'son'
p1807
S'in'
p1808
tp1809
F0.000564334085778781
s(S'[[prp]]'
p1810
S'wife'
p1811
S'had'
p1812
tp1813
F0.000564334085778781
s(S'wife'
p1814
S'daughter'
p1815
S'of'
p1816
tp1817
F0.001128668171557562
s(S'in'
p1818
S'[[adj]]'
p1819
S'daughter'
p1820
tp1821
F0.000564334085778781
s(S'[[det]]'
p1822
S'brother'
p1823
S'[[num]]'
p1824
tp1825
F0.000564334085778781
s(S'son'
p1826
S'[[con]]'
p1827
S'wife'
p1828
tp1829
F0.000564334085778781
s(S'[[adj]]'
p1830
S'lt'
p1831
g1437
tp1832
F0.003386004514672686
s(S'[[adj]]'
p1833
S'wife'
p1834
S'[[det]]'
p1835
tp1836
F0.000564334085778781
s(S'[[det]]'
p1837
S'brother'
p1838
S'[[adj]]'
p1839
tp1840
F0.000564334085778781
s(S'[[adj]]'
p1841
S'children'
p1842
S'[[num]]'
p1843
tp1844
F0.000564334085778781
s(S'[[con]]'
p1845
S'eldest'
p1846
S'surviving'
p1847
tp1848
F0.000564334085778781
s(S'of'
p1849
S'[[det]]'
p1850
S'king'
p1851
tp1852
F0.000564334085778781
s(S'succeeded'
p1853
S'when'
p1854
S'died'
p1855
tp1856
F0.000564334085778781
s(S'only'
p1857
S'son'
p1858
S'of'
p1859
tp1860
F0.001128668171557562
s(S'[[num]]'
p1861
g294
g295
tp1862
F0.017494356659142212
s(S'accessed'
p1863
S'[[num]]'
p1864
S'lt'
p1865
tp1866
F0.001128668171557562
s(S'daughter'
p1867
S'by'
p1868
S'[[adj]]'
p1869
tp1870
F0.000564334085778781
s(S'[[det]]'
p1871
S'father'
p1872
S'of'
p1873
tp1874
F0.000564334085778781
s(S'[[adj]]'
p1875
S'son'
p1876
S'who'
p1877
tp1878
F0.000564334085778781
s(S'[[prp]]'
p1879
S'wife'
p1880
S'[[num]]'
p1881
tp1882
F0.000564334085778781
s(S'ref'
p1883
S'gt'
p1884
S'[[det]]'
p1885
tp1886
F0.003386004514672686
s(S'[[adj]]'
p1887
S'cousin'
p1888
S'to'
p1889
tp1890
F0.000564334085778781
s(S'[[prp]]'
p1891
S'sons'
p1892
S'[[con]]'
p1893
tp1894
F0.000564334085778781
s(S'is'
p1895
S'married'
p1896
S'[[con]]'
p1897
tp1898
F0.000564334085778781
s(S'also'
p1899
S'gave'
p1900
S'[[adj]]'
p1901
tp1902
F0.000564334085778781
s(g1
S'father'
p1903
S'who'
p1904
tp1905
F0.000564334085778781
s(g841
g842
S'parents'
p1906
tp1907
F0.000564334085778781
s(S'[[det]]'
p1908
S'heir'
p1909
S'[[con]]'
p1910
tp1911
F0.000564334085778781
s(g1
S'son'
p1912
S'de'
p1913
tp1914
F0.000564334085778781
s(S'[[prp]]'
p1915
S'brother'
p1916
S'who'
p1917
tp1918
F0.000564334085778781
s(S'[[con]]'
p1919
S'father'
p1920
S'of'
p1921
tp1922
F0.000564334085778781
s(S'was'
p1923
S'daughter'
p1924
S'of'
p1925
tp1926
F0.000564334085778781
s(g1
S'daughter'
p1927
S'[[det]]'
p1928
tp1929
F0.000564334085778781
s(S'[[det]]'
p1930
S'overthrow'
p1931
S'of'
p1932
tp1933
F0.000564334085778781
s(S'[[adj]]'
p1934
S'heir'
p1935
S'of'
p1936
tp1937
F0.000564334085778781
s(S'[[con]]'
p1938
S'daughter'
p1939
S'of'
p1940
tp1941
F0.000564334085778781
s(S'[[con]]'
p1942
S'youngest'
p1943
S'daughter'
p1944
tp1945
F0.000564334085778781
s(S'[[adj]]'
p1946
S'son'
p1947
S'[[adj]]'
p1948
tp1949
F0.000564334085778781
s(S'is'
p1950
S'succeeded'
p1951
S'as'
p1952
tp1953
F0.000564334085778781
s(S'was'
p1954
g1615
g795
tp1955
F0.012979683972911963
s(S'ref'
p1956
S'gt'
p1957
S'moved'
p1958
tp1959
F0.001693002257336343
s(S'to'
p1960
S'parents'
p1961
S'[[con]]'
p1962
tp1963
F0.000564334085778781
s(g1
S'son'
p1964
S'[[adj]]'
p1965
tp1966
F0.000564334085778781
s(S'accessed'
p1967
S'[[num]]'
p1968
S'ref'
p1969
tp1970
F0.000564334085778781
s(g1197
g1198
S'son'
p1971
tp1972
F0.000564334085778781
s(S'is'
p1973
S'succeeded'
p1974
S'by'
p1975
tp1976
F0.000564334085778781
s(S'[[adj]]'
p1977
S'mother'
p1978
S'of'
p1979
tp1980
F0.000564334085778781
s(g1
S'reign'
p1981
S'as'
p1982
tp1983
F0.000564334085778781
s(S'[[num]]'
p1984
S'married'
p1985
S'in'
p1986
tp1987
F0.000564334085778781
s(S'in'
p1988
S'[[det]]'
p1989
S'eldest'
p1990
tp1991
F0.001128668171557562
s(S'[[adj]]'
p1992
S'child'
p1993
S'[[det]]'
p1994
tp1995
F0.000564334085778781
s(S'died'
p1996
S'[[num]]'
p1997
S'son'
p1998
tp1999
F0.000564334085778781
s(S'[[num]]'
p2000
S'sons'
p2001
S'[[con]]'
p2002
tp2003
F0.000564334085778781
s(S'up'
p2004
S'in'
p2005
S'lt'
p2006
tp2007
F0.000564334085778781
s(S'pages'
p2008
S'[[num]]'
p2009
S'[[adj]]'
p2010
tp2011
F0.000564334085778781
s(g1230
g1231
S'children'
p2012
tp2013
F0.000564334085778781
s(S'[[det]]'
p2014
S'wife'
p2015
S'to'
p2016
tp2017
F0.000564334085778781
s(S'gt'
p2018
g1747
g1748
tp2019
F0.000564334085778781
s(S'daughter'
p2020
S'by'
p2021
S'[[prp]]'
p2022
tp2023
F0.000564334085778781
s(S'[[num]]'
p2024
S'sons'
p2025
S'of'
p2026
tp2027
F0.001128668171557562
s(S'name'
p2028
S'gt'
p2029
S'lt'
p2030
tp2031
F0.001693002257336343
s(S'was'
p2032
S'attended'
p2033
S'by'
p2034
tp2035
F0.000564334085778781
s(g1568
g1569
S'ref'
p2036
tp2037
F0.000564334085778781
s(S'with'
p2038
S'son'
p2039
S'of'
p2040
tp2041
F0.000564334085778781
s(S'ref'
p2042
S'gt'
p2043
S'wrote'
p2044
tp2045
F0.002257336343115124
s(S'grew'
p2046
g2004
g2005
tp2047
F0.000564334085778781
s(S'son'
p2048
S'of'
p2049
S'born'
p2050
tp2051
F0.000564334085778781
s(S'daughter'
p2052
g1685
g1032
tp2053
F0.000564334085778781
s(S'was'
p2054
S'grandson'
p2055
S'of'
p2056
tp2057
F0.000564334085778781
s(S'[[prp]]'
p2058
S'younger'
p2059
S'son'
p2060
tp2061
F0.000564334085778781
s(S'also'
p2062
S'gave'
p2063
S'[[num]]'
p2064
tp2065
F0.000564334085778781
s(S'[[det]]'
p2066
S'grandson'
p2067
S'of'
p2068
tp2069
F0.000564334085778781
s(S'ref'
p2070
S'gt'
p2071
S'lt'
p2072
tp2073
F0.008465011286681716
s(S'[[det]]'
p2074
S'tributary'
p2075
S'[[con]]'
p2076
tp2077
F0.000564334085778781
s(S'is'
p2078
S'son'
p2079
S'[[con]]'
p2080
tp2081
F0.000564334085778781
s(S'of'
p2082
g1146
g1147
tp2083
F0.000564334085778781
s(S'[[det]]'
p2084
S'father'
p2085
S'[[num]]'
p2086
tp2087
F0.000564334085778781
s(S'born'
p2088
g1960
g1961
tp2089
F0.001128668171557562
s(S'[[adj]]'
p2090
S'daughter'
p2091
S'of'
p2092
tp2093
F0.002257336343115124
s(S'was'
p2094
S'kept'
p2095
S'by'
p2096
tp2097
F0.000564334085778781
s(S'youngest'
p2098
S'daughter'
p2099
S'[[con]]'
p2100
tp2101
F0.000564334085778781
s(g1
S'father'
p2102
S'[[num]]'
p2103
tp2104
F0.000564334085778781
s(S'[[num]]'
p2105
g1700
g1701
tp2106
F0.000564334085778781
s(S'ref'
p2107
S'name'
p2108
S'[[adj]]'
p2109
tp2110
F0.000564334085778781
s(g1314
g1315
S'[[con]]'
p2111
tp2112
F0.000564334085778781
s(g1
S'wife'
p2113
S'with'
p2114
tp2115
F0.000564334085778781
s(g1
S'son'
p2116
S'who'
p2117
tp2118
F0.000564334085778781
s(S'[[adj]]'
p2119
S'heir'
p2120
S'to'
p2121
tp2122
F0.000564334085778781
s(S'was'
p2123
g1644
g1645
tp2124
F0.001128668171557562
s(S'[[prp]]'
p2125
S'brother'
p2126
S'was'
p2127
tp2128
F0.000564334085778781
s(g1
g1814
g1815
tp2129
F0.000564334085778781
s(S'eldest'
p2130
S'daughter'
p2131
S'of'
p2132
tp2133
F0.000564334085778781
s(S'son'
p2134
S'of'
p2135
S'king'
p2136
tp2137
F0.000564334085778781
s(S'[[adj]]'
p2138
S'gt'
p2139
S'[[num]]'
p2140
tp2141
F0.000564334085778781
s(S'wife'
p2142
S'[[con]]'
p2143
S'son'
p2144
tp2145
F0.001128668171557562
s(S'son'
p2146
g950
g951
tp2147
F0.000564334085778781
s(S'ref'
p2148
S'gt'
p2149
S'of'
p2150
tp2151
F0.001128668171557562
s(S'born'
p2152
S'[[adj]]'
p2153
S'son'
p2154
tp2155
F0.000564334085778781
s(S'[[adj]]'
p2156
S'married'
p2157
S'on'
p2158
tp2159
F0.000564334085778781
s(S'born'
p2160
S'son'
p2161
S'of'
p2162
tp2163
F0.001128668171557562
s(S'[[prp]]'
p2164
S'brother'
p2165
S'to'
p2166
tp2167
F0.000564334085778781
s(S'[[num]]'
p2168
S'gt'
p2169
S'for'
p2170
tp2171
F0.000564334085778781
s(S'[[num]]'
p2172
S'children'
p2173
S'together'
p2174
tp2175
F0.000564334085778781
s(S'[[num]]'
p2176
S'gt'
p2177
S'[[num]]'
p2178
tp2179
F0.000564334085778781
s(g1
S'father'
p2180
S'to'
p2181
tp2182
F0.000564334085778781
s(S'[[det]]'
p2183
S'brother'
p2184
S'had'
p2185
tp2186
F0.000564334085778781
s(S'was'
p2187
g2152
g2153
tp2188
F0.001128668171557562
s(S'[[adj]]'
p2189
S'mother'
p2190
S'to'
p2191
tp2192
F0.000564334085778781
s(S'daughter'
p2193
S'of'
p2194
S'[[det]]'
p2195
tp2196
F0.001693002257336343
s(S'child'
p2197
g1845
g1846
tp2198
F0.000564334085778781
s(S'[[num]]'
p2199
g820
g821
tp2200
F0.000564334085778781
s(S'[[det]]'
p2201
S'children'
p2202
S'[[det]]'
p2203
tp2204
F0.000564334085778781
s(S'ref'
p2205
g1339
g1340
tp2206
F0.0028216704288939053
s(S'of'
p2207
S'actors'
p2208
S'[[con]]'
p2209
tp2210
F0.001693002257336343
s(S'ref'
p2211
S'gt'
p2212
S'also'
p2213
tp2214
F0.000564334085778781
s(S'[[prp]]'
p2215
S'mother'
p2216
S'[[con]]'
p2217
tp2218
F0.000564334085778781
s(S'died'
p2219
g1082
g1083
tp2220
F0.000564334085778781
s(S'[[det]]'
p2221
S'sons'
p2222
S'[[con]]'
p2223
tp2224
F0.000564334085778781
s(S'born'
p2225
S'[[num]]'
p2226
S'son'
p2227
tp2228
F0.000564334085778781
s(S'is'
p2229
S'born'
p2230
S'to'
p2231
tp2232
F0.000564334085778781
s(g189
g336
S'lt'
p2233
tp2234
F0.001693002257336343
s(S'[[num]]'
p2235
S'son'
p2236
S'of'
p2237
tp2238
F0.003386004514672686
s(S'being'
p2239
S'succeeded'
p2240
S'by'
p2241
tp2242
F0.000564334085778781
s(S'born'
p2243
S'[[adj]]'
p2244
S'ref'
p2245
tp2246
F0.001693002257336343
s(S'had'
p2247
S'married'
p2248
S'[[num]]'
p2249
tp2250
F0.000564334085778781
s(S'son'
p2251
g871
g872
tp2252
F0.0028216704288939053
s(S'[[con]]'
p2253
S'mother'
p2254
S'of'
p2255
tp2256
F0.000564334085778781
s(S'is'
p2257
S'cousin'
p2258
S'of'
p2259
tp2260
F0.000564334085778781
s(S'[[adj]]'
p2261
S'reign'
p2262
S'of'
p2263
tp2264
F0.000564334085778781
s(S'had'
p2265
S'married'
p2266
S'at'
p2267
tp2268
F0.000564334085778781
s(S'[[num]]'
p2269
S'child'
p2270
S'with'
p2271
tp2272
F0.000564334085778781
s(S'[[con]]'
p2273
S'succeeded'
p2274
S'[[pro]]'
p2275
tp2276
F0.000564334085778781
s(g138
g139
S'students'
p2277
tp2278
F0.000564334085778781
s(g259
g260
g2070
tp2279
F0.014672686230248307
s(S'[[adj]]'
p2280
S'son'
p2281
S'[[pro]]'
p2282
tp2283
F0.000564334085778781
s(S'son'
p2284
S'by'
p2285
S'[[prp]]'
p2286
tp2287
F0.001128668171557562
s(g1289
S'played'
p2288
S'as'
p2289
tp2290
F0.000564334085778781
s(S'[[prp]]'
p2291
S'brother'
p2292
S'[[con]]'
p2293
tp2294
F0.000564334085778781
s(g2194
g2195
S'actor'
p2295
tp2296
F0.001128668171557562
s(S'became'
p2297
S'emperor'
p2298
S'as'
p2299
tp2300
F0.000564334085778781
s(S'born'
p2301
S'[[det]]'
p2302
S'daughter'
p2303
tp2304
F0.000564334085778781
s(S'was'
p2305
g1278
g1279
tp2306
F0.000564334085778781
s(g1847
S'daughter'
p2307
S'of'
p2308
tp2309
F0.001128668171557562
s(S'ref'
p2310
S'gt'
p2311
S'given'
p2312
tp2313
F0.000564334085778781
s(S'[[det]]'
p2314
S'king'
p2315
S'son'
p2316
tp2317
F0.000564334085778781
s(S'daughter'
p2318
S'of'
p2319
S'actors'
p2320
tp2321
F0.002257336343115124
s(S'is'
p2322
S'brother'
p2323
S'to'
p2324
tp2325
F0.000564334085778781
s(S'[[det]]'
p2326
S'reign'
p2327
S'of'
p2328
tp2329
F0.000564334085778781
s(S'[[num]]'
p2330
S'son'
p2331
S'[[det]]'
p2332
tp2333
F0.000564334085778781
s(S'was'
p2334
S'born'
p2335
S'with'
p2336
tp2337
F0.000564334085778781
s(S'[[det]]'
p2338
S'daughter'
p2339
S'of'
p2340
tp2341
F0.012979683972911963
s(S'ref'
p2342
S'gt'
p2343
S'while'
p2344
tp2345
F0.000564334085778781
s(g1
S'brother'
p2346
S'[[num]]'
p2347
tp2348
F0.000564334085778781
s(S'[[det]]'
p2349
g1433
g1434
tp2350
F0.000564334085778781
s(S'born'
p2351
g1598
g1599
tp2352
F0.001128668171557562
s(S'[[prp]]'
p2353
S'father'
p2354
S'in'
p2355
tp2356
F0.000564334085778781
s(g443
g444
S'gt'
p2357
tp2358
F0.002257336343115124
s(S'[[num]]'
p2359
S'sons'
p2360
S'[[det]]'
p2361
tp2362
F0.000564334085778781
s(S'was'
p2363
S'married'
p2364
S'with'
p2365
tp2366
F0.000564334085778781
s(S'ref'
p2367
S'gt'
p2368
S'reported'
p2369
tp2370
F0.000564334085778781
s(S'death'
p2371
g582
g583
tp2372
F0.000564334085778781
s(g1453
g1454
S'ref'
p2373
tp2374
F0.001128668171557562
s(S'gt'
p2375
g2032
g2033
tp2376
F0.000564334085778781
s(S'was'
p2377
g2351
g1598
tp2378
F0.0028216704288939053
s(g499
g767
S'of'
p2379
tp2380
F0.001128668171557562
s(g1846
g1847
g2307
tp2381
F0.001128668171557562
s(S'was'
p2382
S'kept'
p2383
S'on'
p2384
tp2385
F0.000564334085778781
s(g1
S'wife'
p2386
S'[[adj]]'
p2387
tp2388
F0.000564334085778781
s(g597
g598
S'gt'
p2389
tp2390
F0.010158013544018058
s(S'[[prp]]'
p2391
S'cousin'
p2392
S'[[con]]'
p2393
tp2394
F0.000564334085778781
s(S'gt'
p2395
S'was'
p2396
S'with'
p2397
tp2398
F0.000564334085778781
s(S'[[det]]'
p2399
g2371
g582
tp2400
F0.001128668171557562
s(g1
S'cousin'
p2401
S'[[con]]'
p2402
tp2403
F0.000564334085778781
s(S'[[con]]'
p2404
S'son'
p2405
S'of'
p2406
tp2407
F0.000564334085778781
s(S'born'
p2408
S'[[con]]'
p2409
S'[[adj]]'
p2410
tp2411
F0.001128668171557562
s(S'reports'
p2412
S'that'
p2413
S'lt'
p2414
tp2415
F0.000564334085778781
s(S'[[det]]'
p2416
S'mother'
p2417
S'[[con]]'
p2418
tp2419
F0.000564334085778781
s(S'[[prp]]'
p2420
S'daughter'
p2421
S'[[adj]]'
p2422
tp2423
F0.000564334085778781
s(S'ref'
p2424
S'gt'
p2425
S'played'
p2426
tp2427
F0.0028216704288939053
s(S'[[adj]]'
p2428
S'daughter'
p2429
S'[[det]]'
p2430
tp2431
F0.000564334085778781
s(S'who'
p2432
S'married'
p2433
S'first'
p2434
tp2435
F0.000564334085778781
s(S'[[adj]]'
p2436
S'emperor'
p2437
S'[[con]]'
p2438
tp2439
F0.000564334085778781
s(g310
g311
S'as'
p2440
tp2441
F0.001128668171557562
s(g2396
g2397
S'include'
p2442
tp2443
F0.000564334085778781
s(S'born'
p2444
S'[[det]]'
p2445
S'eldest'
p2446
tp2447
F0.000564334085778781
s(S'gt'
p2448
S'has'
p2449
S'worked'
p2450
tp2451
F0.000564334085778781
s(S'[[con]]'
p2452
S'only'
p2453
S'son'
p2454
tp2455
F0.000564334085778781
s(S'[[det]]'
p2456
S'father'
p2457
S'in'
p2458
tp2459
F0.000564334085778781
s(S'[[adj]]'
p2460
S'son'
p2461
S'[[num]]'
p2462
tp2463
F0.000564334085778781
s(S'had'
p2464
S'succeeded'
p2465
S'as'
p2466
tp2467
F0.000564334085778781
s(S'wrote'
p2468
S'lt'
p2469
S'[[adj]]'
p2470
tp2471
F0.001693002257336343
s(S'et'
p2472
g1679
g167
tp2473
F0.000564334085778781
s(S'[[num]]'
p2474
S'daughter'
p2475
S'[[con]]'
p2476
tp2477
F0.000564334085778781
s(S'was'
p2478
S'married'
p2479
S'first'
p2480
tp2481
F0.000564334085778781
s(S'already'
p2482
S'married'
p2483
S'to'
p2484
tp2485
F0.000564334085778781
s(S'more'
p2486
S'children'
p2487
S'[[det]]'
p2488
tp2489
F0.000564334085778781
s(S'youngest'
p2490
S'daughter'
p2491
S'of'
p2492
tp2493
F0.001693002257336343
s(g1
S'lt'
p2494
S'[[num]]'
p2495
tp2496
F0.000564334085778781
s(S'[[adj]]'
p2497
S'child'
p2498
S'of'
p2499
tp2500
F0.005079006772009029
s(S'then'
p2501
S'married'
p2502
S'to'
p2503
tp2504
F0.000564334085778781
s(g518
g519
S'lt'
p2505
tp2506
F0.000564334085778781
s(S'[[prp]]'
p2507
S'son'
p2508
S'was'
p2509
tp2510
F0.000564334085778781
s(S'had'
p2511
S'married'
p2512
S'to'
p2513
tp2514
F0.000564334085778781
s(S'eldest'
p2515
S'son'
p2516
S'to'
p2517
tp2518
F0.000564334085778781
s(S'name'
p2519
S'gt'
p2520
S'[[con]]'
p2521
tp2522
F0.000564334085778781
s(g1
S'son'
p2523
S'with'
p2524
tp2525
F0.000564334085778781
s(S'is'
p2526
S'father'
p2527
S'to'
p2528
tp2529
F0.000564334085778781
s(S'is'
p2530
S'married'
p2531
S'to'
p2532
tp2533
F0.000564334085778781
s(S'[[pro]]'
p2534
S'brother'
p2535
S'[[con]]'
p2536
tp2537
F0.000564334085778781
s(S'[[det]]'
p2538
S'daughter'
p2539
S'wife'
p2540
tp2541
F0.000564334085778781
s(S'to'
p2542
S'daughter'
p2543
S'of'
p2544
tp2545
F0.000564334085778781
s(g1
S'daughter'
p2546
S'in'
p2547
tp2548
F0.000564334085778781
s(S'[[det]]'
p2549
S'son'
p2550
S'also'
p2551
tp2552
F0.000564334085778781
s(S'died'
p2553
S'at'
p2554
S'[[adj]]'
p2555
tp2556
F0.000564334085778781
s(S'[[det]]'
p2557
S'eldest'
p2558
S'son'
p2559
tp2560
F0.007900677200902935
s(S'ref'
p2561
S'gt'
p2562
S'appeared'
p2563
tp2564
F0.000564334085778781
s(S'called'
p2565
S'[[det]]'
p2566
S'lt'
p2567
tp2568
F0.000564334085778781
s(S'was'
p2569
S'son'
p2570
S'of'
p2571
tp2572
F0.000564334085778781
s(S'ref'
p2573
S'gt'
p2574
S'had'
p2575
tp2576
F0.001128668171557562
s(S'ref'
p2577
S'gt'
p2578
S'in'
p2579
tp2580
F0.000564334085778781
s(g745
g746
S'son'
p2581
tp2582
F0.000564334085778781
s(S'born'
p2583
S'lt'
p2584
S'ref'
p2585
tp2586
F0.001128668171557562
s(S'[[con]]'
p2587
S'[[prp]]'
p2588
S'daughter'
p2589
tp2590
F0.000564334085778781
s(S'born'
p2591
S'[[num]]'
p2592
S'daughter'
p2593
tp2594
F0.000564334085778781
s(S'ref'
p2595
S'gt'
p2596
S'at'
p2597
tp2598
F0.000564334085778781
s(S'is'
p2599
S'mother'
p2600
S'of'
p2601
tp2602
F0.000564334085778781
s(S'son'
p2603
g1351
g1352
tp2604
F0.000564334085778781
s(S'was'
p2605
S'born'
p2606
S'lt'
p2607
tp2608
F0.000564334085778781
s(S'[[adj]]'
p2609
S'married'
p2610
S'to'
p2611
tp2612
F0.000564334085778781
s(g2315
g2316
S'of'
p2613
tp2614
F0.000564334085778781
s(S'[[det]]'
p2615
g149
g150
tp2616
F0.001128668171557562
s(S'born'
p2617
g634
g635
tp2618
F0.000564334085778781
s(g847
g848
g1385
tp2619
F0.001128668171557562
s(S'to'
p2620
S'lt'
p2621
S'ref'
p2622
tp2623
F0.000564334085778781
s(g1
S'oldest'
p2624
S'son'
p2625
tp2626
F0.001128668171557562
s(S'born'
p2627
g1801
g1802
tp2628
F0.000564334085778781
s(S'[[con]]'
p2629
S'grandson'
p2630
S'of'
p2631
tp2632
F0.000564334085778781
s(S'[[det]]'
p2633
S'cousin'
p2634
S'[[det]]'
p2635
tp2636
F0.000564334085778781
s(g1102
g1103
S'of'
p2637
tp2638
F0.001128668171557562
s(S'later'
p2639
S'married'
p2640
S'[[det]]'
p2641
tp2642
F0.000564334085778781
s(S'in'
p2643
S'[[adj]]'
p2644
S'child'
p2645
tp2646
F0.001128668171557562
s(S'was'
p2647
S'married'
p2648
S'twice'
p2649
tp2650
F0.000564334085778781
s(S'is'
p2651
S'father'
p2652
S'[[con]]'
p2653
tp2654
F0.000564334085778781
s(S'died'
p2655
g1491
g1492
tp2656
F0.000564334085778781
s(S'[[con]]'
p2657
S'[[det]]'
p2658
S'eldest'
p2659
tp2660
F0.000564334085778781
s(S'[[num]]'
p2661
S'children'
p2662
S'[[con]]'
p2663
tp2664
F0.000564334085778781
s(S'[[det]]'
p2665
S'brother'
p2666
S'who'
p2667
tp2668
F0.000564334085778781
s(S'daughter'
p2669
S'[[con]]'
p2670
S'[[adj]]'
p2671
tp2672
F0.001693002257336343
s(S'[[det]]'
p2673
S'daughter'
p2674
S'[[con]]'
p2675
tp2676
F0.0039503386004514675
s(g813
g814
S'of'
p2677
tp2678
F0.001128668171557562
s(g2449
g2450
S'with'
p2679
tp2680
F0.000564334085778781
s(S'[[con]]'
p2681
S'[[adj]]'
p2682
S'daughter'
p2683
tp2684
F0.000564334085778781
s(g2072
S'gt'
p2685
S'[[con]]'
p2686
tp2687
F0.001693002257336343
s(S'is'
p2688
S'[[det]]'
p2689
S'daughter'
p2690
tp2691
F0.000564334085778781
s(g371
g41
g42
tp2692
F0.000564334085778781
s(g1
S'son'
p2693
S'[[num]]'
p2694
tp2695
F0.000564334085778781
s(S'[[num]]'
p2696
S'children'
p2697
S'to'
p2698
tp2699
F0.000564334085778781
s(S'wife'
p2700
S'[[con]]'
p2701
S'[[adj]]'
p2702
tp2703
F0.000564334085778781
s(S'lt'
p2704
S'gt'
p2705
S'with'
p2706
tp2707
F0.000564334085778781
s(S'gt'
p2708
g1681
g1682
tp2709
F0.000564334085778781
s(S'wife'
p2710
S'was'
p2711
S'[[det]]'
p2712
tp2713
F0.000564334085778781
s(S'died'
p2714
S'[[con]]'
p2715
S'[[prp]]'
p2716
tp2717
F0.000564334085778781
s(g1
S'father'
p2718
S'of'
p2719
tp2720
F0.000564334085778781
s(S'also'
p2721
S'married'
p2722
S'[[det]]'
p2723
tp2724
F0.000564334085778781
s(g960
g600
g601
tp2725
F0.000564334085778781
s(S'[[det]]'
p2726
g1552
g1553
tp2727
F0.000564334085778781
s(S'said'
p2728
S'lt'
p2729
S'ref'
p2730
tp2731
F0.000564334085778781
s(S'[[num]]'
p2732
S'children'
p2733
S'[[adj]]'
p2734
tp2735
F0.000564334085778781
s(g1
S'wife'
p2736
S'as'
p2737
tp2738
F0.000564334085778781
s(S'[[det]]'
p2739
S'son'
p2740
S'by'
p2741
tp2742
F0.001693002257336343
s(g1770
g1452
g1453
tp2743
F0.000564334085778781
s(S'is'
p2744
S'married'
p2745
S'with'
p2746
tp2747
F0.000564334085778781
s(S'was'
p2748
S'born'
p2749
S'after'
p2750
tp2751
F0.000564334085778781
s(g1
S'brother'
p2752
S'[[det]]'
p2753
tp2754
F0.000564334085778781
s(g1049
g1050
S'ref'
p2755
tp2756
F0.000564334085778781
s(S'ref'
p2757
S'gt'
p2758
S'became'
p2759
tp2760
F0.000564334085778781
s(S'born'
p2761
g854
g855
tp2762
F0.000564334085778781
s(S'[[det]]'
p2763
S'son'
p2764
S'[[adj]]'
p2765
tp2766
F0.000564334085778781
s(S'[[num]]'
p2767
S'children'
p2768
S'by'
p2769
tp2770
F0.000564334085778781
s(g951
g952
S'of'
p2771
tp2772
F0.001128668171557562
s(g2554
g2555
S'ref'
p2773
tp2774
F0.000564334085778781
s(g963
g964
S'son'
p2775
tp2776
F0.000564334085778781
s(S'[[prp]]'
p2777
S'eldest'
p2778
S'son'
p2779
tp2780
F0.001128668171557562
s(S'[[prp]]'
p2781
S'father'
p2782
S'[[con]]'
p2783
tp2784
F0.001128668171557562
s(S'[[adj]]'
p2785
S'grandson'
p2786
S'of'
p2787
tp2788
F0.000564334085778781
s(S'[[det]]'
p2789
g721
g722
tp2790
F0.000564334085778781
s(g757
g758
S'wife'
p2791
tp2792
F0.0028216704288939053
s(g1450
g1365
g1366
tp2793
F0.000564334085778781
s(g1
S'grandson'
p2794
S'[[con]]'
p2795
tp2796
F0.000564334085778781
s(S'be'
p2797
S'married'
p2798
S'to'
p2799
tp2800
F0.000564334085778781
s(g1
S'death'
p2801
S'as'
p2802
tp2803
F0.000564334085778781
s(g1
S'brother'
p2804
S'[[con]]'
p2805
tp2806
F0.000564334085778781
s(S'child'
p2807
g2681
g2682
tp2808
F0.001128668171557562
s(g255
g256
S'to'
p2809
tp2810
F0.000564334085778781
s(S'was'
p2811
S'born'
p2812
S'into'
p2813
tp2814
F0.000564334085778781
s(S'pages'
p2815
S'[[num]]'
p2816
S'lt'
p2817
tp2818
F0.000564334085778781
s(S'to'
p2819
g187
g188
tp2820
F0.000564334085778781
s(S'[[adj]]'
p2821
S'eldest'
p2822
S'son'
p2823
tp2824
F0.001128668171557562
s(S'[[adj]]'
p2825
S'child'
p2826
S'with'
p2827
tp2828
F0.000564334085778781
s(S'was'
p2829
S'born'
p2830
S'when'
p2831
tp2832
F0.000564334085778781
s(g1311
g1312
S'ref'
p2833
tp2834
F0.000564334085778781
s(S'ref'
p2835
S'gt'
p2836
S'[[pro]]'
p2837
tp2838
F0.000564334085778781
s(S'born'
p2839
S'in'
p2840
S'lt'
p2841
tp2842
F0.000564334085778781
s(S'born'
p2843
g153
g154
tp2844
F0.001693002257336343
s(S'lt'
p2845
g1861
g294
tp2846
F0.016930022573363433
s(g1682
g1683
S'[[num]]'
p2847
tp2848
F0.000564334085778781
s(g195
g196
S'where'
p2849
tp2850
F0.000564334085778781
s(g1352
g1353
S'as'
p2851
tp2852
F0.000564334085778781
s(g2285
g2286
S'wife'
p2853
tp2854
F0.001693002257336343
s(S'[[adj]]'
p2855
S'cousin'
p2856
S'[[det]]'
p2857
tp2858
F0.000564334085778781
s(S'lt'
p2859
g1285
g596
tp2860
F0.004514672686230248
s(S'died'
p2861
S'[[con]]'
p2862
S'was'
p2863
tp2864
F0.001693002257336343
s(S'was'
p2865
g1263
g1264
tp2866
F0.002257336343115124
s(S'gt'
p2867
S'[[det]]'
p2868
S'release'
p2869
tp2870
F0.000564334085778781
s(S'[[prp]]'
p2871
S'son'
p2872
S'with'
p2873
tp2874
F0.000564334085778781
s(g1
S'youngest'
p2875
S'son'
p2876
tp2877
F0.000564334085778781
s(S'also'
p2878
S'married'
p2879
S'to'
p2880
tp2881
F0.000564334085778781
s(S'page'
p2882
S'[[num]]'
p2883
S'lt'
p2884
tp2885
F0.001693002257336343
s(g2470
S'gt'
p2886
S'was'
p2887
tp2888
F0.000564334085778781
s(S'married'
p2889
S'[[adj]]'
p2890
S'ref'
p2891
tp2892
F0.001128668171557562
s(g680
g681
S'of'
p2893
tp2894
F0.001128668171557562
s(g1645
g1646
S'son'
p2895
tp2896
F0.000564334085778781
s(g363
g364
S'son'
p2897
tp2898
F0.000564334085778781
s(S'is'
p2899
S'daughter'
p2900
S'of'
p2901
tp2902
F0.000564334085778781
s(g1
S'mother'
p2903
S'[[det]]'
p2904
tp2905
F0.000564334085778781
s(S'[[prp]]'
p2906
S'son'
p2907
S'[[det]]'
p2908
tp2909
F0.000564334085778781
s(g1
S'son'
p2910
S'of'
p2911
tp2912
F0.000564334085778781
s(S'[[det]]'
p2913
g222
g223
tp2914
F0.000564334085778781
s(S'son'
p2915
S'[[con]]'
p2916
S'son'
p2917
tp2918
F0.000564334085778781
s(S'[[num]]'
p2919
S'daughter'
p2920
S'of'
p2921
tp2922
F0.001128668171557562
s(S'[[det]]'
p2923
S'father'
p2924
S'was'
p2925
tp2926
F0.000564334085778781
s(S'[[adj]]'
p2927
S'cousin'
p2928
S'[[num]]'
p2929
tp2930
F0.000564334085778781
s(g18
g19
S'ref'
p2931
tp2932
F0.001128668171557562
s(S'ref'
p2933
S'gt'
p2934
S'scored'
p2935
tp2936
F0.000564334085778781
s(S'started'
p2937
g358
g359
tp2938
F0.000564334085778781
s(S'gt'
p2939
S'lt'
p2940
S'[[num]]'
p2941
tp2942
F0.000564334085778781
s(S'at'
p2943
S'[[det]]'
p2944
S'eldest'
p2945
tp2946
F0.000564334085778781
s(S'born'
p2947
S'[[num]]'
p2948
S'lt'
p2949
tp2950
F0.000564334085778781
s(S'son'
p2951
g664
g665
tp2952
F0.002257336343115124
s(S'was'
p2953
g1743
g1744
tp2954
F0.000564334085778781
s(S'[[det]]'
p2955
S'brother'
p2956
S'[[con]]'
p2957
tp2958
F0.000564334085778781
s(S'was'
p2959
S'married'
p2960
S'[[det]]'
p2961
tp2962
F0.000564334085778781
s(g1
S'mother'
p2963
S'[[con]]'
p2964
tp2965
F0.000564334085778781
s(S'was'
p2966
S'born'
p2967
S'to'
p2968
tp2969
F0.002257336343115124
s(S'[[det]]'
p2970
S'daughter'
p2971
S'with'
p2972
tp2973
F0.000564334085778781
s(g1
S'youngest'
p2974
S'daughter'
p2975
tp2976
F0.000564334085778781
s(g1
S'death'
p2977
S'[[num]]'
p2978
tp2979
F0.000564334085778781
s(S'been'
p2980
S'born'
p2981
S'[[det]]'
p2982
tp2983
F0.000564334085778781
s(S'ref'
p2984
S'gt'
p2985
S'as'
p2986
tp2987
F0.001128668171557562
s(S'was'
p2988
S'born'
p2989
S'son'
p2990
tp2991
F0.000564334085778781
s(g1795
g1796
S'parents'
p2992
tp2993
F0.000564334085778781
s(g1
S'cousin'
p2994
S'[[num]]'
p2995
tp2996
F0.000564334085778781
s(S'was'
p2997
g972
g234
tp2998
F0.001693002257336343
s(S'was'
p2999
g1335
g1336
tp3000
F0.0039503386004514675
s(S'inherited'
p3001
S'[[det]]'
p3002
S'throne'
p3003
tp3004
F0.000564334085778781
s(S'[[con]]'
p3005
S'gave'
p3006
S'[[pro]]'
p3007
tp3008
F0.000564334085778781
s(S'[[det]]'
p3009
S'daughter'
p3010
S'who'
p3011
tp3012
F0.000564334085778781
s(g2071
g2072
g2685
tp3013
F0.003386004514672686
s(S'son'
p3014
g1119
g1120
tp3015
F0.001693002257336343
s(S'[[det]]'
p3016
g2098
g2099
tp3017
F0.001128668171557562
s(S'was'
p3018
S'father'
p3019
S'of'
p3020
tp3021
F0.000564334085778781
s(S'had'
p3022
S'succeeded'
p3023
S'[[pro]]'
p3024
tp3025
F0.000564334085778781
s(S'[[adj]]'
p3026
S'mother'
p3027
S'[[con]]'
p3028
tp3029
F0.000564334085778781
s(S'[[det]]'
p3030
g321
g322
tp3031
F0.001128668171557562
s(S'to'
p3032
g1495
g1496
tp3033
F0.000564334085778781
s(S'[[prp]]'
p3034
S'son'
p3035
S'[[num]]'
p3036
tp3037
F0.000564334085778781
s(S'[[adj]]'
p3038
S'sons'
p3039
S'of'
p3040
tp3041
F0.000564334085778781
s(S'[[prp]]'
p3042
g2142
g2143
tp3043
F0.001693002257336343
s(S'who'
p3044
S'gave'
p3045
S'[[prp]]'
p3046
tp3047
F0.000564334085778781
s(S'oldest'
p3048
S'child'
p3049
S'of'
p3050
tp3051
F0.000564334085778781
s(S'son'
p3052
S'of'
p3053
S'[[det]]'
p3054
tp3055
F0.001693002257336343
s(S'ref'
p3056
g1456
g1457
tp3057
F0.000564334085778781
s(g1
S'mother'
p3058
S'who'
p3059
tp3060
F0.000564334085778781
s(g1336
g1337
S'son'
p3061
tp3062
F0.001128668171557562
s(g1
S'father'
p3063
S'was'
p3064
tp3065
F0.000564334085778781
s(S'[[num]]'
p3066
g2448
g2449
tp3067
F0.000564334085778781
s(S'[[det]]'
p3068
S'son'
p3069
S'[[pro]]'
p3070
tp3071
F0.001128668171557562
s(S'[[adj]]'
p3072
S'son'
p3073
S'to'
p3074
tp3075
F0.000564334085778781
s(g1108
g1109
S'son'
p3076
tp3077
F0.000564334085778781
s(g1
S'death'
p3078
S'which'
p3079
tp3080
F0.000564334085778781
s(S'had'
p3081
S'married'
p3082
S'[[det]]'
p3083
tp3084
F0.000564334085778781
s(S'was'
p3085
S'succeeded'
p3086
S'[[con]]'
p3087
tp3088
F0.000564334085778781
s(S'[[adj]]'
p3089
S'son'
p3090
S'was'
p3091
tp3092
F0.000564334085778781
s(S'studied'
p3093
g1449
g1450
tp3094
F0.000564334085778781
s(g1
S'daughter'
p3095
S'to'
p3096
tp3097
F0.000564334085778781
s(S'[[det]]'
p3098
S'daughter'
p3099
S'[[det]]'
p3100
tp3101
F0.000564334085778781
s(S'ref'
p3102
S'gt'
p3103
S'was'
p3104
tp3105
F0.002257336343115124
s(g1025
g1026
S'[[con]]'
p3106
tp3107
F0.000564334085778781
s(g2868
g2869
S'[[det]]'
p3108
tp3109
F0.000564334085778781
s(S'been'
p3110
S'married'
p3111
S'to'
p3112
tp3113
F0.000564334085778781
s(g1288
g1289
g2288
tp3114
F0.000564334085778781
s(S'[[adj]]'
p3115
S'children'
p3116
S'of'
p3117
tp3118
F0.001128668171557562
s(S'[[num]]'
p3119
S'son'
p3120
S'[[con]]'
p3121
tp3122
F0.000564334085778781
s(S'have'
p3123
S'succeeded'
p3124
S'as'
p3125
tp3126
F0.000564334085778781
s(g2108
g2109
S'gt'
p3127
tp3128
F0.000564334085778781
s(S'[[num]]'
p3129
S'born'
p3130
S'[[num]]'
p3131
tp3132
F0.000564334085778781
s(g2409
g2410
S'son'
p3133
tp3134
F0.001693002257336343
s(g1
S'wife'
p3135
S'of'
p3136
tp3137
F0.000564334085778781
s(S'child'
p3138
g2082
g1146
tp3139
F0.000564334085778781
s(g2177
g2178
S'lt'
p3140
tp3141
F0.000564334085778781
s(S'[[adj]]'
p3142
S'children'
p3143
S'[[det]]'
p3144
tp3145
F0.000564334085778781
s(S'[[adj]]'
p3146
S'son'
p3147
S'by'
p3148
tp3149
F0.001693002257336343
s(S'daughter'
p3150
S'of'
p3151
S'actor'
p3152
tp3153
F0.000564334085778781
s(S'[[prp]]'
p3154
S'youngest'
p3155
S'son'
p3156
tp3157
F0.000564334085778781
s(g22
g23
S'lt'
p3158
tp3159
F0.000564334085778781
s(S'elder'
p3160
S'daughter'
p3161
S'of'
p3162
tp3163
F0.000564334085778781
s(S'was'
p3164
S'mother'
p3165
S'of'
p3166
tp3167
F0.000564334085778781
s(g162
g163
S'to'
p3168
tp3169
F0.000564334085778781
s(g2862
g2863
S'succeeded'
p3170
tp3171
F0.001693002257336343
s(S'ref'
p3172
S'gt'
p3173
S'died'
p3174
tp3175
F0.002257336343115124
s(S'[[con]]'
p3176
S'[[det]]'
p3177
S'daughter'
p3178
tp3179
F0.000564334085778781
s(S'[[prp]]'
p3180
S'father'
p3181
S'to'
p3182
tp3183
F0.000564334085778781
s(S'was'
p3184
S'succeeded'
p3185
S'who'
p3186
tp3187
F0.000564334085778781
s(S'[[con]]'
p3188
S'married'
p3189
S'[[det]]'
p3190
tp3191
F0.000564334085778781
s(S'[[prp]]'
p3192
S'daughter'
p3193
S'to'
p3194
tp3195
F0.000564334085778781
s(S'[[num]]'
p3196
S'son'
p3197
S'by'
p3198
tp3199
F0.000564334085778781
s.