(dp0
(S'to'
p1
S'form'
p2
S'[[det]]'
p3
tp4
F0.003745318352059925
s(S'wholly'
p5
S'owned'
p6
S'by'
p7
tp8
F0.00749063670411985
s(S'is'
p9
S'formed'
p10
S'as'
p11
tp12
F0.003745318352059925
s(S'[[adj]]'
p13
S'company'
p14
S'after'
p15
tp16
F0.003745318352059925
s(S'be'
p17
S'purchased'
p18
S'by'
p19
tp20
F0.003745318352059925
s(S'had'
p21
S'merged'
p22
S'with'
p23
tp24
F0.003745318352059925
s(S'been'
p25
S'owned'
p26
S'by'
p27
tp28
F0.003745318352059925
s(S'was'
p29
S'formed'
p30
S'from'
p31
tp32
F0.003745318352059925
s(S'was'
p33
S'formed'
p34
S'with'
p35
tp36
F0.003745318352059925
s(S'[[adj]]'
p37
S'formed'
p38
S'as'
p39
tp40
F0.003745318352059925
s(S'owned'
p41
S'subsidiary'
p42
S'of'
p43
tp44
F0.018726591760299626
s(S'later'
p45
S'renamed'
p46
S'as'
p47
tp48
F0.003745318352059925
s(S'be'
p49
S'sold'
p50
S'to'
p51
tp52
F0.003745318352059925
s(S'later'
p53
S'merged'
p54
S'with'
p55
tp56
F0.003745318352059925
s(S'be'
p57
S'acquired'
p58
S'by'
p59
tp60
F0.003745318352059925
s(S'was'
p61
S'merged'
p62
S'into'
p63
tp64
F0.003745318352059925
s(S'wholly'
p65
S'subsidiary'
p66
S'of'
p67
tp68
F0.003745318352059925
s(S'been'
p69
S'taken'
p70
S'over'
p71
tp72
F0.003745318352059925
s(S'is'
p73
g5
g6
tp74
F0.003745318352059925
s(S'parent'
p75
S'company'
p76
S'of'
p77
tp78
F0.00749063670411985
s(S'was'
p79
S'announced'
p80
S'[[det]]'
p81
tp82
F0.003745318352059925
s(S'is'
p83
S'renamed'
p84
S'from'
p85
tp86
F0.003745318352059925
s(S'were'
p87
S'acquired'
p88
S'by'
p89
tp90
F0.00749063670411985
s(S'were'
p91
S'purchased'
p92
S'from'
p93
tp94
F0.003745318352059925
s(S'was'
p95
S'renamed'
p96
S'of'
p97
tp98
F0.003745318352059925
s(S'later'
p99
S'sold'
p100
S'to'
p101
tp102
F0.003745318352059925
s(S'is'
p103
S'distributed'
p104
S'through'
p105
tp106
F0.003745318352059925
s(S'is'
p107
S'distributed'
p108
S'by'
p109
tp110
F0.003745318352059925
s(S'were'
p111
S'formed'
p112
S'[[con]]'
p113
tp114
F0.003745318352059925
s(S'[[det]]'
p115
S'agreement'
p116
S'sell'
p117
tp118
F0.00749063670411985
s(S'to'
p119
S'form'
p120
S'[[num]]'
p121
tp122
F0.003745318352059925
s(S'be'
p123
S'renamed'
p124
S'[[det]]'
p125
tp126
F0.003745318352059925
s(S'later'
p127
S'purchased'
p128
S'by'
p129
tp130
F0.003745318352059925
s(S'being'
p131
S'acquired'
p132
S'by'
p133
tp134
F0.003745318352059925
s(S'[[adj]]'
p135
S'division'
p136
S'of'
p137
tp138
F0.003745318352059925
s(S'be'
p139
S'taken'
p140
S'over'
p141
tp142
F0.003745318352059925
s(S'[[det]]'
p143
S'subsidiary'
p144
S'of'
p145
tp146
F0.0149812734082397
s(S'was'
p147
S'renamed'
p148
S'in'
p149
tp150
F0.003745318352059925
s(g117
S'[[det]]'
p151
S'company'
p152
tp153
F0.00749063670411985
s(S'later'
p154
S'merged'
p155
S'[[con]]'
p156
tp157
F0.003745318352059925
s(S'then'
p158
S'merged'
p159
S'with'
p160
tp161
F0.003745318352059925
s(S'[[adj]]'
p162
S'form'
p163
S'as'
p164
tp165
F0.003745318352059925
s(S'was'
p166
S'owned'
p167
S'[[con]]'
p168
tp169
F0.003745318352059925
s(S'had'
p170
S'purchased'
p171
S'from'
p172
tp173
F0.003745318352059925
s(S'was'
p174
S'purchased'
p175
S'by'
p176
tp177
F0.003745318352059925
s(S'was'
p178
S'formed'
p179
S'through'
p180
tp181
F0.00749063670411985
s(S'was'
p182
S'distributed'
p183
S'by'
p184
tp185
F0.003745318352059925
s(S'was'
p186
S'renamed'
p187
S'[[det]]'
p188
tp189
F0.003745318352059925
s(S'reached'
p190
g115
g116
tp191
F0.00749063670411985
s(S'[[adj]]'
p192
S'venture'
p193
S'[[con]]'
p194
tp195
F0.003745318352059925
s(S'was'
p196
S'sold'
p197
S'off'
p198
tp199
F0.003745318352059925
s(S'is'
p200
S'produced'
p201
S'by'
p202
tp203
F0.003745318352059925
s(S'which'
p204
S'merged'
p205
S'with'
p206
tp207
F0.003745318352059925
s(S'operates'
p208
S'as'
p209
S'[[det]]'
p210
tp211
F0.003745318352059925
s(g179
g180
S'[[det]]'
p212
tp213
F0.003745318352059925
s(S'[[det]]'
p214
S'subsidiary'
p215
S'[[con]]'
p216
tp217
F0.003745318352059925
s(S'was'
p218
S'controlled'
p219
S'by'
p220
tp221
F0.003745318352059925
s(S'were'
p222
S'sold'
p223
S'[[con]]'
p224
tp225
F0.003745318352059925
s(S'now'
p226
S'owned'
p227
S'by'
p228
tp229
F0.003745318352059925
s(S'merged'
p230
S'[[con]]'
p231
S'was'
p232
tp233
F0.003745318352059925
s(S'formerly'
p234
S'owned'
p235
S'[[con]]'
p236
tp237
F0.003745318352059925
s(S'[[det]]'
p238
S'company'
p239
S'[[con]]'
p240
tp241
F0.003745318352059925
s(S'was'
p242
S'merged'
p243
S'to'
p244
tp245
F0.003745318352059925
s(S'also'
p246
S'sold'
p247
S'to'
p248
tp249
F0.003745318352059925
s(S'been'
p250
S'acquired'
p251
S'by'
p252
tp253
F0.003745318352059925
s(S'later'
p254
S'owned'
p255
S'by'
p256
tp257
F0.003745318352059925
s(S'were'
p258
S'bought'
p259
S'by'
p260
tp261
F0.003745318352059925
s(g66
g67
S'is'
p262
tp263
F0.003745318352059925
s(S'was'
p264
S'formed'
p265
S'[[con]]'
p266
tp267
F0.003745318352059925
s(g180
g212
S'merger'
p268
tp269
F0.003745318352059925
s(S'also'
p270
S'acquired'
p271
S'from'
p272
tp273
F0.003745318352059925
s(S'established'
p274
S'as'
p275
S'[[det]]'
p276
tp277
F0.003745318352059925
s(S'later'
p278
S'renamed'
p279
S'[[det]]'
p280
tp281
F0.003745318352059925
s(S'that'
p282
S'had'
p283
g190
tp284
F0.003745318352059925
s(S'was'
p285
S'formed'
p286
S'to'
p287
tp288
F0.003745318352059925
s(S'was'
p289
S'purchased'
p290
S'[[con]]'
p291
tp292
F0.003745318352059925
s(S'was'
p293
S'renamed'
p294
S'as'
p295
tp296
F0.003745318352059925
s(S'had'
p297
S'acquired'
p298
S'[[det]]'
p299
tp300
F0.003745318352059925
s(g151
g152
S'to'
p301
tp302
F0.00749063670411985
s(S'to'
p303
S'form'
p304
S'in'
p305
tp306
F0.003745318352059925
s(S'[[adj]]'
p307
S'venture'
p308
S'between'
p309
tp310
F0.00749063670411985
s(S'acquired'
p311
S'by'
p312
S'[[det]]'
p313
tp314
F0.003745318352059925
s(S'was'
p315
S'formed'
p316
S'on'
p317
tp318
F0.003745318352059925
s(S'formed'
p319
S'by'
p320
S'[[det]]'
p321
tp322
F0.00749063670411985
s(S'[[pro]]'
p323
S'acquired'
p324
S'by'
p325
tp326
F0.003745318352059925
s(S'as'
p327
S'[[adj]]'
p328
S'venture'
p329
tp330
F0.003745318352059925
s(S'later'
p331
S'acquired'
p332
S'[[num]]'
p333
tp334
F0.003745318352059925
s(S'formerly'
p335
S'owned'
p336
S'by'
p337
tp338
F0.003745318352059925
s(S'[[det]]'
p339
S'merger'
p340
S'of'
p341
tp342
F0.026217228464419477
s(S'to'
p343
S'form'
p344
S'of'
p345
tp346
F0.003745318352059925
s(S'began'
p347
g327
g328
tp348
F0.003745318352059925
s(S'been'
p349
S'purchased'
p350
S'by'
p351
tp352
F0.003745318352059925
s(S'be'
p353
S'merged'
p354
S'with'
p355
tp356
F0.003745318352059925
s(g67
g262
S'owned'
p357
tp358
F0.003745318352059925
s(S'had'
p359
S'sold'
p360
S'to'
p361
tp362
F0.003745318352059925
s(S'was'
p363
g319
g320
tp364
F0.003745318352059925
s(S'[[det]]'
p365
S'parent'
p366
S'of'
p367
tp368
F0.003745318352059925
s(S'was'
p369
S'renamed'
p370
S'[[num]]'
p371
tp372
F0.003745318352059925
s(S'was'
p373
S'formed'
p374
S'when'
p375
tp376
F0.003745318352059925
s(S'was'
p377
S'bought'
p378
S'[[con]]'
p379
tp380
F0.003745318352059925
s(S'was'
p381
S'formed'
p382
S'under'
p383
tp384
F0.003745318352059925
s(g34
g35
S'[[det]]'
p385
tp386
F0.00749063670411985
s(S'was'
p387
S'formed'
p388
S'as'
p389
tp390
F0.00749063670411985
s(g301
S'[[det]]'
p391
S'consortium'
p392
tp393
F0.00749063670411985
s(S'[[adj]]'
p394
S'subsidiary'
p395
S'of'
p396
tp397
F0.003745318352059925
s(S'later'
p398
S'renamed'
p399
S'in'
p400
tp401
F0.003745318352059925
s(S'were'
p402
S'purchased'
p403
S'by'
p404
tp405
F0.003745318352059925
s(S'[[con]]'
p406
S'[[det]]'
p407
S'wholly'
p408
tp409
F0.003745318352059925
s(S'had'
p410
S'acquired'
p411
S'[[con]]'
p412
tp413
F0.003745318352059925
s(S'[[det]]'
p414
g65
g66
tp415
F0.003745318352059925
s(S'parent'
p416
S'company'
p417
S'for'
p418
tp419
F0.003745318352059925
s(S'by'
p420
S'merger'
p421
S'of'
p422
tp423
F0.003745318352059925
s(g275
g276
S'wholly'
p424
tp425
F0.003745318352059925
s(S'also'
p426
S'sold'
p427
S'[[det]]'
p428
tp429
F0.003745318352059925
s(S'were'
p430
S'produced'
p431
S'by'
p432
tp433
F0.003745318352059925
s(S'to'
p434
S'form'
p435
S'part'
p436
tp437
F0.003745318352059925
s(S'been'
p438
S'renamed'
p439
S'as'
p440
tp441
F0.003745318352059925
s(S'was'
p442
S'renamed'
p443
S'[[con]]'
p444
tp445
F0.003745318352059925
s(S'[[adj]]'
p446
S'formed'
p447
S'under'
p448
tp449
F0.003745318352059925
s(S'were'
p450
S'renamed'
p451
S'[[det]]'
p452
tp453
F0.003745318352059925
s(S'was'
p454
g274
g275
tp455
F0.003745318352059925
s(S'then'
p456
S'sold'
p457
S'to'
p458
tp459
F0.003745318352059925
s(S'formed'
p460
g420
g421
tp461
F0.003745318352059925
s(S'[[adj]]'
p462
S'company'
p463
S'of'
p464
tp465
F0.003745318352059925
s(S'then'
p466
S'bought'
p467
S'[[con]]'
p468
tp469
F0.003745318352059925
s(g391
g392
S'of'
p470
tp471
F0.00749063670411985
s(S'[[con]]'
p472
S'sold'
p473
S'to'
p474
tp475
F0.003745318352059925
s(S'[[con]]'
p476
S'merged'
p477
S'with'
p478
tp479
F0.003745318352059925
s(g43
S'based'
p480
S'in'
p481
tp482
F0.003745318352059925
s(g209
g210
S'subsidiary'
p483
tp484
F0.003745318352059925
s(S'was'
p485
S'bought'
p486
S'by'
p487
tp488
F0.003745318352059925
s(S'been'
p489
S'formed'
p490
S'with'
p491
tp492
F0.003745318352059925
s(S'[[num]]'
p493
S'owned'
p494
S'by'
p495
tp496
F0.003745318352059925
s(S'being'
p497
S'produced'
p498
S'by'
p499
tp500
F0.003745318352059925
s(S'[[det]]'
p501
S'division'
p502
S'[[det]]'
p503
tp504
F0.003745318352059925
s(S'were'
p505
S'taken'
p506
S'over'
p507
tp508
F0.003745318352059925
s(S'[[num]]'
p509
S'produced'
p510
S'by'
p511
tp512
F0.003745318352059925
s(S'was'
p513
S'formed'
p514
S'after'
p515
tp516
F0.003745318352059925
s(S'acquired'
p517
g406
g407
tp518
F0.00749063670411985
s(S'[[adj]]'
p519
S'division'
p520
S'in'
p521
tp522
F0.003745318352059925
s(S'was'
p523
S'announced'
p524
S'that'
p525
tp526
F0.003745318352059925
s(g42
g43
g480
tp527
F0.003745318352059925
s(S'[[adj]]'
p528
S'formed'
p529
S'in'
p530
tp531
F0.003745318352059925
s(g283
g190
g115
tp532
F0.00749063670411985
s(S'[[con]]'
p533
S'[[det]]'
p534
S'subsidiary'
p535
tp536
F0.003745318352059925
s(S'[[num]]'
p537
S'division'
p538
S'[[con]]'
p539
tp540
F0.003745318352059925
s(S'been'
p541
S'renamed'
p542
S'[[det]]'
p543
tp544
F0.003745318352059925
s(S'was'
p545
S'formed'
p546
S'[[det]]'
p547
tp548
F0.003745318352059925
s(S's'
p549
S'parent'
p550
S'company'
p551
tp552
F0.003745318352059925
s(S'was'
p553
S'taken'
p554
S'over'
p555
tp556
F0.003745318352059925
s(S'was'
p557
S'produced'
p558
S'from'
p559
tp560
F0.003745318352059925
s(S'is'
p561
S'controlled'
p562
S'by'
p563
tp564
F0.003745318352059925
s(S'[[prp]]'
p565
S'parent'
p566
S'company'
p567
tp568
F0.003745318352059925
s(S'is'
p569
S'sold'
p570
S'at'
p571
tp572
F0.003745318352059925
s(S'[[adj]]'
p573
S'company'
p574
S'[[con]]'
p575
tp576
F0.003745318352059925
s(S'was'
p577
S'bought'
p578
S'out'
p579
tp580
F0.003745318352059925
s(g389
g339
g340
tp581
F0.003745318352059925
s(S'also'
p582
S'acquired'
p583
S'[[det]]'
p584
tp585
F0.003745318352059925
s(S'wholly'
p586
g41
g42
tp587
F0.026217228464419477
s(S'announced'
p588
g282
g283
tp589
F0.003745318352059925
s(g31
S'[[det]]'
p590
S'merger'
p591
tp592
F0.003745318352059925
s(S'to'
p593
S'form'
p594
S'[[con]]'
p595
tp596
F0.003745318352059925
s(g116
g117
g151
tp597
F0.00749063670411985
s(S'[[adj]]'
p598
S'parent'
p599
S'company'
p600
tp601
F0.003745318352059925
s(S'later'
p602
S'merged'
p603
S'into'
p604
tp605
F0.003745318352059925
s(g231
g232
S'renamed'
p606
tp607
F0.003745318352059925
s(S'later'
p608
S'renamed'
p609
S'to'
p610
tp611
F0.003745318352059925
s(S'was'
p612
S'merged'
p613
S'with'
p614
tp615
F0.003745318352059925
s(S'is'
p616
S'owned'
p617
S'[[con]]'
p618
tp619
F0.003745318352059925
s(S'[[adj]]'
p620
S'company'
p621
S'from'
p622
tp623
F0.003745318352059925
s(S'was'
p624
S'owned'
p625
S'[[num]]'
p626
tp627
F0.003745318352059925
s(S'[[num]]'
p628
S'sold'
p629
S'to'
p630
tp631
F0.003745318352059925
s(S'when'
p632
S'merged'
p633
S'with'
p634
tp635
F0.003745318352059925
s(S'was'
p636
S'acquired'
p637
S'[[con]]'
p638
tp639
F0.011235955056179775
s(S'had'
p640
S'purchased'
p641
S'[[det]]'
p642
tp643
F0.003745318352059925
s(S'[[det]]'
p644
g416
g417
tp645
F0.011235955056179775
s(g216
S'were'
p646
S'acquired'
p647
tp648
F0.003745318352059925
s(S'be'
p649
S'distributed'
p650
S'by'
p651
tp652
F0.003745318352059925
s(g30
g31
g590
tp653
F0.003745318352059925
s(S'was'
p654
S'produced'
p655
S'at'
p656
tp657
F0.003745318352059925
s(S'[[det]]'
p658
S'division'
p659
S'of'
p660
tp661
F0.003745318352059925
s(S'also'
p662
S'formed'
p663
S'[[det]]'
p664
tp665
F0.003745318352059925
s(S'later'
p666
S'taken'
p667
S'over'
p668
tp669
F0.003745318352059925
s(S'[[adj]]'
p670
S'company'
p671
S'in'
p672
tp673
F0.003745318352059925
s(S'[[con]]'
p674
S'merged'
p675
S'into'
p676
tp677
F0.003745318352059925
s(S'[[det]]'
p678
S'produced'
p679
S'by'
p680
tp681
F0.003745318352059925
s(S'then'
p682
S'owned'
p683
S'by'
p684
tp685
F0.003745318352059925
s(S'later'
p686
S'renamed'
p687
S'[[con]]'
p688
tp689
F0.003745318352059925
s(S'be'
p690
S'merged'
p691
S'into'
p692
tp693
F0.003745318352059925
s(g215
g216
g646
tp694
F0.003745318352059925
s(S'to'
p695
S'create'
p696
S'[[det]]'
p697
tp698
F0.003745318352059925
s(g320
g321
S'merger'
p699
tp700
F0.00749063670411985
s(S'[[con]]'
p701
S'formed'
p702
S'[[det]]'
p703
tp704
F0.003745318352059925
s(S'was'
p705
S'renamed'
p706
S'to'
p707
tp708
F0.003745318352059925
s(g262
g357
S'by'
p709
tp710
F0.003745318352059925
s(S'[[adj]]'
p711
S'venture'
p712
S'with'
p713
tp714
F0.003745318352059925
s(S'were'
p715
S'merged'
p716
S'into'
p717
tp718
F0.003745318352059925
s(S'was'
p719
S'merged'
p720
S'[[con]]'
p721
tp722
F0.00749063670411985
s(S'[[adj]]'
p723
S'venture'
p724
S'of'
p725
tp726
F0.003745318352059925
s(S'had'
p727
S'merged'
p728
S'into'
p729
tp730
F0.003745318352059925
s(S'[[con]]'
p731
S'acquired'
p732
S'by'
p733
tp734
F0.003745318352059925
s(g35
g385
S'merger'
p735
tp736
F0.00749063670411985
s(S'was'
p737
S'acquired'
p738
S'by'
p739
tp740
F0.00749063670411985
s(S'[[det]]'
p741
g586
g41
tp742
F0.018726591760299626
s(g152
g301
g391
tp743
F0.00749063670411985
s(S'being'
p744
S'sold'
p745
S'to'
p746
tp747
F0.003745318352059925
s(g388
g389
g339
tp748
F0.003745318352059925
s(S'later'
p749
S'acquired'
p750
S'by'
p751
tp752
F0.003745318352059925
s(S'had'
p753
S'acquired'
p754
S'from'
p755
tp756
F0.003745318352059925
s(S'was'
p757
S'purchased'
p758
S'in'
p759
tp760
F0.003745318352059925
s(S'is'
p761
g460
g420
tp762
F0.011235955056179775
s(S'later'
p763
S'bought'
p764
S'by'
p765
tp766
F0.003745318352059925
s(g312
g313
S'subsidiary'
p767
tp768
F0.003745318352059925
s(S'be'
p769
S'produced'
p770
S'by'
p771
tp772
F0.003745318352059925
s(S'[[con]]'
p773
S'merged'
p774
S'to'
p775
tp776
F0.003745318352059925
s(S'has'
p777
S'announced'
p778
S'that'
p779
tp780
F0.003745318352059925
s.