(dp0
(S'died'
p1
S'[[num]]'
p2
S'is'
p3
tp4
F0.011904761904761904
s(S'[[adj]]'
p5
S'ruler'
p6
S'of'
p7
tp8
F0.011904761904761904
s(S'was'
p9
S'recalled'
p10
S'in'
p11
tp12
F0.011904761904761904
s(S'[[adj]]'
p13
S'ruler'
p14
S'in'
p15
tp16
F0.011904761904761904
s(S'is'
p17
S'buried'
p18
S'there'
p19
tp20
F0.011904761904761904
s(S'is'
p21
S'buried'
p22
S'on'
p23
tp24
F0.011904761904761904
s(S'be'
p25
S'buried'
p26
S'[[det]]'
p27
tp28
F0.011904761904761904
s(S'died'
p29
S'[[con]]'
p30
S'was'
p31
tp32
F0.05952380952380952
s(S'was'
p33
S'buried'
p34
S'[[con]]'
p35
tp36
F0.011904761904761904
s(S'[[adj]]'
p37
S'was'
p38
S'buried'
p39
tp40
F0.011904761904761904
s(S'just'
p41
S'returned'
p42
S'from'
p43
tp44
F0.011904761904761904
s(S'is'
p45
S'buried'
p46
S'at'
p47
tp48
F0.023809523809523808
s(S'so'
p49
S'returned'
p50
S'to'
p51
tp52
F0.011904761904761904
s(S'there'
p53
S'was'
p54
S'buried'
p55
tp56
F0.011904761904761904
s(S'soon'
p57
S'returned'
p58
S'to'
p59
tp60
F0.011904761904761904
s(S'be'
p61
S'buried'
p62
S'in'
p63
tp64
F0.011904761904761904
s(S'be'
p65
S'buried'
p66
S'at'
p67
tp68
F0.011904761904761904
s(S'died'
p69
g53
g54
tp70
F0.011904761904761904
s(S'had'
p71
S'returned'
p72
S'to'
p73
tp74
F0.011904761904761904
s(S'[[det]]'
p75
S'returned'
p76
S'to'
p77
tp78
F0.011904761904761904
s(S'became'
p79
S'ruler'
p80
S'of'
p81
tp82
F0.011904761904761904
s(S'was'
p83
S'recalled'
p84
S'from'
p85
tp86
F0.011904761904761904
s(S'[[con]]'
p87
g17
g18
tp88
F0.03571428571428571
s(S'[[num]]'
p89
S'returned'
p90
S'to'
p91
tp92
F0.011904761904761904
s(S'died'
p93
S'was'
p94
S'buried'
p95
tp96
F0.011904761904761904
s(S'was'
p97
S'buried'
p98
S'there'
p99
tp100
F0.011904761904761904
s(S'later'
p101
S'recalled'
p102
S'to'
p103
tp104
F0.011904761904761904
s(g3
S'buried'
p105
S'in'
p106
tp107
F0.023809523809523808
s(S'[[num]]'
p108
S'was'
p109
S'buried'
p110
tp111
F0.011904761904761904
s(S'which'
p112
S'returned'
p113
S'to'
p114
tp115
F0.011904761904761904
s(g31
S'buried'
p116
S'at'
p117
tp118
F0.03571428571428571
s(S'was'
p119
S'buried'
p120
S'with'
p121
tp122
F0.011904761904761904
s(S'[[adj]]'
p123
S'ruler'
p124
S'[[con]]'
p125
tp126
F0.011904761904761904
s(S'[[adj]]'
p127
S'ruler'
p128
S'[[det]]'
p129
tp130
F0.011904761904761904
s(S'was'
p131
S'recalled'
p132
S'to'
p133
tp134
F0.011904761904761904
s(S'was'
p135
S'buried'
p136
S'in'
p137
tp138
F0.07142857142857142
s(S'[[adj]]'
p139
S'returned'
p140
S'to'
p141
tp142
F0.011904761904761904
s(g2
g3
g105
tp143
F0.011904761904761904
s(S'on'
p144
g135
g136
tp145
F0.011904761904761904
s(S'then'
p146
S'returned'
p147
S'in'
p148
tp149
F0.011904761904761904
s(S'died'
p150
g87
g17
tp151
F0.03571428571428571
s(S'is'
p152
S'buried'
p153
S'near'
p154
tp155
F0.011904761904761904
s(S'[[det]]'
p156
S'ruler'
p157
S'of'
p158
tp159
F0.011904761904761904
s(S'[[pro]]'
p160
S'returned'
p161
S'to'
p162
tp163
F0.011904761904761904
s(S'died'
p164
S'there'
p165
S'is'
p166
tp167
F0.011904761904761904
s(S'was'
p168
S'returned'
p169
S'in'
p170
tp171
F0.011904761904761904
s(S'died'
p172
g144
g135
tp173
F0.011904761904761904
s(g30
g31
g116
tp174
F0.05952380952380952
s(S'again'
p175
S'returned'
p176
S'to'
p177
tp178
F0.011904761904761904
s(S'[[det]]'
p179
S'ruler'
p180
S'[[con]]'
p181
tp182
F0.011904761904761904
s(S'been'
p183
S'buried'
p184
S'in'
p185
tp186
F0.011904761904761904
s(S'[[det]]'
p187
S'ruler'
p188
S'[[det]]'
p189
tp190
F0.011904761904761904
s(S'[[det]]'
p191
S'ruler'
p192
S'in'
p193
tp194
F0.011904761904761904
s(S'died'
p195
g37
g38
tp196
F0.011904761904761904
s(S'was'
p197
S'buried'
p198
S'on'
p199
tp200
F0.023809523809523808
s(S'[[con]]'
p201
S'returned'
p202
S'in'
p203
tp204
F0.011904761904761904
s(g165
g166
S'buried'
p205
tp206
F0.011904761904761904
s(S'is'
p207
S'buried'
p208
S'[[con]]'
p209
tp210
F0.011904761904761904
s(S'as'
p211
S'ruler'
p212
S'of'
p213
tp214
F0.011904761904761904
s(S'[[con]]'
p215
S'returned'
p216
S'to'
p217
tp218
F0.011904761904761904
s(S'was'
p219
S'buried'
p220
S'[[adj]]'
p221
tp222
F0.011904761904761904
s(S'died'
p223
g108
g109
tp224
F0.011904761904761904
s.