(dp0
(S'took'
p1
S'place'
p2
S'from'
p3
tp4
F0.020833333333333332
s(S'battle'
p5
S'fought'
p6
S'in'
p7
tp8
F0.020833333333333332
s(S'[[con]]'
p9
S'[[det]]'
p10
S'aftermath'
p11
tp12
F0.020833333333333332
s(S'took'
p13
S'place'
p14
S'[[num]]'
p15
tp16
F0.020833333333333332
s(S'took'
p17
S'place'
p18
S'near'
p19
tp20
F0.020833333333333332
s(S'took'
p21
S'place'
p22
S'in'
p23
tp24
F0.041666666666666664
s(S'battle'
p25
S'of'
p26
S'[[det]]'
p27
tp28
F0.020833333333333332
s(S'between'
p29
S'[[det]]'
p30
S'allied'
p31
tp32
F0.020833333333333332
s(S'[[det]]'
p33
S'battle'
p34
S'of'
p35
tp36
F0.020833333333333332
s(S'took'
p37
S'place'
p38
S'at'
p39
tp40
F0.020833333333333332
s(S'out'
p41
S'[[det]]'
p42
S'conflict'
p43
tp44
F0.020833333333333332
s(S'[[det]]'
p45
S'battle'
p46
S'[[con]]'
p47
tp48
F0.020833333333333332
s(S'[[adj]]'
p49
S'battles'
p50
S'in'
p51
tp52
F0.020833333333333332
s(S'was'
p53
S'fought'
p54
S'between'
p55
tp56
F0.041666666666666664
s(S'[[det]]'
p57
g5
g6
tp58
F0.020833333333333332
s(S'battle'
p59
S'fought'
p60
S'between'
p61
tp62
F0.020833333333333332
s(S'began'
p63
g9
g10
tp64
F0.020833333333333332
s(S'is'
p65
S'fought'
p66
S'between'
p67
tp68
F0.020833333333333332
s(g26
g27
S'fought'
p69
tp70
F0.020833333333333332
s(g42
g43
g29
tp71
F0.020833333333333332
s(S'took'
p72
S'place'
p73
S'on'
p74
tp75
F0.020833333333333332
s(S'[[adj]]'
p76
S'took'
p77
S'place'
p78
tp79
F0.020833333333333332
s(g35
S'fought'
p80
S'between'
p81
tp82
F0.020833333333333332
s(S'took'
p83
S'place'
p84
S'to'
p85
tp86
F0.020833333333333332
s(S'took'
p87
S'place'
p88
S'[[det]]'
p89
tp90
F0.020833333333333332
s(S'that'
p91
S'occurred'
p92
S'in'
p93
tp94
F0.020833333333333332
s(S'[[det]]'
p95
S'battle'
p96
S'between'
p97
tp98
F0.020833333333333332
s(g34
g35
g80
tp99
F0.020833333333333332
s(S'was'
p100
S'fought'
p101
S'in'
p102
tp103
F0.020833333333333332
s(S'is'
p104
S'fought'
p105
S'in'
p106
tp107
F0.020833333333333332
s(g43
g29
g30
tp108
F0.020833333333333332
s(S'[[adj]]'
p109
g25
g26
tp110
F0.020833333333333332
s(S'took'
p111
S'place'
p112
S'[[con]]'
p113
tp114
F0.020833333333333332
s(S'was'
p115
S'fought'
p116
S'at'
p117
tp118
F0.020833333333333332
s(S'was'
p119
S'fought'
p120
S'with'
p121
tp122
F0.020833333333333332
s(S'[[adj]]'
p123
S'battle'
p124
S'between'
p125
tp126
F0.020833333333333332
s(S'between'
p127
S'[[det]]'
p128
S'armies'
p129
tp130
F0.020833333333333332
s(S'began'
p131
S'when'
p132
S'invaded'
p133
tp134
F0.020833333333333332
s(g128
g129
S'of'
p135
tp136
F0.020833333333333332
s(S'fought'
p137
g127
g128
tp138
F0.020833333333333332
s(S'[[adj]]'
p139
g59
g60
tp140
F0.020833333333333332
s(S'was'
p141
S'fought'
p142
S'near'
p143
tp144
F0.020833333333333332
s(S'broke'
p145
g41
g42
tp146
F0.020833333333333332
s(S'was'
p147
S'fought'
p148
S'on'
p149
tp150
F0.020833333333333332
s(S'is'
p151
S'fought'
p152
S'near'
p153
tp154
F0.020833333333333332
s(g27
g69
S'in'
p155
tp156
F0.020833333333333332
s.