(dp0
(S'currently'
p1
S'operates'
p2
S'[[det]]'
p3
tp4
F0.0125
s(S'[[adj]]'
p5
S'production'
p6
S'at'
p7
tp8
F0.0125
s(S'[[adj]]'
p9
S'home'
p10
S'[[det]]'
p11
tp12
F0.0125
s(S'[[con]]'
p13
S'introduced'
p14
S'[[det]]'
p15
tp16
F0.0125
s(S'[[adj]]'
p17
S'series'
p18
S'on'
p19
tp20
F0.025
s(S'[[adj]]'
p21
S'released'
p22
S'[[con]]'
p23
tp24
F0.0125
s(S'was'
p25
S'acquired'
p26
S'[[con]]'
p27
tp28
F0.0125
s(S'launched'
p29
S'[[det]]'
p30
S'service'
p31
tp32
F0.0125
s(S'released'
p33
S'[[det]]'
p34
S'version'
p35
tp36
F0.0125
s(S'to'
p37
S'release'
p38
S'with'
p39
tp40
F0.0125
s(S'[[mod]]'
p41
S'release'
p42
S'on'
p43
tp44
F0.0125
s(S's'
p45
S'release'
p46
S'of'
p47
tp48
F0.0125
s(S'be'
p49
S'acquired'
p50
S'by'
p51
tp52
F0.0125
s(S'also'
p53
S'acquired'
p54
S'from'
p55
tp56
F0.0125
s(S'also'
p57
S'operates'
p58
S'on'
p59
tp60
F0.0125
s(S'been'
p61
S'involved'
p62
S'[[adj]]'
p63
tp64
F0.0125
s(S'[[num]]'
p65
S'seasons'
p66
S'of'
p67
tp68
F0.0125
s(S'later'
p69
S'involved'
p70
S'in'
p71
tp72
F0.0125
s(S'had'
p73
S'acquired'
p74
S'[[det]]'
p75
tp76
F0.0125
s(S'released'
p77
S'[[det]]'
p78
g17
tp79
F0.0375
s(S'not'
p80
S'release'
p81
S'[[det]]'
p82
tp83
F0.0125
s(g78
g17
g18
tp84
F0.0375
s(S'were'
p85
S'acquired'
p86
S'by'
p87
tp88
F0.0125
s(S'also'
p89
S'owns'
p90
S'[[det]]'
p91
tp92
F0.0125
s(S'to'
p93
S'release'
p94
S'[[det]]'
p95
tp96
F0.0125
s(S'also'
p97
S'introduced'
p98
S'[[det]]'
p99
tp100
F0.0125
s(S'had'
p101
S'introduced'
p102
S'[[det]]'
p103
tp104
F0.0125
s(S'currently'
p105
S'operates'
p106
S'[[num]]'
p107
tp108
F0.0125
s(S'to'
p109
S'sell'
p110
S'[[prp]]'
p111
tp112
F0.0125
s(S'were'
p113
S'involved'
p114
S'in'
p115
tp116
F0.0125
s(S'later'
p117
S'acquired'
p118
S'[[num]]'
p119
tp120
F0.0125
s(S'[[adj]]'
p121
S'series'
p122
S'of'
p123
tp124
F0.0125
s(S'also'
p125
S'operates'
p126
S'[[det]]'
p127
tp128
F0.0125
s(g34
g35
S'of'
p129
tp130
F0.0125
s(S'[[adj]]'
p131
S'home'
p132
S'at'
p133
tp134
F0.0125
s(S'[[adj]]'
p135
S'release'
p136
S'of'
p137
tp138
F0.0125
s(S'being'
p139
S'acquired'
p140
S'by'
p141
tp142
F0.0125
s(S'[[pro]]'
p143
S'acquired'
p144
S'by'
p145
tp146
F0.0125
s(S'released'
p147
S'[[det]]'
p148
S'series'
p149
tp150
F0.0125
s(S'to'
p151
S'sell'
p152
S'[[det]]'
p153
tp154
F0.0125
s(S'has'
p155
S'announced'
p156
S'[[num]]'
p157
tp158
F0.0125
s(S'[[con]]'
p159
S'acquired'
p160
S'by'
p161
tp162
F0.0125
s(S'to'
p163
S'release'
p164
S'[[prp]]'
p165
tp166
F0.0125
s(S'was'
p167
S'acquired'
p168
S'by'
p169
tp170
F0.0125
s(S'been'
p171
S'acquired'
p172
S'by'
p173
tp174
F0.0125
s(S'to'
p175
S'sell'
p176
S'[[num]]'
p177
tp178
F0.0125
s(S'[[adj]]'
p179
S'manufacturer'
p180
S'of'
p181
tp182
F0.0125
s(S'later'
p183
S'acquired'
p184
S'by'
p185
tp186
F0.0125
s(S'later'
p187
S'renamed'
p188
S'to'
p189
tp190
F0.0125
s(S'had'
p191
S'acquired'
p192
S'from'
p193
tp194
F0.0125
s(S'also'
p195
S'acquired'
p196
S'[[det]]'
p197
tp198
F0.0125
s(g148
g149
S'on'
p199
tp200
F0.0125
s(S'has'
p201
S'announced'
p202
S'[[det]]'
p203
tp204
F0.0125
s(S'to'
p205
S'sell'
p206
S'[[con]]'
p207
tp208
F0.0125
s(S'also'
p209
S'operates'
p210
S'[[num]]'
p211
tp212
F0.0125
s(g30
g31
S'for'
p213
tp214
F0.0125
s(S'currently'
p215
S'owns'
p216
S'[[num]]'
p217
tp218
F0.0125
s(S'has'
p219
S'released'
p220
S'[[det]]'
p221
tp222
F0.05
s(S'[[num]]'
p223
S'seasons'
p224
S'on'
p225
tp226
F0.025
s(S'also'
p227
S'released'
p228
S'[[det]]'
p229
tp230
F0.0125
s(S'has'
p231
S'announced'
p232
S'that'
p233
tp234
F0.0125
s(S'[[mod]]'
p235
S'release'
p236
S'[[det]]'
p237
tp238
F0.0125
s(S'[[det]]'
p239
g223
g224
tp240
F0.0375
s(S'has'
p241
S'released'
p242
S'on'
p243
tp244
F0.0125
s(S'released'
p245
g239
g223
tp246
F0.0375
s(S'had'
p247
S'acquired'
p248
S'[[con]]'
p249
tp250
F0.0125
s(S'to'
p251
S'release'
p252
S'[[con]]'
p253
tp254
F0.0125
s.