(dp0
(S'was'
p1
S'designed'
p2
S'to'
p3
tp4
F0.00029859659599880563
s(S'[[det]]'
p5
S'album'
p6
S'with'
p7
tp8
F0.00029859659599880563
s(S'was'
p9
S'mixed'
p10
S'by'
p11
tp12
F0.00029859659599880563
s(S'[[adj]]'
p13
S'song'
p14
S'written'
p15
tp16
F0.0011943863839952225
s(S'[[adj]]'
p17
S'produced'
p18
S'by'
p19
tp20
F0.00029859659599880563
s(S'comedy'
p21
S'film'
p22
S'produced'
p23
tp24
F0.0005971931919976113
s(S'[[det]]'
p25
S'song'
p26
S'[[mod]]'
p27
tp28
F0.00029859659599880563
s(S'[[con]]'
p29
S'number'
p30
S'[[num]]'
p31
tp32
F0.00029859659599880563
s(S'also'
p33
S'known'
p34
S'as'
p35
tp36
F0.00029859659599880563
s(S'[[det]]'
p37
S'studio'
p38
S'album'
p39
tp40
F0.0017915795759928337
s(S'album'
p41
S'by'
p42
S'thrash'
p43
tp44
F0.00029859659599880563
s(S'was'
p45
S'recorded'
p46
S'with'
p47
tp48
F0.0005971931919976113
s(S'road'
p49
S'movie'
p50
S'directed'
p51
tp52
F0.0005971931919976113
s(S'[[det]]'
p53
S'song'
p54
S'[[det]]'
p55
tp56
F0.00029859659599880563
s(S'by'
p57
S'pop'
p58
S'singer'
p59
tp60
F0.0017915795759928337
s(S'released'
p61
S'in'
p62
S'[[num]]'
p63
tp64
F0.0005971931919976113
s(S'was'
p65
S'created'
p66
S'by'
p67
tp68
F0.00029859659599880563
s(S'[[det]]'
p69
S'metal'
p70
S'band'
p71
tp72
F0.00029859659599880563
s(S'[[num]]'
p73
S'film'
p74
S'made'
p75
tp76
F0.0005971931919976113
s(S'[[adj]]'
p77
S'band'
p78
S'album'
p79
tp80
F0.00029859659599880563
s(S'thriller'
p81
S'film'
p82
S'starring'
p83
tp84
F0.002985965959988056
s(S'[[adj]]'
p85
S'rock'
p86
S'group'
p87
tp88
F0.00029859659599880563
s(S'[[num]]'
p89
S'crime'
p90
S'film'
p91
tp92
F0.003881755747984473
s(S'[[con]]'
p93
S'features'
p94
S'guest'
p95
tp96
F0.0011943863839952225
s(S'from'
p97
S'signed'
p98
S'[[adj]]'
p99
tp100
F0.00029859659599880563
s(S'[[adj]]'
p101
S'album'
p102
S'rock'
p103
tp104
F0.00029859659599880563
s(S'written'
p105
S'[[con]]'
p106
S'recorded'
p107
tp108
F0.002985965959988056
s(S'television'
p109
S'drama'
p110
S'film'
p111
tp112
F0.00029859659599880563
s(S'horror'
p113
S'film'
p114
S'starring'
p115
tp116
F0.0020901761719916393
s(S'released'
p117
S'by'
p118
S'indie'
p119
tp120
F0.00029859659599880563
s(S'by'
p121
S'produced'
p122
S'[[con]]'
p123
tp124
F0.00029859659599880563
s(S'[[adj]]'
p125
S'released'
p126
S'by'
p127
tp128
F0.0011943863839952225
s(S'directed'
p129
S'starring'
p130
S'[[con]]'
p131
tp132
F0.002985965959988056
s(S'was'
p133
S'written'
p134
S'as'
p135
tp136
F0.00029859659599880563
s(S'reached'
p137
S'number'
p138
S'[[num]]'
p139
tp140
F0.00029859659599880563
s(S'was'
p141
S'released'
p142
S'on'
p143
tp144
F0.0005971931919976113
s(S'thriller'
p145
S'film'
p146
S'directed'
p147
tp148
F0.006569125111973723
s(S'[[det]]'
p149
S'album'
p150
S'as'
p151
tp152
F0.00029859659599880563
s(S'is'
p153
S'[[num]]'
p154
g109
tp155
F0.00029859659599880563
s(S'comedy'
p156
S'film'
p157
S'featuring'
p158
tp159
F0.0008957897879964168
s(S'mystery'
p160
S'film'
p161
S'starring'
p162
tp163
F0.00029859659599880563
s(S'feature'
p164
S'film'
p165
S'starring'
p166
tp167
F0.0020901761719916393
s(S'[[adj]]'
p168
S'release'
p169
S'by'
p170
tp171
F0.00029859659599880563
s(S'recorded'
p172
S'by'
p173
S'country'
p174
tp175
F0.002388772767990445
s(S'recorded'
p176
S'by'
p177
S'pop'
p178
tp179
F0.00029859659599880563
s(S'released'
p180
S'on'
p181
S'[[adj]]'
p182
tp183
F0.00029859659599880563
s(S'[[num]]'
p184
S'film'
p185
S'[[adj]]'
p186
tp187
F0.00029859659599880563
s(S'by'
p188
S'[[adj]]'
p189
S'rock'
p190
tp191
F0.0026873693639892504
s(S'was'
p192
S'coproduced'
p193
S'with'
p194
tp195
F0.00029859659599880563
s(S'film'
p196
S'directed'
p197
S'written'
p198
tp199
F0.002985965959988056
s(S'gentleman'
p200
S'[[num]]'
p201
S'movie'
p202
tp203
F0.00029859659599880563
s(S'[[num]]'
p204
S'jazz'
p205
S'album'
p206
tp207
F0.00029859659599880563
s(S'guest'
p208
S'appearances'
p209
g97
tp210
F0.001492982979994028
s(S'[[det]]'
p211
S'country'
p212
S'album'
p213
tp214
F0.00029859659599880563
s(S'produced'
p215
S'by'
p216
S'starring'
p217
tp218
F0.00029859659599880563
s(S'was'
p219
S'designed'
p220
S'by'
p221
tp222
F0.00029859659599880563
s(S'is'
p223
S'[[det]]'
p224
S'album'
p225
tp226
F0.00029859659599880563
s(S'be'
p227
S'released'
p228
S'from'
p229
tp230
F0.00029859659599880563
s(S'be'
p231
S'viewed'
p232
S'as'
p233
tp234
F0.00029859659599880563
s(S'solo'
p235
S'album'
p236
S'of'
p237
tp238
F0.0005971931919976113
s(S'[[det]]'
p239
S'album'
p240
S'of'
p241
tp242
F0.00029859659599880563
s(S'[[adj]]'
p243
S'release'
p244
S'from'
p245
tp246
F0.00029859659599880563
s(S'[[con]]'
p247
S'[[adj]]'
p248
S'comedy'
p249
tp250
F0.00029859659599880563
s(S'[[det]]'
p251
S'feature'
p252
S'film'
p253
tp254
F0.0011943863839952225
s(S'film'
p255
S'directed'
p256
S'by'
p257
tp258
F0.0373245744998507
s(S'was'
p259
S'based'
p260
S'by'
p261
tp262
F0.00029859659599880563
s(S'compilation'
p263
S'album'
p264
S'by'
p265
tp266
F0.0008957897879964168
s(S'was'
p267
S'written'
p268
S'about'
p269
tp270
F0.00029859659599880563
s(S'was'
p271
S'directed'
p272
S'produced'
p273
tp274
F0.0008957897879964168
s(S'album'
p275
S'[[num]]'
p276
S'produced'
p277
tp278
F0.00029859659599880563
s(S'is'
p279
S'[[adj]]'
p280
S'arts'
p281
tp282
F0.00029859659599880563
s(S'[[det]]'
p283
S'[[adj]]'
p284
S'guest'
p285
tp286
F0.00029859659599880563
s(S'was'
p287
S'composed'
p288
S'by'
p289
tp290
F0.00029859659599880563
s(S'adapted'
p291
S'[[num]]'
p292
S'movie'
p293
tp294
F0.00029859659599880563
s(g185
g186
S'[[con]]'
p295
tp296
F0.0005971931919976113
s(g240
g241
S'music'
p297
tp298
F0.00029859659599880563
s(S'was'
p299
S'released'
p300
S'[[con]]'
p301
tp302
F0.0026873693639892504
s(S'[[det]]'
p303
S'alternative'
p304
S'rock'
p305
tp306
F0.0008957897879964168
s(S'action'
p307
S'film'
p308
S'[[con]]'
p309
tp310
F0.00029859659599880563
s(S'crime'
p311
S'film'
p312
S'starring'
p313
tp314
F0.0011943863839952225
s(S'released'
p315
S'by'
p316
S'power'
p317
tp318
F0.00029859659599880563
s(S'solo'
p319
S'album'
p320
S'released'
p321
tp322
F0.00029859659599880563
s(S'[[num]]'
p323
S'film'
p324
S'by'
p325
tp326
F0.0008957897879964168
s(S'[[det]]'
p327
S'cover'
p328
S'of'
p329
tp330
F0.0005971931919976113
s(S'directed'
p331
g121
g122
tp332
F0.00029859659599880563
s(S'film'
p333
S'from'
p334
S'directed'
p335
tp336
F0.0005971931919976113
s(S'has'
p337
S'included'
p338
S'[[det]]'
p339
tp340
F0.00029859659599880563
s(S'not'
p341
S'released'
p342
S'by'
p343
tp344
F0.00029859659599880563
s(g62
g63
S'starring'
p345
tp346
F0.0005971931919976113
s(S'[[con]]'
p347
S'action'
p348
S'film'
p349
tp350
F0.00029859659599880563
s(S'directed'
p351
S'with'
p352
S'[[det]]'
p353
tp354
F0.0008957897879964168
s(S'[[num]]'
p355
S'film'
p356
S'starring'
p357
tp358
F0.0017915795759928337
s(S'was'
p359
S'featured'
p360
S'in'
p361
tp362
F0.00029859659599880563
s(S'[[det]]'
p363
S'thriller'
p364
S'directed'
p365
tp366
F0.00029859659599880563
s(S'[[con]]'
p367
S'performed'
p368
S'by'
p369
tp370
F0.0008957897879964168
s(S'rock'
p371
S'[[con]]'
p372
S'roll'
p373
tp374
F0.00029859659599880563
s(S'[[num]]'
p375
S'film'
p376
S'that'
p377
tp378
F0.0005971931919976113
s(S'album'
p379
S'by'
p380
S'punk'
p381
tp382
F0.0005971931919976113
s(S'by'
p383
S'starring'
p384
S'[[con]]'
p385
tp386
F0.0026873693639892504
s(S'written'
p387
g367
g368
tp388
F0.0008957897879964168
s(S'is'
p389
S'written'
p390
S'[[con]]'
p391
tp392
F0.00029859659599880563
s(S'be'
p393
S'released'
p394
S'as'
p395
tp396
F0.00029859659599880563
s(S'is'
p397
S'[[num]]'
p398
S'thriller'
p399
tp400
F0.00029859659599880563
s(S'[[num]]'
p401
S'fantasy'
p402
S'film'
p403
tp404
F0.0008957897879964168
s(S'[[det]]'
p405
S'rock'
p406
S'group'
p407
tp408
F0.00029859659599880563
s(S'[[det]]'
p409
S'song'
p410
S'pop'
p411
tp412
F0.00029859659599880563
s(S'[[num]]'
p413
S'released'
p414
S'by'
p415
tp416
F0.00029859659599880563
s(S'band'
p417
S'released'
p418
S'on'
p419
tp420
F0.00029859659599880563
s(S'[[num]]'
p421
S'movie'
p422
S'produced'
p423
tp424
F0.00029859659599880563
s(S'solo'
p425
S'album'
p426
S'with'
p427
tp428
F0.00029859659599880563
s(S'be'
p429
S'released'
p430
S'by'
p431
tp432
F0.00029859659599880563
s(S'music'
p433
S'singer'
p434
S'[[con]]'
p435
tp436
F0.0005971931919976113
s(S'directed'
p437
S'starring'
p438
S'as'
p439
tp440
F0.00029859659599880563
s(S'album'
p441
S'produced'
p442
S'by'
p443
tp444
F0.00029859659599880563
s(S'were'
p445
S'produced'
p446
S'by'
p447
tp448
F0.00029859659599880563
s(S'produced'
p449
S'with'
p450
S'[[adj]]'
p451
tp452
F0.00029859659599880563
s(S'[[num]]'
p453
S'detective'
p454
S'film'
p455
tp456
F0.0005971931919976113
s(S'primarily'
p457
S'produced'
p458
S'from'
p459
tp460
F0.00029859659599880563
s(S'song'
p461
S'written'
p462
S'[[con]]'
p463
tp464
F0.005076142131979695
s(S'into'
p465
S'[[det]]'
p466
S'film'
p467
tp468
F0.00029859659599880563
s(S'[[det]]'
p469
S'power'
p470
S'metal'
p471
tp472
F0.0005971931919976113
s(S'[[con]]'
p473
S'based'
p474
S'by'
p475
tp476
F0.00029859659599880563
s(S'not'
p477
S'written'
p478
S'by'
p479
tp480
F0.00029859659599880563
s(S'film'
p481
S'starring'
p482
S'directed'
p483
tp484
F0.0005971931919976113
s(S'been'
p485
S'recorded'
p486
S'[[con]]'
p487
tp488
F0.00029859659599880563
s(S'[[adj]]'
p489
S'film'
p490
S'from'
p491
tp492
F0.00029859659599880563
s(S'[[num]]'
p493
S'drama'
p494
S'film'
p495
tp496
F0.009256494475962974
s(S'created'
p497
S'[[con]]'
p498
S'written'
p499
tp500
F0.0005971931919976113
s(S'[[adj]]'
p501
S'song'
p502
S'that'
p503
tp504
F0.00029859659599880563
s(S'[[adj]]'
p505
S'movie'
p506
S'directed'
p507
tp508
F0.00029859659599880563
s(S'[[adj]]'
p509
g113
g114
tp510
F0.001492982979994028
s(S'documentary'
p511
S'directed'
p512
S'[[con]]'
p513
tp514
F0.0005971931919976113
s(S'directed'
p515
S'starring'
p516
S'[[det]]'
p517
tp518
F0.00029859659599880563
s(S'[[num]]'
p519
S'film'
p520
S'directed'
p521
tp522
F0.010749477455957002
s(S'been'
p523
S'designed'
p524
S'by'
p525
tp526
F0.00029859659599880563
s(S'features'
p527
g208
g209
tp528
F0.0026873693639892504
s(S'television'
p529
S'film'
p530
S'starring'
p531
tp532
F0.0005971931919976113
s(S'by'
p533
S'[[det]]'
p534
S'musician'
p535
tp536
F0.0005971931919976113
s(S'released'
p537
S'by'
p538
S'[[det]]'
p539
tp540
F0.00029859659599880563
s(S'length'
p541
S'release'
p542
S'from'
p543
tp544
F0.00029859659599880563
s(S'[[con]]'
p545
S'directed'
p546
S'by'
p547
tp548
F0.017318602567930726
s(S'[[adj]]'
p549
S'song'
p550
S'performed'
p551
tp552
F0.00029859659599880563
s(S'[[num]]'
p553
S'film'
p554
S'produced'
p555
tp556
F0.0008957897879964168
s(S'recorded'
p557
S'produced'
p558
S'by'
p559
tp560
F0.00029859659599880563
s(S'that'
p561
S'was'
p562
S'directed'
p563
tp564
F0.00029859659599880563
s(S'was'
p565
S'directed'
p566
S'with'
p567
tp568
F0.00029859659599880563
s(S'directed'
p569
S'[[con]]'
p570
S'produced'
p571
tp572
F0.005076142131979695
s(S'documentary'
p573
S'film'
p574
S'produced'
p575
tp576
F0.00029859659599880563
s(g450
g451
S'production'
p577
tp578
F0.00029859659599880563
s(S'[[det]]'
p579
S'title'
p580
S'of'
p581
tp582
F0.0017915795759928337
s(S'folk'
p583
S'song'
p584
S'written'
p585
tp586
F0.00029859659599880563
s(S'adventure'
p587
g61
g62
tp588
F0.00029859659599880563
s(S'comedy'
p589
S'family'
p590
S'film'
p591
tp592
F0.00029859659599880563
s(S'were'
p593
S'created'
p594
S'by'
p595
tp596
F0.00029859659599880563
s(S'[[det]]'
p597
S'song'
p598
S'from'
p599
tp600
F0.0005971931919976113
s(S'is'
p601
S'album'
p602
S'by'
p603
tp604
F0.00029859659599880563
s(S'[[adj]]'
p605
S'released'
p606
S'as'
p607
tp608
F0.00029859659599880563
s(g75
S'directed'
p609
S'by'
p610
tp611
F0.00029859659599880563
s(S'action'
p612
S'comedy'
p613
S'film'
p614
tp615
F0.001492982979994028
s(S'[[num]]'
p616
S'directed'
p617
S'by'
p618
tp619
F0.00029859659599880563
s(S's'
p620
S'released'
p621
S'by'
p622
tp623
F0.00029859659599880563
s(S'adventure'
p624
S'film'
p625
S'directed'
p626
tp627
F0.001492982979994028
s(S'article'
p628
g223
g224
tp629
F0.00029859659599880563
s(S'[[con]]'
p630
S'guest'
p631
S'appearances'
p632
tp633
F0.00029859659599880563
s(S'album'
p634
S'by'
p635
S'soul'
p636
tp637
F0.00029859659599880563
s(S'[[adj]]'
p638
S'recorded'
p639
S'by'
p640
tp641
F0.00029859659599880563
s(S'horror'
p642
S'film'
p643
S'written'
p644
tp645
F0.0017915795759928337
s(S'is'
p646
S'based'
p647
S'by'
p648
tp649
F0.00029859659599880563
s(S'thrash'
p650
S'metal'
p651
S'band'
p652
tp653
F0.0008957897879964168
s(S'pop'
p654
S'song'
p655
S'written'
p656
tp657
F0.0011943863839952225
s(S'by'
p658
S'power'
p659
S'metal'
p660
tp661
F0.0011943863839952225
s(S'[[con]]'
p662
S'directed'
p663
S'[[con]]'
p664
tp665
F0.006569125111973723
s(S'directed'
p666
S'produced'
p667
S'[[con]]'
p668
tp669
F0.0008957897879964168
s(g201
g202
S'directed'
p670
tp671
F0.0011943863839952225
s(S'features'
p672
S'[[adj]]'
p673
S'shows'
p674
tp675
F0.00029859659599880563
s(S'song'
p676
S'composed'
p677
S'by'
p678
tp679
F0.0008957897879964168
s(S'[[det]]'
p680
S'album'
p681
S'[[con]]'
p682
tp683
F0.00029859659599880563
s(S'in'
p684
S'[[num]]'
p685
S'produced'
p686
tp687
F0.00029859659599880563
s(S'film'
p688
S'starring'
p689
S'as'
p690
tp691
F0.0005971931919976113
s(S'cult'
p692
S'[[num]]'
p693
S'drama'
p694
tp695
F0.00029859659599880563
s(S'[[adj]]'
p696
S'action'
p697
S'film'
p698
tp699
F0.0011943863839952225
s(S'by'
p700
S'featuring'
p701
S'with'
p702
tp703
F0.00029859659599880563
s(S'[[con]]'
p704
S'produced'
p705
S'[[con]]'
p706
tp707
F0.00029859659599880563
s(S'[[con]]'
p708
S'starring'
p709
S'as'
p710
tp711
F0.0005971931919976113
s(S'[[det]]'
p712
g263
g264
tp713
F0.0008957897879964168
s(S'was'
p714
S'written'
p715
S'by'
p716
tp717
F0.0008957897879964168
s(S'released'
p718
S'produced'
p719
S'by'
p720
tp721
F0.00029859659599880563
s(S'song'
p722
S'by'
p723
S'band'
p724
tp725
F0.00029859659599880563
s(S'[[adj]]'
p726
S'released'
p727
S'after'
p728
tp729
F0.00029859659599880563
s(S'as'
p730
S'[[det]]'
p731
S'album'
p732
tp733
F0.00029859659599880563
s(g352
g353
S'screenplay'
p734
tp735
F0.0005971931919976113
s(S'[[det]]'
p736
S'produced'
p737
S'by'
p738
tp739
F0.00029859659599880563
s(S'released'
p740
S'by'
p741
S'band'
p742
tp743
F0.00029859659599880563
s(S'recorded'
p744
S'with'
p745
S'producer'
p746
tp747
F0.00029859659599880563
s(g74
g75
g609
tp748
F0.00029859659599880563
s(S'family'
p749
S'comedy'
p750
S'film'
p751
tp752
F0.0005971931919976113
s(g142
g143
S'label'
p753
tp754
F0.00029859659599880563
s(S'crime'
p755
S'film'
p756
S'directed'
p757
tp758
F0.004478948939982084
s(S'titled'
p759
S'is'
p760
S'[[num]]'
p761
tp762
F0.00029859659599880563
s(S'album'
p763
S'released'
p764
S'with'
p765
tp766
F0.00029859659599880563
s(S'[[det]]'
p767
S'mystery'
p768
S'film'
p769
tp770
F0.00029859659599880563
s(S'was'
p771
g457
g458
tp772
F0.0008957897879964168
s(g301
S'was'
p773
S'produced'
p774
tp775
F0.0011943863839952225
s(S'been'
p776
S'released'
p777
S'by'
p778
tp779
F0.00029859659599880563
s(S'of'
p780
S'directed'
p781
S'[[con]]'
p782
tp783
F0.00029859659599880563
s(S'directed'
p784
S'produced'
p785
S'by'
p786
tp787
F0.0008957897879964168
s(S'[[con]]'
p788
S'is'
p789
S'composed'
p790
tp791
F0.00029859659599880563
s(S'[[num]]'
p792
S'film'
p793
S'noir'
p794
tp795
F0.0008957897879964168
s(g434
g435
S'songwriter'
p796
tp797
F0.00029859659599880563
s(S'[[con]]'
p798
S'released'
p799
S'in'
p800
tp801
F0.00029859659599880563
s(g34
g35
S'[[num]]'
p802
tp803
F0.00029859659599880563
s(S'[[num]]'
p804
S'drama'
p805
S'directed'
p806
tp807
F0.00029859659599880563
s(g209
g97
g98
tp808
F0.00029859659599880563
s(S'solo'
p809
S'album'
p810
S'was'
p811
tp812
F0.00029859659599880563
s(S'is'
p813
S'composed'
p814
S'by'
p815
tp816
F0.0005971931919976113
s(S'from'
p817
S'[[adj]]'
p818
S'rock'
p819
tp820
F0.0005971931919976113
s(S'drama'
p821
S'directed'
p822
S'[[con]]'
p823
tp824
F0.0008957897879964168
s(S'[[adj]]'
p825
S'drama'
p826
S'[[adj]]'
p827
tp828
F0.00029859659599880563
s(S'[[num]]'
p829
g749
g750
tp830
F0.0005971931919976113
s(S'comedy'
p831
S'horror'
p832
S'film'
p833
tp834
F0.00029859659599880563
s(g103
S'band'
p835
S'released'
p836
tp837
F0.00029859659599880563
s(S'album'
p838
S'by'
p839
S'metal'
p840
tp841
F0.0008957897879964168
s(S'television'
p842
S'film'
p843
S'written'
p844
tp845
F0.00029859659599880563
s(S'rock'
p846
S'song'
p847
S'by'
p848
tp849
F0.00029859659599880563
s(S'studio'
p850
S'album'
p851
S'by'
p852
tp853
F0.01224246043595103
s(S'noir'
p854
S'directed'
p855
S'[[con]]'
p856
tp857
F0.00029859659599880563
s(S'was'
p858
g718
g719
tp859
F0.00029859659599880563
s(S'drama'
p860
S'film'
p861
S'based'
p862
tp863
F0.00029859659599880563
s(S'been'
p864
S'written'
p865
S'by'
p866
tp867
F0.00029859659599880563
s(S'song'
p868
S'[[con]]'
p869
S'from'
p870
tp871
F0.00029859659599880563
s(S'is'
p872
S'written'
p873
S'that'
p874
tp875
F0.00029859659599880563
s(S'released'
p876
S'is'
p877
S'[[num]]'
p878
tp879
F0.00029859659599880563
s(S'[[num]]'
p880
S'fantasy'
p881
S'adventure'
p882
tp883
F0.00029859659599880563
s(S'written'
p884
S'composed'
p885
S'[[con]]'
p886
tp887
F0.00029859659599880563
s(g102
g103
g835
tp888
F0.00029859659599880563
s(g197
g198
S'[[con]]'
p889
tp890
F0.0020901761719916393
s(S'by'
p891
S'[[det]]'
p892
S'thrash'
p893
tp894
F0.00029859659599880563
s(S'arts'
p895
S'film'
p896
S'directed'
p897
tp898
F0.0008957897879964168
s(S'action'
p899
S'written'
p900
S'[[con]]'
p901
tp902
F0.0005971931919976113
s(g851
g852
S'[[adj]]'
p903
tp904
F0.005673335323977307
s(S'[[num]]'
p905
S'action'
p906
S'thriller'
p907
tp908
F0.0011943863839952225
s(S'studio'
p909
S'album'
p910
S'[[con]]'
p911
tp912
F0.00029859659599880563
s(S'produced'
p913
S'with'
p914
S'[[det]]'
p915
tp916
F0.00029859659599880563
s(S'song'
p917
S'by'
p918
S'rock'
p919
tp920
F0.0005971931919976113
s(S'movie'
p921
S'directed'
p922
S'[[con]]'
p923
tp924
F0.0011943863839952225
s(S'[[con]]'
p925
g913
g914
tp926
F0.0005971931919976113
s(S'by'
p927
S'rock'
p928
S'group'
p929
tp930
F0.00029859659599880563
s(S'drama'
p931
S'directed'
p932
S'by'
p933
tp934
F0.00029859659599880563
s(S'film'
p935
g931
g932
tp936
F0.00029859659599880563
s(S'starring'
p937
S'[[con]]'
p938
S'featuring'
p939
tp940
F0.0011943863839952225
s(S'written'
p941
S'produced'
p942
S'by'
p943
tp944
F0.00029859659599880563
s(S'was'
p945
S'designed'
p946
S'[[con]]'
p947
tp948
F0.00029859659599880563
s(S'country'
p949
S'music'
p950
S'artist'
p951
tp952
F0.0035831591519856674
s(S'[[adj]]'
p953
S'feature'
p954
S'film'
p955
tp956
F0.0005971931919976113
s(S'is'
p957
S'credited'
p958
S'to'
p959
tp960
F0.00029859659599880563
s(S'was'
p961
S'performed'
p962
S'with'
p963
tp964
F0.00029859659599880563
s(S'produced'
p965
S'engineered'
p966
S'by'
p967
tp968
F0.00029859659599880563
s(S'[[num]]'
p969
S'language'
p970
S'film'
p971
tp972
F0.0011943863839952225
s(S'[[det]]'
p973
S'song'
p974
S'by'
p975
tp976
F0.0074649148999701405
s(S'[[num]]'
p977
S'comedy'
p978
S'directed'
p979
tp980
F0.0008957897879964168
s(S'recorded'
p981
S'[[det]]'
p982
S'song'
p983
tp984
F0.00029859659599880563
s(S'album'
p985
S'by'
p986
S'death'
p987
tp988
F0.0005971931919976113
s(S'[[det]]'
p989
S'country'
p990
S'music'
p991
tp992
F0.00029859659599880563
s(g664
S'written'
p993
S'by'
p994
tp995
F0.007166318303971335
s(S'color'
p996
S'film'
p997
S'was'
p998
tp999
F0.00029859659599880563
s(S'screenplay'
p1000
S'written'
p1001
S'by'
p1002
tp1003
F0.00029859659599880563
s(S'[[adj]]'
p1004
S'drama'
p1005
S'film'
p1006
tp1007
F0.005971931919976112
s(S'[[det]]'
p1008
S'music'
p1009
S'album'
p1010
tp1011
F0.00029859659599880563
s(S'primarily'
p1012
g449
g450
tp1013
F0.00029859659599880563
s(S'[[num]]'
p1014
S'album'
p1015
S'from'
p1016
tp1017
F0.00029859659599880563
s(S'pop'
p1018
S'rock'
p1019
S'song'
p1020
tp1021
F0.00029859659599880563
s(S'also'
p1022
S'recorded'
p1023
g989
tp1024
F0.0005971931919976113
s(g620
S'written'
p1025
S'by'
p1026
tp1027
F0.00029859659599880563
s(S'[[con]]'
p1028
S'released'
p1029
S'by'
p1030
tp1031
F0.00029859659599880563
s(S'[[det]]'
p1032
S'song'
p1033
S'[[con]]'
p1034
tp1035
F0.0005971931919976113
s(S'[[adj]]'
p1036
S'comedy'
p1037
S'drama'
p1038
tp1039
F0.00029859659599880563
s(S'[[con]]'
p1040
g437
g438
tp1041
F0.002388772767990445
s(S'was'
p1042
S'designed'
p1043
S'for'
p1044
tp1045
F0.00029859659599880563
s(S'song'
p1046
S'written'
p1047
S'for'
p1048
tp1049
F0.00029859659599880563
s(S'[[det]]'
p1050
S'album'
p1051
S'by'
p1052
tp1053
F0.007166318303971335
s(g667
g668
S'starring'
p1054
tp1055
F0.0005971931919976113
s(S'comedy'
p1056
S'film'
p1057
S'from'
p1058
tp1059
F0.00029859659599880563
s(g538
g539
S'lineup'
p1060
tp1061
F0.00029859659599880563
s(S'released'
p1062
S'[[con]]'
p1063
S'features'
p1064
tp1065
F0.00029859659599880563
s(S'[[det]]'
p1066
g654
g655
tp1067
F0.0011943863839952225
s(S'[[num]]'
p1068
S'movie'
p1069
S'[[con]]'
p1070
tp1071
F0.00029859659599880563
s(S'album'
p1072
S'featuring'
p1073
S'[[con]]'
p1074
tp1075
F0.00029859659599880563
s(S'performed'
p1076
S'by'
p1077
S'[[adj]]'
p1078
tp1079
F0.00029859659599880563
s(g90
g91
S'based'
p1080
tp1081
F0.00029859659599880563
s(S'[[det]]'
p1082
S'song'
p1083
g620
tp1084
F0.00029859659599880563
s(S'[[num]]'
p1085
S'studio'
p1086
S'album'
p1087
tp1088
F0.0005971931919976113
s(S'as'
p1089
S'[[det]]'
p1090
S'film'
p1091
tp1092
F0.00029859659599880563
s(S'comedy'
p1093
S'film'
p1094
S'written'
p1095
tp1096
F0.004478948939982084
s(S'[[det]]'
p1097
S'drama'
p1098
S'thriller'
p1099
tp1100
F0.00029859659599880563
s(S'[[adj]]'
p1101
S'debut'
p1102
S'album'
p1103
tp1104
F0.0005971931919976113
s(S'[[det]]'
p1105
S'written'
p1106
S'by'
p1107
tp1108
F0.00029859659599880563
s(S'[[adj]]'
p1109
S'drama'
p1110
S'directed'
p1111
tp1112
F0.00029859659599880563
s(S'[[num]]'
p1113
S'album'
p1114
S'by'
p1115
tp1116
F0.0017915795759928337
s(S'fantasy'
p1117
S'action'
p1118
S'film'
p1119
tp1120
F0.00029859659599880563
s(S'[[det]]'
p1121
S'song'
p1122
g176
tp1123
F0.0011943863839952225
s(S'[[adj]]'
p1124
g831
g832
tp1125
F0.00029859659599880563
s(S'[[det]]'
p1126
S'jazz'
p1127
S'album'
p1128
tp1129
F0.00029859659599880563
s(S'aka'
p1130
g279
g280
tp1131
F0.00029859659599880563
s(S'album'
p1132
S'by'
p1133
S'alternative'
p1134
tp1135
F0.0005971931919976113
s(S'[[con]]'
p1136
S'directed'
p1137
S'with'
p1138
tp1139
F0.0005971931919976113
s(S'[[num]]'
p1140
S'horror'
p1141
g333
tp1142
F0.003881755747984473
s(g42
g43
S'metal'
p1143
tp1144
F0.00029859659599880563
s(g360
g361
S'production'
p1145
tp1146
F0.00029859659599880563
s(g285
S'appearances'
p1147
S'most'
p1148
tp1149
F0.00029859659599880563
s(S'been'
p1150
S'recorded'
p1151
S'with'
p1152
tp1153
F0.00029859659599880563
s(S'was'
p1154
S'written'
p1155
S'for'
p1156
tp1157
F0.00029859659599880563
s(S'studio'
p1158
S'album'
p1159
g315
tp1160
F0.0020901761719916393
s(S'is'
p1161
S'designed'
p1162
S'by'
p1163
tp1164
F0.00029859659599880563
s(S'album'
p1165
S'by'
p1166
S'band'
p1167
tp1168
F0.0011943863839952225
s(g997
g998
S'released'
p1169
tp1170
F0.00029859659599880563
s(S'album'
p1171
S'of'
p1172
S'country'
p1173
tp1174
F0.0005971931919976113
s(S'[[det]]'
p1175
S'film'
p1176
S'written'
p1177
tp1178
F0.00029859659599880563
s(S'[[det]]'
p1179
S'rock'
p1180
S'band'
p1181
tp1182
F0.0011943863839952225
s(S'adapted'
p1183
g465
g466
tp1184
F0.00029859659599880563
s(S'[[adj]]'
p1185
S'album'
p1186
S'by'
p1187
tp1188
F0.008957897879964169
s(S'thriller'
p1189
S'written'
p1190
S'[[con]]'
p1191
tp1192
F0.00029859659599880563
s(S'[[con]]'
p1193
S'starred'
p1194
S'by'
p1195
tp1196
F0.00029859659599880563
s(S'comedy'
p1197
S'crime'
p1198
S'film'
p1199
tp1200
F0.00029859659599880563
s(S'written'
p1201
S'directed'
p1202
S'by'
p1203
tp1204
F0.0005971931919976113
s(S'album'
p1205
S'by'
p1206
S'musician'
p1207
tp1208
F0.0008957897879964168
s(S'adapted'
p1209
S'into'
p1210
S'[[num]]'
p1211
tp1212
F0.00029859659599880563
s(S'[[adj]]'
p1213
S'film'
p1214
S'produced'
p1215
tp1216
F0.00029859659599880563
s(S'by'
p1217
S'punk'
p1218
S'band'
p1219
tp1220
F0.00029859659599880563
s(S'[[con]]'
p1221
S'directed'
p1222
S'gt'
p1223
tp1224
F0.00029859659599880563
s(S'was'
p1225
S'coproduced'
p1226
S'by'
p1227
tp1228
F0.00029859659599880563
s(S'edited'
p1229
S'[[con]]'
p1230
S'starring'
p1231
tp1232
F0.00029859659599880563
s(S'thriller'
p1233
S'film'
p1234
S'written'
p1235
tp1236
F0.0005971931919976113
s(S'film'
p1237
S'made'
p1238
S'by'
p1239
tp1240
F0.00029859659599880563
s(S'released'
p1241
S'by'
p1242
S'metal'
p1243
tp1244
F0.00029859659599880563
s(S'[[det]]'
p1245
S'film'
p1246
S'for'
p1247
tp1248
F0.00029859659599880563
s(S'[[adj]]'
p1249
S'film'
p1250
S'where'
p1251
tp1252
F0.00029859659599880563
s(S'was'
p1253
S'performed'
p1254
S'[[con]]'
p1255
tp1256
F0.00029859659599880563
s(S'was'
p1257
S'written'
p1258
g569
tp1259
F0.0005971931919976113
s(S'by'
p1260
S'[[det]]'
p1261
S'punk'
p1262
tp1263
F0.0008957897879964168
s(S'[[num]]'
p1264
g624
g625
tp1265
F0.0020901761719916393
s(S'released'
p1266
S'by'
p1267
S'country'
p1268
tp1269
F0.0005971931919976113
s(S'featured'
p1270
S'production'
p1271
S'by'
p1272
tp1273
F0.00029859659599880563
s(S'about'
p1274
S'directed'
p1275
S'[[con]]'
p1276
tp1277
F0.0005971931919976113
s(S'was'
p1278
S'released'
p1279
S'as'
p1280
tp1281
F0.0005971931919976113
s(g1261
g1262
S'rock'
p1282
tp1283
F0.0008957897879964168
s(S'is'
p1284
S'[[adj]]'
p1285
S'song'
p1286
tp1287
F0.00029859659599880563
s(S'[[det]]'
p1288
g587
g61
tp1289
F0.00029859659599880563
s(S'comedy'
p1290
S'film'
p1291
S'starring'
p1292
tp1293
F0.0035831591519856674
s(S'released'
p1294
S'by'
p1295
S'[[adj]]'
p1296
tp1297
F0.0008957897879964168
s(S'was'
p1298
S'directed'
p1299
S'written'
p1300
tp1301
F0.00029859659599880563
s(g1258
g569
g570
tp1302
F0.0008957897879964168
s(S'was'
p1303
g557
g558
tp1304
F0.00029859659599880563
s(g364
g365
S'[[con]]'
p1305
tp1306
F0.0005971931919976113
s(S'was'
p1307
S'adapted'
p1308
g1089
tp1309
F0.00029859659599880563
s(g482
g483
S'by'
p1310
tp1311
F0.0005971931919976113
s(g1210
g1211
S'film'
p1312
tp1313
F0.00029859659599880563
s(S'song'
p1314
S'by'
p1315
S'singersongwriter'
p1316
tp1317
F0.00029859659599880563
s(S'was'
p1318
S'produced'
p1319
S'with'
p1320
tp1321
F0.00029859659599880563
s(S'written'
p1322
S'[[con]]'
p1323
S'starring'
p1324
tp1325
F0.0035831591519856674
s(S'album'
p1326
S'by'
p1327
S'recording'
p1328
tp1329
F0.00029859659599880563
s(g309
S'crime'
p1330
g821
tp1331
F0.00029859659599880563
s(S'action'
p1332
S'film'
p1333
S'about'
p1334
tp1335
F0.00029859659599880563
s(g373
S'song'
p1336
S'written'
p1337
tp1338
F0.00029859659599880563
s(S'[[det]]'
p1339
S'debut'
p1340
S'album'
p1341
tp1342
F0.006569125111973723
s(S'[[adj]]'
p1343
S'song'
p1344
S'recorded'
p1345
tp1346
F0.00029859659599880563
s(S'song'
p1347
S'performed'
p1348
S'[[con]]'
p1349
tp1350
F0.00029859659599880563
s(S'horror'
p1351
S'film'
p1352
S'directed'
p1353
tp1354
F0.0035831591519856674
s(S'drama'
p1355
S'film'
p1356
S'produced'
p1357
tp1358
F0.0008957897879964168
s(S'documentary'
p1359
S'film'
p1360
S'by'
p1361
tp1362
F0.0005971931919976113
s(S'debut'
p1363
S'album'
p1364
S'of'
p1365
tp1366
F0.0008957897879964168
s(S'album'
p1367
S'from'
p1368
S'band'
p1369
tp1370
F0.00029859659599880563
s(g869
g870
S'album'
p1371
tp1372
F0.00029859659599880563
s(S'album'
p1373
S'by'
p1374
S'guitarist'
p1375
tp1376
F0.00029859659599880563
s(g794
S'starring'
p1377
S'[[con]]'
p1378
tp1379
F0.00029859659599880563
s(S'[[num]]'
p1380
S'crime'
p1381
S'drama'
p1382
tp1383
F0.002388772767990445
s(S'comedydrama'
p1384
S'film'
p1385
S'directed'
p1386
tp1387
F0.001492982979994028
s(g991
S'singer'
p1388
S'in'
p1389
tp1390
F0.00029859659599880563
s(S'documentary'
p1391
S'film'
p1392
S'about'
p1393
tp1394
F0.00029859659599880563
s(S'guest'
p1395
S'appearances'
p1396
S'by'
p1397
tp1398
F0.0008957897879964168
s(S'album'
p1399
S'by'
p1400
S'rapper'
p1401
tp1402
F0.001492982979994028
s(g1037
g1038
g255
tp1403
F0.0008957897879964168
s(g1348
g1349
S'written'
p1404
tp1405
F0.00029859659599880563
s(S'was'
p1406
S'released'
p1407
g684
tp1408
F0.00029859659599880563
s(S'film'
p1409
S'written'
p1410
S'by'
p1411
tp1412
F0.0017915795759928337
s(S'film'
p1413
g129
g130
tp1414
F0.007166318303971335
s(S'album'
p1415
g817
g818
tp1416
F0.0005971931919976113
s(S'directed'
p1417
S'by'
p1418
S'[[con]]'
p1419
tp1420
F0.014631233203941475
s(S'[[adj]]'
p1421
S'piece'
p1422
S'written'
p1423
tp1424
F0.00029859659599880563
s(S'drama'
p1425
S'film'
p1426
S'featuring'
p1427
tp1428
F0.00029859659599880563
s(S'[[con]]'
p1429
S'starring'
p1430
S'[[con]]'
p1431
tp1432
F0.008957897879964169
s(S'crime'
p1433
S'thriller'
p1434
S'film'
p1435
tp1436
F0.0011943863839952225
s(S'[[det]]'
p1437
S'horror'
p1438
S'film'
p1439
tp1440
F0.0008957897879964168
s(S'[[adj]]'
p1441
S'film'
p1442
S'about'
p1443
tp1444
F0.00029859659599880563
s(g22
g23
S'[[con]]'
p1445
tp1446
F0.0020901761719916393
s(S'[[num]]'
p1447
S'song'
p1448
S'by'
p1449
tp1450
F0.0008957897879964168
s(S'film'
p1451
S'starring'
p1452
S'[[det]]'
p1453
tp1454
F0.00029859659599880563
s(S'was'
p1455
S'produced'
p1456
S'primarily'
p1457
tp1458
F0.00029859659599880563
s(S'[[det]]'
p1459
S'film'
p1460
S'by'
p1461
tp1462
F0.00029859659599880563
s(S'had'
p1463
S'recorded'
p1464
S'with'
p1465
tp1466
F0.00029859659599880563
s(S'album'
p1467
S'released'
p1468
S'[[con]]'
p1469
tp1470
F0.00029859659599880563
s(S'is'
p1471
S'based'
p1472
S'upon'
p1473
tp1474
F0.00029859659599880563
s(S'was'
p1475
S'recorded'
p1476
S'by'
p1477
tp1478
F0.00029859659599880563
s(S'thriller'
p1479
S'film'
p1480
S'released'
p1481
tp1482
F0.00029859659599880563
s(S'[[det]]'
p1483
S'language'
p1484
S'film'
p1485
tp1486
F0.0005971931919976113
s(S'is'
p1487
S'based'
p1488
S'from'
p1489
tp1490
F0.00029859659599880563
s(S'from'
p1491
S'[[det]]'
p1492
S'band'
p1493
tp1494
F0.0005971931919976113
s(S'song'
p1495
g1076
g1077
tp1496
F0.0008957897879964168
s(S'is'
p1497
S'directed'
p1498
S'by'
p1499
tp1500
F0.00029859659599880563
s(S'by'
p1501
S'[[det]]'
p1502
S'based'
p1503
tp1504
F0.00029859659599880563
s(S'[[adj]]'
p1505
S'comedy'
p1506
S'starring'
p1507
tp1508
F0.00029859659599880563
s(S'[[num]]'
p1509
S'family'
p1510
S'film'
p1511
tp1512
F0.0005971931919976113
s(S'album'
p1513
g1491
g1492
tp1514
F0.0008957897879964168
s(S'solo'
p1515
S'album'
p1516
S'from'
p1517
tp1518
F0.00029859659599880563
s(g154
g109
g110
tp1519
F0.00029859659599880563
s(S'recorded'
p1520
S'[[con]]'
p1521
S'features'
p1522
tp1523
F0.00029859659599880563
s(g1090
g1091
S'in'
p1524
tp1525
F0.00029859659599880563
s(S'[[det]]'
p1526
S'death'
p1527
S'metal'
p1528
tp1529
F0.0008957897879964168
s(S'film'
p1530
S'[[adj]]'
p1531
S'starring'
p1532
tp1533
F0.00029859659599880563
s(S'written'
p1534
S'by'
p1535
S'[[con]]'
p1536
tp1537
F0.0005971931919976113
s(S'were'
p1538
S'released'
p1539
S'in'
p1540
tp1541
F0.00029859659599880563
s(S'[[num]]'
p1542
S'documentary'
p1543
S'film'
p1544
tp1545
F0.0026873693639892504
s(S'[[adj]]'
p1546
S'film'
p1547
S'by'
p1548
tp1549
F0.0005971931919976113
s(S'was'
p1550
S'produced'
p1551
S'directed'
p1552
tp1553
F0.00029859659599880563
s(S'[[det]]'
p1554
S'song'
p1555
S'with'
p1556
tp1557
F0.00029859659599880563
s(S'film'
p1558
g247
g248
tp1559
F0.00029859659599880563
s(S'was'
p1560
S'written'
p1561
S'to'
p1562
tp1563
F0.00029859659599880563
s(S'album'
p1564
S'by'
p1565
S'released'
p1566
tp1567
F0.00029859659599880563
s(g1381
g1382
S'film'
p1568
tp1569
F0.0017915795759928337
s(S'[[con]]'
p1570
S'recorded'
p1571
S'by'
p1572
tp1573
F0.003881755747984473
s(S'produced'
p1574
S'[[con]]'
p1575
S'features'
p1576
tp1577
F0.00029859659599880563
s(S'[[adj]]'
p1578
S'album'
p1579
S'in'
p1580
tp1581
F0.00029859659599880563
s(S'comedy'
p1582
S'film'
p1583
S'released'
p1584
tp1585
F0.00029859659599880563
s(g1009
g1010
S'by'
p1586
tp1587
F0.00029859659599880563
s(g663
g664
g993
tp1588
F0.007166318303971335
s(S'[[det]]'
p1589
S'documentary'
p1590
S'film'
p1591
tp1592
F0.0005971931919976113
s(S'[[num]]'
p1593
S'romance'
p1594
S'film'
p1595
tp1596
F0.001492982979994028
s(S'directed'
p1597
g1193
g1194
tp1598
F0.00029859659599880563
s(g1296
S'metal'
p1599
S'band'
p1600
tp1601
F0.0032845625559868616
s(S'[[num]]'
p1602
S'written'
p1603
S'by'
p1604
tp1605
F0.00029859659599880563
s(g284
g285
g1147
tp1606
F0.00029859659599880563
s(S'film'
p1607
g153
g154
tp1608
F0.00029859659599880563
s(g839
g840
S'band'
p1609
tp1610
F0.0011943863839952225
s(S'[[det]]'
p1611
g692
g693
tp1612
F0.00029859659599880563
s(S'[[num]]'
p1613
S'mystery'
p1614
S'thriller'
p1615
tp1616
F0.00029859659599880563
s(S'film'
p1617
S'starring'
p1618
g662
tp1619
F0.011346670647954613
s(S'cast'
p1620
S'comedydrama'
p1621
S'film'
p1622
tp1623
F0.00029859659599880563
s(S'[[adj]]'
p1624
S'released'
p1625
S'on'
p1626
tp1627
F0.00029859659599880563
s(S'war'
p1628
S'film'
p1629
S'directed'
p1630
tp1631
F0.0011943863839952225
s(g1057
g1058
S'written'
p1632
tp1633
F0.00029859659599880563
s(S'produced'
p1634
g680
g681
tp1635
F0.00029859659599880563
s(S'which'
p1636
S'[[adj]]'
p1637
S'album'
p1638
tp1639
F0.00029859659599880563
s(S'song'
p1640
S'by'
p1641
S'pop'
p1642
tp1643
F0.00029859659599880563
s(S'[[adj]]'
p1644
S'collaboration'
p1645
S'between'
p1646
tp1647
F0.00029859659599880563
s(S'movie'
p1648
S'directed'
p1649
S'starring'
p1650
tp1651
F0.00029859659599880563
s(S'assassination'
p1652
g347
g348
tp1653
F0.00029859659599880563
s(S'[[det]]'
p1654
S'collaboration'
p1655
S'[[con]]'
p1656
tp1657
F0.00029859659599880563
s(g189
g190
S'band'
p1658
tp1659
F0.0032845625559868616
s(S'[[det]]'
p1660
S'drama'
p1661
S'film'
p1662
tp1663
F0.0005971931919976113
s(S'was'
p1664
S'released'
p1665
S'[[adj]]'
p1666
tp1667
F0.00029859659599880563
s(S'film'
p1668
g784
g785
tp1669
F0.0008957897879964168
s(S'[[num]]'
p1670
S'thriller'
p1671
S'film'
p1672
tp1673
F0.005076142131979695
s(S'album'
p1674
S'by'
p1675
S'country'
p1676
tp1677
F0.003881755747984473
s(S'[[adj]]'
p1678
S'song'
p1679
S'[[con]]'
p1680
tp1681
F0.0005971931919976113
s(S'by'
p1682
g69
g70
tp1683
F0.00029859659599880563
s(g380
g381
S'rock'
p1684
tp1685
F0.00029859659599880563
s(S'[[det]]'
p1686
S'solo'
p1687
S'album'
p1688
tp1689
F0.0005971931919976113
s(S'[[det]]'
p1690
S'film'
p1691
S'directed'
p1692
tp1693
F0.0026873693639892504
s(S'by'
p1694
S'[[det]]'
p1695
S'alternative'
p1696
tp1697
F0.0005971931919976113
s(S'also'
p1698
g1634
g680
tp1699
F0.00029859659599880563
s(S'[[con]]'
p1700
S'featured'
p1701
S'production'
p1702
tp1703
F0.0005971931919976113
s(S'[[num]]'
p1704
g612
g613
tp1705
F0.001492982979994028
s(S'by'
p1706
S'country'
p1707
S'artist'
p1708
tp1709
F0.0005971931919976113
s(g248
g249
S'written'
p1710
tp1711
F0.00029859659599880563
s(S'debut'
p1712
S'solo'
p1713
S'album'
p1714
tp1715
F0.0005971931919976113
s(S'[[det]]'
p1716
S'thriller'
p1717
S'film'
p1718
tp1719
F0.0005971931919976113
s(S'film'
p1720
S'directed'
p1721
S'as'
p1722
tp1723
F0.0005971931919976113
s(S'by'
p1724
S'[[con]]'
p1725
S'producer'
p1726
tp1727
F0.00029859659599880563
s(S'[[det]]'
p1728
g371
g372
tp1729
F0.00029859659599880563
s(S'recorded'
p1730
S'by'
p1731
S'singer'
p1732
tp1733
F0.00029859659599880563
s(S'not'
p1734
S'released'
p1735
S'in'
p1736
tp1737
F0.00029859659599880563
s(S'[[det]]'
p1738
g1652
g347
tp1739
F0.00029859659599880563
s(g328
g329
S'[[det]]'
p1740
tp1741
F0.0005971931919976113
s(S'[[adj]]'
p1742
g850
g851
tp1743
F0.014034040011943864
s(S'[[det]]'
p1744
g417
g418
tp1745
F0.00029859659599880563
s(S'known'
p1746
S'is'
p1747
S'[[adj]]'
p1748
tp1749
F0.0005971931919976113
s(S'drama'
p1750
S'film'
p1751
S'[[adj]]'
p1752
tp1753
F0.0005971931919976113
s(S'by'
p1754
S'film'
p1755
S'stars'
p1756
tp1757
F0.00029859659599880563
s(S'album'
p1758
S'by'
p1759
S'jazz'
p1760
tp1761
F0.0008957897879964168
s(S'was'
p1762
S'created'
p1763
S'[[con]]'
p1764
tp1765
F0.00029859659599880563
s(g1583
g1584
S'starring'
p1766
tp1767
F0.0008957897879964168
s(S'by'
p1768
S'starring'
p1769
S'[[det]]'
p1770
tp1771
F0.00029859659599880563
s(S'crime'
p1772
S'drama'
p1773
S'starring'
p1774
tp1775
F0.00029859659599880563
s(S'[[con]]'
p1776
S'was'
p1777
S'directed'
p1778
tp1779
F0.00029859659599880563
s(S'[[num]]'
p1780
S'action'
p1781
S'film'
p1782
tp1783
F0.003881755747984473
s(S'comedy'
p1784
S'directed'
p1785
g1322
tp1786
F0.00029859659599880563
s(S'film'
p1787
S'[[adj]]'
p1788
S'directed'
p1789
tp1790
F0.0005971931919976113
s(S'directed'
p1791
g1429
g1430
tp1792
F0.024783517467900865
s(S'film'
p1793
S'directed'
p1794
S'that'
p1795
tp1796
F0.00029859659599880563
s(S'album'
p1797
S'from'
p1798
S'rock'
p1799
tp1800
F0.0005971931919976113
s(g1058
g1632
S'[[con]]'
p1801
tp1802
F0.00029859659599880563
s(S'[[con]]'
p1803
S'originally'
p1804
S'recorded'
p1805
tp1806
F0.00029859659599880563
s(S'was'
p1807
S'released'
p1808
S'by'
p1809
tp1810
F0.00029859659599880563
s(S'is'
p1811
S'produced'
p1812
S'by'
p1813
tp1814
F0.00029859659599880563
s(S'film'
p1815
g1791
g1429
tp1816
F0.02597790385189609
s(S'[[num]]'
p1817
g1628
g1629
tp1818
F0.001492982979994028
s(S'by'
p1819
S'[[det]]'
p1820
S'singersongwriter'
p1821
tp1822
F0.00029859659599880563
s(S'directed'
p1823
S'by'
p1824
S'starring'
p1825
tp1826
F0.009256494475962974
s(S'was'
p1827
g291
g292
tp1828
F0.00029859659599880563
s(S'by'
p1829
g1526
g1527
tp1830
F0.0008957897879964168
s(S'was'
p1831
S'produced'
p1832
S'from'
p1833
tp1834
F0.00029859659599880563
s(g1147
g1148
S'notably'
p1835
tp1836
F0.00029859659599880563
s(S'[[num]]'
p1837
g164
g165
tp1838
F0.0020901761719916393
s(g674
g630
g631
tp1839
F0.00029859659599880563
s(S'was'
p1840
S'recorded'
p1841
S'during'
p1842
tp1843
F0.00029859659599880563
s(S'is'
p1844
S'composed'
p1845
S'with'
p1846
tp1847
F0.00029859659599880563
s(S'[[num]]'
p1848
S'solo'
p1849
S'album'
p1850
tp1851
F0.00029859659599880563
s(S'adventure'
p1852
S'film'
p1853
S'starring'
p1854
tp1855
F0.0011943863839952225
s(g1618
g662
g663
tp1856
F0.002388772767990445
s(S'studio'
p1857
S'album'
p1858
S'of'
p1859
tp1860
F0.0005971931919976113
s(S'be'
p1861
S'written'
p1862
S'[[con]]'
p1863
tp1864
F0.00029859659599880563
s(S'singer'
p1865
S'written'
p1866
S'by'
p1867
tp1868
F0.00029859659599880563
s(S'[[num]]'
p1869
g676
g677
tp1870
F0.00029859659599880563
s(S'[[det]]'
p1871
S'recorded'
p1872
S'by'
p1873
tp1874
F0.00029859659599880563
s(S'[[adj]]'
p1875
S'comedy'
p1876
g1815
tp1877
F0.006270528515974918
s(g1510
g1511
S'directed'
p1878
tp1879
F0.0008957897879964168
s(S'[[con]]'
p1880
S'directed'
p1881
S'which'
p1882
tp1883
F0.00029859659599880563
s(S'was'
p1884
S'created'
p1885
S'with'
p1886
tp1887
F0.00029859659599880563
s(S'is'
p1888
S'directed'
p1889
S'[[con]]'
p1890
tp1891
F0.0005971931919976113
s(S'[[det]]'
p1892
S'war'
p1893
S'film'
p1894
tp1895
F0.00029859659599880563
s(g205
g206
S'by'
p1896
tp1897
F0.0008957897879964168
s(g1223
S'[[con]]'
p1898
S'starring'
p1899
tp1900
F0.00029859659599880563
s(S'[[det]]'
p1901
S'film'
p1902
S'comedy'
p1903
tp1904
F0.00029859659599880563
s(S'comedy'
p1905
g1530
g1531
tp1906
F0.00029859659599880563
s(S'was'
p1907
S'produced'
p1908
S'by'
p1909
tp1910
F0.001492982979994028
s(S'written'
p1911
S'by'
p1912
S'starring'
p1913
tp1914
F0.00029859659599880563
s(g411
g1865
g1866
tp1915
F0.00029859659599880563
s(S'[[det]]'
p1916
S'collaboration'
p1917
S'with'
p1918
tp1919
F0.00029859659599880563
s(S'is'
p1920
S'based'
p1921
S'on'
p1922
tp1923
F0.00029859659599880563
s(S'[[det]]'
p1924
S'film'
p1925
S'starring'
p1926
tp1927
F0.0005971931919976113
s(S'by'
p1928
S'[[det]]'
p1929
S'band'
p1930
tp1931
F0.002388772767990445
s(S'[[det]]'
p1932
S'album'
p1933
S'featuring'
p1934
tp1935
F0.0005971931919976113
s(S'[[num]]'
p1936
g1290
g1291
tp1937
F0.008062108091967751
s(g562
g563
S'by'
p1938
tp1939
F0.0011943863839952225
s(S'was'
p1940
S'written'
p1941
S'produced'
p1942
tp1943
F0.0005971931919976113
s(S'[[det]]'
p1944
S'film'
p1945
S'noir'
p1946
tp1947
F0.00029859659599880563
s(g212
g213
S'by'
p1948
tp1949
F0.00029859659599880563
s(S'[[adj]]'
p1950
S'released'
p1951
S'from'
p1952
tp1953
F0.0005971931919976113
s(g581
S'[[det]]'
p1954
S'song'
p1955
tp1956
F0.002388772767990445
s(S'produced'
p1957
S'directed'
p1958
S'by'
p1959
tp1960
F0.0011943863839952225
s(S'also'
p1961
S'features'
p1962
S'guest'
p1963
tp1964
F0.00029859659599880563
s(S'song'
p1965
S'by'
p1966
S'[[det]]'
p1967
tp1968
F0.002985965959988056
s(S'[[adj]]'
p1969
g1072
g1073
tp1970
F0.0005971931919976113
s(S'song'
p1971
S'by'
p1972
S'musician'
p1973
tp1974
F0.00029859659599880563
s(S'[[adj]]'
p1975
S'jazz'
p1976
S'album'
p1977
tp1978
F0.00029859659599880563
s(S'where'
p1979
g137
g138
tp1980
F0.00029859659599880563
s(S'been'
p1981
S'recorded'
p1982
S'by'
p1983
tp1984
F0.00029859659599880563
s(S'was'
p1985
S'produced'
p1986
S'[[con]]'
p1987
tp1988
F0.0020901761719916393
s(S'song'
p1989
S'by'
p1990
S'country'
p1991
tp1992
F0.00029859659599880563
s(S'was'
p1993
S'written'
p1994
S'that'
p1995
tp1996
F0.00029859659599880563
s(g376
g377
S'was'
p1997
tp1998
F0.0005971931919976113
s(S'[[num]]'
p1999
S'designed'
p2000
S'by'
p2001
tp2002
F0.00029859659599880563
s(S'[[adj]]'
p2003
S'song'
p2004
S'composed'
p2005
tp2006
F0.00029859659599880563
s(S'primarily'
p2007
S'produced'
p2008
S'by'
p2009
tp2010
F0.00029859659599880563
s(S'[[con]]'
p2011
S'engineered'
p2012
S'by'
p2013
tp2014
F0.00029859659599880563
s(g1507
S'[[con]]'
p2015
S'written'
p2016
tp2017
F0.00029859659599880563
s(S'was'
p2018
S'directed'
p2019
S'[[con]]'
p2020
tp2021
F0.001492982979994028
s(g14
g15
S'by'
p2022
tp2023
F0.0041803523439832785
s(S'later'
p2024
S'released'
p2025
S'in'
p2026
tp2027
F0.00029859659599880563
s(g1122
g176
g177
tp2028
F0.0020901761719916393
s(S'produced'
p2029
g1570
g1571
tp2030
F0.00029859659599880563
s(g1881
g1882
S'starred'
p2031
tp2032
F0.00029859659599880563
s(S'been'
p2033
S'recorded'
p2034
S'as'
p2035
tp2036
F0.00029859659599880563
s(g1502
g1503
S'band'
p2037
tp2038
F0.00029859659599880563
s(S'[[adj]]'
p2039
S'documentary'
p2040
S'film'
p2041
tp2042
F0.00029859659599880563
s(S'[[adj]]'
p2043
S'written'
p2044
S'by'
p2045
tp2046
F0.00029859659599880563
s(S'was'
p2047
S'said'
p2048
S'that'
p2049
tp2050
F0.00029859659599880563
s(S'[[num]]'
p2051
S'mystery'
p2052
S'crime'
p2053
tp2054
F0.00029859659599880563
s(g494
g495
S'directed'
p2055
tp2056
F0.011943863839952225
s(S'from'
p2057
S'[[det]]'
p2058
S'lineup'
p2059
tp2060
F0.00029859659599880563
s(S'is'
p2061
S'said'
p2062
S'that'
p2063
tp2064
F0.00029859659599880563
s(S'[[adj]]'
p2065
S'song'
p2066
S'from'
p2067
tp2068
F0.00029859659599880563
s(S'by'
p2069
S'rock'
p2070
S'band'
p2071
tp2072
F0.002388772767990445
s(S'[[det]]'
p2073
g1018
g1019
tp2074
F0.00029859659599880563
s(g1469
S'compiled'
p2075
S'by'
p2076
tp2077
F0.00029859659599880563
s(g970
g971
S'starring'
p2078
tp2079
F0.0008957897879964168
s(S'feature'
p2080
S'film'
p2081
S'directed'
p2082
tp2083
F0.002388772767990445
s(S'made'
p2084
S'[[con]]'
p2085
S'starring'
p2086
tp2087
F0.00029859659599880563
s(g881
g882
S'film'
p2088
tp2089
F0.00029859659599880563
s(S'was'
p2090
S'written'
p2091
S'in'
p2092
tp2093
F0.00029859659599880563
s(g2052
g2053
S'film'
p2094
tp2095
F0.00029859659599880563
s(S'[[num]]'
p2096
S'based'
p2097
S'on'
p2098
tp2099
F0.00029859659599880563
s(g1330
g821
g822
tp2100
F0.00029859659599880563
s(S'being'
p2101
S'produced'
p2102
S'by'
p2103
tp2104
F0.00029859659599880563
s(S'released'
p2105
g730
g731
tp2106
F0.00029859659599880563
s(S'is'
p2107
S'written'
p2108
S'by'
p2109
tp2110
F0.00029859659599880563
s(S'[[num]]'
p2111
S'produced'
p2112
S'by'
p2113
tp2114
F0.0008957897879964168
s(S'[[num]]'
p2115
S'based'
p2116
S'by'
p2117
tp2118
F0.00029859659599880563
s(S'film'
p2119
g780
g781
tp2120
F0.00029859659599880563
s(S'directed'
p2121
S'[[con]]'
p2122
S'stars'
p2123
tp2124
F0.001492982979994028
s(S'[[adj]]'
p2125
g235
g236
tp2126
F0.001492982979994028
s(S'[[adj]]'
p2127
S'death'
p2128
S'metal'
p2129
tp2130
F0.0008957897879964168
s(S'[[num]]'
p2131
S'song'
p2132
S'written'
p2133
tp2134
F0.0008957897879964168
s(S'[[det]]'
p2135
S'crime'
p2136
S'film'
p2137
tp2138
F0.00029859659599880563
s(S'features'
p2139
g283
g284
tp2140
F0.00029859659599880563
s(S'is'
p2141
S'based'
p2142
S'[[con]]'
p2143
tp2144
F0.00029859659599880563
s(S'written'
p2145
S'[[con]]'
p2146
S'was'
p2147
tp2148
F0.0005971931919976113
s(g1295
g1296
g1599
tp2149
F0.0032845625559868616
s(S'[[adj]]'
p2150
S'mystery'
p2151
S'film'
p2152
tp2153
F0.00029859659599880563
s(g760
g761
S'drama'
p2154
tp2155
F0.00029859659599880563
s(S'[[num]]'
p2156
S'debut'
p2157
S'album'
p2158
tp2159
F0.00029859659599880563
s(g659
g660
S'band'
p2160
tp2161
F0.0017915795759928337
s(S'directed'
p2162
g1754
g1755
tp2163
F0.0005971931919976113
s(S'song'
p2164
S'by'
p2165
S'singer'
p2166
tp2167
F0.0005971931919976113
s(g1468
g1469
g2075
tp2168
F0.00029859659599880563
s(S'[[adj]]'
p2169
S'film'
p2170
S'directed'
p2171
tp2172
F0.006569125111973723
s(S'[[adj]]'
p2173
S'album'
p2174
S'after'
p2175
tp2176
F0.00029859659599880563
s(S'[[adj]]'
p2177
S'performed'
p2178
S'by'
p2179
tp2180
F0.00029859659599880563
s(S'[[adj]]'
p2181
S'composed'
p2182
S'by'
p2183
tp2184
F0.00029859659599880563
s(S'[[num]]'
p2185
S'produced'
p2186
S'[[con]]'
p2187
tp2188
F0.00029859659599880563
s(S'[[adj]]'
p2189
S'album'
p2190
S'where'
p2191
tp2192
F0.00029859659599880563
s(S'[[adj]]'
p2193
S'film'
p2194
S'that'
p2195
tp2196
F0.00029859659599880563
s(S'known'
p2197
S'is'
p2198
S'film'
p2199
tp2200
F0.00029859659599880563
s(g23
g1445
S'directed'
p2201
tp2202
F0.004478948939982084
s(S'crime'
p2203
S'drama'
p2204
S'written'
p2205
tp2206
F0.00029859659599880563
s(g656
S'by'
p2207
S'singer'
p2208
tp2209
F0.0005971931919976113
s(S'[[det]]'
p2210
g200
g201
tp2211
F0.00029859659599880563
s(S'reached'
p2212
S'[[num]]'
p2213
g29
tp2214
F0.00029859659599880563
s(S'[[num]]'
p2215
g589
g590
tp2216
F0.00029859659599880563
s(g422
g423
S'[[con]]'
p2217
tp2218
F0.00029859659599880563
s(g793
g794
g1377
tp2219
F0.00029859659599880563
s(S'album'
p2220
g57
g58
tp2221
F0.0017915795759928337
s(S'language'
p2222
S'film'
p2223
S'written'
p2224
tp2225
F0.00029859659599880563
s(S'[[num]]'
p2226
S'drama'
p2227
S'[[adj]]'
p2228
tp2229
F0.00029859659599880563
s(S'later'
p2230
S'released'
p2231
S'to'
p2232
tp2233
F0.00029859659599880563
s(S'by'
p2234
S'[[con]]'
p2235
S'featuring'
p2236
tp2237
F0.00029859659599880563
s(S'[[adj]]'
p2238
S'comedy'
p2239
S'[[adj]]'
p2240
tp2241
F0.0005971931919976113
s(S'[[adj]]'
p2242
S'romance'
p2243
S'film'
p2244
tp2245
F0.00029859659599880563
s(S'as'
p2246
S'performed'
p2247
S'by'
p2248
tp2249
F0.00029859659599880563
s(S'[[adj]]'
p2250
S'album'
p2251
S'of'
p2252
tp2253
F0.00029859659599880563
s(g273
S'[[con]]'
p2254
S'written'
p2255
tp2256
F0.0005971931919976113
s(g998
g1169
S'starring'
p2257
tp2258
F0.00029859659599880563
s(g1308
g1089
g1090
tp2259
F0.00029859659599880563
s(g1091
g1524
S'[[num]]'
p2260
tp2261
F0.00029859659599880563
s(S'by'
p2262
g469
g470
tp2263
F0.0005971931919976113
s(S'debut'
p2264
S'studio'
p2265
S'album'
p2266
tp2267
F0.0011943863839952225
s(S'by'
p2268
S'[[det]]'
p2269
S'singer'
p2270
tp2271
F0.0005971931919976113
s(g1422
g1423
S'by'
p2272
tp2273
F0.00029859659599880563
s(g2204
g2205
S'[[con]]'
p2274
tp2275
F0.00029859659599880563
s(S'[[det]]'
p2276
g1495
g1076
tp2277
F0.0008957897879964168
s(S'[[det]]'
p2278
S'written'
p2279
S'produced'
p2280
tp2281
F0.00029859659599880563
s(S'directed'
p2282
S'written'
p2283
S'by'
p2284
tp2285
F0.001492982979994028
s(S'album'
p2286
g658
g659
tp2287
F0.0008957897879964168
s(S'[[det]]'
p2288
S'film'
p2289
S'released'
p2290
tp2291
F0.00029859659599880563
s(g1594
g1595
S'directed'
p2292
tp2293
F0.0011943863839952225
s(S'romance'
p2294
S'film'
p2295
S'starring'
p2296
tp2297
F0.0005971931919976113
s(S'[[adj]]'
p2298
g541
g542
tp2299
F0.00029859659599880563
s(S'[[det]]'
p2300
g2119
g780
tp2301
F0.00029859659599880563
s(S'film'
p2302
g1274
g1275
tp2303
F0.0005971931919976113
s(S'[[adj]]'
p2304
S'fantasy'
p2305
S'film'
p2306
tp2307
F0.00029859659599880563
s(g1794
g1795
S'starred'
p2308
tp2309
F0.00029859659599880563
s(g1118
g1119
S'starring'
p2310
tp2311
F0.001492982979994028
s(S'released'
p2312
g1700
g1701
tp2313
F0.0008957897879964168
s(g1456
g1457
S'by'
p2314
tp2315
F0.00029859659599880563
s(g1543
g1544
S'directed'
p2316
tp2317
F0.001492982979994028
s(S'also'
p2318
g1746
g1747
tp2319
F0.002985965959988056
s(S'film'
p2320
S'written'
p2321
S'directed'
p2322
tp2323
F0.0008957897879964168
s(g810
g811
S'released'
p2324
tp2325
F0.00029859659599880563
s(S'[[num]]'
p2326
g899
g900
tp2327
F0.0005971931919976113
s(S'length'
p2328
S'album'
p2329
S'by'
p2330
tp2331
F0.00029859659599880563
s(S'debut'
p2332
S'album'
p2333
S'from'
p2334
tp2335
F0.0008957897879964168
s(S'by'
p2336
g1179
g1180
tp2337
F0.0011943863839952225
s(g620
S'written'
p2338
S'[[con]]'
p2339
tp2340
F0.00029859659599880563
s(S'[[adj]]'
p2341
S'release'
p2342
S'with'
p2343
tp2344
F0.00029859659599880563
s(g1997
S'written'
p2345
S'[[con]]'
p2346
tp2347
F0.002388772767990445
s(S'[[adj]]'
p2348
g755
g756
tp2349
F0.001492982979994028
s(S'action'
p2350
g1787
g1788
tp2351
F0.00029859659599880563
s(S'[[num]]'
p2352
g1433
g1434
tp2353
F0.0011943863839952225
s(S'not'
p2354
S'based'
p2355
S'on'
p2356
tp2357
F0.00029859659599880563
s(S'[[det]]'
p2358
S'song'
p2359
S'composed'
p2360
tp2361
F0.00029859659599880563
s(S'be'
p2362
S'produced'
p2363
S'by'
p2364
tp2365
F0.00029859659599880563
s(S'was'
p2366
S'designed'
p2367
S'with'
p2368
tp2369
F0.00029859659599880563
s(g27
S'written'
p2370
S'by'
p2371
tp2372
F0.00029859659599880563
s(g1941
g1942
S'[[con]]'
p2373
tp2374
F0.0005971931919976113
s(g2322
S'[[con]]'
p2375
g1229
tp2376
F0.0005971931919976113
s(S'album'
p2377
g700
g701
tp2378
F0.0005971931919976113
s(S'be'
p2379
S'released'
p2380
S'in'
p2381
tp2382
F0.00029859659599880563
s(g1070
g1957
g1958
tp2383
F0.00029859659599880563
s(S'war'
p2384
S'film'
p2385
S'starring'
p2386
tp2387
F0.0008957897879964168
s(S'[[det]]'
p2388
S'color'
p2389
S'film'
p2390
tp2391
F0.0005971931919976113
s(S'[[adj]]'
p2392
g1189
g1190
tp2393
F0.00029859659599880563
s(S'released'
p2394
g1636
g1637
tp2395
F0.00029859659599880563
s(S'[[adj]]'
p2396
S'album'
p2397
S'from'
p2398
tp2399
F0.001492982979994028
s(g892
g893
S'metal'
p2400
tp2401
F0.00029859659599880563
s(S'[[num]]'
p2402
g935
g931
tp2403
F0.00029859659599880563
s(g1804
g1805
S'by'
p2404
tp2405
F0.00029859659599880563
s(g241
g297
S'by'
p2406
tp2407
F0.00029859659599880563
s(g877
g878
S'adventure'
p2408
tp2409
F0.00029859659599880563
s(S'is'
p2410
S'directed'
p2411
S'at'
p2412
tp2413
F0.00029859659599880563
s(S'[[det]]'
p2414
g583
g584
tp2415
F0.00029859659599880563
s(S'[[num]]'
p2416
S'mystery'
p2417
S'film'
p2418
tp2419
F0.001492982979994028
s(g1222
g1223
g1898
tp2420
F0.00029859659599880563
s(g835
g836
S'by'
p2421
tp2422
F0.00029859659599880563
s(S'by'
p2423
g2127
g2128
tp2424
F0.0008957897879964168
s(S'known'
p2425
S'is'
p2426
g355
tp2427
F0.002388772767990445
s(S'[[adj]]'
p2428
g2328
g2329
tp2429
F0.00029859659599880563
s(S'documentary'
p2430
S'film'
p2431
S'starring'
p2432
tp2433
F0.00029859659599880563
s(S'was'
p2434
g884
g885
tp2435
F0.00029859659599880563
s(S'[[num]]'
p2436
S'comedy'
p2437
S'drama'
p2438
tp2439
F0.0005971931919976113
s(S'[[adj]]'
p2440
S'album'
p2441
g1241
tp2442
F0.0005971931919976113
s(S'[[adj]]'
p2443
S'song'
p2444
S'[[det]]'
p2445
tp2446
F0.00029859659599880563
s(S'album'
p2447
S'by'
p2448
S'singersongwriter'
p2449
tp2450
F0.0005971931919976113
s(g2213
g29
g30
tp2451
F0.00029859659599880563
s(g334
g335
S'by'
p2452
tp2453
F0.0005971931919976113
s(S'album'
p2454
S'by'
p2455
S'artist'
p2456
tp2457
F0.0005971931919976113
s(g1687
g1688
S'by'
p2458
tp2459
F0.0011943863839952225
s(g1238
g1239
S'starring'
p2460
tp2461
F0.00029859659599880563
s(S'also'
p2462
S'released'
p2463
S'by'
p2464
tp2465
F0.00029859659599880563
s(S'[[adj]]'
p2466
g145
g146
tp2467
F0.0017915795759928337
s(S'[[det]]'
p2468
g1000
g1001
tp2469
F0.00029859659599880563
s(S'by'
p2470
S'country'
p2471
S'singer'
p2472
tp2473
F0.0005971931919976113
s(g186
g295
S'directed'
p2474
tp2475
F0.0005971931919976113
s(g1798
g1799
S'band'
p2476
tp2477
F0.0005971931919976113
s(S'by'
p2478
S'indie'
p2479
S'rock'
p2480
tp2481
F0.0017915795759928337
s(S'from'
p2482
g949
g950
tp2483
F0.00029859659599880563
s(g1876
g1815
g1791
tp2484
F0.00955509107196178
s(g249
g1710
S'[[con]]'
p2485
tp2486
F0.00029859659599880563
s(S'engineered'
p2487
S'[[con]]'
p2488
S'produced'
p2489
tp2490
F0.00029859659599880563
s(g26
g27
g2370
tp2491
F0.00029859659599880563
s(S'[[adj]]'
p2492
S'comedy'
p2493
S'directed'
p2494
tp2495
F0.0008957897879964168
s(S'not'
p2496
S'released'
p2497
S'as'
p2498
tp2499
F0.00029859659599880563
s(g539
g1060
S'of'
p2500
tp2501
F0.0005971931919976113
s(S'were'
p2502
S'designed'
p2503
S'by'
p2504
tp2505
F0.00029859659599880563
s(S'[[det]]'
p2506
S'directed'
p2507
S'by'
p2508
tp2509
F0.00029859659599880563
s(S'film'
p2510
S'by'
p2511
S'starring'
p2512
tp2513
F0.0008957897879964168
s(S'[[adj]]'
p2514
g1197
g1198
tp2515
F0.00029859659599880563
s(S'[[adj]]'
p2516
S'recorded'
p2517
S'in'
p2518
tp2519
F0.00029859659599880563
s(g91
g1080
S'directed'
p2520
tp2521
F0.00029859659599880563
s(S'released'
p2522
S'by'
p2523
S'singersongwriter'
p2524
tp2525
F0.00029859659599880563
s(g2055
S'based'
p2526
S'by'
p2527
tp2528
F0.0005971931919976113
s(S'[[det]]'
p2529
S'song'
p2530
S'that'
p2531
tp2532
F0.00029859659599880563
s(S'known'
p2533
S'is'
p2534
S'[[det]]'
p2535
tp2536
F0.00029859659599880563
s(S'[[con]]'
p2537
S'written'
p2538
S'[[con]]'
p2539
tp2540
F0.001492982979994028
s(S'[[adj]]'
p2541
g441
g442
tp2542
F0.00029859659599880563
s(S'[[det]]'
p2543
S'comedy'
p2544
S'action'
p2545
tp2546
F0.00029859659599880563
s(g1214
g1215
S'directed'
p2547
tp2548
F0.0005971931919976113
s(S'[[num]]'
p2549
g49
g50
tp2550
F0.0005971931919976113
s(S'[[adj]]'
p2551
S'produced'
p2552
S'[[con]]'
p2553
tp2554
F0.00029859659599880563
s(S'[[adj]]'
p2555
S'release'
p2556
S'as'
p2557
tp2558
F0.00029859659599880563
s(S'[[con]]'
p2559
S'was'
p2560
S'album'
p2561
tp2562
F0.00029859659599880563
s(S'was'
p2563
g965
g966
tp2564
F0.00029859659599880563
s(S'[[adj]]'
p2565
g1617
g1618
tp2566
F0.0026873693639892504
s(g1788
g1789
S'by'
p2567
tp2568
F0.0008957897879964168
s(S'also'
p2569
S'coproduced'
p2570
S'with'
p2571
tp2572
F0.00029859659599880563
s(S'is'
p2573
S'revealed'
p2574
S'that'
p2575
tp2576
F0.00029859659599880563
s(S'comedydrama'
p2577
S'film'
p2578
S'starring'
p2579
tp2580
F0.001492982979994028
s(g2122
g2123
S'[[con]]'
p2581
tp2582
F0.0005971931919976113
s(g174
S'music'
p2583
S'singer'
p2584
tp2585
F0.0032845625559868616
s(S'[[det]]'
p2586
S'collaboration'
p2587
S'between'
p2588
tp2589
F0.00029859659599880563
s(g1506
g1507
g2015
tp2590
F0.00029859659599880563
s(g2479
g2480
S'band'
p2591
tp2592
F0.0017915795759928337
s(g2544
g2545
S'film'
p2593
tp2594
F0.00029859659599880563
s(g1356
g1357
S'by'
p2595
tp2596
F0.0008957897879964168
s(g1069
g1070
g1957
tp2597
F0.00029859659599880563
s(S'[[con]]'
p2598
S'produced'
p2599
S'by'
p2600
tp2601
F0.007763511495968946
s(S'[[det]]'
p2602
S'album'
p2603
S'from'
p2604
tp2605
F0.00029859659599880563
s(g1781
g1782
S'directed'
p2606
tp2607
F0.002985965959988056
s(g1747
g1748
S'film'
p2608
tp2609
F0.00029859659599880563
s(S'is'
p2610
g519
g520
tp2611
F0.0020901761719916393
s(g731
g732
g620
tp2612
F0.00029859659599880563
s(g157
g158
S'[[con]]'
p2613
tp2614
F0.00029859659599880563
s(S'[[adj]]'
p2615
S'song'
p2616
S'of'
p2617
tp2618
F0.00029859659599880563
s(S'[[adj]]'
p2619
S'thriller'
p2620
S'directed'
p2621
tp2622
F0.00029859659599880563
s(S'documentary'
p2623
S'film'
p2624
S'written'
p2625
tp2626
F0.00029859659599880563
s(S'directed'
p2627
g473
g474
tp2628
F0.00029859659599880563
s(S'[[det]]'
p2629
g1582
g1583
tp2630
F0.0011943863839952225
s(S'[[adj]]'
p2631
S'based'
p2632
S'by'
p2633
tp2634
F0.00029859659599880563
s(S'film'
p2635
g854
g855
tp2636
F0.0008957897879964168
s(g126
g127
S'rock'
p2637
tp2638
F0.00029859659599880563
s(S'[[adj]]'
p2639
g895
g896
tp2640
F0.0008957897879964168
s(S'title'
p2641
S'[[con]]'
p2642
S'recorded'
p2643
tp2644
F0.0005971931919976113
s(S'also'
p2645
S'performed'
p2646
S'[[adj]]'
p2647
tp2648
F0.00029859659599880563
s(S'sports'
p2649
S'drama'
p2650
S'film'
p2651
tp2652
F0.00029859659599880563
s(S'film'
p2653
g2084
g2085
tp2654
F0.00029859659599880563
s(S'debut'
p2655
S'album'
p2656
S'for'
p2657
tp2658
F0.00029859659599880563
s(S'article'
p2659
g2610
g519
tp2660
F0.00029859659599880563
s(g978
g979
S'[[con]]'
p2661
tp2662
F0.0008957897879964168
s(g1023
g989
g990
tp2663
F0.00029859659599880563
s(S'released'
p2664
S'[[con]]'
p2665
S'produced'
p2666
tp2667
F0.00029859659599880563
s(g300
g301
g773
tp2668
F0.0008957897879964168
s(g1527
g1528
S'band'
p2669
tp2670
F0.0026873693639892504
s(S'[[adj]]'
p2671
g1237
g1238
tp2672
F0.0005971931919976113
s(S'[[adj]]'
p2673
S'song'
p2674
S'on'
p2675
tp2676
F0.00029859659599880563
s(S'[[num]]'
p2677
S'thriller'
p2678
S'directed'
p2679
tp2680
F0.00029859659599880563
s(S'[[adj]]'
p2681
S'created'
p2682
S'by'
p2683
tp2684
F0.00029859659599880563
s(g1172
g1173
S'music'
p2685
tp2686
F0.0005971931919976113
s(g1364
g1365
S'singer'
p2687
tp2688
F0.00029859659599880563
s(g986
g987
S'metal'
p2689
tp2690
F0.0005971931919976113
s(S'[[adj]]'
p2691
g1620
g1621
tp2692
F0.00029859659599880563
s(S'language'
p2693
S'film'
p2694
S'directed'
p2695
tp2696
F0.0005971931919976113
s(g1701
g1702
S'from'
p2697
tp2698
F0.0005971931919976113
s(g1080
g2520
S'[[con]]'
p2699
tp2700
F0.00029859659599880563
s(S'[[det]]'
p2701
g2264
g2265
tp2702
F0.0011943863839952225
s(S'was'
p2703
g1209
g1210
tp2704
F0.0005971931919976113
s(g1382
g1568
S'starring'
p2705
tp2706
F0.002388772767990445
s(S'[[num]]'
p2707
S'comedy'
p2708
S'[[adj]]'
p2709
tp2710
F0.0005971931919976113
s(S'[[det]]'
p2711
g2641
g2642
tp2712
F0.0005971931919976113
s(g1614
g1615
S'film'
p2713
tp2714
F0.00029859659599880563
s(S'written'
p2715
g1803
g1804
tp2716
F0.00029859659599880563
s(g410
g411
g1865
tp2717
F0.00029859659599880563
s(g2534
g2535
S'pop'
p2718
tp2719
F0.00029859659599880563
s(S'guest'
p2720
S'appearances'
p2721
S'of'
p2722
tp2723
F0.00029859659599880563
s(g906
g907
S'film'
p2724
tp2725
F0.0011943863839952225
s(S'[[det]]'
p2726
S'album'
p2727
g740
tp2728
F0.0008957897879964168
s(S'was'
p2729
S'credited'
p2730
S'to'
p2731
tp2732
F0.00029859659599880563
s(g372
g373
g1336
tp2733
F0.00029859659599880563
s(S'comedy'
p2734
g2565
g1617
tp2735
F0.001492982979994028
s(S'film'
p2736
g351
g352
tp2737
F0.0005971931919976113
s(S'directed'
p2738
S'[[con]]'
p2739
S'featuring'
p2740
tp2741
F0.0008957897879964168
s(g381
g1684
S'band'
p2742
tp2743
F0.0011943863839952225
s(S'comedydrama'
p2744
g1409
g1410
tp2745
F0.001492982979994028
s(g885
g886
S'produced'
p2746
tp2747
F0.00029859659599880563
s(S'album'
p2748
S'by'
p2749
S'indie'
p2750
tp2751
F0.0008957897879964168
s(g1327
g1328
S'artist'
p2752
tp2753
F0.00029859659599880563
s(S'was'
p2754
S'written'
p2755
S'with'
p2756
tp2757
F0.00029859659599880563
s(S'[[det]]'
p2758
g511
g512
tp2759
F0.0005971931919976113
s(S'[[num]]'
p2760
S'written'
p2761
S'[[con]]'
p2762
tp2763
F0.00029859659599880563
s(S'[[num]]'
p2764
S'family'
p2765
S'adventure'
p2766
tp2767
F0.00029859659599880563
s(g914
g915
S'starring'
p2768
tp2769
F0.00029859659599880563
s(g2765
g2766
S'film'
p2770
tp2771
F0.00029859659599880563
s(S'studio'
p2772
g1513
g1491
tp2773
F0.0020901761719916393
s(g2417
g2418
S'directed'
p2774
tp2775
F0.0017915795759928337
s(g635
g636
S'singer'
p2776
tp2777
F0.00029859659599880563
s(S'written'
p2778
g1040
g437
tp2779
F0.020005971931919976
s(S'[[num]]'
p2780
g1117
g1118
tp2781
F0.00029859659599880563
s(S'was'
p2782
S'written'
p2783
S'after'
p2784
tp2785
F0.00029859659599880563
s(S'album'
p2786
S'featuring'
p2787
S'with'
p2788
tp2789
F0.00029859659599880563
s(g1675
g1676
S'music'
p2790
tp2791
F0.005673335323977307
s(g181
g182
S'label'
p2792
tp2793
F0.00029859659599880563
s(S'action'
p2794
S'film'
p2795
S'written'
p2796
tp2797
F0.0005971931919976113
s(g1946
S'directed'
p2798
S'by'
p2799
tp2800
F0.0005971931919976113
s(g2441
g1241
g1242
tp2801
F0.0032845625559868616
s(g198
g889
S'produced'
p2802
tp2803
F0.002388772767990445
s(g50
g51
S'by'
p2804
tp2805
F0.0008957897879964168
s(S'[[det]]'
p2806
g846
g847
tp2807
F0.0005971931919976113
s(S'also'
p2808
S'recorded'
p2809
S'by'
p2810
tp2811
F0.00029859659599880563
s(S'album'
p2812
g2482
g949
tp2813
F0.00029859659599880563
s(S'[[adj]]'
p2814
S'film'
p2815
S'written'
p2816
tp2817
F0.0008957897879964168
s(S'released'
p2818
S'from'
p2819
S'album'
p2820
tp2821
F0.0005971931919976113
s(g454
g455
S'directed'
p2822
tp2823
F0.0005971931919976113
s(g2620
g2621
S'by'
p2824
tp2825
F0.00029859659599880563
s(S'[[con]]'
p2826
S'edited'
p2827
S'by'
p2828
tp2829
F0.00029859659599880563
s(S'album'
p2830
g1829
g1526
tp2831
F0.005673335323977307
s(S'[[num]]'
p2832
g842
g843
tp2833
F0.0008957897879964168
s(S'[[adj]]'
p2834
S'album'
p2835
S'with'
p2836
tp2837
F0.00029859659599880563
s(g2530
g2531
g714
tp2838
F0.00029859659599880563
s(S'[[det]]'
p2839
g1294
g1295
tp2840
F0.0005971931919976113
s(S'[[adj]]'
p2841
S'song'
p2842
S'by'
p2843
tp2844
F0.0005971931919976113
s(g308
g309
g1330
tp2845
F0.00029859659599880563
s(S'[[adj]]'
p2846
S'adventure'
p2847
S'film'
p2848
tp2849
F0.0005971931919976113
s(g495
g2055
g2526
tp2850
F0.0005971931919976113
s(S'[[num]]'
p2851
g1607
g153
tp2852
F0.00029859659599880563
s(g1141
g333
g334
tp2853
F0.00029859659599880563
s(g2198
g2199
S'starring'
p2854
tp2855
F0.00029859659599880563
s(S'crime'
p2856
S'film'
p2857
S'written'
p2858
tp2859
F0.00029859659599880563
s(g852
g903
S'band'
p2860
tp2861
F0.0017915795759928337
s(g402
g403
S'directed'
p2862
tp2863
F0.0011943863839952225
s(S'comedy'
p2864
S'directed'
p2865
S'by'
p2866
tp2867
F0.0005971931919976113
s(g377
g1997
g2345
tp2868
F0.0005971931919976113
s(S'be'
p2869
S'said'
p2870
S'that'
p2871
tp2872
F0.00029859659599880563
s(g580
g581
g1954
tp2873
F0.0017915795759928337
s(S'was'
p2874
S'based'
p2875
S'[[con]]'
p2876
tp2877
F0.00029859659599880563
s(S'[[det]]'
p2878
S'designed'
p2879
S'by'
p2880
tp2881
F0.00029859659599880563
s(g2375
g1229
g1230
tp2882
F0.00029859659599880563
s(S'directed'
p2883
S'starring'
p2884
S'with'
p2885
tp2886
F0.0005971931919976113
s(g35
g802
S'comedy'
p2887
tp2888
F0.00029859659599880563
s(g673
g674
g630
tp2889
F0.00029859659599880563
s(S'produced'
p2890
g2011
g2012
tp2891
F0.00029859659599880563
s(S'coproduced'
p2892
g93
g94
tp2893
F0.00029859659599880563
s(S'[[adj]]'
p2894
g1558
g247
tp2895
F0.00029859659599880563
s(S'[[num]]'
p2896
S'film'
p2897
S'with'
p2898
tp2899
F0.00029859659599880563
s(S'[[adj]]'
p2900
S'written'
p2901
S'[[con]]'
p2902
tp2903
F0.0011943863839952225
s(S'film'
p2904
g2778
g1040
tp2905
F0.015527022991937893
s(S'[[adj]]'
p2906
S'designed'
p2907
S'by'
p2908
tp2909
F0.00029859659599880563
s(S'[[det]]'
p2910
g2649
g2650
tp2911
F0.00029859659599880563
s(g826
g827
S'film'
p2912
tp2913
F0.0005971931919976113
s(S'[[adj]]'
p2914
S'album'
p2915
S'that'
p2916
tp2917
F0.00029859659599880563
s(S'was'
p2918
S'produced'
p2919
S'at'
p2920
tp2921
F0.00029859659599880563
s(S'is'
p2922
S'[[num]]'
p2923
S'mystery'
p2924
tp2925
F0.00029859659599880563
s(S'song'
p2926
S'from'
p2927
S'album'
p2928
tp2929
F0.0005971931919976113
s(g982
g983
S'in'
p2930
tp2931
F0.00029859659599880563
s(S'is'
p2932
S'created'
p2933
S'by'
p2934
tp2935
F0.00029859659599880563
s(S'[[num]]'
p2936
S'song'
p2937
S'recorded'
p2938
tp2939
F0.0005971931919976113
s(S'[[det]]'
p2940
g1712
g1713
tp2941
F0.0005971931919976113
s(g1902
g1903
S'starring'
p2942
tp2943
F0.00029859659599880563
s(g1133
g1134
S'rock'
p2944
tp2945
F0.0011943863839952225
s(S'was'
p2946
S'recorded'
p2947
S'[[con]]'
p2948
tp2949
F0.0008957897879964168
s(S'song'
p2950
S'by'
p2951
S'[[adj]]'
p2952
tp2953
F0.0017915795759928337
s(g2947
g2948
S'was'
p2954
tp2955
F0.00029859659599880563
s(S'[[num]]'
p2956
g1384
g1385
tp2957
F0.0026873693639892504
s(S'aka'
p2958
S'is'
p2959
S'[[num]]'
p2960
tp2961
F0.0005971931919976113
s(S'drama'
p2962
S'film'
p2963
S'written'
p2964
tp2965
F0.002985965959988056
s(S'studio'
p2966
S'album'
p2967
S'[[det]]'
p2968
tp2969
F0.00029859659599880563
s(g1340
g1341
g2069
tp2970
F0.005076142131979695
s(S'is'
p2971
S'[[num]]'
p2972
S'crime'
p2973
tp2974
F0.0005971931919976113
s(S'adventure'
p2975
S'film'
p2976
S'written'
p2977
tp2978
F0.0005971931919976113
s(S'were'
p2979
S'written'
p2980
S'by'
p2981
tp2982
F0.00029859659599880563
s(S'[[num]]'
p2983
S'film'
p2984
S'written'
p2985
tp2986
F0.002388772767990445
s(S'first'
p2987
S'produced'
p2988
S'by'
p2989
tp2990
F0.00029859659599880563
s(g974
g975
S'indie'
p2991
tp2992
F0.00029859659599880563
s(S'also'
p2993
S'released'
p2994
S'in'
p2995
tp2996
F0.00029859659599880563
s(g1341
g2069
g2070
tp2997
F0.001492982979994028
s(S'with'
p2998
S'[[det]]'
p2999
S'script'
p3000
tp3001
F0.00029859659599880563
s(S'album'
p3002
S'by'
p3003
S'singer'
p3004
tp3005
F0.0020901761719916393
s(g1098
g1099
S'film'
p3006
tp3007
F0.00029859659599880563
s(S'song'
p3008
S'by'
p3009
S'alternative'
p3010
tp3011
F0.00029859659599880563
s(S'later'
p3012
S'recorded'
p3013
S'by'
p3014
tp3015
F0.00029859659599880563
s(g1148
g1835
S'by'
p3016
tp3017
F0.00029859659599880563
s(g2938
g2268
g2269
tp3018
F0.00029859659599880563
s(g1418
g1419
S'starring'
p3019
tp3020
F0.014631233203941475
s(S'then'
p3021
S'produced'
p3022
S'at'
p3023
tp3024
F0.00029859659599880563
s(g451
g577
S'from'
p3025
tp3026
F0.00029859659599880563
s(S'metal'
p3027
S'band'
p3028
S'album'
p3029
tp3030
F0.00029859659599880563
s(g304
g305
S'band'
p3031
tp3032
F0.0020901761719916393
s(S'recorded'
p3033
S'[[con]]'
p3034
S'produced'
p3035
tp3036
F0.00029859659599880563
s(S'song'
p3037
g788
g789
tp3038
F0.00029859659599880563
s(S'was'
p3039
S'revealed'
p3040
S'that'
p3041
tp3042
F0.00029859659599880563
s(S'rock'
p3043
S'song'
p3044
S'written'
p3045
tp3046
F0.0005971931919976113
s(S'[[det]]'
p3047
g2734
g2565
tp3048
F0.00029859659599880563
s(S'[[det]]'
p3049
g1046
g1047
tp3050
F0.005076142131979695
s(S'be'
p3051
S'written'
p3052
S'by'
p3053
tp3054
F0.00029859659599880563
s(g2389
g2390
S'starring'
p3055
tp3056
F0.00029859659599880563
s.