(dp0
(S'only'
p1
S'played'
p2
S'twice'
p3
tp4
F0.005681818181818182
s(S'then'
p5
S'played'
p6
S'with'
p7
tp8
F0.005681818181818182
s(S'again'
p9
S'played'
p10
S'against'
p11
tp12
F0.005681818181818182
s(S'who'
p13
S'played'
p14
S'in'
p15
tp16
F0.005681818181818182
s(S'been'
p17
S'playing'
p18
S'for'
p19
tp20
F0.005681818181818182
s(S'when'
p21
S'played'
p22
S'[[det]]'
p23
tp24
F0.005681818181818182
s(S'formerly'
p25
S'played'
p26
S'with'
p27
tp28
F0.005681818181818182
s(S'where'
p29
S'played'
p30
S'in'
p31
tp32
F0.005681818181818182
s(S'[[adj]]'
p33
S'league'
p34
S'appearances'
p35
tp36
F0.005681818181818182
s(S'while'
p37
S'played'
p38
S'for'
p39
tp40
F0.005681818181818182
s(S'also'
p41
S'played'
p42
S'[[con]]'
p43
tp44
F0.005681818181818182
s(S'was'
p45
S'playing'
p46
S'on'
p47
tp48
F0.005681818181818182
s(S'then'
p49
S'played'
p50
S'for'
p51
tp52
F0.005681818181818182
s(S'first'
p53
S'played'
p54
S'at'
p55
tp56
F0.005681818181818182
s(S'[[num]]'
p57
S'played'
p58
S'for'
p59
tp60
F0.005681818181818182
s(S'after'
p61
S'playing'
p62
S'for'
p63
tp64
F0.005681818181818182
s(S'when'
p65
S'played'
p66
S'for'
p67
tp68
F0.005681818181818182
s(S'first'
p69
S'played'
p70
S'in'
p71
tp72
F0.005681818181818182
s(S'had'
p73
S'played'
p74
S'against'
p75
tp76
F0.005681818181818182
s(S'never'
p77
S'played'
p78
S'[[con]]'
p79
tp80
F0.005681818181818182
s(S'was'
p81
S'playing'
p82
S'in'
p83
tp84
F0.005681818181818182
s(S'also'
p85
S'played'
p86
S'against'
p87
tp88
F0.005681818181818182
s(S'[[adj]]'
p89
S'playing'
p90
S'with'
p91
tp92
F0.005681818181818182
s(S'first'
p93
S'played'
p94
S'for'
p95
tp96
F0.005681818181818182
s(S'which'
p97
S'played'
p98
S'[[con]]'
p99
tp100
F0.005681818181818182
s(S'also'
p101
S'played'
p102
S'as'
p103
tp104
F0.005681818181818182
s(S'that'
p105
S'played'
p106
S'in'
p107
tp108
F0.005681818181818182
s(S'has'
p109
S'played'
p110
S'most'
p111
tp112
F0.005681818181818182
s(S'have'
p113
S'played'
p114
S'for'
p115
tp116
F0.005681818181818182
s(S'after'
p117
S'played'
p118
S'with'
p119
tp120
F0.005681818181818182
s(S'was'
p121
S'playing'
p122
S'[[adj]]'
p123
tp124
F0.005681818181818182
s(S'[[con]]'
p125
S'played'
p126
S'together'
p127
tp128
F0.005681818181818182
s(S'[[con]]'
p129
S'played'
p130
S'with'
p131
tp132
F0.005681818181818182
s(S'[[adj]]'
p133
S'playing'
p134
S'in'
p135
tp136
F0.005681818181818182
s(S'[[con]]'
p137
S'played'
p138
S'on'
p139
tp140
F0.005681818181818182
s(S'[[num]]'
p141
S'played'
p142
S'at'
p143
tp144
F0.005681818181818182
s(S'now'
p145
S'playing'
p146
S'in'
p147
tp148
F0.005681818181818182
s(S'also'
p149
S'playing'
p150
S'in'
p151
tp152
F0.005681818181818182
s(S'has'
p153
S'played'
p154
S'to'
p155
tp156
F0.005681818181818182
s(S'also'
p157
S'played'
p158
S'twice'
p159
tp160
F0.005681818181818182
s(S'has'
p161
S'played'
p162
S'for'
p163
tp164
F0.005681818181818182
s(S'later'
p165
S'played'
p166
S'[[con]]'
p167
tp168
F0.005681818181818182
s(S'since'
p169
S'played'
p170
S'with'
p171
tp172
F0.005681818181818182
s(S'then'
p173
S'played'
p174
S'also'
p175
tp176
F0.005681818181818182
s(S'had'
p177
S'played'
p178
S'[[det]]'
p179
tp180
F0.005681818181818182
s(S'[[det]]'
p181
S'playing'
p182
S'for'
p183
tp184
F0.005681818181818182
s(S'before'
p185
S'playing'
p186
S'with'
p187
tp188
F0.005681818181818182
s(S'in'
p189
S'playing'
p190
S'for'
p191
tp192
F0.005681818181818182
s(S'once'
p193
S'played'
p194
S'for'
p195
tp196
F0.005681818181818182
s(S'later'
p197
S'played'
p198
S'twice'
p199
tp200
F0.005681818181818182
s(S'mainly'
p201
S'played'
p202
S'for'
p203
tp204
F0.005681818181818182
s(S'had'
p205
S'played'
p206
S'with'
p207
tp208
F0.005681818181818182
s(S'is'
p209
S'playing'
p210
S'in'
p211
tp212
F0.005681818181818182
s(S'formerly'
p213
S'played'
p214
S'at'
p215
tp216
F0.005681818181818182
s(S'was'
p217
S'playing'
p218
S'with'
p219
tp220
F0.005681818181818182
s(S'who'
p221
S'played'
p222
S'with'
p223
tp224
F0.005681818181818182
s(S'then'
p225
S'played'
p226
S'[[con]]'
p227
tp228
F0.005681818181818182
s(S'first'
p229
S'played'
p230
S'with'
p231
tp232
F0.005681818181818182
s(S'before'
p233
S'playing'
p234
S'[[det]]'
p235
tp236
F0.005681818181818182
s(S'formerly'
p237
S'played'
p238
S'as'
p239
tp240
F0.005681818181818182
s(S'[[num]]'
p241
S'playing'
p242
S'for'
p243
tp244
F0.005681818181818182
s(S'had'
p245
S'played'
p246
S'for'
p247
tp248
F0.005681818181818182
s(S'then'
p249
S'playing'
p250
S'for'
p251
tp252
F0.005681818181818182
s(S'also'
p253
S'played'
p254
S'to'
p255
tp256
F0.005681818181818182
s(S'later'
p257
S'played'
p258
S'with'
p259
tp260
F0.005681818181818182
s(g34
g35
S'for'
p261
tp262
F0.005681818181818182
s(S'also'
p263
S'played'
p264
S'for'
p265
tp266
F0.005681818181818182
s(S'who'
p267
S'played'
p268
S'for'
p269
tp270
F0.005681818181818182
s(S'never'
p271
S'played'
p272
S'[[det]]'
p273
tp274
F0.005681818181818182
s(S'was'
p275
S'playing'
p276
S'against'
p277
tp278
F0.005681818181818182
s(S'[[adj]]'
p279
S'pitcher'
p280
S'who'
p281
tp282
F0.005681818181818182
s(S'only'
p283
S'played'
p284
S'with'
p285
tp286
F0.005681818181818182
s(S'been'
p287
S'playing'
p288
S'in'
p289
tp290
F0.005681818181818182
s(S'[[mod]]'
p291
S'split'
p292
g33
tp293
F0.005681818181818182
s(S'later'
p294
S'played'
p295
S'against'
p296
tp297
F0.005681818181818182
s(S'currently'
p298
S'playing'
p299
S'in'
p300
tp301
F0.005681818181818182
s(S'formerly'
p302
S'played'
p303
S'[[con]]'
p304
tp305
F0.005681818181818182
s(S'also'
p306
S'playing'
p307
S'with'
p308
tp309
F0.005681818181818182
s(S'has'
p310
S'played'
p311
S'with'
p312
tp313
F0.005681818181818182
s(S'formerly'
p314
S'played'
p315
S'for'
p316
tp317
F0.005681818181818182
s(S'currently'
p318
S'playing'
p319
S'with'
p320
tp321
F0.005681818181818182
s(S'only'
p322
S'played'
p323
S'against'
p324
tp325
F0.005681818181818182
s(S'where'
p326
S'played'
p327
S'against'
p328
tp329
F0.005681818181818182
s(S'then'
p330
S'played'
p331
S'against'
p332
tp333
F0.005681818181818182
s(S'after'
p334
S'playing'
p335
S'at'
p336
tp337
F0.005681818181818182
s(S'had'
p338
S'played'
p339
S'[[con]]'
p340
tp341
F0.005681818181818182
s(g292
g33
g34
tp342
F0.005681818181818182
s(S'is'
p343
S'playing'
p344
S'for'
p345
tp346
F0.005681818181818182
s(S'also'
p347
S'played'
p348
S'over'
p349
tp350
F0.005681818181818182
s(S'since'
p351
S'played'
p352
S'for'
p353
tp354
F0.005681818181818182
s(S'while'
p355
S'playing'
p356
S'for'
p357
tp358
F0.005681818181818182
s(g281
S'began'
p359
S'as'
p360
tp361
F0.005681818181818182
s(S'on'
p362
S'playing'
p363
S'for'
p364
tp365
F0.005681818181818182
s(S'later'
p366
S'played'
p367
S'[[det]]'
p368
tp369
F0.005681818181818182
s(S'was'
p370
S'playing'
p371
S'as'
p372
tp373
F0.005681818181818182
s(S'award'
p374
S'[[num]]'
p375
S'times'
p376
tp377
F0.005681818181818182
s(S'while'
p378
S'playing'
p379
S'with'
p380
tp381
F0.005681818181818182
s(S'ever'
p382
S'played'
p383
S'for'
p384
tp385
F0.005681818181818182
s(S'also'
p386
S'playing'
p387
S'for'
p388
tp389
F0.005681818181818182
s(S'has'
p390
S'played'
p391
S'[[det]]'
p392
tp393
F0.005681818181818182
s(S'from'
p394
S'playing'
p395
S'in'
p396
tp397
F0.005681818181818182
s(S'also'
p398
S'played'
p399
S'of'
p400
tp401
F0.005681818181818182
s(S'be'
p402
S'playing'
p403
S'for'
p404
tp405
F0.005681818181818182
s(S'[[adj]]'
p406
S'played'
p407
S'on'
p408
tp409
F0.005681818181818182
s(S'has'
p410
S'played'
p411
S'[[num]]'
p412
tp413
F0.005681818181818182
s(S'to'
p414
S'played'
p415
S'for'
p416
tp417
F0.005681818181818182
s(S'back'
p418
S'playing'
p419
S'for'
p420
tp421
F0.005681818181818182
s(S'has'
p422
S'played'
p423
S'[[con]]'
p424
tp425
F0.005681818181818182
s(S'also'
p426
S'played'
p427
S'from'
p428
tp429
F0.005681818181818182
s(S'later'
p430
S'played'
p431
S'for'
p432
tp433
F0.005681818181818182
s(S'currently'
p434
S'playing'
p435
S'for'
p436
tp437
F0.005681818181818182
s(S'already'
p438
S'played'
p439
S'for'
p440
tp441
F0.005681818181818182
s(S'[[det]]'
p442
g374
g375
tp443
F0.005681818181818182
s(S'[[pro]]'
p444
S'played'
p445
S'together'
p446
tp447
F0.005681818181818182
s(S'[[con]]'
p448
S'played'
p449
S'twice'
p450
tp451
F0.005681818181818182
s(S'only'
p452
S'played'
p453
S'in'
p454
tp455
F0.005681818181818182
s(S'back'
p456
S'playing'
p457
S'[[det]]'
p458
tp459
F0.005681818181818182
s(S'then'
p460
S'playing'
p461
S'in'
p462
tp463
F0.005681818181818182
s(S'up'
p464
S'playing'
p465
S'for'
p466
tp467
F0.005681818181818182
s(S'only'
p468
S'played'
p469
S'for'
p470
tp471
F0.005681818181818182
s(S'where'
p472
S'played'
p473
S'for'
p474
tp475
F0.005681818181818182
s(S'had'
p476
S'played'
p477
S'in'
p478
tp479
F0.005681818181818182
s(S'then'
p480
S'played'
p481
S'in'
p482
tp483
F0.005681818181818182
s(S'before'
p484
S'playing'
p485
S'for'
p486
tp487
F0.005681818181818182
s(S'had'
p488
S'played'
p489
S'at'
p490
tp491
F0.005681818181818182
s(S'[[adj]]'
p492
S'played'
p493
S'for'
p494
tp495
F0.005681818181818182
s(S'where'
p496
S'played'
p497
S'[[con]]'
p498
tp499
F0.005681818181818182
s(S'also'
p500
S'played'
p501
S'with'
p502
tp503
F0.005681818181818182
s(S'then'
p504
S'played'
p505
S'at'
p506
tp507
F0.005681818181818182
s(S'still'
p508
S'playing'
p509
S'for'
p510
tp511
F0.005681818181818182
s(S'not'
p512
S'played'
p513
S'in'
p514
tp515
F0.005681818181818182
s(S'first'
p516
S'played'
p517
S'against'
p518
tp519
F0.005681818181818182
s(S'was'
p520
S'playing'
p521
S'for'
p522
tp523
F0.005681818181818182
s(S'has'
p524
S'played'
p525
S'[[adj]]'
p526
tp527
F0.005681818181818182
s(g375
g376
S'[[det]]'
p528
tp529
F0.005681818181818182
s(S'by'
p530
S'playing'
p531
S'for'
p532
tp533
F0.005681818181818182
s(S'[[det]]'
p534
S'played'
p535
S'for'
p536
tp537
F0.005681818181818182
s(g280
g281
g359
tp538
F0.005681818181818182
s(S'also'
p539
S'played'
p540
S'where'
p541
tp542
F0.005681818181818182
s(S'mainly'
p543
S'played'
p544
S'with'
p545
tp546
F0.005681818181818182
s(S'[[pro]]'
p547
S'playing'
p548
S'for'
p549
tp550
F0.005681818181818182
s(S'formerly'
p551
S'played'
p552
S'in'
p553
tp554
F0.005681818181818182
s(S'[[adj]]'
p555
S'played'
p556
S'in'
p557
tp558
F0.005681818181818182
s(S'also'
p559
S'played'
p560
S'in'
p561
tp562
F0.005681818181818182
s(S'was'
p563
S'played'
p564
S'for'
p565
tp566
F0.005681818181818182
s(S'later'
p567
S'played'
p568
S'at'
p569
tp570
F0.005681818181818182
s(S'once'
p571
S'played'
p572
S'with'
p573
tp574
F0.005681818181818182
s(S'also'
p575
S'played'
p576
S'before'
p577
tp578
F0.005681818181818182
s(S'have'
p579
S'played'
p580
S'in'
p581
tp582
F0.005681818181818182
s(S'[[adj]]'
p583
S'playing'
p584
S'for'
p585
tp586
F0.005681818181818182
s(S'later'
p587
S'played'
p588
S'in'
p589
tp590
F0.005681818181818182
s(S'when'
p591
S'played'
p592
S'against'
p593
tp594
F0.005681818181818182
s(S'already'
p595
S'played'
p596
S'in'
p597
tp598
F0.005681818181818182
s(S'never'
p599
S'played'
p600
S'in'
p601
tp602
F0.005681818181818182
s(S'also'
p603
S'played'
p604
S'[[num]]'
p605
tp606
F0.005681818181818182
s(S'now'
p607
S'playing'
p608
S'for'
p609
tp610
F0.005681818181818182
s(S'with'
p611
S'played'
p612
S'for'
p613
tp614
F0.005681818181818182
s(S'never'
p615
S'played'
p616
S'with'
p617
tp618
F0.005681818181818182
s(S'never'
p619
S'played'
p620
S'for'
p621
tp622
F0.005681818181818182
s(S'also'
p623
S'played'
p624
S'once'
p625
tp626
F0.005681818181818182
s(S'[[adj]]'
p627
S'played'
p628
S'with'
p629
tp630
F0.005681818181818182
s(S'[[adj]]'
p631
S'played'
p632
S'against'
p633
tp634
F0.005681818181818182
s(S'has'
p635
S'played'
p636
S'mainly'
p637
tp638
F0.005681818181818182
s(S'[[con]]'
p639
S'played'
p640
S'for'
p641
tp642
F0.005681818181818182
s(S'been'
p643
S'playing'
p644
S'with'
p645
tp646
F0.005681818181818182
s(S'won'
p647
g442
g374
tp648
F0.005681818181818182
s(S'not'
p649
S'played'
p650
S'for'
p651
tp652
F0.005681818181818182
s(S'then'
p653
S'played'
p654
S'[[det]]'
p655
tp656
F0.005681818181818182
s(S'[[adj]]'
p657
S'played'
p658
S'as'
p659
tp660
F0.005681818181818182
s(S'has'
p661
S'played'
p662
S'at'
p663
tp664
F0.005681818181818182
s(S'when'
p665
S'playing'
p666
S'for'
p667
tp668
F0.005681818181818182
s(S'then'
p669
S'played'
p670
S'then'
p671
tp672
F0.005681818181818182
s(S'have'
p673
S'played'
p674
S'[[det]]'
p675
tp676
F0.005681818181818182
s(S'[[con]]'
p677
S'played'
p678
S'against'
p679
tp680
F0.005681818181818182
s(S'has'
p681
S'played'
p682
S'in'
p683
tp684
F0.005681818181818182
s(S'again'
p685
S'played'
p686
S'for'
p687
tp688
F0.005681818181818182
s.