(dp0
(S'[[num]]'
p1
S'branches'
p2
S'in'
p3
tp4
F0.012048192771084338
s(S'currently'
p5
S'operates'
p6
S'[[det]]'
p7
tp8
F0.012048192771084338
s(S'with'
p9
S'offices'
p10
S'in'
p11
tp12
F0.012048192771084338
s(S'also'
p13
S'operates'
p14
S'from'
p15
tp16
F0.012048192771084338
s(S'was'
p17
S'founded'
p18
S'in'
p19
tp20
F0.012048192771084338
s(S'has'
p21
S'branches'
p22
S'in'
p23
tp24
F0.012048192771084338
s(S's'
p25
S'operations'
p26
S'in'
p27
tp28
F0.012048192771084338
s(S'offers'
p29
S'[[adj]]'
p30
S'services'
p31
tp32
F0.024096385542168676
s(S'is'
p33
S'founded'
p34
S'in'
p35
tp36
F0.012048192771084338
s(S'[[adj]]'
p37
S'member'
p38
S'society'
p39
tp40
F0.012048192771084338
s(S'[[adj]]'
p41
S'founded'
p42
S'in'
p43
tp44
F0.012048192771084338
s(S'in'
p45
S'countries'
p46
S'including'
p47
tp48
F0.012048192771084338
s(S'been'
p49
S'operating'
p50
S'in'
p51
tp52
F0.012048192771084338
s(S'operates'
p53
S'in'
p54
S'[[num]]'
p55
tp56
F0.012048192771084338
s(S'also'
p57
S'expanded'
p58
S'to'
p59
tp60
F0.012048192771084338
s(S'[[adj]]'
p61
S'expanded'
p62
S'in'
p63
tp64
F0.012048192771084338
s(S'[[adj]]'
p65
S'operating'
p66
S'in'
p67
tp68
F0.012048192771084338
s(S'[[det]]'
p69
S'largest'
p70
S'[[adj]]'
p71
tp72
F0.024096385542168676
s(S'[[num]]'
p73
S'stores'
p74
S'in'
p75
tp76
F0.012048192771084338
s(S'operates'
p77
g45
g46
tp78
F0.012048192771084338
s(S'[[det]]'
p79
S'largest'
p80
S'[[con]]'
p81
tp82
F0.012048192771084338
s(S'also'
p83
S'operates'
p84
S'in'
p85
tp86
F0.012048192771084338
s(S'[[det]]'
p87
S'largest'
p88
S'company'
p89
tp90
F0.012048192771084338
s(S'now'
p91
S'operates'
p92
S'in'
p93
tp94
F0.012048192771084338
s(g54
g55
S'countries'
p95
tp96
F0.012048192771084338
s(S'has'
p97
S'offices'
p98
S'[[det]]'
p99
tp100
F0.012048192771084338
s(S'for'
p101
S'operations'
p102
S'in'
p103
tp104
F0.012048192771084338
s(S'is'
p105
S'headquartered'
p106
S'with'
p107
tp108
F0.012048192771084338
s(S'[[det]]'
p109
S'largest'
p110
S'of'
p111
tp112
F0.012048192771084338
s(S'[[adj]]'
p113
S'body'
p114
S'for'
p115
tp116
F0.012048192771084338
s(S'[[prp]]'
p117
S'presence'
p118
S'in'
p119
tp120
F0.012048192771084338
s(S'also'
p121
S'operates'
p122
S'with'
p123
tp124
F0.012048192771084338
s(S'has'
p125
S'expanded'
p126
S'to'
p127
tp128
F0.012048192771084338
s(S'has'
p129
S'expanded'
p130
S'into'
p131
tp132
F0.012048192771084338
s(S'currently'
p133
S'operates'
p134
S'in'
p135
tp136
F0.012048192771084338
s(S'[[adj]]'
p137
S'primarily'
p138
S'in'
p139
tp140
F0.012048192771084338
s(S'[[adj]]'
p141
S'body'
p142
S'in'
p143
tp144
F0.012048192771084338
s(S'had'
p145
S'expanded'
p146
S'to'
p147
tp148
F0.012048192771084338
s(S'[[det]]'
p149
S'founded'
p150
S'in'
p151
tp152
F0.012048192771084338
s(g30
g31
S'to'
p153
tp154
F0.012048192771084338
s(S'[[adj]]'
p155
S'body'
p156
S'[[det]]'
p157
tp158
F0.012048192771084338
s(S'[[adj]]'
p159
S'organization'
p160
S'for'
p161
tp162
F0.012048192771084338
s(S'had'
p163
S'offices'
p164
S'in'
p165
tp166
F0.012048192771084338
s(g160
g161
S'[[adj]]'
p167
tp168
F0.012048192771084338
s(S'[[num]]'
p169
S'offices'
p170
S'in'
p171
tp172
F0.012048192771084338
s(S'[[det]]'
p173
S'agency'
p174
S'[[det]]'
p175
tp176
F0.012048192771084338
s(S'now'
p177
S'operates'
p178
S'as'
p179
tp180
F0.012048192771084338
s(S'[[adj]]'
p181
S'agency'
p182
S'of'
p183
tp184
F0.012048192771084338
s(S'also'
p185
S'expanded'
p186
S'[[prp]]'
p187
tp188
F0.012048192771084338
s(S'largest'
p189
S'[[adj]]'
p190
S'company'
p191
tp192
F0.012048192771084338
s(S'[[con]]'
p193
S'offices'
p194
S'in'
p195
tp196
F0.012048192771084338
s(S'has'
p197
S'branches'
p198
S'[[con]]'
p199
tp200
F0.012048192771084338
s(S'has'
p201
S'offices'
p202
S'[[con]]'
p203
tp204
F0.012048192771084338
s(S'currently'
p205
S'operates'
p206
S'as'
p207
tp208
F0.012048192771084338
s(S'was'
p209
S'founded'
p210
S'on'
p211
tp212
F0.012048192771084338
s(S'currently'
p213
S'headquartered'
p214
S'in'
p215
tp216
F0.012048192771084338
s(S'[[adj]]'
p217
S'agency'
p218
S'[[det]]'
p219
tp220
F0.012048192771084338
s(S'has'
p221
S'offices'
p222
S'in'
p223
tp224
F0.012048192771084338
s(S'[[det]]'
p225
S'largest'
p226
S'in'
p227
tp228
F0.012048192771084338
s(S'has'
p229
S'expanded'
p230
S'[[prp]]'
p231
tp232
F0.012048192771084338
s(S'[[num]]'
p233
S'operating'
p234
S'in'
p235
tp236
F0.012048192771084338
s(g55
g95
S'including'
p237
tp238
F0.012048192771084338
s(g190
g191
S'in'
p239
tp240
F0.012048192771084338
s(S'was'
p241
S'founded'
p242
S'from'
p243
tp244
F0.012048192771084338
s(S'is'
p245
S'headquartered'
p246
S'[[con]]'
p247
tp248
F0.012048192771084338
s(S'[[adj]]'
p249
S'subsidiaries'
p250
S'in'
p251
tp252
F0.012048192771084338
s(S'[[adj]]'
p253
S'branches'
p254
S'in'
p255
tp256
F0.012048192771084338
s(S'also'
p257
S'operates'
p258
S'[[num]]'
p259
tp260
F0.012048192771084338
s(S'[[num]]'
p261
S'stores'
p262
S'[[con]]'
p263
tp264
F0.012048192771084338
s(S'was'
p265
S'founded'
p266
S'[[num]]'
p267
tp268
F0.012048192771084338
s(S'[[adj]]'
p269
S'services'
p270
S'from'
p271
tp272
F0.012048192771084338
s(S'[[adj]]'
p273
S'operations'
p274
S'in'
p275
tp276
F0.012048192771084338
s(S'has'
p277
S'offices'
p278
S'throughout'
p279
tp280
F0.012048192771084338
s(S'[[adj]]'
p281
S'largest'
p282
S'[[adj]]'
p283
tp284
F0.012048192771084338
s(S'[[adj]]'
p285
S'offices'
p286
S'in'
p287
tp288
F0.012048192771084338
s(S'is'
p289
S'headquartered'
p290
S'in'
p291
tp292
F0.012048192771084338
s(S'with'
p293
S'branches'
p294
S'in'
p295
tp296
F0.012048192771084338
s(g88
g89
S'in'
p297
tp298
F0.012048192771084338
s(S'has'
p299
S'operations'
p300
S'in'
p301
tp302
F0.012048192771084338
s(g161
g167
S'radio'
p303
tp304
F0.012048192771084338
s(S'[[prp]]'
p305
S'offices'
p306
S'in'
p307
tp308
F0.012048192771084338
s.