(dp0
(S'[[con]]'
p1
S'is'
p2
S'married'
p3
tp4
F0.001095290251916758
s(S'[[prp]]'
p5
S'son'
p6
S'who'
p7
tp8
F0.001095290251916758
s(S'[[con]]'
p9
S'served'
p10
S'with'
p11
tp12
F0.001095290251916758
s(S'is'
p13
S'[[det]]'
p14
S'son'
p15
tp16
F0.001095290251916758
s(S's'
p17
S'mistress'
p18
S'[[con]]'
p19
tp20
F0.001095290251916758
s(S'de'
p21
S'daughter'
p22
S'[[con]]'
p23
tp24
F0.001095290251916758
s(S'older'
p25
S'brother'
p26
S'to'
p27
tp28
F0.001095290251916758
s(S'married'
p29
S'[[num]]'
p30
S'daughter'
p31
tp32
F0.0032858707557502738
s(S'later'
p33
S'named'
p34
S'[[con]]'
p35
tp36
F0.001095290251916758
s(S'[[pro]]'
p37
S'son'
p38
S'of'
p39
tp40
F0.001095290251916758
s(S'born'
p41
S'[[con]]'
p42
S'[[prp]]'
p43
tp44
F0.001095290251916758
s(S'[[num]]'
p45
S'[[adj]]'
p46
S'daughter'
p47
tp48
F0.001095290251916758
s(S'to'
p49
S'join'
p50
S'up'
p51
tp52
F0.001095290251916758
s(S'[[det]]'
p53
S'granddaughter'
p54
S'of'
p55
tp56
F0.001095290251916758
s(S'older'
p57
S'brother'
p58
S'of'
p59
tp60
F0.001095290251916758
s(S'who'
p61
S'served'
p62
S'as'
p63
tp64
F0.001095290251916758
s(S'[[adj]]'
p65
S'sister'
p66
S'who'
p67
tp68
F0.001095290251916758
s(S'[[det]]'
p69
S'son'
p70
S'with'
p71
tp72
F0.001095290251916758
s(S'[[det]]'
p73
S'father'
p74
S'[[det]]'
p75
tp76
F0.001095290251916758
s(S'[[prp]]'
p77
S'nephew'
p78
S'[[con]]'
p79
tp80
F0.001095290251916758
s(S'is'
p81
S'son'
p82
S'of'
p83
tp84
F0.001095290251916758
s(g17
S'cousin'
p85
S'[[num]]'
p86
tp87
F0.001095290251916758
s(S'born'
p88
S'in'
p89
S'son'
p90
tp91
F0.001095290251916758
s(S'[[adj]]'
p92
S'sister'
p93
S'of'
p94
tp95
F0.001095290251916758
s(S'[[adj]]'
p96
S'brother'
p97
S'in'
p98
tp99
F0.001095290251916758
s(S'[[con]]'
p100
S'served'
p101
S'[[num]]'
p102
tp103
F0.001095290251916758
s(S'born'
p104
S'on'
p105
S'[[adj]]'
p106
tp107
F0.001095290251916758
s(S'at'
p108
S'[[det]]'
p109
S'son'
p110
tp111
F0.001095290251916758
s(S'married'
p112
g45
g46
tp113
F0.001095290251916758
s(S'[[num]]'
p114
S'older'
p115
S'siblings'
p116
tp117
F0.002190580503833516
s(g17
S'brother'
p118
S'of'
p119
tp120
F0.001095290251916758
s(S'[[det]]'
p121
S'brother'
p122
S'of'
p123
tp124
F0.008762322015334063
s(S'with'
p125
S'younger'
p126
S'brother'
p127
tp128
F0.001095290251916758
s(S'have'
p129
S'served'
p130
S'with'
p131
tp132
F0.001095290251916758
s(g17
S'mother'
p133
S'that'
p134
tp135
F0.001095290251916758
s(g17
S'brother'
p136
S'who'
p137
tp138
F0.001095290251916758
s(g17
S'older'
p139
S'brother'
p140
tp141
F0.0032858707557502738
s(S'born'
p142
g13
g14
tp143
F0.001095290251916758
s(S'had'
p144
S'married'
p145
S'in'
p146
tp147
F0.001095290251916758
s(g17
S'cousin'
p148
S'[[det]]'
p149
tp150
F0.001095290251916758
s(S'son'
p151
S'who'
p152
S'[[det]]'
p153
tp154
F0.001095290251916758
s(S'was'
p155
S'named'
p156
S'while'
p157
tp158
F0.001095290251916758
s(S'[[prp]]'
p159
S'son'
p160
S'by'
p161
tp162
F0.001095290251916758
s(S'has'
p163
S'served'
p164
S'[[con]]'
p165
tp166
F0.001095290251916758
s(S'married'
p167
S'[[det]]'
p168
S'daughter'
p169
tp170
F0.007667031763417305
s(S'while'
p171
S'served'
p172
S'as'
p173
tp174
F0.001095290251916758
s(S'younger'
p175
S'brothers'
p176
S'[[con]]'
p177
tp178
F0.002190580503833516
s(S'[[adj]]'
p179
S'named'
p180
S'after'
p181
tp182
F0.001095290251916758
s(S'first'
p183
S'served'
p184
S'as'
p185
tp186
F0.001095290251916758
s(S'[[prp]]'
p187
S'family'
p188
S'[[con]]'
p189
tp190
F0.001095290251916758
s(S'also'
p191
S'named'
p192
S'for'
p193
tp194
F0.001095290251916758
s(S'be'
p195
S'named'
p196
S'by'
p197
tp198
F0.001095290251916758
s(S'[[num]]'
p199
S'brothers'
p200
S'[[con]]'
p201
tp202
F0.001095290251916758
s(g17
S'younger'
p203
S'brother'
p204
tp205
F0.0032858707557502738
s(S'was'
p206
S'born'
p207
S'at'
p208
tp209
F0.0032858707557502738
s(S'[[det]]'
p210
S'brother'
p211
S'[[det]]'
p212
tp213
F0.0032858707557502738
s(S'later'
p214
S'named'
p215
S'[[pro]]'
p216
tp217
F0.001095290251916758
s(S'married'
p218
S'with'
p219
S'[[num]]'
p220
tp221
F0.001095290251916758
s(S'[[det]]'
p222
S'uncle'
p223
S'[[det]]'
p224
tp225
F0.001095290251916758
s(S'[[det]]'
p226
S'cousin'
p227
S'who'
p228
tp229
F0.001095290251916758
s(S'later'
p230
S'married'
p231
S'daughter'
p232
tp233
F0.002190580503833516
s(S'[[det]]'
p234
S'son'
p235
S'to'
p236
tp237
F0.001095290251916758
s(S'married'
p238
S'again'
p239
S'to'
p240
tp241
F0.001095290251916758
s(S'[[det]]'
p242
S'cousin'
p243
S'of'
p244
tp245
F0.0032858707557502738
s(S'[[adj]]'
p246
S'granddaughter'
p247
S'of'
p248
tp249
F0.001095290251916758
s(S'first'
p250
S'daughter'
p251
S'of'
p252
tp253
F0.001095290251916758
s(S'[[det]]'
p254
S'son'
p255
S'became'
p256
tp257
F0.001095290251916758
s(S'[[adj]]'
p258
S'son'
p259
S'in'
p260
tp261
F0.001095290251916758
s(S'born'
p262
S'[[det]]'
p263
S'son'
p264
tp265
F0.001095290251916758
s(S'is'
p266
S'brother'
p267
S'of'
p268
tp269
F0.001095290251916758
s(S'of'
p270
S'born'
p271
S'[[num]]'
p272
tp273
F0.001095290251916758
s(S'has'
p274
S'served'
p275
S'under'
p276
tp277
F0.001095290251916758
s(S'[[det]]'
p278
S'father'
p279
S'when'
p280
tp281
F0.001095290251916758
s(S'[[adj]]'
p282
S'father'
p283
S'in'
p284
tp285
F0.001095290251916758
s(S'is'
p286
S'brother'
p287
S'to'
p288
tp289
F0.001095290251916758
s(S'also'
p290
S'named'
p291
S'along'
p292
tp293
F0.001095290251916758
s(g17
S'brother'
p294
S'[[num]]'
p295
tp296
F0.001095290251916758
s(S'[[det]]'
p297
S'cousin'
p298
S'[[con]]'
p299
tp300
F0.002190580503833516
s(S'[[prp]]'
p301
S'cousin'
p302
S'[[con]]'
p303
tp304
F0.001095290251916758
s(S'[[det]]'
p305
S'child'
p306
S'[[con]]'
p307
tp308
F0.001095290251916758
s(g17
S'sister'
p309
S'[[adj]]'
p310
tp311
F0.001095290251916758
s(S'born'
p312
S'in'
p313
S'[[adj]]'
p314
tp315
F0.002190580503833516
s(S'[[con]]'
p316
S'served'
p317
S'to'
p318
tp319
F0.001095290251916758
s(S'married'
p320
S'd'
p321
S'[[det]]'
p322
tp323
F0.001095290251916758
s(S'[[det]]'
p324
S'son'
p325
S'was'
p326
tp327
F0.001095290251916758
s(S'[[det]]'
p328
S'sister'
p329
S'[[con]]'
p330
tp331
F0.001095290251916758
s(S'[[pro]]'
p332
S'[[num]]'
p333
S'daughter'
p334
tp335
F0.001095290251916758
s(S'then'
p336
S'served'
p337
S'before'
p338
tp339
F0.001095290251916758
s(S'cousin'
p340
S'[[con]]'
p341
S'[[det]]'
p342
tp343
F0.001095290251916758
s(g17
S'son'
p344
S'as'
p345
tp346
F0.001095290251916758
s(S'brother'
p347
S'[[con]]'
p348
S'[[det]]'
p349
tp350
F0.002190580503833516
s(S'[[pro]]'
p351
S'son'
p352
S'as'
p353
tp354
F0.001095290251916758
s(S'younger'
p355
S'brother'
p356
S'[[pro]]'
p357
tp358
F0.001095290251916758
s(S'in'
p359
S'[[num]]'
p360
S'son'
p361
tp362
F0.001095290251916758
s(S'[[prp]]'
p363
S'son'
p364
S'is'
p365
tp366
F0.001095290251916758
s(S'[[det]]'
p367
S'son'
p368
S'of'
p369
tp370
F0.02190580503833516
s(S'has'
p371
S'served'
p372
S'twice'
p373
tp374
F0.001095290251916758
s(S'[[con]]'
p375
S'served'
p376
S'when'
p377
tp378
F0.001095290251916758
s(S'[[prp]]'
p379
S'older'
p380
S'brother'
p381
tp382
F0.002190580503833516
s(S'born'
p383
g359
g360
tp384
F0.001095290251916758
s(g321
S'[[num]]'
p385
S'daughter'
p386
tp387
F0.001095290251916758
s(g105
g106
S'son'
p388
tp389
F0.001095290251916758
s(S'also'
p390
S'served'
p391
S'as'
p392
tp393
F0.001095290251916758
s(S'was'
p394
S'named'
p395
S'when'
p396
tp397
F0.001095290251916758
s(S'[[con]]'
p398
S'daughter'
p399
S'of'
p400
tp401
F0.001095290251916758
s(g17
S'brothers'
p402
S'[[con]]'
p403
tp404
F0.001095290251916758
s(g207
g208
S'son'
p405
tp406
F0.001095290251916758
s(S'[[adj]]'
p407
S'cousin'
p408
S'of'
p409
tp410
F0.004381161007667032
s(g17
S'brother'
p411
S'[[pro]]'
p412
tp413
F0.001095290251916758
s(g17
S'uncle'
p414
S'[[det]]'
p415
tp416
F0.001095290251916758
s(S'[[con]]'
p417
S'younger'
p418
S'brother'
p419
tp420
F0.001095290251916758
s(S'born'
p421
S'was'
p422
S'[[det]]'
p423
tp424
F0.001095290251916758
s(S'to'
p425
S'join'
p426
S'after'
p427
tp428
F0.001095290251916758
s(g208
g405
S'of'
p429
tp430
F0.001095290251916758
s(S'older'
p431
S'brother'
p432
S'[[con]]'
p433
tp434
F0.0032858707557502738
s(S'married'
p435
S'secondly'
p436
S'[[det]]'
p437
tp438
F0.001095290251916758
s(S'elder'
p439
S'brother'
p440
S'[[con]]'
p441
tp442
F0.002190580503833516
s(S'[[num]]'
p443
S'son'
p444
S'who'
p445
tp446
F0.001095290251916758
s(S'whose'
p447
S'father'
p448
S'was'
p449
tp450
F0.001095290251916758
s(S'who'
p451
S'served'
p452
S'under'
p453
tp454
F0.001095290251916758
s(g17
S'son'
p455
S'[[pro]]'
p456
tp457
F0.001095290251916758
s(S'to'
p458
S'[[det]]'
p459
S'daughter'
p460
tp461
F0.004381161007667032
s(S'then'
p462
S'served'
p463
S'to'
p464
tp465
F0.001095290251916758
s(S'[[adj]]'
p466
S'sister'
p467
S'to'
p468
tp469
F0.001095290251916758
s(g17
S'named'
p470
S'for'
p471
tp472
F0.001095290251916758
s(S'[[adj]]'
p473
S'father'
p474
S'[[con]]'
p475
tp476
F0.001095290251916758
s(S'also'
p477
S'served'
p478
S'twice'
p479
tp480
F0.001095290251916758
s(S'born'
p481
S'[[num]]'
p482
S'born'
p483
tp484
F0.001095290251916758
s(S'[[det]]'
p485
S'nephew'
p486
S'[[con]]'
p487
tp488
F0.00547645125958379
s(S'[[det]]'
p489
S'brotherinlaw'
p490
S'[[con]]'
p491
tp492
F0.001095290251916758
s(S'son'
p493
S'of'
p494
S'[[prp]]'
p495
tp496
F0.001095290251916758
s(S'where'
p497
S'served'
p498
S'to'
p499
tp500
F0.001095290251916758
s(S'was'
p501
S'son'
p502
S'to'
p503
tp504
F0.001095290251916758
s(g17
S'son'
p505
S'whom'
p506
tp507
F0.001095290251916758
s(S'[[det]]'
p508
S'mother'
p509
S'[[det]]'
p510
tp511
F0.001095290251916758
s(S'married'
p512
S'to'
p513
S'[[adj]]'
p514
tp515
F0.002190580503833516
s(S'[[det]]'
p516
S'grandson'
p517
S'[[det]]'
p518
tp519
F0.001095290251916758
s(S'to'
p520
S'join'
p521
S'as'
p522
tp523
F0.001095290251916758
s(S'married'
p524
S'in'
p525
S'[[det]]'
p526
tp527
F0.001095290251916758
s(g459
g460
S'of'
p528
tp529
F0.012048192771084338
s(S'in'
p530
S'[[det]]'
p531
S'son'
p532
tp533
F0.0065717415115005475
s(S'son'
p534
S'[[con]]'
p535
S'[[det]]'
p536
tp537
F0.0065717415115005475
s(S'[[adj]]'
p538
S'brothers'
p539
S'[[con]]'
p540
tp541
F0.001095290251916758
s(S'[[adj]]'
p542
S'uncle'
p543
S'of'
p544
tp545
F0.001095290251916758
s(S'brother'
p546
g417
g418
tp547
F0.001095290251916758
s(S'is'
p548
S'named'
p549
S'with'
p550
tp551
F0.001095290251916758
s(S'again'
p552
S'served'
p553
S'under'
p554
tp555
F0.001095290251916758
s(S'[[adj]]'
p556
S'sister'
p557
S'[[con]]'
p558
tp559
F0.001095290251916758
s(S'brother'
p560
S'[[det]]'
p561
S'son'
p562
tp563
F0.001095290251916758
s(S'later'
p564
S'served'
p565
S'from'
p566
tp567
F0.001095290251916758
s(S'was'
p568
S'born'
p569
S'[[det]]'
p570
tp571
F0.002190580503833516
s(S'[[adj]]'
p572
S'son'
p573
S'born'
p574
tp575
F0.001095290251916758
s(S'near'
p576
S'[[det]]'
p577
S'son'
p578
tp579
F0.001095290251916758
s(g42
g43
S'brother'
p580
tp581
F0.001095290251916758
s(S'[[prp]]'
p582
S'son'
p583
S'to'
p584
tp585
F0.001095290251916758
s(g573
g574
S'to'
p586
tp587
F0.001095290251916758
s(S'married'
p588
S'de'
p589
S'daughter'
p590
tp591
F0.0032858707557502738
s(g17
S'son'
p592
S'[[det]]'
p593
tp594
F0.001095290251916758
s(g313
g314
S'son'
p595
tp596
F0.002190580503833516
s(S'also'
p597
S'served'
p598
S'under'
p599
tp600
F0.001095290251916758
s(S'[[num]]'
p601
S'son'
p602
S'born'
p603
tp604
F0.001095290251916758
s(g17
S'daughter'
p605
S'who'
p606
tp607
F0.001095290251916758
s(S'[[prp]]'
p608
S'brother'
p609
S'[[det]]'
p610
tp611
F0.001095290251916758
s(S'[[det]]'
p612
S'mistress'
p613
S'of'
p614
tp615
F0.001095290251916758
s(S'[[adj]]'
p616
S'child'
p617
S'to'
p618
tp619
F0.001095290251916758
s(S'was'
p620
S'served'
p621
S'as'
p622
tp623
F0.001095290251916758
s(S'secondly'
p624
S'daughter'
p625
S'of'
p626
tp627
F0.001095290251916758
s(S'[[prp]]'
p628
S'son'
p629
S'[[num]]'
p630
tp631
F0.001095290251916758
s(S'married'
p632
S'[[con]]'
p633
S'[[det]]'
p634
tp635
F0.0032858707557502738
s(S'were'
p636
S'named'
p637
S'to'
p638
tp639
F0.001095290251916758
s(S'[[det]]'
p640
S'son'
p641
S'later'
p642
tp643
F0.001095290251916758
s(S'born'
p644
S'on'
p645
S'[[det]]'
p646
tp647
F0.001095290251916758
s(S'to'
p648
S'join'
p649
S'[[pro]]'
p650
tp651
F0.001095290251916758
s(S'[[con]]'
p652
S'was'
p653
S'born'
p654
tp655
F0.001095290251916758
s(g17
S'granddaughter'
p656
S'[[con]]'
p657
tp658
F0.001095290251916758
s(S'[[det]]'
p659
S'grandson'
p660
S'son'
p661
tp662
F0.001095290251916758
s(S'[[con]]'
p663
S'grandson'
p664
S'[[con]]'
p665
tp666
F0.001095290251916758
s(S'was'
p667
S'born'
p668
S'on'
p669
tp670
F0.0032858707557502738
s(S'born'
p671
S'in'
p672
S'as'
p673
tp674
F0.001095290251916758
s(S'[[adj]]'
p675
S'son'
p676
S'with'
p677
tp678
F0.001095290251916758
s(S'born'
p679
S'at'
p680
S'[[adj]]'
p681
tp682
F0.001095290251916758
s(S'[[num]]'
p683
S'[[det]]'
p684
S'daughter'
p685
tp686
F0.001095290251916758
s(S'have'
p687
S'served'
p688
S'in'
p689
tp690
F0.001095290251916758
s(S'first'
p691
S'served'
p692
S'[[con]]'
p693
tp694
F0.001095290251916758
s(S'has'
p695
S'served'
p696
S'as'
p697
tp698
F0.001095290251916758
s(S'[[con]]'
p699
S'sister'
p700
S'of'
p701
tp702
F0.001095290251916758
s(S'younger'
p703
S'brother'
p704
S'[[det]]'
p705
tp706
F0.002190580503833516
s(S'[[det]]'
p707
S'son'
p708
S'[[con]]'
p709
tp710
F0.014238773274917854
s(S'married'
p711
S'[[prp]]'
p712
S'daughter'
p713
tp714
F0.0032858707557502738
s(S'was'
p715
S'born'
p716
S'into'
p717
tp718
F0.001095290251916758
s(S'older'
p719
S'brother'
p720
S'[[num]]'
p721
tp722
F0.001095290251916758
s(S'nephew'
p723
S'[[con]]'
p724
S'[[det]]'
p725
tp726
F0.001095290251916758
s(S'was'
p727
S'father'
p728
S'to'
p729
tp730
F0.001095290251916758
s(S'[[det]]'
p731
S'daughter'
p732
S'[[pro]]'
p733
tp734
F0.001095290251916758
s(S'[[prp]]'
p735
S'uncle'
p736
S'[[det]]'
p737
tp738
F0.001095290251916758
s(S'[[prp]]'
p739
S'father'
p740
g17
tp741
F0.001095290251916758
s(g17
S'father'
p742
S'[[det]]'
p743
tp744
F0.001095290251916758
s(S'was'
p745
S'sister'
p746
S'of'
p747
tp748
F0.001095290251916758
s(S'[[adj]]'
p749
S'child'
p750
S'[[con]]'
p751
tp752
F0.001095290251916758
s(g17
S'brotherinlaw'
p753
S'[[con]]'
p754
tp755
F0.001095290251916758
s(S'[[adj]]'
p756
S'son'
p757
S'of'
p758
tp759
F0.012048192771084338
s(S'[[prp]]'
p760
S'son'
p761
S'born'
p762
tp763
F0.001095290251916758
s(S'older'
p764
S'siblings'
p765
S'[[con]]'
p766
tp767
F0.001095290251916758
s(S'younger'
p768
S'brother'
p769
S'of'
p770
tp771
F0.002190580503833516
s(S'[[det]]'
p772
S'grandson'
p773
S'[[con]]'
p774
tp775
F0.0032858707557502738
s(S'[[con]]'
p776
S'served'
p777
S'under'
p778
tp779
F0.001095290251916758
s(g17
S'father'
p780
S'as'
p781
tp782
F0.001095290251916758
s(S'[[adj]]'
p783
S'son'
p784
S'[[det]]'
p785
tp786
F0.002190580503833516
s(S'[[det]]'
p787
S'elder'
p788
S'brother'
p789
tp790
F0.002190580503833516
s(S'married'
p791
S'[[con]]'
p792
S'[[prp]]'
p793
tp794
F0.001095290251916758
s(S'[[prp]]'
p795
S'father'
p796
S'[[det]]'
p797
tp798
F0.001095290251916758
s(g17
S'sister'
p799
S'who'
p800
tp801
F0.001095290251916758
s(S'[[adj]]'
p802
S'uncle'
p803
S'[[det]]'
p804
tp805
F0.001095290251916758
s(S'born'
p806
S'as'
p807
S'[[adj]]'
p808
tp809
F0.001095290251916758
s(S'is'
p810
S'cousin'
p811
S'to'
p812
tp813
F0.001095290251916758
s(S'was'
p814
S'brother'
p815
S'[[con]]'
p816
tp817
F0.001095290251916758
s(S'[[det]]'
p818
S'mother'
p819
S'of'
p820
tp821
F0.001095290251916758
s(S'[[det]]'
p822
S'son'
p823
S'brother'
p824
tp825
F0.002190580503833516
s(S'[[prp]]'
p826
S'brothers'
p827
S'[[con]]'
p828
tp829
F0.001095290251916758
s(S'[[num]]'
p830
S'older'
p831
S'brother'
p832
tp833
F0.001095290251916758
s(S'was'
p834
S'married'
p835
S'[[con]]'
p836
tp837
F0.002190580503833516
s(g535
g536
S'grandson'
p838
tp839
F0.004381161007667032
s(S'later'
p840
S'served'
p841
S'as'
p842
tp843
F0.001095290251916758
s(g668
g669
S'[[num]]'
p844
tp845
F0.001095290251916758
s(S'son'
p846
S'[[con]]'
p847
S'brother'
p848
tp849
F0.0065717415115005475
s(S'born'
p850
S'[[num]]'
p851
S'[[det]]'
p852
tp853
F0.001095290251916758
s(g17
S'father'
p854
S'[[con]]'
p855
tp856
F0.001095290251916758
s(S'[[num]]'
p857
S'brothers'
p858
S'[[det]]'
p859
tp860
F0.001095290251916758
s(g17
S'uncle'
p861
S'[[con]]'
p862
tp863
F0.001095290251916758
s(S'[[det]]'
p864
S'brotherinlaw'
p865
S'of'
p866
tp867
F0.001095290251916758
s(S'[[det]]'
p868
S'son'
p869
S'grandson'
p870
tp871
F0.001095290251916758
s(S'[[det]]'
p872
S'son'
p873
S'who'
p874
tp875
F0.0032858707557502738
s(g422
g423
S'son'
p876
tp877
F0.001095290251916758
s(S'born'
p878
S'[[con]]'
p879
S'[[det]]'
p880
tp881
F0.0032858707557502738
s(S'[[prp]]'
p882
S'brother'
p883
S'[[adj]]'
p884
tp885
F0.001095290251916758
s(S'is'
p886
S'born'
p887
S'[[num]]'
p888
tp889
F0.001095290251916758
s(S'[[adj]]'
p890
S'father'
p891
S'of'
p892
tp893
F0.001095290251916758
s(S'[[num]]'
p894
S'brothers'
p895
S'[[num]]'
p896
tp897
F0.001095290251916758
s(g17
S'nephew'
p898
S'[[det]]'
p899
tp900
F0.001095290251916758
s(S'[[det]]'
p901
S'father'
p902
S'[[con]]'
p903
tp904
F0.001095290251916758
s(g570
S'[[adj]]'
p905
S'son'
p906
tp907
F0.001095290251916758
s(g321
g322
S'daughter'
p908
tp909
F0.001095290251916758
s(S'son'
p910
S'of'
p911
S'[[con]]'
p912
tp913
F0.001095290251916758
s(g239
g240
S'daughter'
p914
tp915
F0.001095290251916758
s(S'[[adj]]'
p916
S'served'
p917
S'as'
p918
tp919
F0.001095290251916758
s(S'formerly'
p920
S'served'
p921
S'as'
p922
tp923
F0.001095290251916758
s(S'son'
p924
S'[[det]]'
p925
S'grandson'
p926
tp927
F0.001095290251916758
s(S'[[det]]'
p928
S'[[adj]]'
p929
S'cousin'
p930
tp931
F0.001095290251916758
s(S'was'
p932
S'brother'
p933
S'of'
p934
tp935
F0.001095290251916758
s(S'son'
p936
S'[[con]]'
p937
S'grandson'
p938
tp939
F0.00547645125958379
s(S'[[det]]'
p940
S'cousin'
p941
S'to'
p942
tp943
F0.001095290251916758
s(g17
S'mother'
p944
S'of'
p945
tp946
F0.001095290251916758
s(S'also'
p947
S'named'
p948
S'[[adj]]'
p949
tp950
F0.001095290251916758
s(S'[[det]]'
p951
S'[[adj]]'
p952
S'daughter'
p953
tp954
F0.0032858707557502738
s(S'in'
p955
S'[[det]]'
p956
S'brother'
p957
tp958
F0.001095290251916758
s(S'[[det]]'
p959
S'mother'
p960
S'from'
p961
tp962
F0.001095290251916758
s(S'was'
p963
S'son'
p964
S'[[con]]'
p965
tp966
F0.0032858707557502738
s(S'[[det]]'
p967
S'nephew'
p968
S'who'
p969
tp970
F0.001095290251916758
s(S'[[det]]'
p971
S'father'
p972
S'to'
p973
tp974
F0.001095290251916758
s(S'married'
p975
S'[[adj]]'
p976
S'daughter'
p977
tp978
F0.001095290251916758
s(S'has'
p979
S'named'
p980
S'as'
p981
tp982
F0.001095290251916758
s(S'is'
p983
S'named'
p984
S'[[det]]'
p985
tp986
F0.001095290251916758
s(S'[[det]]'
p987
S'uncle'
p988
S'to'
p989
tp990
F0.001095290251916758
s(S'have'
p991
S'served'
p992
S'as'
p993
tp994
F0.001095290251916758
s(g17
S'son'
p995
S'[[con]]'
p996
tp997
F0.004381161007667032
s(S'[[adj]]'
p998
S'son'
p999
S'[[con]]'
p1000
tp1001
F0.007667031763417305
s(g89
g90
S'of'
p1002
tp1003
F0.001095290251916758
s(S'[[adj]]'
p1004
S'son'
p1005
S'later'
p1006
tp1007
F0.001095290251916758
s(S'[[num]]'
p1008
S'child'
p1009
S'with'
p1010
tp1011
F0.001095290251916758
s(S'[[det]]'
p1012
S'son'
p1013
S'[[num]]'
p1014
tp1015
F0.002190580503833516
s(S'[[con]]'
p1016
S'brotherinlaw'
p1017
S'of'
p1018
tp1019
F0.001095290251916758
s(S'be'
p1020
S'named'
p1021
S'[[det]]'
p1022
tp1023
F0.001095290251916758
s(S'with'
p1024
S'[[det]]'
p1025
S'daughter'
p1026
tp1027
F0.001095290251916758
s(S'[[adj]]'
p1028
S'brother'
p1029
S'to'
p1030
tp1031
F0.002190580503833516
s(S'was'
p1032
S'married'
p1033
S'in'
p1034
tp1035
F0.001095290251916758
s(S'[[det]]'
p1036
S'nephew'
p1037
S'[[det]]'
p1038
tp1039
F0.001095290251916758
s(S'was'
p1040
S'son'
p1041
S'by'
p1042
tp1043
F0.001095290251916758
s(g17
S'son'
p1044
S'by'
p1045
tp1046
F0.001095290251916758
s(S'is'
p1047
S'son'
p1048
S'to'
p1049
tp1050
F0.001095290251916758
s(S'[[con]]'
p1051
S'brother'
p1052
S'to'
p1053
tp1054
F0.0032858707557502738
s(S'[[det]]'
p1055
S'son'
p1056
S'whom'
p1057
tp1058
F0.001095290251916758
s(S'[[prp]]'
p1059
S'father'
p1060
S'was'
p1061
tp1062
F0.001095290251916758
s(S'[[adj]]'
p1063
S'brothers'
p1064
S'[[num]]'
p1065
tp1066
F0.001095290251916758
s(S'daughter'
p1067
S'who'
p1068
S'married'
p1069
tp1070
F0.0032858707557502738
s(S'of'
p1071
S'[[adj]]'
p1072
S'brother'
p1073
tp1074
F0.001095290251916758
s(S'son'
p1075
S'of'
p1076
S'son'
p1077
tp1078
F0.001095290251916758
s(S'elder'
p1079
S'brother'
p1080
S'[[det]]'
p1081
tp1082
F0.001095290251916758
s(S'born'
p1083
g530
g531
tp1084
F0.007667031763417305
s(S'also'
p1085
S'named'
p1086
S'as'
p1087
tp1088
F0.001095290251916758
s(S'[[con]]'
p1089
S'[[adj]]'
p1090
S'brother'
p1091
tp1092
F0.001095290251916758
s(S'been'
p1093
S'named'
p1094
S'after'
p1095
tp1096
F0.001095290251916758
s(S'was'
p1097
S'mother'
p1098
S'to'
p1099
tp1100
F0.001095290251916758
s(g219
g220
S'daughter'
p1101
tp1102
F0.001095290251916758
s(S'also'
p1103
S'served'
p1104
S'to'
p1105
tp1106
F0.001095290251916758
s(g17
S'sister'
p1107
S'[[det]]'
p1108
tp1109
F0.001095290251916758
s(S'[[num]]'
p1110
S'served'
p1111
S'on'
p1112
tp1113
F0.001095290251916758
s(S'[[det]]'
p1114
S'family'
p1115
S'[[det]]'
p1116
tp1117
F0.001095290251916758
s(S'be'
p1118
S'named'
p1119
S'later'
p1120
tp1121
F0.001095290251916758
s(S'born'
p1122
S'near'
p1123
S'[[adj]]'
p1124
tp1125
F0.001095290251916758
s(S'[[adj]]'
p1126
S'son'
p1127
S'de'
p1128
tp1129
F0.001095290251916758
s(S'also'
p1130
S'served'
p1131
S'when'
p1132
tp1133
F0.001095290251916758
s(g680
g681
S'son'
p1134
tp1135
F0.001095290251916758
s(S'be'
p1136
S'named'
p1137
S'for'
p1138
tp1139
F0.001095290251916758
s(S'married'
p1140
S'[[con]]'
p1141
S'[[num]]'
p1142
tp1143
F0.002190580503833516
s(g851
g852
S'son'
p1144
tp1145
F0.001095290251916758
s(S'[[det]]'
p1146
S'son'
p1147
S'[[det]]'
p1148
tp1149
F0.004381161007667032
s(S'been'
p1150
S'born'
p1151
S'to'
p1152
tp1153
F0.001095290251916758
s(S'was'
p1154
S'named'
p1155
S'as'
p1156
tp1157
F0.001095290251916758
s(g17
S'brother'
p1158
S'in'
p1159
tp1160
F0.001095290251916758
s(S'[[det]]'
p1161
S'son'
p1162
S'born'
p1163
tp1164
F0.001095290251916758
s(S'[[con]]'
p1165
S'served'
p1166
S'where'
p1167
tp1168
F0.001095290251916758
s(g17
S'named'
p1169
S'after'
p1170
tp1171
F0.001095290251916758
s(S'brother'
p1172
S'[[con]]'
p1173
S'[[adj]]'
p1174
tp1175
F0.001095290251916758
s(S'again'
p1176
S'served'
p1177
S'as'
p1178
tp1179
F0.001095290251916758
s(S'[[det]]'
p1180
S'brothers'
p1181
S'[[con]]'
p1182
tp1183
F0.001095290251916758
s(S'[[con]]'
p1184
S'brother'
p1185
S'of'
p1186
tp1187
F0.004381161007667032
s(S'[[adj]]'
p1188
S'brother'
p1189
S'of'
p1190
tp1191
F0.002190580503833516
s(S'[[prp]]'
p1192
S'son'
p1193
S'[[con]]'
p1194
tp1195
F0.001095290251916758
s(S'was'
p1196
S'married'
p1197
S'to'
p1198
tp1199
F0.0065717415115005475
s(S'[[det]]'
p1200
S'child'
p1201
S'of'
p1202
tp1203
F0.001095290251916758
s(S'[[det]]'
p1204
S'child'
p1205
S'with'
p1206
tp1207
F0.001095290251916758
s(g869
g870
S'of'
p1208
tp1209
F0.001095290251916758
s(S'as'
p1210
S'son'
p1211
S'of'
p1212
tp1213
F0.002190580503833516
s(g669
g844
S'son'
p1214
tp1215
F0.001095290251916758
s(g17
S'son'
p1216
S'in'
p1217
tp1218
F0.001095290251916758
s(S'was'
p1219
S'brother'
p1220
S'to'
p1221
tp1222
F0.001095290251916758
s(S'in'
p1223
S'[[adj]]'
p1224
S'daughter'
p1225
tp1226
F0.001095290251916758
s(S'has'
p1227
S'served'
p1228
S'by'
p1229
tp1230
F0.001095290251916758
s(S'[[det]]'
p1231
S'brother'
p1232
S'[[adj]]'
p1233
tp1234
F0.001095290251916758
s(S'[[con]]'
p1235
S'cousin'
p1236
S'to'
p1237
tp1238
F0.001095290251916758
s(S'only'
p1239
S'son'
p1240
S'of'
p1241
tp1242
F0.001095290251916758
s(S'[[adj]]'
p1243
S'brothers'
p1244
S'[[det]]'
p1245
tp1246
F0.001095290251916758
s(S'[[det]]'
p1247
S'uncle'
p1248
S'of'
p1249
tp1250
F0.001095290251916758
s(S'[[con]]'
p1251
S'served'
p1252
S'as'
p1253
tp1254
F0.001095290251916758
s(S'[[det]]'
p1255
S'father'
p1256
S'of'
p1257
tp1258
F0.001095290251916758
s(S'[[adj]]'
p1259
S'son'
p1260
S'who'
p1261
tp1262
F0.001095290251916758
s(g436
g437
S'daughter'
p1263
tp1264
F0.001095290251916758
s(S'married'
p1265
S'daughter'
p1266
S'who'
p1267
tp1268
F0.001095290251916758
s(S'[[det]]'
p1269
S'sister'
p1270
S'to'
p1271
tp1272
F0.001095290251916758
s(S'married'
p1273
g624
g625
tp1274
F0.001095290251916758
s(S'[[adj]]'
p1275
S'cousin'
p1276
S'to'
p1277
tp1278
F0.001095290251916758
s(S'was'
p1279
S'uncle'
p1280
S'to'
p1281
tp1282
F0.001095290251916758
s(S'was'
p1283
S'nephew'
p1284
S'of'
p1285
tp1286
F0.001095290251916758
s(S'is'
p1287
S'married'
p1288
S'[[con]]'
p1289
tp1290
F0.002190580503833516
s(g145
g146
S'[[num]]'
p1291
tp1292
F0.0032858707557502738
s(S'married'
p1293
S'daughter'
p1294
S'of'
p1295
tp1296
F0.004381161007667032
s(g17
S'father'
p1297
S'who'
p1298
tp1299
F0.001095290251916758
s(g17
S'son'
p1300
S'de'
p1301
tp1302
F0.001095290251916758
s(S'[[prp]]'
p1303
S'brother'
p1304
S'who'
p1305
tp1306
F0.001095290251916758
s(S'[[con]]'
p1307
S'father'
p1308
S'of'
p1309
tp1310
F0.001095290251916758
s(g525
g526
S'daughter'
p1311
tp1312
F0.001095290251916758
s(S'as'
p1313
S'[[det]]'
p1314
S'son'
p1315
tp1316
F0.001095290251916758
s(S'had'
p1317
S'served'
p1318
S'on'
p1319
tp1320
F0.001095290251916758
s(S'is'
p1321
S'named'
p1322
S'as'
p1323
tp1324
F0.001095290251916758
s(S'[[adj]]'
p1325
S'son'
p1326
S'[[adj]]'
p1327
tp1328
F0.001095290251916758
s(S'was'
p1329
g1083
g530
tp1330
F0.013143483023001095
s(g17
S'son'
p1331
S'[[adj]]'
p1332
tp1333
F0.001095290251916758
s(g513
g514
S'daughter'
p1334
tp1335
F0.002190580503833516
s(S'married'
p1336
g951
g952
tp1337
F0.0032858707557502738
s(S'as'
p1338
S'[[det]]'
p1339
S'brother'
p1340
tp1341
F0.001095290251916758
s(S'married'
p1342
g332
g333
tp1343
F0.001095290251916758
s(S'[[det]]'
p1344
S'daughter'
p1345
g1196
tp1346
F0.001095290251916758
s(g807
g808
S'son'
p1347
tp1348
F0.001095290251916758
s(S'younger'
p1349
S'brother'
p1350
S'who'
p1351
tp1352
F0.001095290251916758
s(S'[[adj]]'
p1353
S'mother'
p1354
S'of'
p1355
tp1356
F0.001095290251916758
s(g139
g140
S'[[det]]'
p1357
tp1358
F0.001095290251916758
s(S'[[adj]]'
p1359
S'child'
p1360
S'[[det]]'
p1361
tp1362
F0.001095290251916758
s(S'[[det]]'
p1363
S'daughter'
p1364
S'[[con]]'
p1365
tp1366
F0.002190580503833516
s(S'son'
p1367
g652
g653
tp1368
F0.001095290251916758
s(S'to'
p1369
S'join'
p1370
S'[[prp]]'
p1371
tp1372
F0.001095290251916758
s(S'[[con]]'
p1373
S'named'
p1374
S'as'
p1375
tp1376
F0.001095290251916758
s(g1141
g1142
S'daughter'
p1377
tp1378
F0.002190580503833516
s(S'[[mod]]'
p1379
S'join'
p1380
S'with'
p1381
tp1382
F0.001095290251916758
s(S'with'
p1383
S'son'
p1384
S'of'
p1385
tp1386
F0.001095290251916758
s(S'son'
p1387
S'of'
p1388
S'born'
p1389
tp1390
F0.001095290251916758
s(S'grandson'
p1391
S'[[adj]]'
p1392
S'son'
p1393
tp1394
F0.001095290251916758
s(S'[[det]]'
p1395
S'grandson'
p1396
S'of'
p1397
tp1398
F0.004381161007667032
s(S'nephew'
p1399
S'[[con]]'
p1400
S'[[adj]]'
p1401
tp1402
F0.001095290251916758
s(S'is'
p1403
S'son'
p1404
S'[[con]]'
p1405
tp1406
F0.001095290251916758
s(S'[[det]]'
p1407
S'father'
p1408
S'[[num]]'
p1409
tp1410
F0.001095290251916758
s(S'[[adj]]'
p1411
S'son'
p1412
S'brother'
p1413
tp1414
F0.001095290251916758
s(g952
g953
S'of'
p1415
tp1416
F0.007667031763417305
s(S'be'
p1417
S'named'
p1418
S'after'
p1419
tp1420
F0.001095290251916758
s(g17
S'father'
p1421
S'[[num]]'
p1422
tp1423
F0.001095290251916758
s(S'[[det]]'
p1424
S'granddaughter'
p1425
S'[[con]]'
p1426
tp1427
F0.001095290251916758
s(S'[[prp]]'
p1428
S'elder'
p1429
S'brother'
p1430
tp1431
F0.002190580503833516
s(g17
S'son'
p1432
S'grandson'
p1433
tp1434
F0.001095290251916758
s(S'who'
p1435
S'married'
p1436
S'[[det]]'
p1437
tp1438
F0.001095290251916758
s(g17
S'son'
p1439
S'who'
p1440
tp1441
F0.001095290251916758
s(S'was'
p1442
g1122
g1123
tp1443
F0.002190580503833516
s(S'[[prp]]'
p1444
S'brother'
p1445
S'was'
p1446
tp1447
F0.001095290251916758
s(S'later'
p1448
S'named'
p1449
S'of'
p1450
tp1451
F0.001095290251916758
s(g146
g1291
S'daughter'
p1452
tp1453
F0.0032858707557502738
s(S'also'
p1454
S'served'
p1455
S'against'
p1456
tp1457
F0.001095290251916758
s(S'[[det]]'
p1458
S'served'
p1459
S'as'
p1460
tp1461
F0.001095290251916758
s(S'married'
p1462
S'daughter'
p1463
S'[[con]]'
p1464
tp1465
F0.001095290251916758
s(S'married'
p1466
g321
g385
tp1467
F0.001095290251916758
s(S'born'
p1468
S'[[adj]]'
p1469
S'son'
p1470
tp1471
F0.001095290251916758
s(S'born'
p1472
S'son'
p1473
S'of'
p1474
tp1475
F0.002190580503833516
s(S'[[prp]]'
p1476
S'brother'
p1477
S'to'
p1478
tp1479
F0.001095290251916758
s(S'married'
p1480
g458
g459
tp1481
F0.004381161007667032
s(S'also'
p1482
S'served'
p1483
S'[[con]]'
p1484
tp1485
F0.001095290251916758
s(S'[[num]]'
p1486
g175
g176
tp1487
F0.002190580503833516
s(S'then'
p1488
S'married'
p1489
S'daughter'
p1490
tp1491
F0.002190580503833516
s(g17
S'father'
p1492
S'to'
p1493
tp1494
F0.001095290251916758
s(g17
S'son'
p1495
S'with'
p1496
tp1497
F0.001095290251916758
s(S'was'
p1498
g1468
g1469
tp1499
F0.001095290251916758
s(S'[[adj]]'
p1500
S'mother'
p1501
S'to'
p1502
tp1503
F0.001095290251916758
s(g17
S'uncle'
p1504
S'who'
p1505
tp1506
F0.001095290251916758
s(S'[[con]]'
p1507
S'cousin'
p1508
S'of'
p1509
tp1510
F0.002190580503833516
s(S'[[det]]'
p1511
S'brother'
p1512
S'to'
p1513
tp1514
F0.001095290251916758
s(S'[[prp]]'
p1515
S'mother'
p1516
S'[[con]]'
p1517
tp1518
F0.001095290251916758
s(S'born'
p1519
S'[[num]]'
p1520
S'son'
p1521
tp1522
F0.001095290251916758
s(S'is'
p1523
S'born'
p1524
S'to'
p1525
tp1526
F0.001095290251916758
s(S'[[num]]'
p1527
S'son'
p1528
S'of'
p1529
tp1530
F0.004381161007667032
s(S'nephew'
p1531
S'[[con]]'
p1532
S'cousin'
p1533
tp1534
F0.002190580503833516
s(S'married'
p1535
g250
g251
tp1536
F0.001095290251916758
s(S'had'
p1537
S'married'
p1538
S'[[num]]'
p1539
tp1540
F0.001095290251916758
s(S'son'
p1541
g1071
g1072
tp1542
F0.001095290251916758
s(S'[[con]]'
p1543
S'mother'
p1544
S'of'
p1545
tp1546
F0.001095290251916758
s(S'is'
p1547
S'cousin'
p1548
S'of'
p1549
tp1550
F0.001095290251916758
s(S'was'
p1551
S'named'
p1552
S'on'
p1553
tp1554
F0.001095290251916758
s(S'[[prp]]'
p1555
S'father'
p1556
S'[[num]]'
p1557
tp1558
F0.001095290251916758
s(S'[[adj]]'
p1559
S'son'
p1560
S'[[pro]]'
p1561
tp1562
F0.001095290251916758
s(S'to'
p1563
S'join'
p1564
S'[[con]]'
p1565
tp1566
F0.001095290251916758
s(S'[[prp]]'
p1567
S'brother'
p1568
S'[[con]]'
p1569
tp1570
F0.001095290251916758
s(S'[[det]]'
p1571
S'sister'
p1572
S'who'
p1573
tp1574
F0.001095290251916758
s(S'[[det]]'
p1575
S'nephew'
p1576
S'of'
p1577
tp1578
F0.002190580503833516
s(S'[[prp]]'
p1579
S'mother'
p1580
g17
tp1581
F0.001095290251916758
s(S'daughter'
p1582
g1
g2
tp1583
F0.001095290251916758
s(S'married'
p1584
S'who'
p1585
S'[[det]]'
p1586
tp1587
F0.001095290251916758
s(S'[[num]]'
p1588
S'son'
p1589
S'[[det]]'
p1590
tp1591
F0.001095290251916758
s(S'was'
p1592
S'born'
p1593
S'with'
p1594
tp1595
F0.001095290251916758
s(g911
g912
S'brother'
p1596
tp1597
F0.001095290251916758
s(g645
g646
S'son'
p1598
tp1599
F0.001095290251916758
s(S'[[con]]'
p1600
S'[[det]]'
p1601
S'brother'
p1602
tp1603
F0.0032858707557502738
s(S'born'
p1604
g1313
g1314
tp1605
F0.002190580503833516
s(S'[[mod]]'
p1606
S'join'
p1607
S'[[con]]'
p1608
tp1609
F0.001095290251916758
s(S'had'
p1610
S'married'
p1611
S'[[det]]'
p1612
tp1613
F0.002190580503833516
s(S'was'
p1614
g1604
g1313
tp1615
F0.00547645125958379
s(S'to'
p1616
S'join'
p1617
S'with'
p1618
tp1619
F0.001095290251916758
s(S'was'
p1620
S'named'
p1621
S'[[con]]'
p1622
tp1623
F0.001095290251916758
s(S'[[adj]]'
p1624
S'cousin'
p1625
S'[[con]]'
p1626
tp1627
F0.001095290251916758
s(g1345
g1196
g1197
tp1628
F0.001095290251916758
s(g17
S'cousin'
p1629
S'[[con]]'
p1630
tp1631
F0.001095290251916758
s(S'[[con]]'
p1632
S'son'
p1633
S'of'
p1634
tp1635
F0.0032858707557502738
s(S'was'
p1636
S'son'
p1637
S'of'
p1638
tp1639
F0.001095290251916758
s(S'[[det]]'
p1640
S'mother'
p1641
S'[[con]]'
p1642
tp1643
F0.001095290251916758
s(S'was'
p1644
S'named'
p1645
S'along'
p1646
tp1647
F0.001095290251916758
s(S'had'
p1648
S'served'
p1649
S'[[con]]'
p1650
tp1651
F0.001095290251916758
s(S'[[adj]]'
p1652
S'uncle'
p1653
S'to'
p1654
tp1655
F0.001095290251916758
s(S'[[con]]'
p1656
S'[[adj]]'
p1657
S'grandson'
p1658
tp1659
F0.001095290251916758
s(S'[[det]]'
p1660
S'father'
p1661
S'in'
p1662
tp1663
F0.001095290251916758
s(S'[[adj]]'
p1664
S'son'
p1665
S'[[num]]'
p1666
tp1667
F0.001095290251916758
s(g341
g342
S'nephew'
p1668
tp1669
F0.001095290251916758
s(S'then'
p1670
S'served'
p1671
S'as'
p1672
tp1673
F0.001095290251916758
s(S'son'
p1674
S'of'
p1675
S'brother'
p1676
tp1677
F0.001095290251916758
s(S'[[det]]'
p1678
S'brother'
p1679
S'[[num]]'
p1680
tp1681
F0.001095290251916758
s(S'younger'
p1682
S'brother'
p1683
S'[[con]]'
p1684
tp1685
F0.0032858707557502738
s(S'[[det]]'
p1686
S'daughter'
p1687
S'married'
p1688
tp1689
F0.001095290251916758
s(S'[[con]]'
p1690
S'nephew'
p1691
S'of'
p1692
tp1693
F0.001095290251916758
s(S'married'
p1694
g683
g684
tp1695
F0.001095290251916758
s(S'is'
p1696
S'named'
p1697
S'[[con]]'
p1698
tp1699
F0.001095290251916758
s(S'[[adj]]'
p1700
S'child'
p1701
S'of'
p1702
tp1703
F0.001095290251916758
s(S'married'
p1704
S'secondly'
p1705
S'de'
p1706
tp1707
F0.001095290251916758
s(S'[[prp]]'
p1708
S'son'
p1709
S'was'
p1710
tp1711
F0.001095290251916758
s(S'is'
p1712
S'named'
p1713
S'to'
p1714
tp1715
F0.001095290251916758
s(g773
g774
S'[[det]]'
p1716
tp1717
F0.001095290251916758
s(g17
S'younger'
p1718
S'brothers'
p1719
tp1720
F0.002190580503833516
s(S'[[det]]'
p1721
S'brother'
p1722
S'had'
p1723
tp1724
F0.001095290251916758
s(S'is'
p1725
S'father'
p1726
S'to'
p1727
tp1728
F0.001095290251916758
s(S'is'
p1729
S'married'
p1730
S'to'
p1731
tp1732
F0.0032858707557502738
s(S'[[pro]]'
p1733
S'brother'
p1734
S'[[con]]'
p1735
tp1736
F0.001095290251916758
s(S'was'
p1737
g850
g851
tp1738
F0.001095290251916758
s(S'also'
p1739
S'served'
p1740
S'where'
p1741
tp1742
F0.001095290251916758
s(S'[[prp]]'
p1743
S'brothers'
p1744
S'were'
p1745
tp1746
F0.001095290251916758
s(S'born'
p1747
S'[[con]]'
p1748
S'[[adj]]'
p1749
tp1750
F0.001095290251916758
s(S'then'
p1751
S'served'
p1752
S'[[num]]'
p1753
tp1754
F0.001095290251916758
s(g792
g793
S'daughter'
p1755
tp1756
F0.001095290251916758
s(S'was'
p1757
S'named'
p1758
S'was'
p1759
tp1760
F0.001095290251916758
s(S'married'
p1761
g1223
g1224
tp1762
F0.001095290251916758
s(S'also'
p1763
S'served'
p1764
S'along'
p1765
tp1766
F0.001095290251916758
s(S'is'
p1767
S'mother'
p1768
S'of'
p1769
tp1770
F0.001095290251916758
s(S'is'
p1771
S'named'
p1772
S'by'
p1773
tp1774
F0.001095290251916758
s(S'[[adj]]'
p1775
S'married'
p1776
S'to'
p1777
tp1778
F0.001095290251916758
s(S'also'
p1779
S'served'
p1780
S'[[num]]'
p1781
tp1782
F0.001095290251916758
s(S'had'
p1783
S'served'
p1784
S'as'
p1785
tp1786
F0.001095290251916758
s(g569
g570
g905
tp1787
F0.001095290251916758
s(S'when'
p1788
S'served'
p1789
S'as'
p1790
tp1791
F0.001095290251916758
s(S'born'
p1792
g1210
g1211
tp1793
F0.001095290251916758
s(g937
g938
S'of'
p1794
tp1795
F0.0032858707557502738
s(S'[[det]]'
p1796
S'cousin'
p1797
S'[[det]]'
p1798
tp1799
F0.001095290251916758
s(S'twice'
p1800
S'served'
p1801
S'as'
p1802
tp1803
F0.001095290251916758
s(S'is'
p1804
S'father'
p1805
S'[[con]]'
p1806
tp1807
F0.001095290251916758
s(S'married'
p1808
g398
g399
tp1809
F0.001095290251916758
s(S'[[det]]'
p1810
S'named'
p1811
S'after'
p1812
tp1813
F0.001095290251916758
s(g494
g495
S'brother'
p1814
tp1815
F0.001095290251916758
s(S'by'
p1816
S'daughter'
p1817
S'of'
p1818
tp1819
F0.001095290251916758
s(S'[[det]]'
p1820
S'brother'
p1821
S'who'
p1822
tp1823
F0.001095290251916758
s(g1777
S'daughter'
p1824
S'of'
p1825
tp1826
F0.00547645125958379
s(g17
S'nephew'
p1827
S'[[con]]'
p1828
tp1829
F0.001095290251916758
s(g823
g824
S'of'
p1830
tp1831
F0.002190580503833516
s(g17
S'son'
p1832
S'[[num]]'
p1833
tp1834
F0.001095290251916758
s(S'[[det]]'
p1835
S'family'
p1836
S'of'
p1837
tp1838
F0.001095290251916758
s(g17
S'father'
p1839
S'of'
p1840
tp1841
F0.001095290251916758
s(S'grandson'
p1842
S'[[con]]'
p1843
S'son'
p1844
tp1845
F0.001095290251916758
s(S'[[det]]'
p1846
S'son'
p1847
S'by'
p1848
tp1849
F0.001095290251916758
s(S'[[num]]'
p1850
g546
g417
tp1851
F0.001095290251916758
s(S'had'
p1852
g1293
g1294
tp1853
F0.002190580503833516
s(S'[[det]]'
p1854
S'uncle'
p1855
S'[[con]]'
p1856
tp1857
F0.001095290251916758
s(S'was'
p1858
S'born'
p1859
S'after'
p1860
tp1861
F0.001095290251916758
s(g17
S'brother'
p1862
S'[[det]]'
p1863
tp1864
F0.001095290251916758
s(S'[[adj]]'
p1865
S'mistress'
p1866
S'of'
p1867
tp1868
F0.001095290251916758
s(S'[[pro]]'
p1869
S'younger'
p1870
S'brother'
p1871
tp1872
F0.001095290251916758
s(S'born'
p1873
g576
g577
tp1874
F0.001095290251916758
s(S'[[det]]'
p1875
S'son'
p1876
S'[[adj]]'
p1877
tp1878
F0.001095290251916758
s(g653
g654
S'of'
p1879
tp1880
F0.002190580503833516
s(g672
g673
S'son'
p1881
tp1882
F0.001095290251916758
s(S'[[prp]]'
p1883
S'father'
p1884
S'[[con]]'
p1885
tp1886
F0.001095290251916758
s(g1657
g1658
S'of'
p1887
tp1888
F0.001095290251916758
s(g1585
g1586
S'daughter'
p1889
tp1890
F0.001095290251916758
s(g17
S'brother'
p1891
S'[[con]]'
p1892
tp1893
F0.002190580503833516
s(S'[[adj]]'
p1894
S'child'
p1895
S'with'
p1896
tp1897
F0.001095290251916758
s(S'was'
p1898
S'born'
p1899
S'when'
p1900
tp1901
F0.001095290251916758
s(S'then'
p1902
S'served'
p1903
S'until'
p1904
tp1905
F0.001095290251916758
s(g1776
g1777
g1824
tp1906
F0.00547645125958379
s(S'born'
p1907
g108
g109
tp1908
F0.001095290251916758
s(S'[[con]]'
p1909
S'brother'
p1910
S'[[con]]'
p1911
tp1912
F0.001095290251916758
s(S'to'
p1913
S'join'
p1914
S'on'
p1915
tp1916
F0.001095290251916758
s(S'[[pro]]'
p1917
S'served'
p1918
S'as'
p1919
tp1920
F0.001095290251916758
s(S'[[det]]'
p1921
g1391
g1392
tp1922
F0.001095290251916758
s(S'[[det]]'
p1923
S'younger'
p1924
S'brother'
p1925
tp1926
F0.007667031763417305
s(S'[[num]]'
p1927
S'younger'
p1928
S'brother'
p1929
tp1930
F0.001095290251916758
s(S'[[num]]'
p1931
S'born'
p1932
S'[[num]]'
p1933
tp1934
F0.001095290251916758
s(S'married'
p1935
g1024
g1025
tp1936
F0.001095290251916758
s(S'[[det]]'
p1937
S'sister'
p1938
S'[[num]]'
p1939
tp1940
F0.001095290251916758
s(g660
g661
S'of'
p1941
tp1942
F0.001095290251916758
s(S'[[prp]]'
p1943
S'son'
p1944
S'with'
p1945
tp1946
F0.001095290251916758
s(S'[[prp]]'
p1947
g1682
g1683
tp1948
F0.002190580503833516
s(S'[[det]]'
p1949
g57
g58
tp1950
F0.00547645125958379
s(S'has'
p1951
S'served'
p1952
S'to'
p1953
tp1954
F0.001095290251916758
s(g1173
g1174
S'cousin'
p1955
tp1956
F0.002190580503833516
s(S'[[prp]]'
p1957
S'sister'
p1958
S'[[con]]'
p1959
tp1960
F0.001095290251916758
s(S'later'
p1961
S'served'
p1962
S'[[con]]'
p1963
tp1964
F0.001095290251916758
s(g1123
g1124
S'son'
p1965
tp1966
F0.001095290251916758
s(S'elder'
p1967
S'brother'
p1968
S'of'
p1969
tp1970
F0.002190580503833516
s(S'younger'
p1971
S'brother'
p1972
S'to'
p1973
tp1974
F0.002190580503833516
s(g17
S'mother'
p1975
S'[[det]]'
p1976
tp1977
F0.001095290251916758
s(S'[[prp]]'
p1978
S'son'
p1979
S'[[det]]'
p1980
tp1981
F0.001095290251916758
s(g17
S'son'
p1982
S'of'
p1983
tp1984
F0.001095290251916758
s(S'whose'
p1985
S'mother'
p1986
S'was'
p1987
tp1988
F0.001095290251916758
s(S'son'
p1989
S'[[con]]'
p1990
S'son'
p1991
tp1992
F0.001095290251916758
s(g1291
g1452
S'of'
p1993
tp1994
F0.0065717415115005475
s(S'[[det]]'
p1995
S'father'
p1996
S'was'
p1997
tp1998
F0.001095290251916758
s(S'was'
p1999
S'named'
p2000
S'with'
p2001
tp2002
F0.001095290251916758
s(S'[[adj]]'
p2003
S'son'
p2004
S'by'
p2005
tp2006
F0.001095290251916758
s(g1706
S'daughter'
p2007
S'of'
p2008
tp2009
F0.002190580503833516
s(S'[[con]]'
p2010
S'named'
p2011
S'[[det]]'
p2012
tp2013
F0.001095290251916758
s(g17
S'family'
p2014
S'[[con]]'
p2015
tp2016
F0.001095290251916758
s(S'had'
p2017
S'served'
p2018
S'under'
p2019
tp2020
F0.001095290251916758
s(S'brother'
p2021
g928
g929
tp2022
F0.001095290251916758
s(S'[[det]]'
p2023
S'brother'
p2024
S'[[con]]'
p2025
tp2026
F0.0065717415115005475
s(g17
g439
g440
tp2027
F0.0032858707557502738
s(S'was'
p2028
S'married'
p2029
S'[[det]]'
p2030
tp2031
F0.001095290251916758
s(g17
S'mother'
p2032
S'[[con]]'
p2033
tp2034
F0.001095290251916758
s(S'was'
p2035
S'born'
p2036
S'to'
p2037
tp2038
F0.001095290251916758
s(S'also'
p2039
S'named'
p2040
S'[[det]]'
p2041
tp2042
F0.001095290251916758
s(S'where'
p2043
S'served'
p2044
S'as'
p2045
tp2046
F0.001095290251916758
s(S'been'
p2047
S'born'
p2048
S'[[det]]'
p2049
tp2050
F0.001095290251916758
s(S'was'
p2051
S'born'
p2052
S'son'
p2053
tp2054
F0.001095290251916758
s(S'has'
p2055
S'named'
p2056
S'[[con]]'
p2057
tp2058
F0.001095290251916758
s(S'was'
p2059
g878
g879
tp2060
F0.0065717415115005475
s(S'also'
p2061
S'served'
p2062
S'after'
p2063
tp2064
F0.001095290251916758
s(S'brother'
p2065
g1507
g1508
tp2066
F0.001095290251916758
s(S'[[det]]'
p2067
g1067
g1068
tp2068
F0.002190580503833516
s(S'son'
p2069
g1656
g1657
tp2070
F0.002190580503833516
s(S'later'
p2071
S'served'
p2072
S'under'
p2073
tp2074
F0.001095290251916758
s(S'was'
p2075
S'father'
p2076
S'of'
p2077
tp2078
F0.001095290251916758
s(S'[[adj]]'
p2079
S'mother'
p2080
S'[[con]]'
p2081
tp2082
F0.001095290251916758
s(S'was'
p2083
S'sister'
p2084
S'to'
p2085
tp2086
F0.001095290251916758
s(S'once'
p2087
S'served'
p2088
S'as'
p2089
tp2090
F0.001095290251916758
s(S'son'
p2091
S'[[det]]'
p2092
S'brother'
p2093
tp2094
F0.002190580503833516
s(g17
S'mother'
p2095
S'who'
p2096
tp2097
F0.001095290251916758
s(S'brother'
p2098
S'[[con]]'
p2099
S'son'
p2100
tp2101
F0.002190580503833516
s(g879
g880
S'son'
p2102
tp2103
F0.004381161007667032
s(g17
S'father'
p2104
S'was'
p2105
tp2106
F0.001095290251916758
s(S'[[det]]'
p2107
S'sister'
p2108
S'of'
p2109
tp2110
F0.001095290251916758
s(g1705
g1706
g2007
tp2111
F0.001095290251916758
s(S'[[det]]'
p2112
S'son'
p2113
S'[[pro]]'
p2114
tp2115
F0.001095290251916758
s(S'[[adj]]'
p2116
S'son'
p2117
S'to'
p2118
tp2119
F0.001095290251916758
s(g517
g518
S'son'
p2120
tp2121
F0.001095290251916758
s(S'[[adj]]'
p2122
S'nephew'
p2123
S'of'
p2124
tp2125
F0.001095290251916758
s(S'married'
p2126
g1816
g1817
tp2127
F0.001095290251916758
s(g17
S'sister'
p2128
S'[[con]]'
p2129
tp2130
F0.001095290251916758
s(S'where'
p2131
S'served'
p2132
S'under'
p2133
tp2134
F0.001095290251916758
s(S'[[adj]]'
p2135
S'son'
p2136
S'was'
p2137
tp2138
F0.001095290251916758
s(S'[[adj]]'
p2139
S'served'
p2140
S'for'
p2141
tp2142
F0.001095290251916758
s(S'was'
p2143
S'named'
p2144
S'[[adj]]'
p2145
tp2146
F0.001095290251916758
s(S'[[det]]'
p2147
S'daughter'
p2148
S'[[det]]'
p2149
tp2150
F0.001095290251916758
s(g348
g349
S'cousin'
p2151
tp2152
F0.002190580503833516
s(S'had'
p2153
S'married'
p2154
S'[[prp]]'
p2155
tp2156
F0.001095290251916758
s(S'then'
p2157
S'served'
p2158
S'under'
p2159
tp2160
F0.001095290251916758
s(S'[[num]]'
p2161
S'son'
p2162
S'[[con]]'
p2163
tp2164
F0.001095290251916758
s(S'[[adj]]'
p2165
S'cousin'
p2166
S'[[det]]'
p2167
tp2168
F0.001095290251916758
s(g1748
g1749
S'son'
p2169
tp2170
F0.001095290251916758
s(S'[[mod]]'
p2171
S'join'
p2172
S'[[adj]]'
p2173
tp2174
F0.001095290251916758
s(S'[[adj]]'
p2175
S'younger'
p2176
S'brother'
p2177
tp2178
F0.001095290251916758
s(S'[[adj]]'
p2179
S'cousin'
p2180
S'[[num]]'
p2181
tp2182
F0.001095290251916758
s(S'was'
p2183
S'mother'
p2184
S'of'
p2185
tp2186
F0.001095290251916758
s(g633
g634
S'daughter'
p2187
tp2188
F0.0032858707557502738
s(g152
g153
S'grandson'
p2189
tp2190
F0.001095290251916758
s(S'later'
p2191
S'named'
p2192
S'by'
p2193
tp2194
F0.001095290251916758
s(S'[[prp]]'
p2195
S'uncle'
p2196
S'[[con]]'
p2197
tp2198
F0.001095290251916758
s(S'[[prp]]'
p2199
S'daughter'
p2200
S'to'
p2201
tp2202
F0.001095290251916758
s(S'[[num]]'
p2203
S'son'
p2204
S'by'
p2205
tp2206
F0.001095290251916758
s.