(dp0
(S'was'
p1
S'grandson'
p2
S'of'
p3
tp4
F0.0024509803921568627
s(S'[[adj]]'
p5
S'son'
p6
S'of'
p7
tp8
F0.004901960784313725
s(S'[[adj]]'
p9
S'sister'
p10
S'of'
p11
tp12
F0.0024509803921568627
s(S'[[num]]'
p13
S'older'
p14
S'sisters'
p15
tp16
F0.004901960784313725
s(S'[[prp]]'
p17
S'son'
p18
S'who'
p19
tp20
F0.0024509803921568627
s(S'[[adj]]'
p21
S'daughter'
p22
S'[[con]]'
p23
tp24
F0.0024509803921568627
s(S'often'
p25
S'seen'
p26
S'as'
p27
tp28
F0.0024509803921568627
s(S'[[prp]]'
p29
S'son'
p30
S'to'
p31
tp32
F0.0024509803921568627
s(S'was'
p33
S'son'
p34
S'by'
p35
tp36
F0.0024509803921568627
s(S'[[det]]'
p37
S'brother'
p38
S'[[num]]'
p39
tp40
F0.0024509803921568627
s(S'[[adj]]'
p41
S'seen'
p42
S'with'
p43
tp44
F0.0024509803921568627
s(S'[[det]]'
p45
S'son'
p46
S'[[det]]'
p47
tp48
F0.004901960784313725
s(S'younger'
p49
S'brother'
p50
S'[[con]]'
p51
tp52
F0.007352941176470588
s(S's'
p53
S'son'
p54
S'[[det]]'
p55
tp56
F0.0024509803921568627
s(S'of'
p57
S'actors'
p58
S'[[con]]'
p59
tp60
F0.0024509803921568627
s(S'[[con]]'
p61
S'nephew'
p62
S'of'
p63
tp64
F0.0024509803921568627
s(S'[[det]]'
p65
S'father'
p66
S'to'
p67
tp68
F0.0024509803921568627
s(S'was'
p69
S'sister'
p70
S'to'
p71
tp72
F0.0024509803921568627
s(g53
S'daughter'
p73
S'who'
p74
tp75
F0.0024509803921568627
s(S'[[pro]]'
p76
S'son'
p77
S'of'
p78
tp79
F0.0024509803921568627
s(S'was'
p80
S'seen'
p81
S'to'
p82
tp83
F0.0024509803921568627
s(S'was'
p84
S'mother'
p85
S'to'
p86
tp87
F0.0024509803921568627
s(g53
S'brother'
p88
S'in'
p89
tp90
F0.0024509803921568627
s(S'[[con]]'
p91
S'tells'
p92
S'[[det]]'
p93
tp94
F0.0024509803921568627
s(S'later'
p95
S'tells'
p96
S'[[pro]]'
p97
tp98
F0.0024509803921568627
s(S'had'
p99
S'seen'
p100
S'[[con]]'
p101
tp102
F0.0024509803921568627
s(S'[[con]]'
p103
S'[[det]]'
p104
S'son'
p105
tp106
F0.0024509803921568627
s(S'[[det]]'
p107
S'older'
p108
S'[[con]]'
p109
tp110
F0.0024509803921568627
s(S'[[prp]]'
p111
S'son'
p112
S'was'
p113
tp114
F0.0024509803921568627
s(S'[[adj]]'
p115
S'sister'
p116
S'who'
p117
tp118
F0.0024509803921568627
s(S'[[det]]'
p119
S'son'
p120
S'with'
p121
tp122
F0.0024509803921568627
s(S'[[prp]]'
p123
S'daughter'
p124
S'[[adj]]'
p125
tp126
F0.0024509803921568627
s(S'[[det]]'
p127
S'brother'
p128
S'had'
p129
tp130
F0.0024509803921568627
s(S'[[num]]'
p131
S'younger'
p132
S'siblings'
p133
tp134
F0.004901960784313725
s(S'[[prp]]'
p135
S'nephew'
p136
S'[[con]]'
p137
tp138
F0.0024509803921568627
s(S'is'
p139
S'son'
p140
S'of'
p141
tp142
F0.0024509803921568627
s(S'is'
p143
S'father'
p144
S'to'
p145
tp146
F0.0024509803921568627
s(S'brother'
p147
S'[[det]]'
p148
S'son'
p149
tp150
F0.0024509803921568627
s(S'[[con]]'
p151
S'brother'
p152
S'of'
p153
tp154
F0.00980392156862745
s(S'[[adj]]'
p155
S'brother'
p156
S'of'
p157
tp158
F0.004901960784313725
s(S'[[adj]]'
p159
S'brother'
p160
S'to'
p161
tp162
F0.004901960784313725
s(S'[[det]]'
p163
S'son'
p164
S'later'
p165
tp166
F0.0024509803921568627
s(S'[[prp]]'
p167
S'son'
p168
S'[[con]]'
p169
tp170
F0.0024509803921568627
s(S'to'
p171
S'daughter'
p172
S'of'
p173
tp174
F0.0024509803921568627
s(S'[[prp]]'
p175
S'daughter'
p176
S'was'
p177
tp178
F0.0024509803921568627
s(g53
S'daughter'
p179
S'with'
p180
tp181
F0.0024509803921568627
s(S'[[det]]'
p182
S'father'
p183
S'[[con]]'
p184
tp185
F0.0024509803921568627
s(S'[[adj]]'
p186
S'brother'
p187
S'in'
p188
tp189
F0.0024509803921568627
s(S'son'
p190
S'of'
p191
S'brother'
p192
tp193
F0.0024509803921568627
s(S'had'
p194
S'seen'
p195
S'[[det]]'
p196
tp197
F0.0024509803921568627
s(S'[[prp]]'
p198
S'brothers'
p199
S'were'
p200
tp201
F0.0024509803921568627
s(S'with'
p202
S'younger'
p203
S'brother'
p204
tp205
F0.0024509803921568627
s(S'was'
p206
S'son'
p207
S'of'
p208
tp209
F0.0024509803921568627
s(g53
S'son'
p210
S'in'
p211
tp212
F0.0024509803921568627
s(S'[[det]]'
p213
S'father'
p214
S'[[num]]'
p215
tp216
F0.0024509803921568627
s(S'[[adj]]'
p217
S'son'
p218
S'with'
p219
tp220
F0.0024509803921568627
s(S'was'
p221
S'brother'
p222
S'to'
p223
tp224
F0.0024509803921568627
s(S'[[det]]'
p225
S'mother'
p226
S'[[con]]'
p227
tp228
F0.0024509803921568627
s(S'[[det]]'
p229
S'oldest'
p230
S'of'
p231
tp232
F0.0024509803921568627
s(g53
S'daughter'
p233
S'to'
p234
tp235
F0.0024509803921568627
s(g53
S'brother'
p236
S'of'
p237
tp238
F0.0024509803921568627
s(S'is'
p239
S'seen'
p240
S'with'
p241
tp242
F0.0024509803921568627
s(S'[[det]]'
p243
S'brother'
p244
S'of'
p245
tp246
F0.012254901960784314
s(S'[[det]]'
p247
S'brother'
p248
S'[[adj]]'
p249
tp250
F0.0024509803921568627
s(S'[[det]]'
p251
S'son'
p252
S'by'
p253
tp254
F0.0024509803921568627
s(S'[[prp]]'
p255
S'daughter'
p256
S'[[con]]'
p257
tp258
F0.0024509803921568627
s(S'as'
p259
S'seen'
p260
S'when'
p261
tp262
F0.0024509803921568627
s(S'[[det]]'
p263
S'oldest'
p264
S'[[con]]'
p265
tp266
F0.0024509803921568627
s(S'[[det]]'
p267
S'grandson'
p268
S'of'
p269
tp270
F0.0024509803921568627
s(S'[[det]]'
p271
S'daughter'
p272
S'of'
p273
tp274
F0.0024509803921568627
s(S'missing'
p275
S'[[con]]'
p276
S'[[num]]'
p277
tp278
F0.0024509803921568627
s(S'only'
p279
S'son'
p280
S'of'
p281
tp282
F0.0024509803921568627
s(S'[[adj]]'
p283
S'brothers'
p284
S'[[det]]'
p285
tp286
F0.0024509803921568627
s(S'is'
p287
g275
g276
tp288
F0.0024509803921568627
s(S'younger'
p289
S'brother'
p290
S'[[det]]'
p291
tp292
F0.004901960784313725
s(S'[[det]]'
p293
S'son'
p294
S'[[con]]'
p295
tp296
F0.014705882352941176
s(S'[[con]]'
p297
S'grandson'
p298
S'of'
p299
tp300
F0.0024509803921568627
s(g53
S'cousin'
p301
S'[[det]]'
p302
tp303
F0.0024509803921568627
s(S'be'
p304
S'seen'
p305
S'[[adj]]'
p306
tp307
F0.0024509803921568627
s(S'[[det]]'
p308
S'cousin'
p309
S'[[det]]'
p310
tp311
F0.0024509803921568627
s(S'[[adj]]'
p312
S'daughter'
p313
S'by'
p314
tp315
F0.0024509803921568627
s(S'[[adj]]'
p316
S'son'
p317
S'who'
p318
tp319
F0.0024509803921568627
s(S'[[adj]]'
p320
S'oldest'
p321
S'[[adj]]'
p322
tp323
F0.0024509803921568627
s(g53
S'father'
p324
S'[[con]]'
p325
tp326
F0.0024509803921568627
s(g53
S'mother'
p327
S'that'
p328
tp329
F0.0024509803921568627
s(S'is'
p330
S'father'
p331
S'[[con]]'
p332
tp333
F0.0024509803921568627
s(S'[[det]]'
p334
S'daughter'
p335
S'[[pro]]'
p336
tp337
F0.0024509803921568627
s(S'[[det]]'
p338
S'sister'
p339
S'to'
p340
tp341
F0.0024509803921568627
s(S'[[prp]]'
p342
S'son'
p343
S'by'
p344
tp345
F0.0024509803921568627
s(S'[[adj]]'
p346
S'cousin'
p347
S'to'
p348
tp349
F0.0024509803921568627
s(S'of'
p350
S'[[prp]]'
p351
S'brother'
p352
tp353
F0.0024509803921568627
s(S'had'
p354
S'seen'
p355
S'since'
p356
tp357
F0.0024509803921568627
s(S'son'
p358
g350
g351
tp359
F0.0024509803921568627
s(S'was'
p360
S'nephew'
p361
S'of'
p362
tp363
F0.0024509803921568627
s(S'[[det]]'
p364
S'brother'
p365
S'who'
p366
tp367
F0.0024509803921568627
s(g53
S'father'
p368
S'[[num]]'
p369
tp370
F0.0024509803921568627
s(S'[[det]]'
p371
S'daughter'
p372
S'[[con]]'
p373
tp374
F0.0024509803921568627
s(g53
S'mother'
p375
S'[[con]]'
p376
tp377
F0.0024509803921568627
s(S'[[num]]'
p378
S'brothers'
p379
S'[[con]]'
p380
tp381
F0.0024509803921568627
s(S'[[num]]'
p382
S'brothers'
p383
S'[[det]]'
p384
tp385
F0.0024509803921568627
s(S'son'
p386
S'brother'
p387
S'of'
p388
tp389
F0.004901960784313725
s(S'[[prp]]'
p390
S'father'
p391
g53
tp392
F0.0024509803921568627
s(S'son'
p393
S'of'
p394
S'[[adj]]'
p395
tp396
F0.0024509803921568627
s(g53
S'younger'
p397
S'brother'
p398
tp399
F0.007352941176470588
s(g53
S'father'
p400
S'[[det]]'
p401
tp402
F0.0024509803921568627
s(S'was'
p403
S'sister'
p404
S'of'
p405
tp406
F0.0024509803921568627
s(g53
S'son'
p407
S'[[num]]'
p408
tp409
F0.0024509803921568627
s(S'[[prp]]'
p410
S'brother'
p411
S'who'
p412
tp413
F0.0024509803921568627
s(S'[[con]]'
p414
S'father'
p415
S'of'
p416
tp417
F0.0024509803921568627
s(S'was'
p418
S'daughter'
p419
S'of'
p420
tp421
F0.0024509803921568627
s(g53
S'daughter'
p422
S'[[det]]'
p423
tp424
F0.0024509803921568627
s(S'[[det]]'
p425
S'brother'
p426
S'[[det]]'
p427
tp428
F0.004901960784313725
s(g53
S'brother'
p429
S'who'
p430
tp431
F0.0024509803921568627
s(S'[[con]]'
p432
S'tells'
p433
S'[[prp]]'
p434
tp435
F0.0024509803921568627
s(S'[[con]]'
p436
S'daughter'
p437
S'of'
p438
tp439
F0.0024509803921568627
s(g53
S'father'
p440
S'of'
p441
tp442
F0.0024509803921568627
s(S'was'
p443
S'son'
p444
S'to'
p445
tp446
F0.0024509803921568627
s(S'[[adj]]'
p447
S'son'
p448
S'[[adj]]'
p449
tp450
F0.0024509803921568627
s(S'[[con]]'
p451
S'mother'
p452
S'of'
p453
tp454
F0.0024509803921568627
s(S'first'
p455
S'seen'
p456
S'in'
p457
tp458
F0.0024509803921568627
s(S'younger'
p459
S'brother'
p460
S'of'
p461
tp462
F0.004901960784313725
s(S'[[adj]]'
p463
S'father'
p464
S'in'
p465
tp466
F0.0024509803921568627
s(g53
S'son'
p467
S'[[adj]]'
p468
tp469
F0.0024509803921568627
s(S'also'
p470
S'tells'
p471
S'[[pro]]'
p472
tp473
F0.0024509803921568627
s(S'[[det]]'
p474
S'grandson'
p475
S'[[con]]'
p476
tp477
F0.0024509803921568627
s(S'[[num]]'
p478
S'daughter'
p479
S'of'
p480
tp481
F0.0024509803921568627
s(S'also'
p482
S'tells'
p483
S'of'
p484
tp485
F0.0024509803921568627
s(g53
S'father'
p486
S'as'
p487
tp488
F0.0024509803921568627
s(S'[[adj]]'
p489
S'son'
p490
S'[[det]]'
p491
tp492
F0.004901960784313725
s(S'[[det]]'
p493
S'cousin'
p494
S'who'
p495
tp496
F0.0024509803921568627
s(S'[[adj]]'
p497
S'seen'
p498
S'by'
p499
tp500
F0.0024509803921568627
s(S'[[num]]'
p501
S'brother'
p502
S'[[con]]'
p503
tp504
F0.0024509803921568627
s(g53
S'daughter'
p505
S'in'
p506
tp507
F0.0024509803921568627
s(S'younger'
p508
S'brother'
p509
S'who'
p510
tp511
F0.0024509803921568627
s(S'[[adj]]'
p512
S'mother'
p513
S'of'
p514
tp515
F0.0024509803921568627
s(g53
S'brother'
p516
S'[[det]]'
p517
tp518
F0.0024509803921568627
s(S'[[det]]'
p519
S'son'
p520
S'to'
p521
tp522
F0.0024509803921568627
s(S'sister'
p523
S'of'
p524
S'actors'
p525
tp526
F0.004901960784313725
s(S'[[pro]]'
p527
S'younger'
p528
S'brother'
p529
tp530
F0.0024509803921568627
s(S'[[det]]'
p531
S'cousin'
p532
S'of'
p533
tp534
F0.0024509803921568627
s(S'[[det]]'
p535
S'son'
p536
S'[[adj]]'
p537
tp538
F0.0024509803921568627
s(g53
S'sister'
p539
S'who'
p540
tp541
F0.0024509803921568627
s(S'had'
p542
S'seen'
p543
S'to'
p544
tp545
F0.0024509803921568627
s(S'[[prp]]'
p546
S'father'
p547
S'[[det]]'
p548
tp549
F0.0024509803921568627
s(S'son'
p550
S'[[con]]'
p551
S'[[adj]]'
p552
tp553
F0.0024509803921568627
s(S'[[det]]'
p554
S'daughter'
p555
S'by'
p556
tp557
F0.0024509803921568627
s(S'[[adj]]'
p558
S'son'
p559
S'in'
p560
tp561
F0.0024509803921568627
s(S'is'
p562
S'cousin'
p563
S'to'
p564
tp565
F0.0024509803921568627
s(S'[[prp]]'
p566
S'father'
p567
S'[[con]]'
p568
tp569
F0.0024509803921568627
s(S'[[adj]]'
p570
S'grandson'
p571
S'of'
p572
tp573
F0.0024509803921568627
s(S'[[prp]]'
p574
S'brother'
p575
S'[[det]]'
p576
tp577
F0.0024509803921568627
s(g53
S'younger'
p578
S'siblings'
p579
tp580
F0.004901960784313725
s(g53
S'grandson'
p581
S'[[con]]'
p582
tp583
F0.0024509803921568627
s(S'was'
p584
S'brother'
p585
S'[[con]]'
p586
tp587
F0.0024509803921568627
s(g53
S'brother'
p588
S'[[con]]'
p589
tp590
F0.004901960784313725
s(S'is'
p591
S'brother'
p592
S'of'
p593
tp594
F0.0024509803921568627
s(S'[[det]]'
p595
S'father'
p596
S'of'
p597
tp598
F0.0024509803921568627
s(S'younger'
p599
S'brother'
p600
S'to'
p601
tp602
F0.004901960784313725
s(S'[[prp]]'
p603
S'brothers'
p604
S'[[con]]'
p605
tp606
F0.0024509803921568627
s(S'was'
p607
S'seen'
p608
S'as'
p609
tp610
F0.0024509803921568627
s(S'with'
p611
S'son'
p612
S'of'
p613
tp614
F0.0024509803921568627
s(g53
S'brother'
p615
S'[[num]]'
p616
tp617
F0.0024509803921568627
s(S'only'
p618
S'daughter'
p619
S'of'
p620
tp621
F0.0024509803921568627
s(S'[[adj]]'
p622
S'brothers'
p623
S'[[num]]'
p624
tp625
F0.0024509803921568627
s(S'be'
p626
S'seen'
p627
S'[[con]]'
p628
tp629
F0.0024509803921568627
s(S'was'
p630
S'seen'
p631
S'by'
p632
tp633
F0.0024509803921568627
s(S'[[det]]'
p634
S'daughter'
p635
S'[[num]]'
p636
tp637
F0.0024509803921568627
s(S'[[det]]'
p638
S'cousin'
p639
S'[[con]]'
p640
tp641
F0.0024509803921568627
s(S'[[prp]]'
p642
S'cousin'
p643
S'[[con]]'
p644
tp645
F0.0024509803921568627
s(S'had'
p646
S'seen'
p647
S'in'
p648
tp649
F0.0024509803921568627
s(S'[[con]]'
p650
S'brother'
p651
S'[[con]]'
p652
tp653
F0.0024509803921568627
s(g53
S'sister'
p654
S'[[adj]]'
p655
tp656
F0.0024509803921568627
s(S'[[det]]'
p657
S'younger'
p658
S'brother'
p659
tp660
F0.01715686274509804
s(S'[[num]]'
p661
S'younger'
p662
S'brother'
p663
tp664
F0.0024509803921568627
s(g53
S'daughter'
p665
S'[[con]]'
p666
tp667
F0.0024509803921568627
s(S'son'
p668
S'[[con]]'
p669
S'brother'
p670
tp671
F0.014705882352941176
s(S'[[adj]]'
p672
S'mother'
p673
S'[[con]]'
p674
tp675
F0.0024509803921568627
s(S'is'
p676
S'son'
p677
S'[[con]]'
p678
tp679
F0.0024509803921568627
s(S'[[det]]'
p680
S'sister'
p681
S'[[num]]'
p682
tp683
F0.0024509803921568627
s(S'be'
p684
S'seen'
p685
S'to'
p686
tp687
F0.0024509803921568627
s(S'was'
p688
S'seen'
p689
S'[[adj]]'
p690
tp691
F0.0024509803921568627
s(S'[[prp]]'
p692
S'son'
p693
S'with'
p694
tp695
F0.0024509803921568627
s(S'[[adj]]'
p696
S'daughter'
p697
S'of'
p698
tp699
F0.0024509803921568627
s(S'[[prp]]'
p700
g49
g50
tp701
F0.004901960784313725
s(S'was'
p702
S'father'
p703
S'to'
p704
tp705
F0.0024509803921568627
s(S'[[con]]'
p706
S'sister'
p707
S'of'
p708
tp709
F0.0024509803921568627
s(S'[[det]]'
p710
S'son'
p711
S'was'
p712
tp713
F0.0024509803921568627
s(S'is'
p714
S'older'
p715
S'than'
p716
tp717
F0.0024509803921568627
s(S'[[prp]]'
p718
S'sister'
p719
S'[[con]]'
p720
tp721
F0.0024509803921568627
s(S'[[det]]'
p722
S'sister'
p723
S'[[con]]'
p724
tp725
F0.0024509803921568627
s(g53
S'nephew'
p726
S'[[con]]'
p727
tp728
F0.0024509803921568627
s(S'had'
p729
S'seen'
p730
S'[[prp]]'
p731
tp732
F0.0024509803921568627
s(S'is'
p733
S'seen'
p734
S'to'
p735
tp736
F0.0024509803921568627
s(S'was'
p737
S'seen'
p738
S'with'
p739
tp740
F0.0024509803921568627
s(S'also'
p741
S'seen'
p742
S'[[adj]]'
p743
tp744
F0.0024509803921568627
s(g53
S'son'
p745
S'who'
p746
tp747
F0.0024509803921568627
s(S'[[det]]'
p748
S'son'
p749
S'who'
p750
tp751
F0.0024509803921568627
s(S'[[prp]]'
p752
S'brother'
p753
S'was'
p754
tp755
F0.0024509803921568627
s(S'was'
p756
S'mother'
p757
S'of'
p758
tp759
F0.0024509803921568627
s(g53
S'son'
p760
S'of'
p761
tp762
F0.0024509803921568627
s(S'is'
p763
S'daughter'
p764
S'of'
p765
tp766
F0.0024509803921568627
s(g53
S'mother'
p767
S'[[det]]'
p768
tp769
F0.0024509803921568627
s(S'[[prp]]'
p770
S'son'
p771
S'[[det]]'
p772
tp773
F0.0024509803921568627
s(g53
S'son'
p774
S'as'
p775
tp776
F0.0024509803921568627
s(S'[[prp]]'
p777
S'brother'
p778
S'[[adj]]'
p779
tp780
F0.0024509803921568627
s(S'[[num]]'
p781
S'brothers'
p782
S'[[num]]'
p783
tp784
F0.0024509803921568627
s(S'whose'
p785
S'mother'
p786
S'was'
p787
tp788
F0.0024509803921568627
s(S'son'
p789
S'[[con]]'
p790
S'son'
p791
tp792
F0.0024509803921568627
s(S'[[adj]]'
p793
S'younger'
p794
S'brother'
p795
tp796
F0.0024509803921568627
s(S'[[adj]]'
p797
S'brothers'
p798
S'[[con]]'
p799
tp800
F0.0024509803921568627
s(S'[[det]]'
p801
S'father'
p802
S'was'
p803
tp804
F0.0024509803921568627
s(g53
S'nephew'
p805
S'[[det]]'
p806
tp807
F0.0024509803921568627
s(S'[[prp]]'
p808
S'brother'
p809
S'to'
p810
tp811
F0.0024509803921568627
s(S'[[adj]]'
p812
S'son'
p813
S'by'
p814
tp815
F0.0024509803921568627
s(S'brother'
p816
g103
g104
tp817
F0.0024509803921568627
s(S'[[pro]]'
p818
S'son'
p819
S'as'
p820
tp821
F0.0024509803921568627
s(S'[[det]]'
p822
S'son'
p823
S'[[num]]'
p824
tp825
F0.0024509803921568627
s(S'younger'
p826
S'brother'
p827
S'[[pro]]'
p828
tp829
F0.0024509803921568627
s(S'been'
p830
S'seen'
p831
S'with'
p832
tp833
F0.0024509803921568627
s(S'[[prp]]'
p834
S'daughter'
p835
S'[[det]]'
p836
tp837
F0.0024509803921568627
s(g53
S'son'
p838
S'with'
p839
tp840
F0.0024509803921568627
s(S'son'
p841
S'of'
p842
S'[[con]]'
p843
tp844
F0.0024509803921568627
s(g578
g579
S'[[con]]'
p845
tp846
F0.004901960784313725
s(S'[[det]]'
p847
S'father'
p848
S'[[det]]'
p849
tp850
F0.0024509803921568627
s(S'[[prp]]'
p851
S'son'
p852
S'is'
p853
tp854
F0.0024509803921568627
s(S'[[det]]'
p855
S'son'
p856
S'of'
p857
tp858
F0.01715686274509804
s(S'[[adj]]'
p859
S'daughter'
p860
S'[[det]]'
p861
tp862
F0.0024509803921568627
s(S'[[prp]]'
p863
S'father'
p864
S'[[num]]'
p865
tp866
F0.0024509803921568627
s(S'[[adj]]'
p867
S'father'
p868
S'of'
p869
tp870
F0.0024509803921568627
s(S'[[det]]'
p871
S'brother'
p872
S'to'
p873
tp874
F0.0024509803921568627
s(S'[[adj]]'
p875
S'seen'
p876
S'when'
p877
tp878
F0.0024509803921568627
s(g53
S'grandson'
p879
S'[[det]]'
p880
tp881
F0.0024509803921568627
s(S'[[con]]'
p882
S'tells'
p883
S'that'
p884
tp885
F0.0024509803921568627
s(S'be'
p886
S'seen'
p887
S'in'
p888
tp889
F0.0024509803921568627
s(S'[[det]]'
p890
S'daughter'
p891
S'with'
p892
tp893
F0.0024509803921568627
s(S'was'
p894
S'brother'
p895
S'of'
p896
tp897
F0.0024509803921568627
s(S'[[det]]'
p898
S'brothers'
p899
S'[[con]]'
p900
tp901
F0.0024509803921568627
s(S'[[prp]]'
p902
S'mother'
p903
S'[[con]]'
p904
tp905
F0.0024509803921568627
s(S'[[det]]'
p906
S'cousin'
p907
S'to'
p908
tp909
F0.0024509803921568627
s(S'[[num]]'
p910
S'son'
p911
S'of'
p912
tp913
F0.0024509803921568627
s(g53
S'mother'
p914
S'of'
p915
tp916
F0.0024509803921568627
s(S'[[det]]'
p917
S'mother'
p918
S'of'
p919
tp920
F0.0024509803921568627
s(g53
S'father'
p921
S'to'
p922
tp923
F0.0024509803921568627
s(g53
S'cousin'
p924
S'[[num]]'
p925
tp926
F0.0024509803921568627
s(S'[[adj]]'
p927
S'cousin'
p928
S'of'
p929
tp930
F0.0024509803921568627
s(g53
S'brother'
p931
S'[[pro]]'
p932
tp933
F0.0024509803921568627
s(S'is'
p934
S'cousin'
p935
S'of'
p936
tp937
F0.0024509803921568627
s(S'[[det]]'
p938
S'mother'
p939
S'from'
p940
tp941
F0.0024509803921568627
s(S'was'
p942
S'son'
p943
S'[[con]]'
p944
tp945
F0.004901960784313725
s(S'[[det]]'
p946
S'daughter'
p947
S'who'
p948
tp949
F0.0024509803921568627
s(g503
S'younger'
p950
S'brother'
p951
tp952
F0.0024509803921568627
s(S'[[num]]'
p953
S'daughter'
p954
S'[[con]]'
p955
tp956
F0.0024509803921568627
s(S'[[det]]'
p957
S'son'
p958
S'became'
p959
tp960
F0.0024509803921568627
s(S'[[det]]'
p961
S'nephew'
p962
S'who'
p963
tp964
F0.0024509803921568627
s(S'was'
p965
S'father'
p966
S'of'
p967
tp968
F0.0024509803921568627
s(S'[[adj]]'
p969
S'son'
p970
S'[[pro]]'
p971
tp972
F0.0024509803921568627
s(g53
S'brothers'
p973
S'[[con]]'
p974
tp975
F0.0024509803921568627
s(S'[[det]]'
p976
S'father'
p977
S'in'
p978
tp979
F0.0024509803921568627
s(S'[[adj]]'
p980
S'son'
p981
S'brother'
p982
tp983
F0.0024509803921568627
s(S'[[det]]'
p984
g386
g387
tp985
F0.004901960784313725
s(S'[[prp]]'
p986
S'brother'
p987
S'[[con]]'
p988
tp989
F0.0024509803921568627
s(S'[[prp]]'
p990
S'son'
p991
S'[[num]]'
p992
tp993
F0.0024509803921568627
s(S'then'
p994
S'tells'
p995
S'that'
p996
tp997
F0.0024509803921568627
s(S'[[det]]'
p998
S'sister'
p999
S'who'
p1000
tp1001
F0.0024509803921568627
s(S'[[det]]'
p1002
S'nephew'
p1003
S'of'
p1004
tp1005
F0.0024509803921568627
s(g53
S'daughter'
p1006
S'by'
p1007
tp1008
F0.0024509803921568627
s(g53
S'father'
p1009
S'who'
p1010
tp1011
F0.0024509803921568627
s(g53
S'son'
p1012
S'[[con]]'
p1013
tp1014
F0.007352941176470588
s(S'[[num]]'
p1015
S'son'
p1016
S'who'
p1017
tp1018
F0.0024509803921568627
s(S'son'
p1019
S'[[det]]'
p1020
S'brother'
p1021
tp1022
F0.004901960784313725
s(g53
S'mother'
p1023
S'who'
p1024
tp1025
F0.0024509803921568627
s(S'whose'
p1026
S'father'
p1027
S'was'
p1028
tp1029
F0.0024509803921568627
s(S'[[adj]]'
p1030
S'son'
p1031
S'[[con]]'
p1032
tp1033
F0.007352941176470588
s(S'brother'
p1034
S'[[con]]'
p1035
S'son'
p1036
tp1037
F0.004901960784313725
s(S'is'
p1038
S'brother'
p1039
S'to'
p1040
tp1041
F0.0024509803921568627
s(S'[[adj]]'
p1042
S'son'
p1043
S'later'
p1044
tp1045
F0.0024509803921568627
s(S'[[det]]'
p1046
S'sister'
p1047
S'of'
p1048
tp1049
F0.007352941176470588
s(S'[[adj]]'
p1050
S'seen'
p1051
S'at'
p1052
tp1053
F0.0024509803921568627
s(g53
S'son'
p1054
S'[[pro]]'
p1055
tp1056
F0.0024509803921568627
s(S'[[num]]'
p1057
S'son'
p1058
S'[[det]]'
p1059
tp1060
F0.0024509803921568627
s(S'[[det]]'
p1061
S'son'
p1062
S'[[pro]]'
p1063
tp1064
F0.0024509803921568627
s(S'[[adj]]'
p1065
S'son'
p1066
S'to'
p1067
tp1068
F0.0024509803921568627
s(g842
g843
S'brother'
p1069
tp1070
F0.0024509803921568627
s(g14
g15
S'[[con]]'
p1071
tp1072
F0.0024509803921568627
s(g53
S'father'
p1073
S'was'
p1074
tp1075
F0.0024509803921568627
s(S'[[det]]'
p1076
S'daughter'
p1077
S'to'
p1078
tp1079
F0.0024509803921568627
s(S'[[adj]]'
p1080
S'sister'
p1081
S'to'
p1082
tp1083
F0.0024509803921568627
s(S'[[con]]'
p1084
S'[[det]]'
p1085
S'brother'
p1086
tp1087
F0.004901960784313725
s(S'[[adj]]'
p1088
S'father'
p1089
S'[[con]]'
p1090
tp1091
F0.0024509803921568627
s(S'[[con]]'
p1092
S'tells'
p1093
S'[[pro]]'
p1094
tp1095
F0.0024509803921568627
s(S'then'
p1096
S'tells'
p1097
S'[[con]]'
p1098
tp1099
F0.0024509803921568627
s(S'[[adj]]'
p1100
S'nephew'
p1101
S'of'
p1102
tp1103
F0.0024509803921568627
s(S'[[det]]'
p1104
S'daughter'
p1105
S'[[adj]]'
p1106
tp1107
F0.0024509803921568627
s(S'[[pro]]'
p1108
S'brother'
p1109
S'[[con]]'
p1110
tp1111
F0.0024509803921568627
s(g53
S'sister'
p1112
S'[[con]]'
p1113
tp1114
F0.0024509803921568627
s(S'[[det]]'
p1115
S'nephew'
p1116
S'[[con]]'
p1117
tp1118
F0.0024509803921568627
s(S'[[adj]]'
p1119
S'son'
p1120
S'was'
p1121
tp1122
F0.0024509803921568627
s(S'[[det]]'
p1123
S'nephew'
p1124
S'[[det]]'
p1125
tp1126
F0.0024509803921568627
s(g53
S'son'
p1127
S'de'
p1128
tp1129
F0.0024509803921568627
s(g53
S'son'
p1130
S'by'
p1131
tp1132
F0.0024509803921568627
s(S'[[det]]'
p1133
S'daughter'
p1134
S'[[det]]'
p1135
tp1136
F0.0024509803921568627
s(S'is'
p1137
S'son'
p1138
S'to'
p1139
tp1140
F0.0024509803921568627
s(S'[[adj]]'
p1141
S'mother'
p1142
S'to'
p1143
tp1144
F0.0024509803921568627
s(S'[[con]]'
p1145
S'brother'
p1146
S'to'
p1147
tp1148
F0.007352941176470588
s(S'be'
p1149
S'seen'
p1150
S'by'
p1151
tp1152
F0.0024509803921568627
s(S'[[det]]'
p1153
S'son'
p1154
S'whom'
p1155
tp1156
F0.0024509803921568627
s(g53
S'son'
p1157
S'whom'
p1158
tp1159
F0.0024509803921568627
s(S'be'
p1160
S'seen'
p1161
S'as'
p1162
tp1163
F0.0024509803921568627
s(S'[[prp]]'
p1164
S'father'
p1165
S'was'
p1166
tp1167
F0.0024509803921568627
s(g276
g277
S'elder'
p1168
tp1169
F0.0024509803921568627
s(S'also'
p1170
S'seen'
p1171
S'with'
p1172
tp1173
F0.0024509803921568627
s(S'[[num]]'
p1174
S'son'
p1175
S'[[con]]'
p1176
tp1177
F0.0024509803921568627
s(S'[[det]]'
p1178
S'mother'
p1179
S'[[det]]'
p1180
tp1181
F0.0024509803921568627
s(S'[[adj]]'
p1182
S'cousin'
p1183
S'[[con]]'
p1184
tp1185
F0.0024509803921568627
s(S'[[det]]'
p1186
S'grandson'
p1187
S'[[det]]'
p1188
tp1189
F0.0024509803921568627
s(S'[[adj]]'
p1190
S'cousin'
p1191
S'[[det]]'
p1192
tp1193
F0.0024509803921568627
s(S'is'
p1194
S'seen'
p1195
S'[[adj]]'
p1196
tp1197
F0.0024509803921568627
s(g53
S'cousin'
p1198
S'[[con]]'
p1199
tp1200
F0.0024509803921568627
s(S'[[con]]'
p1201
S'son'
p1202
S'of'
p1203
tp1204
F0.004901960784313725
s(g394
g395
S'brother'
p1205
tp1206
F0.0024509803921568627
s(S'[[prp]]'
p1207
S'mother'
p1208
g53
tp1209
F0.0024509803921568627
s(S'son'
p1210
g1084
g1085
tp1211
F0.004901960784313725
s(S'son'
p1212
S'of'
p1213
S'son'
p1214
tp1215
F0.0024509803921568627
s(S'[[adj]]'
p1216
S'cousin'
p1217
S'[[num]]'
p1218
tp1219
F0.0024509803921568627
s(S'[[adj]]'
p1220
S'daughter'
p1221
S'[[adj]]'
p1222
tp1223
F0.0024509803921568627
s(S'[[det]]'
p1224
S'brother'
p1225
S'[[con]]'
p1226
tp1227
F0.007352941176470588
s(g502
g503
g950
tp1228
F0.0024509803921568627
s(S'is'
p1229
S'seen'
p1230
S'as'
p1231
tp1232
F0.0024509803921568627
s(S'is'
p1233
S'seen'
p1234
S'by'
p1235
tp1236
F0.0024509803921568627
s(g551
g552
S'brother'
p1237
tp1238
F0.0024509803921568627
s(S'was'
p1239
S'grandson'
p1240
S'to'
p1241
tp1242
F0.0024509803921568627
s(S'be'
p1243
S'seen'
p1244
S'with'
p1245
tp1246
F0.0024509803921568627
s(S'also'
p1247
S'seen'
p1248
S'[[det]]'
p1249
tp1250
F0.0024509803921568627
s(S'[[adj]]'
p1251
S'son'
p1252
S'de'
p1253
tp1254
F0.0024509803921568627
s(S'is'
p1255
S'mother'
p1256
S'of'
p1257
tp1258
F0.0024509803921568627
s(g53
S'sister'
p1259
S'[[det]]'
p1260
tp1261
F0.0024509803921568627
s(S'[[adj]]'
p1262
S'sister'
p1263
S'[[con]]'
p1264
tp1265
F0.0024509803921568627
s(S'[[prp]]'
p1266
S'daughter'
p1267
S'to'
p1268
tp1269
F0.0024509803921568627
s(S'[[det]]'
p1270
S'father'
p1271
S'when'
p1272
tp1273
F0.0024509803921568627
s(S'[[num]]'
p1274
S'son'
p1275
S'by'
p1276
tp1277
F0.0024509803921568627
s(S'[[adj]]'
p1278
S'son'
p1279
S'[[num]]'
p1280
tp1281
F0.0024509803921568627
s.