(dp0
(S'[[adj]]'
p1
S'ruler'
p2
S'in'
p3
tp4
F0.003194888178913738
s(S'[[det]]'
p5
S'city'
p6
S'of'
p7
tp8
F0.003194888178913738
s(S'later'
p9
S'traveled'
p10
S'to'
p11
tp12
F0.003194888178913738
s(S'who'
p13
S'settled'
p14
S'in'
p15
tp16
F0.003194888178913738
s(S'had'
p17
S'lived'
p18
S'in'
p19
tp20
F0.003194888178913738
s(S'be'
p21
S'buried'
p22
S'[[det]]'
p23
tp24
F0.003194888178913738
s(S'was'
p25
S'settled'
p26
S'in'
p27
tp28
F0.003194888178913738
s(S'currently'
p29
S'living'
p30
S'in'
p31
tp32
F0.003194888178913738
s(S'then'
p33
S'returned'
p34
S'in'
p35
tp36
F0.003194888178913738
s(S'were'
p37
S'married'
p38
S'in'
p39
tp40
F0.003194888178913738
s(S'is'
p41
S'buried'
p42
S'on'
p43
tp44
F0.003194888178913738
s(S'to'
p45
S'[[det]]'
p46
S'capital'
p47
tp48
F0.003194888178913738
s(S'[[mod]]'
p49
S'return'
p50
S'[[con]]'
p51
tp52
F0.003194888178913738
s(S'then'
p53
S'married'
p54
S'of'
p55
tp56
F0.003194888178913738
s(S'[[prp]]'
p57
S'capital'
p58
S'from'
p59
tp60
F0.003194888178913738
s(S'had'
p61
S'returned'
p62
S'to'
p63
tp64
F0.003194888178913738
s(S'[[num]]'
p65
S'lived'
p66
S'in'
p67
tp68
F0.003194888178913738
s(S'[[con]]'
p69
S'is'
p70
S'buried'
p71
tp72
F0.022364217252396165
s(S'[[adj]]'
p73
S'city'
p74
S'of'
p75
tp76
F0.003194888178913738
s(S'be'
p77
S'built'
p78
S'at'
p79
tp80
F0.003194888178913738
s(S'[[con]]'
p81
S'is'
p82
S'interred'
p83
tp84
F0.009584664536741214
s(S'had'
p85
S'died'
p86
S'at'
p87
tp88
F0.003194888178913738
s(S'[[det]]'
p89
S'return'
p90
S'[[con]]'
p91
tp92
F0.003194888178913738
s(S'then'
p93
S'settled'
p94
S'in'
p95
tp96
F0.003194888178913738
s(S'[[det]]'
p97
S'capital'
p98
S'from'
p99
tp100
F0.003194888178913738
s(S'is'
p101
S'buried'
p102
S'in'
p103
tp104
F0.019169329073482427
s(S'is'
p105
S'living'
p106
S'in'
p107
tp108
F0.003194888178913738
s(S'[[pro]]'
p109
S'returned'
p110
S'to'
p111
tp112
F0.003194888178913738
s(S'had'
p113
S'died'
p114
S'in'
p115
tp116
F0.003194888178913738
s(S'was'
p117
S'buried'
p118
S'at'
p119
tp120
F0.012779552715654952
s(S'was'
p121
S'buried'
p122
S'with'
p123
tp124
F0.003194888178913738
s(S'is'
p125
S'buried'
p126
S'at'
p127
tp128
F0.012779552715654952
s(S'who'
p129
S'remained'
p130
S'in'
p131
tp132
F0.003194888178913738
s(S'was'
p133
S'buried'
p134
S'in'
p135
tp136
F0.022364217252396165
s(S'[[adj]]'
p137
S'returned'
p138
S'to'
p139
tp140
F0.003194888178913738
s(S'[[con]]'
p141
S'was'
p142
S'interred'
p143
tp144
F0.012779552715654952
s(S'[[con]]'
p145
S'king'
p146
S'of'
p147
tp148
F0.003194888178913738
s(S'when'
p149
S'arrived'
p150
S'in'
p151
tp152
F0.003194888178913738
s(S'was'
p153
S'married'
p154
S'in'
p155
tp156
F0.003194888178913738
s(S'who'
p157
S'died'
p158
S'in'
p159
tp160
F0.003194888178913738
s(S'first'
p161
S'settled'
p162
S'in'
p163
tp164
F0.003194888178913738
s(S'[[prp]]'
p165
S'return'
p166
S'from'
p167
tp168
F0.003194888178913738
s(S'then'
p169
S'came'
p170
S'to'
p171
tp172
F0.003194888178913738
s(S'died'
p173
g69
g70
tp174
F0.03194888178913738
s(S'[[adj]]'
p175
S'king'
p176
S'of'
p177
tp178
F0.003194888178913738
s(S'[[con]]'
p179
S'lived'
p180
S'at'
p181
tp182
F0.003194888178913738
s(S'[[adj]]'
p183
S'lived'
p184
S'in'
p185
tp186
F0.003194888178913738
s(S'where'
p187
S'built'
p188
S'[[det]]'
p189
tp190
F0.003194888178913738
s(S'was'
p191
S'buried'
p192
S'on'
p193
tp194
F0.006389776357827476
s(S'there'
p195
S'is'
p196
S'buried'
p197
tp198
F0.003194888178913738
s(S'when'
p199
S'traveled'
p200
S'to'
p201
tp202
F0.003194888178913738
s(S'[[con]]'
p203
S'lived'
p204
S'in'
p205
tp206
F0.003194888178913738
s(S'also'
p207
S'built'
p208
S'[[num]]'
p209
tp210
F0.003194888178913738
s(S'[[det]]'
p211
S'ruler'
p212
S'[[det]]'
p213
tp214
F0.003194888178913738
s(S'[[con]]'
p215
S'built'
p216
S'[[det]]'
p217
tp218
F0.003194888178913738
s(g70
g71
S'there'
p219
tp220
F0.003194888178913738
s(S'[[con]]'
p221
S'died'
p222
S'in'
p223
tp224
F0.003194888178913738
s(S'died'
p225
S'on'
p226
S'is'
p227
tp228
F0.006389776357827476
s(S'[[con]]'
p229
S'arrived'
p230
S'in'
p231
tp232
F0.003194888178913738
s(S'[[adj]]'
p233
S'educated'
p234
S'in'
p235
tp236
F0.003194888178913738
s(S'then'
p237
S'traveled'
p238
S'on'
p239
tp240
F0.003194888178913738
s(S'moved'
p241
g45
g46
tp242
F0.003194888178913738
s(S'[[con]]'
p243
S'died'
p244
S'at'
p245
tp246
F0.003194888178913738
s(S'has'
p247
S'lived'
p248
S'[[con]]'
p249
tp250
F0.003194888178913738
s(S'also'
p251
S'came'
p252
S'to'
p253
tp254
F0.003194888178913738
s(S'there'
p255
S'was'
p256
S'buried'
p257
tp258
F0.003194888178913738
s(S'be'
p259
S'buried'
p260
S'at'
p261
tp262
F0.003194888178913738
s(S'became'
p263
S'king'
p264
S'of'
p265
tp266
F0.003194888178913738
s(S'first'
p267
S'traveled'
p268
S'to'
p269
tp270
F0.003194888178913738
s(S'was'
p271
S'buried'
p272
S'[[det]]'
p273
tp274
F0.006389776357827476
s(S'as'
p275
S'king'
p276
S'of'
p277
tp278
F0.003194888178913738
s(S'who'
p279
S'lived'
p280
S'in'
p281
tp282
F0.003194888178913738
s(S'[[adj]]'
p283
S'ruler'
p284
S'[[det]]'
p285
tp286
F0.003194888178913738
s(S'had'
p287
S'built'
p288
S'[[det]]'
p289
tp290
F0.003194888178913738
s(S'later'
p291
S'settled'
p292
S'in'
p293
tp294
F0.003194888178913738
s(S'be'
p295
S'buried'
p296
S'in'
p297
tp298
F0.003194888178913738
s(S'was'
p299
S'crowned'
p300
S'at'
p301
tp302
F0.003194888178913738
s(S'was'
p303
S'buried'
p304
S'[[adj]]'
p305
tp306
F0.006389776357827476
s(S'where'
p307
S'lived'
p308
S'until'
p309
tp310
F0.003194888178913738
s(S'now'
p311
S'living'
p312
S'in'
p313
tp314
F0.003194888178913738
s(S'still'
p315
S'living'
p316
S'in'
p317
tp318
F0.003194888178913738
s(S'[[num]]'
p319
S'was'
p320
S'buried'
p321
tp322
F0.006389776357827476
s(S'died'
p323
S'[[adj]]'
p324
S'was'
p325
tp326
F0.003194888178913738
s(S'[[con]]'
p327
S'married'
p328
S'in'
p329
tp330
F0.003194888178913738
s(S'[[adj]]'
p331
S'ruler'
p332
S'[[con]]'
p333
tp334
F0.003194888178913738
s(S'was'
p335
S'king'
p336
S'of'
p337
tp338
F0.003194888178913738
s(S's'
p339
S'arrival'
p340
S'in'
p341
tp342
F0.003194888178913738
s(S'had'
p343
S'married'
p344
S'at'
p345
tp346
F0.003194888178913738
s(S'to'
p347
S'king'
p348
S'of'
p349
tp350
F0.003194888178913738
s(S'[[det]]'
p351
S'throne'
p352
S'of'
p353
tp354
F0.003194888178913738
s(S'had'
p355
S'arrived'
p356
S'in'
p357
tp358
F0.003194888178913738
s(S'[[num]]'
p359
S'is'
p360
S'buried'
p361
tp362
F0.003194888178913738
s(S'been'
p363
S'living'
p364
S'in'
p365
tp366
F0.003194888178913738
s(S'[[prp]]'
p367
S'return'
p368
S'to'
p369
tp370
F0.003194888178913738
s(S'[[num]]'
p371
S'died'
p372
S'in'
p373
tp374
F0.003194888178913738
s(S'moved'
p375
g97
g98
tp376
F0.006389776357827476
s(S'is'
p377
S'married'
p378
S'in'
p379
tp380
F0.003194888178913738
s(S'[[det]]'
p381
S'ruler'
p382
S'of'
p383
tp384
F0.003194888178913738
s(S'had'
p385
S'arrived'
p386
S'at'
p387
tp388
F0.003194888178913738
s(S'was'
p389
S'returned'
p390
S'in'
p391
tp392
F0.003194888178913738
s(S'died'
p393
S'on'
p394
S'was'
p395
tp396
F0.003194888178913738
s(S'again'
p397
S'returned'
p398
S'to'
p399
tp400
F0.003194888178913738
s(S'[[pro]]'
p401
S'return'
p402
S'to'
p403
tp404
F0.003194888178913738
s(S'then'
p405
S'married'
p406
S'to'
p407
tp408
F0.003194888178913738
s(S'died'
p409
S'soon'
p410
S'was'
p411
tp412
F0.003194888178913738
s(S'then'
p413
S'flew'
p414
S'to'
p415
tp416
F0.003194888178913738
s(S'later'
p417
S'lived'
p418
S'at'
p419
tp420
F0.003194888178913738
s(S'had'
p421
S'traveled'
p422
S'to'
p423
tp424
F0.003194888178913738
s(S'later'
p425
S'died'
p426
S'[[con]]'
p427
tp428
F0.003194888178913738
s(S'have'
p429
S'lived'
p430
S'in'
p431
tp432
F0.003194888178913738
s(S'[[con]]'
p433
S'returned'
p434
S'to'
p435
tp436
F0.003194888178913738
s(S'[[det]]'
p437
S'living'
p438
S'in'
p439
tp440
F0.003194888178913738
s(S'not'
p441
S'return'
p442
S'to'
p443
tp444
F0.003194888178913738
s(S'[[det]]'
p445
S'return'
p446
S'at'
p447
tp448
F0.003194888178913738
s(S'[[num]]'
p449
S'came'
p450
S'to'
p451
tp452
F0.003194888178913738
s(S'been'
p453
S'educated'
p454
S'in'
p455
tp456
F0.003194888178913738
s(S'later'
p457
S'lived'
p458
S'in'
p459
tp460
F0.003194888178913738
s(S'was'
p461
S'buried'
p462
S'there'
p463
tp464
F0.003194888178913738
s(S'died'
p465
S'[[con]]'
p466
S'was'
p467
tp468
F0.038338658146964855
s(S'was'
p469
S'buried'
p470
S'[[con]]'
p471
tp472
F0.003194888178913738
s(S'also'
p473
S'built'
p474
S'[[adj]]'
p475
tp476
F0.003194888178913738
s(S'[[adj]]'
p477
S'died'
p478
S'in'
p479
tp480
F0.003194888178913738
s(S'was'
p481
S'educated'
p482
S'in'
p483
tp484
F0.003194888178913738
s(S'been'
p485
S'built'
p486
S'on'
p487
tp488
F0.003194888178913738
s(S'is'
p489
S'buried'
p490
S'[[det]]'
p491
tp492
F0.006389776357827476
s(S'[[adj]]'
p493
S'king'
p494
S'[[det]]'
p495
tp496
F0.003194888178913738
s(S'so'
p497
S'returned'
p498
S'to'
p499
tp500
F0.003194888178913738
s(g339
S'return'
p501
S'to'
p502
tp503
F0.003194888178913738
s(S'never'
p504
S'return'
p505
S'to'
p506
tp507
F0.003194888178913738
s(S'[[prp]]'
p508
S'journey'
p509
S'to'
p510
tp511
F0.003194888178913738
s(S'after'
p512
S'living'
p513
S'in'
p514
tp515
F0.003194888178913738
s(S'as'
p516
S'king'
p517
S'in'
p518
tp519
F0.003194888178913738
s(S'[[prp]]'
p520
S'arrival'
p521
S'in'
p522
tp523
F0.003194888178913738
s(S'becomes'
p524
S'king'
p525
S'of'
p526
tp527
F0.003194888178913738
s(S'while'
p528
S'lived'
p529
S'in'
p530
tp531
F0.003194888178913738
s(S'were'
p532
S'married'
p533
S'at'
p534
tp535
F0.003194888178913738
s(g226
g227
S'buried'
p536
tp537
F0.006389776357827476
s(S'had'
p538
S'built'
p539
S'at'
p540
tp541
F0.003194888178913738
s(S'[[pro]]'
p542
S'lived'
p543
S'in'
p544
tp545
F0.003194888178913738
s(S'was'
p546
S'married'
p547
S'from'
p548
tp549
F0.003194888178913738
s(S'[[con]]'
p550
S'buried'
p551
S'in'
p552
tp553
F0.003194888178913738
s(S'also'
p554
S'built'
p555
S'[[con]]'
p556
tp557
F0.003194888178913738
s(S'been'
p558
S'built'
p559
S'at'
p560
tp561
F0.003194888178913738
s(S'was'
p562
S'interred'
p563
S'[[det]]'
p564
tp565
F0.006389776357827476
s(S'while'
p566
S'living'
p567
S'in'
p568
tp569
F0.003194888178913738
s(S'[[con]]'
p570
S'buried'
p571
S'at'
p572
tp573
F0.003194888178913738
s(S'is'
p574
S'interred'
p575
S'at'
p576
tp577
F0.006389776357827476
s(S'now'
p578
S'married'
p579
S'to'
p580
tp581
F0.003194888178913738
s(S'been'
p582
S'living'
p583
S'at'
p584
tp585
F0.003194888178913738
s(S'[[con]]'
p586
S'remained'
p587
S'in'
p588
tp589
F0.003194888178913738
s(S'just'
p590
S'returned'
p591
S'from'
p592
tp593
F0.003194888178913738
s(g339
S'return'
p594
S'in'
p595
tp596
F0.003194888178913738
s(S'then'
p597
S'married'
p598
S'in'
p599
tp600
F0.003194888178913738
s(S'was'
p601
S'married'
p602
S'[[num]]'
p603
tp604
F0.003194888178913738
s(g82
g83
S'in'
p605
tp606
F0.006389776357827476
s(S'died'
p607
g195
g196
tp608
F0.003194888178913738
s(g410
g411
S'buried'
p609
tp610
F0.003194888178913738
s(g466
g467
S'buried'
p611
tp612
F0.025559105431309903
s(S'[[con]]'
p613
S'living'
p614
S'in'
p615
tp616
F0.003194888178913738
s(S'was'
p617
S'interred'
p618
S'in'
p619
tp620
F0.006389776357827476
s(S'has'
p621
S'lived'
p622
S'most'
p623
tp624
F0.003194888178913738
s(S'[[det]]'
p625
S'ruler'
p626
S'[[con]]'
p627
tp628
F0.003194888178913738
s(S'[[con]]'
p629
S'returned'
p630
S'in'
p631
tp632
F0.003194888178913738
s(S'also'
p633
S'remained'
p634
S'[[det]]'
p635
tp636
F0.003194888178913738
s(S'is'
p637
S'buried'
p638
S'[[con]]'
p639
tp640
F0.003194888178913738
s(S'is'
p641
S'married'
p642
S'from'
p643
tp644
F0.003194888178913738
s(S'was'
p645
S'interred'
p646
S'at'
p647
tp648
F0.006389776357827476
s(S'[[adj]]'
p649
S'ruler'
p650
S'of'
p651
tp652
F0.003194888178913738
s(S'died'
p653
g550
g551
tp654
F0.006389776357827476
s(S'which'
p655
S'returned'
p656
S'to'
p657
tp658
F0.003194888178913738
s(S'had'
p659
S'traveled'
p660
S'from'
p661
tp662
F0.003194888178913738
s(S'died'
p663
g319
g320
tp664
F0.006389776357827476
s(S'[[det]]'
p665
S'king'
p666
S'[[con]]'
p667
tp668
F0.003194888178913738
s(S'died'
p669
g359
g360
tp670
F0.003194888178913738
s(S'then'
p671
S'traveled'
p672
S'to'
p673
tp674
F0.003194888178913738
s(g339
S'city'
p675
S'of'
p676
tp677
F0.003194888178913738
s(S'[[con]]'
p678
S'traveled'
p679
S'from'
p680
tp681
F0.003194888178913738
s(S'were'
p682
S'living'
p683
S'in'
p684
tp685
F0.003194888178913738
s(S'was'
p686
S'buried'
p687
S'near'
p688
tp689
F0.003194888178913738
s(S'[[pro]]'
p690
S'died'
p691
S'in'
p692
tp693
F0.003194888178913738
s(g324
g325
S'buried'
p694
tp695
F0.003194888178913738
s(S'first'
p696
S'came'
p697
S'in'
p698
tp699
F0.003194888178913738
s(S'[[mod]]'
p700
S'return'
p701
S'to'
p702
tp703
F0.003194888178913738
s(S'first'
p704
S'arrived'
p705
S'in'
p706
tp707
F0.003194888178913738
s(S'[[adj]]'
p708
S'return'
p709
S'to'
p710
tp711
F0.003194888178913738
s(S'[[pro]]'
p712
S'traveled'
p713
S'to'
p714
tp715
F0.003194888178913738
s(S'soon'
p716
S'returned'
p717
S'to'
p718
tp719
F0.003194888178913738
s(S'died'
p720
g255
g256
tp721
F0.003194888178913738
s(S'[[num]]'
p722
S'living'
p723
S'in'
p724
tp725
F0.003194888178913738
s(S'[[adj]]'
p726
S'traveled'
p727
S'to'
p728
tp729
F0.003194888178913738
s(S'never'
p730
S'lived'
p731
S'in'
p732
tp733
F0.003194888178913738
s(S'[[con]]'
p734
S'return'
p735
S'to'
p736
tp737
F0.003194888178913738
s(S'[[num]]'
p738
S'returned'
p739
S'to'
p740
tp741
F0.003194888178913738
s(S'to'
p742
S'rest'
p743
S'at'
p744
tp745
F0.003194888178913738
s(S'died'
p746
S'was'
p747
S'buried'
p748
tp749
F0.003194888178913738
s(S'to'
p750
S'return'
p751
S'to'
p752
tp753
F0.003194888178913738
s(g339
S'return'
p754
S'from'
p755
tp756
F0.003194888178913738
s(S'when'
p757
S'died'
p758
S'at'
p759
tp760
F0.003194888178913738
s(S'[[det]]'
p761
S'capital'
p762
S'to'
p763
tp764
F0.003194888178913738
s(S'died'
p765
S'is'
p766
S'buried'
p767
tp768
F0.003194888178913738
s(S'is'
p769
S'interred'
p770
S'[[det]]'
p771
tp772
F0.003194888178913738
s(S'[[det]]'
p773
S'king'
p774
S'who'
p775
tp776
F0.003194888178913738
s(S'have'
p777
S'died'
p778
S'in'
p779
tp780
F0.003194888178913738
s(S'was'
p781
S'married'
p782
S'at'
p783
tp784
F0.003194888178913738
s(S'to'
p785
S'rest'
p786
S'in'
p787
tp788
F0.003194888178913738
s(S'later'
p789
S'died'
p790
S'in'
p791
tp792
F0.003194888178913738
s(g339
S'journey'
p793
S'from'
p794
tp795
F0.003194888178913738
s(S'when'
p796
S'died'
p797
S'in'
p798
tp799
F0.003194888178913738
s(S'was'
p800
S'living'
p801
S'on'
p802
tp803
F0.003194888178913738
s(S'[[adj]]'
p804
S'settled'
p805
S'in'
p806
tp807
F0.003194888178913738
s(S'moved'
p808
S'[[prp]]'
p809
S'capital'
p810
tp811
F0.006389776357827476
s(g809
g810
S'to'
p812
tp813
F0.003194888178913738
s(S'[[det]]'
p814
S'king'
p815
S'of'
p816
tp817
F0.003194888178913738
s(S'later'
p818
S'married'
p819
S'of'
p820
tp821
F0.003194888178913738
s(S'later'
p822
S'died'
p823
S'at'
p824
tp825
F0.003194888178913738
s(S'also'
p826
S'built'
p827
S'[[det]]'
p828
tp829
F0.003194888178913738
s(S'whom'
p830
S'married'
p831
S'in'
p832
tp833
F0.003194888178913738
s(g339
S'journey'
p834
S'to'
p835
tp836
F0.003194888178913738
s(S'is'
p837
S'buried'
p838
S'[[adj]]'
p839
tp840
F0.003194888178913738
s(S'has'
p841
S'remained'
p842
S'in'
p843
tp844
F0.003194888178913738
s(S'be'
p845
S'educated'
p846
S'in'
p847
tp848
F0.003194888178913738
s(S'has'
p849
S'lived'
p850
S'in'
p851
tp852
F0.003194888178913738
s(g394
g395
S'buried'
p853
tp854
F0.003194888178913738
s(S'just'
p855
S'arrived'
p856
S'in'
p857
tp858
F0.003194888178913738
s(S'became'
p859
S'ruler'
p860
S'of'
p861
tp862
F0.003194888178913738
s(S'had'
p863
S'settled'
p864
S'in'
p865
tp866
F0.003194888178913738
s(S'[[adj]]'
p867
S'living'
p868
S'in'
p869
tp870
F0.003194888178913738
s(S'had'
p871
S'married'
p872
S'in'
p873
tp874
F0.003194888178913738
s(S'have'
p875
S'built'
p876
S'[[det]]'
p877
tp878
F0.003194888178913738
s(S'to'
p879
S'return'
p880
S'in'
p881
tp882
F0.003194888178913738
s(S'was'
p883
S'living'
p884
S'at'
p885
tp886
F0.003194888178913738
s(S'later'
p887
S'settled'
p888
S'[[con]]'
p889
tp890
F0.003194888178913738
s(S'been'
p891
S'buried'
p892
S'in'
p893
tp894
F0.003194888178913738
s(S'[[det]]'
p895
S'ruler'
p896
S'in'
p897
tp898
F0.003194888178913738
s(S'later'
p899
S'married'
p900
S'in'
p901
tp902
F0.003194888178913738
s(S'then'
p903
S'lived'
p904
S'in'
p905
tp906
F0.003194888178913738
s(S'[[det]]'
p907
S'returned'
p908
S'to'
p909
tp910
F0.003194888178913738
s(S'is'
p911
S'buried'
p912
S'near'
p913
tp914
F0.003194888178913738
s(S'[[pro]]'
p915
S'king'
p916
S'of'
p917
tp918
F0.003194888178913738
s(S'to'
p919
S'return'
p920
S'from'
p921
tp922
F0.003194888178913738
s(S'as'
p923
S'ruler'
p924
S'of'
p925
tp926
F0.003194888178913738
s(S'was'
p927
S'living'
p928
S'in'
p929
tp930
F0.003194888178913738
s.