(dp0
(S'then'
p1
S'joins'
p2
S'[[det]]'
p3
tp4
F0.1
s(S'[[adj]]'
p5
S'tributary'
p6
S'[[det]]'
p7
tp8
F0.1
s(S'where'
p9
S'joins'
p10
S'[[det]]'
p11
tp12
F0.1
s(S'joined'
p13
S'by'
p14
g5
tp15
F0.1
s(S'[[con]]'
p16
S'joins'
p17
S'[[det]]'
p18
tp19
F0.1
s(S'is'
p20
S'joined'
p21
S'[[con]]'
p22
tp23
F0.1
s(S'which'
p24
S'joins'
p25
S'[[det]]'
p26
tp27
F0.1
s(g14
g5
g6
tp28
F0.1
s(S'is'
p29
S'joined'
p30
S'by'
p31
tp32
F0.2
s.