(dp0
(S'which'
p1
S'flows'
p2
S'to'
p3
tp4
F0.009174311926605505
s(S'into'
p5
S'[[det]]'
p6
S'tributary'
p7
tp8
F0.009174311926605505
s(S'to'
p9
S'form'
p10
S'[[det]]'
p11
tp12
F0.01834862385321101
s(S'[[con]]'
p13
S'[[adj]]'
p14
S'tributary'
p15
tp16
F0.01834862385321101
s(S'where'
p17
S'joins'
p18
S'[[det]]'
p19
tp20
F0.01834862385321101
s(S'from'
p21
S'[[det]]'
p22
S'confluence'
p23
tp24
F0.009174311926605505
s(S'tributary'
p25
S'[[con]]'
p26
S'flows'
p27
tp28
F0.009174311926605505
s(S'to'
p29
S'reach'
p30
S'[[det]]'
p31
tp32
F0.027522935779816515
s(S'[[det]]'
p33
S'tributary'
p34
S'[[con]]'
p35
tp36
F0.01834862385321101
s(S'of'
p37
g1
g2
tp38
F0.01834862385321101
s(S'flows'
p39
S'[[det]]'
p40
S'tributary'
p41
tp42
F0.009174311926605505
s(S'flows'
p43
S'where'
p44
S'joins'
p45
tp46
F0.009174311926605505
s(S'flows'
p47
S'[[con]]'
p48
S'joins'
p49
tp50
F0.009174311926605505
s(S'[[det]]'
p51
S'river'
p52
S'on'
p53
tp54
F0.009174311926605505
s(S'of'
p55
S'[[det]]'
p56
S'river'
p57
tp58
F0.01834862385321101
s(S'flows'
p59
S'[[con]]'
p60
S'empties'
p61
tp62
F0.009174311926605505
s(S'[[det]]'
p63
S'longest'
p64
S'tributary'
p65
tp66
F0.009174311926605505
s(S'[[prp]]'
p67
S'confluence'
p68
S'with'
p69
tp70
F0.01834862385321101
s(S'[[con]]'
p71
S'flows'
p72
S'into'
p73
tp74
F0.01834862385321101
s(S'[[adj]]'
p75
S'river'
p76
S'of'
p77
tp78
F0.009174311926605505
s(S'[[adj]]'
p79
S'largest'
p80
S'tributary'
p81
tp82
F0.009174311926605505
s(g22
g23
S'of'
p83
tp84
F0.009174311926605505
s(S'which'
p85
S'flows'
p86
S'into'
p87
tp88
F0.01834862385321101
s(S'[[adj]]'
p89
S'river'
p90
S'in'
p91
tp92
F0.01834862385321101
s(S'to'
p93
S'[[prp]]'
p94
S'confluence'
p95
tp96
F0.009174311926605505
s(S'river'
p97
S'[[con]]'
p98
S'[[det]]'
p99
tp100
F0.009174311926605505
s(S'[[con]]'
p101
S'joins'
p102
S'[[det]]'
p103
tp104
F0.01834862385321101
s(g90
g91
S'[[adj]]'
p105
tp106
F0.01834862385321101
s(S'flows'
p107
S'[[con]]'
p108
S'[[adj]]'
p109
tp110
F0.009174311926605505
s(g98
g99
S'tributary'
p111
tp112
F0.009174311926605505
s(S'which'
p113
S'joins'
p114
S'[[det]]'
p115
tp116
F0.009174311926605505
s(g60
g61
S'into'
p117
tp118
F0.009174311926605505
s(S'border'
p119
S'river'
p120
S'between'
p121
tp122
F0.009174311926605505
s(S'[[det]]'
p123
S'river'
p124
g13
tp125
F0.027522935779816515
s(S'[[det]]'
p126
g9
g10
tp127
F0.009174311926605505
s(S'[[det]]'
p128
S'tributary'
p129
S'of'
p130
tp131
F0.07339449541284404
s(S'[[det]]'
p132
S'largest'
p133
S'tributary'
p134
tp135
F0.009174311926605505
s(S'flows'
p136
g5
g6
tp137
F0.009174311926605505
s(S'[[adj]]'
p138
S'reaching'
p139
S'[[det]]'
p140
tp141
F0.009174311926605505
s(S'reaches'
p142
S'[[prp]]'
p143
S'mouth'
p144
tp145
F0.009174311926605505
s(g91
g105
S'tributary'
p146
tp147
F0.01834862385321101
s(S'[[adj]]'
p148
S'tributary'
p149
S'[[det]]'
p150
tp151
F0.009174311926605505
s(S'joins'
p152
S'to'
p153
S'form'
p154
tp155
F0.009174311926605505
s(S'tributary'
p156
g37
g1
tp157
F0.01834862385321101
s(S'[[det]]'
p158
S'river'
p159
S'in'
p160
tp161
F0.027522935779816515
s(S'then'
p162
g43
g44
tp163
F0.009174311926605505
s(g64
g65
S'of'
p164
tp165
F0.009174311926605505
s(S'reach'
p166
S'[[det]]'
p167
S'southwest'
p168
tp169
F0.009174311926605505
s(S'where'
p170
S'flows'
p171
S'into'
p172
tp173
F0.009174311926605505
s(S'flows'
p174
g21
g22
tp175
F0.009174311926605505
s(S'flows'
p176
g93
g94
tp177
F0.009174311926605505
s(S'reach'
p178
S'[[det]]'
p179
S'close'
p180
tp181
F0.009174311926605505
s(S'empties'
p182
S'into'
p183
S'[[det]]'
p184
tp185
F0.009174311926605505
s(S'flows'
p186
S'south'
p187
S'to'
p188
tp189
F0.009174311926605505
s(g183
g184
S'south'
p190
tp191
F0.009174311926605505
s(S'joins'
p192
g126
g9
tp193
F0.009174311926605505
s(S'[[adj]]'
p194
S'tributary'
p195
S'of'
p196
tp197
F0.05504587155963303
s(S'then'
p198
S'joins'
p199
S'[[det]]'
p200
tp201
F0.009174311926605505
s(S'[[det]]'
p202
S'river'
p203
S'of'
p204
tp205
F0.009174311926605505
s(S'then'
p206
S'flows'
p207
S'into'
p208
tp209
F0.009174311926605505
s(g80
g81
S'of'
p210
tp211
F0.01834862385321101
s(S'joins'
p212
S'[[det]]'
p213
S'form'
p214
tp215
F0.009174311926605505
s(S'[[det]]'
p216
S'tributary'
p217
S'[[det]]'
p218
tp219
F0.009174311926605505
s(g159
g160
S'[[det]]'
p220
tp221
F0.009174311926605505
s(S'generally'
p222
g138
g139
tp223
F0.009174311926605505
s(g124
g13
g14
tp224
F0.009174311926605505
s(S'[[det]]'
p225
g119
g120
tp226
F0.009174311926605505
s(g160
g220
S'tributary'
p227
tp228
F0.009174311926605505
s(S'[[det]]'
p229
S'river'
p230
S'[[det]]'
p231
tp232
F0.009174311926605505
s(S'where'
p233
S'meets'
p234
S'[[det]]'
p235
tp236
F0.009174311926605505
s(S'[[det]]'
p237
S'confluence'
p238
S'with'
p239
tp240
F0.009174311926605505
s(S'then'
p241
S'flows'
p242
S'to'
p243
tp244
F0.009174311926605505
s(S'tributary'
p245
g55
g56
tp246
F0.01834862385321101
s(S'[[con]]'
p247
S'enters'
p248
S'[[det]]'
p249
tp250
F0.009174311926605505
s(S'flows'
p251
g222
g138
tp252
F0.009174311926605505
s.