(dp0
(S'[[con]]'
p1
S'meets'
p2
S'[[det]]'
p3
tp4
F0.013157894736842105
s(S'[[con]]'
p5
S'runs'
p6
S'[[adj]]'
p7
tp8
F0.013157894736842105
s(S'[[det]]'
p9
S'city'
p10
S'of'
p11
tp12
F0.02631578947368421
s(S'was'
p13
S'signed'
p14
S'as'
p15
tp16
F0.013157894736842105
s(S'[[con]]'
p17
S'north'
p18
S'of'
p19
tp20
F0.013157894736842105
s(S'then'
p21
S'passes'
p22
S'over'
p23
tp24
F0.013157894736842105
s(S'[[det]]'
p25
S'link'
p26
S'to'
p27
tp28
F0.013157894736842105
s(S'just'
p29
S'north'
p30
S'of'
p31
tp32
F0.013157894736842105
s(S'[[adj]]'
p33
S'thoroughfare'
p34
S'connecting'
p35
tp36
F0.013157894736842105
s(S'to'
p37
S'link'
p38
S'up'
p39
tp40
F0.013157894736842105
s(g34
g35
S'[[det]]'
p41
tp42
F0.013157894736842105
s(S'[[det]]'
p43
S'cities'
p44
S'of'
p45
tp46
F0.02631578947368421
s(S'passes'
p47
S'[[det]]'
p48
S'cities'
p49
tp50
F0.013157894736842105
s(S'[[adj]]'
p51
S'road'
p52
S'to'
p53
tp54
F0.013157894736842105
s(S'also'
p55
S'meets'
p56
S'[[det]]'
p57
tp58
F0.013157894736842105
s(S'is'
p59
S'signed'
p60
S'as'
p61
tp62
F0.013157894736842105
s(S'also'
p63
S'connects'
p64
S'[[det]]'
p65
tp66
F0.013157894736842105
s(S'[[num]]'
p67
S'runs'
p68
S'between'
p69
tp70
F0.013157894736842105
s(S'is'
p71
S'shown'
p72
S'as'
p73
tp74
F0.013157894736842105
s(S'[[det]]'
p75
S'acronym'
p76
S'derived'
p77
tp78
F0.013157894736842105
s(S'where'
p79
S'meets'
p80
S'[[det]]'
p81
tp82
F0.013157894736842105
s(S'[[adj]]'
p83
S'road'
p84
S'[[con]]'
p85
tp86
F0.013157894736842105
s(S'then'
p87
S'runs'
p88
S'[[con]]'
p89
tp90
F0.013157894736842105
s(S'[[det]]'
p91
S'north'
p92
S'[[con]]'
p93
tp94
F0.013157894736842105
s(S'[[adj]]'
p95
S'route'
p96
S'for'
p97
tp98
F0.013157894736842105
s(S'passes'
p99
S'by'
p100
S'[[adj]]'
p101
tp102
F0.013157894736842105
s(S'through'
p103
g43
g44
tp104
F0.013157894736842105
s(S'[[num]]'
p105
S'passes'
p106
S'through'
p107
tp108
F0.013157894736842105
s(S'which'
p109
S'connects'
p110
S'with'
p111
tp112
F0.013157894736842105
s(S'[[con]]'
p113
S'crosses'
p114
S'[[det]]'
p115
tp116
F0.013157894736842105
s(g77
S'[[det]]'
p117
g33
tp118
F0.013157894736842105
s(S'[[adj]]'
p119
S'route'
p120
S'[[con]]'
p121
tp122
F0.013157894736842105
s(g117
g33
g34
tp123
F0.013157894736842105
s(g100
g101
S'cities'
p124
tp125
F0.013157894736842105
s(S'[[det]]'
p126
S'road'
p127
S'to'
p128
tp129
F0.013157894736842105
s(S'then'
p130
S'crosses'
p131
S'[[con]]'
p132
tp133
F0.013157894736842105
s(g35
g41
S'[[num]]'
p134
tp135
F0.013157894736842105
s(S'which'
p136
S'runs'
p137
S'from'
p138
tp139
F0.013157894736842105
s(S'then'
p140
S'passes'
p141
S'through'
p142
tp143
F0.013157894736842105
s(S'then'
p144
S'passes'
p145
S'by'
p146
tp147
F0.013157894736842105
s(S'passes'
p148
g103
g43
tp149
F0.013157894736842105
s(S'[[con]]'
p150
S'runs'
p151
S'between'
p152
tp153
F0.013157894736842105
s(g76
g77
g117
tp154
F0.013157894736842105
s(S'that'
p155
S'connects'
p156
S'to'
p157
tp158
F0.013157894736842105
s(S'then'
p159
S'meets'
p160
S'[[det]]'
p161
tp162
F0.013157894736842105
s(S'[[det]]'
p163
S'route'
p164
S'of'
p165
tp166
F0.013157894736842105
s(S'[[con]]'
p167
S'connects'
p168
S'[[det]]'
p169
tp170
F0.013157894736842105
s(S'which'
p171
S'connects'
p172
S'[[det]]'
p173
tp174
F0.013157894736842105
s(S'then'
p175
S'enters'
p176
g9
tp177
F0.013157894736842105
s(S'[[det]]'
p178
S'road'
p179
S'from'
p180
tp181
F0.013157894736842105
s(S'[[con]]'
p182
g47
g48
tp183
F0.02631578947368421
s(S'[[mod]]'
p184
S'operate'
p185
S'[[adj]]'
p186
tp187
F0.013157894736842105
s(S'continues'
p188
S'through'
p189
S'downtown'
p190
tp191
F0.013157894736842105
s(S'also'
p192
S'runs'
p193
S'on'
p194
tp195
F0.013157894736842105
s(S'[[adj]]'
p196
S'link'
p197
S'to'
p198
tp199
F0.013157894736842105
s(g185
g186
S'connections'
p200
tp201
F0.013157894736842105
s(S'also'
p202
S'shown'
p203
S'in'
p204
tp205
F0.013157894736842105
s(S'also'
p206
S'signed'
p207
S'as'
p208
tp209
F0.013157894736842105
s(g41
g134
S'cities'
p210
tp211
F0.013157894736842105
s(S'enters'
p212
S'[[det]]'
p213
S'area'
p214
tp215
F0.013157894736842105
s(S'[[adj]]'
p216
S'route'
p217
S'to'
p218
tp219
F0.013157894736842105
s(S'then'
p220
S'crosses'
p221
S'[[det]]'
p222
tp223
F0.013157894736842105
s(S'[[num]]'
p224
S'runs'
p225
S'[[adj]]'
p226
tp227
F0.013157894736842105
s(S'[[adj]]'
p228
S'link'
p229
S'between'
p230
tp231
F0.013157894736842105
s(S'[[con]]'
p232
S'connects'
p233
S'with'
p234
tp235
F0.013157894736842105
s(S'[[con]]'
p236
S'runs'
p237
S'through'
p238
tp239
F0.013157894736842105
s(S'[[adj]]'
p240
S'road'
p241
S'from'
p242
tp243
F0.013157894736842105
s(S'[[adj]]'
p244
S'route'
p245
S'of'
p246
tp247
F0.013157894736842105
s(g101
g124
S'of'
p248
tp249
F0.013157894736842105
s(g176
g9
g10
tp250
F0.02631578947368421
s(S'also'
p251
S'connects'
p252
S'to'
p253
tp254
F0.013157894736842105
s(S'where'
p255
S'intersects'
p256
S'with'
p257
tp258
F0.013157894736842105
s.