(dp0
(S'also'
p1
S'attended'
p2
S'now'
p3
tp4
F0.009009009009009009
s(S'where'
p5
S'attended'
p6
S'[[con]]'
p7
tp8
F0.009009009009009009
s(S'later'
p9
S'moved'
p10
S'[[con]]'
p11
tp12
F0.009009009009009009
s(S'[[con]]'
p13
S'attended'
p14
S'[[det]]'
p15
tp16
F0.018018018018018018
s(S'then'
p17
S'moved'
p18
S'[[num]]'
p19
tp20
F0.009009009009009009
s(S'year'
p21
S'before'
p22
S'going'
p23
tp24
F0.009009009009009009
s(S'while'
p25
S'moved'
p26
S'to'
p27
tp28
F0.009009009009009009
s(S'was'
p29
S'moved'
p30
S'for'
p31
tp32
F0.009009009009009009
s(S'[[con]]'
p33
S'attended'
p34
S'[[con]]'
p35
tp36
F0.018018018018018018
s(S'where'
p37
S'attended'
p38
S'[[det]]'
p39
tp40
F0.02702702702702703
s(S'had'
p41
S'attended'
p42
S'[[con]]'
p43
tp44
F0.009009009009009009
s(S'has'
p45
S'moved'
p46
S'from'
p47
tp48
F0.009009009009009009
s(S'first'
p49
S'attended'
p50
S'[[det]]'
p51
tp52
F0.009009009009009009
s(S'moved'
p53
S'[[con]]'
p54
S'attended'
p55
tp56
F0.04504504504504504
s(S'also'
p57
S'attended'
p58
S'at'
p59
tp60
F0.009009009009009009
s(S'then'
p61
S'moved'
p62
S'on'
p63
tp64
F0.018018018018018018
s(S'has'
p65
S'attended'
p66
S'in'
p67
tp68
F0.009009009009009009
s(S'then'
p69
S'moved'
p70
S'into'
p71
tp72
F0.009009009009009009
s(S'then'
p73
S'moved'
p74
S'where'
p75
tp76
F0.018018018018018018
s(S'[[adj]]'
p77
S'attended'
p78
S'[[det]]'
p79
tp80
F0.009009009009009009
s(S'to'
p81
S'[[con]]'
p82
S'attended'
p83
tp84
F0.009009009009009009
s(S'before'
p85
S'moved'
p86
S'to'
p87
tp88
F0.009009009009009009
s(S'[[det]]'
p89
S'moved'
p90
S'to'
p91
tp92
F0.009009009009009009
s(S'then'
p93
S'attended'
p94
S'now'
p95
tp96
F0.009009009009009009
s(g22
g23
S'to'
p97
tp98
F0.009009009009009009
s(S'who'
p99
S'moved'
p100
S'from'
p101
tp102
F0.009009009009009009
s(S'later'
p103
S'attended'
p104
S'at'
p105
tp106
F0.009009009009009009
s(S'then'
p107
S'moved'
p108
S'with'
p109
tp110
F0.009009009009009009
s(S'have'
p111
S'attended'
p112
S'in'
p113
tp114
F0.009009009009009009
s(S'later'
p115
S'attended'
p116
S'in'
p117
tp118
F0.009009009009009009
s(g74
g75
S'attended'
p119
tp120
F0.05405405405405406
s(S'when'
p121
S'moved'
p122
S'from'
p123
tp124
F0.009009009009009009
s(S'moved'
p125
S'back'
p126
S'where'
p127
tp128
F0.009009009009009009
s(S'then'
p129
S'moved'
p130
S'[[det]]'
p131
tp132
F0.009009009009009009
s(S'then'
p133
S'attended'
p134
S'of'
p135
tp136
F0.009009009009009009
s(S'was'
p137
S'moved'
p138
S'after'
p139
tp140
F0.009009009009009009
s(g126
g127
S'attended'
p141
tp142
F0.009009009009009009
s(S'then'
p143
S'attended'
p144
S'[[det]]'
p145
tp146
F0.009009009009009009
s(S'later'
p147
S'moved'
p148
S'at'
p149
tp150
F0.009009009009009009
s(S'have'
p151
S'attended'
p152
S'[[det]]'
p153
tp154
F0.009009009009009009
s(S'moved'
p155
S'to'
p156
S'where'
p157
tp158
F0.009009009009009009
s(S'moved'
p159
S'back'
p160
S'[[con]]'
p161
tp162
F0.009009009009009009
s(S'then'
p163
S'attended'
p164
S'at'
p165
tp166
F0.009009009009009009
s(S'[[con]]'
p167
S'attended'
p168
S'at'
p169
tp170
F0.009009009009009009
s(S'then'
p171
S'attended'
p172
S'in'
p173
tp174
F0.009009009009009009
s(S'later'
p175
S'attended'
p176
S'of'
p177
tp178
F0.009009009009009009
s(S'[[con]]'
p179
S'attended'
p180
S'in'
p181
tp182
F0.009009009009009009
s(S'then'
p183
S'moved'
p184
S'in'
p185
tp186
F0.009009009009009009
s(S'[[adj]]'
p187
S'attended'
p188
S'at'
p189
tp190
F0.009009009009009009
s(S'attended'
p191
S'[[con]]'
p192
S'then'
p193
tp194
F0.018018018018018018
s(S'had'
p195
S'attended'
p196
S'in'
p197
tp198
F0.009009009009009009
s(S'then'
p199
S'moved'
p200
S'at'
p201
tp202
F0.009009009009009009
s(S'has'
p203
S'attended'
p204
S'[[con]]'
p205
tp206
F0.009009009009009009
s(g160
g161
S'attended'
p207
tp208
F0.009009009009009009
s(S'has'
p209
S'moved'
p210
S'on'
p211
tp212
F0.009009009009009009
s(S'also'
p213
S'attended'
p214
S'from'
p215
tp216
F0.009009009009009009
s(S'had'
p217
S'attended'
p218
S'[[det]]'
p219
tp220
F0.009009009009009009
s(S'who'
p221
S'attended'
p222
S'[[det]]'
p223
tp224
F0.009009009009009009
s(S'then'
p225
S'moved'
p226
S'over'
p227
tp228
F0.009009009009009009
s(S'then'
p229
S'moved'
p230
S'for'
p231
tp232
F0.009009009009009009
s(S'was'
p233
S'moved'
p234
S'to'
p235
tp236
F0.009009009009009009
s(g156
g157
S'attended'
p237
tp238
F0.009009009009009009
s(S'later'
p239
S'moved'
p240
S'on'
p241
tp242
F0.009009009009009009
s(S'also'
p243
S'attended'
p244
S'[[con]]'
p245
tp246
F0.009009009009009009
s(S'then'
p247
S'moved'
p248
S'to'
p249
tp250
F0.018018018018018018
s(S'also'
p251
S'attended'
p252
S'in'
p253
tp254
F0.009009009009009009
s(S'[[adj]]'
p255
S'attended'
p256
S'in'
p257
tp258
F0.009009009009009009
s(S'then'
p259
S'attended'
p260
S'[[con]]'
p261
tp262
F0.009009009009009009
s(S'also'
p263
S'attended'
p264
S'for'
p265
tp266
F0.009009009009009009
s(S'later'
p267
S'moved'
p268
S'where'
p269
tp270
F0.009009009009009009
s(S'also'
p271
S'attended'
p272
S'[[det]]'
p273
tp274
F0.009009009009009009
s(S'has'
p275
S'attended'
p276
S'[[det]]'
p277
tp278
F0.009009009009009009
s(S'when'
p279
S'attended'
p280
S'[[det]]'
p281
tp282
F0.009009009009009009
s(g192
g193
S'moved'
p283
tp284
F0.018018018018018018
s(S'then'
p285
S'moved'
p286
S'[[con]]'
p287
tp288
F0.018018018018018018
s(S'later'
p289
S'moved'
p290
S'with'
p291
tp292
F0.009009009009009009
s(S'was'
p293
S'moved'
p294
S'as'
p295
tp296
F0.009009009009009009
s(S'moved'
p297
g81
g82
tp298
F0.009009009009009009
s(S'as'
p299
S'moved'
p300
S'to'
p301
tp302
F0.009009009009009009
s(S'later'
p303
S'attended'
p304
S'[[con]]'
p305
tp306
F0.009009009009009009
s(S'soon'
p307
S'moved'
p308
S'on'
p309
tp310
F0.009009009009009009
s(S'[[con]]'
p311
S'moved'
p312
S'on'
p313
tp314
F0.009009009009009009
s(S'then'
p315
S'moved'
p316
S'back'
p317
tp318
F0.009009009009009009
s(S'first'
p319
S'attended'
p320
S'in'
p321
tp322
F0.009009009009009009
s(S'then'
p323
S'moved'
p324
S'onto'
p325
tp326
F0.009009009009009009
s(S'was'
p327
S'moved'
p328
S'back'
p329
tp330
F0.009009009009009009
s(S'again'
p331
S'moved'
p332
S'to'
p333
tp334
F0.009009009009009009
s(S'had'
p335
S'moved'
p336
S'on'
p337
tp338
F0.009009009009009009
s(S'later'
p339
S'attended'
p340
S'[[det]]'
p341
tp342
F0.009009009009009009
s(S'then'
p343
S'moved'
p344
S'up'
p345
tp346
F0.009009009009009009
s(S'later'
p347
S'attended'
p348
S'now'
p349
tp350
F0.009009009009009009
s(S'then'
p351
S'moved'
p352
S'then'
p353
tp354
F0.009009009009009009
s.