(dp0
(S'[[adj]]'
p1
S'season'
p2
S'of'
p3
tp4
F0.02702702702702703
s(S'[[det]]'
p5
S'game'
p6
S'by'
p7
tp8
F0.013513513513513514
s(S'[[adj]]'
p9
S'series'
p10
S'[[con]]'
p11
tp12
F0.013513513513513514
s(S'television'
p13
S'anthology'
p14
S'series'
p15
tp16
F0.013513513513513514
s(S'[[adj]]'
p17
S'series'
p18
S'of'
p19
tp20
F0.013513513513513514
s(S'[[adj]]'
p21
S'character'
p22
S'of'
p23
tp24
F0.013513513513513514
s(S'is'
p25
S'released'
p26
S'by'
p27
tp28
F0.013513513513513514
s(S'[[det]]'
p29
S'series'
p30
S'[[num]]'
p31
tp32
F0.013513513513513514
s(S'[[num]]'
p33
S'[[det]]'
p34
S'television'
p35
tp36
F0.013513513513513514
s(S'was'
p37
S'released'
p38
S'as'
p39
tp40
F0.013513513513513514
s(S'[[det]]'
p41
g13
g14
tp42
F0.013513513513513514
s(S'[[adj]]'
p43
S'episode'
p44
S'of'
p45
tp46
F0.013513513513513514
s(S'[[adj]]'
p47
S'installment'
p48
S'in'
p49
tp50
F0.013513513513513514
s(S'[[adj]]'
p51
S'game'
p52
S'of'
p53
tp54
F0.013513513513513514
s(S'is'
p55
S'episode'
p56
S'[[num]]'
p57
tp58
F0.013513513513513514
s(S'[[det]]'
p59
S'sequel'
p60
S'[[con]]'
p61
tp62
F0.013513513513513514
s(S's'
p63
S'series'
p64
S'of'
p65
tp66
F0.013513513513513514
s(S'[[pro]]'
p67
S'character'
p68
S'in'
p69
tp70
F0.013513513513513514
s(S'[[det]]'
p71
S'series'
p72
S'[[adj]]'
p73
tp74
F0.02702702702702703
s(S'[[det]]'
p75
S'sequel'
p76
S'to'
p77
tp78
F0.013513513513513514
s(S'[[adj]]'
p79
S'game'
p80
S'[[con]]'
p81
tp82
F0.013513513513513514
s(S'[[det]]'
p83
S'character'
p84
S'from'
p85
tp86
F0.013513513513513514
s(S'[[det]]'
p87
S'series'
p88
S'[[con]]'
p89
tp90
F0.013513513513513514
s(S'on'
p91
S'series'
p92
S'[[adj]]'
p93
tp94
F0.013513513513513514
s(S'[[adj]]'
p95
S'character'
p96
S'[[con]]'
p97
tp98
F0.013513513513513514
s(S'season'
p99
g33
g34
tp100
F0.013513513513513514
s(S'[[adj]]'
p101
S'character'
p102
S'from'
p103
tp104
F0.013513513513513514
s(S'[[adj]]'
p105
S'season'
p106
S'episode'
p107
tp108
F0.013513513513513514
s(g106
g107
S'of'
p109
tp110
F0.013513513513513514
s(S'[[adj]]'
p111
S'installment'
p112
S'of'
p113
tp114
F0.013513513513513514
s(S'[[adj]]'
p115
S'released'
p116
S'at'
p117
tp118
F0.013513513513513514
s(S'[[det]]'
p119
S'television'
p120
S'series'
p121
tp122
F0.02702702702702703
s(S'[[det]]'
p123
S'series'
p124
S'on'
p125
tp126
F0.013513513513513514
s(S'[[con]]'
p127
S'released'
p128
S'as'
p129
tp130
F0.013513513513513514
s(S'[[adj]]'
p131
S'series'
p132
S'[[adj]]'
p133
tp134
F0.013513513513513514
s(g56
g57
g99
tp135
F0.013513513513513514
s(S'[[adj]]'
p136
S'sequel'
p137
S'to'
p138
tp139
F0.013513513513513514
s(S'[[num]]'
p140
S'series'
p141
S'of'
p142
tp143
F0.013513513513513514
s(g63
S'character'
p144
S'in'
p145
tp146
F0.013513513513513514
s(g63
S'series'
p147
S'[[con]]'
p148
tp149
F0.013513513513513514
s(S'[[adj]]'
p150
S'character'
p151
S'on'
p152
tp153
F0.013513513513513514
s(S'[[det]]'
p154
S'series'
p155
S'by'
p156
tp157
F0.013513513513513514
s(S'of'
p158
S'[[det]]'
p159
S'series'
p160
tp161
F0.013513513513513514
s(g63
S'character'
p162
S'from'
p163
tp164
F0.013513513513513514
s(g45
g119
g120
tp165
F0.04054054054054054
s(S'[[det]]'
p166
S'episode'
p167
S'of'
p168
tp169
F0.013513513513513514
s(S'[[adj]]'
p170
S'character'
p171
S'[[det]]'
p172
tp173
F0.013513513513513514
s(g57
g99
g33
tp174
F0.013513513513513514
s(g3
S'[[adj]]'
p175
S'series'
p176
tp177
F0.013513513513513514
s(g44
g45
g119
tp178
F0.04054054054054054
s(S'[[adj]]'
p179
S'episode'
p180
S'[[det]]'
p181
tp182
F0.02702702702702703
s(S'[[adj]]'
p183
S'game'
p184
S'in'
p185
tp186
F0.013513513513513514
s(S'season'
p187
g158
g159
tp188
F0.013513513513513514
s(g34
g35
S'show'
p189
tp190
F0.013513513513513514
s(S'[[adj]]'
p191
S'character'
p192
S'in'
p193
tp194
F0.013513513513513514
s(g181
g1
g2
tp195
F0.02702702702702703
s(g2
g3
g175
tp196
F0.013513513513513514
s(g63
S'character'
p197
S'on'
p198
tp199
F0.013513513513513514
s(g180
g181
g1
tp200
F0.02702702702702703
s(S'in'
p201
S'series'
p202
S'[[adj]]'
p203
tp204
F0.013513513513513514
s(S'[[det]]'
p205
S'game'
p206
S'show'
p207
tp208
F0.013513513513513514
s(S'[[adj]]'
p209
S'character'
p210
S'with'
p211
tp212
F0.013513513513513514
s(S'[[det]]'
p213
S'series'
p214
S'as'
p215
tp216
F0.013513513513513514
s(g72
g73
S'series'
p217
tp218
F0.013513513513513514
s.