(dp0
(S'[[det]]'
p1
S'station'
p2
S'[[con]]'
p3
tp4
F0.011111111111111112
s(S'railway'
p5
S'is'
p6
S'[[det]]'
p7
tp8
F0.011111111111111112
s(S'which'
p9
S'served'
p10
S'with'
p11
tp12
F0.011111111111111112
s(S'[[det]]'
p13
S'city'
p14
S'of'
p15
tp16
F0.011111111111111112
s(S'station'
p17
S'in'
p18
g13
tp19
F0.011111111111111112
s(S'that'
p20
S'is'
p21
S'served'
p22
tp23
F0.011111111111111112
s(S'was'
p24
S'located'
p25
S'in'
p26
tp27
F0.011111111111111112
s(S'station'
p28
S'[[det]]'
p29
S'city'
p30
tp31
F0.011111111111111112
s(S'that'
p32
S'served'
p33
S'in'
p34
tp35
F0.011111111111111112
s(S'[[num]]'
p36
S'operated'
p37
S'by'
p38
tp39
F0.011111111111111112
s(S'[[adj]]'
p40
S'railway'
p41
S'station'
p42
tp43
F0.011111111111111112
s(S'is'
p44
S'located'
p45
S'[[det]]'
p46
tp47
F0.011111111111111112
s(S'[[det]]'
p48
S'terminus'
p49
S'of'
p50
tp51
F0.011111111111111112
s(S'subway'
p52
S'station'
p53
S'in'
p54
tp55
F0.011111111111111112
s(S'terminal'
p56
S'station'
p57
S'of'
p58
tp59
F0.011111111111111112
s(S'[[det]]'
p60
g52
g53
tp61
F0.03333333333333333
s(S'serve'
p62
S'[[det]]'
p63
S'tracks'
p64
tp65
F0.011111111111111112
s(S'been'
p66
S'operated'
p67
S'by'
p68
tp69
F0.011111111111111112
s(S'[[adj]]'
p70
S'station'
p71
S'on'
p72
tp73
F0.011111111111111112
s(S'is'
p74
S'served'
p75
S'only'
p76
tp77
F0.011111111111111112
s(S'been'
p78
S'served'
p79
S'in'
p80
tp81
F0.011111111111111112
s(S'[[con]]'
p82
S'is'
p83
S'served'
p84
tp85
F0.011111111111111112
s(S'also'
p86
S'served'
p87
S'by'
p88
tp89
F0.011111111111111112
s(S'[[con]]'
p90
S'operated'
p91
S'with'
p92
tp93
F0.011111111111111112
s(g21
g22
S'by'
p94
tp95
F0.03333333333333333
s(S'[[adj]]'
p96
g17
g18
tp97
F0.011111111111111112
s(S'of'
p98
g62
g63
tp99
F0.011111111111111112
s(S'is'
p100
S'operated'
p101
S'by'
p102
tp103
F0.011111111111111112
s(g41
g42
S'on'
p104
tp105
F0.03333333333333333
s(S'[[adj]]'
p106
S'terminus'
p107
S'for'
p108
tp109
F0.011111111111111112
s(S'[[adj]]'
p110
S'terminus'
p111
S'of'
p112
tp113
F0.011111111111111112
s(S'is'
p114
S'operated'
p115
S'with'
p116
tp117
F0.011111111111111112
s(S'station'
p118
g82
g83
tp119
F0.011111111111111112
s(S'consists'
p120
g98
g62
tp121
F0.011111111111111112
s(S'only'
p122
S'served'
p123
S'by'
p124
tp125
F0.011111111111111112
s(S'[[adj]]'
p126
S'operated'
p127
S'by'
p128
tp129
F0.011111111111111112
s(S'[[det]]'
p130
S'station'
p131
S'of'
p132
tp133
F0.011111111111111112
s(S'was'
p134
S'operated'
p135
S'by'
p136
tp137
F0.011111111111111112
s(S'[[num]]'
p138
S'stations'
p139
S'on'
p140
tp141
F0.011111111111111112
s(g6
g7
S'railway'
p142
tp143
F0.011111111111111112
s(S'station'
p144
S'served'
p145
S'by'
p146
tp147
F0.022222222222222223
s(S'are'
p148
S'operated'
p149
S'by'
p150
tp151
F0.011111111111111112
s(S'station'
p152
g20
g21
tp153
F0.011111111111111112
s(S'currently'
p154
S'operated'
p155
S'by'
p156
tp157
F0.011111111111111112
s(S'[[det]]'
p158
g144
g145
tp159
F0.011111111111111112
s(S'was'
p160
S'served'
p161
S'by'
p162
tp163
F0.011111111111111112
s(S'[[det]]'
p164
S'station'
p165
S'after'
p166
tp167
F0.011111111111111112
s(S'be'
p168
S'served'
p169
S'by'
p170
tp171
F0.011111111111111112
s(S'railway'
p172
S'station'
p173
S'[[con]]'
p174
tp175
F0.011111111111111112
s(S'now'
p176
S'operated'
p177
S'by'
p178
tp179
F0.011111111111111112
s(g18
g13
g14
tp180
F0.011111111111111112
s(S'[[det]]'
p181
S'terminus'
p182
S'for'
p183
tp184
F0.011111111111111112
s(S'[[adj]]'
p185
S'terminus'
p186
S'at'
p187
tp188
F0.011111111111111112
s(S'[[det]]'
p189
S'train'
p190
S'station'
p191
tp192
F0.011111111111111112
s(S'[[det]]'
p193
S'station'
p194
S'along'
p195
tp196
F0.011111111111111112
s(S'subway'
p197
S'station'
p198
S'on'
p199
tp200
F0.011111111111111112
s(S'now'
p201
S'located'
p202
S'at'
p203
tp204
F0.011111111111111112
s(S'[[det]]'
p205
S'operated'
p206
S'by'
p207
tp208
F0.011111111111111112
s(S'formerly'
p209
S'operated'
p210
S'by'
p211
tp212
F0.011111111111111112
s(S'[[adj]]'
p213
S'station'
p214
S'for'
p215
tp216
F0.011111111111111112
s(S'[[adj]]'
p217
S'station'
p218
S'of'
p219
tp220
F0.011111111111111112
s(g190
g191
S'of'
p221
tp222
F0.011111111111111112
s(S'[[adj]]'
p223
S'located'
p224
S'in'
p225
tp226
F0.011111111111111112
s(S'[[det]]'
p227
S'railway'
p228
S'station'
p229
tp230
F0.044444444444444446
s(g228
g229
S'of'
p231
tp232
F0.011111111111111112
s(S'is'
p233
S'located'
p234
S'outside'
p235
tp236
F0.011111111111111112
s(S'terminal'
p237
S'station'
p238
S'on'
p239
tp240
F0.011111111111111112
s(S'[[det]]'
p241
g28
g29
tp242
F0.011111111111111112
s(S'[[det]]'
p243
g152
g20
tp244
F0.011111111111111112
s(S'also'
p245
S'operated'
p246
S'with'
p247
tp248
F0.011111111111111112
s(S'is'
p249
S'located'
p250
S'of'
p251
tp252
F0.011111111111111112
s(S'is'
p253
S'operated'
p254
S'on'
p255
tp256
F0.011111111111111112
s(S'[[adj]]'
p257
S'station'
p258
S'served'
p259
tp260
F0.011111111111111112
s(S'is'
p261
S'operated'
p262
S'[[con]]'
p263
tp264
F0.011111111111111112
s(S'is'
p265
S'located'
p266
S'in'
p267
tp268
F0.011111111111111112
s(S'[[det]]'
p269
g56
g57
tp270
F0.022222222222222223
s(S'[[det]]'
p271
S'station'
p272
S'on'
p273
tp274
F0.011111111111111112
s(S'be'
p275
S'located'
p276
S'in'
p277
tp278
F0.011111111111111112
s(S'be'
p279
S'operated'
p280
S'by'
p281
tp282
F0.011111111111111112
s.