(dp0
(S'was'
p1
S'sold'
p2
S'[[con]]'
p3
tp4
F0.006134969325153374
s(S'[[det]]'
p5
S'station'
p6
S'[[con]]'
p7
tp8
F0.006134969325153374
s(S'that'
p9
S'operated'
p10
S'on'
p11
tp12
F0.006134969325153374
s(S'first'
p13
S'seen'
p14
S'in'
p15
tp16
F0.006134969325153374
s(S'owned'
p17
S'by'
p18
S'also'
p19
tp20
F0.024539877300613498
s(S'be'
p21
S'seen'
p22
S'in'
p23
tp24
F0.006134969325153374
s(S'is'
p25
S'sister'
p26
S'to'
p27
tp28
F0.006134969325153374
s(S'sister'
p29
S'stations'
p30
S'[[con]]'
p31
tp32
F0.012269938650306749
s(S'[[det]]'
p33
S'deal'
p34
S'had'
p35
tp36
F0.012269938650306749
s(S'then'
p37
S'operated'
p38
S'in'
p39
tp40
F0.006134969325153374
s(S'also'
p41
S'owns'
p42
S'[[con]]'
p43
tp44
F0.006134969325153374
s(S'with'
p45
S'sister'
p46
S'stations'
p47
tp48
F0.012269938650306749
s(S'[[adj]]'
p49
S'station'
p50
S'is'
p51
tp52
F0.006134969325153374
s(S'that'
p53
S'sold'
p54
S'[[det]]'
p55
tp56
F0.006134969325153374
s(S'was'
p57
S'seen'
p58
S'[[det]]'
p59
tp60
F0.006134969325153374
s(S'had'
p61
S'seen'
p62
S'[[det]]'
p63
tp64
F0.006134969325153374
s(S'currently'
p65
g17
g18
tp66
F0.006134969325153374
s(S'[[prp]]'
p67
S'sister'
p68
S'station'
p69
tp70
F0.006134969325153374
s(S'was'
p71
S'owned'
p72
S'[[con]]'
p73
tp74
F0.006134969325153374
s(S'[[adj]]'
p75
S'station'
p76
S'[[con]]'
p77
tp78
F0.006134969325153374
s(S'also'
p79
S'owns'
p80
S'[[det]]'
p81
tp82
F0.006134969325153374
s(S'[[adj]]'
p83
S'station'
p84
S'for'
p85
tp86
F0.006134969325153374
s(S'[[prp]]'
p87
S'sister'
p88
S'stations'
p89
tp90
F0.006134969325153374
s(S'was'
p91
S'seen'
p92
S'at'
p93
tp94
F0.006134969325153374
s(S'[[adj]]'
p95
S'station'
p96
S'to'
p97
tp98
F0.006134969325153374
s(S'[[det]]'
p99
S'station'
p100
S'was'
p101
tp102
F0.006134969325153374
s(S'that'
p103
S'[[det]]'
p104
S'position'
p105
tp106
F0.006134969325153374
s(S'[[prp]]'
p107
S'format'
p108
S'to'
p109
tp110
F0.006134969325153374
s(S'[[det]]'
p111
S'station'
p112
S'near'
p113
tp114
F0.006134969325153374
s(S'was'
p115
S'seen'
p116
S'in'
p117
tp118
F0.006134969325153374
s(S'operated'
p119
S'by'
p120
S'also'
p121
tp122
F0.006134969325153374
s(S'is'
p123
S'signed'
p124
S'as'
p125
tp126
F0.006134969325153374
s(S'[[det]]'
p127
S'deal'
p128
S'to'
p129
tp130
F0.012269938650306749
s(S'sister'
p131
S'station'
p132
S'in'
p133
tp134
F0.006134969325153374
s(g35
S'struck'
p135
g127
tp136
F0.012269938650306749
s(S'sister'
p137
S'stations'
p138
S'[[adj]]'
p139
tp140
F0.006134969325153374
s(S'was'
p141
S'sold'
p142
S'as'
p143
tp144
F0.006134969325153374
s(S'[[det]]'
p145
S'affiliate'
p146
S'[[con]]'
p147
tp148
F0.006134969325153374
s(S'sister'
p149
S'station'
p150
S'[[num]]'
p151
tp152
F0.012269938650306749
s(S'is'
p153
S'seen'
p154
S'[[adj]]'
p155
tp156
F0.006134969325153374
s(S'was'
p157
S'signed'
p158
S'as'
p159
tp160
F0.006134969325153374
s(g18
g19
S'owns'
p161
tp162
F0.03067484662576687
s(S'[[num]]'
p163
g29
g30
tp164
F0.018404907975460124
s(S'[[adj]]'
p165
S'affiliate'
p166
S'[[con]]'
p167
tp168
F0.006134969325153374
s(S'[[adj]]'
p169
S'sister'
p170
S'station'
p171
tp172
F0.006134969325153374
s(S'is'
p173
S'sold'
p174
S'as'
p175
tp176
F0.006134969325153374
s(S'be'
p177
S'seen'
p178
S'on'
p179
tp180
F0.006134969325153374
s(S'is'
p181
S'operated'
p182
S'on'
p183
tp184
F0.006134969325153374
s(S'is'
p185
S'seen'
p186
S'in'
p187
tp188
F0.006134969325153374
s(S'was'
p189
S'owned'
p190
S'to'
p191
tp192
F0.006134969325153374
s(S'shares'
p193
S'[[det]]'
p194
S'transmitter'
p195
tp196
F0.006134969325153374
s(S'[[det]]'
p197
S'station'
p198
S'along'
p199
tp200
F0.006134969325153374
s(S'also'
p201
S'seen'
p202
S'on'
p203
tp204
F0.006134969325153374
s(S'[[adj]]'
p205
S'programming'
p206
S'for'
p207
tp208
F0.006134969325153374
s(S'been'
p209
S'seen'
p210
S'[[con]]'
p211
tp212
F0.006134969325153374
s(S'[[adj]]'
p213
S'stations'
p214
S'[[con]]'
p215
tp216
F0.006134969325153374
s(S'[[adj]]'
p217
S'station'
p218
S'from'
p219
tp220
F0.006134969325153374
s(S'sister'
p221
S'station'
p222
S'of'
p223
tp224
F0.006134969325153374
s(S'[[adj]]'
p225
S'station'
p226
S'which'
p227
tp228
F0.006134969325153374
s(S'[[adj]]'
p229
S'station'
p230
S'between'
p231
tp232
F0.006134969325153374
s(S'[[adj]]'
p233
S'station'
p234
S'along'
p235
tp236
F0.006134969325153374
s(S'[[det]]'
p237
S'position'
p238
S'to'
p239
tp240
F0.012269938650306749
s(S'sister'
p241
S'stations'
p242
S'[[num]]'
p243
tp244
F0.006134969325153374
s(S'[[adj]]'
p245
S'affiliate'
p246
S'for'
p247
tp248
F0.006134969325153374
s(S'by'
p249
S'with'
p250
S'sister'
p251
tp252
F0.006134969325153374
s(S'sister'
p253
S'channel'
p254
S'to'
p255
tp256
F0.006134969325153374
s(S'owned'
p257
S'[[con]]'
p258
S'[[det]]'
p259
tp260
F0.006134969325153374
s(S'[[det]]'
p261
S'station'
p262
S'between'
p263
tp264
F0.006134969325153374
s(S'[[num]]'
p265
S'stations'
p266
S'[[con]]'
p267
tp268
F0.006134969325153374
s(S'[[adj]]'
p269
S'station'
p270
S'at'
p271
tp272
F0.006134969325153374
s(S'sister'
p273
S'station'
p274
S'on'
p275
tp276
F0.006134969325153374
s(S'also'
p277
S'owned'
p278
S'in'
p279
tp280
F0.006134969325153374
s(S'is'
p281
S'operated'
p282
S'in'
p283
tp284
F0.006134969325153374
s(g135
g127
g128
tp285
F0.012269938650306749
s(S'[[adj]]'
p286
S'station'
p287
S'when'
p288
tp289
F0.006134969325153374
s(S'[[det]]'
p290
S'format'
p291
S'as'
p292
tp293
F0.006134969325153374
s(S'[[adj]]'
p294
S'seen'
p295
S'at'
p296
tp297
F0.006134969325153374
s(S'was'
p298
S'sold'
p299
S'for'
p300
tp301
F0.006134969325153374
s(S'[[adj]]'
p302
S'station'
p303
S'[[det]]'
p304
tp305
F0.006134969325153374
s(S'[[det]]'
p306
S'station'
p307
S'at'
p308
tp309
F0.006134969325153374
s(g128
g129
S'provide'
p310
tp311
F0.012269938650306749
s(S'[[adj]]'
p312
S'stations'
p313
S'of'
p314
tp315
F0.006134969325153374
s(S'[[det]]'
p316
S'station'
p317
S'for'
p318
tp319
F0.006134969325153374
s(S'[[adj]]'
p320
S'station'
p321
S'[[adj]]'
p322
tp323
F0.006134969325153374
s(S'also'
p324
S'seen'
p325
S'in'
p326
tp327
F0.006134969325153374
s(S'[[con]]'
p328
g119
g120
tp329
F0.006134969325153374
s(S'[[adj]]'
p330
S'station'
p331
S'of'
p332
tp333
F0.006134969325153374
s(S'[[det]]'
p334
S'station'
p335
S'[[det]]'
p336
tp337
F0.006134969325153374
s(S'[[num]]'
p338
S'stations'
p339
S'in'
p340
tp341
F0.006134969325153374
s(S'[[adj]]'
p342
S'station'
p343
S'after'
p344
tp345
F0.006134969325153374
s(S'is'
p346
S'owned'
p347
S'[[con]]'
p348
tp349
F0.018404907975460124
s(S'owned'
p350
g249
g250
tp351
F0.006134969325153374
s(S's'
p352
g131
g132
tp353
F0.018404907975460124
s(S'[[det]]'
p354
S'sister'
p355
S'station'
p356
tp357
F0.03680981595092025
s(S'is'
p358
S'seen'
p359
S'to'
p360
tp361
F0.006134969325153374
s(S'been'
p362
S'seen'
p363
S'as'
p364
tp365
F0.006134969325153374
s(S'[[adj]]'
p366
S'station'
p367
S'on'
p368
tp369
F0.006134969325153374
s(S'have'
p370
S'seen'
p371
S'[[det]]'
p372
tp373
F0.006134969325153374
s(S'is'
p374
S'operated'
p375
S'to'
p376
tp377
F0.006134969325153374
s(S'to'
p378
S'affiliate'
p379
S'[[con]]'
p380
tp381
F0.006134969325153374
s(S'[[con]]'
p382
S'station'
p383
S'in'
p384
tp385
F0.006134969325153374
s(S'[[adj]]'
p386
S'station'
p387
S'with'
p388
tp389
F0.006134969325153374
s(S'is'
p390
S'operated'
p391
S'for'
p392
tp393
F0.006134969325153374
s(S'[[det]]'
p394
S'station'
p395
S'[[adj]]'
p396
tp397
F0.006134969325153374
s(S'with'
p398
S'sister'
p399
S'station'
p400
tp401
F0.012269938650306749
s(S'been'
p402
S'seen'
p403
S'in'
p404
tp405
F0.006134969325153374
s(S'been'
p406
S'seen'
p407
S'at'
p408
tp409
F0.006134969325153374
s(g239
g33
g34
tp410
F0.012269938650306749
s(S'[[det]]'
p411
g253
g254
tp412
F0.006134969325153374
s(S'is'
p413
S'owned'
p414
S'by'
p415
tp416
F0.024539877300613498
s(g34
g35
g135
tp417
F0.012269938650306749
s(S'owned'
p418
g328
g119
tp419
F0.006134969325153374
s(S'of'
p420
S'sister'
p421
S'station'
p422
tp423
F0.006134969325153374
s(S'been'
p424
S'seen'
p425
S'to'
p426
tp427
F0.006134969325153374
s(g238
g239
g33
tp428
F0.012269938650306749
s(S'station'
p429
S'to'
p430
S'affiliate'
p431
tp432
F0.006134969325153374
s(g258
g259
S'sister'
p433
tp434
F0.006134969325153374
s(S'claim'
p435
g103
g104
tp436
F0.006134969325153374
s(S'[[adj]]'
p437
S'format'
p438
S'as'
p439
tp440
F0.006134969325153374
s(g26
g27
S'affiliate'
p441
tp442
F0.006134969325153374
s(S'also'
p443
S'signed'
p444
S'as'
p445
tp446
F0.006134969325153374
s(g355
g356
S'to'
p447
tp448
F0.018404907975460124
s(S'also'
p449
S'sold'
p450
S'as'
p451
tp452
F0.006134969325153374
s(S'also'
p453
S'operated'
p454
S'in'
p455
tp456
F0.006134969325153374
s(S'is'
p457
S'operated'
p458
S'[[con]]'
p459
tp460
F0.006134969325153374
s(S'[[adj]]'
p461
S'station'
p462
S'as'
p463
tp464
F0.006134969325153374
s(S'be'
p465
S'seen'
p466
S'at'
p467
tp468
F0.006134969325153374
s.