(dp0
(S'[[det]]'
p1
S'river'
p2
S'on'
p3
tp4
F0.018518518518518517
s(S'[[adj]]'
p5
S'river'
p6
S'flowing'
p7
tp8
F0.018518518518518517
s(S'[[det]]'
p9
S'border'
p10
S'with'
p11
tp12
F0.018518518518518517
s(S'[[det]]'
p13
S'river'
p14
S'[[con]]'
p15
tp16
F0.018518518518518517
s(S'river'
p17
S'that'
p18
S'flows'
p19
tp20
F0.018518518518518517
s(S'[[det]]'
p21
S'boundary'
p22
S'between'
p23
tp24
F0.018518518518518517
s(g18
g19
S'through'
p25
tp26
F0.018518518518518517
s(S'[[det]]'
p27
S'longest'
p28
S'river'
p29
tp30
F0.018518518518518517
s(S'forms'
p31
S'part'
p32
S'[[det]]'
p33
tp34
F0.018518518518518517
s(S'[[adj]]'
p35
S'largest'
p36
S'river'
p37
tp38
F0.018518518518518517
s(S'river'
p39
S'flowing'
p40
S'through'
p41
tp42
F0.037037037037037035
s(S'[[adj]]'
p43
S'river'
p44
S'in'
p45
tp46
F0.018518518518518517
s(S'[[det]]'
p47
g39
g40
tp48
F0.037037037037037035
s(S'[[det]]'
p49
S'river'
p50
S'flows'
p51
tp52
F0.018518518518518517
s(S'[[adj]]'
p53
S'border'
p54
S'with'
p55
tp56
F0.018518518518518517
s(S'km'
p57
S'long'
p58
S'river'
p59
tp60
F0.018518518518518517
s(S'[[det]]'
p61
S'dpartement'
p62
S'of'
p63
tp64
F0.018518518518518517
s(g28
g29
S'in'
p65
tp66
F0.037037037037037035
s(S'border'
p67
S'river'
p68
S'between'
p69
tp70
F0.018518518518518517
s(S'[[det]]'
p71
S'[[adj]]'
p72
S'boundary'
p73
tp74
F0.018518518518518517
s(S'[[det]]'
p75
S'river'
p76
S'of'
p77
tp78
F0.018518518518518517
s(S'[[num]]'
p79
g57
g58
tp80
F0.018518518518518517
s(g32
g33
S'border'
p81
tp82
F0.018518518518518517
s(S'[[det]]'
p83
g53
g54
tp84
F0.018518518518518517
s(S'[[det]]'
p85
S'river'
p86
S'in'
p87
tp88
F0.018518518518518517
s(S'[[det]]'
p89
S'border'
p90
S'between'
p91
tp92
F0.037037037037037035
s(S'[[adj]]'
p93
S'rivers'
p94
S'in'
p95
tp96
F0.018518518518518517
s(S'flows'
p97
S'through'
p98
S'parts'
p99
tp100
F0.018518518518518517
s(S'forms'
p101
g83
g53
tp102
F0.037037037037037035
s(S'[[adj]]'
p103
S'rivers'
p104
S'of'
p105
tp106
F0.018518518518518517
s(S'[[adj]]'
p107
S'river'
p108
S'of'
p109
tp110
F0.018518518518518517
s(g50
g51
S'through'
p111
tp112
F0.018518518518518517
s(S'[[det]]'
p113
S'boundary'
p114
S'with'
p115
tp116
F0.018518518518518517
s(g98
g99
S'of'
p117
tp118
F0.018518518518518517
s(S'[[det]]'
p119
S'river'
p120
S'[[det]]'
p121
tp122
F0.018518518518518517
s(S'[[num]]'
p123
S'rivers'
p124
S'in'
p125
tp126
F0.018518518518518517
s(g72
g73
S'between'
p127
tp128
F0.018518518518518517
s(S'[[det]]'
p129
g67
g68
tp130
F0.018518518518518517
s(S'forms'
p131
g113
g114
tp132
F0.05555555555555555
s(S'crosses'
p133
g9
g10
tp134
F0.018518518518518517
s(S'[[adj]]'
p135
S'longest'
p136
S'river'
p137
tp138
F0.018518518518518517
s(g36
g37
S'in'
p139
tp140
F0.037037037037037035
s(S'[[det]]'
p141
S'largest'
p142
S'river'
p143
tp144
F0.018518518518518517
s(S'[[det]]'
p145
g17
g18
tp146
F0.018518518518518517
s(S'forms'
p147
g89
g90
tp148
F0.018518518518518517
s(g58
g59
S'in'
p149
tp150
F0.018518518518518517
s.