(dp0
(S'then'
p1
S'played'
p2
S'with'
p3
tp4
F0.00033921302578018993
s(S'[[con]]'
p5
S'worked'
p6
S'later'
p7
tp8
F0.00033921302578018993
s(S'de'
p9
S'daughter'
p10
S'[[con]]'
p11
tp12
F0.00033921302578018993
s(S'to'
p13
S'marry'
p14
S'[[adj]]'
p15
tp16
F0.00033921302578018993
s(S'married'
p17
S'[[num]]'
p18
S'daughter'
p19
tp20
F0.0010176390773405698
s(S'ref'
p21
S'name'
p22
S'lt'
p23
tp24
F0.00033921302578018993
s(S'[[con]]'
p25
S'[[prp]]'
p26
S'son'
p27
tp28
F0.0010176390773405698
s(S'began'
p29
S'[[det]]'
p30
S'[[adj]]'
p31
tp32
F0.00033921302578018993
s(S'had'
p33
S'taken'
p34
S'out'
p35
tp36
F0.00033921302578018993
s(S'later'
p37
S'worked'
p38
S'to'
p39
tp40
F0.00033921302578018993
s(S'later'
p41
S'wrote'
p42
S'that'
p43
tp44
F0.00033921302578018993
s(S'[[det]]'
p45
S'time'
p46
S'with'
p47
tp48
F0.00033921302578018993
s(S'appeared'
p49
S'as'
p50
S'[[det]]'
p51
tp52
F0.00033921302578018993
s(S'[[adj]]'
p53
S'sister'
p54
S'who'
p55
tp56
F0.00033921302578018993
s(S'also'
p57
S'known'
p58
S'with'
p59
tp60
F0.00033921302578018993
s(S'that'
p61
S'worked'
p62
S'with'
p63
tp64
F0.00033921302578018993
s(S'is'
p65
S'born'
p66
S'[[num]]'
p67
tp68
F0.00033921302578018993
s(S'still'
p69
S'lives'
p70
S'with'
p71
tp72
F0.00033921302578018993
s(S'has'
p73
S'performed'
p74
S'under'
p75
tp76
F0.00033921302578018993
s(S'[[con]]'
p77
S'served'
p78
S'[[num]]'
p79
tp80
F0.00033921302578018993
s(S's'
p81
S'relationship'
p82
S'with'
p83
tp84
F0.00033921302578018993
s(S'twice'
p85
S'[[det]]'
p86
S'widow'
p87
tp88
F0.00033921302578018993
s(S'was'
p89
S'married'
p90
S'again'
p91
tp92
F0.00033921302578018993
s(S'[[mod]]'
p93
S'marry'
p94
S'[[prp]]'
p95
tp96
F0.00033921302578018993
s(S'then'
p97
S'moved'
p98
S'where'
p99
tp100
F0.00033921302578018993
s(S'ahead'
p101
S'of'
p102
S'home'
p103
tp104
F0.00033921302578018993
s(S'[[num]]'
p105
S'times'
p106
S'to'
p107
tp108
F0.0006784260515603799
s(S'had'
p109
S'killed'
p110
S'[[adj]]'
p111
tp112
F0.00033921302578018993
s(S'where'
p113
S'worked'
p114
S'for'
p115
tp116
F0.00033921302578018993
s(S'[[num]]'
p117
S'led'
p118
S'by'
p119
tp120
F0.00033921302578018993
s(S'which'
p121
S'starred'
p122
S'[[con]]'
p123
tp124
F0.00033921302578018993
s(S'also'
p125
S'known'
p126
S'as'
p127
tp128
F0.00033921302578018993
s(S'[[num]]'
p129
S'campaign'
p130
S'against'
p131
tp132
F0.00033921302578018993
s(S'had'
p133
S'left'
p134
S'[[prp]]'
p135
tp136
F0.00033921302578018993
s(S'[[con]]'
p137
S'performed'
p138
S'for'
p139
tp140
F0.00033921302578018993
s(S'[[con]]'
p141
S'remained'
p142
S'[[det]]'
p143
tp144
F0.00033921302578018993
s(S'be'
p145
S'seen'
p146
S'[[adj]]'
p147
tp148
F0.00033921302578018993
s(S'is'
p149
S'known'
p150
S'only'
p151
tp152
F0.00033921302578018993
s(S'also'
p153
S'worked'
p154
S'[[adj]]'
p155
tp156
F0.00033921302578018993
s(S'starred'
p157
S'[[adj]]'
p158
S'alongside'
p159
tp160
F0.00033921302578018993
s(S'[[det]]'
p161
S'companion'
p162
S'of'
p163
tp164
F0.00033921302578018993
s(S'when'
p165
S'wrote'
p166
S'to'
p167
tp168
F0.00033921302578018993
s(S'[[det]]'
p169
S'appearance'
p170
S'as'
p171
tp172
F0.00033921302578018993
s(S'[[adj]]'
p173
S'gt'
p174
S'ref'
p175
tp176
F0.00033921302578018993
s(S'also'
p177
S'seen'
p178
S'[[adj]]'
p179
tp180
F0.00033921302578018993
s(S'was'
p181
S'buried'
p182
S'[[adj]]'
p183
tp184
F0.00033921302578018993
s(S'off'
p185
S'[[det]]'
p186
S'lead'
p187
tp188
F0.00033921302578018993
s(S'[[adj]]'
p189
S'children'
p190
S'[[num]]'
p191
tp192
F0.00033921302578018993
s(S'ref'
p193
S'gt'
p194
S'is'
p195
tp196
F0.0013568521031207597
s(S'since'
p197
S'left'
p198
S'[[con]]'
p199
tp200
F0.00033921302578018993
s(S'when'
p201
S'married'
p202
S'[[det]]'
p203
tp204
F0.00033921302578018993
s(S'known'
p205
S'as'
p206
S'[[det]]'
p207
tp208
F0.00033921302578018993
s(S'be'
p209
S'seen'
p210
S'[[con]]'
p211
tp212
F0.00033921302578018993
s(S'which'
p213
S'starred'
p214
S'as'
p215
tp216
F0.00033921302578018993
s(S'from'
p217
S'[[adj]]'
p218
S'wife'
p219
tp220
F0.00033921302578018993
s(S'[[con]]'
p221
S'took'
p222
S'[[det]]'
p223
tp224
F0.00033921302578018993
s(S'[[det]]'
p225
S'time'
p226
S'[[adj]]'
p227
tp228
F0.00033921302578018993
s(S'also'
p229
S'appeared'
p230
S'along'
p231
tp232
F0.00033921302578018993
s(S'to'
p233
S'remove'
p234
S'[[pro]]'
p235
tp236
F0.00033921302578018993
s(g81
S'death'
p237
S'[[det]]'
p238
tp239
F0.00033921302578018993
s(S'[[det]]'
p240
S'sons'
p241
S'of'
p242
tp243
F0.00033921302578018993
s(S'is'
p244
S'called'
p245
S'as'
p246
tp247
F0.00033921302578018993
s(S'also'
p248
S'directed'
p249
S'with'
p250
tp251
F0.00033921302578018993
s(S'had'
p252
S'left'
p253
S'in'
p254
tp255
F0.00033921302578018993
s(S'[[det]]'
p256
S'daughter'
p257
S'[[num]]'
p258
tp259
F0.00033921302578018993
s(S'[[det]]'
p260
S'cousin'
p261
S'[[con]]'
p262
tp263
F0.00033921302578018993
s(S'[[prp]]'
p264
S'children'
p265
S'[[con]]'
p266
tp267
F0.00033921302578018993
s(S'on'
p268
S'lt'
p269
S'ref'
p270
tp271
F0.00033921302578018993
s(g50
g51
S'alongside'
p272
tp273
F0.00033921302578018993
s(S'died'
p274
S'at'
p275
S'[[adj]]'
p276
tp277
F0.00033921302578018993
s(S'married'
p278
S'[[det]]'
p279
S'painter'
p280
tp281
F0.00033921302578018993
s(S'[[con]]'
p282
S'met'
p283
S'[[con]]'
p284
tp285
F0.00033921302578018993
s(S'[[det]]'
p286
S'sister'
p287
S'[[con]]'
p288
tp289
F0.00033921302578018993
s(S'[[prp]]'
p290
S'[[adj]]'
p291
S'husband'
p292
tp293
F0.0013568521031207597
s(S'have'
p294
S'known'
p295
S'that'
p296
tp297
F0.00033921302578018993
s(S'[[pro]]'
p298
S'[[num]]'
p299
S'daughter'
p300
tp301
F0.00033921302578018993
s(S'where'
p302
S'remained'
p303
S'until'
p304
tp305
F0.00033921302578018993
s(S'was'
p306
S'known'
p307
S'with'
p308
tp309
F0.00033921302578018993
s(S'later'
p310
S'wrote'
p311
S'[[adj]]'
p312
tp313
F0.00033921302578018993
s(g81
S'work'
p314
S'with'
p315
tp316
F0.00033921302578018993
s(S'ref'
p317
S'gt'
p318
S'attended'
p319
tp320
F0.00033921302578018993
s(S'be'
p321
S'called'
p322
S'[[det]]'
p323
tp324
F0.00033921302578018993
s(S'[[adj]]'
p325
S'children'
p326
S'of'
p327
tp328
F0.00033921302578018993
s(S'hit'
p329
S'lt'
p330
S'ref'
p331
tp332
F0.00033921302578018993
s(S'[[det]]'
p333
S'director'
p334
S'on'
p335
tp336
F0.00033921302578018993
s(S'[[con]]'
p337
S'served'
p338
S'when'
p339
tp340
F0.00033921302578018993
s(S'is'
p341
S'told'
p342
S'that'
p343
tp344
F0.00033921302578018993
s(S'married'
p345
S'[[det]]'
p346
S'cousin'
p347
tp348
F0.00033921302578018993
s(S'gt'
p349
S'list'
p350
S'[[con]]'
p351
tp352
F0.00033921302578018993
s(S'also'
p353
S'met'
p354
S'[[prp]]'
p355
tp356
F0.0006784260515603799
s(S'has'
p357
S'played'
p358
S'with'
p359
tp360
F0.00033921302578018993
s(S'[[adj]]'
p361
S'actress'
p362
S'[[con]]'
p363
tp364
F0.00033921302578018993
s(S'[[adj]]'
p365
S'friends'
p366
S'with'
p367
tp368
F0.00033921302578018993
s(S'later'
p369
S'lived'
p370
S'with'
p371
tp372
F0.00033921302578018993
s(S'[[det]]'
p373
S'known'
p374
S'as'
p375
tp376
F0.00033921302578018993
s(S'in'
p377
S'was'
p378
S'followed'
p379
tp380
F0.00033921302578018993
s(S'is'
p381
S'killed'
p382
S'[[con]]'
p383
tp384
F0.00033921302578018993
s(S'often'
p385
S'appeared'
p386
S'with'
p387
tp388
F0.00033921302578018993
s(S'married'
p389
S'[[adj]]'
p390
S'wife'
p391
tp392
F0.00033921302578018993
s(S'[[con]]'
p393
S'tells'
p394
S'[[pro]]'
p395
tp396
F0.00033921302578018993
s(S'[[prp]]'
p397
S'brothers'
p398
S'were'
p399
tp400
F0.00033921302578018993
s(S'also'
p401
S'met'
p402
S'[[adj]]'
p403
tp404
F0.00033921302578018993
s(S'also'
p405
S'worked'
p406
S'under'
p407
tp408
F0.00033921302578018993
s(S'was'
p409
S'cast'
p410
S'[[adj]]'
p411
tp412
F0.0006784260515603799
s(S'been'
p413
S'called'
p414
S'up'
p415
tp416
F0.00033921302578018993
s(S'best'
p417
S'known'
p418
S'to'
p419
tp420
F0.00033921302578018993
s(S'worked'
p421
S'as'
p422
S'[[det]]'
p423
tp424
F0.00033921302578018993
s(S'has'
p425
S'played'
p426
S'by'
p427
tp428
F0.00033921302578018993
s(S'starred'
p429
S'alongside'
p430
S'[[det]]'
p431
tp432
F0.00033921302578018993
s(S'later'
p433
S'told'
p434
S'[[pro]]'
p435
tp436
F0.00033921302578018993
s(S'been'
p437
S'called'
p438
S'[[adj]]'
p439
tp440
F0.00033921302578018993
s(S'[[adj]]'
p441
S'alongside'
p442
S'[[con]]'
p443
tp444
F0.0006784260515603799
s(S'met'
p445
S'[[prp]]'
p446
S'husband'
p447
tp448
F0.00033921302578018993
s(S'also'
p449
S'appeared'
p450
S'[[con]]'
p451
tp452
F0.00033921302578018993
s(S'[[det]]'
p453
S'remains'
p454
S'of'
p455
tp456
F0.00033921302578018993
s(g81
S'son'
p457
S'whom'
p458
tp459
F0.00033921302578018993
s(S'wrote'
p460
S'lt'
p461
S'ref'
p462
tp463
F0.00033921302578018993
s(S'[[adj]]'
p464
S'director'
p465
S'to'
p466
tp467
F0.00033921302578018993
s(S'election'
p468
S'[[num]]'
p469
S'lt'
p470
tp471
F0.00033921302578018993
s(S'ref'
p472
S'gt'
p473
S'has'
p474
tp475
F0.0006784260515603799
s(S'[[adj]]'
p476
S'time'
p477
S'as'
p478
tp479
F0.00033921302578018993
s(S'[[adj]]'
p480
S'ahead'
p481
S'of'
p482
tp483
F0.00033921302578018993
s(g81
S'sons'
p484
S'[[con]]'
p485
tp486
F0.00033921302578018993
s(S'has'
p487
S'played'
p488
S'from'
p489
tp490
F0.00033921302578018993
s(S'name'
p491
S'gt'
p492
S'[[adj]]'
p493
tp494
F0.0006784260515603799
s(S'divorced'
p495
S'[[prp]]'
p496
S'husband'
p497
tp498
F0.00033921302578018993
s(S'later'
p499
S'took'
p500
S'[[det]]'
p501
tp502
F0.00033921302578018993
s(S'also'
p503
S'married'
p504
S'[[det]]'
p505
tp506
F0.00033921302578018993
s(S'[[con]]'
p507
S'moved'
p508
S'to'
p509
tp510
F0.00033921302578018993
s(S'[[num]]'
p511
S'appearance'
p512
S'with'
p513
tp514
F0.00033921302578018993
s(S'[[det]]'
p515
S'match'
p516
S'at'
p517
tp518
F0.00033921302578018993
s(S'was'
p519
S'played'
p520
S'by'
p521
tp522
F0.00033921302578018993
s(S'done'
p523
S'work'
p524
S'[[adj]]'
p525
tp526
F0.00033921302578018993
s(S'also'
p527
S'appeared'
p528
S'by'
p529
tp530
F0.00033921302578018993
s(S'[[prp]]'
p531
S'son'
p532
S'to'
p533
tp534
F0.00033921302578018993
s(S'to'
p535
S'remove'
p536
S'from'
p537
tp538
F0.00033921302578018993
s(S'[[num]]'
p539
S'wrote'
p540
S'on'
p541
tp542
F0.00033921302578018993
s(S'also'
p543
S'played'
p544
S'[[con]]'
p545
tp546
F0.00033921302578018993
s(S'also'
p547
S'left'
p548
S'[[det]]'
p549
tp550
F0.00033921302578018993
s(S'with'
p551
S'[[prp]]'
p552
S'husband'
p553
tp554
F0.0020352781546811396
s(S'had'
p555
S'played'
p556
S'[[con]]'
p557
tp558
F0.00033921302578018993
s(S'had'
p559
S'married'
p560
S'[[con]]'
p561
tp562
F0.00033921302578018993
s(S'[[con]]'
p563
S'widow'
p564
S'of'
p565
tp566
F0.00033921302578018993
s(S'became'
p567
S'known'
p568
S'[[con]]'
p569
tp570
F0.00033921302578018993
s(S'not'
p571
S'known'
p572
S'to'
p573
tp574
F0.00033921302578018993
s(S'had'
p575
S'died'
p576
S'at'
p577
tp578
F0.00033921302578018993
s(S'then'
p579
S'starred'
p580
S'[[adj]]'
p581
tp582
F0.00033921302578018993
s(S'later'
p583
S'worked'
p584
S'under'
p585
tp586
F0.00033921302578018993
s(S'[[prp]]'
p587
S'son'
p588
S'[[num]]'
p589
tp590
F0.00033921302578018993
s(S'married'
p591
S'[[con]]'
p592
S'[[det]]'
p593
tp594
F0.0020352781546811396
s(S'also'
p595
S'won'
p596
S'over'
p597
tp598
F0.00033921302578018993
s(S'has'
p599
S'stated'
p600
S'that'
p601
tp602
F0.00033921302578018993
s(S'have'
p603
S'worked'
p604
S'as'
p605
tp606
F0.00033921302578018993
s(S'has'
p607
S'met'
p608
S'with'
p609
tp610
F0.00033921302578018993
s(S'[[con]]'
p611
S'died'
p612
S'[[num]]'
p613
tp614
F0.00033921302578018993
s(S'gt'
p615
S'lt'
p616
S'ref'
p617
tp618
F0.009497964721845319
s(S'[[adj]]'
p619
S'son'
p620
S'with'
p621
tp622
F0.00033921302578018993
s(S'[[det]]'
p623
S'guest'
p624
S'[[con]]'
p625
tp626
F0.00033921302578018993
s(S'also'
p627
S'served'
p628
S'when'
p629
tp630
F0.00033921302578018993
s(S'well'
p631
S'known'
p632
S'for'
p633
tp634
F0.00033921302578018993
s(S'career'
p635
S'ahead'
p636
S'of'
p637
tp638
F0.00033921302578018993
s(S'[[det]]'
p639
S'actor'
p640
S'who'
p641
tp642
F0.00033921302578018993
s(S'had'
p643
S'left'
p644
S'off'
p645
tp646
F0.00033921302578018993
s(S'ref'
p647
S'gt'
p648
S'along'
p649
tp650
F0.00033921302578018993
s(S'[[con]]'
p651
S'met'
p652
S'with'
p653
tp654
F0.00033921302578018993
s(S'[[det]]'
p655
S'son'
p656
S'[[con]]'
p657
tp658
F0.00033921302578018993
s(S'[[det]]'
p659
S'wife'
p660
S'of'
p661
tp662
F0.0010176390773405698
s(S'[[con]]'
p663
S'gave'
p664
S'[[adj]]'
p665
tp666
F0.00033921302578018993
s(S'married'
p667
S'[[pro]]'
p668
S'[[prp]]'
p669
tp670
F0.00033921302578018993
s(S'then'
p671
S'played'
p672
S'by'
p673
tp674
F0.00033921302578018993
s(S'to'
p675
S'work'
p676
S'under'
p677
tp678
F0.00033921302578018993
s(S'king'
p679
S'lt'
p680
S'ref'
p681
tp682
F0.00033921302578018993
s(S'later'
p683
S'left'
p684
S'[[con]]'
p685
tp686
F0.00033921302578018993
s(g81
S'mother'
p687
S'that'
p688
tp689
F0.00033921302578018993
s(S'to'
p690
S'know'
p691
S'that'
p692
tp693
F0.00033921302578018993
s(S'found'
p694
S'work'
p695
S'for'
p696
tp697
F0.00033921302578018993
s(S'been'
p698
S'married'
p699
S'twice'
p700
tp701
F0.00033921302578018993
s(S'[[det]]'
p702
S'daughter'
p703
S'to'
p704
tp705
F0.00033921302578018993
s(S'was'
p706
S'sister'
p707
S'of'
p708
tp709
F0.00033921302578018993
s(S'[[num]]'
p710
S'gt'
p711
S'[[con]]'
p712
tp713
F0.00033921302578018993
s(S'[[adj]]'
p714
S'veteran'
p715
S'[[num]]'
p716
tp717
F0.00033921302578018993
s(S'[[num]]'
p718
S'work'
p719
S'of'
p720
tp721
F0.00033921302578018993
s(S'was'
p722
S'killed'
p723
S'as'
p724
tp725
F0.00033921302578018993
s(S'have'
p726
S'known'
p727
S'among'
p728
tp729
F0.00033921302578018993
s(g81
S'life'
p730
S'with'
p731
tp732
F0.00033921302578018993
s(S'lived'
p733
S'with'
p734
S'[[adj]]'
p735
tp736
F0.00033921302578018993
s(S'[[adj]]'
p737
S'son'
p738
S'[[det]]'
p739
tp740
F0.00033921302578018993
s(S'had'
p741
S'proposed'
p742
S'to'
p743
tp744
F0.00033921302578018993
s(S'where'
p745
S'played'
p746
S'with'
p747
tp748
F0.00033921302578018993
s(S'get'
p749
S'married'
p750
S'to'
p751
tp752
F0.00033921302578018993
s(S'married'
p753
S'[[prp]]'
p754
S'childhood'
p755
tp756
F0.00033921302578018993
s(S'[[pro]]'
p757
S'know'
p758
S'that'
p759
tp760
F0.00033921302578018993
s(S'is'
p761
S'reported'
p762
S'in'
p763
tp764
F0.00033921302578018993
s(S'to'
p765
S'remove'
p766
S'[[det]]'
p767
tp768
F0.00033921302578018993
s(S'is'
p769
S'cousin'
p770
S'to'
p771
tp772
F0.00033921302578018993
s(S'[[adj]]'
p773
S'time'
p774
S'with'
p775
tp776
F0.00033921302578018993
s(S'married'
p777
S'to'
p778
S'wife'
p779
tp780
F0.0006784260515603799
s(S'[[det]]'
p781
S'mother'
p782
S'of'
p783
tp784
F0.00033921302578018993
s(S'which'
p785
S'appeared'
p786
S'with'
p787
tp788
F0.00033921302578018993
s(S'[[adj]]'
p789
S'cousin'
p790
S'[[con]]'
p791
tp792
F0.00033921302578018993
s(S'gt'
p793
S'[[con]]'
p794
S'joined'
p795
tp796
F0.00033921302578018993
s(S'for'
p797
S'called'
p798
S'along'
p799
tp800
F0.00033921302578018993
s(S'[[adj]]'
p801
S'daughter'
p802
S'[[adj]]'
p803
tp804
F0.00033921302578018993
s(S'was'
p805
S'killed'
p806
S'[[con]]'
p807
tp808
F0.00033921302578018993
s(S'[[num]]'
p809
S'performed'
p810
S'by'
p811
tp812
F0.00033921302578018993
s(S'[[con]]'
p813
S'son'
p814
S'of'
p815
tp816
F0.00033921302578018993
s(S'later'
p817
S'wrote'
p818
S'to'
p819
tp820
F0.00033921302578018993
s(S'was'
p821
S'killed'
p822
S'because'
p823
tp824
F0.00033921302578018993
s(S'is'
p825
S'killed'
p826
S'after'
p827
tp828
F0.00033921302578018993
s(S'where'
p829
S'worked'
p830
S'along'
p831
tp832
F0.00033921302578018993
s(S'prevented'
p833
S'[[det]]'
p834
S'team'
p835
tp836
F0.00033921302578018993
s(S'[[con]]'
p837
S'tells'
p838
S'that'
p839
tp840
F0.00033921302578018993
s(S'[[num]]'
p841
S'[[adj]]'
p842
S'ref'
p843
tp844
F0.0030529172320217096
s(S'was'
p845
S'cast'
p846
S'with'
p847
tp848
F0.00033921302578018993
s(S'gt'
p849
S'[[det]]'
p850
S'son'
p851
tp852
F0.00033921302578018993
s(S'[[adj]]'
p853
S'appearance'
p854
S'[[adj]]'
p855
tp856
F0.00033921302578018993
s(S'[[adj]]'
p857
S'work'
p858
S'to'
p859
tp860
F0.00033921302578018993
s(S'was'
p861
S'married'
p862
S'when'
p863
tp864
F0.00033921302578018993
s(S'was'
p865
S'wife'
p866
S'of'
p867
tp868
F0.00033921302578018993
s(S'soon'
p869
S'met'
p870
S'[[con]]'
p871
tp872
F0.00033921302578018993
s(S'also'
p873
S'performed'
p874
S'[[adj]]'
p875
tp876
F0.00033921302578018993
s(S'also'
p877
S'appeared'
p878
S'[[adj]]'
p879
tp880
F0.0010176390773405698
s(S'[[adj]]'
p881
S'stars'
p882
S'[[adj]]'
p883
tp884
F0.00033921302578018993
s(S'[[con]]'
p885
S'followed'
p886
S'[[det]]'
p887
tp888
F0.00033921302578018993
s(S'then'
p889
S'worked'
p890
S'as'
p891
tp892
F0.00033921302578018993
s(S'starred'
p893
S'in'
p894
S'[[con]]'
p895
tp896
F0.00033921302578018993
s(S'ref'
p897
S'gt'
p898
S'joined'
p899
tp900
F0.0010176390773405698
s(S'first'
p901
S'appeared'
p902
S'with'
p903
tp904
F0.00033921302578018993
s(S'of'
p905
S'lt'
p906
S'ref'
p907
tp908
F0.0010176390773405698
s(S'where'
p909
S'took'
p910
S'part'
p911
tp912
F0.00033921302578018993
s(S'then'
p913
S'gave'
p914
S'[[pro]]'
p915
tp916
F0.00033921302578018993
s(S'was'
p917
S'son'
p918
S'by'
p919
tp920
F0.00033921302578018993
s(S'is'
p921
S'son'
p922
S'to'
p923
tp924
F0.00033921302578018993
s(S'first'
p925
S'appeared'
p926
S'as'
p927
tp928
F0.00033921302578018993
s(S'[[adj]]'
p929
S'wife'
p930
S'[[pro]]'
p931
tp932
F0.00033921302578018993
s(S'better'
p933
S'known'
p934
S'[[det]]'
p935
tp936
F0.00033921302578018993
s(S'son'
p937
S'of'
p938
S'son'
p939
tp940
F0.00033921302578018993
s(S'[[det]]'
p941
S'son'
p942
S'became'
p943
tp944
F0.00033921302578018993
s(S'[[adj]]'
p945
S'parish'
p946
S'lt'
p947
tp948
F0.00033921302578018993
s(S'mostly'
p949
S'known'
p950
S'as'
p951
tp952
F0.00033921302578018993
s(S'also'
p953
S'served'
p954
S'after'
p955
tp956
F0.00033921302578018993
s(S'was'
p957
S'known'
p958
S'after'
p959
tp960
F0.00033921302578018993
s(S'has'
p961
S'performed'
p962
S'by'
p963
tp964
F0.00033921302578018993
s(S'formerly'
p965
S'served'
p966
S'as'
p967
tp968
F0.00033921302578018993
s(S'was'
p969
S'mother'
p970
S'to'
p971
tp972
F0.00033921302578018993
s(S'with'
p973
S'[[num]]'
p974
S'daughter'
p975
tp976
F0.00033921302578018993
s(S'also'
p977
S'served'
p978
S'to'
p979
tp980
F0.00033921302578018993
s(S'[[det]]'
p981
S'lead'
p982
S'[[con]]'
p983
tp984
F0.00033921302578018993
s(S'[[num]]'
p985
S'ahead'
p986
S'of'
p987
tp988
F0.00033921302578018993
s(S'also'
p989
S'wrote'
p990
S'on'
p991
tp992
F0.00033921302578018993
s(S'was'
p993
S'called'
p994
S'upon'
p995
tp996
F0.00033921302578018993
s(S'had'
p997
S'died'
p998
S'while'
p999
tp1000
F0.00033921302578018993
s(S'to'
p1001
S'visit'
p1002
S'[[con]]'
p1003
tp1004
F0.00033921302578018993
s(S'[[num]]'
p1005
S'issue'
p1006
S'page'
p1007
tp1008
F0.00033921302578018993
s(S'[[adj]]'
p1009
S'died'
p1010
S'[[num]]'
p1011
tp1012
F0.00033921302578018993
s(S'[[det]]'
p1013
S'director'
p1014
S'[[con]]'
p1015
tp1016
F0.00033921302578018993
s(S'[[con]]'
p1017
S'work'
p1018
S'on'
p1019
tp1020
F0.00033921302578018993
s(S'best'
p1021
S'known'
p1022
S'as'
p1023
tp1024
F0.0006784260515603799
s(S'had'
p1025
S'told'
p1026
S'[[pro]]'
p1027
tp1028
F0.00033921302578018993
s(S'[[con]]'
p1029
S'declared'
p1030
S'[[adj]]'
p1031
tp1032
F0.00033921302578018993
s(S'[[prp]]'
p1033
S'life'
p1034
S'to'
p1035
tp1036
F0.00033921302578018993
s(S'[[con]]'
p1037
S'tells'
p1038
S'[[det]]'
p1039
tp1040
F0.00033921302578018993
s(S'awarded'
p1041
S'lt'
p1042
S'ref'
p1043
tp1044
F0.00033921302578018993
s(S'[[con]]'
p1045
S'won'
p1046
S'with'
p1047
tp1048
F0.00033921302578018993
s(S'had'
p1049
S'seen'
p1050
S'[[con]]'
p1051
tp1052
F0.00033921302578018993
s(S'first'
p1053
S'performed'
p1054
S'with'
p1055
tp1056
F0.00033921302578018993
s(S'[[adj]]'
p1057
S'relationship'
p1058
S'with'
p1059
tp1060
F0.0006784260515603799
s(S'[[prp]]'
p1061
S'mother'
p1062
g81
tp1063
F0.00033921302578018993
s(S'[[adj]]'
p1064
S'husband'
p1065
S'was'
p1066
tp1067
F0.00033921302578018993
s(S'[[prp]]'
p1068
S'son'
p1069
S'[[con]]'
p1070
tp1071
F0.00033921302578018993
s(S'[[det]]'
p1072
S'child'
p1073
S'of'
p1074
tp1075
F0.00033921302578018993
s(S'was'
p1076
S'taken'
p1077
S'with'
p1078
tp1079
F0.00033921302578018993
s(S'al'
p1080
S'p'
p1081
S'[[num]]'
p1082
tp1083
F0.00033921302578018993
s(S'also'
p1084
S'seen'
p1085
S'with'
p1086
tp1087
F0.00033921302578018993
s(S'[[det]]'
p1088
S'children'
p1089
g81
tp1090
F0.00033921302578018993
s(S'best'
p1091
S'known'
p1092
S'where'
p1093
tp1094
F0.00033921302578018993
s(S'[[prp]]'
p1095
S'wife'
p1096
S'had'
p1097
tp1098
F0.00033921302578018993
s(S'later'
p1099
S'stated'
p1100
S'that'
p1101
tp1102
F0.00033921302578018993
s(S'[[det]]'
p1103
S'cousin'
p1104
S'who'
p1105
tp1106
F0.00033921302578018993
s(S'as'
p1107
S'wrote'
p1108
S'to'
p1109
tp1110
F0.00033921302578018993
s(S'as'
p1111
S'played'
p1112
S'by'
p1113
tp1114
F0.00033921302578018993
s(S'also'
p1115
S'engaged'
p1116
S'with'
p1117
tp1118
F0.00033921302578018993
s(S'to'
p1119
S'visit'
p1120
S'[[prp]]'
p1121
tp1122
F0.00033921302578018993
s(S'[[num]]'
p1123
S'ref'
p1124
S'gt'
p1125
tp1126
F0.010854816824966078
s(S'was'
p1127
S'asked'
p1128
S'by'
p1129
tp1130
F0.00033921302578018993
s(S'is'
p1131
S'played'
p1132
S'by'
p1133
tp1134
F0.00033921302578018993
s(S'[[prp]]'
p1135
S'wife'
p1136
S'[[num]]'
p1137
tp1138
F0.00033921302578018993
s(S'well'
p1139
S'known'
p1140
S'about'
p1141
tp1142
F0.00033921302578018993
s(S'[[adj]]'
p1143
S'known'
p1144
S'as'
p1145
tp1146
F0.00033921302578018993
s(S'is'
p1147
S'married'
p1148
S'[[con]]'
p1149
tp1150
F0.0020352781546811396
s(S'[[con]]'
p1151
S'served'
p1152
S'with'
p1153
tp1154
F0.00033921302578018993
s(S'also'
p1155
S'showed'
p1156
S'[[prp]]'
p1157
tp1158
F0.00033921302578018993
s(S'[[adj]]'
p1159
S'life'
p1160
S'[[con]]'
p1161
tp1162
F0.00033921302578018993
s(S'also'
p1163
S'won'
p1164
S'to'
p1165
tp1166
F0.00033921302578018993
s(S'championship'
p1167
S'by'
p1168
S'winning'
p1169
tp1170
F0.00033921302578018993
s(S'was'
p1171
S'killed'
p1172
S'after'
p1173
tp1174
F0.00033921302578018993
s(S'was'
p1175
S'daughter'
p1176
S'of'
p1177
tp1178
F0.00033921302578018993
s(S'began'
p1179
S'[[det]]'
p1180
S'relationship'
p1181
tp1182
F0.00033921302578018993
s(S'[[mod]]'
p1183
S'marry'
p1184
S'[[adj]]'
p1185
tp1186
F0.00033921302578018993
s(S'ref'
p1187
S'gt'
p1188
S'moved'
p1189
tp1190
F0.0010176390773405698
s(S'married'
p1191
S'[[det]]'
p1192
S'[[adj]]'
p1193
tp1194
F0.0013568521031207597
s(S'more'
p1195
S'children'
p1196
S'[[det]]'
p1197
tp1198
F0.00033921302578018993
s(S'[[det]]'
p1199
S'daughter'
p1200
S'was'
p1201
tp1202
F0.00033921302578018993
s(S'secondly'
p1203
S'[[det]]'
p1204
S'daughter'
p1205
tp1206
F0.00033921302578018993
s(S'did'
p1207
S'take'
p1208
S'who'
p1209
tp1210
F0.00033921302578018993
s(S'later'
p1211
S'wrote'
p1212
S'while'
p1213
tp1214
F0.00033921302578018993
s(S'gt'
p1215
S'[[adj]]'
p1216
S'works'
p1217
tp1218
F0.00033921302578018993
s(S'[[num]]'
p1219
S'widow'
p1220
S'of'
p1221
tp1222
F0.00033921302578018993
s(S'to'
p1223
S'gain'
p1224
S'[[det]]'
p1225
tp1226
F0.00033921302578018993
s(S'married'
p1227
S'to'
p1228
S'[[det]]'
p1229
tp1230
F0.00508819538670285
s(S'[[num]]'
p1231
S'sons'
p1232
S'of'
p1233
tp1234
F0.00033921302578018993
s(S'[[num]]'
p1235
S'alongside'
p1236
S'[[con]]'
p1237
tp1238
F0.00033921302578018993
s(S'[[con]]'
p1239
S'took'
p1240
S'[[pro]]'
p1241
tp1242
F0.00033921302578018993
s(S'with'
p1243
S'son'
p1244
S'of'
p1245
tp1246
F0.00033921302578018993
s(S'is'
p1247
S'survived'
p1248
S'by'
p1249
tp1250
F0.0006784260515603799
s(S'ref'
p1251
S'gt'
p1252
S'wrote'
p1253
tp1254
F0.0013568521031207597
s(g887
S'stage'
p1255
S'career'
p1256
tp1257
F0.00033921302578018993
s(S'left'
p1258
S'[[prp]]'
p1259
S'wife'
p1260
tp1261
F0.00033921302578018993
s(S'is'
p1262
S'son'
p1263
S'[[con]]'
p1264
tp1265
F0.00033921302578018993
s(g81
S'campaign'
p1266
S'to'
p1267
tp1268
F0.00033921302578018993
s(S'had'
p1269
S'performed'
p1270
S'with'
p1271
tp1272
F0.00033921302578018993
s(S'[[con]]'
p1273
S'appeared'
p1274
S'for'
p1275
tp1276
F0.00033921302578018993
s(S'since'
p1277
S'worked'
p1278
S'with'
p1279
tp1280
F0.00033921302578018993
s(S'has'
p1281
S'played'
p1282
S'as'
p1283
tp1284
F0.00033921302578018993
s(S'who'
p1285
S'married'
p1286
S'[[det]]'
p1287
tp1288
F0.00033921302578018993
s(S'to'
p1289
S'work'
p1290
S'as'
p1291
tp1292
F0.00033921302578018993
s(S'has'
p1293
S'starred'
p1294
S'with'
p1295
tp1296
F0.00033921302578018993
s(S'has'
p1297
S'appeared'
p1298
S'with'
p1299
tp1300
F0.00033921302578018993
s(S'to'
p1301
S'play'
p1302
S'[[num]]'
p1303
tp1304
F0.00033921302578018993
s(g81
S'work'
p1305
S'which'
p1306
tp1307
F0.00033921302578018993
s(S'to'
p1308
S'know'
p1309
S'why'
p1310
tp1311
F0.00033921302578018993
s(S'also'
p1312
S'played'
p1313
S'together'
p1314
tp1315
F0.00033921302578018993
s(S'to'
p1316
S'visit'
p1317
S'[[adj]]'
p1318
tp1319
F0.00033921302578018993
s(S'[[det]]'
p1320
S'work'
p1321
S'by'
p1322
tp1323
F0.00033921302578018993
s(S'later'
p1324
S'served'
p1325
S'as'
p1326
tp1327
F0.00033921302578018993
s(S'[[con]]'
p1328
S'gave'
p1329
S'birth'
p1330
tp1331
F0.0006784260515603799
s(S'have'
p1332
S'played'
p1333
S'[[adj]]'
p1334
tp1335
F0.00033921302578018993
s(S'ref'
p1336
S'name'
p1337
S'[[num]]'
p1338
tp1339
F0.0023744911804613297
s(S'[[det]]'
p1340
S'sons'
p1341
S'[[con]]'
p1342
tp1343
F0.00033921302578018993
s(S'[[num]]'
p1344
S'son'
p1345
S'of'
p1346
tp1347
F0.00033921302578018993
s(S'later'
p1348
S'married'
p1349
S'sister'
p1350
tp1351
F0.00033921302578018993
s(S'is'
p1352
S'cousin'
p1353
S'of'
p1354
tp1355
F0.00033921302578018993
s(S'also'
p1356
S'met'
p1357
S'[[det]]'
p1358
tp1359
F0.00033921302578018993
s(S'appeared'
p1360
S'alongside'
p1361
S'[[adj]]'
p1362
tp1363
F0.00033921302578018993
s(g716
S'lt'
p1364
S'ref'
p1365
tp1366
F0.008819538670284939
s(S'have'
p1367
S'worked'
p1368
S'under'
p1369
tp1370
F0.00033921302578018993
s(S'[[det]]'
p1371
S'sister'
p1372
S'who'
p1373
tp1374
F0.0006784260515603799
s(S'now'
p1375
S'lives'
p1376
S'in'
p1377
tp1378
F0.0006784260515603799
s(S'also'
p1379
S'appeared'
p1380
S'alongside'
p1381
tp1382
F0.0006784260515603799
s(S'have'
p1383
S'played'
p1384
S'with'
p1385
tp1386
F0.00033921302578018993
s(S'became'
p1387
S'known'
p1388
S'for'
p1389
tp1390
F0.00033921302578018993
s(S'ref'
p1391
S'gt'
p1392
S'given'
p1393
tp1394
F0.00033921302578018993
s(S'got'
p1395
S'away'
p1396
S'[[con]]'
p1397
tp1398
F0.00033921302578018993
s(S'[[det]]'
p1399
S'widow'
p1400
S'of'
p1401
tp1402
F0.0013568521031207597
s(S'[[adj]]'
p1403
S'children'
p1404
S'by'
p1405
tp1406
F0.00033921302578018993
s(S'married'
p1407
S'[[adj]]'
p1408
S'costar'
p1409
tp1410
F0.00033921302578018993
s(S'[[det]]'
p1411
S'daughter'
p1412
S'of'
p1413
tp1414
F0.004070556309362279
s(S'[[num]]'
p1415
S'sons'
p1416
S'[[det]]'
p1417
tp1418
F0.00033921302578018993
s(S'[[adj]]'
p1419
S'marriage'
p1420
S'[[con]]'
p1421
tp1422
F0.00033921302578018993
s(S'as'
p1423
S'told'
p1424
S'to'
p1425
tp1426
F0.00033921302578018993
s(S'[[adj]]'
p1427
S'appearance'
p1428
S'with'
p1429
tp1430
F0.00033921302578018993
s(S'[[con]]'
p1431
S'married'
p1432
S'[[num]]'
p1433
tp1434
F0.00033921302578018993
s(S'be'
p1435
S'seen'
p1436
S'by'
p1437
tp1438
F0.00033921302578018993
s(S'has'
p1439
S'worked'
p1440
S'together'
p1441
tp1442
F0.00033921302578018993
s(S'lives'
p1443
S'with'
p1444
S'husband'
p1445
tp1446
F0.0006784260515603799
s(S'[[num]]'
p1447
S'played'
p1448
S'with'
p1449
tp1450
F0.00033921302578018993
s(g1224
g1225
S'younger'
p1451
tp1452
F0.00033921302578018993
s(S'is'
p1453
S'buried'
p1454
S'[[adj]]'
p1455
tp1456
F0.00033921302578018993
s(S'reports'
p1457
S'that'
p1458
S'lt'
p1459
tp1460
F0.00033921302578018993
s(S'then'
p1461
S'asked'
p1462
S'[[pro]]'
p1463
tp1464
F0.00033921302578018993
s(S'then'
p1465
S'wrote'
p1466
S'to'
p1467
tp1468
F0.00033921302578018993
s(S'best'
p1469
S'known'
p1470
S'for'
p1471
tp1472
F0.00033921302578018993
s(S'studies'
p1473
S'in'
p1474
S'where'
p1475
tp1476
F0.00033921302578018993
s(S'was'
p1477
S'with'
p1478
S'include'
p1479
tp1480
F0.00033921302578018993
s(S'married'
p1481
S'to'
p1482
S'[[prp]]'
p1483
tp1484
F0.0010176390773405698
s(S'[[num]]'
p1485
S'stars'
p1486
S'[[con]]'
p1487
tp1488
F0.00033921302578018993
s(S'[[adj]]'
p1489
S'son'
p1490
S'[[num]]'
p1491
tp1492
F0.00033921302578018993
s(S'had'
p1493
S'met'
p1494
S'[[con]]'
p1495
tp1496
F0.00033921302578018993
s(S'[[con]]'
p1497
S'won'
p1498
S'over'
p1499
tp1500
F0.00033921302578018993
s(S'[[adj]]'
p1501
S'husband'
p1502
S'of'
p1503
tp1504
F0.00033921302578018993
s(S'be'
p1505
S'led'
p1506
S'by'
p1507
tp1508
F0.00033921302578018993
s(S'[[con]]'
p1509
S'[[prp]]'
p1510
S'daughter'
p1511
tp1512
F0.00033921302578018993
s(S'to'
p1513
S'[[det]]'
p1514
S'widow'
p1515
tp1516
F0.00033921302578018993
s(S'accessed'
p1517
S'[[num]]'
p1518
S'ref'
p1519
tp1520
F0.00033921302578018993
s(S'ref'
p1521
S'gt'
p1522
S'found'
p1523
tp1524
F0.00033921302578018993
s(S'lt'
p1525
S'gt'
p1526
S'while'
p1527
tp1528
F0.00033921302578018993
s(S'had'
p1529
S'met'
p1530
S'with'
p1531
tp1532
F0.00033921302578018993
s(S'ref'
p1533
S'gt'
p1534
S'of'
p1535
tp1536
F0.0013568521031207597
s(S'also'
p1537
S'met'
p1538
S'from'
p1539
tp1540
F0.00033921302578018993
s(g81
S'daughter'
p1541
S'in'
p1542
tp1543
F0.00033921302578018993
s(S'to'
p1544
S'[[prp]]'
p1545
S'costar'
p1546
tp1547
F0.00033921302578018993
s(S'have'
p1548
S'worked'
p1549
S'with'
p1550
tp1551
F0.00033921302578018993
s(g1474
g1475
S'worked'
p1552
tp1553
F0.00033921302578018993
s(S'ref'
p1554
S'gt'
p1555
S'had'
p1556
tp1557
F0.0013568521031207597
s(S'was'
p1558
S'welcomed'
p1559
S'by'
p1560
tp1561
F0.00033921302578018993
s(S'then'
p1562
S'served'
p1563
S'as'
p1564
tp1565
F0.00033921302578018993
s(S'has'
p1566
S'directed'
p1567
S'[[adj]]'
p1568
tp1569
F0.00033921302578018993
s(S'was'
p1570
S'asked'
p1571
S'to'
p1572
tp1573
F0.00033921302578018993
s(S'[[det]]'
p1574
S'release'
p1575
S'[[det]]'
p1576
tp1577
F0.00033921302578018993
s(S'ref'
p1578
S'name'
p1579
S'ref'
p1580
tp1581
F0.00033921302578018993
s(S'skills'
p1582
g1223
g1224
tp1583
F0.00033921302578018993
s(S'later'
p1584
S'wrote'
p1585
S'[[num]]'
p1586
tp1587
F0.00033921302578018993
s(S'to'
p1588
S'know'
p1589
S'[[con]]'
p1590
tp1591
F0.00033921302578018993
s(S'been'
p1592
S'taken'
p1593
S'by'
p1594
tp1595
F0.00033921302578018993
s(S'currently'
p1596
S'engaged'
p1597
S'to'
p1598
tp1599
F0.00033921302578018993
s(g81
S'brothers'
p1600
S'[[con]]'
p1601
tp1602
F0.00033921302578018993
s(S'also'
p1603
S'starred'
p1604
S'alongside'
p1605
tp1606
F0.0006784260515603799
s(S'married'
p1607
S'[[adj]]'
p1608
S'actor'
p1609
tp1610
F0.00033921302578018993
s(S'is'
p1611
S'known'
p1612
S'except'
p1613
tp1614
F0.00033921302578018993
s(S'has'
p1615
S'called'
p1616
S'[[pro]]'
p1617
tp1618
F0.00033921302578018993
s(S'had'
p1619
S'known'
p1620
S'[[con]]'
p1621
tp1622
F0.00033921302578018993
s(S'[[det]]'
p1623
S'son'
p1624
S'by'
p1625
tp1626
F0.00033921302578018993
s(g30
g31
S'relationship'
p1627
tp1628
F0.00033921302578018993
s(S'was'
p1629
S'born'
p1630
S'after'
p1631
tp1632
F0.00033921302578018993
s(S'where'
p1633
S'met'
p1634
S'[[adj]]'
p1635
tp1636
F0.00033921302578018993
s(S'ref'
p1637
S'gt'
p1638
S'became'
p1639
tp1640
F0.00033921302578018993
s(g668
g669
S'husband'
p1641
tp1642
F0.00033921302578018993
s(S'also'
p1643
S'lived'
p1644
S'with'
p1645
tp1646
F0.00033921302578018993
s(S'[[det]]'
p1647
S'son'
p1648
S'[[adj]]'
p1649
tp1650
F0.00033921302578018993
s(S'was'
p1651
S'born'
p1652
S'of'
p1653
tp1654
F0.00033921302578018993
s(S'[[con]]'
p1655
S'gave'
p1656
S'[[det]]'
p1657
tp1658
F0.00033921302578018993
s(S'to'
p1659
S'work'
p1660
S'by'
p1661
tp1662
F0.00033921302578018993
s(S'was'
p1663
S'born'
p1664
S'into'
p1665
tp1666
F0.00033921302578018993
s(S'who'
p1667
S'[[det]]'
p1668
S'daughter'
p1669
tp1670
F0.00033921302578018993
s(S'met'
p1671
S'[[con]]'
p1672
S'[[prp]]'
p1673
tp1674
F0.00033921302578018993
s(S'has'
p1675
S'died'
p1676
S'[[con]]'
p1677
tp1678
F0.00033921302578018993
s(S'was'
p1679
S'born'
p1680
S'when'
p1681
tp1682
F0.00033921302578018993
s(S'world'
p1683
S'[[adj]]'
p1684
S'champion'
p1685
tp1686
F0.0006784260515603799
s(S'then'
p1687
S'served'
p1688
S'until'
p1689
tp1690
F0.00033921302578018993
s(S'also'
p1691
S'costarred'
p1692
S'on'
p1693
tp1694
F0.00033921302578018993
s(S'to'
p1695
S'[[det]]'
p1696
S'sister'
p1697
tp1698
F0.00033921302578018993
s(S'resides'
p1699
S'in'
p1700
S'[[prp]]'
p1701
tp1702
F0.00033921302578018993
s(S'to'
p1703
S'work'
p1704
S'[[con]]'
p1705
tp1706
F0.00033921302578018993
s(S'who'
p1707
S'worked'
p1708
S'under'
p1709
tp1710
F0.00033921302578018993
s(S'[[num]]'
p1711
S'time'
p1712
S'with'
p1713
tp1714
F0.00033921302578018993
s(S'also'
p1715
S'performed'
p1716
S'[[det]]'
p1717
tp1718
F0.00033921302578018993
s(S'pp'
p1719
S'[[num]]'
p1720
S'lt'
p1721
tp1722
F0.0006784260515603799
s(S'just'
p1723
S'ahead'
p1724
S'of'
p1725
tp1726
F0.00033921302578018993
s(S'ref'
p1727
S'gt'
p1728
S'son'
p1729
tp1730
F0.00033921302578018993
s(S'[[prp]]'
p1731
S'son'
p1732
S'[[det]]'
p1733
tp1734
F0.00033921302578018993
s(S'whose'
p1735
S'mother'
p1736
S'was'
p1737
tp1738
F0.00033921302578018993
s(S'have'
p1739
S'played'
p1740
S'along'
p1741
tp1742
F0.00033921302578018993
s(S'that'
p1743
S'lt'
p1744
S'ref'
p1745
tp1746
F0.0006784260515603799
s(S'who'
p1747
S'led'
p1748
S'[[det]]'
p1749
tp1750
F0.00033921302578018993
s(S'ref'
p1751
S'gt'
p1752
S'scored'
p1753
tp1754
F0.00033921302578018993
s(S'started'
p1755
S'out'
p1756
S'lt'
p1757
tp1758
F0.00033921302578018993
s(S'by'
p1759
S'margin'
p1760
S'over'
p1761
tp1762
F0.00033921302578018993
s(S'was'
p1763
S'separated'
p1764
S'from'
p1765
tp1766
F0.00033921302578018993
s(S'first'
p1767
S'met'
p1768
g290
tp1769
F0.00033921302578018993
s(S'born'
p1770
S'[[num]]'
p1771
S'lt'
p1772
tp1773
F0.00033921302578018993
s(S'was'
p1774
g1041
g1042
tp1775
F0.00033921302578018993
s(S'who'
p1776
S'appeared'
p1777
S'[[con]]'
p1778
tp1779
F0.00033921302578018993
s(S'is'
p1780
g667
g668
tp1781
F0.00033921302578018993
s(S'was'
p1782
S'engaged'
p1783
S'[[con]]'
p1784
tp1785
F0.00033921302578018993
s(S'first'
p1786
S'worked'
p1787
S'to'
p1788
tp1789
F0.00033921302578018993
s(g81
S'death'
p1790
S'[[num]]'
p1791
tp1792
F0.00033921302578018993
s(S'starred'
p1793
S'as'
p1794
S'[[adj]]'
p1795
tp1796
F0.00033921302578018993
s(S'had'
p1797
S'moved'
p1798
S'out'
p1799
tp1800
F0.00033921302578018993
s(S'[[con]]'
p1801
S'took'
p1802
S'[[num]]'
p1803
tp1804
F0.00033921302578018993
s(S'then'
p1805
S'worked'
p1806
S'[[con]]'
p1807
tp1808
F0.00033921302578018993
s(S'later'
p1809
S'starred'
p1810
S'with'
p1811
tp1812
F0.00033921302578018993
s(S'married'
p1813
S'to'
p1814
S'son'
p1815
tp1816
F0.0010176390773405698
s(g1225
g1451
S'set'
p1817
tp1818
F0.00033921302578018993
s(S'[[prp]]'
p1819
S'wife'
p1820
S'[[con]]'
p1821
tp1822
F0.0013568521031207597
s(S'who'
p1823
S'grew'
p1824
S'up'
p1825
tp1826
F0.00033921302578018993
s(S'[[adj]]'
p1827
S'starred'
p1828
S'alongside'
p1829
tp1830
F0.00033921302578018993
s(S'was'
p1831
S'called'
p1832
S'on'
p1833
tp1834
F0.00033921302578018993
s(S'later'
p1835
S'moved'
p1836
S'where'
p1837
tp1838
F0.00033921302578018993
s(S'secondly'
p1839
S'de'
p1840
S'daughter'
p1841
tp1842
F0.00033921302578018993
s(S'appeared'
p1843
S'[[det]]'
p1844
S'alongside'
p1845
tp1846
F0.00033921302578018993
s(S'lived'
p1847
S'in'
p1848
S'lt'
p1849
tp1850
F0.00033921302578018993
s(g81
S'death'
p1851
S'which'
p1852
tp1853
F0.00033921302578018993
s(S'married'
p1854
S'[[det]]'
p1855
S'son'
p1856
tp1857
F0.0006784260515603799
s(S'best'
p1858
S'known'
p1859
S'[[num]]'
p1860
tp1861
F0.00033921302578018993
s(g81
S'sister'
p1862
S'[[con]]'
p1863
tp1864
F0.00033921302578018993
s(S'where'
p1865
S'served'
p1866
S'under'
p1867
tp1868
F0.00033921302578018993
s(S'[[adj]]'
p1869
S'son'
p1870
S'was'
p1871
tp1872
F0.0006784260515603799
s(S'[[adj]]'
p1873
S'mother'
p1874
S'to'
p1875
tp1876
F0.00033921302578018993
s(S'well'
p1877
S'known'
p1878
S'with'
p1879
tp1880
F0.00033921302578018993
s(S'[[det]]'
p1881
S'actor'
p1882
S'[[con]]'
p1883
tp1884
F0.00033921302578018993
s(S'once'
p1885
S'called'
p1886
S'[[det]]'
p1887
tp1888
F0.00033921302578018993
s(S'be'
p1889
S'directed'
p1890
S'by'
p1891
tp1892
F0.00033921302578018993
s(S'that'
p1893
S'worked'
p1894
S'along'
p1895
tp1896
F0.00033921302578018993
s(S'aged'
p1897
S'[[num]]'
p1898
S'married'
p1899
tp1900
F0.00033921302578018993
s(g1169
g515
g516
tp1901
F0.00033921302578018993
s(S'[[det]]'
p1902
S'campaign'
p1903
S'of'
p1904
tp1905
F0.00033921302578018993
s(S'divorced'
p1906
g217
g218
tp1907
F0.00033921302578018993
s(S'[[num]]'
p1908
S'born'
p1909
S'[[num]]'
p1910
tp1911
F0.00033921302578018993
s(S'awards'
p1912
S'that'
p1913
S'gave'
p1914
tp1915
F0.00033921302578018993
s(S'of'
p1916
S'was'
p1917
S'cast'
p1918
tp1919
F0.00033921302578018993
s(S'also'
p1920
S'played'
p1921
g81
tp1922
F0.00033921302578018993
s(S'also'
p1923
S'appeared'
p1924
S'as'
p1925
tp1926
F0.00033921302578018993
s(S'gt'
p1927
S'according'
p1928
S'to'
p1929
tp1930
F0.00033921302578018993
s(S'also'
p1931
S'engaged'
p1932
S'in'
p1933
tp1934
F0.00033921302578018993
s(S'ref'
p1935
S'name'
p1936
S'[[det]]'
p1937
tp1938
F0.00033921302578018993
s(S'married'
p1939
S'by'
p1940
S'daughter'
p1941
tp1942
F0.00033921302578018993
s(g1482
g1483
S'wife'
p1943
tp1944
F0.0006784260515603799
s(S'[[adj]]'
p1945
S'children'
p1946
S'[[det]]'
p1947
tp1948
F0.00033921302578018993
s(S'well'
p1949
S'known'
p1950
S'that'
p1951
tp1952
F0.00033921302578018993
s(S'often'
p1953
S'seen'
p1954
S'as'
p1955
tp1956
F0.00033921302578018993
s(S'took'
p1957
S'off'
p1958
S'while'
p1959
tp1960
F0.00033921302578018993
s(S'ref'
p1961
S'gt'
p1962
S'said'
p1963
tp1964
F0.0006784260515603799
s(S'had'
p1965
S'performed'
p1966
S'on'
p1967
tp1968
F0.00033921302578018993
s(S'was'
p1969
S'declared'
p1970
S'to'
p1971
tp1972
F0.00033921302578018993
s(S'been'
p1973
S'taken'
p1974
S'over'
p1975
tp1976
F0.00033921302578018993
s(S'who'
p1977
S'died'
p1978
S'was'
p1979
tp1980
F0.00033921302578018993
s(g81
S'cousin'
p1981
S'[[num]]'
p1982
tp1983
F0.00033921302578018993
s(S'best'
p1984
S'known'
p1985
S'of'
p1986
tp1987
F0.00033921302578018993
s(S'assistant'
p1988
S'to'
p1989
S'[[det]]'
p1990
tp1991
F0.00033921302578018993
s(S'to'
p1992
S'know'
p1993
S'[[det]]'
p1994
tp1995
F0.00033921302578018993
s(S'lt'
p1996
S'lt'
p1997
S'ref'
p1998
tp1999
F0.00033921302578018993
s(S'have'
p2000
S'served'
p2001
S'with'
p2002
tp2003
F0.00033921302578018993
s(S'[[num]]'
p2004
S'sister'
p2005
S'of'
p2006
tp2007
F0.00033921302578018993
s(S'of'
p2008
S'known'
p2009
S'as'
p2010
tp2011
F0.00033921302578018993
s(S'with'
p2012
S'[[prp]]'
p2013
S'wife'
p2014
tp2015
F0.0027137042062415195
s(S'then'
p2016
S'called'
p2017
S'on'
p2018
tp2019
F0.00033921302578018993
s(S'where'
p2020
S'worked'
p2021
S'under'
p2022
tp2023
F0.00033921302578018993
s(S'often'
p2024
S'worked'
p2025
S'with'
p2026
tp2027
F0.00033921302578018993
s(S'[[mod]]'
p2028
S'leave'
p2029
S'gt'
p2030
tp2031
F0.00033921302578018993
s(S'has'
p2032
S'starred'
p2033
S'as'
p2034
tp2035
F0.00033921302578018993
s(g843
S'gt'
p2036
S'[[num]]'
p2037
tp2038
F0.0033921302578018998
s(g946
g947
S'ref'
p2039
tp2040
F0.00033921302578018993
s(S'[[prp]]'
p2041
S'work'
p2042
S'with'
p2043
tp2044
F0.00033921302578018993
s(S'as'
p2045
S'[[adj]]'
p2046
S'wife'
p2047
tp2048
F0.00033921302578018993
s(S'[[adj]]'
p2049
S'met'
p2050
S'[[det]]'
p2051
tp2052
F0.00033921302578018993
s(S'ranked'
p2053
S'[[adj]]'
p2054
S'lt'
p2055
tp2056
F0.00033921302578018993
s(S'is'
p2057
S'given'
p2058
S'as'
p2059
tp2060
F0.00033921302578018993
s(S'gt'
p2061
S'where'
p2062
S'played'
p2063
tp2064
F0.00033921302578018993
s(S'have'
p2065
S'taken'
p2066
S'part'
p2067
tp2068
F0.00033921302578018993
s(S'also'
p2069
S'played'
p2070
S'under'
p2071
tp2072
F0.00033921302578018993
s(g81
S'daughter'
p2073
S'by'
p2074
tp2075
F0.00033921302578018993
s(S'was'
p2076
S'told'
p2077
S'[[det]]'
p2078
tp2079
F0.00033921302578018993
s(S'[[det]]'
p2080
S'son'
p2081
S'to'
p2082
tp2083
F0.00033921302578018993
s(S'when'
p2084
S'appeared'
p2085
S'with'
p2086
tp2087
F0.00033921302578018993
s(g346
g347
S'of'
p2088
tp2089
F0.0006784260515603799
s(S'first'
p2090
S'met'
p2091
S'[[con]]'
p2092
tp2093
F0.00033921302578018993
s(S'have'
p2094
S'performed'
p2095
S'[[det]]'
p2096
tp2097
F0.00033921302578018993
s(S'then'
p2098
S'worked'
p2099
S'[[adj]]'
p2100
tp2101
F0.00033921302578018993
s(S'[[adj]]'
p2102
S'cast'
p2103
S'of'
p2104
tp2105
F0.00033921302578018993
s(S'ref'
p2106
S'gt'
p2107
S'made'
p2108
tp2109
F0.00033921302578018993
s(g1396
g1397
S'led'
p2110
tp2111
F0.00033921302578018993
s(S'later'
p2112
S'told'
p2113
S'that'
p2114
tp2115
F0.00033921302578018993
s(S'usually'
p2116
S'known'
p2117
S'as'
p2118
tp2119
F0.00033921302578018993
s(S'[[con]]'
p2120
S'told'
p2121
S'[[pro]]'
p2122
tp2123
F0.00033921302578018993
s(S'of'
p2124
S'born'
p2125
S'[[num]]'
p2126
tp2127
F0.00033921302578018993
s(S'getting'
p2128
S'ahead'
p2129
S'of'
p2130
tp2131
F0.00033921302578018993
s(S'[[con]]'
p2132
S'work'
p2133
S'with'
p2134
tp2135
F0.00033921302578018993
s(S'also'
p2136
S'engaged'
p2137
S'by'
p2138
tp2139
F0.00033921302578018993
s(S'said'
p2140
S'lt'
p2141
S'[[adj]]'
p2142
tp2143
F0.00033921302578018993
s(S'was'
p2144
S'known'
p2145
S'for'
p2146
tp2147
F0.00033921302578018993
s(S'[[det]]'
p2148
S'husband'
p2149
S'of'
p2150
tp2151
F0.0006784260515603799
s(S'often'
p2152
S'appeared'
p2153
S'in'
p2154
tp2155
F0.00033921302578018993
s(g81
S'daughter'
p2156
S'[[con]]'
p2157
tp2158
F0.00033921302578018993
s(S'[[con]]'
p2159
S'gave'
p2160
S'up'
p2161
tp2162
F0.00033921302578018993
s(S'had'
p2163
S'stated'
p2164
S'that'
p2165
tp2166
F0.00033921302578018993
s(S'[[num]]'
p2167
S'sons'
p2168
S'who'
p2169
tp2170
F0.00033921302578018993
s(S'married'
p2171
S'd'
p2172
S'[[det]]'
p2173
tp2174
F0.00033921302578018993
s(S'[[det]]'
p2175
S'son'
p2176
S'was'
p2177
tp2178
F0.00033921302578018993
s(S'often'
p2179
S'performed'
p2180
S'by'
p2181
tp2182
F0.00033921302578018993
s(S'also'
p2183
S'wrote'
p2184
S'with'
p2185
tp2186
F0.00033921302578018993
s(S'[[num]]'
p2187
g615
g616
tp2188
F0.0023744911804613297
s(S'was'
p2189
S'moved'
p2190
S'by'
p2191
tp2192
F0.00033921302578018993
s(S'not'
p2193
S'tell'
p2194
S'[[pro]]'
p2195
tp2196
F0.00033921302578018993
s(S'then'
p2197
S'appeared'
p2198
S'on'
p2199
tp2200
F0.00033921302578018993
s(S'also'
p2201
S'starred'
p2202
S'along'
p2203
tp2204
F0.00033921302578018993
s(S'also'
p2205
S'performed'
p2206
S'before'
p2207
tp2208
F0.00033921302578018993
s(S'had'
p2209
S'married'
p2210
S'[[det]]'
p2211
tp2212
F0.0010176390773405698
s(S'[[prp]]'
p2213
S'son'
p2214
S'is'
p2215
tp2216
F0.0006784260515603799
s(S'[[det]]'
p2217
S'son'
p2218
S'of'
p2219
tp2220
F0.0020352781546811396
s(S'has'
p2221
S'served'
p2222
S'twice'
p2223
tp2224
F0.00033921302578018993
s(S'[[det]]'
p2225
S'appearance'
p2226
S'with'
p2227
tp2228
F0.00033921302578018993
s(g1794
g1795
S'alongside'
p2229
tp2230
F0.00033921302578018993
s(S'first'
p2231
S'appeared'
p2232
S'to'
p2233
tp2234
F0.00033921302578018993
s(S'became'
p2235
S'known'
p2236
S'with'
p2237
tp2238
F0.00033921302578018993
s(S'[[det]]'
p2239
S'brothers'
p2240
S'[[con]]'
p2241
tp2242
F0.00033921302578018993
s(S'[[adj]]'
p2243
S'sons'
p2244
S'[[con]]'
p2245
tp2246
F0.00033921302578018993
s(S'gt'
p2247
S'name'
p2248
g2057
tp2249
F0.00033921302578018993
s(S'been'
p2250
S'killed'
p2251
S'by'
p2252
tp2253
F0.00033921302578018993
s(S'[[con]]'
p2254
S'played'
p2255
S'as'
p2256
tp2257
F0.00033921302578018993
s(S'[[con]]'
p2258
S'worked'
p2259
S'as'
p2260
tp2261
F0.00033921302578018993
s(g1475
g1552
S'with'
p2262
tp2263
F0.0010176390773405698
s(S'[[adj]]'
p2264
S'seen'
p2265
S'at'
p2266
tp2267
F0.00033921302578018993
s(S'ref'
p2268
S'gt'
p2269
S'described'
p2270
tp2271
F0.00033921302578018993
s(S'also'
p2272
S'known'
p2273
S'along'
p2274
tp2275
F0.00033921302578018993
s(S'wife'
p2276
S'of'
p2277
S'actor'
p2278
tp2279
F0.0006784260515603799
s(S'[[num]]'
p2280
S'sons'
p2281
S'[[num]]'
p2282
tp2283
F0.00033921302578018993
s(S'had'
p2284
S'won'
p2285
S'[[con]]'
p2286
tp2287
F0.00033921302578018993
s(S'[[det]]'
p2288
S'work'
p2289
S'on'
p2290
tp2291
F0.00033921302578018993
s(S'[[num]]'
p2292
S'son'
p2293
S'who'
p2294
tp2295
F0.00033921302578018993
s(S'more'
p2296
S'children'
p2297
S'[[num]]'
p2298
tp2299
F0.00033921302578018993
s(S'had'
p2300
S'remained'
p2301
S'[[adj]]'
p2302
tp2303
F0.00033921302578018993
s(S'become'
p2304
S'known'
p2305
S'as'
p2306
tp2307
F0.00033921302578018993
s(S'has'
p2308
S'performed'
p2309
S'[[adj]]'
p2310
tp2311
F0.00033921302578018993
s(g81
S'son'
p2312
S'[[pro]]'
p2313
tp2314
F0.00033921302578018993
s(S'[[adj]]'
p2315
S'child'
p2316
S'with'
p2317
tp2318
F0.00033921302578018993
s(S'world'
p2319
S'champion'
p2320
S'[[adj]]'
p2321
tp2322
F0.00033921302578018993
s(S'[[adj]]'
p2323
S'relationship'
p2324
S'to'
p2325
tp2326
F0.00033921302578018993
s(S'also'
p2327
S'wrote'
p2328
S'under'
p2329
tp2330
F0.00033921302578018993
s(S'has'
p2331
S'appeared'
p2332
S'by'
p2333
tp2334
F0.00033921302578018993
s(g81
S'work'
p2335
S'[[adj]]'
p2336
tp2337
F0.00033921302578018993
s(S'who'
p2338
S'took'
p2339
S'over'
p2340
tp2341
F0.00033921302578018993
s(S'twice'
p2342
S'married'
p2343
S'first'
p2344
tp2345
F0.00033921302578018993
s(S'had'
p2346
S'told'
p2347
S'[[prp]]'
p2348
tp2349
F0.00033921302578018993
s(S'[[det]]'
p2350
S'opportunity'
p2351
S'to'
p2352
tp2353
F0.00033921302578018993
s(S'also'
p2354
S'wrote'
p2355
S'[[adj]]'
p2356
tp2357
F0.00033921302578018993
s(S'also'
p2358
S'starred'
p2359
S'as'
p2360
tp2361
F0.00033921302578018993
s(S'first'
p2362
S'appeared'
p2363
S'where'
p2364
tp2365
F0.00033921302578018993
s(S'has'
p2366
S'told'
p2367
S'[[pro]]'
p2368
tp2369
F0.00033921302578018993
s(S'name'
p2370
S'that'
p2371
S'loved'
p2372
tp2373
F0.00033921302578018993
s(S'[[adj]]'
p2374
S'guest'
p2375
S'of'
p2376
tp2377
F0.00033921302578018993
s(S'was'
p2378
S'son'
p2379
S'to'
p2380
tp2381
F0.00033921302578018993
s(S'[[det]]'
p2382
S'mother'
p2383
S'[[det]]'
p2384
tp2385
F0.00033921302578018993
s(S'[[adj]]'
p2386
S'starred'
p2387
S'as'
p2388
tp2389
F0.00033921302578018993
s(g81
S'death'
p2390
S'when'
p2391
tp2392
F0.00033921302578018993
s(S'married'
p2393
S'to'
p2394
S'[[adj]]'
p2395
tp2396
F0.0027137042062415195
s(S'[[adj]]'
p2397
S'league'
p2398
S'lt'
p2399
tp2400
F0.00033921302578018993
s(S'[[adj]]'
p2401
S'wife'
p2402
S'[[num]]'
p2403
tp2404
F0.00033921302578018993
s(S'again'
p2405
S'served'
p2406
S'under'
p2407
tp2408
F0.00033921302578018993
s(S'most'
p2409
S'known'
p2410
S'for'
p2411
tp2412
F0.00033921302578018993
s(g1006
g1007
S'[[num]]'
p2413
tp2414
F0.00033921302578018993
s(S'[[adj]]'
p2415
S'sister'
p2416
S'to'
p2417
tp2418
F0.00033921302578018993
s(S'took'
p2419
S'pole'
p2420
S'[[prp]]'
p2421
tp2422
F0.00033921302578018993
s(g1248
g1249
S'[[prp]]'
p2423
tp2424
F0.0013568521031207597
s(g174
g175
S'gt'
p2425
tp2426
F0.00033921302578018993
s(S'de'
p2427
S'[[det]]'
p2428
S'son'
p2429
tp2430
F0.00033921302578018993
s(S'also'
p2431
S'took'
p2432
S'on'
p2433
tp2434
F0.00033921302578018993
s(S'also'
p2435
S'served'
p2436
S'under'
p2437
tp2438
F0.00033921302578018993
s(g81
S'daughter'
p2439
S'who'
p2440
tp2441
F0.0006784260515603799
s(S'also'
p2442
S'starred'
p2443
S'[[con]]'
p2444
tp2445
F0.00033921302578018993
s(S'ref'
p2446
S'gt'
p2447
S'[[adj]]'
p2448
tp2449
F0.0030529172320217096
s(S'was'
p2450
S'served'
p2451
S'as'
p2452
tp2453
F0.00033921302578018993
s(S'pole'
p2454
g101
g102
tp2455
F0.0010176390773405698
s(S'was'
p2456
S'called'
p2457
S'[[det]]'
p2458
tp2459
F0.00033921302578018993
s(S'was'
p2460
S'declared'
p2461
S'[[adj]]'
p2462
tp2463
F0.00033921302578018993
s(S'[[det]]'
p2464
S'work'
p2465
S'to'
p2466
tp2467
F0.00033921302578018993
s(S'ref'
p2468
S'gt'
p2469
S'while'
p2470
tp2471
F0.0006784260515603799
s(S'married'
p2472
S'[[det]]'
p2473
S'actor'
p2474
tp2475
F0.00033921302578018993
s(S'who'
p2476
S'took'
p2477
S'[[det]]'
p2478
tp2479
F0.00033921302578018993
s(S'[[con]]'
p2480
S'known'
p2481
S'as'
p2482
tp2483
F0.00033921302578018993
s(S'also'
p2484
S'starred'
p2485
S'by'
p2486
tp2487
F0.00033921302578018993
s(S'was'
p2488
S'proposed'
p2489
S'by'
p2490
tp2491
F0.00033921302578018993
s(S'to'
p2492
S'tell'
p2493
S'[[pro]]'
p2494
tp2495
F0.00033921302578018993
s(S'now'
p2496
S'led'
p2497
S'from'
p2498
tp2499
F0.00033921302578018993
s(S'[[num]]'
p2500
S'children'
p2501
S'with'
p2502
tp2503
F0.00033921302578018993
s(S'name'
p2504
S'gt'
p2505
S'[[con]]'
p2506
tp2507
F0.0006784260515603799
s(S'[[num]]'
p2508
S'[[det]]'
p2509
S'daughter'
p2510
tp2511
F0.00033921302578018993
s(S'[[prp]]'
p2512
S'daughter'
p2513
S'[[con]]'
p2514
tp2515
F0.00033921302578018993
s(S'first'
p2516
S'served'
p2517
S'[[con]]'
p2518
tp2519
F0.00033921302578018993
s(S'is'
p2520
S'killed'
p2521
S'while'
p2522
tp2523
F0.00033921302578018993
s(g81
S'wife'
p2524
S'of'
p2525
tp2526
F0.00033921302578018993
s(S'married'
p2527
S'[[prp]]'
p2528
S'daughter'
p2529
tp2530
F0.0010176390773405698
s(S'[[adj]]'
p2531
S'daughter'
p2532
S'by'
p2533
tp2534
F0.00033921302578018993
s(S'sometimes'
p2535
S'known'
p2536
S'as'
p2537
tp2538
F0.00033921302578018993
s(S'[[det]]'
p2539
S'daughter'
p2540
S'[[pro]]'
p2541
tp2542
F0.0006784260515603799
s(S'ref'
p2543
g349
g350
tp2544
F0.00033921302578018993
s(S'accessed'
p2545
g841
g842
tp2546
F0.0010176390773405698
s(S'best'
p2547
S'known'
p2548
S'[[prp]]'
p2549
tp2550
F0.00033921302578018993
s(S'[[prp]]'
p2551
S'husband'
p2552
g81
tp2553
F0.00033921302578018993
s(S'be'
p2554
S'killed'
p2555
S'by'
p2556
tp2557
F0.00033921302578018993
s(S'also'
p2558
S'directed'
p2559
S'[[con]]'
p2560
tp2561
F0.00033921302578018993
s(S'became'
p2562
S'known'
p2563
S'to'
p2564
tp2565
F0.00033921302578018993
s(S'was'
p2566
S'known'
p2567
S'by'
p2568
tp2569
F0.00033921302578018993
s(S'[[adj]]'
p2570
S'gt'
p2571
S'was'
p2572
tp2573
F0.00033921302578018993
s(S'[[adj]]'
p2574
S'son'
p2575
S'of'
p2576
tp2577
F0.0006784260515603799
s(S'is'
p2578
S'known'
p2579
S'after'
p2580
tp2581
F0.00033921302578018993
s(S'has'
p2582
S'taken'
p2583
S'over'
p2584
tp2585
F0.00033921302578018993
s(S'married'
p2586
S'[[num]]'
p2587
S'[[adj]]'
p2588
tp2589
F0.00033921302578018993
s(S'married'
p2590
g85
g86
tp2591
F0.0006784260515603799
s(g81
S'wife'
p2592
S'[[det]]'
p2593
tp2594
F0.00033921302578018993
s(S'[[adj]]'
p2595
S'guest'
p2596
S'in'
p2597
tp2598
F0.00033921302578018993
s(S'best'
p2599
S'known'
p2600
S'[[adj]]'
p2601
tp2602
F0.00033921302578018993
s(g544
g545
S'played'
p2603
tp2604
F0.00033921302578018993
s(S'was'
p2605
S'asked'
p2606
S'whether'
p2607
tp2608
F0.00033921302578018993
s(S'[[det]]'
p2609
S'time'
p2610
S'was'
p2611
tp2612
F0.00033921302578018993
s(S'later'
p2613
S'starred'
p2614
S'as'
p2615
tp2616
F0.00033921302578018993
s(S'[[pro]]'
p2617
S'[[det]]'
p2618
S'son'
p2619
tp2620
F0.00033921302578018993
s(S'had'
p2621
S'seen'
p2622
S'to'
p2623
tp2624
F0.00033921302578018993
s(S'also'
p2625
S'worked'
p2626
S'along'
p2627
tp2628
F0.00033921302578018993
s(S'have'
p2629
S'appeared'
p2630
S'[[con]]'
p2631
tp2632
F0.00033921302578018993
s(S'not'
p2633
S'meet'
p2634
S'[[det]]'
p2635
tp2636
F0.00033921302578018993
s(S'has'
p2637
S'proposed'
p2638
S'that'
p2639
tp2640
F0.00033921302578018993
s(g81
S'wife'
p2641
S'[[con]]'
p2642
tp2643
F0.00033921302578018993
s(S'to'
p2644
S'know'
p2645
S'who'
p2646
tp2647
F0.00033921302578018993
s(S'then'
p2648
S'married'
p2649
S'[[pro]]'
p2650
tp2651
F0.00033921302578018993
s(S'also'
p2652
S'developed'
p2653
S'[[prp]]'
p2654
tp2655
F0.00033921302578018993
s(S'only'
p2656
S'daughter'
p2657
S'of'
p2658
tp2659
F0.00033921302578018993
s(S'married'
p2660
S'in'
p2661
S'[[det]]'
p2662
tp2663
F0.00033921302578018993
s(S'then'
p2664
S'appeared'
p2665
S'[[num]]'
p2666
tp2667
F0.00033921302578018993
s(S'ref'
p2668
S'lt'
p2669
S'ref'
p2670
tp2671
F0.0027137042062415195
s(S'name'
p2672
g2061
g2062
tp2673
F0.00033921302578018993
s(S'also'
p2674
S'directed'
p2675
S'[[det]]'
p2676
tp2677
F0.00033921302578018993
s(S'ref'
p2678
S'gt'
p2679
S'went'
p2680
tp2681
F0.00033921302578018993
s(S'later'
p2682
S'appeared'
p2683
S'[[adj]]'
p2684
tp2685
F0.00033921302578018993
s(S'[[con]]'
p2686
S'sister'
p2687
S'of'
p2688
tp2689
F0.00033921302578018993
s(g81
S'mother'
p2690
S'[[det]]'
p2691
tp2692
F0.00033921302578018993
s(S'[[adj]]'
p2693
S'worked'
p2694
S'as'
p2695
tp2696
F0.00033921302578018993
s(S'[[con]]'
p2697
S'served'
p2698
S'under'
p2699
tp2700
F0.00033921302578018993
s(S'[[det]]'
p2701
S'son'
p2702
S'who'
p2703
tp2704
F0.00033921302578018993
s(S'[[pro]]'
p2705
S'[[adj]]'
p2706
S'husband'
p2707
tp2708
F0.00033921302578018993
s(g81
S'wedding'
p2709
S'to'
p2710
tp2711
F0.00033921302578018993
s(S'[[num]]'
p2712
S'brothers'
p2713
S'[[num]]'
p2714
tp2715
F0.00033921302578018993
s(S'[[adj]]'
p2716
S'brothers'
p2717
S'[[con]]'
p2718
tp2719
F0.00033921302578018993
s(S'often'
p2720
S'known'
p2721
S'as'
p2722
tp2723
F0.00033921302578018993
s(S'became'
p2724
S'known'
p2725
S'after'
p2726
tp2727
F0.00033921302578018993
s(S'[[adj]]'
p2728
S'time'
p2729
S'to'
p2730
tp2731
F0.00033921302578018993
s(S'of'
p2732
S'led'
p2733
S'by'
p2734
tp2735
F0.00033921302578018993
s(S'that'
p2736
S'grew'
p2737
S'up'
p2738
tp2739
F0.00033921302578018993
s(S'married'
p2740
S'[[num]]'
p2741
S'times'
p2742
tp2743
F0.0023744911804613297
s(S'found'
p2744
S'work'
p2745
S'with'
p2746
tp2747
F0.00033921302578018993
s(S'[[adj]]'
p2748
S'lt'
p2749
S'ref'
p2750
tp2751
F0.0020352781546811396
s(S'[[con]]'
p2752
S'gave'
p2753
S'[[pro]]'
p2754
tp2755
F0.00033921302578018993
s(S'[[con]]'
p2756
S'served'
p2757
S'as'
p2758
tp2759
F0.00033921302578018993
s(g1192
g1193
S'daughter'
p2760
tp2761
F0.0010176390773405698
s(S'[[prp]]'
p2762
S'wife'
p2763
S'as'
p2764
tp2765
F0.00033921302578018993
s(S'to'
p2766
S'tell'
p2767
S'[[det]]'
p2768
tp2769
F0.00033921302578018993
s(S'[[det]]'
p2770
S'mother'
p2771
S'from'
p2772
tp2773
F0.00033921302578018993
s(S'later'
p2774
S'worked'
p2775
S'on'
p2776
tp2777
F0.00033921302578018993
s(S'also'
p2778
S'performed'
p2779
S'with'
p2780
tp2781
F0.00033921302578018993
s(S'to'
p2782
S'marry'
p2783
S'[[pro]]'
p2784
tp2785
F0.00033921302578018993
s(S'also'
p2786
S'appeared'
p2787
S'with'
p2788
tp2789
F0.00033921302578018993
s(S'led'
p2790
S'[[det]]'
p2791
S'driver'
p2792
tp2793
F0.00033921302578018993
s(g2352
S'continue'
p2794
S'[[prp]]'
p2795
tp2796
F0.00033921302578018993
s(S'ref'
p2797
S'gt'
p2798
S'[[con]]'
p2799
tp2800
F0.005427408412483039
s(g81
S'son'
p2801
S'[[con]]'
p2802
tp2803
F0.0006784260515603799
s(S'[[adj]]'
p2804
S'mother'
p2805
S'[[con]]'
p2806
tp2807
F0.00033921302578018993
s(S'[[det]]'
p2808
S'son'
p2809
S'[[num]]'
p2810
tp2811
F0.00033921302578018993
s(g81
S'marriage'
p2812
S'to'
p2813
tp2814
F0.00033921302578018993
s(S'is'
p2815
S'killed'
p2816
S'when'
p2817
tp2818
F0.00033921302578018993
s(g81
S'performed'
p2819
S'in'
p2820
tp2821
F0.00033921302578018993
s(S'also'
p2822
S'called'
p2823
S'was'
p2824
tp2825
F0.00033921302578018993
s(S'also'
p2826
S'wrote'
p2827
S'to'
p2828
tp2829
F0.00033921302578018993
s(g422
g423
g1988
tp2830
F0.00033921302578018993
s(S'first'
p2831
S'met'
p2832
S'[[det]]'
p2833
tp2834
F0.00033921302578018993
s(S'to'
p2835
S'work'
p2836
S'[[adj]]'
p2837
tp2838
F0.00033921302578018993
s(S'died'
p2839
S'in'
p2840
S'[[adj]]'
p2841
tp2842
F0.00033921302578018993
s(S'have'
p2843
S'killed'
p2844
S'[[det]]'
p2845
tp2846
F0.00033921302578018993
s(g367
S'[[adj]]'
p2847
S'members'
p2848
tp2849
F0.00033921302578018993
s(S'[[adj]]'
p2850
S'appearance'
p2851
S'where'
p2852
tp2853
F0.00033921302578018993
s(S'was'
p2854
S'asked'
p2855
S'how'
p2856
tp2857
F0.00033921302578018993
s(S'[[adj]]'
p2858
S'producer'
p2859
S'[[con]]'
p2860
tp2861
F0.00033921302578018993
s(S'twice'
p2862
S'married'
p2863
S'[[adj]]'
p2864
tp2865
F0.00033921302578018993
s(S'been'
p2866
S'killed'
p2867
S'with'
p2868
tp2869
F0.00033921302578018993
s(S'[[adj]]'
p2870
S'death'
p2871
S'of'
p2872
tp2873
F0.00033921302578018993
s(S'not'
p2874
S'know'
p2875
S'what'
p2876
tp2877
F0.00033921302578018993
s(S'[[adj]]'
p2878
S'son'
p2879
S'de'
p2880
tp2881
F0.00033921302578018993
s(g81
S'wife'
p2882
S'who'
p2883
tp2884
F0.00033921302578018993
s(S'husband'
p2885
S'of'
p2886
S'actress'
p2887
tp2888
F0.00033921302578018993
s(S'again'
p2889
S'appeared'
p2890
S'as'
p2891
tp2892
F0.00033921302578018993
s(S'had'
p2893
S'asked'
p2894
S'[[con]]'
p2895
tp2896
F0.00033921302578018993
s(S'also'
p2897
S'called'
p2898
S'out'
p2899
tp2900
F0.00033921302578018993
s(S'to'
p2901
S'work'
p2902
S'among'
p2903
tp2904
F0.00033921302578018993
s(S'[[prp]]'
p2905
S'time'
p2906
S'as'
p2907
tp2908
F0.00033921302578018993
s(S'married'
p2909
g2045
g2046
tp2910
F0.00033921302578018993
s(S'again'
p2911
S'appeared'
p2912
S'with'
p2913
tp2914
F0.00033921302578018993
s(S'best'
p2915
S'known'
p2916
S'with'
p2917
tp2918
F0.00033921302578018993
s(g2172
S'[[num]]'
p2919
S'daughter'
p2920
tp2921
F0.00033921302578018993
s(S'when'
p2922
S'served'
p2923
S'as'
p2924
tp2925
F0.00033921302578018993
s(S'also'
p2926
S'wrote'
p2927
S'of'
p2928
tp2929
F0.00033921302578018993
s(S'for'
p2930
S'lt'
p2931
S'ref'
p2932
tp2933
F0.00033921302578018993
s(S'has'
p2934
S'performed'
p2935
S'as'
p2936
tp2937
F0.00033921302578018993
s(S'[[con]]'
p2938
S'ahead'
p2939
S'of'
p2940
tp2941
F0.00033921302578018993
s(g81
S'son'
p2942
S'in'
p2943
tp2944
F0.00033921302578018993
s(S'then'
p2945
S'starred'
p2946
S'alongside'
p2947
tp2948
F0.0006784260515603799
s(S'[[adj]]'
p2949
S'wife'
p2950
S'[[det]]'
p2951
tp2952
F0.0006784260515603799
s(S'[[con]]'
p2953
S'lived'
p2954
S'at'
p2955
tp2956
F0.00033921302578018993
s(S'[[con]]'
p2957
S'married'
p2958
S'actress'
p2959
tp2960
F0.00033921302578018993
s(S'accessed'
p2961
S'[[num]]'
p2962
S'lt'
p2963
tp2964
F0.0006784260515603799
s(S'[[adj]]'
p2965
S'son'
p2966
S'who'
p2967
tp2968
F0.00033921302578018993
s(S'is'
p2969
S'known'
p2970
S'of'
p2971
tp2972
F0.00033921302578018993
s(S'married'
p2973
S'daughter'
p2974
S'who'
p2975
tp2976
F0.00033921302578018993
s(S'[[det]]'
p2977
S'sister'
p2978
S'to'
p2979
tp2980
F0.00033921302578018993
s(S'married'
p2981
S'secondly'
p2982
S'daughter'
p2983
tp2984
F0.00033921302578018993
s(S'then'
p2985
S'told'
p2986
S'[[det]]'
p2987
tp2988
F0.00033921302578018993
s(g81
S'death'
p2989
S'[[con]]'
p2990
tp2991
F0.00033921302578018993
s(S'married'
p2992
S'daughter'
p2993
S'of'
p2994
tp2995
F0.0013568521031207597
s(S'also'
p2996
S'appeared'
p2997
S'to'
p2998
tp2999
F0.00033921302578018993
s(S'[[adj]]'
p3000
S'appearance'
p3001
S'as'
p3002
tp3003
F0.00033921302578018993
s(S'[[con]]'
p3004
S'took'
p3005
S'[[con]]'
p3006
tp3007
F0.00033921302578018993
s(S'ref'
p3008
S'gt'
p3009
S'to'
p3010
tp3011
F0.0016960651289009499
s(S'alongside'
p3012
S'[[prp]]'
p3013
S'husband'
p3014
tp3015
F0.00033921302578018993
s(S'ref'
p3016
S'gt'
p3017
S'returned'
p3018
tp3019
F0.0006784260515603799
s(S'also'
p3020
S'called'
p3021
S'[[det]]'
p3022
tp3023
F0.00033921302578018993
s(S'to'
p3024
S'[[adj]]'
p3025
S'daughter'
p3026
tp3027
F0.0006784260515603799
s(S'had'
p3028
S'developed'
p3029
S'with'
p3030
tp3031
F0.00033921302578018993
s(S'[[con]]'
p3032
S'left'
p3033
S'with'
p3034
tp3035
F0.00033921302578018993
s(S'[[adj]]'
p3036
S'mother'
p3037
S'of'
p3038
tp3039
F0.00033921302578018993
s(S'[[con]]'
p3040
S'performed'
p3041
S'by'
p3042
tp3043
F0.00033921302578018993
s(S'[[adj]]'
p3044
S'cast'
p3045
S'[[adj]]'
p3046
tp3047
F0.00033921302578018993
s(S'took'
p3048
g185
g186
tp3049
F0.00033921302578018993
s(g81
S'husband'
p3050
S'[[con]]'
p3051
tp3052
F0.00033921302578018993
s(S'[[adj]]'
p3053
S'child'
p3054
S'[[det]]'
p3055
tp3056
F0.00033921302578018993
s(S'up'
p3057
S'in'
p3058
S'lt'
p3059
tp3060
F0.00033921302578018993
s(S'had'
p3061
S'worked'
p3062
S'before'
p3063
tp3064
F0.00033921302578018993
s(S'is'
p3065
S'known'
p3066
S'from'
p3067
tp3068
F0.00033921302578018993
s(S'also'
p3069
g893
g894
tp3070
F0.00033921302578018993
s(S'name'
p3071
S'gt'
p3072
S'lt'
p3073
tp3074
F0.0010176390773405698
s(S'first'
p3075
S'played'
p3076
S'[[con]]'
p3077
tp3078
F0.00033921302578018993
s(S'[[adj]]'
p3079
S'appearance'
p3080
S'[[con]]'
p3081
tp3082
F0.00033921302578018993
s(S'[[det]]'
p3083
S'relationship'
p3084
S'between'
p3085
tp3086
F0.00033921302578018993
s(S'grew'
p3087
g3057
g3058
tp3088
F0.00033921302578018993
s(S'[[det]]'
p3089
S'consort'
p3090
S'of'
p3091
tp3092
F0.00033921302578018993
s(S'when'
p3093
S'died'
p3094
S'[[con]]'
p3095
tp3096
F0.00033921302578018993
s(g2420
g2421
g635
tp3097
F0.00033921302578018993
s(g1365
S'gt'
p3098
S'lt'
p3099
tp3100
F0.00508819538670285
s(S'won'
p3101
g377
g378
tp3102
F0.00033921302578018993
s(S'also'
p3103
S'wrote'
p3104
S'about'
p3105
tp3106
F0.00033921302578018993
s(S'[[det]]'
p3107
S'guest'
p3108
S'at'
p3109
tp3110
F0.00033921302578018993
s(S'[[adj]]'
p3111
S'daughter'
p3112
S'of'
p3113
tp3114
F0.0027137042062415195
s(S'[[det]]'
p3115
S'guest'
p3116
S'[[det]]'
p3117
tp3118
F0.00033921302578018993
s(S'with'
p3119
g2128
g2129
tp3120
F0.00033921302578018993
s(S'ref'
p3121
S'name'
p3122
S'[[adj]]'
p3123
tp3124
F0.0006784260515603799
s(S'was'
p3125
S'seen'
p3126
S'to'
p3127
tp3128
F0.00033921302578018993
s(S'[[det]]'
p3129
S'served'
p3130
S'as'
p3131
tp3132
F0.00033921302578018993
s(S'married'
p3133
g2172
g2919
tp3134
F0.00033921302578018993
s(g2982
g2983
S'of'
p3135
tp3136
F0.00033921302578018993
s(S'had'
p3137
S'asked'
p3138
S'to'
p3139
tp3140
F0.00033921302578018993
s(S'[[num]]'
p3141
S'children'
p3142
S'together'
p3143
tp3144
F0.00033921302578018993
s(g81
S'marriage'
p3145
S'with'
p3146
tp3147
F0.00033921302578018993
s(S'being'
p3148
S'called'
p3149
S'of'
p3150
tp3151
F0.00033921302578018993
s(S'name'
p3152
g849
g850
tp3153
F0.00033921302578018993
s(S'have'
p3154
S'played'
p3155
S'[[num]]'
p3156
tp3157
F0.00033921302578018993
s(S'[[det]]'
p3158
S'alongside'
p3159
S'[[con]]'
p3160
tp3161
F0.00033921302578018993
s(S'ref'
p3162
S'gt'
p3163
S'also'
p3164
tp3165
F0.00033921302578018993
s(S'who'
p3166
S'served'
p3167
S'as'
p3168
tp3169
F0.00033921302578018993
s(S'also'
p3170
S'won'
p3171
S'with'
p3172
tp3173
F0.00033921302578018993
s(S'was'
p3174
S'seen'
p3175
S'by'
p3176
tp3177
F0.00033921302578018993
s(S'lt'
p3178
S'gt'
p3179
S'lt'
p3180
tp3181
F0.0010176390773405698
s(S'was'
p3182
S'asked'
p3183
S'if'
p3184
tp3185
F0.00033921302578018993
s(S'had'
p3186
S'married'
p3187
S'[[num]]'
p3188
tp3189
F0.0006784260515603799
s(S'became'
p3190
S'known'
p3191
S'when'
p3192
tp3193
F0.00033921302578018993
s(S'[[con]]'
p3194
S'[[num]]'
p3195
S'daughter'
p3196
tp3197
F0.0006784260515603799
s(S'[[num]]'
p3198
S'child'
p3199
S'with'
p3200
tp3201
F0.00033921302578018993
s(S'gt'
p3202
S'[[prp]]'
p3203
S'students'
p3204
tp3205
F0.00033921302578018993
s(S'had'
p3206
S'died'
p3207
S'[[con]]'
p3208
tp3209
F0.00033921302578018993
s(S'[[adj]]'
p3210
S'guest'
p3211
S'[[con]]'
p3212
tp3213
F0.00033921302578018993
s(S'has'
p3214
S'met'
p3215
S'[[con]]'
p3216
tp3217
F0.00033921302578018993
s(S'has'
p3218
S'appeared'
p3219
S'[[con]]'
p3220
tp3221
F0.00033921302578018993
s(S'[[adj]]'
p3222
g1582
g1223
tp3223
F0.00033921302578018993
s(g81
S'mother'
p3224
S'who'
p3225
tp3226
F0.00033921302578018993
s(S'part'
p3227
S'alongside'
p3228
S'[[con]]'
p3229
tp3230
F0.00033921302578018993
s(S'then'
p3231
S'cast'
p3232
S'in'
p3233
tp3234
F0.00033921302578018993
s(S'married'
p3235
S'[[det]]'
p3236
S'actress'
p3237
tp3238
F0.00033921302578018993
s(S'was'
p3239
S'known'
p3240
S'while'
p3241
tp3242
F0.00033921302578018993
s(S'[[num]]'
p3243
S'time'
p3244
S'[[det]]'
p3245
tp3246
F0.00033921302578018993
s(S'had'
p3247
S'known'
p3248
S'since'
p3249
tp3250
F0.00033921302578018993
s(S'ref'
p3251
S'gt'
p3252
S'reported'
p3253
tp3254
F0.00033921302578018993
s(S'also'
p3255
S'killed'
p3256
S'[[con]]'
p3257
tp3258
F0.00033921302578018993
s(S'[[det]]'
p3259
S'performed'
p3260
S'by'
p3261
tp3262
F0.00033921302578018993
s(g81
S'wife'
p3263
S'[[adj]]'
p3264
tp3265
F0.00033921302578018993
s(S'first'
p3266
S'met'
p3267
S'when'
p3268
tp3269
F0.00033921302578018993
s(S'[[det]]'
p3270
S'appearance'
p3271
S'by'
p3272
tp3273
F0.00033921302578018993
s(S'gt'
p3274
g1477
g1478
tp3275
F0.00033921302578018993
s(S'was'
p3276
S'told'
p3277
S'that'
p3278
tp3279
F0.00033921302578018993
s(S'still'
p3280
S'played'
p3281
S'for'
p3282
tp3283
F0.00033921302578018993
s(S'[[det]]'
p3284
S'mother'
p3285
S'[[con]]'
p3286
tp3287
F0.00033921302578018993
s(S'[[adj]]'
p3288
S'daughter'
p3289
S'[[det]]'
p3290
tp3291
F0.00033921302578018993
s(S'who'
p3292
S'married'
p3293
S'first'
p3294
tp3295
F0.00033921302578018993
s(S'became'
p3296
S'known'
p3297
S'by'
p3298
tp3299
F0.00033921302578018993
s(S'often'
p3300
S'performed'
p3301
S'[[con]]'
p3302
tp3303
F0.00033921302578018993
s(S'also'
p3304
S'seen'
p3305
S'[[det]]'
p3306
tp3307
F0.00033921302578018993
s(S'[[det]]'
p3308
S'lead'
p3309
S'ahead'
p3310
tp3311
F0.00033921302578018993
s(S'met'
p3312
g2705
g2706
tp3313
F0.00033921302578018993
s(S'had'
p3314
S'lived'
p3315
S'with'
p3316
tp3317
F0.00033921302578018993
s(S'[[det]]'
p3318
S'daughter'
p3319
S'married'
p3320
tp3321
F0.00033921302578018993
s(S'already'
p3322
S'married'
p3323
S'to'
p3324
tp3325
F0.00033921302578018993
s(S'[[adj]]'
p3326
S'child'
p3327
S'of'
p3328
tp3329
F0.00033921302578018993
s(S'was'
p3330
S'attended'
p3331
S'by'
p3332
tp3333
F0.00033921302578018993
s(S'was'
p3334
S'played'
p3335
S'[[con]]'
p3336
tp3337
F0.00033921302578018993
s(S'has'
p3338
S'starred'
p3339
S'alongside'
p3340
tp3341
F0.00033921302578018993
s(S'[[con]]'
p3342
S'took'
p3343
S'over'
p3344
tp3345
F0.00033921302578018993
s(g81
S'son'
p3346
S'with'
p3347
tp3348
F0.00033921302578018993
s(g81
S'death'
p3349
S'to'
p3350
tp3351
F0.00033921302578018993
s(g81
S'performed'
p3352
S'by'
p3353
tp3354
F0.00033921302578018993
s(S'become'
p3355
S'known'
p3356
S'for'
p3357
tp3358
F0.00033921302578018993
s(S'gt'
p3359
g3330
g3331
tp3360
F0.00033921302578018993
s(S'[[det]]'
p3361
S'wife'
p3362
S'[[con]]'
p3363
tp3364
F0.00033921302578018993
s(S'ref'
p3365
S'gt'
p3366
S'in'
p3367
tp3368
F0.00033921302578018993
s(S'to'
p3369
S'son'
p3370
S'of'
p3371
tp3372
F0.0006784260515603799
s(S'have'
p3373
S'served'
p3374
S'in'
p3375
tp3376
F0.00033921302578018993
s(S'before'
p3377
S'moved'
p3378
S'along'
p3379
tp3380
F0.00033921302578018993
s(S'also'
p3381
S'performed'
p3382
S'to'
p3383
tp3384
F0.00033921302578018993
s(S'[[adj]]'
p3385
S'married'
p3386
S'to'
p3387
tp3388
F0.0006784260515603799
s(S'had'
p3389
S'served'
p3390
S'as'
p3391
tp3392
F0.00033921302578018993
s(S'ref'
p3393
S'gt'
p3394
S'on'
p3395
tp3396
F0.0006784260515603799
s(S'have'
p3397
S'lived'
p3398
S'with'
p3399
tp3400
F0.00033921302578018993
s(S'[[det]]'
p3401
S'cousin'
p3402
S'[[det]]'
p3403
tp3404
F0.00033921302578018993
s(S'then'
p3405
S'began'
p3406
S'dating'
p3407
tp3408
F0.00033921302578018993
s(S'[[adj]]'
p3409
S'appeared'
p3410
S'as'
p3411
tp3412
F0.00033921302578018993
s(S'is'
p3413
S'buried'
p3414
S'there'
p3415
tp3416
F0.00033921302578018993
s(S'was'
p3417
S'married'
p3418
S'twice'
p3419
tp3420
F0.0010176390773405698
s(g1958
g1959
S'got'
p3421
tp3422
F0.00033921302578018993
s(S'had'
p3423
S'taken'
p3424
S'[[prp]]'
p3425
tp3426
F0.00033921302578018993
s(S'[[num]]'
p3427
S'children'
p3428
S'[[con]]'
p3429
tp3430
F0.00033921302578018993
s(S'has'
p3431
S'served'
p3432
S'as'
p3433
tp3434
F0.00033921302578018993
s(S'[[adj]]'
p3435
S'work'
p3436
S'with'
p3437
tp3438
F0.00033921302578018993
s(S'[[num]]'
p3439
S'brothers'
p3440
S'[[det]]'
p3441
tp3442
F0.00033921302578018993
s(S'well'
p3443
S'known'
p3444
S'as'
p3445
tp3446
F0.00033921302578018993
s(S'[[con]]'
p3447
S'stars'
p3448
S'[[con]]'
p3449
tp3450
F0.00033921302578018993
s(S'nearly'
p3451
S'killed'
p3452
S'by'
p3453
tp3454
F0.00033921302578018993
s(g81
S'son'
p3455
S'[[num]]'
p3456
tp3457
F0.00033921302578018993
s(S'[[num]]'
p3458
S'children'
p3459
S'to'
p3460
tp3461
F0.00033921302578018993
s(S'also'
p3462
S'appeared'
p3463
S'under'
p3464
tp3465
F0.00033921302578018993
s(S'had'
p3466
S'married'
p3467
S'[[prp]]'
p3468
tp3469
F0.0006784260515603799
s(S'to'
p3470
S'[[adj]]'
p3471
S'wife'
p3472
tp3473
F0.0006784260515603799
s(S'also'
p3474
S'played'
p3475
S'[[pro]]'
p3476
tp3477
F0.00033921302578018993
s(S'said'
p3478
S'lt'
p3479
S'ref'
p3480
tp3481
F0.00033921302578018993
s(S'later'
p3482
S'starred'
p3483
S'[[con]]'
p3484
tp3485
F0.00033921302578018993
s(S'wrote'
p3486
S'lt'
p3487
g2570
tp3488
F0.0010176390773405698
s(S'appeared'
p3489
S'[[adj]]'
p3490
S'alongside'
p3491
tp3492
F0.0010176390773405698
s(S'actress'
p3493
S'in'
p3494
S'by'
p3495
tp3496
F0.00033921302578018993
s(S'married'
p3497
S'[[det]]'
p3498
S'daughter'
p3499
tp3500
F0.0023744911804613297
s(S'is'
p3501
S'killed'
p3502
S'by'
p3503
tp3504
F0.00033921302578018993
s(S'also'
p3505
S'wrote'
p3506
S'[[det]]'
p3507
tp3508
F0.00033921302578018993
s(S'married'
p3509
S'again'
p3510
S'to'
p3511
tp3512
F0.00033921302578018993
s(S'to'
p3513
S'work'
p3514
S'while'
p3515
tp3516
F0.00033921302578018993
s(S'had'
p3517
S'married'
p3518
S'sister'
p3519
tp3520
F0.0006784260515603799
s(g1256
S'where'
p3521
S'worked'
p3522
tp3523
F0.00033921302578018993
s(S'has'
p3524
S'worked'
p3525
S'from'
p3526
tp3527
F0.00033921302578018993
s(S'[[num]]'
p3528
S'son'
p3529
S'[[con]]'
p3530
tp3531
F0.00033921302578018993
s(S'with'
p3532
S'lt'
p3533
S'ref'
p3534
tp3535
F0.00033921302578018993
s(S'where'
p3536
S'met'
p3537
S'[[con]]'
p3538
tp3539
F0.00033921302578018993
s(S'to'
p3540
S'[[det]]'
p3541
S'daughter'
p3542
tp3543
F0.0013568521031207597
s(S'so'
p3544
S'taken'
p3545
S'with'
p3546
tp3547
F0.00033921302578018993
s(S'in'
p3548
S'[[num]]'
p3549
S'daughter'
p3550
tp3551
F0.0010176390773405698
s(S'[[pro]]'
p3552
S'served'
p3553
S'as'
p3554
tp3555
F0.00033921302578018993
s(S'ref'
p3556
S'gt'
p3557
S'where'
p3558
tp3559
F0.0006784260515603799
s(S'then'
p3560
S'took'
p3561
S'[[prp]]'
p3562
tp3563
F0.00033921302578018993
s(S'also'
p3564
S'served'
p3565
S'against'
p3566
tp3567
F0.00033921302578018993
s(S'married'
p3568
S'with'
p3569
S'[[det]]'
p3570
tp3571
F0.0006784260515603799
s(S'[[prp]]'
p3572
S'son'
p3573
S'with'
p3574
tp3575
F0.00033921302578018993
s(S'later'
p3576
S'worked'
p3577
S'[[con]]'
p3578
tp3579
F0.00033921302578018993
s(S'[[adj]]'
p3580
S'relationship'
p3581
S'between'
p3582
tp3583
F0.00033921302578018993
s(S'also'
p3584
S'starred'
p3585
S'to'
p3586
tp3587
F0.00033921302578018993
s(S'later'
p3588
S'served'
p3589
S'[[con]]'
p3590
tp3591
F0.00033921302578018993
s(S'also'
p3592
S'performed'
p3593
S'as'
p3594
tp3595
F0.00033921302578018993
s(S'was'
p3596
S'asked'
p3597
S'why'
p3598
tp3599
F0.00033921302578018993
s(S'has'
p3600
S'called'
p3601
S'[[det]]'
p3602
tp3603
F0.00033921302578018993
s(S'[[det]]'
p3604
S'time'
p3605
S'[[con]]'
p3606
tp3607
F0.00033921302578018993
s(g81
S'son'
p3608
S'of'
p3609
tp3610
F0.00033921302578018993
s(S'was'
p3611
S'declared'
p3612
S'by'
p3613
tp3614
F0.00033921302578018993
s(S'to'
p3615
S'marry'
p3616
S'[[con]]'
p3617
tp3618
F0.00033921302578018993
s(S'again'
p3619
S'appeared'
p3620
S'in'
p3621
tp3622
F0.00033921302578018993
s(S'to'
p3623
S'know'
p3624
S'[[adj]]'
p3625
tp3626
F0.00033921302578018993
s(S'ref'
p3627
S'gt'
p3628
S'ref'
p3629
tp3630
F0.00033921302578018993
s(S'have'
p3631
S'served'
p3632
S'as'
p3633
tp3634
F0.00033921302578018993
s(S'[[det]]'
p3635
S'wedding'
p3636
S'of'
p3637
tp3638
F0.00033921302578018993
s(S'later'
p3639
S'won'
p3640
S'for'
p3641
tp3642
F0.00033921302578018993
s(S'have'
p3643
S'met'
p3644
S'with'
p3645
tp3646
F0.00033921302578018993
s(S'[[adj]]'
p3647
S'director'
p3648
S'with'
p3649
tp3650
F0.00033921302578018993
s(S'[[det]]'
p3651
g2319
g2320
tp3652
F0.0006784260515603799
s(S'was'
p3653
S'born'
p3654
S'to'
p3655
tp3656
F0.00033921302578018993
s(S'[[det]]'
p3657
S'daughter'
p3658
S'with'
p3659
tp3660
F0.00033921302578018993
s(S'been'
p3661
S'born'
p3662
S'[[det]]'
p3663
tp3664
F0.00033921302578018993
s(S'ref'
p3665
S'gt'
p3666
S'as'
p3667
tp3668
F0.0006784260515603799
s(S'was'
p3669
S'born'
p3670
S'[[con]]'
p3671
tp3672
F0.00033921302578018993
s(g81
S'alongside'
p3673
S'[[con]]'
p3674
tp3675
F0.00033921302578018993
s(S'often'
p3676
S'called'
p3677
S'[[det]]'
p3678
tp3679
F0.00033921302578018993
s(S'[[det]]'
p3680
S'daughter'
p3681
S'who'
p3682
tp3683
F0.0010176390773405698
s(S'to'
p3684
S'meet'
p3685
S'[[pro]]'
p3686
tp3687
F0.00033921302578018993
s(S'then'
p3688
S'married'
p3689
S'daughter'
p3690
tp3691
F0.0006784260515603799
s(S'married'
p3692
S'to'
p3693
S'actress'
p3694
tp3695
F0.0010176390773405698
s(S'was'
p3696
S'taken'
p3697
S'down'
p3698
tp3699
F0.00033921302578018993
s(S'was'
p3700
S'sister'
p3701
S'to'
p3702
tp3703
F0.00033921302578018993
s(g2062
g2063
S'as'
p3704
tp3705
F0.00033921302578018993
s(g1081
S'[[adj]]'
p3706
S'ref'
p3707
tp3708
F0.00033921302578018993
s(S'once'
p3709
S'served'
p3710
S'as'
p3711
tp3712
F0.00033921302578018993
s(S'to'
p3713
S'[[adj]]'
p3714
S'son'
p3715
tp3716
F0.00033921302578018993
s(S'then'
p3717
S'appeared'
p3718
S'with'
p3719
tp3720
F0.00033921302578018993
s(g1913
g1914
S'[[pro]]'
p3721
tp3722
F0.00033921302578018993
s(S'have'
p3723
S'taken'
p3724
S'over'
p3725
tp3726
F0.00033921302578018993
s(S'also'
p3727
S'called'
p3728
S'[[con]]'
p3729
tp3730
F0.00033921302578018993
s(S'is'
p3731
S'led'
p3732
S'to'
p3733
tp3734
F0.00033921302578018993
s(S'married'
p3735
S'to'
p3736
S'director'
p3737
tp3738
F0.00033921302578018993
s(S'[[con]]'
p3739
S'married'
p3740
S'[[det]]'
p3741
tp3742
F0.00033921302578018993
s(S'in'
p3743
S'[[prp]]'
p3744
S'husband'
p3745
tp3746
F0.0013568521031207597
s(S'carried'
p3747
g1759
g1760
tp3748
F0.00033921302578018993
s(S'[[con]]'
p3749
S'told'
p3750
S'[[det]]'
p3751
tp3752
F0.00033921302578018993
s(S'studied'
p3753
S'[[con]]'
p3754
S'[[det]]'
p3755
tp3756
F0.00033921302578018993
s(S'ref'
p3757
S'gt'
p3758
S'was'
p3759
tp3760
F0.0020352781546811396
s(S'was'
p3761
S'known'
p3762
S'[[det]]'
p3763
tp3764
F0.00033921302578018993
s(S'[[adj]]'
p3765
S'child'
p3766
S'[[con]]'
p3767
tp3768
F0.00033921302578018993
s(S'is'
p3769
S'known'
p3770
S'about'
p3771
tp3772
F0.00033921302578018993
s(S'[[con]]'
p3773
S'played'
p3774
S'by'
p3775
tp3776
F0.00033921302578018993
s(g3755
S'patron'
p3777
S'[[num]]'
p3778
tp3779
F0.00033921302578018993
s(S'[[adj]]'
p3780
S'son'
p3781
S'by'
p3782
tp3783
F0.00033921302578018993
s(S'then'
p3784
S'asked'
p3785
S'[[det]]'
p3786
tp3787
F0.00033921302578018993
s(S'for'
p3788
S'of'
p3789
S'lt'
p3790
tp3791
F0.00033921302578018993
s(S'had'
p3792
S'killed'
p3793
S'[[con]]'
p3794
tp3795
F0.00033921302578018993
s(S'was'
p3796
S'mother'
p3797
S'of'
p3798
tp3799
F0.00033921302578018993
s(S'[[det]]'
p3800
S'graduate'
p3801
g905
tp3802
F0.00033921302578018993
s(S'was'
p3803
S'known'
p3804
S'to'
p3805
tp3806
F0.00033921302578018993
s(S'[[det]]'
p3807
S'life'
p3808
S'of'
p3809
tp3810
F0.00033921302578018993
s(S'[[prp]]'
p3811
S'son'
p3812
S'who'
p3813
tp3814
F0.00033921302578018993
s(S'is'
p3815
S'stated'
p3816
S'to'
p3817
tp3818
F0.00033921302578018993
s(S'[[adj]]'
p3819
S'stars'
p3820
S'as'
p3821
tp3822
F0.00033921302578018993
s(g206
g207
S'wife'
p3823
tp3824
F0.00033921302578018993
s(S'had'
p3825
S'taken'
p3826
S'[[con]]'
p3827
tp3828
F0.00033921302578018993
s(S'[[con]]'
p3829
S'played'
p3830
S'[[con]]'
p3831
tp3832
F0.00033921302578018993
s(S'mainly'
p3833
S'worked'
p3834
S'under'
p3835
tp3836
F0.00033921302578018993
s(S'[[pro]]'
p3837
S'son'
p3838
S'of'
p3839
tp3840
F0.00033921302578018993
s(S'while'
p3841
S'moved'
p3842
S'to'
p3843
tp3844
F0.00033921302578018993
s(g2587
g2588
S'daughter'
p3845
tp3846
F0.00033921302578018993
s(S'is'
p3847
S'seen'
p3848
S'by'
p3849
tp3850
F0.00033921302578018993
s(S'later'
p3851
S'tells'
p3852
S'[[pro]]'
p3853
tp3854
F0.00033921302578018993
s(S'[[det]]'
p3855
S'son'
p3856
S'with'
p3857
tp3858
F0.00033921302578018993
s(S'is'
p3859
S'cast'
p3860
S'in'
p3861
tp3862
F0.00033921302578018993
s(g1380
g1381
S'[[con]]'
p3863
tp3864
F0.0016960651289009499
s(S'[[adj]]'
p3865
S'campaign'
p3866
S'[[con]]'
p3867
tp3868
F0.00033921302578018993
s(S'won'
p3869
S'[[det]]'
p3870
S'chance'
p3871
tp3872
F0.00033921302578018993
s(S'formerly'
p3873
S'married'
p3874
S'to'
p3875
tp3876
F0.0006784260515603799
s(S'[[con]]'
p3877
S'appeared'
p3878
S'alongside'
p3879
tp3880
F0.00033921302578018993
s(S'also'
p3881
S'took'
p3882
S'[[con]]'
p3883
tp3884
F0.00033921302578018993
s(S'[[mod]]'
p3885
S'marry'
p3886
S'[[det]]'
p3887
tp3888
F0.00033921302578018993
s(S'[[adj]]'
p3889
S'wife'
p3890
S'of'
p3891
tp3892
F0.0006784260515603799
s(S'also'
p3893
S'met'
p3894
S'[[con]]'
p3895
tp3896
F0.00033921302578018993
s(g1168
g1169
g515
tp3897
F0.00033921302578018993
s(S'had'
p3898
S'met'
p3899
S'when'
p3900
tp3901
F0.00033921302578018993
s(S'[[con]]'
p3902
S'met'
p3903
S'up'
p3904
tp3905
F0.00033921302578018993
s(S'then'
p3906
S'worked'
p3907
S'before'
p3908
tp3909
F0.00033921302578018993
s(S'[[num]]'
p3910
S'worked'
p3911
S'with'
p3912
tp3913
F0.00033921302578018993
s(g81
S'cousin'
p3914
S'[[det]]'
p3915
tp3916
F0.00033921302578018993
s(S'also'
p3917
S'stars'
p3918
S'in'
p3919
tp3920
F0.00033921302578018993
s(S'is'
p3921
S'known'
p3922
S'[[adj]]'
p3923
tp3924
F0.00033921302578018993
s(S'where'
p3925
S'met'
p3926
S'[[det]]'
p3927
tp3928
F0.00033921302578018993
s(S'while'
p3929
S'served'
p3930
S'as'
p3931
tp3932
F0.00033921302578018993
s(S'[[con]]'
p3933
S'played'
p3934
S'[[adj]]'
p3935
tp3936
F0.00033921302578018993
s(S'has'
p3937
S'worked'
p3938
S'among'
p3939
tp3940
F0.00033921302578018993
s(S'married'
p3941
g973
g974
tp3942
F0.00033921302578018993
s(g1081
g1082
S'lt'
p3943
tp3944
F0.00033921302578018993
s(S'married'
p3945
g2427
g2428
tp3946
F0.00033921302578018993
s(g1216
g1217
S'are'
p3947
tp3948
F0.00033921302578018993
s(S'was'
p3949
S'directed'
p3950
S'to'
p3951
tp3952
F0.00033921302578018993
s(g1303
g3178
g3179
tp3953
F0.00033921302578018993
s(S'[[adj]]'
p3954
S'wife'
p3955
S'[[adj]]'
p3956
tp3957
F0.00033921302578018993
s(S'had'
p3958
S'married'
p3959
S'at'
p3960
tp3961
F0.00033921302578018993
s(g81
S'relationship'
p3962
S'to'
p3963
tp3964
F0.00033921302578018993
s(g2840
g2841
S'ref'
p3965
tp3966
F0.00033921302578018993
s(S'[[con]]'
p3967
S'married'
p3968
S'to'
p3969
tp3970
F0.00033921302578018993
s(S'had'
p3971
S'seen'
p3972
S'[[prp]]'
p3973
tp3974
F0.00033921302578018993
s(S'performed'
p3975
S'[[adj]]'
p3976
S'ref'
p3977
tp3978
F0.0006784260515603799
s(S'[[det]]'
p3979
S'time'
p3980
S'of'
p3981
tp3982
F0.00033921302578018993
s(S'then'
p3983
S'worked'
p3984
S'to'
p3985
tp3986
F0.00033921302578018993
s(S'also'
p3987
S'wrote'
p3988
S'[[num]]'
p3989
tp3990
F0.00033921302578018993
s(S'was'
p3991
S'taken'
p3992
S'[[con]]'
p3993
tp3994
F0.00033921302578018993
s(S'away'
p3995
S'followed'
p3996
S'by'
p3997
tp3998
F0.00033921302578018993
s(S'[[det]]'
p3999
S'child'
p4000
S'[[con]]'
p4001
tp4002
F0.00033921302578018993
s(g81
S'sister'
p4003
S'[[adj]]'
p4004
tp4005
F0.00033921302578018993
s(S'[[con]]'
p4006
S'wife'
p4007
S'of'
p4008
tp4009
F0.00033921302578018993
s(S'then'
p4010
S'played'
p4011
S'as'
p4012
tp4013
F0.00033921302578018993
s(S'was'
p4014
S'buried'
p4015
S'[[con]]'
p4016
tp4017
F0.00033921302578018993
s(S'[[con]]'
p4018
S'stayed'
p4019
S'with'
p4020
tp4021
F0.00033921302578018993
s(S'later'
p4022
S'cast'
p4023
S'as'
p4024
tp4025
F0.00033921302578018993
s(S'also'
p4026
S'known'
p4027
S'on'
p4028
tp4029
F0.00033921302578018993
s(S'where'
p4030
S'played'
p4031
S'[[det]]'
p4032
tp4033
F0.00033921302578018993
s(S'then'
p4034
S'took'
p4035
S'on'
p4036
tp4037
F0.00033921302578018993
s(S'was'
p4038
S'taken'
p4039
S'off'
p4040
tp4041
F0.00033921302578018993
s(S'then'
p4042
S'served'
p4043
S'before'
p4044
tp4045
F0.00033921302578018993
s(S'first'
p4046
S'appeared'
p4047
S'by'
p4048
tp4049
F0.00033921302578018993
s(S'was'
p4050
S'told'
p4051
S'by'
p4052
tp4053
F0.00033921302578018993
s(S'married'
p4054
S'[[det]]'
p4055
S'director'
p4056
tp4057
F0.00033921302578018993
s(S'[[pro]]'
p4058
S'lived'
p4059
S'at'
p4060
tp4061
F0.00033921302578018993
s(S'[[adj]]'
p4062
S'appearance'
p4063
S'by'
p4064
tp4065
F0.00033921302578018993
s(S'[[det]]'
p4066
S'appearance'
p4067
S'where'
p4068
tp4069
F0.00033921302578018993
s(S'[[adj]]'
p4070
S'actor'
p4071
S'[[con]]'
p4072
tp4073
F0.00033921302578018993
s(S'[[det]]'
p4074
S'producer'
p4075
S'for'
p4076
tp4077
F0.00033921302578018993
s(S'[[pro]]'
p4078
S'gave'
p4079
S'birth'
p4080
tp4081
F0.00033921302578018993
s(S'currently'
p4082
S'married'
p4083
S'to'
p4084
tp4085
F0.0006784260515603799
s(S'is'
p4086
S'cast'
p4087
S'as'
p4088
tp4089
F0.00033921302578018993
s(S'also'
p4090
S'wrote'
p4091
S'at'
p4092
tp4093
F0.00033921302578018993
s(S'[[det]]'
p4094
S'lead'
p4095
S'from'
p4096
tp4097
F0.00033921302578018993
s(S'was'
p4098
S'cast'
p4099
S'after'
p4100
tp4101
F0.00033921302578018993
s(S'also'
p4102
S'served'
p4103
S'as'
p4104
tp4105
F0.00033921302578018993
s(S'had'
p4106
S'married'
p4107
g3548
tp4108
F0.00033921302578018993
s(S'had'
p4109
S'played'
p4110
S'with'
p4111
tp4112
F0.00033921302578018993
s(S'first'
p4113
S'appeared'
p4114
S'[[con]]'
p4115
tp4116
F0.00033921302578018993
s(S'also'
p4117
S'played'
p4118
S'with'
p4119
tp4120
F0.00033921302578018993
s(S'later'
p4121
S'married'
p4122
S'daughter'
p4123
tp4124
F0.0006784260515603799
s(S'was'
p4125
S'taken'
p4126
S'out'
p4127
tp4128
F0.00033921302578018993
s(S'better'
p4129
S'known'
p4130
S'as'
p4131
tp4132
F0.00033921302578018993
s(S'where'
p4133
S'performed'
p4134
S'with'
p4135
tp4136
F0.00033921302578018993
s(S'which'
p4137
S'led'
p4138
S'to'
p4139
tp4140
F0.00033921302578018993
s(S'[[det]]'
p4141
S'companion'
p4142
S'to'
p4143
tp4144
F0.00033921302578018993
s(S'[[det]]'
p4145
S'lt'
p4146
S'ref'
p4147
tp4148
F0.0016960651289009499
s(S'[[adj]]'
p4149
S'sister'
p4150
S'of'
p4151
tp4152
F0.00033921302578018993
s(S'married'
p4153
g1203
g1204
tp4154
F0.00033921302578018993
s(S'well'
p4155
S'known'
p4156
S'[[con]]'
p4157
tp4158
F0.00033921302578018993
s(S'had'
p4159
S'taken'
p4160
S'up'
p4161
tp4162
F0.00033921302578018993
s(S'was'
p4163
S'left'
p4164
S'out'
p4165
tp4166
F0.00033921302578018993
s(S'also'
p4167
S'played'
p4168
S'before'
p4169
tp4170
F0.00033921302578018993
s(S'also'
p4171
S'cast'
p4172
S'as'
p4173
tp4174
F0.00033921302578018993
s(S'first'
p4175
S'worked'
p4176
S'with'
p4177
tp4178
F0.00033921302578018993
s(S'gt'
p4179
g507
g508
tp4180
F0.00033921302578018993
s(S'then'
p4181
S'served'
p4182
S'to'
p4183
tp4184
F0.00033921302578018993
s(S'starred'
p4185
S'as'
p4186
S'alongside'
p4187
tp4188
F0.00033921302578018993
s(S'[[adj]]'
p4189
S'appearance'
p4190
S'when'
p4191
tp4192
F0.00033921302578018993
s(S'[[num]]'
p4193
S'appearance'
p4194
S'as'
p4195
tp4196
F0.00033921302578018993
s(S'never'
p4197
S'called'
p4198
S'[[con]]'
p4199
tp4200
F0.00033921302578018993
s(S'then'
p4201
S'tells'
p4202
S'[[con]]'
p4203
tp4204
F0.00033921302578018993
s(S'[[det]]'
p4205
S'daughter'
p4206
S'[[adj]]'
p4207
tp4208
F0.00033921302578018993
s(S'born'
p4209
S'[[num]]'
p4210
S'born'
p4211
tp4212
F0.00033921302578018993
s(S'later'
p4213
S'moved'
p4214
S'with'
p4215
tp4216
F0.00033921302578018993
s(S'had'
p4217
S'declared'
p4218
S'[[pro]]'
p4219
tp4220
F0.00033921302578018993
s(g715
g716
g1364
tp4221
F0.00033921302578018993
s(S'[[det]]'
p4222
S'work'
p4223
S'of'
p4224
tp4225
F0.00033921302578018993
s(S'ref'
p4226
g2247
g2248
tp4227
F0.00033921302578018993
s(g81
S'campaign'
p4228
S'against'
p4229
tp4230
F0.00033921302578018993
s(S'later'
p4231
S'worked'
p4232
S'with'
p4233
tp4234
F0.00033921302578018993
s(S'been'
p4235
S'called'
p4236
S'[[num]]'
p4237
tp4238
F0.00033921302578018993
s(S'later'
p4239
S'appeared'
p4240
S'with'
p4241
tp4242
F0.00033921302578018993
s(g3976
g3977
g491
tp4243
F0.00508819538670285
s(S'has'
p4244
S'starred'
p4245
S'[[adj]]'
p4246
tp4247
F0.00033921302578018993
s(S'lives'
p4248
g3743
g3744
tp4249
F0.0020352781546811396
s(S'is'
p4250
S'known'
p4251
S'also'
p4252
tp4253
F0.00033921302578018993
s(S'was'
p4254
S'known'
p4255
S'[[adj]]'
p4256
tp4257
F0.00033921302578018993
s(S'showcase'
p4258
g3222
g1582
tp4259
F0.00033921302578018993
s(g81
S'appearance'
p4260
S'with'
p4261
tp4262
F0.00033921302578018993
s(S'[[det]]'
p4263
S'children'
p4264
S'of'
p4265
tp4266
F0.00033921302578018993
s(S'have'
p4267
S'played'
p4268
S'[[det]]'
p4269
tp4270
F0.00033921302578018993
s(S'then'
p4271
S'worked'
p4272
S'where'
p4273
tp4274
F0.00033921302578018993
s(S'was'
p4275
S'initially'
p4276
S'[[adj]]'
p4277
tp4278
F0.00033921302578018993
s(S'lt'
p4279
S'blockquote'
p4280
S'gt'
p4281
tp4282
F0.0006784260515603799
s(S'[[con]]'
p4283
S'performed'
p4284
S'on'
p4285
tp4286
F0.00033921302578018993
s(S'[[adj]]'
p4287
S'campaign'
p4288
S'of'
p4289
tp4290
F0.00033921302578018993
s(S'later'
p4291
S'served'
p4292
S'from'
p4293
tp4294
F0.00033921302578018993
s(S'in'
p4295
S'[[con]]'
p4296
S'alongside'
p4297
tp4298
F0.0006784260515603799
s(S'then'
p4299
S'told'
p4300
S'that'
p4301
tp4302
F0.00033921302578018993
s(S'[[det]]'
p4303
S'county'
p4304
S'margin'
p4305
tp4306
F0.00033921302578018993
s(S'gave'
p4307
S'birth'
p4308
S'[[det]]'
p4309
tp4310
F0.00033921302578018993
s(S'[[con]]'
p4311
S'appeared'
p4312
S'[[adj]]'
p4313
tp4314
F0.00033921302578018993
s(S'which'
p4315
S'costarred'
p4316
S'with'
p4317
tp4318
F0.00033921302578018993
s(S'where'
p4319
S'worked'
p4320
S'as'
p4321
tp4322
F0.00033921302578018993
s(g81
S'called'
p4323
S'[[det]]'
p4324
tp4325
F0.00033921302578018993
s(g81
S'worked'
p4326
S'as'
p4327
tp4328
F0.00033921302578018993
s(S'[[con]]'
p4329
S'remained'
p4330
S'as'
p4331
tp4332
F0.00033921302578018993
s(S'to'
p4333
S'know'
p4334
S'whether'
p4335
tp4336
F0.00033921302578018993
s(S'married'
p4337
S'[[prp]]'
p4338
S'sister'
p4339
tp4340
F0.00033921302578018993
s(S'has'
p4341
S'directed'
p4342
S'[[con]]'
p4343
tp4344
F0.00033921302578018993
s(S'also'
p4345
S'won'
p4346
S'twice'
p4347
tp4348
F0.00033921302578018993
s(S'called'
p4349
S'[[det]]'
p4350
S'lt'
p4351
tp4352
F0.00033921302578018993
s(S'was'
p4353
S'left'
p4354
S'with'
p4355
tp4356
F0.00033921302578018993
s(S'ref'
p4357
S'gt'
p4358
S'there'
p4359
tp4360
F0.00033921302578018993
s(S'also'
p4361
S'worked'
p4362
S'with'
p4363
tp4364
F0.00033921302578018993
s(S'is'
p4365
S'taken'
p4366
S'by'
p4367
tp4368
F0.00033921302578018993
s(S'has'
p4369
S'taken'
p4370
S'[[con]]'
p4371
tp4372
F0.00033921302578018993
s(S'also'
p4373
S'known'
p4374
S'[[con]]'
p4375
tp4376
F0.00033921302578018993
s(S'later'
p4377
S'known'
p4378
S'as'
p4379
tp4380
F0.00033921302578018993
s(S'had'
p4381
S'seen'
p4382
S'since'
p4383
tp4384
F0.00033921302578018993
s(S'then'
p4385
S'won'
p4386
S'over'
p4387
tp4388
F0.00033921302578018993
s(S'[[adj]]'
p4389
S'alongside'
p4390
S'[[adj]]'
p4391
tp4392
F0.00033921302578018993
s(S'[[con]]'
p4393
S'met'
p4394
S'[[det]]'
p4395
tp4396
F0.00033921302578018993
s(S'was'
p4397
S'married'
p4398
S'briefly'
p4399
tp4400
F0.00033921302578018993
s(S'lt'
p4401
g3556
g3557
tp4402
F0.04172320217096336
s(S'to'
p4403
S'work'
p4404
S'again'
p4405
tp4406
F0.00033921302578018993
s(S'currently'
p4407
S'stars'
p4408
S'as'
p4409
tp4410
F0.00033921302578018993
s(S'best'
p4411
S'known'
p4412
S'along'
p4413
tp4414
F0.00033921302578018993
s(S'wrote'
p4415
g1743
g1744
tp4416
F0.00033921302578018993
s(S'has'
p4417
S'performed'
p4418
S'for'
p4419
tp4420
F0.00033921302578018993
s(S'ref'
p4421
S'gt'
p4422
S'sent'
p4423
tp4424
F0.00033921302578018993
s(S'also'
p4425
S'tells'
p4426
S'of'
p4427
tp4428
F0.00033921302578018993
s(S'was'
p4429
S'called'
p4430
S'into'
p4431
tp4432
F0.00033921302578018993
s(g1302
g1303
g3178
tp4433
F0.00033921302578018993
s(S'[[adj]]'
p4434
S'seen'
p4435
S'by'
p4436
tp4437
F0.00033921302578018993
s(S'was'
p4438
S'known'
p4439
S'being'
p4440
tp4441
F0.00033921302578018993
s(S'has'
p4442
S'left'
p4443
S'[[det]]'
p4444
tp4445
F0.00033921302578018993
s(g81
S'gt'
p4446
S'ref'
p4447
tp4448
F0.00033921302578018993
s(S'[[con]]'
p4449
S'appeared'
p4450
S'with'
p4451
tp4452
F0.00033921302578018993
s(S'to'
p4453
S'meet'
p4454
S'[[det]]'
p4455
tp4456
F0.00033921302578018993
s(S'[[adj]]'
p4457
S'children'
p4458
S'[[adj]]'
p4459
tp4460
F0.00033921302578018993
s(S'was'
p4461
S'taken'
p4462
S'up'
p4463
tp4464
F0.00033921302578018993
s(S'[[con]]'
p4465
S'lt'
p4466
S'[[num]]'
p4467
tp4468
F0.00033921302578018993
s(S'de'
p4469
S'widow'
p4470
S'of'
p4471
tp4472
F0.00033921302578018993
s(S'later'
p4473
S'met'
p4474
S'with'
p4475
tp4476
F0.00033921302578018993
s(S'to'
p4477
S'tell'
p4478
S'[[con]]'
p4479
tp4480
F0.00033921302578018993
s(S'ref'
p4481
S'gt'
p4482
S'worked'
p4483
tp4484
F0.0006784260515603799
s(S'[[con]]'
p4485
S'performed'
p4486
S'[[det]]'
p4487
tp4488
F0.00033921302578018993
s(g81
S'worked'
p4489
S'on'
p4490
tp4491
F0.00033921302578018993
s(S'then'
p4492
S'appeared'
p4493
S'as'
p4494
tp4495
F0.00033921302578018993
s(S'ref'
p4496
S'gt'
p4497
S'brought'
p4498
tp4499
F0.00033921302578018993
s(S'accessed'
p4500
S'lt'
p4501
S'ref'
p4502
tp4503
F0.00033921302578018993
s(S'was'
p4504
S'married'
p4505
S'[[con]]'
p4506
tp4507
F0.0020352781546811396
s(S'[[det]]'
p4508
S'time'
p4509
S'under'
p4510
tp4511
F0.00033921302578018993
s(g2398
g2399
S'ref'
p4512
tp4513
F0.00033921302578018993
s(S'now'
p4514
S'lives'
p4515
S'with'
p4516
tp4517
F0.0006784260515603799
s(g81
S'played'
p4518
S'by'
p4519
tp4520
F0.00033921302578018993
s(S'gt'
p4521
S'has'
p4522
S'worked'
p4523
tp4524
F0.00033921302578018993
s(S'took'
p4525
S'pole'
p4526
S'ahead'
p4527
tp4528
F0.0006784260515603799
s(S'had'
p4529
S'moved'
p4530
S'[[con]]'
p4531
tp4532
F0.00033921302578018993
s(S'was'
p4533
S'seen'
p4534
S'[[adj]]'
p4535
tp4536
F0.00033921302578018993
s(S'still'
p4537
S'married'
p4538
S'to'
p4539
tp4540
F0.0006784260515603799
s(S'briefly'
p4541
S'married'
p4542
S'to'
p4543
tp4544
F0.00033921302578018993
s(S'where'
p4545
S'appeared'
p4546
S'with'
p4547
tp4548
F0.00033921302578018993
s(S'which'
p4549
S'starred'
p4550
S'alongside'
p4551
tp4552
F0.00033921302578018993
s(S'was'
p4553
S'left'
p4554
S'behind'
p4555
tp4556
F0.00033921302578018993
s(S'appeared'
p4557
S'alongside'
p4558
S'[[prp]]'
p4559
tp4560
F0.0006784260515603799
s(S'had'
p4561
S'asked'
p4562
S'[[det]]'
p4563
tp4564
F0.00033921302578018993
s(S'twice'
p4565
S'served'
p4566
S'as'
p4567
tp4568
F0.00033921302578018993
s(S'[[num]]'
p4569
S'children'
p4570
S'of'
p4571
tp4572
F0.00033921302578018993
s(S'[[adj]]'
p4573
S'wife'
p4574
S'in'
p4575
tp4576
F0.00033921302578018993
s(S'[[det]]'
p4577
S'lead'
p4578
S'in'
p4579
tp4580
F0.00033921302578018993
s(S'has'
p4581
S'performed'
p4582
S'together'
p4583
tp4584
F0.00033921302578018993
s(S'is'
p4585
S'called'
p4586
S'[[det]]'
p4587
tp4588
F0.00033921302578018993
s(S'was'
p4589
S'killed'
p4590
S'by'
p4591
tp4592
F0.00033921302578018993
s(S'[[det]]'
p4593
S'[[adj]]'
p4594
S'son'
p4595
tp4596
F0.00033921302578018993
s(S'was'
p4597
S'married'
p4598
S'by'
p4599
tp4600
F0.00033921302578018993
s(S'be'
p4601
S'known'
p4602
S'as'
p4603
tp4604
F0.00033921302578018993
s(g2172
g2173
S'daughter'
p4605
tp4606
F0.00033921302578018993
s(S'married'
p4607
S'to'
p4608
S'actor'
p4609
tp4610
F0.0016960651289009499
s(g2421
g635
g636
tp4611
F0.00033921302578018993
s(S'[[con]]'
p4612
S'mother'
p4613
S'of'
p4614
tp4615
F0.00033921302578018993
s(S'is'
p4616
S'divorced'
p4617
S'from'
p4618
tp4619
F0.00033921302578018993
s(S'[[adj]]'
p4620
S'served'
p4621
S'as'
p4622
tp4623
F0.00033921302578018993
s(S'was'
p4624
S'engaged'
p4625
S'to'
p4626
tp4627
F0.00033921302578018993
s(S'first'
p4628
S'served'
p4629
S'as'
p4630
tp4631
F0.00033921302578018993
s(g81
S'mother'
p4632
S'of'
p4633
tp4634
F0.00033921302578018993
s(S'where'
p4635
S'played'
p4636
S'[[con]]'
p4637
tp4638
F0.00033921302578018993
s(S'began'
p4639
S'singing'
p4640
g885
tp4641
F0.00033921302578018993
s(S'was'
p4642
S'son'
p4643
S'[[con]]'
p4644
tp4645
F0.00033921302578018993
s(g649
S'[[prp]]'
p4646
S'siblings'
p4647
tp4648
F0.00033921302578018993
s(S'has'
p4649
S'remained'
p4650
S'[[adj]]'
p4651
tp4652
F0.00033921302578018993
s(S'[[con]]'
p4653
S'took'
p4654
S'up'
p4655
tp4656
F0.00033921302578018993
s(S'to'
p4657
S'work'
p4658
S'together'
p4659
tp4660
F0.00033921302578018993
s(S'was'
p4661
S'won'
p4662
S'over'
p4663
tp4664
F0.00033921302578018993
s(S'also'
p4665
S'played'
p4666
S'[[det]]'
p4667
tp4668
F0.00033921302578018993
s(S'first'
p4669
S'met'
p4670
S'with'
p4671
tp4672
F0.00033921302578018993
s(S'often'
p4673
S'played'
p4674
S'with'
p4675
tp4676
F0.00033921302578018993
s(S'were'
p4677
S'played'
p4678
S'by'
p4679
tp4680
F0.00033921302578018993
s(S'lives'
p4681
S'near'
p4682
S'[[prp]]'
p4683
tp4684
F0.00033921302578018993
s(S'also'
p4685
S'engaged'
p4686
S'to'
p4687
tp4688
F0.00033921302578018993
s(S'had'
p4689
S'left'
p4690
S'[[con]]'
p4691
tp4692
F0.00033921302578018993
s(S'pages'
p4693
S'[[num]]'
p4694
S'lt'
p4695
tp4696
F0.00033921302578018993
s(S'[[num]]'
p4697
S'children'
p4698
S'[[num]]'
p4699
tp4700
F0.00033921302578018993
s(S'married'
p4701
S'[[con]]'
p4702
S'daughter'
p4703
tp4704
F0.00033921302578018993
s(S'also'
p4705
S'worked'
p4706
S'[[con]]'
p4707
tp4708
F0.00033921302578018993
s(S'[[det]]'
p4709
S'son'
p4710
S'whom'
p4711
tp4712
F0.00033921302578018993
s(S'which'
p4713
S'stars'
p4714
S'[[con]]'
p4715
tp4716
F0.00033921302578018993
s(S'been'
p4717
S'called'
p4718
S'by'
p4719
tp4720
F0.00033921302578018993
s(S'page'
p4721
S'[[num]]'
p4722
S'lt'
p4723
tp4724
F0.0010176390773405698
s(S'[[con]]'
p4725
S'performed'
p4726
S'with'
p4727
tp4728
F0.00033921302578018993
s(g3754
g3755
g3777
tp4729
F0.00033921302578018993
s(S'who'
p4730
S'served'
p4731
S'under'
p4732
tp4733
F0.00033921302578018993
s(S'[[det]]'
p4734
g2454
g101
tp4735
F0.00033921302578018993
s(g1451
g1817
g1916
tp4736
F0.00033921302578018993
s(S'is'
p4737
S'seen'
p4738
S'as'
p4739
tp4740
F0.00033921302578018993
s(S'married'
p4741
S'[[det]]'
p4742
S'writer'
p4743
tp4744
F0.00033921302578018993
s(g81
S'appeared'
p4745
S'on'
p4746
tp4747
F0.00033921302578018993
s(S'[[adj]]'
p4748
S'wife'
p4749
S'[[con]]'
p4750
tp4751
F0.0006784260515603799
s(S'who'
p4752
S'worked'
p4753
S'with'
p4754
tp4755
F0.00033921302578018993
s(S'manager'
p4756
S'lt'
p4757
S'ref'
p4758
tp4759
F0.00033921302578018993
s(S'[[adj]]'
p4760
S'seen'
p4761
S'when'
p4762
tp4763
F0.00033921302578018993
s(S'married'
p4764
g3194
g3195
tp4765
F0.0016960651289009499
s(S'[[det]]'
p4766
S'son'
p4767
S'[[det]]'
p4768
tp4769
F0.00033921302578018993
s(S'has'
p4770
S'performed'
p4771
S'[[con]]'
p4772
tp4773
F0.00033921302578018993
s(S'been'
p4774
S'born'
p4775
S'to'
p4776
tp4777
F0.00033921302578018993
s(S'then'
p4778
S'married'
p4779
S'actress'
p4780
tp4781
F0.00033921302578018993
s(S'first'
p4782
S'met'
p4783
S'at'
p4784
tp4785
F0.00033921302578018993
s(S'[[det]]'
p4786
g1167
g1168
tp4787
F0.00033921302578018993
s(S'[[con]]'
p4788
S'served'
p4789
S'to'
p4790
tp4791
F0.00033921302578018993
s(S'again'
p4792
S'served'
p4793
S'as'
p4794
tp4795
F0.00033921302578018993
s(S'is'
p4796
S'known'
p4797
S'[[con]]'
p4798
tp4799
F0.00033921302578018993
s(S'[[adj]]'
p4800
S'time'
p4801
S'for'
p4802
tp4803
F0.00033921302578018993
s(S'[[adj]]'
p4804
S'actress'
p4805
S'in'
p4806
tp4807
F0.0006784260515603799
s(g1672
g1673
S'wife'
p4808
tp4809
F0.00033921302578018993
s(g81
S'daughter'
p4810
S'with'
p4811
tp4812
F0.00033921302578018993
s(g4107
g3548
g3549
tp4813
F0.0010176390773405698
s(S'[[con]]'
p4814
S'took'
p4815
S'on'
p4816
tp4817
F0.00033921302578018993
s(S'[[con]]'
p4818
S'played'
p4819
S'with'
p4820
tp4821
F0.00033921302578018993
s(S'been'
p4822
S'asked'
p4823
S'by'
p4824
tp4825
F0.00033921302578018993
s(S'married'
p4826
g4469
g4470
tp4827
F0.00033921302578018993
s(S'in'
p4828
S'[[adj]]'
p4829
S'daughter'
p4830
tp4831
F0.00033921302578018993
s(S'gt'
p4832
g1081
g3706
tp4833
F0.00033921302578018993
s(S'is'
p4834
S'seen'
p4835
S'with'
p4836
tp4837
F0.00033921302578018993
s(S'[[adj]]'
p4838
S'stated'
p4839
S'that'
p4840
tp4841
F0.00033921302578018993
s(S'also'
p4842
S'told'
p4843
S'that'
p4844
tp4845
F0.00033921302578018993
s(S'married'
p4846
S'[[prp]]'
p4847
S'wife'
p4848
tp4849
F0.00033921302578018993
s(g366
g367
g2847
tp4850
F0.00033921302578018993
s(g81
S'work'
p4851
S'as'
p4852
tp4853
F0.00033921302578018993
s(S'is'
p4854
S'known'
p4855
S'with'
p4856
tp4857
F0.00033921302578018993
s(S'was'
p4858
S'killed'
p4859
S'when'
p4860
tp4861
F0.00033921302578018993
s(S'[[adj]]'
p4862
S'cousin'
p4863
S'to'
p4864
tp4865
F0.00033921302578018993
s(g3510
g3511
S'daughter'
p4866
tp4867
F0.00033921302578018993
s(S'[[prp]]'
p4868
S'sons'
p4869
S'[[con]]'
p4870
tp4871
F0.00033921302578018993
s(S'is'
p4872
S'taken'
p4873
S'in'
p4874
tp4875
F0.00033921302578018993
s(g81
S'son'
p4876
S'de'
p4877
tp4878
F0.00033921302578018993
s(S'[[num]]'
p4879
S'known'
p4880
S'as'
p4881
tp4882
F0.00033921302578018993
s(g81
S'gt'
p4883
S'lt'
p4884
tp4885
F0.00033921302578018993
s(S'had'
p4886
S'served'
p4887
S'on'
p4888
tp4889
F0.00033921302578018993
s(S'[[con]]'
p4890
S'daughter'
p4891
S'of'
p4892
tp4893
F0.0006784260515603799
s(S'had'
p4894
S'seen'
p4895
S'in'
p4896
tp4897
F0.00033921302578018993
s(S'[[adj]]'
p4898
S'son'
p4899
S'[[adj]]'
p4900
tp4901
F0.00033921302578018993
s(S'[[num]]'
p4902
S'daughter'
p4903
S'of'
p4904
tp4905
F0.0023744911804613297
s(S'married'
p4906
g298
g299
tp4907
F0.0006784260515603799
s(S'ref'
p4908
S'gt'
p4909
S'[[det]]'
p4910
tp4911
F0.0020352781546811396
s(S'[[con]]'
p4912
S'worked'
p4913
S'[[prp]]'
p4914
tp4915
F0.00033921302578018993
s(S'[[num]]'
p4916
S'married'
p4917
S'in'
p4918
tp4919
F0.00033921302578018993
s(S'also'
p4920
S'starred'
p4921
S'[[adj]]'
p4922
tp4923
F0.00033921302578018993
s(S'had'
p4924
S'taken'
p4925
S'from'
p4926
tp4927
F0.00033921302578018993
s(S'[[num]]'
p4928
S'sons'
p4929
S'[[con]]'
p4930
tp4931
F0.00033921302578018993
s(S'appeared'
p4932
g4295
g4296
tp4933
F0.00033921302578018993
s(S'also'
p4934
S'costarred'
p4935
S'[[con]]'
p4936
tp4937
F0.00033921302578018993
s(S'[[con]]'
p4938
S'married'
p4939
S'[[adj]]'
p4940
tp4941
F0.00033921302578018993
s(S'was'
p4942
S'met'
p4943
S'by'
p4944
tp4945
F0.00033921302578018993
s(S'[[con]]'
p4946
S'remained'
p4947
S'so'
p4948
tp4949
F0.00033921302578018993
s(S'to'
p4950
S'[[det]]'
p4951
S'writer'
p4952
tp4953
F0.0006784260515603799
s(g3309
g3310
S'of'
p4954
tp4955
F0.00033921302578018993
s(S'[[det]]'
p4956
S'played'
p4957
S'by'
p4958
tp4959
F0.00033921302578018993
s(S'[[adj]]'
p4960
S'marriage'
p4961
S'to'
p4962
tp4963
F0.00033921302578018993
s(S'taking'
p4964
S'ahead'
p4965
S'of'
p4966
tp4967
F0.00033921302578018993
s(S'first'
p4968
S'appeared'
p4969
S'on'
p4970
tp4971
F0.00033921302578018993
s(S'married'
p4972
S'[[prp]]'
p4973
S'son'
p4974
tp4975
F0.00033921302578018993
s(S'most'
p4976
S'known'
p4977
S'with'
p4978
tp4979
F0.00033921302578018993
s(S'been'
p4980
g2740
g2741
tp4981
F0.0006784260515603799
s(S'has'
p4982
S'worked'
p4983
S'along'
p4984
tp4985
F0.00033921302578018993
s(S'passed'
p4986
S'[[con]]'
p4987
S'set'
p4988
tp4989
F0.00033921302578018993
s(S'[[con]]'
p4990
S'stated'
p4991
S'that'
p4992
tp4993
F0.00033921302578018993
s(S'was'
p4994
S'betrothed'
p4995
S'to'
p4996
tp4997
F0.00033921302578018993
s(g81
S'life'
p4998
S'by'
p4999
tp5000
F0.00033921302578018993
s(S'[[pro]]'
p5001
S'played'
p5002
S'[[det]]'
p5003
tp5004
F0.00033921302578018993
s(S'married'
p5005
S'daughter'
p5006
S'[[con]]'
p5007
tp5008
F0.00033921302578018993
s(S'also'
p5009
S'performed'
p5010
S'[[con]]'
p5011
tp5012
F0.00033921302578018993
s(S'[[num]]'
p5013
S'gt'
p5014
S'for'
p5015
tp5016
F0.00033921302578018993
s(S'also'
p5017
S'served'
p5018
S'[[con]]'
p5019
tp5020
F0.00033921302578018993
s(S'[[num]]'
p5021
S'gt'
p5022
S'[[num]]'
p5023
tp5024
F0.00033921302578018993
s(S'who'
p5025
S'gave'
p5026
S'[[prp]]'
p5027
tp5028
F0.00033921302578018993
s(S'was'
p5029
S'born'
p5030
S'[[adj]]'
p5031
tp5032
F0.00033921302578018993
s(g4987
g4988
S'off'
p5033
tp5034
F0.00033921302578018993
s(S'was'
p5035
S'killed'
p5036
S'to'
p5037
tp5038
F0.00033921302578018993
s(g2795
g1473
g1474
tp5039
F0.00033921302578018993
s(S'[[pro]]'
p5040
S'[[num]]'
p5041
S'son'
p5042
tp5043
F0.00033921302578018993
s(S'[[num]]'
p5044
S'ref'
p5045
S'worked'
p5046
tp5047
F0.00033921302578018993
s(S'[[prp]]'
p5048
S'marriage'
p5049
S'[[con]]'
p5050
tp5051
F0.00033921302578018993
s(S'[[det]]'
p5052
S'children'
p5053
S'[[det]]'
p5054
tp5055
F0.00033921302578018993
s(S'that'
p5056
S'called'
p5057
S'[[det]]'
p5058
tp5059
F0.00033921302578018993
s(S'was'
p5060
S'moved'
p5061
S'[[con]]'
p5062
tp5063
F0.00033921302578018993
s(S'also'
p5064
S'wrote'
p5065
S'as'
p5066
tp5067
F0.00033921302578018993
s(S'regained'
p5068
g4786
g1167
tp5069
F0.00033921302578018993
s(S'is'
p5070
S'born'
p5071
S'to'
p5072
tp5073
F0.00033921302578018993
s(S'[[pro]]'
p5074
S'called'
p5075
S'[[det]]'
p5076
tp5077
F0.00033921302578018993
s(S'born'
p5078
S'[[adj]]'
p5079
S'ref'
p5080
tp5081
F0.0010176390773405698
s(S'is'
p5082
S'known'
p5083
S'for'
p5084
tp5085
F0.00033921302578018993
s(S'married'
p5086
S'to'
p5087
S'film'
p5088
tp5089
F0.00033921302578018993
s(S'been'
p5090
S'engaged'
p5091
S'with'
p5092
tp5093
F0.00033921302578018993
s(S'to'
p5094
S'work'
p5095
S'after'
p5096
tp5097
F0.00033921302578018993
s(S'[[con]]'
p5098
S'appeared'
p5099
S'from'
p5100
tp5101
F0.00033921302578018993
s(S'to'
p5102
S'work'
p5103
S'where'
p5104
tp5105
F0.00033921302578018993
s(S'[[adj]]'
p5106
S'met'
p5107
S'while'
p5108
tp5109
F0.00033921302578018993
s(S'was'
p5110
S'called'
p5111
S'as'
p5112
tp5113
F0.00033921302578018993
s(S'divorced'
p5114
S'[[prp]]'
p5115
S'wife'
p5116
tp5117
F0.00033921302578018993
s(S'daughter'
p5118
S'[[con]]'
p5119
S'is'
p5120
tp5121
F0.00033921302578018993
s(S'at'
p5122
S'lt'
p5123
S'[[num]]'
p5124
tp5125
F0.00033921302578018993
s(S'[[adj]]'
p5126
S'led'
p5127
S'by'
p5128
tp5129
F0.00033921302578018993
s(S'married'
p5130
g1667
g1668
tp5131
F0.00033921302578018993
s(S'[[num]]'
p5132
S'son'
p5133
S'[[det]]'
p5134
tp5135
F0.00033921302578018993
s(S'also'
p5136
S'appeared'
p5137
S'where'
p5138
tp5139
F0.00033921302578018993
s(g5045
g5046
S'for'
p5140
tp5141
F0.00033921302578018993
s(S'have'
p5142
S'killed'
p5143
S'[[con]]'
p5144
tp5145
F0.00033921302578018993
s(S'been'
p5146
S'cast'
p5147
S'by'
p5148
tp5149
F0.00033921302578018993
s(S'best'
p5150
S'known'
p5151
S'by'
p5152
tp5153
F0.00033921302578018993
s(S'mostly'
p5154
S'known'
p5155
S'for'
p5156
tp5157
F0.00033921302578018993
s(g2141
g2142
S'gt'
p5158
tp5159
F0.0013568521031207597
s(g81
S'children'
p5160
S'[[con]]'
p5161
tp5162
F0.00033921302578018993
s(S'was'
p5163
S'married'
p5164
S'with'
p5165
tp5166
F0.00033921302578018993
s(S'to'
p5167
S'meet'
p5168
S'[[con]]'
p5169
tp5170
F0.00033921302578018993
s(S'had'
p5171
S'worked'
p5172
S'under'
p5173
tp5174
F0.00033921302578018993
s(g3495
S'lt'
p5175
S'ref'
p5176
tp5177
F0.0006784260515603799
s(S'to'
p5178
S'work'
p5179
S'with'
p5180
tp5181
F0.00033921302578018993
s(S'[[con]]'
p5182
S'left'
p5183
S'in'
p5184
tp5185
F0.00033921302578018993
s(S'has'
p5186
S'worked'
p5187
S'as'
p5188
tp5189
F0.00033921302578018993
s(g2670
S'name'
p5190
S'gt'
p5191
tp5192
F0.007801899592944369
s(S'later'
p5193
S'appeared'
p5194
S'as'
p5195
tp5196
F0.00033921302578018993
s(S'[[det]]'
p5197
S'death'
p5198
S'of'
p5199
tp5200
F0.00033921302578018993
s(S'[[adj]]'
p5201
S'work'
p5202
S'[[con]]'
p5203
tp5204
F0.00033921302578018993
s(g81
S'campaign'
p5205
S'for'
p5206
tp5207
F0.00033921302578018993
s(S'also'
p5208
S'gave'
p5209
S'[[num]]'
p5210
tp5211
F0.00033921302578018993
s(g1990
S'winter'
p5212
S'[[con]]'
p5213
tp5214
F0.00033921302578018993
s(S'is'
p5215
S'met'
p5216
S'by'
p5217
tp5218
F0.00033921302578018993
s(S'with'
p5219
S'played'
p5220
S'by'
p5221
tp5222
F0.00033921302578018993
s(S'had'
p5223
S'served'
p5224
S'[[con]]'
p5225
tp5226
F0.00033921302578018993
s(S'was'
p5227
S'called'
p5228
S'out'
p5229
tp5230
F0.00033921302578018993
s(S'also'
p5231
S'played'
p5232
S'by'
p5233
tp5234
F0.00033921302578018993
s(g4398
g4399
S'to'
p5235
tp5236
F0.00033921302578018993
s(S'is'
p5237
S'buried'
p5238
S'near'
p5239
tp5240
F0.00033921302578018993
s(S'had'
p5241
S'played'
p5242
S'by'
p5243
tp5244
F0.00033921302578018993
s(S'[[adj]]'
p5245
S'appeared'
p5246
S'alongside'
p5247
tp5248
F0.0006784260515603799
s(S'[[det]]'
p5249
S'led'
p5250
S'by'
p5251
tp5252
F0.00033921302578018993
s(S'[[adj]]'
p5253
S'producer'
p5254
S'with'
p5255
tp5256
F0.00033921302578018993
s(S'have'
p5257
S'met'
p5258
S'[[con]]'
p5259
tp5260
F0.00033921302578018993
s(S'in'
p5261
S'alongside'
p5262
S'[[con]]'
p5263
tp5264
F0.00033921302578018993
s(S'has'
p5265
S'worked'
p5266
S'[[con]]'
p5267
tp5268
F0.00033921302578018993
s(S'first'
p5269
S'seen'
p5270
S'in'
p5271
tp5272
F0.00033921302578018993
s(g1579
g1580
S'gt'
p5273
tp5274
F0.00033921302578018993
s(g1209
S'took'
p5275
S'pole'
p5276
tp5277
F0.00033921302578018993
s(S'then'
p5278
S'moved'
p5279
S'as'
p5280
tp5281
F0.00033921302578018993
s(S'[[num]]'
p5282
S'daughter'
p5283
S'[[con]]'
p5284
tp5285
F0.00033921302578018993
s(S'was'
p5286
S'married'
p5287
S'first'
p5288
tp5289
F0.00033921302578018993
s(S'to'
p5290
S'meet'
p5291
S'up'
p5292
tp5293
F0.00033921302578018993
s(S'first'
p5294
S'performed'
p5295
S'in'
p5296
tp5297
F0.00033921302578018993
s(S'since'
p5298
S'appeared'
p5299
S'by'
p5300
tp5301
F0.00033921302578018993
s(S'[[adj]]'
p5302
S'wrote'
p5303
S'to'
p5304
tp5305
F0.00033921302578018993
s(S'where'
p5306
S'met'
p5307
S'with'
p5308
tp5309
F0.00033921302578018993
s(S'then'
p5310
S'married'
p5311
S'to'
p5312
tp5313
F0.00033921302578018993
s(S'married'
p5314
g1839
g1840
tp5315
F0.00033921302578018993
s(S'[[adj]]'
p5316
S'stars'
p5317
S'[[con]]'
p5318
tp5319
F0.00033921302578018993
s(S'ref'
p5320
S'gt'
p5321
S'part'
p5322
tp5323
F0.00033921302578018993
s(S'[[prp]]'
p5324
S'son'
p5325
S'was'
p5326
tp5327
F0.00033921302578018993
s(S'had'
p5328
S'married'
p5329
S'to'
p5330
tp5331
F0.00033921302578018993
s(S'[[prp]]'
p5332
S'marriage'
p5333
S'was'
p5334
tp5335
F0.00033921302578018993
s(S'[[adj]]'
p5336
S'work'
p5337
S'on'
p5338
tp5339
F0.00033921302578018993
s(S'[[prp]]'
p5340
S'mother'
p5341
S'[[con]]'
p5342
tp5343
F0.00033921302578018993
s(S'is'
p5344
S'killed'
p5345
S'at'
p5346
tp5347
F0.00033921302578018993
s(S'[[con]]'
p5348
S'told'
p5349
S'that'
p5350
tp5351
F0.00033921302578018993
s(S'is'
p5352
S'married'
p5353
S'to'
p5354
tp5355
F0.005427408412483039
s(S'married'
p5356
S'[[prp]]'
p5357
S'widow'
p5358
tp5359
F0.00033921302578018993
s(S'to'
p5360
g4258
g3222
tp5361
F0.00033921302578018993
s(S'to'
p5362
S'daughter'
p5363
S'of'
p5364
tp5365
F0.0020352781546811396
s(S'is'
p5366
S'taken'
p5367
S'to'
p5368
tp5369
F0.00033921302578018993
s(S'had'
p5370
S'seen'
p5371
S'[[det]]'
p5372
tp5373
F0.00033921302578018993
s(S'ref'
p5374
S'gt'
p5375
S'appeared'
p5376
tp5377
F0.00033921302578018993
s(S'was'
p5378
S'son'
p5379
S'of'
p5380
tp5381
F0.00033921302578018993
s(S'was'
p5382
S'married'
p5383
S'in'
p5384
tp5385
F0.00033921302578018993
s(S'ref'
p5386
S'gt'
p5387
S'at'
p5388
tp5389
F0.00033921302578018993
s(S'is'
p5390
S'mother'
p5391
S'of'
p5392
tp5393
F0.00033921302578018993
s(S'has'
p5394
S'worked'
p5395
S'under'
p5396
tp5397
F0.00033921302578018993
s(S'[[det]]'
p5398
S'guest'
p5399
S'of'
p5400
tp5401
F0.00033921302578018993
s(g1337
g1338
S'gt'
p5402
tp5403
F0.0023744911804613297
s(S'where'
p5404
S'served'
p5405
S'as'
p5406
tp5407
F0.00033921302578018993
s(S'is'
p5408
S'initially'
p5409
S'[[adj]]'
p5410
tp5411
F0.00033921302578018993
s(S'[[con]]'
p5412
S'played'
p5413
S'[[det]]'
p5414
tp5415
F0.0006784260515603799
s(S'had'
p5416
S'taken'
p5417
S'[[det]]'
p5418
tp5419
F0.00033921302578018993
s(S'later'
p5420
S'married'
p5421
S'[[det]]'
p5422
tp5423
F0.00033921302578018993
s(S'in'
p5424
S'[[prp]]'
p5425
S'wife'
p5426
tp5427
F0.0010176390773405698
s(S'has'
p5428
S'won'
p5429
S'with'
p5430
tp5431
F0.00033921302578018993
s(S'then'
p5432
S'asked'
p5433
S'if'
p5434
tp5435
F0.00033921302578018993
s(S'to'
p5436
S'meet'
p5437
S'[[adj]]'
p5438
tp5439
F0.00033921302578018993
s(g1208
g1209
g5275
tp5440
F0.00033921302578018993
s(S'has'
p5441
S'directed'
p5442
S'with'
p5443
tp5444
F0.00033921302578018993
s(S'[[det]]'
p5445
S'daughter'
p5446
S'[[con]]'
p5447
tp5448
F0.0010176390773405698
s(S'[[adj]]'
p5449
S'directed'
p5450
S'by'
p5451
tp5452
F0.00033921302578018993
s(S'has'
p5453
S'worked'
p5454
S'with'
p5455
tp5456
F0.0006784260515603799
s(S'[[adj]]'
p5457
S'work'
p5458
S'of'
p5459
tp5460
F0.00033921302578018993
s(S'was'
p5461
S'left'
p5462
S'[[adj]]'
p5463
tp5464
F0.00033921302578018993
s(S'is'
p5465
S'asked'
p5466
S'by'
p5467
tp5468
F0.00033921302578018993
s(S'were'
p5469
S'taken'
p5470
S'to'
p5471
tp5472
F0.00033921302578018993
s(S'ref'
p5473
g2370
g2371
tp5474
F0.00033921302578018993
s(S'[[adj]]'
p5475
S'campaign'
p5476
S'[[num]]'
p5477
tp5478
F0.00033921302578018993
s(S'[[num]]'
p5479
S'children'
p5480
S'[[adj]]'
p5481
tp5482
F0.00033921302578018993
s(S'also'
p5483
S'known'
p5484
S'by'
p5485
tp5486
F0.00033921302578018993
s(S'is'
p5487
S'married'
p5488
S'with'
p5489
tp5490
F0.00033921302578018993
s(g1329
g1330
S'to'
p5491
tp5492
F0.0010176390773405698
s(S'have'
p5493
S'taken'
p5494
S'[[prp]]'
p5495
tp5496
F0.00033921302578018993
s(S'also'
p5497
S'known'
p5498
S'[[adj]]'
p5499
tp5500
F0.00033921302578018993
s(S'[[adj]]'
p5501
S'consort'
p5502
S'of'
p5503
tp5504
F0.00033921302578018993
s(S'got'
p5505
g3995
g3996
tp5506
F0.00033921302578018993
s(S'[[prp]]'
p5507
S'husband'
p5508
S'[[con]]'
p5509
tp5510
F0.0006784260515603799
s(S'as'
p5511
S'played'
p5512
S'with'
p5513
tp5514
F0.00033921302578018993
s(S'ref'
p5515
S'gt'
p5516
S'with'
p5517
tp5518
F0.0010176390773405698
s(S'married'
p5519
S'[[det]]'
p5520
S'sister'
p5521
tp5522
F0.00033921302578018993
s(S'[[con]]'
p5523
S'lt'
p5524
S'ref'
p5525
tp5526
F0.0006784260515603799
s(S'found'
p5527
S'work'
p5528
S'as'
p5529
tp5530
F0.00033921302578018993
s(S'survived'
p5531
S'by'
p5532
S'wife'
p5533
tp5534
F0.00033921302578018993
s(S'who'
p5535
S'killed'
p5536
S'[[num]]'
p5537
tp5538
F0.00033921302578018993
s(S'was'
p5539
S'called'
p5540
S'after'
p5541
tp5542
F0.00033921302578018993
s(g1249
g2423
S'wife'
p5543
tp5544
F0.0013568521031207597
s(S'married'
p5545
S'to'
p5546
S'sister'
p5547
tp5548
F0.0010176390773405698
s(S'also'
p5549
S'stated'
p5550
S'that'
p5551
tp5552
F0.00033921302578018993
s(S'later'
p5553
S'played'
p5554
S'[[det]]'
p5555
tp5556
F0.00033921302578018993
s(S'has'
p5557
S'taken'
p5558
S'part'
p5559
tp5560
F0.00033921302578018993
s(S'[[det]]'
p5561
S'sister'
p5562
S'[[num]]'
p5563
tp5564
F0.00033921302578018993
s(S'also'
p5565
S'served'
p5566
S'where'
p5567
tp5568
F0.00033921302578018993
s(S'gt'
p5569
g1574
g1575
tp5570
F0.00033921302578018993
s(S'worked'
p5571
g3532
g3533
tp5572
F0.00033921302578018993
s(S'then'
p5573
S'worked'
p5574
S'under'
p5575
tp5576
F0.00033921302578018993
s(S'best'
p5577
S'known'
p5578
S'among'
p5579
tp5580
F0.00033921302578018993
s(S'[[adj]]'
p5581
S'director'
p5582
S'where'
p5583
tp5584
F0.00033921302578018993
s(S'married'
p5585
S'[[adj]]'
p5586
S'ref'
p5587
tp5588
F0.0006784260515603799
s(S'to'
p5589
S'cast'
p5590
S'as'
p5591
tp5592
F0.00033921302578018993
s(S'also'
p5593
S'led'
p5594
S'[[con]]'
p5595
tp5596
F0.00033921302578018993
s(S'is'
p5597
S'called'
p5598
S'by'
p5599
tp5600
F0.00033921302578018993
s(S'later'
p5601
S'wrote'
p5602
S'of'
p5603
tp5604
F0.00033921302578018993
s(S'to'
p5605
S'[[adj]]'
p5606
S'actor'
p5607
tp5608
F0.00033921302578018993
s(S'was'
p5609
S'engaged'
p5610
S'by'
p5611
tp5612
F0.00033921302578018993
s(S'also'
p5613
S'known'
p5614
S'for'
p5615
tp5616
F0.00033921302578018993
s(S'[[adj]]'
p5617
S'seen'
p5618
S'with'
p5619
tp5620
F0.00033921302578018993
s(S'lives'
p5621
S'with'
p5622
S'[[adj]]'
p5623
tp5624
F0.00033921302578018993
s(S'had'
p5625
S'served'
p5626
S'under'
p5627
tp5628
F0.00033921302578018993
s(S'had'
p5629
S'appeared'
p5630
S'with'
p5631
tp5632
F0.00033921302578018993
s(S'is'
p5633
S'called'
p5634
S'[[con]]'
p5635
tp5636
F0.00033921302578018993
s(S'since'
p5637
S'worked'
p5638
S'[[con]]'
p5639
tp5640
F0.00033921302578018993
s(S'have'
p5641
S'remained'
p5642
S'[[adj]]'
p5643
tp5644
F0.00033921302578018993
s(S'to'
p5645
S'visit'
p5646
S'[[det]]'
p5647
tp5648
F0.00033921302578018993
s(S'later'
p5649
S'served'
p5650
S'under'
p5651
tp5652
F0.00033921302578018993
s(S'to'
p5653
S'[[det]]'
p5654
S'son'
p5655
tp5656
F0.0010176390773405698
s(S'be'
p5657
S'seen'
p5658
S'to'
p5659
tp5660
F0.00033921302578018993
s(S'then'
p5661
S'met'
p5662
S'with'
p5663
tp5664
F0.00033921302578018993
s(S'also'
p5665
S'costarred'
p5666
S'with'
p5667
tp5668
F0.00033921302578018993
s(S'had'
p5669
S'left'
p5670
S'to'
p5671
tp5672
F0.00033921302578018993
s(S'was'
p5673
S'buried'
p5674
S'near'
p5675
tp5676
F0.00033921302578018993
s(S'be'
p5677
S'known'
p5678
S'that'
p5679
tp5680
F0.00033921302578018993
s(S'also'
p5681
S'wrote'
p5682
S'that'
p5683
tp5684
F0.00033921302578018993
s(S'[[det]]'
p5685
S'sister'
p5686
S'of'
p5687
tp5688
F0.0013568521031207597
s(S'also'
p5689
S'played'
p5690
S'[[adj]]'
p5691
tp5692
F0.00033921302578018993
s(S'to'
p5693
S'tell'
p5694
S'that'
p5695
tp5696
F0.00033921302578018993
s(S'had'
p5697
S'met'
p5698
S'through'
p5699
tp5700
F0.00033921302578018993
s(S'has'
p5701
S'worked'
p5702
S'until'
p5703
tp5704
F0.00033921302578018993
s(g5087
g5088
S'producer'
p5705
tp5706
F0.00033921302578018993
s(g762
g763
S'lt'
p5707
tp5708
F0.00033921302578018993
s(S'[[adj]]'
p5709
S'time'
p5710
S'behind'
p5711
tp5712
F0.00033921302578018993
s(S'then'
p5713
S'served'
p5714
S'[[num]]'
p5715
tp5716
F0.00033921302578018993
s(S'[[num]]'
p5717
S'served'
p5718
S'on'
p5719
tp5720
F0.00033921302578018993
s(S'[[prp]]'
p5721
S'son'
p5722
S'by'
p5723
tp5724
F0.00033921302578018993
s(S'[[adj]]'
p5725
S'served'
p5726
S'for'
p5727
tp5728
F0.00033921302578018993
s(S'[[det]]'
p5729
S'daughter'
p5730
S'[[det]]'
p5731
tp5732
F0.0006784260515603799
s(S'married'
p5733
S'sister'
p5734
S'of'
p5735
tp5736
F0.0006784260515603799
s(g1914
g3721
g2350
tp5737
F0.00033921302578018993
s(S'was'
p5738
S'cast'
p5739
S'by'
p5740
tp5741
F0.00033921302578018993
s(S'then'
p5742
S'served'
p5743
S'under'
p5744
tp5745
F0.00033921302578018993
s(S'had'
p5746
S'worked'
p5747
S'to'
p5748
tp5749
F0.00033921302578018993
s(S'married'
p5750
S'[[prp]]'
p5751
S'cousin'
p5752
tp5753
F0.0006784260515603799
s(S'also'
p5754
S'stars'
p5755
S'as'
p5756
tp5757
F0.00033921302578018993
s(g3122
g3123
S'gt'
p5758
tp5759
F0.0006784260515603799
s(S'also'
p5760
S'known'
p5761
S'of'
p5762
tp5763
F0.00033921302578018993
s(g5119
g5120
S'married'
p5764
tp5765
F0.00033921302578018993
s(S'was'
p5766
S'moved'
p5767
S'back'
p5768
tp5769
F0.00033921302578018993
s(S'gt'
p5770
S'lt'
p5771
S'[[num]]'
p5772
tp5773
F0.00033921302578018993
s(S'[[mod]]'
p5774
S'meet'
p5775
S'[[adj]]'
p5776
tp5777
F0.00033921302578018993
s(S'ref'
p5778
S'gt'
p5779
S'died'
p5780
tp5781
F0.0013568521031207597
s(S'born'
p5782
S'in'
p5783
S'lt'
p5784
tp5785
F0.00033921302578018993
s(S'[[num]]'
p5786
S'son'
p5787
S'by'
p5788
tp5789
F0.00033921302578018993
s(S'had'
p5790
S'left'
p5791
S'by'
p5792
tp5793
F0.00033921302578018993
s(S'had'
p5794
S'told'
p5795
S'that'
p5796
tp5797
F0.00033921302578018993
s(S'is'
p5798
S'called'
p5799
S'in'
p5800
tp5801
F0.00033921302578018993
s(g81
S'mistress'
p5802
S'[[con]]'
p5803
tp5804
F0.00033921302578018993
s(S'was'
p5805
S'cast'
p5806
S'[[con]]'
p5807
tp5808
F0.00033921302578018993
s(g2248
g2057
g2058
tp5809
F0.00033921302578018993
s(g492
g493
S'ref'
p5810
tp5811
F0.0006784260515603799
s(S'[[adj]]'
p5812
S'children'
p5813
S'with'
p5814
tp5815
F0.00033921302578018993
s(S'is'
p5816
S'known'
p5817
S'as'
p5818
tp5819
F0.00033921302578018993
s(S'was'
p5820
S'asked'
p5821
S'about'
p5822
tp5823
F0.00033921302578018993
s(S'which'
p5824
S'wrote'
p5825
S'with'
p5826
tp5827
F0.00033921302578018993
s(S'once'
p5828
S'wrote'
p5829
S'that'
p5830
tp5831
F0.00033921302578018993
s(S'in'
p5832
S'lt'
p5833
S'ref'
p5834
tp5835
F0.0020352781546811396
s(S'[[num]]'
p5836
S'times'
p5837
S'[[num]]'
p5838
tp5839
F0.0006784260515603799
s(S'[[con]]'
p5840
S'starred'
p5841
S'as'
p5842
tp5843
F0.00033921302578018993
s(S'when'
p5844
S'took'
p5845
S'over'
p5846
tp5847
F0.00033921302578018993
s(S'is'
p5848
S'son'
p5849
S'of'
p5850
tp5851
F0.00033921302578018993
s(S'has'
p5852
S'moved'
p5853
S'as'
p5854
tp5855
F0.00033921302578018993
s(S'not'
p5856
S'known'
p5857
S'when'
p5858
tp5859
F0.00033921302578018993
s(S'[[prp]]'
p5860
S'daughter'
p5861
S'was'
p5862
tp5863
F0.00033921302578018993
s(S'[[num]]'
p5864
S'lt'
p5865
S'[[num]]'
p5866
tp5867
F0.0047489823609226595
s(S'ref'
p5868
g3202
g3203
tp5869
F0.00033921302578018993
s(S'been'
p5870
S'married'
p5871
S'to'
p5872
tp5873
F0.0013568521031207597
s(S'ref'
p5874
S'gt'
p5875
g1081
tp5876
F0.00033921302578018993
s(S'currently'
p5877
g1699
g1700
tp5878
F0.00033921302578018993
s(S'as'
p5879
S'stated'
p5880
S'by'
p5881
tp5882
F0.00033921302578018993
s(S'been'
p5883
S'engaged'
p5884
S'to'
p5885
tp5886
F0.00033921302578018993
s(S'[[adj]]'
p5887
S'companion'
p5888
S'of'
p5889
tp5890
F0.00033921302578018993
s(S'to'
p5891
S'meet'
p5892
S'with'
p5893
tp5894
F0.00033921302578018993
s(S'where'
p5895
S'met'
p5896
S'[[prp]]'
p5897
tp5898
F0.00033921302578018993
s(g81
S'children'
p5899
S'with'
p5900
tp5901
F0.00033921302578018993
s(S'gave'
p5902
S'birth'
p5903
S'[[con]]'
p5904
tp5905
F0.00033921302578018993
s(S'[[prp]]'
p5906
S'relationship'
p5907
S'with'
p5908
tp5909
F0.0006784260515603799
s(S'who'
p5910
S'led'
p5911
S'for'
p5912
tp5913
F0.00033921302578018993
s(S'is'
p5914
S'stated'
p5915
S'by'
p5916
tp5917
F0.00033921302578018993
s(S'by'
p5918
S'[[adj]]'
p5919
S'wife'
p5920
tp5921
F0.00033921302578018993
s(g81
S'wife'
p5922
S'as'
p5923
tp5924
F0.00033921302578018993
s(S'also'
p5925
S'performed'
p5926
S'by'
p5927
tp5928
F0.00033921302578018993
s(S'has'
p5929
S'served'
p5930
S'[[con]]'
p5931
tp5932
F0.00033921302578018993
s(S'ref'
p5933
g1927
g1928
tp5934
F0.00033921302578018993
s(S'then'
p5935
S'cast'
p5936
S'as'
p5937
tp5938
F0.00033921302578018993
s(S'[[num]]'
p5939
S'wives'
p5940
S'[[con]]'
p5941
tp5942
F0.00033921302578018993
s(S'been'
p5943
S'played'
p5944
S'by'
p5945
tp5946
F0.00033921302578018993
s(S'[[det]]'
p5947
S'affair'
p5948
S'with'
p5949
tp5950
F0.00033921302578018993
s(S'[[num]]'
p5951
S'brothers'
p5952
S'[[con]]'
p5953
tp5954
F0.00033921302578018993
s(g3721
g2350
g2351
tp5955
F0.00033921302578018993
s(S'was'
p5956
g5531
g5532
tp5957
F0.0013568521031207597
s(S'[[con]]'
p5958
S'met'
p5959
S'[[adj]]'
p5960
tp5961
F0.00033921302578018993
s(S'then'
p5962
S'tells'
p5963
S'that'
p5964
tp5965
F0.00033921302578018993
s(g81
S'widow'
p5966
S'[[con]]'
p5967
tp5968
F0.00033921302578018993
s(S'also'
p5969
S'called'
p5970
S'[[adj]]'
p5971
tp5972
F0.00033921302578018993
s(S'there'
p5973
S'[[prp]]'
p5974
S'wife'
p5975
tp5976
F0.00033921302578018993
s(S'[[adj]]'
p5977
S'cousin'
p5978
S'of'
p5979
tp5980
F0.00033921302578018993
s(S'has'
p5981
S'performed'
p5982
S'to'
p5983
tp5984
F0.00033921302578018993
s(g22
g23
S'[[num]]'
p5985
tp5986
F0.00033921302578018993
s(S'later'
p5987
S'worked'
p5988
S'as'
p5989
tp5990
F0.00033921302578018993
s(S'again'
p5991
S'worked'
p5992
S'with'
p5993
tp5994
F0.00033921302578018993
s(g1989
g1990
g5212
tp5995
F0.00033921302578018993
s(S'[[prp]]'
p5996
S'work'
p5997
S'on'
p5998
tp5999
F0.00033921302578018993
s(S'began'
p6000
g5947
g5948
tp6001
F0.00033921302578018993
s(S'was'
p6002
S'known'
p6003
S'especially'
p6004
tp6005
F0.00033921302578018993
s(S'[[adj]]'
p6006
S'mistress'
p6007
S'of'
p6008
tp6009
F0.00033921302578018993
s(S'also'
p6010
S'known'
p6011
S'to'
p6012
tp6013
F0.00033921302578018993
s(S'also'
p6014
S'performed'
p6015
S'together'
p6016
tp6017
F0.00033921302578018993
s(g2394
g2395
S'actress'
p6018
tp6019
F0.0006784260515603799
s(S'first'
p6020
S'daughter'
p6021
S'of'
p6022
tp6023
F0.00033921302578018993
s(S'[[adj]]'
p6024
g1727
g1728
tp6025
F0.018995929443690638
s(S'have'
p6026
S'won'
p6027
S'more'
p6028
tp6029
F0.00033921302578018993
s(S'also'
p6030
S'won'
p6031
S'by'
p6032
tp6033
F0.00033921302578018993
s(S'[[adj]]'
p6034
S'son'
p6035
S'in'
p6036
tp6037
F0.00033921302578018993
s(S'studied'
p6038
g5832
g5833
tp6039
F0.00033921302578018993
s(S'[[prp]]'
p6040
S'work'
p6041
S'as'
p6042
tp6043
F0.00033921302578018993
s(S'[[adj]]'
p6044
S'stars'
p6045
S'in'
p6046
tp6047
F0.00033921302578018993
s(S'has'
p6048
S'served'
p6049
S'under'
p6050
tp6051
F0.00033921302578018993
s(S'[[adj]]'
p6052
g4756
g4757
tp6053
F0.00033921302578018993
s(S'also'
p6054
S'won'
p6055
S'as'
p6056
tp6057
F0.00033921302578018993
s(S'[[prp]]'
p6058
S'cousin'
p6059
S'[[con]]'
p6060
tp6061
F0.00033921302578018993
s(S'ref'
p6062
S'gt'
p6063
S'for'
p6064
tp6065
F0.00033921302578018993
s(S'was'
p6066
S'taken'
p6067
S'on'
p6068
tp6069
F0.00033921302578018993
s(S'met'
p6070
g4938
g4939
tp6071
F0.0013568521031207597
s(S'best'
p6072
S'known'
p6073
S'that'
p6074
tp6075
F0.00033921302578018993
s(g4497
g4498
S'[[pro]]'
p6076
tp6077
F0.00033921302578018993
s(S'also'
p6078
S'known'
p6079
S'was'
p6080
tp6081
F0.00033921302578018993
s(S'was'
p6082
S'director'
p6083
S'[[con]]'
p6084
tp6085
F0.00033921302578018993
s(S'later'
p6086
S'performed'
p6087
S'with'
p6088
tp6089
F0.00033921302578018993
s(S'[[det]]'
p6090
S'time'
p6091
S'on'
p6092
tp6093
F0.00033921302578018993
s(S'were'
p6094
S'killed'
p6095
S'by'
p6096
tp6097
F0.00033921302578018993
s(S'later'
p6098
S'married'
p6099
S'to'
p6100
tp6101
F0.00033921302578018993
s(S'were'
p6102
S'known'
p6103
S'as'
p6104
tp6105
F0.00033921302578018993
s(g1081
S'lt'
p6106
S'ref'
p6107
tp6108
F0.0016960651289009499
s(g81
S'son'
p6109
S'as'
p6110
tp6111
F0.00033921302578018993
s(S'[[con]]'
p6112
S'[[num]]'
p6113
S'son'
p6114
tp6115
F0.0010176390773405698
s(g834
g835
S'by'
p6116
tp6117
F0.00033921302578018993
s(S'[[prp]]'
p6118
S'work'
p6119
S'[[con]]'
p6120
tp6121
F0.00033921302578018993
s(S'[[con]]'
p6122
S'directed'
p6123
S'by'
p6124
tp6125
F0.00033921302578018993
s(g2029
g2030
S'lt'
p6126
tp6127
F0.00033921302578018993
s(S'sometimes'
p6128
S'called'
p6129
S'[[det]]'
p6130
tp6131
F0.00033921302578018993
s(S'[[pro]]'
p6132
S'son'
p6133
S'as'
p6134
tp6135
F0.00033921302578018993
s(S'which'
p6136
S'wrote'
p6137
S'that'
p6138
tp6139
F0.00033921302578018993
s(g5022
g5023
S'lt'
p6140
tp6141
F0.00033921302578018993
s(S'now'
p6142
S'married'
p6143
S'to'
p6144
tp6145
F0.00033921302578018993
s(S'was'
p6146
S'married'
p6147
S'[[num]]'
p6148
tp6149
F0.0013568521031207597
s(g2669
g2670
g5190
tp6150
F0.008819538670284939
s(S'was'
p6151
S'killed'
p6152
S'while'
p6153
tp6154
F0.00033921302578018993
s(S'is'
p6155
S'known'
p6156
S'to'
p6157
tp6158
F0.00033921302578018993
s(g1372
g1373
S'married'
p6159
tp6160
F0.00033921302578018993
s(S'appeared'
p6161
S'alongside'
p6162
S'[[det]]'
p6163
tp6164
F0.00033921302578018993
s(S'[[det]]'
p6165
S'death'
p6166
S'[[con]]'
p6167
tp6168
F0.00033921302578018993
s(S'[[adj]]'
p6169
S'children'
p6170
S'[[con]]'
p6171
tp6172
F0.00033921302578018993
s(g1756
g1757
S'ref'
p6173
tp6174
F0.00033921302578018993
s(S'appeared'
p6175
g5261
g5262
tp6176
F0.0006784260515603799
s(S'[[con]]'
p6177
S'gave'
p6178
S'to'
p6179
tp6180
F0.00033921302578018993
s(S'[[con]]'
p6181
S'wrote'
p6182
S'[[det]]'
p6183
tp6184
F0.00033921302578018993
s(g648
g649
g4646
tp6185
F0.00033921302578018993
s(S'[[con]]'
p6186
S'worked'
p6187
S'mainly'
p6188
tp6189
F0.00033921302578018993
s(S'to'
p6190
S'know'
p6191
S'where'
p6192
tp6193
F0.00033921302578018993
s(S'is'
p6194
S'engaged'
p6195
S'to'
p6196
tp6197
F0.00033921302578018993
s(S'was'
p6198
S'called'
p6199
S'by'
p6200
tp6201
F0.00033921302578018993
s(S'ref'
p6202
S'gt'
p6203
S'that'
p6204
tp6205
F0.00033921302578018993
s(S'[[num]]'
p6206
S'performed'
p6207
S'with'
p6208
tp6209
F0.00033921302578018993
s(S'ref'
p6210
S'gt'
p6211
S'married'
p6212
tp6213
F0.0006784260515603799
s(S'gt'
p6214
S'[[adj]]'
p6215
S'gt'
p6216
tp6217
F0.00033921302578018993
s(g3801
g905
g906
tp6218
F0.00033921302578018993
s(S'also'
p6219
S'served'
p6220
S'twice'
p6221
tp6222
F0.00033921302578018993
s(g5622
g5623
S'wife'
p6223
tp6224
F0.0006784260515603799
s(S'[[adj]]'
p6225
S'wife'
p6226
S'to'
p6227
tp6228
F0.00033921302578018993
s(S'was'
p6229
S'engaged'
p6230
S'as'
p6231
tp6232
F0.00033921302578018993
s(S'when'
p6233
S'appeared'
p6234
S'in'
p6235
tp6236
F0.00033921302578018993
s(S'is'
p6237
S'taken'
p6238
S'from'
p6239
tp6240
F0.00033921302578018993
s(S'[[adj]]'
p6241
S'brothers'
p6242
S'[[num]]'
p6243
tp6244
F0.00033921302578018993
s(S'[[adj]]'
p6245
S'appeared'
p6246
S'with'
p6247
tp6248
F0.00033921302578018993
s(g81
S'death'
p6249
S'in'
p6250
tp6251
F0.00033921302578018993
s(g5686
g5687
S'who'
p6252
tp6253
F0.00033921302578018993
s(S'[[pro]]'
p6254
S'death'
p6255
S'[[con]]'
p6256
tp6257
F0.00033921302578018993
s(S'also'
p6258
S'worked'
p6259
S'as'
p6260
tp6261
F0.00033921302578018993
s(S'[[prp]]'
p6262
S'marriage'
p6263
S'to'
p6264
tp6265
F0.00033921302578018993
s(S'currently'
p6266
S'resides'
p6267
S'with'
p6268
tp6269
F0.00033921302578018993
s(S'[[adj]]'
p6270
S'sister'
p6271
S'[[con]]'
p6272
tp6273
F0.00033921302578018993
s(S'[[prp]]'
p6274
S'work'
p6275
S'in'
p6276
tp6277
F0.00033921302578018993
s(S'[[det]]'
p6278
S'appearance'
p6279
S'[[con]]'
p6280
tp6281
F0.00033921302578018993
s(S'married'
p6282
S'[[det]]'
p6283
S'widow'
p6284
tp6285
F0.0006784260515603799
s(S'gt'
p6286
S'[[det]]'
p6287
S'copy'
p6288
tp6289
F0.00033921302578018993
s(S'which'
p6290
S'appeared'
p6291
S'[[adj]]'
p6292
tp6293
F0.00033921302578018993
s(S'of'
p6294
S'directed'
p6295
S'by'
p6296
tp6297
F0.00033921302578018993
s(S'be'
p6298
S'cast'
p6299
S'as'
p6300
tp6301
F0.00033921302578018993
s(S'married'
p6302
S'de'
p6303
S'daughter'
p6304
tp6305
F0.0010176390773405698
s(g81
S'son'
p6306
S'[[det]]'
p6307
tp6308
F0.00033921302578018993
s(S'[[num]]'
p6309
S'page'
p6310
S'[[num]]'
p6311
tp6312
F0.0006784260515603799
s(S'[[det]]'
p6313
S'mistress'
p6314
S'of'
p6315
tp6316
F0.00033921302578018993
s(S'was'
p6317
S'killed'
p6318
S'along'
p6319
tp6320
F0.00033921302578018993
s(S'[[adj]]'
p6321
S'child'
p6322
S'to'
p6323
tp6324
F0.00033921302578018993
s(S'[[adj]]'
p6325
S'world'
p6326
S'champion'
p6327
tp6328
F0.00033921302578018993
s(S'[[det]]'
p6329
S'lt'
p6330
S'[[num]]'
p6331
tp6332
F0.00033921302578018993
s(S'[[det]]'
p6333
S'son'
p6334
S'later'
p6335
tp6336
F0.00033921302578018993
s(S'lived'
p6337
S'with'
p6338
S'[[prp]]'
p6339
tp6340
F0.0006784260515603799
s(S'[[con]]'
p6341
S'starred'
p6342
S'with'
p6343
tp6344
F0.00033921302578018993
s(S'also'
p6345
S'asked'
p6346
S'by'
p6347
tp6348
F0.00033921302578018993
s(S'had'
p6349
S'met'
p6350
S'[[det]]'
p6351
tp6352
F0.00033921302578018993
s(S'[[num]]'
p6353
S'children'
p6354
S'from'
p6355
tp6356
F0.00033921302578018993
s(S'[[det]]'
p6357
S'relationship'
p6358
S'[[con]]'
p6359
tp6360
F0.00033921302578018993
s(S'had'
p6361
S'developed'
p6362
S'[[det]]'
p6363
tp6364
F0.00033921302578018993
s(S'formerly'
p6365
S'worked'
p6366
S'as'
p6367
tp6368
F0.00033921302578018993
s(S'was'
p6369
S'known'
p6370
S'[[con]]'
p6371
tp6372
F0.00033921302578018993
s(g81
S'life'
p6373
S'of'
p6374
tp6375
F0.00033921302578018993
s(g6267
g6268
S'[[prp]]'
p6376
tp6377
F0.0006784260515603799
s(S'as'
p6378
S'seen'
p6379
S'when'
p6380
tp6381
F0.00033921302578018993
s(S'also'
p6382
S'performed'
p6383
S'for'
p6384
tp6385
F0.00033921302578018993
s(S'also'
p6386
S'married'
p6387
S'to'
p6388
tp6389
F0.00033921302578018993
s(S'not'
p6390
S'known'
p6391
S'as'
p6392
tp6393
F0.00033921302578018993
s(S'son'
p6394
S'was'
p6395
S'married'
p6396
tp6397
F0.00033921302578018993
s(S'married'
p6398
g2617
g2618
tp6399
F0.00033921302578018993
s(S'then'
p6400
S'known'
p6401
S'as'
p6402
tp6403
F0.00033921302578018993
s(S'received'
p6404
g1912
g1913
tp6405
F0.00033921302578018993
s(S'to'
p6406
S'remove'
p6407
S'[[con]]'
p6408
tp6409
F0.00033921302578018993
s(S'[[adj]]'
p6410
S'director'
p6411
S'for'
p6412
tp6413
F0.00033921302578018993
s(S'where'
p6414
S'served'
p6415
S'to'
p6416
tp6417
F0.00033921302578018993
s(S'already'
p6418
S'played'
p6419
S'with'
p6420
tp6421
F0.00033921302578018993
s(S'is'
p6422
S'seen'
p6423
S'[[adj]]'
p6424
tp6425
F0.00033921302578018993
s(S'[[adj]]'
p6426
S'daughter'
p6427
S'[[con]]'
p6428
tp6429
F0.00033921302578018993
s(S'[[det]]'
p6430
S'marriage'
p6431
S'to'
p6432
tp6433
F0.00033921302578018993
s(S'then'
p6434
S'starred'
p6435
S'with'
p6436
tp6437
F0.00033921302578018993
s(g378
g379
S'by'
p6438
tp6439
F0.00033921302578018993
s(S'married'
p6440
g1509
g1510
tp6441
F0.0013568521031207597
s(S'with'
p6442
S'[[det]]'
p6443
S'son'
p6444
tp6445
F0.00033921302578018993
s(S'also'
p6446
S'played'
p6447
S'along'
p6448
tp6449
F0.00033921302578018993
s(S'been'
p6450
S'seen'
p6451
S'with'
p6452
tp6453
F0.00033921302578018993
s(g81
S'sister'
p6454
S'who'
p6455
tp6456
F0.00033921302578018993
s(g4640
g885
g886
tp6457
F0.00033921302578018993
s(S'[[det]]'
p6458
S'daughter'
p6459
S'by'
p6460
tp6461
F0.00033921302578018993
s(S'also'
p6462
S'took'
p6463
S'over'
p6464
tp6465
F0.00033921302578018993
s(S'[[prp]]'
p6466
S'[[adj]]'
p6467
S'cousin'
p6468
tp6469
F0.0006784260515603799
s(S'[[prp]]'
p6470
S'brothers'
p6471
S'[[con]]'
p6472
tp6473
F0.00033921302578018993
s(S'[[adj]]'
p6474
S'campaign'
p6475
S'for'
p6476
tp6477
F0.00033921302578018993
s(S'had'
p6478
S'lived'
p6479
S'[[adj]]'
p6480
tp6481
F0.00033921302578018993
s(g6310
g6311
S'[[adj]]'
p6482
tp6483
F0.0010176390773405698
s(g81
S'time'
p6484
S'as'
p6485
tp6486
F0.00033921302578018993
s(S'then'
p6487
S'played'
p6488
S'under'
p6489
tp6490
F0.00033921302578018993
s(S'then'
p6491
S'played'
p6492
S'[[adj]]'
p6493
tp6494
F0.00033921302578018993
s(S'[[mod]]'
p6495
S'tell'
p6496
S'[[pro]]'
p6497
tp6498
F0.00033921302578018993
s(S'[[mod]]'
p6499
S'work'
p6500
S'with'
p6501
tp6502
F0.00033921302578018993
s(S'[[mod]]'
p6503
S'meet'
p6504
S'with'
p6505
tp6506
F0.00033921302578018993
s(g1124
g1125
S'[[mod]]'
p6507
tp6508
F0.00033921302578018993
s(S'[[adj]]'
p6509
S'time'
p6510
S'[[adj]]'
p6511
tp6512
F0.00033921302578018993
s(g3777
g3778
S'ref'
p6513
tp6514
F0.00033921302578018993
s(S'was'
p6515
S'known'
p6516
S'as'
p6517
tp6518
F0.00033921302578018993
s(S'son'
p6519
S'[[con]]'
p6520
S'son'
p6521
tp6522
F0.00033921302578018993
s(S'[[det]]'
p6523
S'appearance'
p6524
S'of'
p6525
tp6526
F0.00033921302578018993
s(S'is'
p6527
S'known'
p6528
S'although'
p6529
tp6530
F0.00033921302578018993
s(S'[[prp]]'
p6531
S'daughter'
p6532
S'[[det]]'
p6533
tp6534
F0.00033921302578018993
s(S'become'
p6535
S'known'
p6536
S'to'
p6537
tp6538
F0.00033921302578018993
s(S'[[adj]]'
p6539
S'history'
p6540
g3788
tp6541
F0.00033921302578018993
s(S'met'
p6542
S'[[adj]]'
p6543
S'husband'
p6544
tp6545
F0.00033921302578018993
s(S'[[det]]'
p6546
S'cousin'
p6547
S'to'
p6548
tp6549
F0.00033921302578018993
s(g2750
S'gt'
p6550
S'by'
p6551
tp6552
F0.0010176390773405698
s(g3494
g3495
g5175
tp6553
F0.00033921302578018993
s(g1936
g1937
S'block'
p6554
tp6555
F0.00033921302578018993
s(S'been'
p6556
S'called'
p6557
S'[[det]]'
p6558
tp6559
F0.00033921302578018993
s(S'[[mod]]'
p6560
S'meet'
p6561
S'up'
p6562
tp6563
F0.00033921302578018993
s(S'also'
p6564
S'worked'
p6565
S'to'
p6566
tp6567
F0.00033921302578018993
s(g2794
g2795
g1473
tp6568
F0.00033921302578018993
s(S'[[con]]'
p6569
S'appeared'
p6570
S'as'
p6571
tp6572
F0.00033921302578018993
s(S'took'
p6573
S'[[det]]'
p6574
S'lead'
p6575
tp6576
F0.0020352781546811396
s(S'married'
p6577
S'[[adj]]'
p6578
S'daughter'
p6579
tp6580
F0.00033921302578018993
s(S'have'
p6581
S'remained'
p6582
S'with'
p6583
tp6584
F0.00033921302578018993
s(S'[[det]]'
p6585
S'marriage'
p6586
S'of'
p6587
tp6588
F0.00033921302578018993
s(S'ref'
p6589
S'gt'
p6590
S'pp'
p6591
tp6592
F0.00033921302578018993
s(S'[[adj]]'
p6593
S'son'
p6594
S'[[con]]'
p6595
tp6596
F0.00033921302578018993
s(S'[[adj]]'
p6597
S'son'
p6598
S'later'
p6599
tp6600
F0.00033921302578018993
s(S'twice'
p6601
S'appeared'
p6602
S'in'
p6603
tp6604
F0.00033921302578018993
s(S'also'
p6605
S'known'
p6606
S'[[num]]'
p6607
tp6608
F0.00033921302578018993
s(g81
S'lt'
p6609
S'ref'
p6610
tp6611
F0.0013568521031207597
s(S'gt'
p6612
g4279
g4280
tp6613
F0.0006784260515603799
s(g81
S'wife'
p6614
S'in'
p6615
tp6616
F0.00033921302578018993
s(g3569
g3570
S'daughter'
p6617
tp6618
F0.00033921302578018993
s(S'[[pro]]'
p6619
S'wrote'
p6620
S'to'
p6621
tp6622
F0.00033921302578018993
s(S'best'
p6623
S'known'
p6624
S'[[con]]'
p6625
tp6626
F0.00033921302578018993
s(S'[[adj]]'
p6627
S'called'
p6628
S'with'
p6629
tp6630
F0.00033921302578018993
s(S'often'
p6631
S'appeared'
p6632
S'on'
p6633
tp6634
F0.00033921302578018993
s(S'[[det]]'
p6635
S'directed'
p6636
S'by'
p6637
tp6638
F0.00033921302578018993
s(g81
S'son'
p6639
S'by'
p6640
tp6641
F0.00033921302578018993
s(S'[[det]]'
p6642
S'work'
p6643
S'[[adj]]'
p6644
tp6645
F0.00033921302578018993
s(S'[[det]]'
p6646
S'time'
p6647
S'[[det]]'
p6648
tp6649
F0.00033921302578018993
s(g81
S'sons'
p6650
S'[[num]]'
p6651
tp6652
F0.00033921302578018993
s(S'daughter'
p6653
S'who'
p6654
S'married'
p6655
tp6656
F0.0010176390773405698
s(S'be'
p6657
S'married'
p6658
S'to'
p6659
tp6660
F0.00033921302578018993
s(S'to'
p6661
S'[[det]]'
p6662
S'actor'
p6663
tp6664
F0.0006784260515603799
s(S'survived'
p6665
g5918
g5919
tp6666
F0.00033921302578018993
s(S'left'
p6667
S'with'
p6668
S'[[prp]]'
p6669
tp6670
F0.00033921302578018993
s(S'[[det]]'
p6671
S'time'
p6672
S'for'
p6673
tp6674
F0.00033921302578018993
s(g3098
g3099
S'gt'
p6675
tp6676
F0.0020352781546811396
s(S'[[num]]'
p6677
g4521
g4522
tp6678
F0.00033921302578018993
s(g81
S'sister'
p6679
S'[[det]]'
p6680
tp6681
F0.00033921302578018993
s(g3870
g3871
g5360
tp6682
F0.00033921302578018993
s(S'[[num]]'
p6683
S'children'
p6684
S'[[det]]'
p6685
tp6686
F0.00033921302578018993
s(S'currently'
p6687
S'lives'
p6688
S'in'
p6689
tp6690
F0.0006784260515603799
s(g3871
g5360
g4258
tp6691
F0.00033921302578018993
s(S'[[adj]]'
p6692
g468
g469
tp6693
F0.00033921302578018993
s(S'married'
p6694
g2004
g2005
tp6695
F0.00033921302578018993
s(S'[[prp]]'
p6696
S'life'
p6697
S'[[adj]]'
p6698
tp6699
F0.00033921302578018993
s(S'[[adj]]'
p6700
S'marriage'
p6701
S'with'
p6702
tp6703
F0.00033921302578018993
s(S'then'
p6704
S'worked'
p6705
S'with'
p6706
tp6707
F0.00033921302578018993
s(S'pp'
p6708
S'[[num]]'
p6709
S'[[adj]]'
p6710
tp6711
F0.0006784260515603799
s(S'then'
p6712
S'gave'
p6713
S'to'
p6714
tp6715
F0.00033921302578018993
s(S'[[adj]]'
p6716
S'played'
p6717
S'by'
p6718
tp6719
F0.00033921302578018993
s(g886
g887
g1255
tp6720
F0.00033921302578018993
s(S'[[con]]'
p6721
S'served'
p6722
S'where'
p6723
tp6724
F0.00033921302578018993
s(S'[[pro]]'
p6725
S'relationship'
p6726
S'with'
p6727
tp6728
F0.00033921302578018993
s(S'was'
p6729
S'buried'
p6730
S'with'
p6731
tp6732
F0.00033921302578018993
s(S'was'
p6733
S'married'
p6734
S'to'
p6735
tp6736
F0.009497964721845319
s(g81
S'death'
p6737
S'by'
p6738
tp6739
F0.00033921302578018993
s(S'[[det]]'
p6740
S'child'
p6741
S'with'
p6742
tp6743
F0.00033921302578018993
s(S'been'
p6744
S'known'
p6745
S'as'
p6746
tp6747
F0.00033921302578018993
s(S'being'
p6748
S'killed'
p6749
S'by'
p6750
tp6751
F0.00033921302578018993
s(g6540
g3788
g3789
tp6752
F0.00033921302578018993
s(S'has'
p6753
S'served'
p6754
S'by'
p6755
tp6756
F0.00033921302578018993
s(S'was'
p6757
S'cast'
p6758
S'as'
p6759
tp6760
F0.00033921302578018993
s(S'[[num]]'
p6761
S'campaign'
p6762
S'for'
p6763
tp6764
F0.00033921302578018993
s(S'more'
p6765
S'time'
p6766
S'with'
p6767
tp6768
F0.00033921302578018993
s(S'only'
p6769
S'son'
p6770
S'of'
p6771
tp6772
F0.00033921302578018993
s(S'[[adj]]'
p6773
S'brothers'
p6774
S'[[det]]'
p6775
tp6776
F0.00033921302578018993
s(S'to'
p6777
S'marry'
p6778
S'[[det]]'
p6779
tp6780
F0.00033921302578018993
s(S'to'
p6781
S'dominate'
p6782
S'[[det]]'
p6783
tp6784
F0.00033921302578018993
s(S'be'
p6785
S'seen'
p6786
S'with'
p6787
tp6788
F0.00033921302578018993
s(g4304
g4305
S'over'
p6789
tp6790
F0.00033921302578018993
s(S'also'
p6791
S'worked'
p6792
S'where'
p6793
tp6794
F0.00033921302578018993
s(S'then'
p6795
S'performed'
p6796
S'[[det]]'
p6797
tp6798
F0.00033921302578018993
s(S'also'
p6799
S'gave'
p6800
S'[[adj]]'
p6801
tp6802
F0.00033921302578018993
s(S'starred'
p6803
S'alongside'
p6804
S'[[con]]'
p6805
tp6806
F0.0010176390773405698
s(g81
S'directed'
p6807
S'by'
p6808
tp6809
F0.00033921302578018993
s(g81
S'daughter'
p6810
S'[[det]]'
p6811
tp6812
F0.00033921302578018993
s(S'[[con]]'
p6813
S'tells'
p6814
S'[[prp]]'
p6815
tp6816
F0.00033921302578018993
s(S'well'
p6817
S'known'
p6818
S'especially'
p6819
tp6820
F0.00033921302578018993
s(S'was'
p6821
g5782
g5783
tp6822
F0.00033921302578018993
s(g81
S'son'
p6823
S'[[adj]]'
p6824
tp6825
F0.00033921302578018993
s(g1255
g1256
g3521
tp6826
F0.00033921302578018993
s(S'what'
p6827
S'called'
p6828
S'[[det]]'
p6829
tp6830
F0.00033921302578018993
s(S'is'
p6831
S'known'
p6832
S'though'
p6833
tp6834
F0.00033921302578018993
s(S'[[det]]'
p6835
S'producer'
p6836
S'with'
p6837
tp6838
F0.00033921302578018993
s(S'pages'
p6839
S'[[num]]'
p6840
S'[[adj]]'
p6841
tp6842
F0.00033921302578018993
s(S'was'
p6843
S'declared'
p6844
S'[[det]]'
p6845
tp6846
F0.00033921302578018993
s(S'[[con]]'
p6847
S'killed'
p6848
S'[[det]]'
p6849
tp6850
F0.00033921302578018993
s(S'best'
p6851
S'known'
p6852
S'being'
p6853
tp6854
F0.00033921302578018993
s(S'then'
p6855
S'called'
p6856
S'as'
p6857
tp6858
F0.00033921302578018993
s(S'be'
p6859
S'seen'
p6860
S'as'
p6861
tp6862
F0.00033921302578018993
s(S'to'
p6863
S'work'
p6864
S'[[num]]'
p6865
tp6866
F0.00033921302578018993
s(S'[[con]]'
p6867
S'called'
p6868
S'[[det]]'
p6869
tp6870
F0.00033921302578018993
s(g1200
g1201
S'married'
p6871
tp6872
F0.00033921302578018993
s(S'born'
p6873
S'lt'
p6874
S'ref'
p6875
tp6876
F0.0006784260515603799
s(S'had'
p6877
S'worked'
p6878
S'with'
p6879
tp6880
F0.00033921302578018993
s(g1940
g1941
S'of'
p6881
tp6882
F0.00033921302578018993
s(g81
S'wife'
p6883
S'with'
p6884
tp6885
F0.00033921302578018993
s(g81
S'son'
p6886
S'who'
p6887
tp6888
F0.00033921302578018993
s(S'soon'
p6889
S'fell'
p6890
S'with'
p6891
tp6892
F0.00033921302578018993
s(g5687
g6252
S'married'
p6893
tp6894
F0.00033921302578018993
s(S'[[adj]]'
p6895
S'gt'
p6896
S'[[num]]'
p6897
tp6898
F0.0006784260515603799
s(S'[[adj]]'
p6899
S'sons'
p6900
S'of'
p6901
tp6902
F0.00033921302578018993
s(S'met'
p6903
S'[[prp]]'
p6904
S'[[adj]]'
p6905
tp6906
F0.0020352781546811396
s(S'began'
p6907
S'[[prp]]'
p6908
S'relationship'
p6909
tp6910
F0.00033921302578018993
s(S'for'
p6911
S'alongside'
p6912
S'[[adj]]'
p6913
tp6914
F0.00033921302578018993
s(g1840
g1841
S'of'
p6915
tp6916
F0.0006784260515603799
s(S'[[adj]]'
p6917
S'married'
p6918
S'on'
p6919
tp6920
F0.00033921302578018993
s(S'was'
p6921
S'initially'
p6922
S'[[det]]'
p6923
tp6924
F0.00033921302578018993
s(g186
g187
S'with'
p6925
tp6926
F0.0006784260515603799
s(S'not'
p6927
S'know'
p6928
S'that'
p6929
tp6930
F0.00033921302578018993
s(S'appeared'
p6931
S'as'
p6932
S'alongside'
p6933
tp6934
F0.00033921302578018993
s(S'was'
p6935
S'seen'
p6936
S'as'
p6937
tp6938
F0.00033921302578018993
s(S'which'
p6939
S'starred'
p6940
S'[[adj]]'
p6941
tp6942
F0.00033921302578018993
s(S'also'
p6943
S'starred'
p6944
S'for'
p6945
tp6946
F0.00033921302578018993
s(g423
g1988
g1989
tp6947
F0.00033921302578018993
s(S'starred'
p6948
S'alongside'
p6949
S'in'
p6950
tp6951
F0.00033921302578018993
s(S'lives'
p6952
g551
g552
tp6953
F0.0030529172320217096
s(g835
g6116
g4964
tp6954
F0.00033921302578018993
s(S'married'
p6955
g6020
g6021
tp6956
F0.00033921302578018993
s(g4682
g4683
S'wife'
p6957
tp6958
F0.00033921302578018993
s(S'then'
p6959
S'worked'
p6960
S'from'
p6961
tp6962
F0.00033921302578018993
s(S'currently'
p6963
g1443
g1444
tp6964
F0.0010176390773405698
s(S'also'
p6965
S'tells'
p6966
S'[[pro]]'
p6967
tp6968
F0.00033921302578018993
s(S'carried'
p6969
g4303
g4304
tp6970
F0.00033921302578018993
s(S'[[det]]'
p6971
S'visit'
p6972
S'of'
p6973
tp6974
F0.00033921302578018993
s(S'[[adj]]'
p6975
S'son'
p6976
S'[[pro]]'
p6977
tp6978
F0.00033921302578018993
s(S'[[adj]]'
p6979
S'time'
p6980
S'[[con]]'
p6981
tp6982
F0.00033921302578018993
s(S'been'
p6983
S'cast'
p6984
S'as'
p6985
tp6986
F0.00033921302578018993
s(S'also'
p6987
S'called'
p6988
S'for'
p6989
tp6990
F0.00033921302578018993
s(S'became'
p6991
S'engaged'
p6992
S'to'
p6993
tp6994
F0.00033921302578018993
s(S'is'
p6995
S'seen'
p6996
S'to'
p6997
tp6998
F0.00033921302578018993
s(S'currently'
p6999
S'stars'
p7000
S'with'
p7001
tp7002
F0.00033921302578018993
s(S'was'
p7003
S'born'
p7004
S'with'
p7005
tp7006
F0.00033921302578018993
s(S'was'
p7007
S'left'
p7008
S'[[con]]'
p7009
tp7010
F0.00033921302578018993
s(S'particularly'
p7011
S'known'
p7012
S'in'
p7013
tp7014
F0.00033921302578018993
s(S'was'
p7015
S'director'
p7016
S'to'
p7017
tp7018
F0.00033921302578018993
s(S'name'
p7019
S'gt'
p7020
S'while'
p7021
tp7022
F0.00033921302578018993
s(S'often'
p7023
S'performed'
p7024
S'with'
p7025
tp7026
F0.00033921302578018993
s(g2661
g2662
S'daughter'
p7027
tp7028
F0.00033921302578018993
s(S'became'
p7029
S'known'
p7030
S'as'
p7031
tp7032
F0.00033921302578018993
s(S'was'
p7033
S'engaged'
p7034
S'with'
p7035
tp7036
F0.00033921302578018993
s(S'then'
p7037
S'asked'
p7038
S'by'
p7039
tp7040
F0.00033921302578018993
s(S'has'
p7041
S'worked'
p7042
S'by'
p7043
tp7044
F0.00033921302578018993
s(S'was'
p7045
S'born'
p7046
S'as'
p7047
tp7048
F0.00033921302578018993
s(S'[[adj]]'
p7049
S'widow'
p7050
S'[[con]]'
p7051
tp7052
F0.00033921302578018993
s(S'had'
p7053
S'initially'
p7054
S'been'
p7055
tp7056
F0.00033921302578018993
s(S'[[adj]]'
p7057
S'son'
p7058
S'to'
p7059
tp7060
F0.00033921302578018993
s(S'has'
p7061
S'lived'
p7062
S'with'
p7063
tp7064
F0.00033921302578018993
s(S'[[adj]]'
p7065
S'actor'
p7066
S'of'
p7067
tp7068
F0.00033921302578018993
s(S'met'
p7069
S'[[prp]]'
p7070
S'wife'
p7071
tp7072
F0.0006784260515603799
s(g81
S'cousin'
p7073
S'[[con]]'
p7074
tp7075
F0.00033921302578018993
s(S'[[num]]'
p7076
g4832
g1081
tp7077
F0.00033921302578018993
s(S'[[prp]]'
p7078
S'daughter'
p7079
S'[[adj]]'
p7080
tp7081
F0.00033921302578018993
s(S'ref'
p7082
S'gt'
p7083
S'played'
p7084
tp7085
F0.0016960651289009499
s(S'[[con]]'
p7086
S'worked'
p7087
S'with'
p7088
tp7089
F0.00033921302578018993
s(S'has'
p7090
S'appeared'
p7091
S'alongside'
p7092
tp7093
F0.0006784260515603799
s(S'[[adj]]'
p7094
S'time'
p7095
S'[[det]]'
p7096
tp7097
F0.00033921302578018993
s(S'[[adj]]'
p7098
g1683
g1684
tp7099
F0.00033921302578018993
s(S'et'
p7100
g1080
g1081
tp7101
F0.00033921302578018993
s(S'be'
p7102
S'seen'
p7103
S'in'
p7104
tp7105
F0.00033921302578018993
s(S'ref'
p7106
S'gt'
p7107
S'during'
p7108
tp7109
F0.00033921302578018993
s(S'is'
p7110
S'told'
p7111
S'by'
p7112
tp7113
F0.00033921302578018993
s(S'is'
p7114
S'known'
p7115
S'[[det]]'
p7116
tp7117
F0.00033921302578018993
s(S'married'
p7118
g2508
g2509
tp7119
F0.00033921302578018993
s(S'[[adj]]'
p7120
S'husband'
p7121
S'to'
p7122
tp7123
F0.00033921302578018993
s(g81
S'lt'
p7124
S'[[num]]'
p7125
tp7126
F0.00033921302578018993
s(S'also'
p7127
S'performed'
p7128
S'along'
p7129
tp7130
F0.00033921302578018993
s(S'[[det]]'
p7131
S'worked'
p7132
S'for'
p7133
tp7134
F0.00033921302578018993
s(S'[[con]]'
p7135
S'wrote'
p7136
S'for'
p7137
tp7138
F0.00033921302578018993
s(S'[[adj]]'
p7139
S'husband'
p7140
S'[[con]]'
p7141
tp7142
F0.00033921302578018993
s(S'[[con]]'
p7143
S'wrote'
p7144
S'to'
p7145
tp7146
F0.00033921302578018993
s(S'met'
p7147
S'[[det]]'
p7148
S'actor'
p7149
tp7150
F0.00033921302578018993
s(S'died'
p7151
S'[[adj]]'
p7152
S'ref'
p7153
tp7154
F0.00033921302578018993
s(S'twice'
p7155
S'[[det]]'
p7156
S'son'
p7157
tp7158
F0.00033921302578018993
s(S'since'
p7159
S'performed'
p7160
S'with'
p7161
tp7162
F0.00033921302578018993
s(S'has'
p7163
S'worked'
p7164
S'again'
p7165
tp7166
F0.00033921302578018993
s(S'has'
p7167
S'served'
p7168
S'to'
p7169
tp7170
F0.00033921302578018993
s(S'married'
p7171
g4828
g4829
tp7172
F0.00033921302578018993
s(S'also'
p7173
S'served'
p7174
S'along'
p7175
tp7176
F0.00033921302578018993
s(S'was'
p7177
S'born'
p7178
S'lt'
p7179
tp7180
F0.00033921302578018993
s(S'also'
p7181
S'served'
p7182
S'[[num]]'
p7183
tp7184
F0.00033921302578018993
s(S'was'
p7185
S'called'
p7186
S'[[con]]'
p7187
tp7188
F0.00033921302578018993
s(S'had'
p7189
S'taken'
p7190
S'over'
p7191
tp7192
F0.00033921302578018993
s(S'to'
p7193
S'lt'
p7194
S'ref'
p7195
tp7196
F0.00033921302578018993
s(g3099
g6675
S'[[con]]'
p7197
tp7198
F0.0010176390773405698
s(S'took'
p7199
g4734
g2454
tp7200
F0.00033921302578018993
s(S'also'
p7201
S'directed'
p7202
S'by'
p7203
tp7204
F0.00033921302578018993
s(S'divorced'
p7205
S'[[prp]]'
p7206
S'[[adj]]'
p7207
tp7208
F0.0006784260515603799
s(S'then'
p7209
S'worked'
p7210
S'along'
p7211
tp7212
F0.00033921302578018993
s(S'then'
p7213
S'took'
p7214
S'over'
p7215
tp7216
F0.00033921302578018993
s(S'[[det]]'
p7217
S'relationship'
p7218
S'with'
p7219
tp7220
F0.0006784260515603799
s(S'to'
p7221
g329
g330
tp7222
F0.00033921302578018993
s(g81
S'work'
p7223
S'[[con]]'
p7224
tp7225
F0.00033921302578018993
s(S'[[num]]'
p7226
S'time'
p7227
S'[[con]]'
p7228
tp7229
F0.00033921302578018993
s(S'then'
p7230
S'killed'
p7231
S'by'
p7232
tp7233
F0.00033921302578018993
s(S'lt'
p7234
S'gt'
p7235
S'with'
p7236
tp7237
F0.00033921302578018993
s(S'also'
p7238
S'worked'
p7239
S'together'
p7240
tp7241
F0.00033921302578018993
s(S'gt'
p7242
g1005
g1006
tp7243
F0.00033921302578018993
s(S'who'
p7244
S'played'
p7245
S'[[adj]]'
p7246
tp7247
F0.00033921302578018993
s(S'then'
p7248
S'starred'
p7249
S'as'
p7250
tp7251
F0.00033921302578018993
s(S'also'
p7252
S'stars'
p7253
S'with'
p7254
tp7255
F0.00033921302578018993
s(S'was'
p7256
S'killed'
p7257
S'with'
p7258
tp7259
F0.00033921302578018993
s(S'was'
p7260
S'left'
p7261
S'to'
p7262
tp7263
F0.00033921302578018993
s(S'[[det]]'
p7264
S'time'
p7265
S'when'
p7266
tp7267
F0.00033921302578018993
s(S'appeared'
p7268
S'[[con]]'
p7269
S'alongside'
p7270
tp7271
F0.00033921302578018993
s(S'had'
p7272
g2992
g2993
tp7273
F0.0006784260515603799
s(S'[[adj]]'
p7274
S'time'
p7275
S'of'
p7276
tp7277
F0.00033921302578018993
s(S'also'
p7278
S'starred'
p7279
S'with'
p7280
tp7281
F0.00033921302578018993
s(S'was'
p7282
S'called'
p7283
S'of'
p7284
tp7285
F0.00033921302578018993
s(S'[[num]]'
p7286
S'children'
p7287
S'by'
p7288
tp7289
F0.00033921302578018993
s(g275
g276
S'ref'
p7290
tp7291
F0.00033921302578018993
s(g6904
g6905
S'wife'
p7292
tp7293
F0.0020352781546811396
s(g6116
g4964
g4965
tp7294
F0.00033921302578018993
s(g81
S'death'
p7295
S'as'
p7296
tp7297
F0.00033921302578018993
s(S'also'
p7298
S'worked'
p7299
S'among'
p7300
tp7301
F0.00033921302578018993
s(S'to'
p7302
S'cast'
p7303
S'[[con]]'
p7304
tp7305
F0.00033921302578018993
s(S'ref'
p7306
S'gt'
p7307
S'[[pro]]'
p7308
tp7309
F0.00033921302578018993
s(S'married'
p7310
S'to'
p7311
S'daughter'
p7312
tp7313
F0.0016960651289009499
s(g51
g272
S'[[det]]'
p7314
tp7315
F0.00033921302578018993
s(S'[[con]]'
p7316
S'lived'
p7317
S'with'
p7318
tp7319
F0.00033921302578018993
s(S'lt'
p7320
g1123
g1124
tp7321
F0.0101763907734057
s(S'be'
p7322
S'played'
p7323
S'by'
p7324
tp7325
F0.00033921302578018993
s(S'had'
p7326
S'performed'
p7327
S'for'
p7328
tp7329
F0.00033921302578018993
s(S'lt'
p7330
g2668
g2669
tp7331
F0.0027137042062415195
s(S'was'
p7332
g4541
g4542
tp7333
F0.00033921302578018993
s(S'[[prp]]'
p7334
S'marriage'
p7335
S'with'
p7336
tp7337
F0.00033921302578018993
s(S'[[prp]]'
p7338
S'sister'
p7339
S'[[con]]'
p7340
tp7341
F0.00033921302578018993
s(S'also'
p7342
S'killed'
p7343
S'along'
p7344
tp7345
F0.00033921302578018993
s(S'had'
p7346
S'stayed'
p7347
S'with'
p7348
tp7349
F0.00033921302578018993
s(S'is'
p7350
S'daughter'
p7351
S'of'
p7352
tp7353
F0.00033921302578018993
s(S'[[det]]'
p7354
g679
g680
tp7355
F0.00033921302578018993
s(S'married'
p7356
S'[[prp]]'
p7357
S'husband'
p7358
tp7359
F0.00033921302578018993
s(g1817
g1916
g1917
tp7360
F0.00033921302578018993
s(S'[[prp]]'
p7361
S'campaign'
p7362
S'against'
p7363
tp7364
F0.00033921302578018993
s(S'was'
p7365
S'married'
p7366
S'[[det]]'
p7367
tp7368
F0.0006784260515603799
s(g81
S'mother'
p7369
S'[[con]]'
p7370
tp7371
F0.00033921302578018993
s(S'best'
p7372
S'known'
p7373
S'from'
p7374
tp7375
F0.00033921302578018993
s(S'[[det]]'
p7376
S'wife'
p7377
S'to'
p7378
tp7379
F0.00033921302578018993
s(S'has'
p7380
S'performed'
p7381
S'from'
p7382
tp7383
F0.00033921302578018993
s(S'then'
p7384
S'appeared'
p7385
S'[[adj]]'
p7386
tp7387
F0.00033921302578018993
s(S'has'
p7388
S'performed'
p7389
S'with'
p7390
tp7391
F0.00033921302578018993
s(S'had'
p7392
S'met'
p7393
S'while'
p7394
tp7395
F0.00033921302578018993
s(g1228
g1229
S'actress'
p7396
tp7397
F0.0006784260515603799
s(S'[[adj]]'
p7398
S'worked'
p7399
S'for'
p7400
tp7401
F0.00033921302578018993
s(S'also'
p7402
S'wrote'
p7403
S'[[con]]'
p7404
tp7405
F0.00033921302578018993
s(S'[[con]]'
p7406
S'[[det]]'
p7407
S'son'
p7408
tp7409
F0.0010176390773405698
s(S'has'
p7410
S'performed'
p7411
S'before'
p7412
tp7413
F0.00033921302578018993
s(S'married'
p7414
S'[[prp]]'
p7415
S'[[adj]]'
p7416
tp7417
F0.0013568521031207597
s(S'[[con]]'
p7418
S'declared'
p7419
S'that'
p7420
tp7421
F0.00033921302578018993
s(S'[[det]]'
p7422
S'son'
p7423
S'[[pro]]'
p7424
tp7425
F0.00033921302578018993
s(g2351
g2352
g2794
tp7426
F0.00033921302578018993
s(S'lead'
p7427
g3119
g2128
tp7428
F0.00033921302578018993
s(S'also'
p7429
S'wrote'
p7430
S'by'
p7431
tp7432
F0.00033921302578018993
s(S'been'
p7433
S'told'
p7434
S'by'
p7435
tp7436
F0.00033921302578018993
s(g81
S'daughter'
p7437
S'to'
p7438
tp7439
F0.00033921302578018993
s(S'[[con]]'
p7440
S'asked'
p7441
S'[[pro]]'
p7442
tp7443
F0.00033921302578018993
s(S'then'
p7444
S'appeared'
p7445
S'alongside'
p7446
tp7447
F0.0006784260515603799
s(S'has'
p7448
S'appeared'
p7449
S'[[adj]]'
p7450
tp7451
F0.00033921302578018993
s(S'[[adj]]'
p7452
S'actress'
p7453
S'[[adj]]'
p7454
tp7455
F0.00033921302578018993
s(S'[[con]]'
p7456
S'remained'
p7457
S'[[adj]]'
p7458
tp7459
F0.00033921302578018993
s(S'[[adj]]'
p7460
S'cousin'
p7461
S'[[det]]'
p7462
tp7463
F0.00033921302578018993
s(S'to'
p7464
S'sister'
p7465
S'of'
p7466
tp7467
F0.00033921302578018993
s(S'was'
p7468
S'seen'
p7469
S'with'
p7470
tp7471
F0.00033921302578018993
s(S'[[adj]]'
p7472
S'cousin'
p7473
S'[[num]]'
p7474
tp7475
F0.0006784260515603799
s(S'to'
p7476
S'know'
p7477
S'how'
p7478
tp7479
F0.00033921302578018993
s(S'lived'
p7480
g5973
g5974
tp7481
F0.00033921302578018993
s(S'also'
p7482
S'worked'
p7483
S'by'
p7484
tp7485
F0.00033921302578018993
s(g592
g593
S'daughter'
p7486
tp7487
F0.0010176390773405698
s(S'is'
p7488
S'known'
p7489
S'by'
p7490
tp7491
F0.00033921302578018993
s(S'[[prp]]'
p7492
S'daughter'
p7493
S'to'
p7494
tp7495
F0.0006784260515603799
s(S'[[adj]]'
p7496
S'relationship'
p7497
S'[[con]]'
p7498
tp7499
F0.00033921302578018993
s(S'also'
p7500
S'met'
p7501
S'with'
p7502
tp7503
F0.00033921302578018993
s.