(dp0
(S'then'
p1
S'played'
p2
S'with'
p3
tp4
F0.0003455425017277125
s(S'have'
p5
S'played'
p6
S'[[adj]]'
p7
tp8
F0.0003455425017277125
s(S'filmed'
p9
S'[[con]]'
p10
S'starring'
p11
tp12
F0.0003455425017277125
s(S'[[adj]]'
p13
S'produced'
p14
S'by'
p15
tp16
F0.0003455425017277125
s(S'comedy'
p17
S'film'
p18
S'produced'
p19
tp20
F0.000691085003455425
s(S'who'
p21
S'played'
p22
S'[[adj]]'
p23
tp24
F0.0003455425017277125
s(S'[[adj]]'
p25
S'episode'
p26
S'of'
p27
tp28
F0.0003455425017277125
s(S'also'
p29
S'known'
p30
S'as'
p31
tp32
F0.0003455425017277125
s(S'released'
p33
S'starring'
p34
S'as'
p35
tp36
F0.0003455425017277125
s(S'road'
p37
S'movie'
p38
S'directed'
p39
tp40
F0.000691085003455425
s(S'was'
p41
S'named'
p42
S'for'
p43
tp44
F0.0003455425017277125
s(S'ref'
p45
S'gt'
p46
S'said'
p47
tp48
F0.0010366275051831375
s(S'film'
p49
S'that'
p50
S'stars'
p51
tp52
F0.000691085003455425
s(S'released'
p53
S'in'
p54
S'[[num]]'
p55
tp56
F0.0003455425017277125
s(S'was'
p57
S'created'
p58
S'by'
p59
tp60
F0.0003455425017277125
s(S'[[num]]'
p61
S'film'
p62
S'made'
p63
tp64
F0.000691085003455425
s(S'thriller'
p65
S'film'
p66
S'starring'
p67
tp68
F0.0034554250172771253
s(S'[[num]]'
p69
S'crime'
p70
S'film'
p71
tp72
F0.004492052522460262
s(S'[[adj]]'
p73
S'include'
p74
S'[[num]]'
p75
tp76
F0.0003455425017277125
s(S'accessed'
p77
S'[[adj]]'
p78
S'ref'
p79
tp80
F0.0003455425017277125
s(S'[[con]]'
p81
S'starred'
p82
S'as'
p83
tp84
F0.000691085003455425
s(S'television'
p85
S'drama'
p86
S'film'
p87
tp88
F0.0003455425017277125
s(S'horror'
p89
S'film'
p90
S'starring'
p91
tp92
F0.0024187975120939877
s(S'in'
p93
S'[[adj]]'
p94
S'role'
p95
tp96
F0.0003455425017277125
s(S'by'
p97
S'produced'
p98
S'[[con]]'
p99
tp100
F0.0003455425017277125
s(S'directed'
p101
S'starring'
p102
S'[[con]]'
p103
tp104
F0.0038009675190048375
s(S'[[num]]'
p105
S'lt'
p106
S'[[num]]'
p107
tp108
F0.002073255010366275
s(S'gt'
p109
S'film'
p110
S'stars'
p111
tp112
F0.0003455425017277125
s(S'[[adj]]'
p113
S'hosted'
p114
S'by'
p115
tp116
F0.0003455425017277125
s(S'thriller'
p117
S'film'
p118
S'directed'
p119
tp120
F0.007947477539737388
s(S'directed'
p121
S'by'
p122
S'which'
p123
tp124
F0.0003455425017277125
s(S'then'
p125
S'played'
p126
S'as'
p127
tp128
F0.0003455425017277125
s(S'is'
p129
S'[[num]]'
p130
g85
tp131
F0.0003455425017277125
s(S'comedy'
p132
S'film'
p133
S'featuring'
p134
tp135
F0.0010366275051831375
s(S'mystery'
p136
S'film'
p137
S'starring'
p138
tp139
F0.0003455425017277125
s(S'also'
p140
S'featured'
p141
S'as'
p142
tp143
F0.0003455425017277125
s(S'feature'
p144
S'film'
p145
S'starring'
p146
tp147
F0.0024187975120939877
s(S'ref'
p148
S'gt'
p149
S'show'
p150
tp151
F0.0003455425017277125
s(S'stars'
p152
S'[[con]]'
p153
S'was'
p154
tp155
F0.0003455425017277125
s(S'lt'
p156
S'lt'
p157
S'ref'
p158
tp159
F0.0003455425017277125
s(S'was'
p160
S'voiced'
p161
S'by'
p162
tp163
F0.0003455425017277125
s(S'ref'
p164
S'gt'
p165
S'received'
p166
tp167
F0.000691085003455425
s(S'[[num]]'
p168
S'film'
p169
S'[[adj]]'
p170
tp171
F0.000691085003455425
s(S'gt'
p172
S'[[num]]'
p173
S'season'
p174
tp175
F0.0003455425017277125
s(S'lt'
p176
S'ref'
p177
S'gt'
p178
tp179
F0.018313752591568762
s(S'film'
p180
S'directed'
p181
S'written'
p182
tp183
F0.0034554250172771253
s(S'[[con]]'
p184
S'played'
p185
S'[[con]]'
p186
tp187
F0.0003455425017277125
s(S'gentleman'
p188
S'[[num]]'
p189
S'movie'
p190
tp191
F0.0003455425017277125
s(S'[[det]]'
p192
S'sketch'
p193
S'comedy'
p194
tp195
F0.0003455425017277125
s(S'produced'
p196
S'by'
p197
S'starring'
p198
tp199
F0.0003455425017277125
s(S'ensemble'
p200
S'cast'
p201
S'consisting'
p202
tp203
F0.0003455425017277125
s(S'ref'
p204
S'gt'
p205
S'[[num]]'
p206
tp207
F0.0017277125086385626
s(S'been'
p208
S'named'
p209
S'after'
p210
tp211
F0.0003455425017277125
s(S'ref'
p212
S'gt'
p213
S'won'
p214
tp215
F0.0003455425017277125
s(S'gt'
p216
g73
g74
tp217
F0.0003455425017277125
s(S'[[adj]]'
p218
S'named'
p219
S'after'
p220
tp221
F0.0003455425017277125
s(S'television'
p222
S'series'
p223
S'with'
p224
tp225
F0.0003455425017277125
s(S'[[adj]]'
p226
S'arts'
p227
S'film'
p228
tp229
F0.0010366275051831375
s(S'[[det]]'
p230
S'feature'
p231
S'film'
p232
tp233
F0.00138217000691085
s(S'film'
p234
S'directed'
p235
S'by'
p236
tp237
F0.045266067726330336
s(S'film'
p238
S'starring'
p239
S'[[det]]'
p240
tp241
F0.0003455425017277125
s(S'guest'
p242
S'appearance'
p243
S'by'
p244
tp245
F0.0003455425017277125
s(S'was'
p246
S'directed'
p247
S'produced'
p248
tp249
F0.0003455425017277125
s(S'[[con]]'
p250
S'played'
p251
S'[[adj]]'
p252
tp253
F0.0003455425017277125
s(S'is'
p254
g226
g227
tp255
F0.0003455425017277125
s(S'[[det]]'
p256
S'[[adj]]'
p257
g242
tp258
F0.0003455425017277125
s(S'[[det]]'
p259
S'released'
p260
S'starring'
p261
tp262
F0.000691085003455425
s(S'adapted'
p263
S'[[num]]'
p264
S'movie'
p265
tp266
F0.0003455425017277125
s(g169
g170
S'[[con]]'
p267
tp268
F0.000691085003455425
s(S'was'
p269
S'released'
p270
S'[[con]]'
p271
tp272
F0.0003455425017277125
s(S'action'
p273
S'film'
p274
S'[[con]]'
p275
tp276
F0.0003455425017277125
s(S'crime'
p277
S'film'
p278
S'starring'
p279
tp280
F0.00138217000691085
s(S'is'
p281
S'set'
p282
S'[[con]]'
p283
tp284
F0.0003455425017277125
s(S'fiction'
p285
S'film'
p286
S'directed'
p287
tp288
F0.00138217000691085
s(S'written'
p289
S'[[con]]'
p290
S'starred'
p291
tp292
F0.0010366275051831375
s(S'[[con]]'
p293
S'stars'
p294
S'as'
p295
tp296
F0.000691085003455425
s(S'[[num]]'
p297
S'film'
p298
S'by'
p299
tp300
F0.0010366275051831375
s(S'directed'
p301
g97
g98
tp302
F0.0003455425017277125
s(S'film'
p303
S'from'
p304
S'directed'
p305
tp306
F0.000691085003455425
s(S'has'
p307
S'included'
p308
S'[[det]]'
p309
tp310
F0.0003455425017277125
s(S'was'
p311
S'originally'
p312
S'hosted'
p313
tp314
F0.0003455425017277125
s(g54
g55
S'starring'
p315
tp316
F0.000691085003455425
s(S'[[con]]'
p317
S'action'
p318
S'film'
p319
tp320
F0.0003455425017277125
s(S'directed'
p321
S'with'
p322
S'[[det]]'
p323
tp324
F0.0010366275051831375
s(S'so'
p325
S'named'
p326
S'because'
p327
tp328
F0.0003455425017277125
s(S'ref'
p329
S'also'
p330
S'appeared'
p331
tp332
F0.0003455425017277125
s(S'[[det]]'
p333
S'voices'
p334
S'of'
p335
tp336
F0.000691085003455425
s(S'[[num]]'
p337
S'film'
p338
S'starring'
p339
tp340
F0.002073255010366275
s(S'comedy'
p341
S'[[adj]]'
p342
S'by'
p343
tp344
F0.0003455425017277125
s(S'[[det]]'
p345
S'thriller'
p346
S'directed'
p347
tp348
F0.0003455425017277125
s(S'ref'
p349
S'gt'
p350
S'links'
p351
tp352
F0.0003455425017277125
s(S'ref'
p353
S'gt'
p354
S'made'
p355
tp356
F0.0010366275051831375
s(S'[[num]]'
p357
S'film'
p358
S'that'
p359
tp360
F0.0017277125086385626
s(S'motion'
p361
S'picture'
p362
S'directed'
p363
tp364
F0.000691085003455425
s(S'by'
p365
S'starring'
p366
S'[[con]]'
p367
tp368
F0.0038009675190048375
s(g122
g123
S'features'
p369
tp370
F0.0003455425017277125
s(S'is'
p371
S'written'
p372
S'[[con]]'
p373
tp374
F0.0010366275051831375
s(S'is'
p375
S'[[num]]'
p376
S'thriller'
p377
tp378
F0.0003455425017277125
s(S'[[num]]'
p379
S'fantasy'
p380
S'film'
p381
tp382
F0.0010366275051831375
s(S'[[num]]'
p383
S'movie'
p384
S'produced'
p385
tp386
F0.0003455425017277125
s(S'[[det]]'
p387
S'thriller'
p388
S'film'
p389
tp390
F0.000691085003455425
s(S'[[det]]'
p391
S'played'
p392
S'by'
p393
tp394
F0.0003455425017277125
s(S'were'
p395
S'produced'
p396
S'by'
p397
tp398
F0.0003455425017277125
s(S'[[num]]'
p399
S'detective'
p400
S'film'
p401
tp402
F0.000691085003455425
s(S'gt'
p403
S'brought'
p404
S'[[pro]]'
p405
tp406
F0.0003455425017277125
s(S'into'
p407
S'[[det]]'
p408
S'film'
p409
tp410
F0.0003455425017277125
s(S'[[con]]'
p411
S'based'
p412
S'by'
p413
tp414
F0.0003455425017277125
s(S'not'
p415
S'written'
p416
S'by'
p417
tp418
F0.0003455425017277125
s(S'film'
p419
S'starring'
p420
S'directed'
p421
tp422
F0.000691085003455425
s(S'[[adj]]'
p423
S'film'
p424
S'from'
p425
tp426
F0.0003455425017277125
s(S'[[num]]'
p427
S'drama'
p428
S'film'
p429
tp430
F0.010711817553559088
s(S'created'
p431
S'[[con]]'
p432
S'written'
p433
tp434
F0.0003455425017277125
s(S'[[adj]]'
p435
S'movie'
p436
S'directed'
p437
tp438
F0.0003455425017277125
s(S'[[adj]]'
p439
g89
g90
tp440
F0.0017277125086385626
s(S'documentary'
p441
S'directed'
p442
S'[[con]]'
p443
tp444
F0.000691085003455425
s(S'directed'
p445
S'starring'
p446
S'[[det]]'
p447
tp448
F0.0003455425017277125
s(S'[[num]]'
p449
S'film'
p450
S'directed'
p451
tp452
F0.01243953006219765
s(S'p'
p453
S'lt'
p454
S'ref'
p455
tp456
F0.000691085003455425
s(S'television'
p457
S'film'
p458
S'starring'
p459
tp460
F0.000691085003455425
s(S'[[con]]'
p461
S'directed'
p462
S'by'
p463
tp464
F0.019004837595024186
s(S'[[con]]'
p465
S'features'
p466
S'[[det]]'
p467
tp468
F0.0003455425017277125
s(S'[[num]]'
p469
S'film'
p470
S'produced'
p471
tp472
F0.000691085003455425
s(S'[[num]]'
p473
S'television'
p474
S'movie'
p475
tp476
F0.000691085003455425
s(S'is'
p477
S'named'
p478
S'for'
p479
tp480
F0.0003455425017277125
s(S'stats'
p481
S'at'
p482
S'lt'
p483
tp484
F0.0003455425017277125
s(S'ref'
p485
S'gt'
p486
S'with'
p487
tp488
F0.0003455425017277125
s(S'that'
p489
S'was'
p490
S'directed'
p491
tp492
F0.0003455425017277125
s(S'was'
p493
S'directed'
p494
S'with'
p495
tp496
F0.0003455425017277125
s(S'[[adj]]'
p497
S'written'
p498
S'[[con]]'
p499
tp500
F0.0010366275051831375
s(S'stars'
p501
S'[[con]]'
p502
S'includes'
p503
tp504
F0.0003455425017277125
s(S'also'
p505
S'features'
p506
S'[[con]]'
p507
tp508
F0.0003455425017277125
s(S'documentary'
p509
S'film'
p510
S'produced'
p511
tp512
F0.0003455425017277125
s(S'cast'
p513
S'that'
p514
S'includes'
p515
tp516
F0.0003455425017277125
s(S'adventure'
p517
g53
g54
tp518
F0.0003455425017277125
s(S'comedy'
p519
S'family'
p520
S'film'
p521
tp522
F0.0003455425017277125
s(S'were'
p523
S'created'
p524
S'by'
p525
tp526
F0.0003455425017277125
s(S'ensemble'
p527
g513
g514
tp528
F0.0003455425017277125
s(S'made'
p529
S'directed'
p530
S'by'
p531
tp532
F0.0003455425017277125
s(S'action'
p533
S'comedy'
p534
S'film'
p535
tp536
F0.0017277125086385626
s(S'[[num]]'
p537
S'directed'
p538
S'by'
p539
tp540
F0.00138217000691085
s(S'[[det]]'
p541
g527
g513
tp542
F0.0017277125086385626
s(S'adventure'
p543
S'film'
p544
S'directed'
p545
tp546
F0.0017277125086385626
s(S'had'
p547
S'played'
p548
S'with'
p549
tp550
F0.0003455425017277125
s(S'[[con]]'
p551
S'played'
p552
S'[[det]]'
p553
tp554
F0.000691085003455425
s(S'also'
p555
S'played'
p556
S'with'
p557
tp558
F0.0003455425017277125
s(S'horror'
p559
S'film'
p560
S'written'
p561
tp562
F0.002073255010366275
s(S'has'
p563
S'played'
p564
S'with'
p565
tp566
F0.0003455425017277125
s(S'[[con]]'
p567
S'played'
p568
S'as'
p569
tp570
F0.0003455425017277125
s(S'[[con]]'
p571
S'directed'
p572
S'[[con]]'
p573
tp574
F0.010020732550103663
s(S'[[num]]'
p575
S'motion'
p576
S'picture'
p577
tp578
F0.0017277125086385626
s(S'directed'
p579
S'produced'
p580
S'[[con]]'
p581
tp582
F0.000691085003455425
s(g189
g190
S'directed'
p583
tp584
F0.00138217000691085
s(S'[[det]]'
p585
S'drama'
p586
S'starring'
p587
tp588
F0.000691085003455425
s(S'[[adj]]'
p589
S'statistics'
p590
S'[[num]]'
p591
tp592
F0.0010366275051831375
s(S'was'
p593
g263
g264
tp594
F0.0003455425017277125
s(S'[[num]]'
p595
S'movie'
p596
S'starring'
p597
tp598
F0.000691085003455425
s(S'[[con]]'
p599
S'crew'
p600
S'members'
p601
tp602
F0.0003455425017277125
s(S'film'
p603
S'starring'
p604
S'as'
p605
tp606
F0.000691085003455425
s(S'cult'
p607
S'[[num]]'
p608
S'drama'
p609
tp610
F0.0003455425017277125
s(S'[[adj]]'
p611
S'action'
p612
S'film'
p613
tp614
F0.00138217000691085
s(S'of'
p615
S'[[det]]'
p616
S'cast'
p617
tp618
F0.0003455425017277125
s(S'[[con]]'
p619
S'produced'
p620
S'[[con]]'
p621
tp622
F0.0003455425017277125
s(S'[[num]]'
p623
S'drama'
p624
S'[[adj]]'
p625
tp626
F0.0003455425017277125
s(S'also'
p627
S'played'
p628
S'before'
p629
tp630
F0.0003455425017277125
s(S'be'
p631
S'written'
p632
S'by'
p633
tp634
F0.0003455425017277125
s(S'[[con]]'
p635
S'lt'
p636
S'ref'
p637
tp638
F0.0010366275051831375
s(S'was'
p639
S'written'
p640
S'by'
p641
tp642
F0.000691085003455425
s(S'features'
p643
S'[[adj]]'
p644
S'performances'
p645
tp646
F0.0003455425017277125
s(g322
g323
S'screenplay'
p647
tp648
F0.000691085003455425
s(S'[[det]]'
p649
S'produced'
p650
S'by'
p651
tp652
F0.0003455425017277125
s(S'[[con]]'
p653
S'also'
p654
S'stars'
p655
tp656
F0.000691085003455425
s(S'film'
p657
g529
g530
tp658
F0.0003455425017277125
s(S'family'
p659
S'comedy'
p660
S'film'
p661
tp662
F0.000691085003455425
s(S's'
p663
S'gt'
p664
S'lt'
p665
tp666
F0.0003455425017277125
s(S'gt'
p667
S'appeared'
p668
S'[[num]]'
p669
tp670
F0.0003455425017277125
s(S'features'
p671
S'performances'
p672
S'with'
p673
tp674
F0.0003455425017277125
s(S'crime'
p675
S'film'
p676
S'directed'
p677
tp678
F0.005183137525915688
s(S'titled'
p679
S'is'
p680
S'[[num]]'
p681
tp682
F0.0003455425017277125
s(S'[[det]]'
p683
S'mystery'
p684
S'film'
p685
tp686
F0.0003455425017277125
s(S'are'
p687
S'named'
p688
S'after'
p689
tp690
F0.0003455425017277125
s(S'of'
p691
S'directed'
p692
S'[[con]]'
p693
tp694
F0.0003455425017277125
s(S'[[num]]'
p695
S'television'
p696
S'series'
p697
tp698
F0.0003455425017277125
s(S'directed'
p699
S'produced'
p700
S'by'
p701
tp702
F0.000691085003455425
s(S'comedy'
p703
S'series'
p704
S'with'
p705
tp706
F0.0003455425017277125
s(S'[[num]]'
p707
S'film'
p708
S'noir'
p709
tp710
F0.00138217000691085
s(S'[[num]]'
p711
S'starring'
p712
S'[[con]]'
p713
tp714
F0.0003455425017277125
s(S'fiction'
p715
S'horror'
p716
S'film'
p717
tp718
F0.000691085003455425
s(S'where'
p719
S'played'
p720
S'[[det]]'
p721
tp722
F0.0003455425017277125
s(g30
g31
S'[[num]]'
p723
tp724
F0.0003455425017277125
s(S'made'
p725
S'starring'
p726
S'[[con]]'
p727
tp728
F0.0003455425017277125
s(S'[[num]]'
p729
S'drama'
p730
S'directed'
p731
tp732
F0.0003455425017277125
s(g193
g194
g222
tp733
F0.0003455425017277125
s(S'lt'
p734
S'[[num]]'
p735
S'ref'
p736
tp737
F0.007601935038009675
s(S'sequel'
p738
S'[[con]]'
p739
S'stars'
p740
tp741
F0.0003455425017277125
s(S'has'
p742
S'played'
p743
S'from'
p744
tp745
F0.0003455425017277125
s(S'drama'
p746
S'directed'
p747
S'[[con]]'
p748
tp749
F0.0010366275051831375
s(S'[[adj]]'
p750
S'drama'
p751
S'[[adj]]'
p752
tp753
F0.0003455425017277125
s(S'[[num]]'
p754
S'crime'
p755
S'drama'
p756
tp757
F0.0027643400138217
s(S'comedy'
p758
S'horror'
p759
S'film'
p760
tp761
F0.0003455425017277125
s(S'was'
p762
S'released'
p763
S'featuring'
p764
tp765
F0.0003455425017277125
s(S'television'
p766
S'film'
p767
S'written'
p768
tp769
F0.0003455425017277125
s(S'have'
p770
S'played'
p771
S'[[det]]'
p772
tp773
F0.0003455425017277125
s(S'noir'
p774
S'directed'
p775
S'[[con]]'
p776
tp777
F0.0003455425017277125
s(S'drama'
p778
S'film'
p779
S'based'
p780
tp781
F0.0003455425017277125
s(S'series'
p782
S'directed'
p783
S'by'
p784
tp785
F0.0003455425017277125
s(S'lt'
p786
S'blockquote'
p787
S'gt'
p788
tp789
F0.000691085003455425
s(S'[[adj]]'
p790
S'motion'
p791
S'picture'
p792
tp793
F0.0003455425017277125
s(S'starring'
p794
S'[[con]]'
p795
S'released'
p796
tp797
F0.0003455425017277125
s(S'is'
p798
S'written'
p799
S'that'
p800
tp801
F0.0003455425017277125
s(S'released'
p802
S'is'
p803
S'[[num]]'
p804
tp805
F0.0003455425017277125
s(S'[[num]]'
p806
S'fantasy'
p807
S'adventure'
p808
tp809
F0.0003455425017277125
s(S'gt'
p810
S'[[det]]'
p811
S'copy'
p812
tp813
F0.0003455425017277125
s(g181
g182
S'[[con]]'
p814
tp815
F0.0031098825155494126
s(S'starring'
p816
S'[[con]]'
p817
S'filmed'
p818
tp819
F0.0003455425017277125
s(S'[[adj]]'
p820
S'starring'
p821
S'[[con]]'
p822
tp823
F0.0003455425017277125
s(g227
g228
g445
tp824
F0.0010366275051831375
s(S'action'
p825
S'written'
p826
S'[[con]]'
p827
tp828
F0.000691085003455425
s(S'[[det]]'
p829
S'film'
p830
S'debut'
p831
tp832
F0.0003455425017277125
s(S'[[det]]'
p833
S'film'
p834
S'for'
p835
tp836
F0.0003455425017277125
s(S'[[num]]'
p837
S'action'
p838
S'thriller'
p839
tp840
F0.00138217000691085
s(S'also'
p841
S'played'
p842
S'[[con]]'
p843
tp844
F0.0003455425017277125
s(S'album'
p845
S'directed'
p846
S'starring'
p847
tp848
F0.0003455425017277125
s(S'filmed'
p849
S'starring'
p850
S'[[con]]'
p851
tp852
F0.0003455425017277125
s(S'produced'
p853
S'with'
p854
S'[[det]]'
p855
tp856
F0.0003455425017277125
s(S'[[num]]'
p857
S'page'
p858
S'[[num]]'
p859
tp860
F0.0003455425017277125
s(S'movie'
p861
S'directed'
p862
S'[[con]]'
p863
tp864
F0.00138217000691085
s(S'series'
p865
S'starring'
p866
S'as'
p867
tp868
F0.0003455425017277125
s(S'[[con]]'
p869
g853
g854
tp870
F0.0003455425017277125
s(S'ref'
p871
S'gt'
p872
S'[[adj]]'
p873
tp874
F0.0017277125086385626
s(S'drama'
p875
S'directed'
p876
S'by'
p877
tp878
F0.0003455425017277125
s(S'film'
p879
g875
g876
tp880
F0.0003455425017277125
s(S'lt'
p881
S'ref'
p882
S'lt'
p883
tp884
F0.0003455425017277125
s(S'starring'
p885
S'[[con]]'
p886
S'featuring'
p887
tp888
F0.00138217000691085
s(S'is'
p889
S'voiced'
p890
S'by'
p891
tp892
F0.0003455425017277125
s(S'[[adj]]'
p893
S'feature'
p894
S'film'
p895
tp896
F0.0010366275051831375
s(S'[[det]]'
p897
S'lt'
p898
S'[[num]]'
p899
tp900
F0.0003455425017277125
s(S'[[num]]'
p901
S'language'
p902
S'film'
p903
tp904
F0.00138217000691085
s(S'[[det]]'
p905
S'television'
p906
S'sketch'
p907
tp908
F0.0003455425017277125
s(S'[[num]]'
p909
S'comedy'
p910
S'directed'
p911
tp912
F0.000691085003455425
s(S'is'
p913
S'revealed'
p914
S'to'
p915
tp916
F0.0003455425017277125
s(S'[[num]]'
p917
S'accessed'
p918
S'[[num]]'
p919
tp920
F0.0003455425017277125
s(S'ref'
p921
S'gt'
p922
S'is'
p923
tp924
F0.0003455425017277125
s(S'gt'
p925
S'lt'
p926
S'ref'
p927
tp928
F0.004492052522460262
s(g573
S'written'
p929
S'by'
p930
tp931
F0.007256392536281963
s(S'color'
p932
S'film'
p933
S'was'
p934
tp935
F0.0003455425017277125
s(g616
g617
S'[[con]]'
p936
tp937
F0.0003455425017277125
s(S'be'
p938
S'presented'
p939
S'by'
p940
tp941
F0.0003455425017277125
s(S'screenplay'
p942
S'written'
p943
S'by'
p944
tp945
F0.0003455425017277125
s(S'[[adj]]'
p946
S'drama'
p947
S'film'
p948
tp949
F0.006910850034554251
s(g663
S'written'
p950
S'by'
p951
tp952
F0.0003455425017277125
s(g177
g178
S'film'
p953
tp954
F0.000691085003455425
s(S'in'
p955
S'starring'
p956
S'[[con]]'
p957
tp958
F0.0003455425017277125
s(S'[[adj]]'
p959
S'comedy'
p960
S'drama'
p961
tp962
F0.0003455425017277125
s(S'fiction'
p963
S'directed'
p964
S'by'
p965
tp966
F0.0003455425017277125
s(S'[[con]]'
p967
S'directed'
p968
S'starring'
p969
tp970
F0.0027643400138217
s(S'then'
p971
S'played'
p972
S'by'
p973
tp974
F0.0003455425017277125
s(S'is'
p975
S'produced'
p976
S'by'
p977
tp978
F0.0003455425017277125
s(S'fiction'
p979
S'thriller'
p980
S'film'
p981
tp982
F0.0003455425017277125
s(S'comedy'
p983
S'film'
p984
S'from'
p985
tp986
F0.0003455425017277125
s(S'is'
p987
S'revealed'
p988
S'that'
p989
tp990
F0.0003455425017277125
s(S'soundtrack'
p991
g845
g846
tp992
F0.000691085003455425
s(S'[[num]]'
p993
S'movie'
p994
S'[[con]]'
p995
tp996
F0.0003455425017277125
s(S'by'
p997
S'lt'
p998
S'ref'
p999
tp1000
F0.0003455425017277125
s(S'was'
p1001
S'hosted'
p1002
S'by'
p1003
tp1004
F0.0003455425017277125
s(g70
g71
S'based'
p1005
tp1006
F0.0003455425017277125
s(S'as'
p1007
S'[[det]]'
p1008
S'film'
p1009
tp1010
F0.0003455425017277125
s(S'comedy'
p1011
S'film'
p1012
S'written'
p1013
tp1014
F0.005183137525915688
s(S'[[det]]'
p1015
S'drama'
p1016
S'thriller'
p1017
tp1018
F0.0003455425017277125
s(S'already'
p1019
S'played'
p1020
S'with'
p1021
tp1022
F0.0003455425017277125
s(S'[[adj]]'
p1023
g746
g747
tp1024
F0.0003455425017277125
s(S'name'
p1025
S'gt'
p1026
S'by'
p1027
tp1028
F0.000691085003455425
s(S'fantasy'
p1029
S'action'
p1030
S'film'
p1031
tp1032
F0.0003455425017277125
s(S'[[adj]]'
p1033
g758
g759
tp1034
F0.0003455425017277125
s(S'television'
p1035
g782
g783
tp1036
F0.0003455425017277125
s(S'thriller'
p1037
S'starring'
p1038
S'[[con]]'
p1039
tp1040
F0.0003455425017277125
s(S'aka'
p1041
g254
g226
tp1042
F0.0003455425017277125
s(S'[[con]]'
p1043
S'directed'
p1044
S'with'
p1045
tp1046
F0.000691085003455425
s(S'was'
p1047
S'revealed'
p1048
S'to'
p1049
tp1050
F0.0003455425017277125
s(S'[[num]]'
p1051
S'horror'
p1052
g303
tp1053
F0.004492052522460262
s(S'where'
p1054
S'played'
p1055
S'with'
p1056
tp1057
F0.0003455425017277125
s(S'was'
p1058
S'hosted'
p1059
S'[[con]]'
p1060
tp1061
F0.0003455425017277125
s(S'was'
p1062
S'written'
p1063
S'for'
p1064
tp1065
F0.0003455425017277125
s(S'[[det]]'
p1066
g738
g739
tp1067
F0.0003455425017277125
s(S'era'
p1068
S'motion'
p1069
S'picture'
p1070
tp1071
F0.000691085003455425
s(g842
g843
S'played'
p1072
tp1073
F0.0003455425017277125
s(g933
g934
S'released'
p1074
tp1075
F0.0003455425017277125
s(S'[[adj]]'
p1076
S'created'
p1077
S'by'
p1078
tp1079
F0.0003455425017277125
s(S'entered'
p1080
S'into'
p1081
S'where'
p1082
tp1083
F0.0003455425017277125
s(S'also'
p1084
S'played'
p1085
S'along'
p1086
tp1087
F0.0003455425017277125
s(S'[[det]]'
p1088
S'film'
p1089
S'written'
p1090
tp1091
F0.0003455425017277125
s(S'gt'
p1092
S'[[pro]]'
p1093
S'lt'
p1094
tp1095
F0.0003455425017277125
s(S'is'
p1096
S'played'
p1097
S'by'
p1098
tp1099
F0.0003455425017277125
s(S'adapted'
p1100
g407
g408
tp1101
F0.0003455425017277125
s(S'thriller'
p1102
S'written'
p1103
S'[[con]]'
p1104
tp1105
F0.0003455425017277125
s(g1030
g1031
S'starring'
p1106
tp1107
F0.0017277125086385626
s(S'comedy'
p1108
S'crime'
p1109
S'film'
p1110
tp1111
F0.0003455425017277125
s(S'written'
p1112
S'directed'
p1113
S'by'
p1114
tp1115
F0.000691085003455425
s(S'gt'
p1116
S'written'
p1117
S'by'
p1118
tp1119
F0.0003455425017277125
s(S'adapted'
p1120
S'into'
p1121
S'[[num]]'
p1122
tp1123
F0.0003455425017277125
s(S'[[adj]]'
p1124
S'film'
p1125
S'produced'
p1126
tp1127
F0.0003455425017277125
s(S'was'
p1128
S'adapted'
p1129
S'starring'
p1130
tp1131
F0.0010366275051831375
s(S'was'
p1132
S'presented'
p1133
S'[[adj]]'
p1134
tp1135
F0.0003455425017277125
s(S'[[con]]'
p1136
S'directed'
p1137
S'gt'
p1138
tp1139
F0.0003455425017277125
s(S'ref'
p1140
S'gt'
p1141
S'worked'
p1142
tp1143
F0.0003455425017277125
s(S'edited'
p1144
S'[[con]]'
p1145
S'starring'
p1146
tp1147
F0.0003455425017277125
s(S'comedy'
p1148
S'starring'
p1149
S'with'
p1150
tp1151
F0.0003455425017277125
s(S'thriller'
p1152
S'film'
p1153
S'written'
p1154
tp1155
F0.000691085003455425
s(S'has'
p1156
S'played'
p1157
S'by'
p1158
tp1159
F0.0003455425017277125
s(g1093
g1094
S'ref'
p1160
tp1161
F0.000691085003455425
s(S'ref'
p1162
g403
g404
tp1163
F0.0003455425017277125
s(S'film'
p1164
S'made'
p1165
S'by'
p1166
tp1167
F0.0003455425017277125
s(g617
g936
S'crew'
p1168
tp1169
F0.000691085003455425
s(S'[[num]]'
p1170
S'directed'
p1171
S'[[con]]'
p1172
tp1173
F0.000691085003455425
s(S'retrieved'
p1174
S'[[num]]'
p1175
S'lt'
p1176
tp1177
F0.0003455425017277125
s(S'then'
p1178
S'played'
p1179
S'under'
p1180
tp1181
F0.0003455425017277125
s(g882
g883
S'ref'
p1182
tp1183
F0.0003455425017277125
s(S'[[adj]]'
p1184
S'film'
p1185
S'featuring'
p1186
tp1187
F0.0003455425017277125
s(S'was'
p1188
S'written'
p1189
S'directed'
p1190
tp1191
F0.000691085003455425
s(S'then'
p1192
S'played'
p1193
S'[[adj]]'
p1194
tp1195
F0.0003455425017277125
s(g906
g907
g703
tp1196
F0.0003455425017277125
s(S'[[num]]'
p1197
g543
g544
tp1198
F0.0024187975120939877
s(S'about'
p1199
S'directed'
p1200
S'[[con]]'
p1201
tp1202
F0.000691085003455425
s(S'starred'
p1203
S'[[con]]'
p1204
S'featured'
p1205
tp1206
F0.000691085003455425
s(S'also'
p1207
S'played'
p1208
S'under'
p1209
tp1210
F0.0003455425017277125
s(S'[[det]]'
p1211
g517
g53
tp1212
F0.0003455425017277125
s(S'comedy'
p1213
S'film'
p1214
S'starring'
p1215
tp1216
F0.00414651002073255
s(S'was'
p1217
S'directed'
p1218
g289
tp1219
F0.0010366275051831375
s(S'written'
p1220
S'directed'
p1221
S'[[con]]'
p1222
tp1223
F0.0010366275051831375
s(g346
g347
S'[[con]]'
p1224
tp1225
F0.000691085003455425
s(S'was'
p1226
S'adapted'
p1227
g1007
tp1228
F0.0003455425017277125
s(g420
g421
S'by'
p1229
tp1230
F0.000691085003455425
s(g1121
g1122
S'film'
p1231
tp1232
F0.0003455425017277125
s(S'was'
p1233
S'produced'
p1234
S'with'
p1235
tp1236
F0.0003455425017277125
s(S'written'
p1237
S'[[con]]'
p1238
S'starring'
p1239
tp1240
F0.00414651002073255
s(g275
S'crime'
p1241
S'drama'
p1242
tp1243
F0.0003455425017277125
s(S'action'
p1244
S'film'
p1245
S'about'
p1246
tp1247
F0.0003455425017277125
s(S'[[num]]'
p1248
S'[[adj]]'
p1249
S'ref'
p1250
tp1251
F0.0003455425017277125
s(S'in'
p1252
S'named'
p1253
S'after'
p1254
tp1255
F0.0003455425017277125
s(S'by'
p1256
S'[[con]]'
p1257
S'stars'
p1258
tp1259
F0.0010366275051831375
s(S'television'
p1260
S'series'
p1261
S'starring'
p1262
tp1263
F0.0010366275051831375
s(S'horror'
p1264
S'film'
p1265
S'directed'
p1266
tp1267
F0.0048375950241879755
s(S'drama'
p1268
S'film'
p1269
S'produced'
p1270
tp1271
F0.0010366275051831375
s(S'[[det]]'
p1272
S'sitcom'
p1273
S'starring'
p1274
tp1275
F0.0003455425017277125
s(S'still'
p1276
S'played'
p1277
S'for'
p1278
tp1279
F0.0003455425017277125
s(g709
S'starring'
p1280
S'[[con]]'
p1281
tp1282
F0.0003455425017277125
s(S'[[num]]'
p1283
g659
g660
tp1284
F0.000691085003455425
s(S'comedydrama'
p1285
S'film'
p1286
S'directed'
p1287
tp1288
F0.0017277125086385626
s(S'[[adj]]'
p1289
S'lt'
p1290
S'ref'
p1291
tp1292
F0.000691085003455425
s(S'been'
p1293
S'played'
p1294
S'by'
p1295
tp1296
F0.0003455425017277125
s(S'[[det]]'
p1297
S'movie'
p1298
S'[[num]]'
p1299
tp1300
F0.0003455425017277125
s(g960
g961
g234
tp1301
F0.0010366275051831375
s(S'where'
p1302
S'played'
p1303
S'[[con]]'
p1304
tp1305
F0.0003455425017277125
s(S'also'
p1306
S'features'
p1307
S'performances'
p1308
tp1309
F0.0003455425017277125
s(S'film'
p1310
S'written'
p1311
S'by'
p1312
tp1313
F0.0031098825155494126
s(S'film'
p1314
g101
g102
tp1315
F0.0082930200414651
s(S'film'
p1316
S'which'
p1317
S'stars'
p1318
tp1319
F0.000691085003455425
s(S'directed'
p1320
S'by'
p1321
S'[[con]]'
p1322
tp1323
F0.018659295093296474
s(S'drama'
p1324
S'film'
p1325
S'featuring'
p1326
tp1327
F0.0003455425017277125
s(S'[[con]]'
p1328
S'starring'
p1329
S'[[con]]'
p1330
tp1331
F0.011402902557014512
s(S'crime'
p1332
S'thriller'
p1333
S'film'
p1334
tp1335
F0.00138217000691085
s(S'[[det]]'
p1336
S'horror'
p1337
S'film'
p1338
tp1339
F0.0010366275051831375
s(S'ref'
p1340
S'gt'
p1341
S'signed'
p1342
tp1343
F0.0003455425017277125
s(S'[[det]]'
p1344
S'film'
p1345
S'by'
p1346
tp1347
F0.0003455425017277125
s(S'[[num]]'
p1348
S'film'
p1349
S'featuring'
p1350
tp1351
F0.000691085003455425
s(S'[[con]]'
p1352
S'featured'
p1353
S'[[con]]'
p1354
tp1355
F0.0003455425017277125
s(S'is'
p1356
S'hosted'
p1357
S'by'
p1358
tp1359
F0.0003455425017277125
s(S'thriller'
p1360
S'film'
p1361
S'released'
p1362
tp1363
F0.0003455425017277125
s(S'[[det]]'
p1364
S'language'
p1365
S'film'
p1366
tp1367
F0.000691085003455425
s(S'is'
p1368
S'directed'
p1369
S'by'
p1370
tp1371
F0.0010366275051831375
s(S'film'
p1372
S'[[adj]]'
p1373
S'featuring'
p1374
tp1375
F0.0003455425017277125
s(S'[[adj]]'
p1376
S'comedy'
p1377
S'starring'
p1378
tp1379
F0.0010366275051831375
s(S'film'
p1380
S'[[con]]'
p1381
S'stars'
p1382
tp1383
F0.0003455425017277125
s(S'[[num]]'
p1384
S'family'
p1385
S'film'
p1386
tp1387
F0.000691085003455425
s(S'was'
p1388
S'written'
p1389
S'about'
p1390
tp1391
F0.0003455425017277125
s(S'often'
p1392
S'played'
p1393
S'with'
p1394
tp1395
F0.0003455425017277125
s(g130
g85
g86
tp1396
F0.0003455425017277125
s(S'was'
p1397
S'created'
p1398
S'with'
p1399
tp1400
F0.0003455425017277125
s(S'starring'
p1401
S'[[con]]'
p1402
S'based'
p1403
tp1404
F0.0003455425017277125
s(g1008
g1009
S'in'
p1405
tp1406
F0.0003455425017277125
s(g907
g703
g704
tp1407
F0.0003455425017277125
s(S'were'
p1408
S'played'
p1409
S'by'
p1410
tp1411
F0.0003455425017277125
s(S'film'
p1412
S'[[adj]]'
p1413
S'starring'
p1414
tp1415
F0.0003455425017277125
s(S'written'
p1416
S'by'
p1417
S'[[con]]'
p1418
tp1419
F0.0003455425017277125
s(S'science'
p1420
S'film'
p1421
S'directed'
p1422
tp1423
F0.0003455425017277125
s(S'[[num]]'
p1424
S'documentary'
p1425
S'film'
p1426
tp1427
F0.002073255010366275
s(S'show'
p1428
S'produced'
p1429
S'by'
p1430
tp1431
F0.0003455425017277125
s(S'[[adj]]'
p1432
S'film'
p1433
S'by'
p1434
tp1435
F0.000691085003455425
s(S'[[det]]'
p1436
g991
g845
tp1437
F0.000691085003455425
s(S'[[det]]'
p1438
S'directed'
p1439
S'by'
p1440
tp1441
F0.0003455425017277125
s(S'film'
p1442
S'[[con]]'
p1443
S'[[adj]]'
p1444
tp1445
F0.0003455425017277125
s(S'was'
p1446
S'written'
p1447
S'to'
p1448
tp1449
F0.0003455425017277125
s(S'which'
p1450
S'starred'
p1451
S'with'
p1452
tp1453
F0.0003455425017277125
s(S'crime'
p1454
S'drama'
p1455
S'film'
p1456
tp1457
F0.002073255010366275
s(S'adapted'
p1458
S'starring'
p1459
S'as'
p1460
tp1461
F0.0003455425017277125
s(S'ref'
p1462
S'gt'
p1463
S'when'
p1464
tp1465
F0.0003455425017277125
s(S'comedy'
p1466
S'film'
p1467
S'released'
p1468
tp1469
F0.0003455425017277125
s(g27
g695
g696
tp1470
F0.0003455425017277125
s(g572
g573
g929
tp1471
F0.008638562543192813
s(S'also'
p1472
S'stars'
p1473
S'with'
p1474
tp1475
F0.0003455425017277125
s(S'[[det]]'
p1476
S'documentary'
p1477
S'film'
p1478
tp1479
F0.0003455425017277125
s(S'[[num]]'
p1480
S'romance'
p1481
S'film'
p1482
tp1483
F0.0017277125086385626
s(S'directed'
p1484
S'[[con]]'
p1485
S'starred'
p1486
tp1487
F0.002073255010366275
s(S'also'
p1488
S'voiced'
p1489
S'by'
p1490
tp1491
F0.0003455425017277125
s(S'science'
p1492
g285
g286
tp1493
F0.002073255010366275
s(S'film'
p1494
g129
g130
tp1495
F0.0003455425017277125
s(S'gt'
p1496
S'lt'
p1497
S'gt'
p1498
tp1499
F0.0003455425017277125
s(S'[[det]]'
p1500
g607
g608
tp1501
F0.0003455425017277125
s(S'directed'
p1502
g653
g654
tp1503
F0.000691085003455425
s(S'[[num]]'
p1504
S'mystery'
p1505
S'thriller'
p1506
tp1507
F0.0003455425017277125
s(S'be'
p1508
S'directed'
p1509
S'[[con]]'
p1510
tp1511
F0.0003455425017277125
s(g1482
S'starring'
p1512
S'[[con]]'
p1513
tp1514
F0.013476157567380787
s(S'cast'
p1515
S'comedydrama'
p1516
S'film'
p1517
tp1518
F0.0003455425017277125
s(S'that'
p1519
S'featured'
p1520
S'[[con]]'
p1521
tp1522
F0.0003455425017277125
s(S'war'
p1523
S'film'
p1524
S'directed'
p1525
tp1526
F0.00138217000691085
s(g984
g985
S'written'
p1527
tp1528
F0.0003455425017277125
s(S'ref'
p1529
S'name'
p1530
g925
tp1531
F0.002073255010366275
s(g1081
g1082
S'won'
p1532
tp1533
F0.0003455425017277125
s(S'[[adj]]'
p1534
S'collaboration'
p1535
S'between'
p1536
tp1537
F0.0003455425017277125
s(S'movie'
p1538
S'directed'
p1539
S'starring'
p1540
tp1541
F0.0003455425017277125
s(S'assassination'
p1542
g317
g318
tp1543
F0.0003455425017277125
s(S'[[det]]'
p1544
S'collaboration'
p1545
S'[[con]]'
p1546
tp1547
F0.0003455425017277125
s(S'[[det]]'
p1548
S'movie'
p1549
S'starring'
p1550
tp1551
F0.000691085003455425
s(S'[[adj]]'
p1552
S'film'
p1553
S'about'
p1554
tp1555
F0.0003455425017277125
s(S'[[det]]'
p1556
S'drama'
p1557
S'film'
p1558
tp1559
F0.000691085003455425
s(g1549
g1550
S'[[con]]'
p1560
tp1561
F0.0024187975120939877
s(S'film'
p1562
g699
g700
tp1563
F0.0010366275051831375
s(S'[[num]]'
p1564
S'thriller'
p1565
S'film'
p1566
tp1567
F0.005874222529371113
s(S'[[num]]'
p1568
S'written'
p1569
S'[[con]]'
p1570
tp1571
F0.0003455425017277125
s(S'[[det]]'
p1572
S'inspiration'
p1573
S'for'
p1574
tp1575
F0.0003455425017277125
s(S'page'
p1576
S'[[num]]'
p1577
S'lt'
p1578
tp1579
F0.000691085003455425
s(S'was'
p1580
S'played'
p1581
S'by'
p1582
tp1583
F0.0003455425017277125
s(S'[[num]]'
p1584
S'drama'
p1585
S'starring'
p1586
tp1587
F0.000691085003455425
s(S'[[det]]'
p1588
S'film'
p1589
S'directed'
p1590
tp1591
F0.0031098825155494126
s(S'was'
p1592
S'voiced'
p1593
S'[[con]]'
p1594
tp1595
F0.0003455425017277125
s(S'[[num]]'
p1596
g533
g534
tp1597
F0.0017277125086385626
s(S'be'
p1598
S'named'
p1599
S'after'
p1600
tp1601
F0.0003455425017277125
s(S'[[adj]]'
p1602
S'film'
p1603
S'where'
p1604
tp1605
F0.0003455425017277125
s(g1444
S'comedy'
p1606
S'written'
p1607
tp1608
F0.0003455425017277125
s(S'[[num]]'
p1609
S'directed'
p1610
S'starring'
p1611
tp1612
F0.000691085003455425
s(S'[[adj]]'
p1613
S'played'
p1614
S'by'
p1615
tp1616
F0.0003455425017277125
s(g968
g969
S'as'
p1617
tp1618
F0.0003455425017277125
s(S'film'
p1619
S'directed'
p1620
S'as'
p1621
tp1622
F0.000691085003455425
s(S'[[num]]'
p1623
g1316
g1317
tp1624
F0.000691085003455425
s(S'features'
p1625
S'performances'
p1626
S'of'
p1627
tp1628
F0.0003455425017277125
s(g663
S'played'
p1629
S'by'
p1630
tp1631
F0.0003455425017277125
s(S'[[det]]'
p1632
g1542
g317
tp1633
F0.0003455425017277125
s(S'released'
p1634
S'starring'
p1635
S'[[con]]'
p1636
tp1637
F0.000691085003455425
s(S'is'
p1638
S'produced'
p1639
S'[[con]]'
p1640
tp1641
F0.0003455425017277125
s(S'known'
p1642
S'is'
p1643
S'[[adj]]'
p1644
tp1645
F0.0003455425017277125
s(g330
g331
S'by'
p1646
tp1647
F0.0003455425017277125
s(S'drama'
p1648
S'film'
p1649
S'[[adj]]'
p1650
tp1651
F0.000691085003455425
s(S'by'
p1652
S'film'
p1653
S'stars'
p1654
tp1655
F0.0003455425017277125
s(g1467
g1468
S'starring'
p1656
tp1657
F0.0010366275051831375
s(S'crime'
p1658
S'drama'
p1659
S'starring'
p1660
tp1661
F0.0003455425017277125
s(g153
g154
S'directed'
p1662
tp1663
F0.0010366275051831375
s(S'[[num]]'
p1664
S'action'
p1665
S'film'
p1666
tp1667
F0.004492052522460262
s(S'[[con]]'
p1668
S'played'
p1669
S'with'
p1670
tp1671
F0.0003455425017277125
s(S'comedy'
p1672
S'directed'
p1673
S'written'
p1674
tp1675
F0.0003455425017277125
s(S'film'
p1676
S'[[adj]]'
p1677
S'directed'
p1678
tp1679
F0.000691085003455425
s(S'directed'
p1680
g1328
g1329
tp1681
F0.03178991015894955
s(S'film'
p1682
S'directed'
p1683
S'that'
p1684
tp1685
F0.0003455425017277125
s(g985
g1527
S'[[con]]'
p1686
tp1687
F0.0003455425017277125
s(S'[[det]]'
p1688
S'starring'
p1689
S'[[con]]'
p1690
tp1691
F0.0003455425017277125
s(S'as'
p1692
S'played'
p1693
S'by'
p1694
tp1695
F0.0003455425017277125
s(S'stars'
p1696
g93
g94
tp1697
F0.0003455425017277125
s(S'[[num]]'
p1698
S'gt'
p1699
S'[[adj]]'
p1700
tp1701
F0.0003455425017277125
s(g580
g581
S'starring'
p1702
tp1703
F0.000691085003455425
s(S'film'
p1704
g1680
g1328
tp1705
F0.0304077401520387
s(S'[[num]]'
p1706
g1523
g1524
tp1707
F0.0017277125086385626
s(S'directed'
p1708
S'by'
p1709
S'starring'
p1710
tp1711
F0.01243953006219765
s(S'picture'
p1712
S'directed'
p1713
S'by'
p1714
tp1715
F0.0003455425017277125
s(g735
g736
S'gt'
p1716
tp1717
F0.007947477539737388
s(S'by'
p1718
S'starring'
p1719
S'[[det]]'
p1720
tp1721
F0.0003455425017277125
s(S'accessed'
p1722
S'[[num]]'
p1723
S'lt'
p1724
tp1725
F0.000691085003455425
s(S'comedy'
p1726
S'[[adj]]'
p1727
S'starring'
p1728
tp1729
F0.0003455425017277125
s(S'was'
p1730
S'produced'
p1731
S'from'
p1732
tp1733
F0.0003455425017277125
s(S'[[num]]'
p1734
g144
g145
tp1735
F0.0024187975120939877
s(S'ref'
p1736
g810
g811
tp1737
F0.0010366275051831375
s(S'adventure'
p1738
S'film'
p1739
S'starring'
p1740
tp1741
F0.00138217000691085
s(S'starring'
p1742
g571
g572
tp1743
F0.0027643400138217
s(S'footage'
p1744
S'[[con]]'
p1745
S'interviews'
p1746
tp1747
F0.000691085003455425
s(S'[[det]]'
p1748
S'lead'
p1749
S'roles'
p1750
tp1751
F0.0003455425017277125
s(S'[[adj]]'
p1752
S'comedy'
p1753
g1704
tp1754
F0.007256392536281963
s(g1385
g1386
S'directed'
p1755
tp1756
F0.0010366275051831375
s(S'[[con]]'
p1757
S'directed'
p1758
S'which'
p1759
tp1760
F0.0003455425017277125
s(S'stars'
p1761
S'[[con]]'
p1762
g1368
tp1763
F0.0003455425017277125
s(S'[[adj]]'
p1764
S'drama'
p1765
S'starring'
p1766
tp1767
F0.0003455425017277125
s(S'is'
p1768
S'directed'
p1769
S'[[con]]'
p1770
tp1771
F0.00138217000691085
s(S'ref'
p1772
S'gt'
p1773
S'to'
p1774
tp1775
F0.0003455425017277125
s(S'[[det]]'
p1776
S'war'
p1777
S'film'
p1778
tp1779
F0.0003455425017277125
s(g1138
S'[[con]]'
p1780
S'starring'
p1781
tp1782
F0.0003455425017277125
s(S'[[det]]'
p1783
S'film'
p1784
S'comedy'
p1785
tp1786
F0.0003455425017277125
s(S'comedy'
p1787
g1412
g1413
tp1788
F0.0003455425017277125
s(S'was'
p1789
S'produced'
p1790
S'by'
p1791
tp1792
F0.0003455425017277125
s(S'lt'
p1793
g329
g330
tp1794
F0.0003455425017277125
s(g1311
g1312
S'starring'
p1795
tp1796
F0.0003455425017277125
s(S'retrieved'
p1797
S'[[num]]'
p1798
S'ref'
p1799
tp1800
F0.0003455425017277125
s(S'ref'
p1801
S'gt'
p1802
S'moved'
p1803
tp1804
F0.0003455425017277125
s(S'[[det]]'
p1805
S'collaboration'
p1806
S'with'
p1807
tp1808
F0.0003455425017277125
s(S'[[num]]'
p1809
S'hosted'
p1810
S'by'
p1811
tp1812
F0.0003455425017277125
s(S'[[det]]'
p1813
S'film'
p1814
S'starring'
p1815
tp1816
F0.000691085003455425
s(g1317
g1318
S'[[con]]'
p1817
tp1818
F0.0003455425017277125
s(S'[[num]]'
p1819
g1213
g1214
tp1820
F0.009329647546648237
s(g154
g1662
S'by'
p1821
tp1822
F0.0034554250172771253
s(S'was'
p1823
S'written'
p1824
S'produced'
p1825
tp1826
F0.0003455425017277125
s(S'[[adj]]'
p1827
S'film'
p1828
S'to'
p1829
tp1830
F0.000691085003455425
s(g429
S'directed'
p1831
S'based'
p1832
tp1833
F0.000691085003455425
s(g150
S'was'
p1834
S'written'
p1835
tp1836
F0.0003455425017277125
s(S'television'
p1837
S'series'
p1838
S'hosted'
p1839
tp1840
F0.0003455425017277125
s(S'in'
p1841
S'voiced'
p1842
S'by'
p1843
tp1844
F0.0003455425017277125
s(S'produced'
p1845
S'directed'
p1846
S'by'
p1847
tp1848
F0.0010366275051831375
s(S'ref'
p1849
S'gt'
p1850
S'took'
p1851
tp1852
F0.0010366275051831375
s(g663
S'lt'
p1853
S'[[num]]'
p1854
tp1855
F0.0003455425017277125
s(g644
g645
S'by'
p1856
tp1857
F0.0003455425017277125
s(S'to'
p1858
S'feature'
p1859
S'as'
p1860
tp1861
F0.0003455425017277125
s(S'was'
p1862
S'produced'
p1863
S'[[con]]'
p1864
tp1865
F0.0010366275051831375
s(S'was'
p1866
S'written'
p1867
S'that'
p1868
tp1869
F0.0003455425017277125
s(g358
g359
S'was'
p1870
tp1871
F0.0010366275051831375
s(S'[[det]]'
p1872
S'television'
p1873
S'movie'
p1874
tp1875
F0.000691085003455425
s(g1378
S'[[con]]'
p1876
S'written'
p1877
tp1878
F0.0003455425017277125
s(S'was'
p1879
g1502
g653
tp1880
F0.0048375950241879755
s(S'[[det]]'
p1881
g1260
g1261
tp1882
F0.0017277125086385626
s(g1298
g1299
S'starring'
p1883
tp1884
F0.0003455425017277125
s(g1828
g1829
S'feature'
p1885
tp1886
F0.000691085003455425
s(S'[[con]]'
p1887
S'stars'
p1888
S'with'
p1889
tp1890
F0.0003455425017277125
s(S'[[adj]]'
p1891
g45
g46
tp1892
F0.002073255010366275
s(g466
g467
S'voices'
p1893
tp1894
F0.0003455425017277125
s(g1758
g1759
S'starred'
p1895
tp1896
F0.0003455425017277125
s(S'picture'
p1897
S'drama'
p1898
S'starring'
p1899
tp1900
F0.0003455425017277125
s(S'also'
p1901
S'features'
p1902
S'[[det]]'
p1903
tp1904
F0.0003455425017277125
s(S'[[con]]'
p1905
S'interviews'
p1906
S'with'
p1907
tp1908
F0.0003455425017277125
s(S'science'
p1909
g715
g716
tp1910
F0.000691085003455425
s(S'[[adj]]'
p1911
S'documentary'
p1912
S'film'
p1913
tp1914
F0.0003455425017277125
s(S'[[adj]]'
p1915
S'written'
p1916
S'by'
p1917
tp1918
F0.0003455425017277125
s(S'gt'
p1919
S'[[adj]]'
p1920
S'feud'
p1921
tp1922
F0.0003455425017277125
s(S'[[num]]'
p1923
S'mystery'
p1924
S'crime'
p1925
tp1926
F0.0003455425017277125
s(S'motion'
p1927
S'picture'
p1928
S'starring'
p1929
tp1930
F0.000691085003455425
s(g428
g429
g1831
tp1931
F0.013821700069108501
s(S'ref'
p1932
S'gt'
p1933
g786
tp1934
F0.0038009675190048375
s(S'[[adj]]'
p1935
g1492
g285
tp1936
F0.0003455425017277125
s(g270
g271
S'stars'
p1937
tp1938
F0.0003455425017277125
s(S'was'
p1939
S'played'
p1940
S'[[con]]'
p1941
tp1942
F0.0003455425017277125
s(g902
g903
S'starring'
p1943
tp1944
F0.0010366275051831375
s(S'[[adj]]'
p1945
S'cast'
p1946
S'including'
p1947
tp1948
F0.0003455425017277125
s(S'[[num]]'
p1949
g1420
g1421
tp1950
F0.0003455425017277125
s(S'[[con]]'
p1951
S'[[adj]]'
p1952
S'starring'
p1953
tp1954
F0.0003455425017277125
s(S'has'
p1955
S'played'
p1956
S'as'
p1957
tp1958
F0.0003455425017277125
s(S'science'
p1959
g963
g964
tp1960
F0.0003455425017277125
s(S'[[det]]'
p1961
S'soundtrack'
p1962
S'of'
p1963
tp1964
F0.0003455425017277125
s(g342
g343
S'starring'
p1965
tp1966
F0.0003455425017277125
s(S'feature'
p1967
S'film'
p1968
S'directed'
p1969
tp1970
F0.0027643400138217
s(S'ref'
p1971
g1116
g1117
tp1972
F0.0003455425017277125
s(g807
g808
S'film'
p1973
tp1974
F0.0003455425017277125
s(S'featured'
p1975
g256
g257
tp1976
F0.0003455425017277125
s(g1924
g1925
S'film'
p1977
tp1978
F0.0003455425017277125
s(g50
g51
S'[[con]]'
p1979
tp1980
F0.0003455425017277125
s(g1241
g1242
S'directed'
p1981
tp1982
F0.0003455425017277125
s(S'had'
p1983
S'played'
p1984
S'by'
p1985
tp1986
F0.0003455425017277125
s(S'is'
p1987
S'written'
p1988
S'by'
p1989
tp1990
F0.0003455425017277125
s(S'[[num]]'
p1991
S'produced'
p1992
S'by'
p1993
tp1994
F0.0003455425017277125
s(g697
g1951
g1952
tp1995
F0.0003455425017277125
s(S'film'
p1996
g691
g692
tp1997
F0.0003455425017277125
s(S'directed'
p1998
S'[[con]]'
p1999
S'stars'
p2000
tp2001
F0.0055286800276434
s(S'[[num]]'
p2002
S'comedy'
p2003
S'starring'
p2004
tp2005
F0.0010366275051831375
s(S'[[det]]'
p2006
S'crime'
p2007
S'film'
p2008
tp2009
F0.0003455425017277125
s(S'[[adj]]'
p2010
S'presented'
p2011
S'by'
p2012
tp2013
F0.0003455425017277125
s(S'written'
p2014
S'[[con]]'
p2015
S'was'
p2016
tp2017
F0.0003455425017277125
s(S'[[adj]]'
p2018
S'mystery'
p2019
S'film'
p2020
tp2021
F0.0003455425017277125
s(S'earned'
p2022
S'[[num]]'
p2023
S'lt'
p2024
tp2025
F0.0003455425017277125
s(g680
g681
S'drama'
p2026
tp2027
F0.0003455425017277125
s(g830
g831
S'of'
p2028
tp2029
F0.0003455425017277125
s(S'stars'
p2030
S'[[con]]'
p2031
g1748
tp2032
F0.0003455425017277125
s(S'ref'
p2033
S'gt'
p2034
S'[[con]]'
p2035
tp2036
F0.0017277125086385626
s(S'directed'
p2037
g1652
g1653
tp2038
F0.000691085003455425
s(S'was'
p2039
S'named'
p2040
S'after'
p2041
tp2042
F0.0003455425017277125
s(S'[[con]]'
p2043
S'features'
p2044
S'[[con]]'
p2045
tp2046
F0.0003455425017277125
s(S'also'
p2047
S'played'
p2048
S'[[det]]'
p2049
tp2050
F0.0003455425017277125
s(S'[[adj]]'
p2051
S'film'
p2052
S'directed'
p2053
tp2054
F0.007601935038009675
s(S'[[con]]'
p2055
S'lead'
p2056
S'roles'
p2057
tp2058
F0.0003455425017277125
s(g1530
g925
g926
tp2059
F0.000691085003455425
s(S'[[num]]'
p2060
S'produced'
p2061
S'[[con]]'
p2062
tp2063
F0.0003455425017277125
s(S'[[num]]'
p2064
S'lt'
p2065
g353
tp2066
F0.0065653075328265375
s(S'also'
p2067
S'stars'
p2068
S'[[con]]'
p2069
tp2070
F0.000691085003455425
s(S'[[adj]]'
p2071
S'film'
p2072
S'that'
p2073
tp2074
F0.000691085003455425
s(S'known'
p2075
S'is'
p2076
S'film'
p2077
tp2078
F0.0003455425017277125
s(g471
S'[[con]]'
p2079
S'directed'
p2080
tp2081
F0.00414651002073255
s(g474
g475
S'starring'
p2082
tp2083
F0.002073255010366275
s(g149
g150
g1834
tp2084
F0.0003455425017277125
s(S'[[con]]'
p2085
S'starred'
p2086
S'[[con]]'
p2087
tp2088
F0.000691085003455425
s(g755
g756
S'written'
p2089
tp2090
F0.0003455425017277125
s(g312
g313
S'by'
p2091
tp2092
F0.0003455425017277125
s(S'[[det]]'
p2093
g188
g189
tp2094
F0.0003455425017277125
s(S'have'
p2095
S'played'
p2096
S'with'
p2097
tp2098
F0.0003455425017277125
s(S'[[num]]'
p2099
g519
g520
tp2100
F0.0003455425017277125
s(g384
g385
S'[[con]]'
p2101
tp2102
F0.0003455425017277125
s(g708
g709
g1280
tp2103
F0.0003455425017277125
s(S'album'
p2104
S'directed'
p2105
S'by'
p2106
tp2107
F0.0003455425017277125
s(S'language'
p2108
S'film'
p2109
S'written'
p2110
tp2111
F0.0003455425017277125
s(S'[[con]]'
p2112
S'starring'
p2113
S'as'
p2114
tp2115
F0.0010366275051831375
s(g482
g483
S'[[num]]'
p2116
tp2117
F0.0003455425017277125
s(S'by'
p2118
S'[[con]]'
p2119
S'featuring'
p2120
tp2121
F0.0003455425017277125
s(S'directed'
p2122
g2043
g2044
tp2123
F0.000691085003455425
s(S'[[adj]]'
p2124
S'comedy'
p2125
S'[[adj]]'
p2126
tp2127
F0.0010366275051831375
s(S'[[adj]]'
p2128
S'romance'
p2129
S'film'
p2130
tp2131
F0.0003455425017277125
s(g1273
g1274
S'[[con]]'
p2132
tp2133
F0.0003455425017277125
s(g248
S'[[con]]'
p2134
S'written'
p2135
tp2136
F0.0003455425017277125
s(g934
g1074
S'starring'
p2137
tp2138
F0.00138217000691085
s(g1227
g1007
g1008
tp2139
F0.0003455425017277125
s(S'is'
p2140
S'named'
p2141
S'after'
p2142
tp2143
F0.0003455425017277125
s(g1009
g1405
S'[[num]]'
p2144
tp2145
F0.0003455425017277125
s(g756
g2089
S'[[con]]'
p2146
tp2147
F0.0003455425017277125
s(S'fiction'
p2148
S'film'
p2149
S'starring'
p2150
tp2151
F0.000691085003455425
s(S'[[det]]'
p2152
S'written'
p2153
S'produced'
p2154
tp2155
F0.0003455425017277125
s(S'directed'
p2156
S'written'
p2157
S'by'
p2158
tp2159
F0.0017277125086385626
s(S'[[num]]'
p2160
S'written'
p2161
S'by'
p2162
tp2163
F0.0003455425017277125
s(S'been'
p2164
S'written'
p2165
S'by'
p2166
tp2167
F0.0003455425017277125
s(S'[[det]]'
p2168
S'film'
p2169
S'released'
p2170
tp2171
F0.0003455425017277125
s(S'have'
p2172
S'featured'
p2173
S'[[adj]]'
p2174
tp2175
F0.0003455425017277125
s(S'romance'
p2176
S'film'
p2177
S'directed'
p2178
tp2179
F0.00138217000691085
s(g1481
g1482
g1512
tp2180
F0.000691085003455425
s(S'[[num]]'
p2181
S'played'
p2182
S'with'
p2183
tp2184
F0.0003455425017277125
s(S'[[det]]'
p2185
g1996
g691
tp2186
F0.0003455425017277125
s(S'film'
p2187
g1199
g1200
tp2188
F0.000691085003455425
s(S'[[adj]]'
p2189
S'fantasy'
p2190
S'film'
p2191
tp2192
F0.0003455425017277125
s(g1683
g1684
S'starred'
p2193
tp2194
F0.0003455425017277125
s(g1485
g1486
S'by'
p2195
tp2196
F0.0003455425017277125
s(g663
g881
g882
tp2197
F0.0003455425017277125
s(S'[[det]]'
p2198
S'science'
p2199
S'fiction'
p2200
tp2201
F0.0003455425017277125
s(g1425
g1426
S'directed'
p2202
tp2203
F0.0017277125086385626
s(S'also'
p2204
g1642
g1643
tp2205
F0.0027643400138217
s(S'film'
p2206
g1112
g1113
tp2207
F0.0010366275051831375
s(S'members'
p2208
g615
g616
tp2209
F0.0003455425017277125
s(S'[[num]]'
p2210
g825
g826
tp2211
F0.000691085003455425
s(S'with'
p2212
S'played'
p2213
S'by'
p2214
tp2215
F0.0003455425017277125
s(g663
S'written'
p2216
S'[[con]]'
p2217
tp2218
F0.0003455425017277125
s(S'ref'
p2219
S'gt'
p2220
S'appointed'
p2221
tp2222
F0.0003455425017277125
s(g1870
S'written'
p2223
S'[[con]]'
p2224
tp2225
F0.0038009675190048375
s(S'[[adj]]'
p2226
g675
g676
tp2227
F0.0017277125086385626
s(S'also'
p2228
S'played'
p2229
S'by'
p2230
tp2231
F0.0003455425017277125
s(S'action'
p2232
g1676
g1677
tp2233
F0.0003455425017277125
s(S'[[num]]'
p2234
g1332
g1333
tp2235
F0.00138217000691085
s(S'[[num]]'
p2236
S'stars'
p2237
S'[[con]]'
p2238
tp2239
F0.0003455425017277125
s(S'be'
p2240
S'produced'
p2241
S'by'
p2242
tp2243
F0.0003455425017277125
s(g1933
g786
g787
tp2244
F0.0003455425017277125
s(g1824
g1825
S'[[con]]'
p2245
tp2246
F0.000691085003455425
s(S'then'
p2247
S'revealed'
p2248
S'that'
p2249
tp2250
F0.0003455425017277125
s(S'motion'
p2251
g1897
g1898
tp2252
F0.0003455425017277125
s(g1221
g1222
g1144
tp2253
F0.000691085003455425
s(g872
g873
S'film'
p2254
tp2255
F0.0003455425017277125
s(g995
g1845
g1846
tp2256
F0.0003455425017277125
s(S'gt'
p2257
S'as'
p2258
S'records'
p2259
tp2260
F0.0003455425017277125
s(g1762
g1368
g1369
tp2261
F0.0003455425017277125
s(g620
g621
S'stars'
p2262
tp2263
F0.0010366275051831375
s(S'later'
p2264
S'revealed'
p2265
S'that'
p2266
tp2267
F0.0003455425017277125
s(S'war'
p2268
S'film'
p2269
S'starring'
p2270
tp2271
F0.0010366275051831375
s(S'[[det]]'
p2272
S'color'
p2273
S'film'
p2274
tp2275
F0.000691085003455425
s(S'[[adj]]'
p2276
S'revealed'
p2277
S'that'
p2278
tp2279
F0.0003455425017277125
s(g1928
g1929
S'[[con]]'
p2280
tp2281
F0.000691085003455425
s(g1307
g1308
S'from'
p2282
tp2283
F0.0003455425017277125
s(S'[[adj]]'
p2284
g1102
g1103
tp2285
F0.0003455425017277125
s(g696
g697
g1951
tp2286
F0.0003455425017277125
s(S'[[adj]]'
p2287
S'film'
p2288
S'noir'
p2289
tp2290
F0.0003455425017277125
s(S'[[num]]'
p2291
g879
g875
tp2292
F0.0003455425017277125
s(S'is'
p2293
S'presented'
p2294
S'by'
p2295
tp2296
F0.0003455425017277125
s(S'is'
p2297
S'named'
p2298
S'[[con]]'
p2299
tp2300
F0.0003455425017277125
s(g803
g804
S'adventure'
p2301
tp2302
F0.0003455425017277125
s(S'is'
p2303
S'directed'
p2304
S'at'
p2305
tp2306
F0.0003455425017277125
s(S'set'
p2307
S'[[con]]'
p2308
S'lt'
p2309
tp2310
F0.000691085003455425
s(S'science'
p2311
g979
g980
tp2312
F0.0003455425017277125
s(S'[[num]]'
p2313
S'mystery'
p2314
S'film'
p2315
tp2316
F0.0017277125086385626
s(g1137
g1138
g1780
tp2317
F0.0003455425017277125
s(S'known'
p2318
S'is'
p2319
g337
tp2320
F0.0027643400138217
s(S'documentary'
p2321
S'film'
p2322
S'starring'
p2323
tp2324
F0.0003455425017277125
s(S'[[con]]'
p2325
S'hosted'
p2326
S'by'
p2327
tp2328
F0.0003455425017277125
s(S'[[num]]'
p2329
S'comedy'
p2330
S'drama'
p2331
tp2332
F0.000691085003455425
s(g304
g305
S'by'
p2333
tp2334
F0.000691085003455425
s(S'ref'
p2335
S'gt'
p2336
S'appeared'
p2337
tp2338
F0.000691085003455425
s(g1165
g1166
S'starring'
p2339
tp2340
F0.0003455425017277125
s(S'[[adj]]'
p2341
g117
g118
tp2342
F0.002073255010366275
s(S'ref'
p2343
S'gt'
p2344
S'had'
p2345
tp2346
F0.0003455425017277125
s(S'[[det]]'
p2347
g942
g943
tp2348
F0.0003455425017277125
s(S'[[adj]]'
p2349
S'directed'
p2350
g619
tp2351
F0.0003455425017277125
s(g170
g267
S'directed'
p2352
tp2353
F0.000691085003455425
s(g1753
g1704
g1680
tp2354
F0.0110573600552868
s(g1606
g1607
S'[[con]]'
p2355
tp2356
F0.0003455425017277125
s(S'[[adj]]'
p2357
S'comedy'
p2358
S'directed'
p2359
tp2360
F0.000691085003455425
s(S'[[con]]'
p2361
S'voiced'
p2362
S'by'
p2363
tp2364
F0.0003455425017277125
s(g26
g27
g695
tp2365
F0.0003455425017277125
s(S'gt'
p2366
g1572
g1573
tp2367
F0.0003455425017277125
s(g298
g299
S'starring'
p2368
tp2369
F0.0010366275051831375
s(S'[[det]]'
p2370
S'named'
p2371
S'after'
p2372
tp2373
F0.0003455425017277125
s(S'[[adj]]'
p2374
g1108
g1109
tp2375
F0.0003455425017277125
s(g1497
g1498
S'[[con]]'
p2376
tp2377
F0.0003455425017277125
s(S'was'
p2378
g9
g10
tp2379
F0.0003455425017277125
s(g71
g1005
S'directed'
p2380
tp2381
F0.0003455425017277125
s(g1831
g1832
S'by'
p2382
tp2383
F0.000691085003455425
s(S'[[con]]'
p2384
g1237
g1238
tp2385
F0.002073255010366275
s(S'[[det]]'
p2386
S'comedy'
p2387
S'action'
p2388
tp2389
F0.0003455425017277125
s(g1125
g1126
S'directed'
p2390
tp2391
F0.000691085003455425
s(S'[[num]]'
p2392
g37
g38
tp2393
F0.000691085003455425
s(S'which'
p2394
S'featured'
p2395
S'[[det]]'
p2396
tp2397
F0.0003455425017277125
s(S'[[num]]'
p2398
g1037
g1038
tp2399
F0.0003455425017277125
s(S'[[adj]]'
p2400
S'film'
p2401
g1742
tp2402
F0.0031098825155494126
s(g1677
g1678
S'by'
p2403
tp2404
F0.0017277125086385626
s(S'comedydrama'
p2405
S'film'
p2406
S'starring'
p2407
tp2408
F0.0017277125086385626
s(g1999
g2000
S'[[con]]'
p2409
tp2410
F0.002073255010366275
s(S'[[det]]'
p2411
S'collaboration'
p2412
S'between'
p2413
tp2414
F0.0003455425017277125
s(g1377
g1378
g1876
tp2415
F0.0010366275051831375
s(S'features'
p2416
g541
g527
tp2417
F0.00138217000691085
s(g2387
g2388
S'film'
p2418
tp2419
F0.0003455425017277125
s(S'ref'
p2420
S'gt'
p2421
S'work'
p2422
tp2423
F0.0003455425017277125
s(g1269
g1270
S'by'
p2424
tp2425
F0.0003455425017277125
s(g994
g995
g1845
tp2426
F0.0003455425017277125
s(S'[[con]]'
p2427
S'produced'
p2428
S'by'
p2429
tp2430
F0.0048375950241879755
s(g63
S'[[con]]'
p2431
S'starring'
p2432
tp2433
F0.0003455425017277125
s(g1665
g1666
S'directed'
p2434
tp2435
F0.0034554250172771253
s(g1643
g1644
S'film'
p2436
tp2437
F0.0003455425017277125
s(S'is'
p2438
g449
g450
tp2439
F0.0024187975120939877
s(S'also'
p2440
S'played'
p2441
S'[[pro]]'
p2442
tp2443
F0.0003455425017277125
s(g133
g134
S'[[con]]'
p2444
tp2445
F0.000691085003455425
s(S'[[adj]]'
p2446
S'thriller'
p2447
S'directed'
p2448
tp2449
F0.0003455425017277125
s(S'documentary'
p2450
S'film'
p2451
S'written'
p2452
tp2453
F0.0003455425017277125
s(S'directed'
p2454
g411
g412
tp2455
F0.0003455425017277125
s(S'[[det]]'
p2456
g1466
g1467
tp2457
F0.00138217000691085
s(S'also'
p2458
S'featured'
p2459
S'[[con]]'
p2460
tp2461
F0.0003455425017277125
s(S'film'
p2462
g774
g775
tp2463
F0.0010366275051831375
s(S'won'
p2464
S'awards'
p2465
S'for'
p2466
tp2467
F0.0003455425017277125
s(S'features'
p2468
S'performances'
p2469
S'by'
p2470
tp2471
F0.0003455425017277125
s(g1443
g1444
g1606
tp2472
F0.0003455425017277125
s(S'ensemble'
p2473
S'cast'
p2474
S'including'
p2475
tp2476
F0.000691085003455425
s(S'sports'
p2477
S'drama'
p2478
S'film'
p2479
tp2480
F0.0003455425017277125
s(S'later'
p2481
S'played'
p2482
S'[[det]]'
p2483
tp2484
F0.0003455425017277125
s(g257
g242
g243
tp2485
F0.0003455425017277125
s(g1585
g1586
S'[[con]]'
p2486
tp2487
F0.000691085003455425
s(g62
g63
g2431
tp2488
F0.0003455425017277125
s(S'[[con]]'
p2489
S'played'
p2490
S'by'
p2491
tp2492
F0.0003455425017277125
s(S'article'
p2493
g2438
g449
tp2494
F0.0003455425017277125
s(S'feature'
p2495
S'film'
p2496
S'for'
p2497
tp2498
F0.0003455425017277125
s(g910
g911
S'[[con]]'
p2499
tp2500
F0.0010366275051831375
s(S'by'
p2501
S'[[con]]'
p2502
S'starred'
p2503
tp2504
F0.0003455425017277125
s(S'as'
p2505
S'played'
p2506
S'with'
p2507
tp2508
F0.0003455425017277125
s(g194
g222
g223
tp2509
F0.0003455425017277125
s(g470
g471
g2079
tp2510
F0.0024187975120939877
s(S'[[num]]'
p2511
S'thriller'
p2512
S'directed'
p2513
tp2514
F0.0003455425017277125
s(g362
g363
S'[[con]]'
p2515
tp2516
F0.0003455425017277125
s(S'[[adj]]'
p2517
S'movie'
p2518
S'starring'
p2519
tp2520
F0.000691085003455425
s(g1464
S'costarred'
p2521
S'with'
p2522
tp2523
F0.0003455425017277125
s(S'[[adj]]'
p2524
g1515
g1516
tp2525
F0.0003455425017277125
s(S'language'
p2526
S'film'
p2527
S'directed'
p2528
tp2529
F0.000691085003455425
s(S'also'
p2530
S'featured'
p2531
S'[[adj]]'
p2532
tp2533
F0.0003455425017277125
s(S'be'
p2534
S'played'
p2535
S'by'
p2536
tp2537
F0.0003455425017277125
s(g1005
g2380
S'[[con]]'
p2538
tp2539
F0.0003455425017277125
s(S'is'
p2540
S'revealed'
p2541
S'as'
p2542
tp2543
F0.0003455425017277125
s(g1182
S'gt'
p2544
S'where'
p2545
tp2546
F0.000691085003455425
s(S'[[adj]]'
p2547
g1164
g1165
tp2548
F0.000691085003455425
s(S'[[num]]'
p2549
g2311
g979
tp2550
F0.0027643400138217
s(S'was'
p2551
g1120
g1121
tp2552
F0.000691085003455425
s(g1455
g1456
S'starring'
p2553
tp2554
F0.0027643400138217
s(S'features'
p2555
S'performances'
p2556
S'[[con]]'
p2557
tp2558
F0.0003455425017277125
s(S'[[num]]'
p2559
S'comedy'
p2560
S'[[adj]]'
p2561
tp2562
F0.000691085003455425
s(S'was'
p2563
S'hosted'
p2564
S'with'
p2565
tp2566
F0.0003455425017277125
s(g1505
g1506
S'film'
p2567
tp2568
F0.0003455425017277125
s(g1838
g1839
S'by'
p2569
tp2570
F0.0003455425017277125
s(S'[[pro]]'
p2571
S'played'
p2572
S'[[det]]'
p2573
tp2574
F0.0003455425017277125
s(g838
g839
S'film'
p2575
tp2576
F0.00138217000691085
s(S'comedy'
p2577
g2400
g2401
tp2578
F0.0017277125086385626
s(S'film'
p2579
g321
g322
tp2580
F0.0010366275051831375
s(S'directed'
p2581
S'[[con]]'
p2582
S'featuring'
p2583
tp2584
F0.0010366275051831375
s(S'comedydrama'
p2585
S'film'
p2586
S'written'
p2587
tp2588
F0.0017277125086385626
s(S'ref'
p2589
S'gt'
p2590
S'nominated'
p2591
tp2592
F0.0003455425017277125
s(S'[[det]]'
p2593
S'movie'
p2594
S'by'
p2595
tp2596
F0.0003455425017277125
s(S'[[det]]'
p2597
g441
g442
tp2598
F0.000691085003455425
s(S'[[adj]]'
p2599
g2208
g615
tp2600
F0.0003455425017277125
s(S'[[num]]'
p2601
S'family'
p2602
S'adventure'
p2603
tp2604
F0.0003455425017277125
s(g854
g855
S'starring'
p2605
tp2606
F0.0003455425017277125
s(g2602
g2603
S'film'
p2607
tp2608
F0.0003455425017277125
s(g2314
g2315
S'directed'
p2609
tp2610
F0.002073255010366275
s(S'[[adj]]'
p2611
g1068
g1069
tp2612
F0.000691085003455425
s(g2089
g2146
S'directed'
p2613
tp2614
F0.025570145127850726
s(S'[[num]]'
p2615
g1029
g1030
tp2616
F0.0003455425017277125
s(S'have'
p2617
S'played'
p2618
S'along'
p2619
tp2620
F0.0003455425017277125
s(S'also'
p2621
S'played'
p2622
S'together'
p2623
tp2624
F0.0003455425017277125
s(S'action'
p2625
S'film'
p2626
S'written'
p2627
tp2628
F0.000691085003455425
s(S'noir'
p2629
S'directed'
p2630
S'by'
p2631
tp2632
F0.000691085003455425
s(g182
g814
S'produced'
p2633
tp2634
F0.0003455425017277125
s(g38
g39
S'by'
p2635
tp2636
F0.0010366275051831375
s(S'[[adj]]'
p2637
S'film'
p2638
S'written'
p2639
tp2640
F0.00138217000691085
s(g400
g401
S'directed'
p2641
tp2642
F0.000691085003455425
s(g2447
g2448
S'by'
p2643
tp2644
F0.0003455425017277125
s(S'[[con]]'
p2645
S'edited'
p2646
S'by'
p2647
tp2648
F0.0003455425017277125
s(S'[[num]]'
p2649
g766
g767
tp2650
F0.0010366275051831375
s(g2594
g2595
S'starring'
p2651
tp2652
F0.0003455425017277125
s(S'[[det]]'
p2653
S'voiced'
p2654
S'by'
p2655
tp2656
F0.0003455425017277125
s(g927
g2257
g2258
tp2657
F0.0003455425017277125
s(S'was'
p2658
g849
g850
tp2659
F0.0003455425017277125
s(g274
g275
g1241
tp2660
F0.0003455425017277125
s(S'[[adj]]'
p2661
S'adventure'
p2662
S'film'
p2663
tp2664
F0.000691085003455425
s(g663
S'starring'
p2665
S'[[con]]'
p2666
tp2667
F0.0003455425017277125
s(S'accessed'
p2668
g1248
g1249
tp2669
F0.0003455425017277125
s(S'[[det]]'
p2670
S'film'
p2671
g2629
tp2672
F0.000691085003455425
s(S'[[num]]'
p2673
g1494
g129
tp2674
F0.0003455425017277125
s(g1052
g303
g304
tp2675
F0.0003455425017277125
s(g2076
g2077
S'starring'
p2676
tp2677
F0.0003455425017277125
s(S'crime'
p2678
S'film'
p2679
S'written'
p2680
tp2681
F0.0003455425017277125
s(S'had'
p2682
S'played'
p2683
S'[[con]]'
p2684
tp2685
F0.0003455425017277125
s(g380
g381
S'directed'
p2686
tp2687
F0.00138217000691085
s(g359
g1870
g2223
tp2688
F0.000691085003455425
s(S'[[adj]]'
p2689
S'cast'
p2690
g599
tp2691
F0.0003455425017277125
s(g1222
g1144
g1145
tp2692
F0.0003455425017277125
s(S'produced'
p2693
S'by'
p2694
S'[[con]]'
p2695
tp2696
F0.0003455425017277125
s(S'directed'
p2697
S'starring'
p2698
S'with'
p2699
tp2700
F0.000691085003455425
s(S'stars'
p2701
g2055
g2056
tp2702
F0.0003455425017277125
s(g31
g723
S'comedy'
p2703
tp2704
F0.0003455425017277125
s(S'[[adj]]'
p2705
g1442
g1443
tp2706
F0.000691085003455425
s(S'[[num]]'
p2707
S'film'
p2708
S'with'
p2709
tp2710
F0.0003455425017277125
s(S'written'
p2711
S'[[con]]'
p2712
S'stars'
p2713
tp2714
F0.0003455425017277125
s(S'show'
p2715
S'hosted'
p2716
S'by'
p2717
tp2718
F0.0003455425017277125
s(g201
g202
S'of'
p2719
tp2720
F0.0003455425017277125
s(g2053
g2427
g2428
tp2721
F0.0048375950241879755
s(S'film'
p2722
S'written'
p2723
g967
tp2724
F0.01796821008984105
s(g2031
g1748
g1749
tp2725
F0.0003455425017277125
s(S'also'
p2726
S'played'
p2727
S'[[adj]]'
p2728
tp2729
F0.0003455425017277125
s(S'[[det]]'
p2730
g2477
g2478
tp2731
F0.0003455425017277125
s(g751
g752
S'film'
p2732
tp2733
F0.000691085003455425
s(g1129
g1130
S'[[con]]'
p2734
tp2735
F0.0003455425017277125
s(S'is'
p2736
S'[[num]]'
p2737
S'mystery'
p2738
tp2739
F0.0003455425017277125
s(S'first'
p2740
S'played'
p2741
S'[[con]]'
p2742
tp2743
F0.0003455425017277125
s(S'is'
p2744
S'created'
p2745
S'by'
p2746
tp2747
F0.0003455425017277125
s(g1784
g1785
S'starring'
p2748
tp2749
F0.0003455425017277125
s(g2258
g2259
S'by'
p2750
tp2751
F0.0003455425017277125
s(g1261
g1262
S'[[con]]'
p2752
tp2753
F0.0003455425017277125
s(S'was'
p2754
g1080
g1081
tp2755
F0.0003455425017277125
s(S'starred'
p2756
g333
g334
tp2757
F0.0003455425017277125
s(S'[[num]]'
p2758
g1285
g1286
tp2759
F0.0031098825155494126
s(S'ref'
p2760
S'gt'
p2761
S'was'
p2762
tp2763
F0.000691085003455425
s(S'aka'
p2764
S'is'
p2765
S'[[num]]'
p2766
tp2767
F0.000691085003455425
s(S'drama'
p2768
S'film'
p2769
S'written'
p2770
tp2771
F0.0034554250172771253
s(S'is'
p2772
S'[[num]]'
p2773
S'crime'
p2774
tp2775
F0.000691085003455425
s(S'adventure'
p2776
S'film'
p2777
S'written'
p2778
tp2779
F0.000691085003455425
s(S'[[num]]'
p2780
S'film'
p2781
S'written'
p2782
tp2783
F0.0031098825155494126
s(S'first'
p2784
S'produced'
p2785
S'by'
p2786
tp2787
F0.0003455425017277125
s(S'[[con]]'
p2788
g643
g644
tp2789
F0.0003455425017277125
s(S'lt'
p2790
g1529
g1530
tp2791
F0.0024187975120939877
s(S'starred'
p2792
S'[[con]]'
p2793
S'was'
p2794
tp2795
F0.0003455425017277125
s(g2590
g2591
S'[[det]]'
p2796
tp2797
F0.0003455425017277125
s(S'with'
p2798
S'[[det]]'
p2799
S'script'
p2800
tp2801
F0.0003455425017277125
s(g1016
g1017
S'film'
p2802
tp2803
F0.0003455425017277125
s(S'ref'
p2804
S'gt'
p2805
S'began'
p2806
tp2807
F0.000691085003455425
s(S'was'
p2808
S'produced'
p2809
S'[[adj]]'
p2810
tp2811
F0.0003455425017277125
s(S'also'
p2812
S'played'
p2813
g663
tp2814
F0.0003455425017277125
s(g1321
g1322
S'starring'
p2815
tp2816
F0.017622667588113337
s(S'then'
p2817
S'produced'
p2818
S'at'
p2819
tp2820
F0.0003455425017277125
s(g1463
g1464
g2521
tp2821
F0.0003455425017277125
s(g590
g591
S'lt'
p2822
tp2823
F0.0010366275051831375
s(S'have'
p2824
S'played'
p2825
S'[[num]]'
p2826
tp2827
F0.0003455425017277125
s(S'were'
p2828
S'written'
p2829
S'by'
p2830
tp2831
F0.0003455425017277125
s(S'was'
p2832
S'revealed'
p2833
S'that'
p2834
tp2835
F0.0003455425017277125
s(S'is'
p2836
S'featured'
p2837
S'[[det]]'
p2838
tp2839
F0.0003455425017277125
s(S'[[det]]'
p2840
g2577
g2400
tp2841
F0.000691085003455425
s(g2273
g2274
S'starring'
p2842
tp2843
F0.0003455425017277125
s.