(dp0
(S'also'
p1
S'appointed'
p2
S'in'
p3
tp4
F0.0020491803278688526
s(S'be'
p5
S'appointed'
p6
S'[[det]]'
p7
tp8
F0.0020491803278688526
s(S'[[det]]'
p9
S'member'
p10
S'at'
p11
tp12
F0.0020491803278688526
s(S'when'
p13
S'served'
p14
S'with'
p15
tp16
F0.0020491803278688526
s(S'[[con]]'
p17
S'served'
p18
S'with'
p19
tp20
F0.0020491803278688526
s(S'[[mod]]'
p21
S'return'
p22
S'[[con]]'
p23
tp24
F0.0020491803278688526
s(S'first'
p25
S'came'
p26
S'with'
p27
tp28
F0.0020491803278688526
s(S'while'
p29
S'moved'
p30
S'to'
p31
tp32
F0.0020491803278688526
s(S'was'
p33
S'joined'
p34
S'in'
p35
tp36
F0.0020491803278688526
s(S'was'
p37
S'named'
p38
S'at'
p39
tp40
F0.0020491803278688526
s(S'be'
p41
S'transferred'
p42
S'to'
p43
tp44
F0.0020491803278688526
s(S'[[det]]'
p45
S'return'
p46
S'[[con]]'
p47
tp48
F0.0020491803278688526
s(S'[[pro]]'
p49
S'joined'
p50
S'[[det]]'
p51
tp52
F0.0020491803278688526
s(S'then'
p53
S'graduated'
p54
S'from'
p55
tp56
F0.0020491803278688526
s(S'to'
p57
S'leave'
p58
S'[[prp]]'
p59
tp60
F0.0020491803278688526
s(S'be'
p61
S'named'
p62
S'[[det]]'
p63
tp64
F0.0020491803278688526
s(S'also'
p65
S'honored'
p66
S'by'
p67
tp68
F0.0020491803278688526
s(S'[[adj]]'
p69
S'member'
p70
S'[[det]]'
p71
tp72
F0.0020491803278688526
s(S'was'
p73
S'head'
p74
S'[[con]]'
p75
tp76
F0.0020491803278688526
s(S'who'
p77
S'served'
p78
S'with'
p79
tp80
F0.0020491803278688526
s(S'[[prp]]'
p81
S'return'
p82
S'from'
p83
tp84
F0.0020491803278688526
s(S'[[det]]'
p85
S'member'
p86
S'when'
p87
tp88
F0.0020491803278688526
s(S'[[det]]'
p89
S'moved'
p90
S'to'
p91
tp92
F0.0020491803278688526
s(S'also'
p93
S'established'
p94
S'[[det]]'
p95
tp96
F0.0020491803278688526
s(S'first'
p97
S'came'
p98
S'as'
p99
tp100
F0.0020491803278688526
s(S'[[det]]'
p101
S'member'
p102
S'until'
p103
tp104
F0.0020491803278688526
s(S'had'
p105
S'represented'
p106
S'in'
p107
tp108
F0.0020491803278688526
s(S'then'
p109
S'left'
p110
S'to'
p111
tp112
F0.0020491803278688526
s(S'was'
p113
S'returned'
p114
S'by'
p115
tp116
F0.0020491803278688526
s(S'[[con]]'
p117
S'joined'
p118
S'[[det]]'
p119
tp120
F0.0020491803278688526
s(S'has'
p121
S'served'
p122
S'[[con]]'
p123
tp124
F0.0020491803278688526
s(S'[[con]]'
p125
S'served'
p126
S'at'
p127
tp128
F0.0020491803278688526
s(S'was'
p129
S'member'
p130
S'for'
p131
tp132
F0.0020491803278688526
s(S'when'
p133
S'moved'
p134
S'from'
p135
tp136
F0.0020491803278688526
s(S'also'
p137
S'named'
p138
S'for'
p139
tp140
F0.0020491803278688526
s(S'[[con]]'
p141
S'leave'
p142
S'for'
p143
tp144
F0.0020491803278688526
s(S'is'
p145
S'member'
p146
S'[[con]]'
p147
tp148
F0.0020491803278688526
s(S'later'
p149
S'represented'
p150
S'[[det]]'
p151
tp152
F0.0020491803278688526
s(S'[[det]]'
p153
S'officer'
p154
S'[[con]]'
p155
tp156
F0.0020491803278688526
s(S'then'
p157
S'joined'
p158
S'to'
p159
tp160
F0.0020491803278688526
s(S'was'
p161
S'named'
p162
S'by'
p163
tp164
F0.0020491803278688526
s(S'again'
p165
S'returned'
p166
S'[[con]]'
p167
tp168
F0.0020491803278688526
s(S'well'
p169
S'known'
p170
S'outside'
p171
tp172
F0.0020491803278688526
s(S'was'
p173
S'returned'
p174
S'[[con]]'
p175
tp176
F0.0020491803278688526
s(S'who'
p177
S'came'
p178
S'to'
p179
tp180
F0.0020491803278688526
s(S'then'
p181
S'joined'
p182
S'[[adj]]'
p183
tp184
F0.0020491803278688526
s(S'later'
p185
S'moved'
p186
S'at'
p187
tp188
F0.0020491803278688526
s(S'had'
p189
S'joined'
p190
S'from'
p191
tp192
F0.0020491803278688526
s(S'been'
p193
S'named'
p194
S'[[det]]'
p195
tp196
F0.0020491803278688526
s(S'[[adj]]'
p197
S'served'
p198
S'on'
p199
tp200
F0.0020491803278688526
s(S'[[num]]'
p201
S'served'
p202
S'as'
p203
tp204
F0.0020491803278688526
s(S'first'
p205
S'came'
p206
S'to'
p207
tp208
F0.0020491803278688526
s(S'also'
p209
S'served'
p210
S'with'
p211
tp212
F0.0020491803278688526
s(S'was'
p213
S'honored'
p214
S'[[con]]'
p215
tp216
F0.0020491803278688526
s(S'then'
p217
S'moved'
p218
S'in'
p219
tp220
F0.0020491803278688526
s(S'mostly'
p221
S'known'
p222
S'in'
p223
tp224
F0.0020491803278688526
s(S'later'
p225
S'appointed'
p226
S'to'
p227
tp228
F0.0020491803278688526
s(S'[[con]]'
p229
S'returned'
p230
S'at'
p231
tp232
F0.0020491803278688526
s(S'then'
p233
S'returned'
p234
S'to'
p235
tp236
F0.0020491803278688526
s(S'then'
p237
S'joined'
p238
S'side'
p239
tp240
F0.0020491803278688526
s(S'when'
p241
S'entered'
p242
S'[[det]]'
p243
tp244
F0.0020491803278688526
s(S'when'
p245
S'came'
p246
S'to'
p247
tp248
F0.0020491803278688526
s(S'when'
p249
S'joined'
p250
S'[[det]]'
p251
tp252
F0.0020491803278688526
s(S'again'
p253
S'named'
p254
S'as'
p255
tp256
F0.0020491803278688526
s(S'then'
p257
S'served'
p258
S'before'
p259
tp260
F0.0020491803278688526
s(S'has'
p261
S'served'
p262
S'[[adj]]'
p263
tp264
F0.0020491803278688526
s(S'is'
p265
S'appointed'
p266
S'in'
p267
tp268
F0.0020491803278688526
s(S'had'
p269
S'established'
p270
S'[[pro]]'
p271
tp272
F0.0020491803278688526
s(S'was'
p273
S'graduated'
p274
S'[[con]]'
p275
tp276
F0.0020491803278688526
s(S'was'
p277
S'honored'
p278
S'by'
p279
tp280
F0.0020491803278688526
s(S'again'
p281
S'served'
p282
S'with'
p283
tp284
F0.0020491803278688526
s(S'while'
p285
S'joined'
p286
S'[[det]]'
p287
tp288
F0.0020491803278688526
s(S'then'
p289
S'returned'
p290
S'at'
p291
tp292
F0.0020491803278688526
s(S'also'
p293
S'served'
p294
S'[[det]]'
p295
tp296
F0.0020491803278688526
s(S'been'
p297
S'honored'
p298
S'[[det]]'
p299
tp300
F0.0020491803278688526
s(S'then'
p301
S'returned'
p302
S'in'
p303
tp304
F0.0020491803278688526
s(S'then'
p305
S'moved'
p306
S'for'
p307
tp308
F0.0020491803278688526
s(S'was'
p309
S'moved'
p310
S'to'
p311
tp312
F0.0020491803278688526
s(S'also'
p313
S'served'
p314
S'as'
p315
tp316
F0.0020491803278688526
s(S'been'
p317
S'named'
p318
S'at'
p319
tp320
F0.0020491803278688526
s(S'[[con]]'
p321
S'joined'
p322
S'of'
p323
tp324
F0.0020491803278688526
s(S'became'
p325
S'known'
p326
S'in'
p327
tp328
F0.0020491803278688526
s(S'where'
p329
S'entered'
p330
S'[[det]]'
p331
tp332
F0.0020491803278688526
s(S'then'
p333
S'graduated'
p334
S'at'
p335
tp336
F0.0020491803278688526
s(S'[[adj]]'
p337
S'officer'
p338
S'of'
p339
tp340
F0.0020491803278688526
s(S'also'
p341
S'named'
p342
S'of'
p343
tp344
F0.0020491803278688526
s(S'which'
p345
S'returned'
p346
S'to'
p347
tp348
F0.0020491803278688526
s(S'then'
p349
S'transferred'
p350
S'[[con]]'
p351
tp352
F0.0020491803278688526
s(S'[[adj]]'
p353
S'member'
p354
S'as'
p355
tp356
F0.0020491803278688526
s(S'[[adj]]'
p357
S'member'
p358
S'from'
p359
tp360
F0.0020491803278688526
s(S'[[mod]]'
p361
S'return'
p362
S'to'
p363
tp364
F0.0020491803278688526
s(S'then'
p365
S'appointed'
p366
S'[[pro]]'
p367
tp368
F0.0020491803278688526
s(S'had'
p369
S'joined'
p370
S'[[det]]'
p371
tp372
F0.0020491803278688526
s(S'was'
p373
S'left'
p374
S'out'
p375
tp376
F0.0020491803278688526
s(S'was'
p377
S'known'
p378
S'in'
p379
tp380
F0.0020491803278688526
s(S'then'
p381
S'served'
p382
S'to'
p383
tp384
F0.0020491803278688526
s(S'first'
p385
S'served'
p386
S'in'
p387
tp388
F0.0020491803278688526
s(S'[[adj]]'
p389
S'officer'
p390
S'on'
p391
tp392
F0.0020491803278688526
s(S'been'
p393
S'honored'
p394
S'with'
p395
tp396
F0.0020491803278688526
s(S'had'
p397
S'left'
p398
S'for'
p399
tp400
F0.0020491803278688526
s(S'then'
p401
S'moved'
p402
S'[[con]]'
p403
tp404
F0.0020491803278688526
s(S'later'
p405
S'moved'
p406
S'with'
p407
tp408
F0.0020491803278688526
s(S'also'
p409
S'graduated'
p410
S'at'
p411
tp412
F0.0020491803278688526
s(S'soon'
p413
S'moved'
p414
S'on'
p415
tp416
F0.0020491803278688526
s(S'[[con]]'
p417
S'moved'
p418
S'on'
p419
tp420
F0.0020491803278688526
s(S'then'
p421
S'served'
p422
S'on'
p423
tp424
F0.0020491803278688526
s(S'then'
p425
S'moved'
p426
S'onto'
p427
tp428
F0.0020491803278688526
s(S'soon'
p429
S'joined'
p430
S'[[det]]'
p431
tp432
F0.0020491803278688526
s(S'later'
p433
S'joined'
p434
S'[[con]]'
p435
tp436
F0.0020491803278688526
s(S'to'
p437
S'return'
p438
S'in'
p439
tp440
F0.0020491803278688526
s(S'again'
p441
S'moved'
p442
S'to'
p443
tp444
F0.0020491803278688526
s(S'then'
p445
S'joined'
p446
S'[[num]]'
p447
tp448
F0.0020491803278688526
s(S'was'
p449
S'known'
p450
S'[[adj]]'
p451
tp452
F0.0020491803278688526
s(S'[[pro]]'
p453
S'served'
p454
S'in'
p455
tp456
F0.0020491803278688526
s(S'also'
p457
S'graduated'
p458
S'from'
p459
tp460
F0.0020491803278688526
s(S'also'
p461
S'named'
p462
S'at'
p463
tp464
F0.0020491803278688526
s(S'with'
p465
S'established'
p466
S'[[det]]'
p467
tp468
F0.0020491803278688526
s(S'then'
p469
S'moved'
p470
S'then'
p471
tp472
F0.0020491803278688526
s(S'to'
p473
S'return'
p474
S'from'
p475
tp476
F0.0020491803278688526
s(S'[[adj]]'
p477
S'member'
p478
S'during'
p479
tp480
F0.0020491803278688526
s(S'formerly'
p481
S'served'
p482
S'to'
p483
tp484
F0.0020491803278688526
s(S'then'
p485
S'returned'
p486
S'for'
p487
tp488
F0.0020491803278688526
s(S'[[det]]'
p489
S'member'
p490
S'from'
p491
tp492
F0.0020491803278688526
s(S'[[det]]'
p493
S'member'
p494
S'which'
p495
tp496
F0.0020491803278688526
s(S'was'
p497
S'graduated'
p498
S'in'
p499
tp500
F0.0020491803278688526
s(S'[[con]]'
p501
S'joined'
p502
S'from'
p503
tp504
F0.0020491803278688526
s(S'also'
p505
S'honored'
p506
S'in'
p507
tp508
F0.0020491803278688526
s(S'[[det]]'
p509
S'returned'
p510
S'to'
p511
tp512
F0.0020491803278688526
s(S'was'
p513
S'served'
p514
S'as'
p515
tp516
F0.0020491803278688526
s(S'also'
p517
S'honored'
p518
S'with'
p519
tp520
F0.0020491803278688526
s(S'who'
p521
S'served'
p522
S'in'
p523
tp524
F0.0020491803278688526
s(S'was'
p525
S'honored'
p526
S'to'
p527
tp528
F0.0020491803278688526
s(S'also'
p529
S'came'
p530
S'[[adj]]'
p531
tp532
F0.0020491803278688526
s(S'has'
p533
S'moved'
p534
S'from'
p535
tp536
F0.0020491803278688526
s(S'also'
p537
S'named'
p538
S'[[con]]'
p539
tp540
F0.0020491803278688526
s(S'also'
p541
S'member'
p542
S'[[con]]'
p543
tp544
F0.0020491803278688526
s(S'then'
p545
S'moved'
p546
S'on'
p547
tp548
F0.0020491803278688526
s(S'before'
p549
S'returned'
p550
S'to'
p551
tp552
F0.0020491803278688526
s(S'then'
p553
S'moved'
p554
S'into'
p555
tp556
F0.0020491803278688526
s(S'is'
p557
S'appointed'
p558
S'of'
p559
tp560
F0.0020491803278688526
s(S'better'
p561
S'known'
p562
S'in'
p563
tp564
F0.0020491803278688526
s(S'first'
p565
S'entered'
p566
S'[[det]]'
p567
tp568
F0.0020491803278688526
s(S'before'
p569
S'moved'
p570
S'to'
p571
tp572
F0.0020491803278688526
s(S'was'
p573
S'left'
p574
S'with'
p575
tp576
F0.0020491803278688526
s(S'have'
p577
S'served'
p578
S'in'
p579
tp580
F0.0020491803278688526
s(S'who'
p581
S'joined'
p582
S'[[det]]'
p583
tp584
F0.0020491803278688526
s(S'has'
p585
S'served'
p586
S'as'
p587
tp588
F0.0020491803278688526
s(S'also'
p589
S'served'
p590
S'at'
p591
tp592
F0.0020491803278688526
s(S'[[det]]'
p593
S'member'
p594
S'[[det]]'
p595
tp596
F0.0020491803278688526
s(S'then'
p597
S'left'
p598
S'for'
p599
tp600
F0.0020491803278688526
s(S'later'
p601
S'served'
p602
S'with'
p603
tp604
F0.0020491803278688526
s(S'then'
p605
S'moved'
p606
S'with'
p607
tp608
F0.0020491803278688526
s(S'instead'
p609
S'joined'
p610
S'[[det]]'
p611
tp612
F0.0020491803278688526
s(S'also'
p613
S'served'
p614
S'in'
p615
tp616
F0.0020491803278688526
s(S'[[det]]'
p617
S'member'
p618
S'of'
p619
tp620
F0.0020491803278688526
s(S'formerly'
p621
S'served'
p622
S'at'
p623
tp624
F0.0020491803278688526
s(S'since'
p625
S'returned'
p626
S'to'
p627
tp628
F0.0020491803278688526
s(S'[[adj]]'
p629
S'head'
p630
S'[[con]]'
p631
tp632
F0.0020491803278688526
s(S'then'
p633
S'moved'
p634
S'[[det]]'
p635
tp636
F0.0020491803278688526
s(S'had'
p637
S'served'
p638
S'at'
p639
tp640
F0.0020491803278688526
s(S'as'
p641
g389
g390
tp642
F0.006147540983606557
s(S'been'
p643
S'named'
p644
S'by'
p645
tp646
F0.0020491803278688526
s(S'also'
p647
S'represented'
p648
S'while'
p649
tp650
F0.0020491803278688526
s(S'was'
p651
S'named'
p652
S'for'
p653
tp654
F0.0020491803278688526
s(S'who'
p655
S'graduated'
p656
S'at'
p657
tp658
F0.0020491803278688526
s(S'is'
p659
S'named'
p660
S'as'
p661
tp662
F0.0020491803278688526
s(S'[[det]]'
p663
S'member'
p664
S'on'
p665
tp666
F0.0020491803278688526
s(S'has'
p667
S'left'
p668
S'[[det]]'
p669
tp670
F0.0020491803278688526
s(S'then'
p671
S'served'
p672
S'for'
p673
tp674
F0.0020491803278688526
s(S'just'
p675
S'left'
p676
S'for'
p677
tp678
F0.0020491803278688526
s(S'later'
p679
S'served'
p680
S'on'
p681
tp682
F0.0020491803278688526
s(S'also'
p683
S'represented'
p684
S'against'
p685
tp686
F0.0020491803278688526
s(S'have'
p687
S'joined'
p688
S'[[det]]'
p689
tp690
F0.0020491803278688526
s(S'[[adj]]'
p691
S'member'
p692
S'on'
p693
tp694
F0.0020491803278688526
s(S'had'
p695
S'joined'
p696
S'side'
p697
tp698
F0.0020491803278688526
s(S'who'
p699
S'graduated'
p700
S'from'
p701
tp702
F0.0020491803278688526
s(S'[[det]]'
p703
S'member'
p704
S'as'
p705
tp706
F0.0020491803278688526
s(S'where'
p707
S'joined'
p708
S'[[det]]'
p709
tp710
F0.0020491803278688526
s(S'as'
p711
S'[[det]]'
p712
S'officer'
p713
tp714
F0.006147540983606557
s(S'to'
p715
S'head'
p716
S'for'
p717
tp718
F0.0020491803278688526
s(S'who'
p719
S'served'
p720
S'[[con]]'
p721
tp722
F0.0020491803278688526
s(S'later'
p723
S'served'
p724
S'as'
p725
tp726
F0.0020491803278688526
s(S'was'
p727
S'member'
p728
S'at'
p729
tp730
F0.0020491803278688526
s(S'also'
p731
S'named'
p732
S'in'
p733
tp734
F0.0020491803278688526
s(S'has'
p735
S'graduated'
p736
S'from'
p737
tp738
F0.0020491803278688526
s(S'[[adj]]'
p739
S'officer'
p740
S'in'
p741
tp742
F0.0020491803278688526
s(S'[[adj]]'
p743
S'member'
p744
S'of'
p745
tp746
F0.0020491803278688526
s(S'is'
p747
S'honored'
p748
S'by'
p749
tp750
F0.0020491803278688526
s(S's'
p751
S'return'
p752
S'to'
p753
tp754
F0.0020491803278688526
s(S'later'
p755
S'represented'
p756
S'in'
p757
tp758
F0.0020491803278688526
s(S'were'
p759
S'transferred'
p760
S'to'
p761
tp762
F0.0020491803278688526
s(S'twice'
p763
S'served'
p764
S'as'
p765
tp766
F0.0020491803278688526
s(S'was'
p767
S'joined'
p768
S'on'
p769
tp770
F0.0020491803278688526
s(S'been'
p771
S'honored'
p772
S'by'
p773
tp774
F0.0020491803278688526
s(S'later'
p775
S'joined'
p776
S'at'
p777
tp778
F0.0020491803278688526
s(S'also'
p779
S'known'
p780
S'in'
p781
tp782
F0.0020491803278688526
s(S'where'
p783
S'served'
p784
S'with'
p785
tp786
F0.0020491803278688526
s(S'been'
p787
S'transferred'
p788
S'to'
p789
tp790
F0.0020491803278688526
s(S'was'
p791
S'bestowed'
p792
S'[[det]]'
p793
tp794
F0.0020491803278688526
s(S'until'
p795
S'returned'
p796
S'to'
p797
tp798
F0.0020491803278688526
s(S'also'
p799
S'came'
p800
S'to'
p801
tp802
F0.0020491803278688526
s(S'[[det]]'
p803
S'member'
p804
g751
tp805
F0.0020491803278688526
s(S'also'
p806
S'honored'
p807
S'as'
p808
tp809
F0.0020491803278688526
s(S'has'
p810
S'served'
p811
S'in'
p812
tp813
F0.0020491803278688526
s(S'[[adj]]'
p814
S'served'
p815
S'as'
p816
tp817
F0.0020491803278688526
s(S'became'
p818
S'member'
p819
S'[[det]]'
p820
tp821
F0.0020491803278688526
s(S'has'
p822
S'returned'
p823
S'to'
p824
tp825
F0.0020491803278688526
s(S'was'
p826
S'named'
p827
S'[[det]]'
p828
tp829
F0.0020491803278688526
s(S'had'
p830
S'represented'
p831
S'[[det]]'
p832
tp833
F0.0020491803278688526
s(S'then'
p834
S'served'
p835
S'with'
p836
tp837
F0.0020491803278688526
s(S'was'
p838
S'entered'
p839
S'at'
p840
tp841
F0.0020491803278688526
s(S'then'
p842
S'came'
p843
S'to'
p844
tp845
F0.0020491803278688526
s(S'has'
p846
S'served'
p847
S'with'
p848
tp849
F0.0020491803278688526
s(S'who'
p850
S'left'
p851
S'[[det]]'
p852
tp853
F0.0020491803278688526
s(S'later'
p854
S'moved'
p855
S'on'
p856
tp857
F0.0020491803278688526
s(S'was'
p858
S'member'
p859
S'of'
p860
tp861
F0.0020491803278688526
s(S'also'
p862
S'joined'
p863
S'[[det]]'
p864
tp865
F0.0020491803278688526
s(S'first'
p866
S'came'
p867
S'in'
p868
tp869
F0.0020491803278688526
s(S'had'
p870
S'entered'
p871
S'[[det]]'
p872
tp873
F0.0020491803278688526
s(S'has'
p874
S'served'
p875
S'before'
p876
tp877
F0.0020491803278688526
s(S'is'
p878
S'member'
p879
S'of'
p880
tp881
F0.0020491803278688526
s(S'also'
p882
S'represented'
p883
S'on'
p884
tp885
F0.0020491803278688526
s(S'is'
p886
S'named'
p887
S'of'
p888
tp889
F0.0020491803278688526
s(S'have'
p890
S'left'
p891
S'[[det]]'
p892
tp893
F0.0020491803278688526
s(S'then'
p894
S'joined'
p895
S'then'
p896
tp897
F0.0020491803278688526
s(S'who'
p898
S'joined'
p899
S'from'
p900
tp901
F0.0020491803278688526
s(S'[[num]]'
p902
S'returned'
p903
S'to'
p904
tp905
F0.0020491803278688526
s(S'well'
p906
S'known'
p907
S'in'
p908
tp909
F0.0020491803278688526
s(S'was'
p910
S'honored'
p911
S'in'
p912
tp913
F0.0020491803278688526
s(S'had'
p914
S'graduated'
p915
S'from'
p916
tp917
F0.0020491803278688526
s(S'was'
p918
S'awarded'
p919
S'[[det]]'
p920
tp921
F0.0020491803278688526
s(S'had'
p922
S'left'
p923
S'[[con]]'
p924
tp925
F0.0020491803278688526
s(S'was'
p926
S'moved'
p927
S'as'
p928
tp929
F0.0020491803278688526
s(S'has'
p930
S'served'
p931
S'until'
p932
tp933
F0.0020491803278688526
s(S'again'
p934
S'served'
p935
S'to'
p936
tp937
F0.0020491803278688526
s(S'first'
p938
S'served'
p939
S'with'
p940
tp941
F0.0020491803278688526
s(S'were'
p942
S'named'
p943
S'as'
p944
tp945
F0.0020491803278688526
s(S'has'
p946
S'served'
p947
S'[[det]]'
p948
tp949
F0.0020491803278688526
s(S'later'
p950
S'joined'
p951
S'[[det]]'
p952
tp953
F0.0020491803278688526
s(S'then'
p954
S'moved'
p955
S'back'
p956
tp957
F0.0020491803278688526
s(S'later'
p958
S'left'
p959
S'[[det]]'
p960
tp961
F0.0020491803278688526
s(S'has'
p962
S'represented'
p963
S'[[con]]'
p964
tp965
F0.0020491803278688526
s(S'was'
p966
S'appointed'
p967
S'where'
p968
tp969
F0.0020491803278688526
s(S'[[prp]]'
p970
S'return'
p971
S'to'
p972
tp973
F0.0020491803278688526
s(S'then'
p974
S'returned'
p975
S'with'
p976
tp977
F0.0020491803278688526
s(S'then'
p978
S'left'
p979
S'[[con]]'
p980
tp981
F0.0020491803278688526
s(S'served'
p982
S'as'
p983
S'officer'
p984
tp985
F0.004098360655737705
s(S'had'
p986
S'known'
p987
S'in'
p988
tp989
F0.0020491803278688526
s(S'then'
p990
S'moved'
p991
S'up'
p992
tp993
F0.0020491803278688526
s(S'[[con]]'
p994
S'return'
p995
S'to'
p996
tp997
F0.0020491803278688526
s(S'also'
p998
S'served'
p999
S'to'
p1000
tp1001
F0.0020491803278688526
s(S'[[num]]'
p1002
S'served'
p1003
S'on'
p1004
tp1005
F0.0020491803278688526
s(S'[[con]]'
p1006
S'member'
p1007
S'of'
p1008
tp1009
F0.0020491803278688526
s(S'[[adj]]'
p1010
S'member'
p1011
S'for'
p1012
tp1013
F0.0020491803278688526
s(S'is'
p1014
S'known'
p1015
S'outside'
p1016
tp1017
F0.0020491803278688526
s(S'has'
p1018
S'served'
p1019
S'for'
p1020
tp1021
F0.0020491803278688526
s(S'served'
p1022
g711
g712
tp1023
F0.006147540983606557
s(S'also'
p1024
S'served'
p1025
S'[[adj]]'
p1026
tp1027
F0.0020491803278688526
s(S'[[adj]]'
p1028
S'return'
p1029
S'to'
p1030
tp1031
F0.0020491803278688526
s(S'was'
p1032
S'joined'
p1033
S'at'
p1034
tp1035
F0.0020491803278688526
s(S'[[det]]'
p1036
S'served'
p1037
S'in'
p1038
tp1039
F0.0020491803278688526
s(S'soon'
p1040
S'left'
p1041
S'to'
p1042
tp1043
F0.0020491803278688526
s(S'been'
p1044
S'named'
p1045
S'of'
p1046
tp1047
F0.0020491803278688526
s(S'then'
p1048
S'moved'
p1049
S'[[num]]'
p1050
tp1051
F0.0020491803278688526
s(S'later'
p1052
S'transferred'
p1053
S'in'
p1054
tp1055
F0.0020491803278688526
s(S'been'
p1056
S'named'
p1057
S'to'
p1058
tp1059
F0.0020491803278688526
s(S'to'
p1060
S'leave'
p1061
S'[[adj]]'
p1062
tp1063
F0.0020491803278688526
s(S'who'
p1064
S'came'
p1065
S'from'
p1066
tp1067
F0.0020491803278688526
s(S'then'
p1068
S'joined'
p1069
S'with'
p1070
tp1071
F0.0020491803278688526
s(S'also'
p1072
S'named'
p1073
S'[[det]]'
p1074
tp1075
F0.0020491803278688526
s(S'was'
p1076
S'member'
p1077
S'[[con]]'
p1078
tp1079
F0.0020491803278688526
s(S'was'
p1080
S'named'
p1081
S'in'
p1082
tp1083
F0.0020491803278688526
s(S'again'
p1084
S'named'
p1085
S'in'
p1086
tp1087
F0.0020491803278688526
s(S'twice'
p1088
S'served'
p1089
S'in'
p1090
tp1091
F0.0020491803278688526
s(S'best'
p1092
S'known'
p1093
S'outside'
p1094
tp1095
F0.0020491803278688526
s(S'where'
p1096
S'graduated'
p1097
S'from'
p1098
tp1099
F0.0020491803278688526
s(S'also'
p1100
S'represented'
p1101
S'to'
p1102
tp1103
F0.0020491803278688526
s(S'[[adj]]'
p1104
S'established'
p1105
S'[[pro]]'
p1106
tp1107
F0.0020491803278688526
s(S'[[det]]'
p1108
S'member'
p1109
S'who'
p1110
tp1111
F0.0020491803278688526
s(S'again'
p1112
S'represented'
p1113
S'[[det]]'
p1114
tp1115
F0.0020491803278688526
s(S'then'
p1116
S'appointed'
p1117
S'to'
p1118
tp1119
F0.0020491803278688526
s(S'[[num]]'
p1120
S'member'
p1121
S'of'
p1122
tp1123
F0.0020491803278688526
s(S'had'
p1124
S'served'
p1125
S'[[det]]'
p1126
tp1127
F0.0020491803278688526
s(S'who'
p1128
S'moved'
p1129
S'from'
p1130
tp1131
F0.0020491803278688526
s(S'[[det]]'
p1132
S'head'
p1133
S'in'
p1134
tp1135
F0.0020491803278688526
s(S'was'
p1136
S'graduated'
p1137
S'now'
p1138
tp1139
F0.0020491803278688526
s(S'been'
p1140
S'named'
p1141
S'as'
p1142
tp1143
F0.0020491803278688526
s(S'[[con]]'
p1144
S'served'
p1145
S'in'
p1146
tp1147
F0.004098360655737705
s(S'then'
p1148
S'joined'
p1149
S'[[con]]'
p1150
tp1151
F0.0020491803278688526
s(S'also'
p1152
S'named'
p1153
S'to'
p1154
tp1155
F0.0020491803278688526
s(S'had'
p1156
S'served'
p1157
S'with'
p1158
tp1159
F0.0020491803278688526
s(S'while'
p1160
S'returned'
p1161
S'to'
p1162
tp1163
F0.0020491803278688526
s(S'had'
p1164
S'left'
p1165
S'[[adj]]'
p1166
tp1167
F0.0020491803278688526
s(S'been'
p1168
S'named'
p1169
S'[[con]]'
p1170
tp1171
F0.0020491803278688526
s(S'already'
p1172
S'known'
p1173
S'in'
p1174
tp1175
F0.0020491803278688526
s(S'[[con]]'
p1176
S'left'
p1177
S'[[det]]'
p1178
tp1179
F0.0020491803278688526
s(S'had'
p1180
S'served'
p1181
S'on'
p1182
tp1183
F0.0020491803278688526
s(S'then'
p1184
S'appointed'
p1185
S'in'
p1186
tp1187
F0.0020491803278688526
s(S'again'
p1188
S'named'
p1189
S'by'
p1190
tp1191
F0.0020491803278688526
s(S'[[det]]'
p1192
S'left'
p1193
S'of'
p1194
tp1195
F0.0020491803278688526
s(S'was'
p1196
S'represented'
p1197
S'for'
p1198
tp1199
F0.0020491803278688526
s(S'[[con]]'
p1200
S'served'
p1201
S'on'
p1202
tp1203
F0.0020491803278688526
s(S'[[con]]'
p1204
S'returned'
p1205
S'on'
p1206
tp1207
F0.0020491803278688526
s(S'later'
p1208
S'appointed'
p1209
S'on'
p1210
tp1211
F0.0020491803278688526
s(S'[[det]]'
p1212
S'member'
p1213
S'[[num]]'
p1214
tp1215
F0.0020491803278688526
s(S'was'
p1216
S'appointed'
p1217
S'in'
p1218
tp1219
F0.0020491803278688526
s(S'was'
p1220
S'appointed'
p1221
S'from'
p1222
tp1223
F0.0020491803278688526
s(g154
g155
S'served'
p1224
tp1225
F0.0020491803278688526
s(S'been'
p1226
S'honored'
p1227
S'as'
p1228
tp1229
F0.0020491803278688526
s(S'again'
p1230
S'returned'
p1231
S'to'
p1232
tp1233
F0.0020491803278688526
s(S'be'
p1234
S'named'
p1235
S'of'
p1236
tp1237
F0.0020491803278688526
s(S'[[pro]]'
p1238
S'return'
p1239
S'to'
p1240
tp1241
F0.0020491803278688526
s(S'also'
p1242
S'represented'
p1243
S'[[con]]'
p1244
tp1245
F0.0020491803278688526
s(S'is'
p1246
S'known'
p1247
S'in'
p1248
tp1249
F0.0020491803278688526
s(S'then'
p1250
S'joined'
p1251
S'on'
p1252
tp1253
F0.0020491803278688526
s(S'not'
p1254
S'return'
p1255
S'to'
p1256
tp1257
F0.0020491803278688526
s(S'then'
p1258
S'moved'
p1259
S'at'
p1260
tp1261
F0.0020491803278688526
s(S'[[num]]'
p1262
S'served'
p1263
S'for'
p1264
tp1265
F0.0020491803278688526
s(S'is'
p1266
S'returned'
p1267
S'to'
p1268
tp1269
F0.0020491803278688526
s(S'formerly'
p1270
S'served'
p1271
S'for'
p1272
tp1273
F0.0020491803278688526
s(S'[[adj]]'
p1274
S'member'
p1275
S'[[adj]]'
p1276
tp1277
F0.0020491803278688526
s(S'has'
p1278
S'moved'
p1279
S'on'
p1280
tp1281
F0.0020491803278688526
s(S'later'
p1282
S'named'
p1283
S'of'
p1284
tp1285
F0.0020491803278688526
s(S'then'
p1286
S'named'
p1287
S'[[det]]'
p1288
tp1289
F0.0020491803278688526
s(S'also'
p1290
S'served'
p1291
S'for'
p1292
tp1293
F0.0020491803278688526
s(S'then'
p1294
S'joined'
p1295
S'of'
p1296
tp1297
F0.0020491803278688526
s(S'also'
p1298
S'served'
p1299
S'[[con]]'
p1300
tp1301
F0.0020491803278688526
s(S'was'
p1302
S'named'
p1303
S'of'
p1304
tp1305
F0.0020491803278688526
s(S'[[det]]'
p1306
S'member'
p1307
S'has'
p1308
tp1309
F0.0020491803278688526
s(S'[[num]]'
p1310
S'represented'
p1311
S'in'
p1312
tp1313
F0.0020491803278688526
s(S'later'
p1314
S'named'
p1315
S'[[det]]'
p1316
tp1317
F0.0020491803278688526
s(S'to'
p1318
S'head'
p1319
S'in'
p1320
tp1321
F0.0020491803278688526
s(S'then'
p1322
S'moved'
p1323
S'over'
p1324
tp1325
F0.0020491803278688526
s(S'where'
p1326
S'served'
p1327
S'in'
p1328
tp1329
F0.0020491803278688526
s(S'been'
p1330
S'named'
p1331
S'in'
p1332
tp1333
F0.0020491803278688526
s(S'is'
p1334
S'known'
p1335
S'throughout'
p1336
tp1337
F0.0020491803278688526
s(S'who'
p1338
S'served'
p1339
S'as'
p1340
tp1341
F0.0020491803278688526
s(S'also'
p1342
S'established'
p1343
S'[[pro]]'
p1344
tp1345
F0.0020491803278688526
s(S'been'
p1346
S'known'
p1347
S'in'
p1348
tp1349
F0.0020491803278688526
s(S'was'
p1350
S'deported'
p1351
S'from'
p1352
tp1353
F0.0020491803278688526
s(S'was'
p1354
S'named'
p1355
S'on'
p1356
tp1357
F0.0020491803278688526
s(S'[[det]]'
p1358
S'return'
p1359
S'at'
p1360
tp1361
F0.0020491803278688526
s(S'with'
p1362
S'joined'
p1363
S'[[det]]'
p1364
tp1365
F0.0020491803278688526
s(S'[[det]]'
p1366
S'member'
p1367
S'to'
p1368
tp1369
F0.0020491803278688526
s(S'[[det]]'
p1370
S'officer'
p1371
S'of'
p1372
tp1373
F0.0020491803278688526
s(S'was'
p1374
S'known'
p1375
S'throughout'
p1376
tp1377
F0.0020491803278688526
s(S'to'
p1378
S'return'
p1379
S'to'
p1380
tp1381
F0.0020491803278688526
s(S'is'
p1382
S'member'
p1383
S'[[det]]'
p1384
tp1385
F0.0020491803278688526
s(S'[[num]]'
p1386
S'served'
p1387
S'in'
p1388
tp1389
F0.0020491803278688526
s(S'then'
p1390
S'appointed'
p1391
S'of'
p1392
tp1393
F0.0020491803278688526
s(S'being'
p1394
S'named'
p1395
S'of'
p1396
tp1397
F0.0020491803278688526
s(S'then'
p1398
S'left'
p1399
S'[[det]]'
p1400
tp1401
F0.0020491803278688526
s(S'then'
p1402
S'joined'
p1403
S'[[det]]'
p1404
tp1405
F0.0020491803278688526
s(S'was'
p1406
S'member'
p1407
S'[[num]]'
p1408
tp1409
F0.0020491803278688526
s(S'has'
p1410
S'represented'
p1411
S'[[det]]'
p1412
tp1413
F0.0020491803278688526
s(S'was'
p1414
S'transferred'
p1415
S'back'
p1416
tp1417
F0.0020491803278688526
s(S'[[con]]'
p1418
S'established'
p1419
S'[[det]]'
p1420
tp1421
F0.0020491803278688526
s(S'had'
p1422
S'moved'
p1423
S'on'
p1424
tp1425
F0.0020491803278688526
s(S'[[det]]'
p1426
S'officer'
p1427
S'in'
p1428
tp1429
F0.0020491803278688526
s(S'had'
p1430
S'left'
p1431
S'[[det]]'
p1432
tp1433
F0.0020491803278688526
s(S'as'
p1434
S'member'
p1435
S'of'
p1436
tp1437
F0.0020491803278688526
s(S'also'
p1438
S'established'
p1439
S'at'
p1440
tp1441
F0.0020491803278688526
s(S'was'
p1442
S'graduated'
p1443
S'from'
p1444
tp1445
F0.0020491803278688526
s(S'has'
p1446
S'served'
p1447
S'where'
p1448
tp1449
F0.0020491803278688526
s(S'be'
p1450
S'honored'
p1451
S'by'
p1452
tp1453
F0.0020491803278688526
s(S'[[con]]'
p1454
S'served'
p1455
S'for'
p1456
tp1457
F0.0020491803278688526
s(S'first'
p1458
S'joined'
p1459
S'[[con]]'
p1460
tp1461
F0.0020491803278688526
s(S'also'
p1462
S'honored'
p1463
S'at'
p1464
tp1465
F0.0020491803278688526
s(S'was'
p1466
S'moved'
p1467
S'for'
p1468
tp1469
F0.0020491803278688526
s(S'also'
p1470
S'known'
p1471
S'outside'
p1472
tp1473
F0.0020491803278688526
s(S'then'
p1474
S'appointed'
p1475
S'for'
p1476
tp1477
F0.0020491803278688526
s(S'[[con]]'
p1478
S'joined'
p1479
S'at'
p1480
tp1481
F0.0020491803278688526
s(S'was'
p1482
S'deported'
p1483
S'to'
p1484
tp1485
F0.0020491803278688526
s(S'[[num]]'
p1486
S'graduated'
p1487
S'from'
p1488
tp1489
F0.0020491803278688526
s(S'[[adj]]'
p1490
S'member'
p1491
S'in'
p1492
tp1493
F0.0020491803278688526
s(S'is'
p1494
S'named'
p1495
S'by'
p1496
tp1497
F0.0020491803278688526
s(S'[[adj]]'
p1498
S'served'
p1499
S'at'
p1500
tp1501
F0.0020491803278688526
s(S'[[adj]]'
p1502
S'member'
p1503
S'[[num]]'
p1504
tp1505
F0.0020491803278688526
s(S'also'
p1506
S'served'
p1507
S'[[num]]'
p1508
tp1509
F0.0020491803278688526
s(S'had'
p1510
S'served'
p1511
S'as'
p1512
tp1513
F0.0020491803278688526
s(S'[[con]]'
p1514
S'served'
p1515
S'[[det]]'
p1516
tp1517
F0.0020491803278688526
s(S'[[adj]]'
p1518
S'member'
p1519
S'at'
p1520
tp1521
F0.0020491803278688526
s(S'never'
p1522
S'left'
p1523
S'[[det]]'
p1524
tp1525
F0.0020491803278688526
s(S'formerly'
p1526
S'served'
p1527
S'in'
p1528
tp1529
F0.0020491803278688526
s(S'also'
p1530
S'member'
p1531
S'of'
p1532
tp1533
F0.0020491803278688526
s(S'was'
p1534
S'honored'
p1535
S'with'
p1536
tp1537
F0.0020491803278688526
s(S'[[det]]'
p1538
S'member'
p1539
S'[[adj]]'
p1540
tp1541
F0.0020491803278688526
s(S'was'
p1542
S'honored'
p1543
S'at'
p1544
tp1545
F0.0020491803278688526
s(S'has'
p1546
S'established'
p1547
S'[[pro]]'
p1548
tp1549
F0.0020491803278688526
s(S'first'
p1550
S'represented'
p1551
S'for'
p1552
tp1553
F0.0020491803278688526
s(S'as'
p1554
S'moved'
p1555
S'to'
p1556
tp1557
F0.0020491803278688526
s(S'later'
p1558
S'entered'
p1559
S'[[det]]'
p1560
tp1561
F0.0020491803278688526
s(S'as'
p1562
S'officer'
p1563
S'for'
p1564
tp1565
F0.0020491803278688526
s(S'later'
p1566
S'served'
p1567
S'[[adj]]'
p1568
tp1569
F0.0020491803278688526
s(S'[[con]]'
p1570
S'member'
p1571
S'[[det]]'
p1572
tp1573
F0.0020491803278688526
s(S'was'
p1574
S'named'
p1575
S'to'
p1576
tp1577
F0.0020491803278688526
s(S'had'
p1578
S'served'
p1579
S'in'
p1580
tp1581
F0.0020491803278688526
s(S'[[con]]'
p1582
S'entered'
p1583
S'[[det]]'
p1584
tp1585
F0.0020491803278688526
s(S'was'
p1586
S'moved'
p1587
S'after'
p1588
tp1589
F0.0020491803278688526
s(S'has'
p1590
S'left'
p1591
S'[[con]]'
p1592
tp1593
F0.0020491803278688526
s(S'soon'
p1594
S'left'
p1595
S'[[det]]'
p1596
tp1597
F0.0020491803278688526
s(S'[[con]]'
p1598
S'joined'
p1599
S'[[adj]]'
p1600
tp1601
F0.0020491803278688526
s(S'later'
p1602
S'returned'
p1603
S'to'
p1604
tp1605
F0.0020491803278688526
s(S'[[adj]]'
p1606
S'joined'
p1607
S'[[det]]'
p1608
tp1609
F0.0020491803278688526
s(S'to'
p1610
S'leave'
p1611
S'in'
p1612
tp1613
F0.0020491803278688526
s(S'[[con]]'
p1614
S'member'
p1615
S'[[con]]'
p1616
tp1617
F0.0020491803278688526
s(S'was'
p1618
S'honored'
p1619
S'as'
p1620
tp1621
F0.0020491803278688526
s(g751
S'return'
p1622
S'in'
p1623
tp1624
F0.0020491803278688526
s(S'was'
p1625
S'head'
p1626
S'to'
p1627
tp1628
F0.0020491803278688526
s(S'[[num]]'
p1629
S'joined'
p1630
S'[[det]]'
p1631
tp1632
F0.0020491803278688526
s(S'was'
p1633
S'member'
p1634
S'in'
p1635
tp1636
F0.0020491803278688526
s(S'then'
p1637
S'served'
p1638
S'[[det]]'
p1639
tp1640
F0.0020491803278688526
s(S'later'
p1641
S'graduated'
p1642
S'from'
p1643
tp1644
F0.0020491803278688526
s(g751
S'known'
p1645
S'in'
p1646
tp1647
F0.0020491803278688526
s(S'has'
p1648
S'served'
p1649
S'to'
p1650
tp1651
F0.0020491803278688526
s(S'was'
p1652
S'transferred'
p1653
S'at'
p1654
tp1655
F0.0020491803278688526
s(S'later'
p1656
S'served'
p1657
S'[[con]]'
p1658
tp1659
F0.0020491803278688526
s(S'became'
p1660
S'member'
p1661
S'for'
p1662
tp1663
F0.0020491803278688526
s(S'never'
p1664
S'return'
p1665
S'to'
p1666
tp1667
F0.0020491803278688526
s(S'[[adj]]'
p1668
S'member'
p1669
S'[[con]]'
p1670
tp1671
F0.0020491803278688526
s(S'was'
p1672
S'transferred'
p1673
S'in'
p1674
tp1675
F0.0020491803278688526
s(S'also'
p1676
S'appointed'
p1677
S'[[num]]'
p1678
tp1679
F0.0020491803278688526
s(S'[[con]]'
p1680
S'represented'
p1681
S'[[det]]'
p1682
tp1683
F0.0020491803278688526
s(S'first'
p1684
S'represented'
p1685
S'[[det]]'
p1686
tp1687
F0.0020491803278688526
s(S'[[det]]'
p1688
S'member'
p1689
S'[[con]]'
p1690
tp1691
F0.0020491803278688526
s(S'was'
p1692
S'named'
p1693
S'with'
p1694
tp1695
F0.0020491803278688526
s(S'[[con]]'
p1696
S'left'
p1697
S'to'
p1698
tp1699
F0.0020491803278688526
s(S'to'
p1700
S'leave'
p1701
S'for'
p1702
tp1703
F0.0020491803278688526
s(S'also'
p1704
S'served'
p1705
S'until'
p1706
tp1707
F0.0020491803278688526
s(S'first'
p1708
S'joined'
p1709
S'[[det]]'
p1710
tp1711
F0.0020491803278688526
s(S'when'
p1712
S'left'
p1713
S'[[det]]'
p1714
tp1715
F0.0020491803278688526
s(S'then'
p1716
S'entered'
p1717
S'[[det]]'
p1718
tp1719
F0.0020491803278688526
s(S'has'
p1720
S'served'
p1721
S'at'
p1722
tp1723
F0.0020491803278688526
s(S'was'
p1724
S'named'
p1725
S'as'
p1726
tp1727
F0.0020491803278688526
s(S'then'
p1728
S'served'
p1729
S'at'
p1730
tp1731
F0.0020491803278688526
s(S'was'
p1732
S'honored'
p1733
S'[[det]]'
p1734
tp1735
F0.0020491803278688526
s(S'has'
p1736
S'served'
p1737
S'on'
p1738
tp1739
F0.0020491803278688526
s(S'then'
p1740
S'served'
p1741
S'in'
p1742
tp1743
F0.0020491803278688526
s(S'later'
p1744
S'served'
p1745
S'for'
p1746
tp1747
F0.0020491803278688526
s(S'was'
p1748
S'member'
p1749
S'[[det]]'
p1750
tp1751
F0.0020491803278688526
s(S'was'
p1752
S'named'
p1753
S'[[con]]'
p1754
tp1755
F0.0020491803278688526
s(S'then'
p1756
S'moved'
p1757
S'to'
p1758
tp1759
F0.0020491803278688526
s(g919
g920
S'honor'
p1760
tp1761
F0.0020491803278688526
s(S'be'
p1762
S'returned'
p1763
S'to'
p1764
tp1765
F0.0020491803278688526
s(S'was'
p1766
S'transferred'
p1767
S'for'
p1768
tp1769
F0.0020491803278688526
s(S'[[det]]'
p1770
S'member'
p1771
S'for'
p1772
tp1773
F0.0020491803278688526
s(S'again'
p1774
S'named'
p1775
S'[[det]]'
p1776
tp1777
F0.0020491803278688526
s(S'since'
p1778
S'left'
p1779
S'[[det]]'
p1780
tp1781
F0.0020491803278688526
s(S'also'
p1782
S'represented'
p1783
S'[[det]]'
p1784
tp1785
F0.0020491803278688526
s(S'[[det]]'
p1786
S'head'
p1787
S'[[det]]'
p1788
tp1789
F0.0020491803278688526
s(S'also'
p1790
S'established'
p1791
S'[[con]]'
p1792
tp1793
F0.0020491803278688526
s(S'first'
p1794
S'came'
p1795
S'at'
p1796
tp1797
F0.0020491803278688526
s(S'has'
p1798
S'joined'
p1799
S'[[det]]'
p1800
tp1801
F0.0020491803278688526
s(S'also'
p1802
S'served'
p1803
S'from'
p1804
tp1805
F0.0020491803278688526
s(S'was'
p1806
S'joined'
p1807
S'[[det]]'
p1808
tp1809
F0.0020491803278688526
s(S'became'
p1810
S'member'
p1811
S'of'
p1812
tp1813
F0.0020491803278688526
s(S'became'
p1814
S'known'
p1815
S'only'
p1816
tp1817
F0.0020491803278688526
s(S'[[con]]'
p1818
S'graduated'
p1819
S'at'
p1820
tp1821
F0.0020491803278688526
s(g751
S'return'
p1822
S'from'
p1823
tp1824
F0.0020491803278688526
s(S'had'
p1825
S'joined'
p1826
S'of'
p1827
tp1828
F0.0020491803278688526
s(S'[[con]]'
p1829
S'graduated'
p1830
S'from'
p1831
tp1832
F0.0020491803278688526
s(S'later'
p1833
S'left'
p1834
S'for'
p1835
tp1836
F0.0020491803278688526
s(S'[[pro]]'
p1837
S'graduated'
p1838
S'from'
p1839
tp1840
F0.0020491803278688526
s(S'[[adj]]'
p1841
S'served'
p1842
S'for'
p1843
tp1844
F0.0020491803278688526
s(S'is'
p1845
S'appointed'
p1846
S'to'
p1847
tp1848
F0.0020491803278688526
s(S'also'
p1849
S'served'
p1850
S'on'
p1851
tp1852
F0.0020491803278688526
s(S'until'
p1853
S'joined'
p1854
S'[[det]]'
p1855
tp1856
F0.0020491803278688526
s(S'[[adj]]'
p1857
S'head'
p1858
S'in'
p1859
tp1860
F0.0020491803278688526
s(S'later'
p1861
S'served'
p1862
S'in'
p1863
tp1864
F0.0020491803278688526
s(S'was'
p1865
S'moved'
p1866
S'back'
p1867
tp1868
F0.0020491803278688526
s(S'was'
p1869
S'transferred'
p1870
S'[[con]]'
p1871
tp1872
F0.0020491803278688526
s(S'later'
p1873
S'served'
p1874
S'at'
p1875
tp1876
F0.0020491803278688526
s(g983
g984
S'in'
p1877
tp1878
F0.0020491803278688526
s(S'again'
p1879
S'joined'
p1880
S'[[det]]'
p1881
tp1882
F0.0020491803278688526
s(S'served'
p1883
g641
g389
tp1884
F0.006147540983606557
s(S'[[adj]]'
p1885
S'head'
p1886
S'[[det]]'
p1887
tp1888
F0.0020491803278688526
s(S'then'
p1889
S'returned'
p1890
S'where'
p1891
tp1892
F0.0020491803278688526
s(S'also'
p1893
S'served'
p1894
S'of'
p1895
tp1896
F0.0020491803278688526
s.