(dp0
(S'had'
p1
S'acquired'
p2
S'[[det]]'
p3
tp4
F0.009174311926605505
s(S'be'
p5
S'purchased'
p6
S'by'
p7
tp8
F0.009174311926605505
s(S'had'
p9
S'merged'
p10
S'with'
p11
tp12
F0.009174311926605505
s(S'created'
p13
S'by'
p14
S'[[det]]'
p15
tp16
F0.027522935779816515
s(S'later'
p17
S'merged'
p18
S'with'
p19
tp20
F0.009174311926605505
s(S'be'
p21
S'acquired'
p22
S'by'
p23
tp24
F0.009174311926605505
s(S'was'
p25
S'merged'
p26
S'into'
p27
tp28
F0.009174311926605505
s(S'was'
p29
S'created'
p30
S'by'
p31
tp32
F0.01834862385321101
s(S'[[prp]]'
p33
S'purchase'
p34
S'of'
p35
tp36
F0.009174311926605505
s(S'to'
p37
S'acquire'
p38
S'[[det]]'
p39
tp40
F0.009174311926605505
s(S'to'
p41
S'acquire'
p42
S'[[con]]'
p43
tp44
F0.009174311926605505
s(S'parent'
p45
S'company'
p46
S'of'
p47
tp48
F0.01834862385321101
s(S'was'
p49
S'announced'
p50
S'[[det]]'
p51
tp52
F0.009174311926605505
s(S'were'
p53
S'acquired'
p54
S'by'
p55
tp56
F0.009174311926605505
s(S'were'
p57
S'purchased'
p58
S'from'
p59
tp60
F0.009174311926605505
s(S's'
p61
S'purchase'
p62
S'of'
p63
tp64
F0.009174311926605505
s(S'later'
p65
S'purchased'
p66
S'by'
p67
tp68
F0.009174311926605505
s(S'being'
p69
S'acquired'
p70
S'by'
p71
tp72
F0.009174311926605505
s(S'to'
p73
S'purchase'
p74
S'from'
p75
tp76
F0.009174311926605505
s(S'[[adj]]'
p77
S'companies'
p78
S'[[adj]]'
p79
tp80
F0.009174311926605505
s(S'later'
p81
S'merged'
p82
S'[[con]]'
p83
tp84
F0.009174311926605505
s(S'then'
p85
S'merged'
p86
S'with'
p87
tp88
F0.009174311926605505
s(S'had'
p89
S'purchased'
p90
S'from'
p91
tp92
F0.009174311926605505
s(S'was'
p93
S'purchased'
p94
S'by'
p95
tp96
F0.009174311926605505
s(S'also'
p97
S'owns'
p98
S'[[det]]'
p99
tp100
F0.009174311926605505
s(S'[[pro]]'
p101
S'[[mod]]'
p102
S'acquire'
p103
tp104
F0.009174311926605505
s(S'which'
p105
S'merged'
p106
S'with'
p107
tp108
F0.009174311926605505
s(S'currently'
p109
S'owns'
p110
S'[[num]]'
p111
tp112
F0.009174311926605505
s(S'to'
p113
S'sell'
p114
S'to'
p115
tp116
F0.009174311926605505
s(S'to'
p117
S'buy'
p118
S'out'
p119
tp120
F0.009174311926605505
s(S'was'
p121
S'merged'
p122
S'to'
p123
tp124
F0.009174311926605505
s(S'announced'
p125
g101
g102
tp126
F0.009174311926605505
s(S'been'
p127
S'acquired'
p128
S'by'
p129
tp130
F0.009174311926605505
s(S'through'
p131
S'[[det]]'
p132
S'merger'
p133
tp134
F0.009174311926605505
s(S'was'
p135
S'created'
p136
S'with'
p137
tp138
F0.009174311926605505
s(S'was'
p139
S'purchased'
p140
S'[[con]]'
p141
tp142
F0.009174311926605505
s(S'announced'
p143
S'[[mod]]'
p144
S'acquire'
p145
tp146
F0.009174311926605505
s(S'were'
p147
S'merged'
p148
S'into'
p149
tp150
F0.009174311926605505
s(S'later'
p151
S'acquired'
p152
S'[[num]]'
p153
tp154
F0.009174311926605505
s(g136
g137
S'[[det]]'
p155
tp156
F0.009174311926605505
s(g155
S'merger'
p157
S'of'
p158
tp159
F0.045871559633027525
s(S'[[mod]]'
p160
S'sell'
p161
S'to'
p162
tp163
F0.009174311926605505
s(S'created'
p164
g131
g132
tp165
F0.009174311926605505
s(S'been'
p166
S'purchased'
p167
S'by'
p168
tp169
F0.009174311926605505
s(S'be'
p170
S'merged'
p171
S'with'
p172
tp173
F0.009174311926605505
s(S'[[det]]'
p174
S'majority'
p175
S'owner'
p176
tp177
F0.009174311926605505
s(S'[[det]]'
p178
S'parent'
p179
S'of'
p180
tp181
F0.009174311926605505
s(S'were'
p182
S'purchased'
p183
S'by'
p184
tp185
F0.009174311926605505
s(S'had'
p186
S'acquired'
p187
S'[[con]]'
p188
tp189
F0.009174311926605505
s(S'parent'
p190
S'company'
p191
S'for'
p192
tp193
F0.009174311926605505
s(S'was'
p194
S'created'
p195
S'from'
p196
tp197
F0.009174311926605505
s(S'[[adj]]'
p198
S'acquisition'
p199
S'of'
p200
tp201
F0.009174311926605505
s(g175
g176
S'of'
p202
tp203
F0.009174311926605505
s(S'announced'
p204
S'that'
p205
S'[[mod]]'
p206
tp207
F0.009174311926605505
s(S'also'
p208
S'includes'
p209
S'[[con]]'
p210
tp211
F0.009174311926605505
s(S'[[con]]'
p212
S'merged'
p213
S'with'
p214
tp215
F0.009174311926605505
s(S'[[det]]'
p216
S'acquisition'
p217
S'of'
p218
tp219
F0.009174311926605505
s(S'which'
p220
S'includes'
p221
S'[[num]]'
p222
tp223
F0.009174311926605505
s(S'was'
p224
S'announced'
p225
S'that'
p226
tp227
F0.009174311926605505
s(S'[[det]]'
p228
S'purchase'
p229
S'of'
p230
tp231
F0.009174311926605505
s(S'to'
p232
S'sell'
p233
S'[[det]]'
p234
tp235
F0.009174311926605505
s(g61
S'parent'
p236
S'company'
p237
tp238
F0.009174311926605505
s(S'by'
p239
S'companies'
p240
S'[[adj]]'
p241
tp242
F0.009174311926605505
s(S'[[prp]]'
p243
S'parent'
p244
S'company'
p245
tp246
F0.009174311926605505
s(S'also'
p247
S'acquired'
p248
S'[[det]]'
p249
tp250
F0.009174311926605505
s(g196
S'[[det]]'
p251
S'merger'
p252
tp253
F0.009174311926605505
s(S'[[adj]]'
p254
S'parent'
p255
S'company'
p256
tp257
F0.009174311926605505
s(S'later'
p258
S'merged'
p259
S'into'
p260
tp261
F0.009174311926605505
s(S'was'
p262
S'merged'
p263
S'with'
p264
tp265
F0.009174311926605505
s(S'[[mod]]'
p266
S'sell'
p267
S'[[prp]]'
p268
tp269
F0.009174311926605505
s(S'when'
p270
S'merged'
p271
S'with'
p272
tp273
F0.009174311926605505
s(S'was'
p274
S'acquired'
p275
S'[[con]]'
p276
tp277
F0.009174311926605505
s(g205
g206
S'acquire'
p278
tp279
F0.009174311926605505
s(S'was'
p280
g164
g131
tp281
F0.009174311926605505
s(S'had'
p282
S'purchased'
p283
S'[[det]]'
p284
tp285
F0.009174311926605505
s(S'[[det]]'
p286
S'parent'
p287
S'company'
p288
tp289
F0.027522935779816515
s(S'also'
p290
S'acquired'
p291
S'from'
p292
tp293
F0.009174311926605505
s(S'[[con]]'
p294
S'merged'
p295
S'into'
p296
tp297
F0.009174311926605505
s(S'be'
p298
S'merged'
p299
S'into'
p300
tp301
F0.009174311926605505
s(g14
g15
S'merger'
p302
tp303
F0.027522935779816515
s(S'to'
p304
S'sell'
p305
S'[[prp]]'
p306
tp307
F0.009174311926605505
s(S'[[mod]]'
p308
S'acquire'
p309
S'[[num]]'
p310
tp311
F0.009174311926605505
s(S'to'
p312
S'buy'
p313
S'[[num]]'
p314
tp315
F0.009174311926605505
s(S'[[pro]]'
p316
S'acquired'
p317
S'by'
p318
tp319
F0.009174311926605505
s(S'was'
p320
S'merged'
p321
S'[[con]]'
p322
tp323
F0.009174311926605505
s(S'had'
p324
S'merged'
p325
S'into'
p326
tp327
F0.009174311926605505
s(S'[[con]]'
p328
S'acquired'
p329
S'by'
p330
tp331
F0.009174311926605505
s(g137
g155
g157
tp332
F0.009174311926605505
s(S'was'
p333
S'acquired'
p334
S'by'
p335
tp336
F0.009174311926605505
s(S'later'
p337
S'acquired'
p338
S'by'
p339
tp340
F0.009174311926605505
s(S'had'
p341
S'acquired'
p342
S'from'
p343
tp344
F0.009174311926605505
s(S'was'
p345
S'purchased'
p346
S'in'
p347
tp348
F0.009174311926605505
s(S'[[mod]]'
p349
S'acquire'
p350
S'[[det]]'
p351
tp352
F0.009174311926605505
s(S'[[con]]'
p353
S'merged'
p354
S'to'
p355
tp356
F0.009174311926605505
s(S'has'
p357
S'announced'
p358
S'that'
p359
tp360
F0.009174311926605505
s(g61
S'acquisition'
p361
S'of'
p362
tp363
F0.009174311926605505
s(g195
g196
g251
tp364
F0.009174311926605505
s.