(dp0
(S'be'
p1
S'forced'
p2
S'to'
p3
tp4
F0.0003968253968253968
s(S'most'
p5
S'recognized'
p6
S'as'
p7
tp8
F0.0003968253968253968
s(S'most'
p9
S'notably'
p10
S'[[con]]'
p11
tp12
F0.0003968253968253968
s(S'by'
p13
S'[[det]]'
p14
S'son'
p15
tp16
F0.0003968253968253968
s(S'then'
p17
S'ran'
p18
S'with'
p19
tp20
F0.0003968253968253968
s(S'[[con]]'
p21
S'[[prp]]'
p22
S'son'
p23
tp24
F0.0015873015873015873
s(S'[[num]]'
p25
S'votes'
p26
S'while'
p27
tp28
F0.0003968253968253968
s(S'[[pro]]'
p29
S'replaced'
p30
S'by'
p31
tp32
F0.0003968253968253968
s(S'was'
p33
S'merged'
p34
S'into'
p35
tp36
F0.0003968253968253968
s(S'later'
p37
S'wrote'
p38
S'that'
p39
tp40
F0.0003968253968253968
s(S'later'
p41
S'promoted'
p42
S'to'
p43
tp44
F0.0003968253968253968
s(S'elected'
p45
S'after'
p46
S'defeating'
p47
tp48
F0.0003968253968253968
s(S'[[con]]'
p49
S'served'
p50
S'[[num]]'
p51
tp52
F0.0003968253968253968
s(S'eldest'
p53
S'son'
p54
S'[[adj]]'
p55
tp56
F0.0003968253968253968
s(S's'
p57
S'relationship'
p58
S'with'
p59
tp60
F0.0003968253968253968
s(S'[[adj]]'
p61
S'replacement'
p62
S'for'
p63
tp64
F0.0003968253968253968
s(S'was'
p65
S'married'
p66
S'again'
p67
tp68
F0.0003968253968253968
s(S'[[det]]'
p69
S'senator'
p70
S'[[con]]'
p71
tp72
F0.0003968253968253968
s(S'then'
p73
S'moved'
p74
S'where'
p75
tp76
F0.0003968253968253968
s(g57
S'defeated'
p77
S'[[num]]'
p78
tp79
F0.0003968253968253968
s(S'had'
p80
S'killed'
p81
S'[[adj]]'
p82
tp83
F0.0003968253968253968
s(S'[[det]]'
p84
S'throne'
p85
S'[[con]]'
p86
tp87
F0.0003968253968253968
s(S'[[num]]'
p88
S'led'
p89
S'by'
p90
tp91
F0.0003968253968253968
s(S'was'
p92
S'removed'
p93
S'by'
p94
tp95
F0.0003968253968253968
s(S'votes'
p96
S'[[con]]'
p97
S'received'
p98
tp99
F0.0003968253968253968
s(S'being'
p100
S'replaced'
p101
S'by'
p102
tp103
F0.0003968253968253968
s(S'[[con]]'
p104
S'remained'
p105
S'[[det]]'
p106
tp107
F0.0003968253968253968
s(S'been'
p108
S'appointed'
p109
S'by'
p110
tp111
F0.0003968253968253968
s(S'father'
p112
S'of'
p113
S'[[prp]]'
p114
tp115
F0.0003968253968253968
s(S'lost'
p116
S'to'
p117
S'[[det]]'
p118
tp119
F0.0003968253968253968
s(S'also'
p120
S'lost'
p121
S'to'
p122
tp123
F0.0003968253968253968
s(S'had'
p124
S'acquired'
p125
S'[[con]]'
p126
tp127
F0.0003968253968253968
s(S'when'
p128
S'wrote'
p129
S'to'
p130
tp131
F0.0003968253968253968
s(S'were'
p132
S'bought'
p133
S'by'
p134
tp135
F0.0003968253968253968
s(g57
S'younger'
p136
S'brother'
p137
tp138
F0.0011904761904761906
s(S'[[adj]]'
p139
S'election'
p140
S'to'
p141
tp142
F0.0003968253968253968
s(S'[[prp]]'
p143
S'[[adj]]'
p144
S'brother'
p145
tp146
F0.0003968253968253968
s(S'later'
p147
S'followed'
p148
S'[[det]]'
p149
tp150
F0.0003968253968253968
s(S'was'
p151
S'purchased'
p152
S'[[con]]'
p153
tp154
F0.0003968253968253968
s(S'to'
p155
S'resign'
p156
S'[[con]]'
p157
tp158
F0.0003968253968253968
s(S'[[adj]]'
p159
S'children'
p160
S'[[num]]'
p161
tp162
F0.0003968253968253968
s(S'also'
p163
S'appointed'
p164
S'[[con]]'
p165
tp166
F0.0003968253968253968
s(S'was'
p167
g45
g46
tp168
F0.0003968253968253968
s(S'[[det]]'
p169
S'successor'
p170
S'[[con]]'
p171
tp172
F0.0003968253968253968
s(S'was'
p173
S'thought'
p174
S'to'
p175
tp176
F0.0003968253968253968
s(S'[[det]]'
p177
S'ally'
p178
S'[[con]]'
p179
tp180
F0.0003968253968253968
s(S'while'
p181
S'moved'
p182
S'to'
p183
tp184
F0.0003968253968253968
s(S'[[adj]]'
p185
S'friend'
p186
S'as'
p187
tp188
F0.0003968253968253968
s(S'[[con]]'
p189
S'took'
p190
S'[[det]]'
p191
tp192
F0.0003968253968253968
s(S'to'
p193
S'remove'
p194
S'[[pro]]'
p195
tp196
F0.0003968253968253968
s(g57
S'death'
p197
S'[[det]]'
p198
tp199
F0.0003968253968253968
s(S'[[det]]'
p200
S'sons'
p201
S'of'
p202
tp203
F0.0003968253968253968
s(S'threw'
p204
S'[[prp]]'
p205
S'support'
p206
tp207
F0.0007936507936507937
s(S'is'
p208
S'called'
p209
S'as'
p210
tp211
F0.0003968253968253968
s(S'[[num]]'
p212
S'ref'
p213
S'[[num]]'
p214
tp215
F0.0003968253968253968
s(S'being'
p216
S'attacked'
p217
S'by'
p218
tp219
F0.0003968253968253968
s(S'succeeded'
p220
g143
g144
tp221
F0.0007936507936507937
s(S'[[det]]'
p222
S'daughter'
p223
S'[[num]]'
p224
tp225
F0.0003968253968253968
s(S'elected'
p226
S'defeating'
p227
S'[[con]]'
p228
tp229
F0.0003968253968253968
s(S'which'
p230
S'announced'
p231
S'had'
p232
tp233
F0.0003968253968253968
s(S'[[det]]'
p234
S'electorate'
p235
S'was'
p236
tp237
F0.0003968253968253968
s(S'[[pro]]'
p238
S'came'
p239
S'back'
p240
tp241
F0.0003968253968253968
s(S'[[con]]'
p242
S'was'
p243
S'defeated'
p244
tp245
F0.0035714285714285713
s(S'[[con]]'
p246
S'met'
p247
S'[[con]]'
p248
tp249
F0.0003968253968253968
s(S'has'
p250
S'played'
p251
S'[[det]]'
p252
tp253
F0.0003968253968253968
s(S'[[adj]]'
p254
S'role'
p255
S'as'
p256
tp257
F0.0011904761904761906
s(S'where'
p258
S'remained'
p259
S'until'
p260
tp261
F0.0003968253968253968
s(S'reelected'
p262
S'[[con]]'
p263
S'defeated'
p264
tp265
F0.0003968253968253968
s(S'later'
p266
S'wrote'
p267
S'[[adj]]'
p268
tp269
F0.0003968253968253968
s(S'to'
p270
S'support'
p271
S'[[prp]]'
p272
tp273
F0.0003968253968253968
s(S'[[det]]'
p274
S'role'
p275
S'as'
p276
tp277
F0.0003968253968253968
s(S'[[pro]]'
p278
S'defeated'
p279
S'[[con]]'
p280
tp281
F0.0003968253968253968
s(S'younger'
p282
S'brother'
p283
S'[[pro]]'
p284
tp285
F0.0003968253968253968
s(S'[[num]]'
p286
S'days'
p287
S'before'
p288
tp289
F0.0003968253968253968
s(S'had'
p290
S'changed'
p291
S'[[prp]]'
p292
tp293
F0.0003968253968253968
s(S'[[adj]]'
p294
S'children'
p295
S'of'
p296
tp297
F0.0003968253968253968
s(S'[[con]]'
p298
S'served'
p299
S'when'
p300
tp301
F0.0007936507936507937
s(S'stepped'
p302
S'down'
p303
S'in'
p304
tp305
F0.0003968253968253968
s(S'[[det]]'
p306
S'letter'
p307
S'[[con]]'
p308
tp309
F0.0003968253968253968
s(S'was'
p310
S'adopted'
p311
S'by'
p312
tp313
F0.0003968253968253968
s(S'to'
p314
S'form'
p315
S'[[con]]'
p316
tp317
F0.0003968253968253968
s(S'later'
p318
S'replaced'
p319
S'as'
p320
tp321
F0.0003968253968253968
s(S'also'
p322
S'met'
p323
S'[[prp]]'
p324
tp325
F0.0003968253968253968
s(S'[[det]]'
p326
S'friend'
p327
S'[[con]]'
p328
tp329
F0.0003968253968253968
s(S'then'
p330
S'appointed'
p331
S'[[det]]'
p332
tp333
F0.0003968253968253968
s(S'[[det]]'
p334
S'son'
p335
S'brother'
p336
tp337
F0.0007936507936507937
s(S'[[adj]]'
p338
S'member'
p339
S'as'
p340
tp341
F0.0003968253968253968
s(S'in'
p342
S'was'
p343
S'followed'
p344
tp345
F0.0003968253968253968
s(S'then'
p346
S'married'
p347
S'[[pro]]'
p348
tp349
F0.0003968253968253968
s(S'being'
p350
S'promoted'
p351
S'[[con]]'
p352
tp353
F0.0003968253968253968
s(S'had'
p354
S'acted'
p355
S'as'
p356
tp357
F0.0003968253968253968
s(S'whose'
p358
S'father'
p359
S'was'
p360
tp361
F0.0003968253968253968
s(S'[[adj]]'
p362
S'choice'
p363
S'in'
p364
tp365
F0.0003968253968253968
s(S'also'
p366
S'met'
p367
S'[[adj]]'
p368
tp369
F0.0003968253968253968
s(S'was'
p370
S'recognized'
p371
S'by'
p372
tp373
F0.0003968253968253968
s(S'been'
p374
S'called'
p375
S'up'
p376
tp377
F0.0003968253968253968
s(S'[[con]]'
p378
S'replaced'
p379
S'[[con]]'
p380
tp381
F0.0003968253968253968
s(S'been'
p382
S'called'
p383
S'[[adj]]'
p384
tp385
F0.0003968253968253968
s(S'stood'
p386
S'down'
p387
S'was'
p388
tp389
F0.0003968253968253968
s(S'becomes'
p390
S'friends'
p391
S'with'
p392
tp393
F0.0003968253968253968
s(g57
S'son'
p394
S'whom'
p395
tp396
F0.0003968253968253968
s(S'were'
p397
S'merged'
p398
S'into'
p399
tp400
F0.0003968253968253968
s(S'[[adj]]'
p401
S'was'
p402
S'succeeded'
p403
tp404
F0.0003968253968253968
s(S'to'
p405
S'remain'
p406
S'[[con]]'
p407
tp408
F0.0003968253968253968
s(S'[[con]]'
p409
S'replaced'
p410
S'with'
p411
tp412
F0.0007936507936507937
s(g57
S'sons'
p413
S'[[con]]'
p414
tp415
F0.0003968253968253968
s(S'[[adj]]'
p416
S'uncle'
p417
S'of'
p418
tp419
F0.0003968253968253968
s(S'had'
p420
S'acquired'
p421
S'from'
p422
tp423
F0.0003968253968253968
s(S'brother'
p424
S'[[con]]'
p425
S'younger'
p426
tp427
F0.0003968253968253968
s(S'[[det]]'
p428
S'defeat'
p429
S'of'
p430
tp431
F0.0003968253968253968
s(S'[[num]]'
p432
S'days'
p433
S'later'
p434
tp435
F0.0003968253968253968
s(S'later'
p436
S'took'
p437
S'[[det]]'
p438
tp439
F0.0003968253968253968
s(S'was'
p440
S'removed'
p441
S'after'
p442
tp443
F0.0003968253968253968
s(S'[[pro]]'
p444
S'wrote'
p445
S'to'
p446
tp447
F0.0003968253968253968
s(S'[[det]]'
p448
S'match'
p449
S'at'
p450
tp451
F0.0003968253968253968
s(S'[[adj]]'
p452
S'emperor'
p453
S'as'
p454
tp455
F0.0003968253968253968
s(S'also'
p456
S'did'
p457
S'not'
p458
tp459
F0.0003968253968253968
s(S'by'
p460
S'winning'
p461
g448
tp462
F0.0003968253968253968
s(S'[[prp]]'
p463
S'son'
p464
S'to'
p465
tp466
F0.0003968253968253968
s(S'[[con]]'
p467
S'[[det]]'
p468
S'brother'
p469
tp470
F0.0011904761904761906
s(S'to'
p471
S'remove'
p472
S'from'
p473
tp474
F0.0003968253968253968
s(S'[[num]]'
p475
S'wrote'
p476
S'on'
p477
tp478
F0.0003968253968253968
s(S'ran'
p479
S'[[con]]'
p480
S'defeated'
p481
tp482
F0.0007936507936507937
s(S'defeated'
p483
S'[[det]]'
p484
S'candidate'
p485
tp486
F0.0003968253968253968
s(S'to'
p487
S'allow'
p488
S'[[prp]]'
p489
tp490
F0.0003968253968253968
s(S'[[con]]'
p491
S'succeeded'
p492
S'by'
p493
tp494
F0.0003968253968253968
s(S'had'
p495
S'married'
p496
S'[[con]]'
p497
tp498
F0.0003968253968253968
s(S'had'
p499
S'died'
p500
S'at'
p501
tp502
F0.0003968253968253968
s(S'was'
p503
S'leader'
p504
S'[[con]]'
p505
tp506
F0.0003968253968253968
s(S'married'
p507
S'[[con]]'
p508
S'[[det]]'
p509
tp510
F0.0011904761904761906
s(S'were'
p511
S'named'
p512
S'to'
p513
tp514
F0.0003968253968253968
s(S'also'
p515
S'replaced'
p516
S'by'
p517
tp518
F0.0003968253968253968
s(S'son'
p519
S'[[con]]'
p520
S'father'
p521
tp522
F0.0003968253968253968
s(S'has'
p523
S'met'
p524
S'with'
p525
tp526
F0.0003968253968253968
s(S'[[con]]'
p527
S'defeated'
p528
S'[[adj]]'
p529
tp530
F0.0007936507936507937
s(S'[[con]]'
p531
S'died'
p532
S'[[num]]'
p533
tp534
F0.0003968253968253968
s(S'succeeded'
p535
S'by'
p536
S'[[prp]]'
p537
tp538
F0.010317460317460317
s(S'[[adj]]'
p539
S'son'
p540
S'with'
p541
tp542
F0.0003968253968253968
s(S'then'
p543
S'succeeded'
p544
S'by'
p545
tp546
F0.0003968253968253968
s(S'also'
p547
S'served'
p548
S'when'
p549
tp550
F0.0003968253968253968
s(S'have'
p551
S'served'
p552
S'in'
p553
tp554
F0.0003968253968253968
s(S'[[con]]'
p555
S'met'
p556
S'with'
p557
tp558
F0.0003968253968253968
s(S'younger'
p559
S'brother'
p560
S'[[det]]'
p561
tp562
F0.0007936507936507937
s(S'[[det]]'
p563
S'son'
p564
S'[[con]]'
p565
tp566
F0.004365079365079365
s(S'[[det]]'
p567
S'wife'
p568
S'of'
p569
tp570
F0.0003968253968253968
s(S'[[con]]'
p571
S'gave'
p572
S'[[adj]]'
p573
tp574
F0.0003968253968253968
s(S'yielded'
p575
S'[[det]]'
p576
S'throne'
p577
tp578
F0.0003968253968253968
s(S'[[det]]'
p579
S'candidate'
p580
S'was'
p581
tp582
F0.0003968253968253968
s(S'been'
p583
S'married'
p584
S'twice'
p585
tp586
F0.0003968253968253968
s(S'[[det]]'
p587
S'member'
p588
S'with'
p589
tp590
F0.0003968253968253968
s(S'[[prp]]'
p591
S'uncle'
p592
S'[[det]]'
p593
tp594
F0.0003968253968253968
s(S'be'
p595
S'raised'
p596
S'by'
p597
tp598
F0.0003968253968253968
s(S'were'
p599
S'defeated'
p600
S'by'
p601
tp602
F0.0007936507936507937
s(S'[[det]]'
p603
S'daughter'
p604
S'to'
p605
tp606
F0.0003968253968253968
s(g57
S'father'
p607
S'[[det]]'
p608
tp609
F0.0003968253968253968
s(S'also'
p610
S'came'
p611
S'with'
p612
tp613
F0.0003968253968253968
s(S'had'
p614
S'acquired'
p615
S'[[det]]'
p616
tp617
F0.0003968253968253968
s(S'to'
p618
S'ally'
p619
S'[[pro]]'
p620
tp621
F0.0003968253968253968
s(S'defeated'
p622
S'by'
p623
S'[[det]]'
p624
tp625
F0.0007936507936507937
s(S'then'
p626
S'bought'
p627
S'[[con]]'
p628
tp629
F0.0003968253968253968
s(S'later'
p630
S'succeeded'
p631
S'as'
p632
tp633
F0.0003968253968253968
s(g57
S'father'
p634
S'as'
p635
tp636
F0.0003968253968253968
s(S'[[adj]]'
p637
S'son'
p638
S'[[det]]'
p639
tp640
F0.0007936507936507937
s(S'[[prp]]'
p641
S'[[adj]]'
p642
S'seat'
p643
tp644
F0.0003968253968253968
s(S'to'
p645
S'merge'
p646
S'[[con]]'
p647
tp648
F0.0003968253968253968
s(S'get'
p649
S'married'
p650
S'to'
p651
tp652
F0.0003968253968253968
s(S'dies'
p653
S'[[con]]'
p654
S'is'
p655
tp656
F0.0007936507936507937
s(S'received'
p657
S'[[num]]'
p658
S'votes'
p659
tp660
F0.001984126984126984
s(S'be'
p661
S'succeeded'
p662
S'by'
p663
tp664
F0.0003968253968253968
s(S'to'
p665
S'remove'
p666
S'[[det]]'
p667
tp668
F0.0003968253968253968
s(S'is'
p669
S'cousin'
p670
S'to'
p671
tp672
F0.0003968253968253968
s(S'currently'
p673
S'married'
p674
S'to'
p675
tp676
F0.0003968253968253968
s(S'[[det]]'
p677
S'mother'
p678
S'of'
p679
tp680
F0.0003968253968253968
s(S'was'
p681
S'replaced'
p682
S'by'
p683
tp684
F0.0035714285714285713
s(S'merged'
p685
S'[[con]]'
p686
S'form'
p687
tp688
F0.0003968253968253968
s(S'[[adj]]'
p689
S'cousin'
p690
S'[[con]]'
p691
tp692
F0.0003968253968253968
s(S'[[det]]'
p693
S'rival'
p694
S'to'
p695
tp696
F0.0003968253968253968
s(S'[[det]]'
p697
S'rival'
p698
S'of'
p699
tp700
F0.0003968253968253968
s(S'was'
p701
S'grandson'
p702
S'to'
p703
tp704
F0.0003968253968253968
s(S'[[con]]'
p705
S'handed'
p706
S'[[pro]]'
p707
tp708
F0.0003968253968253968
s(S'for'
p709
S'called'
p710
S'along'
p711
tp712
F0.0003968253968253968
s(S'[[con]]'
p713
S'replaced'
p714
S'[[adj]]'
p715
tp716
F0.0003968253968253968
s(S'was'
p717
S'split'
p718
S'between'
p719
tp720
F0.0003968253968253968
s(g57
S'father'
p721
S'[[con]]'
p722
tp723
F0.0003968253968253968
s(S'where'
p724
S'met'
p725
S'[[det]]'
p726
tp727
F0.0003968253968253968
s(S'[[adj]]'
p728
S'daughter'
p729
S'[[adj]]'
p730
tp731
F0.0003968253968253968
s(S'was'
p732
S'killed'
p733
S'[[con]]'
p734
tp735
F0.0003968253968253968
s(S'died'
p736
S'[[prp]]'
p737
S'[[adj]]'
p738
tp739
F0.0003968253968253968
s(S'[[con]]'
p740
S'son'
p741
S'of'
p742
tp743
F0.0007936507936507937
s(S'later'
p744
S'wrote'
p745
S'to'
p746
tp747
F0.0003968253968253968
s(S'was'
p748
S'killed'
p749
S'because'
p750
tp751
F0.0003968253968253968
s(S'is'
p752
S'killed'
p753
S'after'
p754
tp755
F0.0003968253968253968
s(S'[[det]]'
p756
S'father'
p757
S'[[con]]'
p758
tp759
F0.0003968253968253968
s(S'ascended'
p760
S'[[det]]'
p761
S'throne'
p762
tp763
F0.0003968253968253968
s(S'to'
p764
S'make'
p765
S'[[det]]'
p766
tp767
F0.0003968253968253968
s(S'served'
p768
S'as'
p769
S'[[det]]'
p770
tp771
F0.0003968253968253968
s(S'[[mod]]'
p772
S'serve'
p773
S'to'
p774
tp775
F0.0003968253968253968
s(S'[[adj]]'
p776
S'emperor'
p777
S'[[con]]'
p778
tp779
F0.0003968253968253968
s(S'[[con]]'
p780
S'acted'
p781
S'to'
p782
tp783
F0.0003968253968253968
s(S'also'
p784
S'acquired'
p785
S'[[det]]'
p786
tp787
F0.0003968253968253968
s(S'succeeded'
p788
S'[[prp]]'
p789
S'brother'
p790
tp791
F0.0007936507936507937
s(S'was'
p792
S'married'
p793
S'when'
p794
tp795
F0.0003968253968253968
s(S'to'
p796
S'ally'
p797
S'with'
p798
tp799
F0.0003968253968253968
s(S'[[det]]'
p800
S'role'
p801
S'played'
p802
tp803
F0.0003968253968253968
s(S'was'
p804
S'wife'
p805
S'of'
p806
tp807
F0.0003968253968253968
s(S'soon'
p808
S'met'
p809
S'[[con]]'
p810
tp811
F0.0003968253968253968
s(S'to'
p812
S'merge'
p813
S'[[det]]'
p814
tp815
F0.0003968253968253968
s(S'then'
p816
S'turned'
p817
S'to'
p818
tp819
F0.0003968253968253968
s(S'when'
p820
S'merged'
p821
S'with'
p822
tp823
F0.0003968253968253968
s(S'[[con]]'
p824
S'followed'
p825
S'[[det]]'
p826
tp827
F0.0003968253968253968
s(S'then'
p828
S'promoted'
p829
S'to'
p830
tp831
F0.0003968253968253968
s(S'[[adj]]'
p832
S'candidate'
p833
S'[[con]]'
p834
tp835
F0.0007936507936507937
s(S'be'
p836
S'appointed'
p837
S'by'
p838
tp839
F0.0003968253968253968
s(g580
g581
S'defeated'
p840
tp841
F0.0003968253968253968
s(S'[[prp]]'
p842
S'oldest'
p843
S'son'
p844
tp845
F0.0003968253968253968
s(S'where'
p846
S'took'
p847
S'part'
p848
tp849
F0.0003968253968253968
s(S'[[con]]'
p850
S'brotherinlaw'
p851
S'of'
p852
tp853
F0.0003968253968253968
s(S'was'
p854
S'offered'
p855
S'by'
p856
tp857
F0.0003968253968253968
s(g57
S'eldest'
p858
S'son'
p859
tp860
F0.0007936507936507937
s(S'again'
p861
S'appointed'
p862
S'as'
p863
tp864
F0.0003968253968253968
s(S'then'
p865
S'gave'
p866
S'[[pro]]'
p867
tp868
F0.0003968253968253968
s(S'was'
p869
S'son'
p870
S'by'
p871
tp872
F0.0003968253968253968
s(S'is'
p873
S'son'
p874
S'to'
p875
tp876
F0.0003968253968253968
s(S'[[adj]]'
p877
S'role'
p878
S'to'
p879
tp880
F0.0003968253968253968
s(S'was'
p881
S'crowned'
p882
S'as'
p883
tp884
F0.0003968253968253968
s(S'elected'
p885
S'by'
p886
S'defeating'
p887
tp888
F0.0003968253968253968
s(S'[[adj]]'
p889
S'wife'
p890
S'[[pro]]'
p891
tp892
F0.0003968253968253968
s(S'was'
p893
S'beaten'
p894
S'in'
p895
tp896
F0.0003968253968253968
s(S'[[adj]]'
p897
S'member'
p898
S'was'
p899
tp900
F0.0003968253968253968
s(S'later'
p901
S'acquired'
p902
S'by'
p903
tp904
F0.0003968253968253968
s(S'son'
p905
S'of'
p906
S'son'
p907
tp908
F0.0003968253968253968
s(S'[[det]]'
p909
S'brother'
p910
S'[[con]]'
p911
tp912
F0.0011904761904761906
s(S'also'
p913
S'served'
p914
S'after'
p915
tp916
F0.0003968253968253968
s(S'by'
p917
S'[[adj]]'
p918
S'son'
p919
tp920
F0.0007936507936507937
s(S'was'
p921
S'mother'
p922
S'to'
p923
tp924
F0.0003968253968253968
s(S'also'
p925
S'served'
p926
S'to'
p927
tp928
F0.0003968253968253968
s(S'[[num]]'
p929
S'served'
p930
S'on'
p931
tp932
F0.0003968253968253968
s(S'was'
p933
S'accused'
p934
S'by'
p935
tp936
F0.0003968253968253968
s(S'also'
p937
S'accused'
p938
S'by'
p939
tp940
F0.0003968253968253968
s(S'[[num]]'
p941
S'ahead'
p942
S'of'
p943
tp944
F0.0003968253968253968
s(S'that'
p945
S'finished'
p946
S'[[adj]]'
p947
tp948
F0.0003968253968253968
s(S'also'
p949
S'wrote'
p950
S'on'
p951
tp952
F0.0003968253968253968
s(S'was'
p953
S'called'
p954
S'upon'
p955
tp956
F0.0003968253968253968
s(S'had'
p957
S'died'
p958
S'while'
p959
tp960
F0.0003968253968253968
s(S'that'
p961
S'[[mod]]'
p962
S'merge'
p963
tp964
F0.0015873015873015873
s(S'is'
p965
S'forced'
p966
S'by'
p967
tp968
F0.0003968253968253968
s(S'which'
p969
S'played'
p970
S'[[det]]'
p971
tp972
F0.0003968253968253968
s(S'[[adj]]'
p973
S'died'
p974
S'[[num]]'
p975
tp976
F0.0003968253968253968
s(S'also'
p977
S'came'
p978
S'up'
p979
tp980
F0.0003968253968253968
s(S'[[con]]'
p981
S'declared'
p982
S'[[adj]]'
p983
tp984
F0.0003968253968253968
s(S'that'
p985
S'be'
p986
S'played'
p987
tp988
F0.0003968253968253968
s(S'[[det]]'
p989
S'brotherinlaw'
p990
S'[[con]]'
p991
tp992
F0.0003968253968253968
s(S'in'
p993
S'[[det]]'
p994
S'governments'
p995
tp996
F0.0003968253968253968
s(S'[[adj]]'
p997
S'member'
p998
S'is'
p999
tp1000
F0.0003968253968253968
s(S'[[adj]]'
p1001
S'relationship'
p1002
S'with'
p1003
tp1004
F0.0003968253968253968
s(S'[[con]]'
p1005
S'brother'
p1006
S'of'
p1007
tp1008
F0.0015873015873015873
s(S'[[prp]]'
p1009
S'support'
p1010
S'to'
p1011
tp1012
F0.0007936507936507937
s(S'[[prp]]'
p1013
S'son'
p1014
S'[[con]]'
p1015
tp1016
F0.0007936507936507937
s(S'also'
p1017
S'supported'
p1018
S'[[adj]]'
p1019
tp1020
F0.0003968253968253968
s(S'[[det]]'
p1021
S'children'
p1022
g57
tp1023
F0.0003968253968253968
s(S'[[det]]'
p1024
S'oldest'
p1025
S'son'
p1026
tp1027
F0.0003968253968253968
s(S'has'
p1028
S'acted'
p1029
S'as'
p1030
tp1031
F0.0003968253968253968
s(S'[[pro]]'
p1032
S'changed'
p1033
S'to'
p1034
tp1035
F0.0003968253968253968
s(S'[[prp]]'
p1036
S'wife'
p1037
S'had'
p1038
tp1039
F0.0003968253968253968
s(S'later'
p1040
S'appointed'
p1041
S'as'
p1042
tp1043
F0.0003968253968253968
s(S'then'
p1044
S'merged'
p1045
S'with'
p1046
tp1047
F0.0003968253968253968
s(S'[[det]]'
p1048
S'turned'
p1049
S'[[adj]]'
p1050
tp1051
F0.0003968253968253968
s(S'most'
p1052
S'notably'
p1053
S'with'
p1054
tp1055
F0.0003968253968253968
s(S'was'
p1056
S'announced'
p1057
S'[[det]]'
p1058
tp1059
F0.0003968253968253968
s(S'[[det]]'
p1060
S'brother'
p1061
S'[[adj]]'
p1062
tp1063
F0.0003968253968253968
s(S'[[det]]'
p1064
S'cousin'
p1065
S'who'
p1066
tp1067
F0.0003968253968253968
s(S'as'
p1068
S'wrote'
p1069
S'to'
p1070
tp1071
F0.0003968253968253968
s(S'[[adj]]'
p1072
S'letter'
p1073
S'from'
p1074
tp1075
F0.0003968253968253968
s(g57
S'defeat'
p1076
S'of'
p1077
tp1078
F0.0003968253968253968
s(S'[[det]]'
p1079
S'ally'
p1080
S'of'
p1081
tp1082
F0.0003968253968253968
s(S'was'
p1083
S'attacked'
p1084
S'[[con]]'
p1085
tp1086
F0.0003968253968253968
s(S'c'
p1087
S'[[num]]'
p1088
S'son'
p1089
tp1090
F0.0003968253968253968
s(S'[[prp]]'
p1091
S'victory'
p1092
S'to'
p1093
tp1094
F0.0003968253968253968
s(S'was'
p1095
S'appointed'
p1096
S'under'
p1097
tp1098
F0.0003968253968253968
s(S'[[det]]'
p1099
S'uncle'
p1100
S'of'
p1101
tp1102
F0.0003968253968253968
s(S'of'
p1103
S'[[prp]]'
p1104
S'son'
p1105
tp1106
F0.0011904761904761906
s(S'[[det]]'
p1107
S'father'
p1108
S'of'
p1109
tp1110
F0.0015873015873015873
s(S'[[prp]]'
p1111
S'wife'
p1112
S'[[num]]'
p1113
tp1114
F0.0003968253968253968
s(S'[[det]]'
p1115
S'successor'
p1116
S'of'
p1117
tp1118
F0.0003968253968253968
s(S'[[adj]]'
p1119
S'election'
p1120
S'against'
p1121
tp1122
F0.0003968253968253968
s(S'[[adj]]'
p1123
S'friend'
p1124
S'[[det]]'
p1125
tp1126
F0.0003968253968253968
s(S'[[con]]'
p1127
S'lost'
p1128
S'[[num]]'
p1129
tp1130
F0.0003968253968253968
s(S'[[con]]'
p1131
S'ordered'
p1132
S'that'
p1133
tp1134
F0.0003968253968253968
s(S'is'
p1135
S'married'
p1136
S'[[con]]'
p1137
tp1138
F0.0015873015873015873
s(S'down'
p1139
S'was'
p1140
S'replaced'
p1141
tp1142
F0.0003968253968253968
s(S'[[det]]'
p1143
S'member'
p1144
S'together'
p1145
tp1146
F0.0003968253968253968
s(S'championship'
p1147
g460
g461
tp1148
F0.0003968253968253968
s(S'was'
p1149
S'killed'
p1150
S'after'
p1151
tp1152
F0.0003968253968253968
s(S'was'
p1153
S'daughter'
p1154
S'of'
p1155
tp1156
F0.0003968253968253968
s(S'is'
p1157
S'succeeded'
p1158
S'as'
p1159
tp1160
F0.0003968253968253968
s(S'then'
p1161
S'gave'
p1162
S'to'
p1163
tp1164
F0.0003968253968253968
s(S'when'
p1165
S'married'
p1166
S'[[det]]'
p1167
tp1168
F0.0003968253968253968
s(S'married'
p1169
S'[[det]]'
p1170
S'[[adj]]'
p1171
tp1172
F0.0003968253968253968
s(S'[[adj]]'
p1173
S'candidate'
p1174
S'defeated'
p1175
tp1176
F0.0003968253968253968
s(S'[[con]]'
p1177
S'offered'
p1178
S'[[det]]'
p1179
tp1180
F0.0003968253968253968
s(S'died'
p1181
g401
g402
tp1182
F0.0003968253968253968
s(S'by'
p1183
S'[[adj]]'
p1184
S'cousin'
p1185
tp1186
F0.0003968253968253968
s(S'[[adj]]'
p1187
S'friend'
p1188
S'of'
p1189
tp1190
F0.0003968253968253968
s(S'also'
p1191
S'returned'
p1192
S'with'
p1193
tp1194
F0.0003968253968253968
s(S'was'
p1195
S'promoted'
p1196
S'after'
p1197
tp1198
F0.0003968253968253968
s(S'under'
p1199
S'[[det]]'
p1200
S'governments'
p1201
tp1202
F0.0003968253968253968
s(S'later'
p1203
S'wrote'
p1204
S'while'
p1205
tp1206
F0.0003968253968253968
s(S'[[det]]'
p1207
S'leader'
p1208
S'as'
p1209
tp1210
F0.0003968253968253968
s(S'later'
p1211
S'replaced'
p1212
S'with'
p1213
tp1214
F0.0003968253968253968
s(S'married'
p1215
S'to'
p1216
S'[[det]]'
p1217
tp1218
F0.0011904761904761906
s(S'[[num]]'
p1219
S'sons'
p1220
S'of'
p1221
tp1222
F0.0003968253968253968
s(S'was'
p1223
S'offered'
p1224
S'[[num]]'
p1225
tp1226
F0.0003968253968253968
s(S'[[adj]]'
p1227
S'support'
p1228
S'from'
p1229
tp1230
F0.0003968253968253968
s(S'was'
p1231
S'listed'
p1232
S'[[con]]'
p1233
tp1234
F0.0003968253968253968
s(S'[[con]]'
p1235
S'took'
p1236
S'[[pro]]'
p1237
tp1238
F0.0003968253968253968
s(S'with'
p1239
S'son'
p1240
S'of'
p1241
tp1242
F0.0003968253968253968
s(S'[[det]]'
p1243
S'administration'
p1244
S'of'
p1245
tp1246
F0.0003968253968253968
s(S'to'
p1247
S'make'
p1248
S'[[pro]]'
p1249
tp1250
F0.0003968253968253968
s(S'[[det]]'
p1251
S'grandson'
p1252
S'of'
p1253
tp1254
F0.0003968253968253968
s(S'was'
p1255
S'challenged'
p1256
S'by'
p1257
tp1258
F0.0003968253968253968
s(S'[[con]]'
p1259
S'successor'
p1260
S'of'
p1261
tp1262
F0.0007936507936507937
s(S'is'
p1263
S'son'
p1264
S'[[con]]'
p1265
tp1266
F0.0003968253968253968
s(S'[[det]]'
p1267
S'father'
p1268
S'[[num]]'
p1269
tp1270
F0.0003968253968253968
s(S'was'
p1271
S'promoted'
p1272
S'by'
p1273
tp1274
F0.0003968253968253968
s(S'as'
p1275
S'successor'
p1276
S'of'
p1277
tp1278
F0.0003968253968253968
s(S'[[prp]]'
p1279
S'brother'
p1280
S'was'
p1281
tp1282
F0.0003968253968253968
s(S'been'
p1283
S'accused'
p1284
S'of'
p1285
tp1286
F0.0003968253968253968
s(S'then'
p1287
S'defeated'
p1288
S'[[adj]]'
p1289
tp1290
F0.0003968253968253968
s(S'in'
p1291
S'favor'
p1292
g1103
tp1293
F0.001984126984126984
s(S'soon'
p1294
S'came'
p1295
S'with'
p1296
tp1297
F0.0003968253968253968
s(S'[[adj]]'
p1298
S'brother'
p1299
S'of'
p1300
tp1301
F0.0007936507936507937
s(S'[[num]]'
p1302
S'election'
p1303
S'to'
p1304
tp1305
F0.0003968253968253968
s(S'was'
p1306
S'raised'
p1307
S'as'
p1308
tp1309
F0.0003968253968253968
s(S'was'
p1310
S'bought'
p1311
S'out'
p1312
tp1313
F0.0003968253968253968
s(S'[[det]]'
p1314
S'sons'
p1315
S'[[con]]'
p1316
tp1317
F0.0003968253968253968
s(g57
S'friend'
p1318
S'[[adj]]'
p1319
tp1320
F0.0003968253968253968
s(S'[[num]]'
p1321
S'son'
p1322
S'of'
p1323
tp1324
F0.0011904761904761906
s(S'is'
p1325
S'cousin'
p1326
S'of'
p1327
tp1328
F0.0003968253968253968
s(S'also'
p1329
S'met'
p1330
S'[[det]]'
p1331
tp1332
F0.0003968253968253968
s(S'[[adj]]'
p1333
S'supporter'
p1334
S'[[con]]'
p1335
tp1336
F0.0003968253968253968
s(S'won'
p1337
S'[[det]]'
p1338
g1119
tp1339
F0.0015873015873015873
s(S'[[num]]'
p1340
S'appointed'
p1341
S'by'
p1342
tp1343
F0.0003968253968253968
s(S'being'
p1344
S'promoted'
p1345
S'to'
p1346
tp1347
F0.0003968253968253968
s(S'[[adj]]'
p1348
S'children'
p1349
S'by'
p1350
tp1351
F0.0003968253968253968
s(S'[[det]]'
p1352
S'daughter'
p1353
S'of'
p1354
tp1355
F0.0003968253968253968
s(S'lost'
p1356
S'[[det]]'
p1357
g139
tp1358
F0.0003968253968253968
s(S'later'
p1359
S'taken'
p1360
S'over'
p1361
tp1362
F0.0003968253968253968
s(S'[[det]]'
p1363
S'face'
p1364
S'of'
p1365
tp1366
F0.0003968253968253968
s(S'be'
p1367
S'defeated'
p1368
S'by'
p1369
tp1370
F0.0003968253968253968
s(S'[[num]]'
p1371
S'sons'
p1372
S'[[det]]'
p1373
tp1374
F0.0003968253968253968
s(S'[[det]]'
p1375
S'cousin'
p1376
S'[[con]]'
p1377
tp1378
F0.0003968253968253968
s(S'was'
p1379
S'member'
p1380
S'[[num]]'
p1381
tp1382
F0.0003968253968253968
s(S'[[det]]'
p1383
S'halfbrother'
p1384
S'of'
p1385
tp1386
F0.0003968253968253968
s(S'best'
p1387
S'friends'
p1388
S'[[con]]'
p1389
tp1390
F0.0003968253968253968
s(S'in'
p1391
S'[[prp]]'
p1392
S'son'
p1393
tp1394
F0.0003968253968253968
s(S'won'
p1395
S'[[det]]'
p1396
S'election'
p1397
tp1398
F0.0011904761904761906
s(S'however'
p1399
S'did'
p1400
S'not'
p1401
tp1402
F0.0003968253968253968
s(S'then'
p1403
S'wrote'
p1404
S'to'
p1405
tp1406
F0.0003968253968253968
s(S'[[det]]'
p1407
S'friends'
p1408
S'[[con]]'
p1409
tp1410
F0.0003968253968253968
s(S'[[det]]'
p1411
S'rival'
p1412
S'for'
p1413
tp1414
F0.0003968253968253968
s(S'[[det]]'
p1415
S'father'
p1416
S'in'
p1417
tp1418
F0.0003968253968253968
s(g303
g304
S'favor'
p1419
tp1420
F0.0003968253968253968
s(S'[[adj]]'
p1421
S'son'
p1422
S'[[num]]'
p1423
tp1424
F0.0003968253968253968
s(S'had'
p1425
S'met'
p1426
S'[[con]]'
p1427
tp1428
F0.0003968253968253968
s(S'[[adj]]'
p1429
S'friend'
p1430
S'to'
p1431
tp1432
F0.0003968253968253968
s(S'be'
p1433
S'led'
p1434
S'by'
p1435
tp1436
F0.0003968253968253968
s(S'is'
p1437
S'killed'
p1438
S'when'
p1439
tp1440
F0.0003968253968253968
s(S'[[det]]'
p1441
S'brother'
p1442
S'[[num]]'
p1443
tp1444
F0.0003968253968253968
s(S'to'
p1445
S'[[det]]'
p1446
S'defeating'
p1447
tp1448
F0.0003968253968253968
s(S'more'
p1449
S'children'
p1450
S'[[det]]'
p1451
tp1452
F0.0003968253968253968
s(S'died'
p1453
S'[[num]]'
p1454
S'son'
p1455
tp1456
F0.0003968253968253968
s(S'[[con]]'
p1457
S'ordered'
p1458
S'[[pro]]'
p1459
tp1460
F0.0003968253968253968
s(S'be'
p1461
S'replaced'
p1462
S'with'
p1463
tp1464
F0.0003968253968253968
s(S'had'
p1465
S'met'
p1466
S'with'
p1467
tp1468
F0.0003968253968253968
s(S'eldest'
p1469
S'son'
p1470
S'to'
p1471
tp1472
F0.0003968253968253968
s(S'which'
p1473
S'finished'
p1474
S'third'
p1475
tp1476
F0.0003968253968253968
s(S'also'
p1477
S'met'
p1478
S'from'
p1479
tp1480
F0.0003968253968253968
s(S'forced'
p1481
g155
g156
tp1482
F0.0003968253968253968
s(g57
S'daughter'
p1483
S'in'
p1484
tp1485
F0.0003968253968253968
s(S'later'
p1486
S'turned'
p1487
S'to'
p1488
tp1489
F0.0003968253968253968
s(S'been'
p1490
S'friends'
p1491
S'with'
p1492
tp1493
F0.0003968253968253968
s(S'seat'
p1494
S'to'
p1495
S'[[det]]'
p1496
tp1497
F0.0003968253968253968
s(S'[[det]]'
p1498
S'friends'
p1499
S'of'
p1500
tp1501
F0.0003968253968253968
s(S'seat'
p1502
S'when'
p1503
S'was'
p1504
tp1505
F0.0007936507936507937
s(S'then'
p1506
S'served'
p1507
S'as'
p1508
tp1509
F0.0003968253968253968
s(S'received'
p1510
S'[[num]]'
p1511
S'[[adj]]'
p1512
tp1513
F0.0007936507936507937
s(S'was'
p1514
S'replaced'
p1515
S'after'
p1516
tp1517
F0.0003968253968253968
s(S'to'
p1518
S'replace'
p1519
S'[[adj]]'
p1520
tp1521
F0.0003968253968253968
s(S'was'
p1522
S'deposed'
p1523
S'[[con]]'
p1524
tp1525
F0.0003968253968253968
s(S'[[con]]'
p1526
S'grandson'
p1527
S'of'
p1528
tp1529
F0.0003968253968253968
s(g57
S'friend'
p1530
S'[[con]]'
p1531
tp1532
F0.0003968253968253968
s(S'to'
p1533
S'face'
p1534
S'[[con]]'
p1535
tp1536
F0.0003968253968253968
s(g1200
g1201
S'of'
p1537
tp1538
F0.0011904761904761906
s(S'to'
p1539
S'support'
p1540
S'[[pro]]'
p1541
tp1542
F0.0003968253968253968
s(S'[[con]]'
p1543
S'did'
p1544
S'in'
p1545
tp1546
F0.0003968253968253968
s(S'[[det]]'
p1547
S'named'
p1548
S'after'
p1549
tp1550
F0.0003968253968253968
s(S'[[prp]]'
p1551
S'seat'
p1552
S'to'
p1553
tp1554
F0.0015873015873015873
s(S'[[det]]'
p1555
S'brother'
p1556
S'who'
p1557
tp1558
F0.0003968253968253968
s(S'also'
p1559
S'acted'
p1560
S'[[det]]'
p1561
tp1562
F0.0003968253968253968
s(S'was'
p1563
S'chosen'
p1564
S'as'
p1565
tp1566
F0.0003968253968253968
s(S'was'
p1567
S'opposed'
p1568
S'by'
p1569
tp1570
F0.0003968253968253968
s(S'where'
p1571
S'played'
p1572
S'[[det]]'
p1573
tp1574
F0.0003968253968253968
s(g57
S'father'
p1575
S'of'
p1576
tp1577
F0.0003968253968253968
s(S'succeeded'
p1578
g917
g918
tp1579
F0.0015873015873015873
s(S'[[det]]'
p1580
S'son'
p1581
S'by'
p1582
tp1583
F0.0003968253968253968
s(S'where'
p1584
S'met'
p1585
S'[[adj]]'
p1586
tp1587
F0.0003968253968253968
s(S'first'
p1588
S'came'
p1589
S'when'
p1590
tp1591
F0.0003968253968253968
s(S'is'
p1592
S'thought'
p1593
S'to'
p1594
tp1595
F0.0003968253968253968
s(S'[[det]]'
p1596
S'son'
p1597
S'[[adj]]'
p1598
tp1599
F0.0003968253968253968
s(S'[[con]]'
p1600
S'returned'
p1601
S'under'
p1602
tp1603
F0.0003968253968253968
s(S'[[prp]]'
p1604
S'eldest'
p1605
S'son'
p1606
tp1607
F0.001984126984126984
s(S'[[con]]'
p1608
S'gave'
p1609
S'[[det]]'
p1610
tp1611
F0.0003968253968253968
s(S'has'
p1612
S'died'
p1613
S'[[con]]'
p1614
tp1615
F0.0003968253968253968
s(S'was'
p1616
S'friends'
p1617
S'[[con]]'
p1618
tp1619
F0.0003968253968253968
s(S'was'
p1620
S'opposed'
p1621
S'[[con]]'
p1622
tp1623
F0.0003968253968253968
s(S'was'
p1624
S'succeeded'
p1625
S'[[pro]]'
p1626
tp1627
F0.0003968253968253968
s(g57
S'sons'
p1628
S'[[num]]'
p1629
tp1630
F0.0003968253968253968
s(S'then'
p1631
S'served'
p1632
S'until'
p1633
tp1634
F0.0003968253968253968
s(S'[[con]]'
p1635
S'brother'
p1636
S'[[con]]'
p1637
tp1638
F0.0003968253968253968
s(S'[[det]]'
p1639
S'days'
p1640
S'of'
p1641
tp1642
F0.0003968253968253968
s(S'to'
p1643
S'form'
p1644
S'part'
p1645
tp1646
F0.0003968253968253968
s(g57
S'reign'
p1647
S'as'
p1648
tp1649
F0.0003968253968253968
s(S'had'
p1650
S'succeeded'
p1651
S'as'
p1652
tp1653
F0.0003968253968253968
s(S'[[det]]'
p1654
S'appointed'
p1655
S'[[con]]'
p1656
tp1657
F0.0003968253968253968
s(S'[[prp]]'
p1658
S'support'
p1659
S'for'
p1660
tp1661
F0.0003968253968253968
s(S'just'
p1662
S'ahead'
p1663
S'of'
p1664
tp1665
F0.0003968253968253968
s(g57
S'replacement'
p1666
S'of'
p1667
tp1668
F0.0003968253968253968
s(S'had'
p1669
S'replaced'
p1670
S'[[pro]]'
p1671
tp1672
F0.0003968253968253968
s(S'to'
p1673
S'defeat'
p1674
S'[[con]]'
p1675
tp1676
F0.0003968253968253968
s(S'younger'
p1677
S'brother'
p1678
S'to'
p1679
tp1680
F0.0007936507936507937
s(S'[[prp]]'
p1681
S'son'
p1682
S'[[det]]'
p1683
tp1684
F0.0007936507936507937
s(S'whose'
p1685
S'mother'
p1686
S'was'
p1687
tp1688
F0.0003968253968253968
s(S'were'
p1689
S'taken'
p1690
S'over'
p1691
tp1692
F0.0003968253968253968
s(S'was'
p1693
S'elected'
p1694
S'leader'
p1695
tp1696
F0.0007936507936507937
s(S'[[det]]'
p1697
S'appointed'
p1698
S'by'
p1699
tp1700
F0.0003968253968253968
s(S'who'
p1701
S'led'
p1702
S'[[det]]'
p1703
tp1704
F0.0003968253968253968
s(S'had'
p1705
S'offered'
p1706
S'[[pro]]'
p1707
tp1708
F0.0003968253968253968
s(g57
S'death'
p1709
S'[[num]]'
p1710
tp1711
F0.0003968253968253968
s(S'had'
p1712
S'moved'
p1713
S'out'
p1714
tp1715
F0.0003968253968253968
s(S'[[con]]'
p1716
S'took'
p1717
S'[[num]]'
p1718
tp1719
F0.0003968253968253968
s(S'married'
p1720
S'to'
p1721
S'son'
p1722
tp1723
F0.0011904761904761906
s(S'[[adj]]'
p1724
S'ref'
p1725
S'was'
p1726
tp1727
F0.0003968253968253968
s(S'is'
p1728
S'accompanied'
p1729
S'by'
p1730
tp1731
F0.0003968253968253968
s(S'served'
p1732
S'until'
p1733
S'was'
p1734
tp1735
F0.0003968253968253968
s(S'[[prp]]'
p1736
S'wife'
p1737
S'[[con]]'
p1738
tp1739
F0.0003968253968253968
s(S'son'
p1740
S'[[det]]'
p1741
S'brother'
p1742
tp1743
F0.0007936507936507937
s(S'has'
p1744
S'called'
p1745
S'[[pro]]'
p1746
tp1747
F0.0003968253968253968
s(S'later'
p1748
S'moved'
p1749
S'where'
p1750
tp1751
F0.0003968253968253968
s(g57
S'father'
p1752
S'was'
p1753
tp1754
F0.0003968253968253968
s(S'also'
p1755
S'sold'
p1756
S'as'
p1757
tp1758
F0.0003968253968253968
s(g57
S'death'
p1759
S'which'
p1760
tp1761
F0.0003968253968253968
s(g536
g537
S'son'
p1762
tp1763
F0.0035714285714285713
s(S'[[prp]]'
p1764
S'brother'
p1765
S'as'
p1766
tp1767
F0.0003968253968253968
s(S'was'
p1768
S'recognized'
p1769
S'to'
p1770
tp1771
F0.0003968253968253968
s(S'to'
p1772
S'create'
p1773
S'[[det]]'
p1774
tp1775
F0.0003968253968253968
s(S'where'
p1776
S'served'
p1777
S'under'
p1778
tp1779
F0.0003968253968253968
s(S'[[adj]]'
p1780
S'son'
p1781
S'was'
p1782
tp1783
F0.0011904761904761906
s(S'had'
p1784
S'served'
p1785
S'as'
p1786
tp1787
F0.0007936507936507937
s(S'once'
p1788
S'called'
p1789
S'[[det]]'
p1790
tp1791
F0.0003968253968253968
s(g461
g448
g449
tp1792
F0.0003968253968253968
s(S'[[con]]'
p1793
S'accompanied'
p1794
S'[[pro]]'
p1795
tp1796
F0.0003968253968253968
s(S'[[con]]'
p1797
S'appointed'
p1798
S'[[det]]'
p1799
tp1800
F0.0003968253968253968
s(S'was'
p1801
S'adopted'
p1802
S'after'
p1803
tp1804
F0.0003968253968253968
s(S'married'
p1805
S'[[det]]'
p1806
S'younger'
p1807
tp1808
F0.0003968253968253968
s(S'first'
p1809
S'appointed'
p1810
S'in'
p1811
tp1812
F0.0003968253968253968
s(S'later'
p1813
S'named'
p1814
S'by'
p1815
tp1816
F0.0003968253968253968
s(S'has'
p1817
S'acted'
p1818
S'with'
p1819
tp1820
F0.0003968253968253968
s(S'[[con]]'
p1821
S'merged'
p1822
S'to'
p1823
tp1824
F0.0003968253968253968
s(S'[[adj]]'
p1825
S'children'
p1826
S'[[det]]'
p1827
tp1828
F0.0003968253968253968
s(S'[[det]]'
p1829
S'deputy'
p1830
S'to'
p1831
tp1832
F0.0003968253968253968
s(S'then'
p1833
S'ran'
p1834
S'[[adj]]'
p1835
tp1836
F0.0003968253968253968
s(S'[[con]]'
p1837
S'served'
p1838
S'with'
p1839
tp1840
F0.0003968253968253968
s(S'to'
p1841
S'form'
p1842
S'[[det]]'
p1843
tp1844
F0.0011904761904761906
s(S'was'
p1845
S'briefly'
p1846
S'[[det]]'
p1847
tp1848
F0.0003968253968253968
s(S'be'
p1849
S'acquired'
p1850
S'by'
p1851
tp1852
F0.0003968253968253968
s(S'later'
p1853
S'named'
p1854
S'[[con]]'
p1855
tp1856
F0.0003968253968253968
s(S'to'
p1857
S'face'
p1858
S'off'
p1859
tp1860
F0.0003968253968253968
s(S'was'
p1861
S'declared'
p1862
S'to'
p1863
tp1864
F0.0003968253968253968
s(S'been'
p1865
S'taken'
p1866
S'over'
p1867
tp1868
F0.0003968253968253968
s(S'were'
p1869
S'purchased'
p1870
S'from'
p1871
tp1872
F0.0003968253968253968
s(S'was'
p1873
S'renamed'
p1874
S'of'
p1875
tp1876
F0.0003968253968253968
s(S'[[adj]]'
p1877
S'figures'
p1878
S'[[con]]'
p1879
tp1880
F0.0003968253968253968
s(S'who'
p1881
S'died'
p1882
S'was'
p1883
tp1884
F0.0003968253968253968
s(g57
S'cousin'
p1885
S'[[num]]'
p1886
tp1887
F0.0003968253968253968
s(g1694
g1695
S'[[con]]'
p1888
tp1889
F0.0003968253968253968
s(S'was'
p1890
S'attacked'
p1891
S'by'
p1892
tp1893
F0.0003968253968253968
s(S'[[adj]]'
p1894
S'member'
p1895
S'until'
p1896
tp1897
F0.0003968253968253968
s(S'be'
p1898
S'taken'
p1899
S'over'
p1900
tp1901
F0.0003968253968253968
s(S'assistant'
p1902
S'to'
p1903
S'[[det]]'
p1904
tp1905
F0.0003968253968253968
s(S'role'
p1906
S'[[con]]'
p1907
S'played'
p1908
tp1909
F0.0003968253968253968
s(S'had'
p1910
S'purchased'
p1911
S'from'
p1912
tp1913
F0.0003968253968253968
s(g57
S'brother'
p1914
S'of'
p1915
tp1916
F0.0003968253968253968
s(S'was'
p1917
S'reelected'
p1918
S'[[con]]'
p1919
tp1920
F0.0007936507936507937
s(S'[[det]]'
p1921
S'brother'
p1922
S'of'
p1923
tp1924
F0.002380952380952381
s(S'with'
p1925
S'younger'
p1926
S'brother'
p1927
tp1928
F0.0003968253968253968
s(S'have'
p1929
S'served'
p1930
S'with'
p1931
tp1932
F0.0003968253968253968
s(S'[[det]]'
p1933
S'member'
p1934
S'until'
p1935
tp1936
F0.0003968253968253968
s(S'[[det]]'
p1937
S'government'
p1938
S'[[con]]'
p1939
tp1940
F0.0003968253968253968
s(S'then'
p1941
S'called'
p1942
S'on'
p1943
tp1944
F0.0003968253968253968
s(S'then'
p1945
S'succeeded'
p1946
S'as'
p1947
tp1948
F0.0003968253968253968
s(S'[[adj]]'
p1949
S'power'
p1950
S'[[con]]'
p1951
tp1952
F0.0003968253968253968
s(S'[[adj]]'
p1953
S'member'
p1954
S'along'
p1955
tp1956
F0.0003968253968253968
s(S'were'
p1957
S'replaced'
p1958
S'with'
p1959
tp1960
F0.0003968253968253968
s(S'by'
p1961
S'had'
p1962
S'served'
p1963
tp1964
F0.0003968253968253968
s(S'[[prp]]'
p1965
S'son'
p1966
S'died'
p1967
tp1968
F0.0003968253968253968
s(S'[[con]]'
p1969
S'changed'
p1970
S'[[prp]]'
p1971
tp1972
F0.0003968253968253968
s(S'[[adj]]'
p1973
S'brother'
p1974
S'to'
p1975
tp1976
F0.0007936507936507937
s(S'is'
p1977
S'married'
p1978
S'with'
p1979
tp1980
F0.0003968253968253968
s(S'also'
p1981
S'called'
p1982
S'out'
p1983
tp1984
F0.0003968253968253968
s(S'defeated'
p1985
S'[[adj]]'
p1986
S'candidate'
p1987
tp1988
F0.0003968253968253968
s(S'also'
p1989
S'named'
p1990
S'for'
p1991
tp1992
F0.0003968253968253968
s(S'[[adj]]'
p1993
S'met'
p1994
S'[[det]]'
p1995
tp1996
F0.0003968253968253968
s(S'was'
p1997
S'raised'
p1998
S'to'
p1999
tp2000
F0.0003968253968253968
s(S'to'
p2001
S'remain'
p2002
S'[[det]]'
p2003
tp2004
F0.0003968253968253968
s(S'died'
p2005
S'[[con]]'
p2006
S'succeeded'
p2007
tp2008
F0.0011904761904761906
s(S'oldest'
p2009
S'son'
p2010
S'[[det]]'
p2011
tp2012
F0.0003968253968253968
s(S'also'
p2013
S'acted'
p2014
S'with'
p2015
tp2016
F0.0003968253968253968
s(S'[[adj]]'
p2017
S'minister'
p2018
S'for'
p2019
tp2020
F0.0003968253968253968
s(S'been'
p2021
S'promoted'
p2022
S'by'
p2023
tp2024
F0.0003968253968253968
s(S'[[det]]'
p2025
S'son'
p2026
S'to'
p2027
tp2028
F0.0003968253968253968
s(S'[[pro]]'
p2029
S'younger'
p2030
S'brother'
p2031
tp2032
F0.0003968253968253968
s(S'to'
p2033
S'replace'
p2034
S'[[det]]'
p2035
tp2036
F0.0003968253968253968
s(S'[[adj]]'
p2037
S'role'
p2038
S'by'
p2039
tp2040
F0.0003968253968253968
s(S'[[det]]'
p2041
S'cousin'
p2042
S'of'
p2043
tp2044
F0.0003968253968253968
s(S'first'
p2045
S'met'
p2046
S'[[con]]'
p2047
tp2048
F0.0003968253968253968
s(S'[[adj]]'
p2049
S'appointed'
p2050
S'by'
p2051
tp2052
F0.0003968253968253968
s(S'also'
p2053
S'named'
p2054
S'along'
p2055
tp2056
F0.0003968253968253968
s(g57
S'brother'
p2057
S'[[num]]'
p2058
tp2059
F0.0003968253968253968
s(S'[[adj]]'
p2060
S'role'
p2061
S'[[con]]'
p2062
tp2063
F0.0003968253968253968
s(S'[[adj]]'
p2064
S'figures'
p2065
S'[[adj]]'
p2066
tp2067
F0.0003968253968253968
s(S'[[det]]'
p2068
S'favor'
p2069
S'to'
p2070
tp2071
F0.0003968253968253968
s(S'was'
p2072
S'beaten'
p2073
S'by'
p2074
tp2075
F0.0003968253968253968
s(S'been'
p2076
S'appointed'
p2077
S'to'
p2078
tp2079
F0.0003968253968253968
s(g57
S'daughter'
p2080
S'[[con]]'
p2081
tp2082
F0.0003968253968253968
s(S'[[num]]'
p2083
S'[[det]]'
p2084
S'king'
p2085
tp2086
F0.0003968253968253968
s(S'[[con]]'
p2087
S'gave'
p2088
S'up'
p2089
tp2090
F0.0003968253968253968
s(S'to'
p2091
S'replace'
p2092
S'as'
p2093
tp2094
F0.0003968253968253968
s(S'[[num]]'
p2095
S'sons'
p2096
S'who'
p2097
tp2098
F0.0003968253968253968
s(S'were'
p2099
S'renamed'
p2100
S'[[det]]'
p2101
tp2102
F0.0003968253968253968
s(S'[[det]]'
p2103
S'son'
p2104
S'was'
p2105
tp2106
F0.0003968253968253968
s(S'was'
p2107
S'chosen'
p2108
S'[[num]]'
p2109
tp2110
F0.0003968253968253968
s(S'[[con]]'
p2111
S'lost'
p2112
S'with'
p2113
tp2114
F0.0003968253968253968
s(S'[[mod]]'
p2115
S'serve'
p2116
S'in'
p2117
tp2118
F0.0003968253968253968
s(S'[[con]]'
p2119
S'merged'
p2120
S'with'
p2121
tp2122
F0.0003968253968253968
s(S'also'
p2123
S'wrote'
p2124
S'with'
p2125
tp2126
F0.0003968253968253968
s(S'to'
p2127
S'serve'
p2128
S'[[num]]'
p2129
tp2130
F0.0003968253968253968
s(S'was'
p2131
S'moved'
p2132
S'by'
p2133
tp2134
F0.0003968253968253968
s(S'married'
p2135
S'[[con]]'
p2136
S'was'
p2137
tp2138
F0.0003968253968253968
s(g46
g47
S'[[adj]]'
p2139
tp2140
F0.0003968253968253968
s(S'also'
p2141
S'supported'
p2142
S'by'
p2143
tp2144
F0.0003968253968253968
s(S'had'
p2145
S'married'
p2146
S'[[det]]'
p2147
tp2148
F0.0003968253968253968
s(S'served'
p2149
S'[[con]]'
p2150
S'was'
p2151
tp2152
F0.0003968253968253968
s(S'[[prp]]'
p2153
S'son'
p2154
S'is'
p2155
tp2156
F0.0007936507936507937
s(S'played'
p2157
S'[[det]]'
p2158
S'role'
p2159
tp2160
F0.006746031746031746
s(S'[[det]]'
p2161
S'son'
p2162
S'of'
p2163
tp2164
F0.004761904761904762
s(S'later'
p2165
S'returned'
p2166
S'with'
p2167
tp2168
F0.0003968253968253968
s(S'has'
p2169
S'served'
p2170
S'twice'
p2171
tp2172
F0.0003968253968253968
s(S'[[det]]'
p2173
S'supporter'
p2174
S'[[det]]'
p2175
tp2176
F0.0003968253968253968
s(S'later'
p2177
S'replaced'
p2178
S'by'
p2179
tp2180
F0.0003968253968253968
s(g1396
g1397
S'against'
p2181
tp2182
F0.0003968253968253968
s(S'was'
p2183
S'elected'
p2184
g1445
tp2185
F0.0003968253968253968
s(S'again'
p2186
S'ran'
p2187
S'for'
p2188
tp2189
F0.0003968253968253968
s(S'also'
p2190
S'accompanied'
p2191
S'by'
p2192
tp2193
F0.0003968253968253968
s(S'was'
p2194
S'named'
p2195
S'when'
p2196
tp2197
F0.0003968253968253968
s(S'been'
p2198
S'chosen'
p2199
S'to'
p2200
tp2201
F0.0003968253968253968
s(g57
S'brothers'
p2202
S'[[con]]'
p2203
tp2204
F0.0003968253968253968
s(g425
g426
S'brother'
p2205
tp2206
F0.0003968253968253968
s(S'[[mod]]'
p2207
S'serve'
p2208
S'under'
p2209
tp2210
F0.0003968253968253968
s(S'[[con]]'
p2211
S'[[num]]'
p2212
S'son'
p2213
tp2214
F0.0011904761904761906
s(S'was'
p2215
S'acquired'
p2216
S'[[con]]'
p2217
tp2218
F0.0003968253968253968
s(S'[[num]]'
p2219
S'sons'
p2220
S'[[num]]'
p2221
tp2222
F0.0003968253968253968
s(S'died'
p2223
S'[[prp]]'
p2224
S'son'
p2225
tp2226
F0.0003968253968253968
s(S'was'
p2227
S'married'
p2228
S'to'
p2229
tp2230
F0.002777777777777778
s(S'[[num]]'
p2231
S'son'
p2232
S'who'
p2233
tp2234
F0.0003968253968253968
s(S'is'
p2235
S'friends'
p2236
S'with'
p2237
tp2238
F0.0003968253968253968
s(S'more'
p2239
S'children'
p2240
S'[[num]]'
p2241
tp2242
F0.0003968253968253968
s(S'had'
p2243
S'remained'
p2244
S'[[adj]]'
p2245
tp2246
F0.0003968253968253968
s(g57
S'son'
p2247
S'[[pro]]'
p2248
tp2249
F0.0003968253968253968
s(S'[[adj]]'
p2250
S'relationship'
p2251
S'to'
p2252
tp2253
F0.0003968253968253968
s(S'also'
p2254
S'wrote'
p2255
S'under'
p2256
tp2257
F0.0003968253968253968
s(S'[[adj]]'
p2258
S'role'
p2259
S'along'
p2260
tp2261
F0.0003968253968253968
s(S'[[con]]'
p2262
S'merged'
p2263
S'into'
p2264
tp2265
F0.0003968253968253968
s(S'was'
p2266
S'replaced'
p2267
S'to'
p2268
tp2269
F0.0003968253968253968
s(g57
S'named'
p2270
S'for'
p2271
tp2272
F0.0003968253968253968
s(S'[[adj]]'
p2273
S'father'
p2274
S'[[con]]'
p2275
tp2276
F0.0003968253968253968
s(S'become'
p2277
S'friends'
p2278
S'with'
p2279
tp2280
F0.0003968253968253968
s(S'who'
p2281
S'took'
p2282
S'over'
p2283
tp2284
F0.0003968253968253968
s(S'twice'
p2285
S'married'
p2286
S'first'
p2287
tp2288
F0.0003968253968253968
s(S'to'
p2289
S'make'
p2290
S'[[prp]]'
p2291
tp2292
F0.0003968253968253968
s(S'then'
p2293
S'replaced'
p2294
S'as'
p2295
tp2296
F0.0003968253968253968
s(S'also'
p2297
S'wrote'
p2298
S'[[adj]]'
p2299
tp2300
F0.0003968253968253968
s(S'eldest'
p2301
S'surviving'
p2302
S'son'
p2303
tp2304
F0.0015873015873015873
s(S'where'
p2305
S'served'
p2306
S'to'
p2307
tp2308
F0.0003968253968253968
s(S'was'
p2309
S'son'
p2310
S'to'
p2311
tp2312
F0.0003968253968253968
s(S'was'
p2313
S'assassinated'
p2314
S'[[con]]'
p2315
tp2316
F0.0003968253968253968
s(S'[[pro]]'
p2317
S'acquired'
p2318
S'by'
p2319
tp2320
F0.0003968253968253968
s(S'[[det]]'
p2321
S'mother'
p2322
S'[[det]]'
p2323
tp2324
F0.0003968253968253968
s(g57
S'death'
p2325
S'when'
p2326
tp2327
F0.0003968253968253968
s(S'married'
p2328
S'to'
p2329
S'[[adj]]'
p2330
tp2331
F0.0003968253968253968
s(S'remained'
p2332
S'until'
p2333
S'was'
p2334
tp2335
F0.0003968253968253968
s(S'[[adj]]'
p2336
S'wife'
p2337
S'[[num]]'
p2338
tp2339
F0.0003968253968253968
s(S'later'
p2340
S'bought'
p2341
S'by'
p2342
tp2343
F0.0003968253968253968
s(S'again'
p2344
S'served'
p2345
S'under'
p2346
tp2347
F0.0003968253968253968
s(g2184
g1445
g1446
tp2348
F0.0003968253968253968
s(S'was'
p2349
S'forced'
p2350
S'by'
p2351
tp2352
F0.0003968253968253968
s(S'was'
p2353
S'accompanied'
p2354
S'by'
p2355
tp2356
F0.0003968253968253968
s(S'was'
p2357
S'grandson'
p2358
S'of'
p2359
tp2360
F0.0003968253968253968
s(S'worked'
p2361
S'as'
p2362
S'[[det]]'
p2363
tp2364
F0.0003968253968253968
s(S'was'
p2365
S'announced'
p2366
S'to'
p2367
tp2368
F0.0003968253968253968
s(S'became'
p2369
S'friends'
p2370
S'[[con]]'
p2371
tp2372
F0.0003968253968253968
s(g1511
g1512
S'votes'
p2373
tp2374
F0.0007936507936507937
s(S'also'
p2375
S'took'
p2376
S'on'
p2377
tp2378
F0.0003968253968253968
s(S'also'
p2379
S'served'
p2380
S'under'
p2381
tp2382
F0.0003968253968253968
s(g57
S'daughter'
p2383
S'who'
p2384
tp2385
F0.0003968253968253968
s(S'[[prp]]'
p2386
S'brother'
p2387
S'[[det]]'
p2388
tp2389
F0.0007936507936507937
s(S'was'
p2390
S'served'
p2391
S'as'
p2392
tp2393
F0.0003968253968253968
s(S'[[prp]]'
p2394
S'victory'
p2395
S'over'
p2396
tp2397
F0.0003968253968253968
s(S'then'
p2398
S'appointed'
p2399
S'to'
p2400
tp2401
F0.0003968253968253968
s(S'was'
p2402
S'called'
p2403
S'[[det]]'
p2404
tp2405
F0.0003968253968253968
s(S'[[con]]'
p2406
S'replaced'
p2407
S'[[pro]]'
p2408
tp2409
F0.0003968253968253968
s(S'has'
p2410
S'lost'
p2411
S'to'
p2412
tp2413
F0.0003968253968253968
s(S'was'
p2414
S'moved'
p2415
S'[[con]]'
p2416
tp2417
F0.0003968253968253968
s(S'was'
p2418
S'declared'
p2419
S'[[adj]]'
p2420
tp2421
F0.0003968253968253968
s(S'[[adj]]'
p2422
S'successor'
p2423
S'as'
p2424
tp2425
F0.0003968253968253968
s(S'position'
p2426
S'when'
p2427
S'was'
p2428
tp2429
F0.0003968253968253968
s(S'was'
p2430
S'granted'
p2431
S'by'
p2432
tp2433
F0.0003968253968253968
s(S'who'
p2434
S'took'
p2435
S'[[det]]'
p2436
tp2437
F0.0003968253968253968
s(S'now'
p2438
S'led'
p2439
S'from'
p2440
tp2441
F0.0003968253968253968
s(S'[[num]]'
p2442
S'children'
p2443
S'with'
p2444
tp2445
F0.0003968253968253968
s(S'to'
p2446
S'serve'
p2447
S'[[adj]]'
p2448
tp2449
F0.0003968253968253968
s(S'[[con]]'
p2450
S'appointed'
p2451
S'[[pro]]'
p2452
tp2453
F0.0003968253968253968
s(S'[[adj]]'
p2454
S'president'
p2455
S'who'
p2456
tp2457
F0.0003968253968253968
s(S'[[prp]]'
p2458
S'daughter'
p2459
S'[[con]]'
p2460
tp2461
F0.0003968253968253968
s(S'first'
p2462
S'served'
p2463
S'[[con]]'
p2464
tp2465
F0.0003968253968253968
s(S'is'
p2466
S'killed'
p2467
S'while'
p2468
tp2469
F0.0003968253968253968
s(S'[[con]]'
p2470
S'accompanied'
p2471
S'[[det]]'
p2472
tp2473
F0.0003968253968253968
s(S'later'
p2474
S'appointed'
p2475
S'by'
p2476
tp2477
F0.0003968253968253968
s(S'[[con]]'
p2478
S'resigned'
p2479
S'[[adj]]'
p2480
tp2481
F0.0003968253968253968
s(S'[[adj]]'
p2482
S'daughter'
p2483
S'by'
p2484
tp2485
F0.0003968253968253968
s(S'[[det]]'
p2486
S'daughter'
p2487
S'[[pro]]'
p2488
tp2489
F0.0003968253968253968
s(S'[[mod]]'
p2490
S'serve'
p2491
S'with'
p2492
tp2493
F0.0003968253968253968
s(S'[[adj]]'
p2494
S'friend'
p2495
S'with'
p2496
tp2497
F0.0003968253968253968
s(g761
g762
S'as'
p2498
tp2499
F0.0007936507936507937
s(S'[[det]]'
p2500
S'appointment'
p2501
S'as'
p2502
tp2503
F0.0003968253968253968
s(S'which'
p2504
S'lost'
p2505
S'to'
p2506
tp2507
F0.0003968253968253968
s(S'be'
p2508
S'killed'
p2509
S'by'
p2510
tp2511
F0.0003968253968253968
s(S'however'
p2512
S'lost'
p2513
S'to'
p2514
tp2515
F0.0003968253968253968
s(g57
S'resignation'
p2516
S'as'
p2517
tp2518
F0.0003968253968253968
s(g57
S'brotherinlaw'
p2519
S'[[con]]'
p2520
tp2521
F0.0003968253968253968
s(S'[[adj]]'
p2522
S'son'
p2523
S'of'
p2524
tp2525
F0.002380952380952381
s(g57
S'letter'
p2526
S'to'
p2527
tp2528
F0.0003968253968253968
s(g57
S'wife'
p2529
S'[[det]]'
p2530
tp2531
F0.0003968253968253968
s(S'had'
p2532
S'lost'
p2533
S'[[det]]'
p2534
tp2535
F0.0003968253968253968
s(S'eldest'
p2536
S'son'
p2537
S'of'
p2538
tp2539
F0.0011904761904761906
s(S'[[pro]]'
p2540
S'[[det]]'
p2541
S'son'
p2542
tp2543
F0.0003968253968253968
s(S'also'
p2544
S'recognized'
p2545
S'[[det]]'
p2546
tp2547
F0.0003968253968253968
s(S'[[adj]]'
p2548
S'followed'
p2549
S'by'
p2550
tp2551
F0.0003968253968253968
s(S'[[prp]]'
p2552
S'resignation'
p2553
S'to'
p2554
tp2555
F0.0003968253968253968
s(S'be'
p2556
S'called'
p2557
S'[[det]]'
p2558
tp2559
F0.0003968253968253968
s(S'eldest'
p2560
S'son'
p2561
S'[[det]]'
p2562
tp2563
F0.0007936507936507937
s(g57
S'friends'
p2564
S'[[adj]]'
p2565
tp2566
F0.0003968253968253968
s(g57
S'wife'
p2567
S'[[con]]'
p2568
tp2569
F0.0003968253968253968
s(S'is'
p2570
S'killed'
p2571
S'[[con]]'
p2572
tp2573
F0.0003968253968253968
s(S'was'
p2574
S'chosen'
p2575
S'[[con]]'
p2576
tp2577
F0.0003968253968253968
s(S'only'
p2578
S'daughter'
p2579
S'of'
p2580
tp2581
F0.0003968253968253968
s(g962
g963
S'with'
p2582
tp2583
F0.0015873015873015873
s(S'[[con]]'
p2584
S'friend'
p2585
S'to'
p2586
tp2587
F0.0003968253968253968
s(g57
S'resignation'
p2588
S'[[con]]'
p2589
tp2590
F0.0003968253968253968
s(S'[[det]]'
p2591
S'grandson'
p2592
S'[[det]]'
p2593
tp2594
F0.0003968253968253968
s(S'son'
p2595
S'[[con]]'
p2596
S'brother'
p2597
tp2598
F0.002380952380952381
s(S'then'
p2599
S'defeated'
p2600
S'[[con]]'
p2601
tp2602
F0.0003968253968253968
s(S'announced'
p2603
S'that'
p2604
S'to'
p2605
tp2606
F0.0003968253968253968
s(S'[[num]]'
p2607
S'brothers'
p2608
S'[[det]]'
p2609
tp2610
F0.0003968253968253968
s(g57
S'uncle'
p2611
S'[[con]]'
p2612
tp2613
F0.0003968253968253968
s(g537
g1762
S'[[pro]]'
p2614
tp2615
F0.0003968253968253968
s(S'being'
p2616
S'succeeded'
p2617
S'by'
p2618
tp2619
F0.0003968253968253968
s(S'[[det]]'
p2620
S'brotherinlaw'
p2621
S'of'
p2622
tp2623
F0.0003968253968253968
s(S'[[con]]'
p2624
S'served'
p2625
S'under'
p2626
tp2627
F0.0003968253968253968
s(S'had'
p2628
S'replaced'
p2629
S'[[det]]'
p2630
tp2631
F0.0003968253968253968
s(S'[[det]]'
p2632
S'son'
p2633
S'who'
p2634
tp2635
F0.0003968253968253968
s(S'which'
p2636
S'replaced'
p2637
S'[[det]]'
p2638
tp2639
F0.0003968253968253968
s(S'[[num]]'
p2640
S'brothers'
p2641
S'[[num]]'
p2642
tp2643
F0.0003968253968253968
s(S'[[adj]]'
p2644
S'senator'
p2645
S'[[con]]'
p2646
tp2647
F0.0003968253968253968
s(S'was'
p2648
S'chosen'
p2649
S'by'
p2650
tp2651
F0.0003968253968253968
s(S'[[adj]]'
p2652
S'ahead'
p2653
S'of'
p2654
tp2655
F0.0003968253968253968
s(S'then'
p2656
S'replaced'
p2657
S'by'
p2658
tp2659
F0.0003968253968253968
s(S'also'
p2660
S'felt'
p2661
S'that'
p2662
tp2663
F0.0003968253968253968
s(S'[[adj]]'
p2664
S'brothers'
p2665
S'[[con]]'
p2666
tp2667
F0.0003968253968253968
s(S'son'
p2668
S'of'
p2669
S'[[con]]'
p2670
tp2671
F0.0003968253968253968
s(S'also'
p2672
S'acted'
p2673
S'to'
p2674
tp2675
F0.0003968253968253968
s(S'of'
p2676
S'led'
p2677
S'by'
p2678
tp2679
F0.0003968253968253968
s(S'was'
p2680
S'taken'
p2681
S'over'
p2682
tp2683
F0.0003968253968253968
s(S'succeeded'
p2684
S'when'
p2685
S'retired'
p2686
tp2687
F0.0003968253968253968
s(g57
S'children'
p2688
S'with'
p2689
tp2690
F0.0003968253968253968
s(S'[[con]]'
p2691
S'came'
p2692
S'with'
p2693
tp2694
F0.0003968253968253968
s(S'merged'
p2695
S'with'
p2696
S'to'
p2697
tp2698
F0.0007936507936507937
s(S'[[con]]'
p2699
S'gave'
p2700
S'[[pro]]'
p2701
tp2702
F0.0003968253968253968
s(S'[[con]]'
p2703
S'served'
p2704
S'as'
p2705
tp2706
F0.0003968253968253968
s(S'[[prp]]'
p2707
S'wife'
p2708
S'as'
p2709
tp2710
F0.0003968253968253968
s(S'candidate'
p2711
g242
g243
tp2712
F0.0007936507936507937
s(S'[[det]]'
p2713
S'member'
p2714
S'was'
p2715
tp2716
F0.0003968253968253968
s(S'[[det]]'
p2717
S'mother'
p2718
S'from'
p2719
tp2720
F0.0003968253968253968
s(S'[[det]]'
p2721
S'leader'
p2722
S'was'
p2723
tp2724
F0.0003968253968253968
s(S'to'
p2725
S'remain'
p2726
S'as'
p2727
tp2728
F0.0003968253968253968
s(S'is'
p2729
S'challenged'
p2730
S'by'
p2731
tp2732
F0.0003968253968253968
s(S'son'
p2733
S'[[con]]'
p2734
S'successor'
p2735
tp2736
F0.002380952380952381
s(S'also'
p2737
S'appointed'
p2738
S'[[adj]]'
p2739
tp2740
F0.0003968253968253968
s(S'was'
p2741
S'appointed'
p2742
S'when'
p2743
tp2744
F0.0003968253968253968
s(S'is'
p2745
S'named'
p2746
S'[[det]]'
p2747
tp2748
F0.0003968253968253968
s(g57
S'son'
p2749
S'[[con]]'
p2750
tp2751
F0.002777777777777778
s(S'[[det]]'
p2752
S'son'
p2753
S'[[num]]'
p2754
tp2755
F0.0003968253968253968
s(S'later'
p2756
S'serve'
p2757
S'as'
p2758
tp2759
F0.0003968253968253968
s(g2302
g2303
S'of'
p2760
tp2761
F0.0007936507936507937
s(S'also'
p2762
S'called'
p2763
S'was'
p2764
tp2765
F0.0003968253968253968
s(S'also'
p2766
S'wrote'
p2767
S'to'
p2768
tp2769
F0.0003968253968253968
s(S'discontinued'
p2770
S'[[con]]'
p2771
S'replaced'
p2772
tp2773
F0.0007936507936507937
s(g2362
g2363
g1902
tp2774
F0.0003968253968253968
s(S'first'
p2775
S'met'
p2776
S'[[det]]'
p2777
tp2778
F0.0003968253968253968
s(g335
g336
S'of'
p2779
tp2780
F0.0007936507936507937
s(S'have'
p2781
S'killed'
p2782
S'[[det]]'
p2783
tp2784
F0.0003968253968253968
s(S'[[prp]]'
p2785
S'father'
p2786
S'was'
p2787
tp2788
F0.0003968253968253968
s(S'also'
p2789
S'announced'
p2790
S'that'
p2791
tp2792
F0.0003968253968253968
s(S'was'
p2793
S'replaced'
p2794
S'in'
p2795
tp2796
F0.0003968253968253968
s(S'twice'
p2797
S'married'
p2798
S'[[adj]]'
p2799
tp2800
F0.0003968253968253968
s(S'to'
p2801
S'allow'
p2802
S'to'
p2803
tp2804
F0.0003968253968253968
s(S'been'
p2805
S'killed'
p2806
S'with'
p2807
tp2808
F0.0003968253968253968
s(S'[[prp]]'
p2809
S'successor'
p2810
S'[[con]]'
p2811
tp2812
F0.0003968253968253968
s(S'[[con]]'
p2813
S'was'
p2814
S'replaced'
p2815
tp2816
F0.0015873015873015873
s(S'[[adj]]'
p2817
S'death'
p2818
S'of'
p2819
tp2820
F0.0003968253968253968
s(S'[[con]]'
p2821
S'was'
p2822
S'succeeded'
p2823
tp2824
F0.005952380952380952
s(S'[[adj]]'
p2825
S'son'
p2826
S'de'
p2827
tp2828
F0.0003968253968253968
s(S'[[con]]'
p2829
S'returned'
p2830
S'with'
p2831
tp2832
F0.0003968253968253968
s(S'[[pro]]'
p2833
S'did'
p2834
S'[[con]]'
p2835
tp2836
F0.0003968253968253968
s(S'been'
p2837
S'recognized'
p2838
S'with'
p2839
tp2840
F0.0003968253968253968
s(S'[[con]]'
p2841
S'did'
p2842
S'not'
p2843
tp2844
F0.0003968253968253968
s(g57
S'wife'
p2845
S'who'
p2846
tp2847
F0.0003968253968253968
s(S'[[num]]'
p2848
S'[[det]]'
p2849
S'son'
p2850
tp2851
F0.0007936507936507937
s(S'was'
p2852
S'appointed'
p2853
S'[[con]]'
p2854
tp2855
F0.0003968253968253968
s(S'later'
p2856
S'merged'
p2857
S'with'
p2858
tp2859
F0.0003968253968253968
s(S'was'
p2860
S'ousted'
p2861
S'by'
p2862
tp2863
F0.0003968253968253968
s(g57
S'brother'
p2864
S'in'
p2865
tp2866
F0.0003968253968253968
s(S'[[det]]'
p2867
S'father'
p2868
S'when'
p2869
tp2870
F0.0003968253968253968
s(S'[[prp]]'
p2871
S'successor'
p2872
S'in'
p2873
tp2874
F0.0003968253968253968
s(g57
S'named'
p2875
S'after'
p2876
tp2877
F0.0003968253968253968
s(S'[[adj]]'
p2878
S'government'
p2879
S'of'
p2880
tp2881
F0.0003968253968253968
s(S'was'
p2882
S'ordered'
p2883
S'by'
p2884
tp2885
F0.0003968253968253968
s(S'when'
p2886
S'served'
p2887
S'as'
p2888
tp2889
F0.0003968253968253968
s(S'[[adj]]'
p2890
S'sons'
p2891
S'[[con]]'
p2892
tp2893
F0.0003968253968253968
s(S'[[adj]]'
p2894
S'choice'
p2895
S'for'
p2896
tp2897
F0.0003968253968253968
s(S'[[con]]'
p2898
S'ahead'
p2899
S'of'
p2900
tp2901
F0.0003968253968253968
s(S'being'
p2902
S'acquired'
p2903
S'by'
p2904
tp2905
F0.0003968253968253968
s(S'elected'
p2906
S'when'
p2907
S'defeated'
p2908
tp2909
F0.0003968253968253968
s(S'elected'
p2910
S'defeating'
p2911
S'[[adj]]'
p2912
tp2913
F0.0007936507936507937
s(S'was'
p2914
S'renamed'
p2915
S'in'
p2916
tp2917
F0.0003968253968253968
s(g57
S'son'
p2918
S'in'
p2919
tp2920
F0.0003968253968253968
s(S'was'
p2921
S'purchased'
p2922
S'by'
p2923
tp2924
F0.0003968253968253968
s(S'[[adj]]'
p2925
S'wife'
p2926
S'[[det]]'
p2927
tp2928
F0.0003968253968253968
s(g737
g738
S'son'
p2929
tp2930
F0.0003968253968253968
s(S'to'
p2931
S'serve'
p2932
S'when'
p2933
tp2934
F0.0003968253968253968
s(S'[[adj]]'
p2935
S'son'
p2936
S'who'
p2937
tp2938
F0.0003968253968253968
s(S'been'
p2939
S'renamed'
p2940
S'as'
p2941
tp2942
F0.0003968253968253968
s(S'been'
p2943
S'acquired'
p2944
S'by'
p2945
tp2946
F0.0003968253968253968
s(g57
S'death'
p2947
S'[[con]]'
p2948
tp2949
F0.0007936507936507937
s(S'was'
p2950
S'changed'
p2951
S'to'
p2952
tp2953
F0.0003968253968253968
s(S'has'
p2954
S'commented'
p2955
S'that'
p2956
tp2957
F0.0003968253968253968
s(g57
S'father'
p2958
S'who'
p2959
tp2960
F0.0003968253968253968
s(S'[[con]]'
p2961
S'acted'
p2962
S'in'
p2963
tp2964
F0.0003968253968253968
s(S'[[con]]'
p2965
S'took'
p2966
S'[[con]]'
p2967
tp2968
F0.0003968253968253968
s(S'[[det]]'
p2969
S'[[adj]]'
p2970
S'candidate'
p2971
tp2972
F0.0003968253968253968
s(S'[[prp]]'
p2973
S'brother'
p2974
S'who'
p2975
tp2976
F0.0003968253968253968
s(S'also'
p2977
S'succeeded'
p2978
S'as'
p2979
tp2980
F0.0003968253968253968
s(S'to'
p2981
S'replace'
p2982
S'with'
p2983
tp2984
F0.0003968253968253968
s(S'to'
p2985
S'serve'
p2986
S'after'
p2987
tp2988
F0.0003968253968253968
s(S'is'
p2989
S'opposed'
p2990
S'to'
p2991
tp2992
F0.0003968253968253968
s(S'also'
p2993
S'acted'
p2994
S'as'
p2995
tp2996
F0.0003968253968253968
s(S'also'
p2997
S'called'
p2998
S'[[det]]'
p2999
tp3000
F0.0003968253968253968
s(S'being'
p3001
S'appointed'
p3002
S'[[det]]'
p3003
tp3004
F0.0003968253968253968
s(S'[[det]]'
p3005
S'member'
p3006
S'where'
p3007
tp3008
F0.0003968253968253968
s(S'[[adj]]'
p3009
S'role'
p3010
S'[[adj]]'
p3011
tp3012
F0.0007936507936507937
s(S'was'
p3013
S'elected'
p3014
S'defeating'
p3015
tp3016
F0.0015873015873015873
s(S'younger'
p3017
S'brother'
p3018
S'who'
p3019
tp3020
F0.0003968253968253968
s(S'[[adj]]'
p3021
S'mother'
p3022
S'of'
p3023
tp3024
F0.0003968253968253968
s(S'[[num]]'
p3025
S'days'
p3026
S'after'
p3027
tp3028
F0.0003968253968253968
s(g1292
g1103
g1104
tp3029
F0.0007936507936507937
s(S'was'
p3030
S'overthrown'
p3031
S'by'
p3032
tp3033
F0.0003968253968253968
s(S'was'
p3034
S'renamed'
p3035
S'[[num]]'
p3036
tp3037
F0.0003968253968253968
s(S'later'
p3038
S'renamed'
p3039
S'in'
p3040
tp3041
F0.0003968253968253968
s(S'[[det]]'
p3042
S'relationship'
p3043
S'between'
p3044
tp3045
F0.0003968253968253968
s(S'became'
p3046
S'member'
p3047
S'with'
p3048
tp3049
F0.0003968253968253968
s(S'first'
p3050
S'appointed'
p3051
S'by'
p3052
tp3053
F0.0003968253968253968
s(S'succeeded'
p3054
S'[[adj]]'
p3055
S'son'
p3056
tp3057
F0.0003968253968253968
s(S'retired'
p3058
S'[[con]]'
p3059
S'succeeded'
p3060
tp3061
F0.0003968253968253968
s(S'were'
p3062
S'replaced'
p3063
S'by'
p3064
tp3065
F0.0003968253968253968
s(S'won'
p3066
g342
g343
tp3067
F0.0003968253968253968
s(S'also'
p3068
S'wrote'
p3069
S'about'
p3070
tp3071
F0.0003968253968253968
s(S'[[adj]]'
p3072
S'son'
p3073
S'brother'
p3074
tp3075
F0.0003968253968253968
s(S'[[adj]]'
p3076
S'daughter'
p3077
S'of'
p3078
tp3079
F0.0003968253968253968
s(S'[[det]]'
p3080
S'command'
p3081
S'of'
p3082
tp3083
F0.0003968253968253968
s(S'with'
p3084
S'getting'
p3085
S'ahead'
p3086
tp3087
F0.0003968253968253968
s(S'be'
p3088
S'named'
p3089
S'after'
p3090
tp3091
F0.0003968253968253968
s(g57
S'father'
p3092
S'[[num]]'
p3093
tp3094
F0.0003968253968253968
s(S'also'
p3095
S'announced'
p3096
S'as'
p3097
tp3098
F0.0003968253968253968
s(S'[[adj]]'
p3099
S'friends'
p3100
S'[[con]]'
p3101
tp3102
F0.0003968253968253968
s(S'succeeded'
p3103
S'by'
p3104
S'son'
p3105
tp3106
F0.0007936507936507937
s(g642
g643
S'to'
p3107
tp3108
F0.0003968253968253968
s(S'[[det]]'
p3109
S'served'
p3110
S'as'
p3111
tp3112
F0.0003968253968253968
s(S'again'
p3113
S'lost'
p3114
S'to'
p3115
tp3116
F0.0003968253968253968
s(S'was'
p3117
S'turned'
p3118
S'by'
p3119
tp3120
F0.0003968253968253968
s(S'[[det]]'
p3121
S'choice'
p3122
S'[[con]]'
p3123
tp3124
F0.0003968253968253968
s(g26
g27
S'received'
p3125
tp3126
F0.0003968253968253968
s(S'[[num]]'
p3127
S'children'
p3128
S'together'
p3129
tp3130
F0.0003968253968253968
s(S'being'
p3131
S'called'
p3132
S'of'
p3133
tp3134
F0.0003968253968253968
s(S'[[adj]]'
p3135
S'supporter'
p3136
S'of'
p3137
tp3138
F0.0003968253968253968
s(S'death'
p3139
S'[[con]]'
p3140
S'[[det]]'
p3141
tp3142
F0.0003968253968253968
s(S'be'
p3143
S'appointed'
p3144
S'as'
p3145
tp3146
F0.0003968253968253968
s(S'who'
p3147
S'served'
p3148
S'as'
p3149
tp3150
F0.0003968253968253968
s(S'[[det]]'
p3151
g1906
g1907
tp3152
F0.0007936507936507937
s(g263
g264
S'by'
p3153
tp3154
F0.0003968253968253968
s(S'had'
p3155
S'married'
p3156
S'[[num]]'
p3157
tp3158
F0.0003968253968253968
s(S'was'
p3159
S'resigned'
p3160
S'to'
p3161
tp3162
F0.0003968253968253968
s(S'[[adj]]'
p3163
S'reign'
p3164
S'of'
p3165
tp3166
F0.0003968253968253968
s(S'had'
p3167
S'married'
p3168
S'at'
p3169
tp3170
F0.0003968253968253968
s(S'[[prp]]'
p3171
S'father'
p3172
S'[[num]]'
p3173
tp3174
F0.0003968253968253968
s(S'later'
p3175
S'renamed'
p3176
S'to'
p3177
tp3178
F0.0003968253968253968
s(g235
g236
S'defeated'
p3179
tp3180
F0.0003968253968253968
s(S'has'
p3181
S'met'
p3182
S'[[con]]'
p3183
tp3184
F0.0003968253968253968
s(S'resign'
p3185
S'in'
p3186
S'favor'
p3187
tp3188
F0.0003968253968253968
s(S'also'
p3189
S'wrote'
p3190
S'that'
p3191
tp3192
F0.0003968253968253968
s(S'[[det]]'
p3193
S'role'
p3194
S'by'
p3195
tp3196
F0.0003968253968253968
s(S'[[det]]'
p3197
S'seat'
p3198
S'to'
p3199
tp3200
F0.0011904761904761906
s(S'then'
p3201
S'replaced'
p3202
S'with'
p3203
tp3204
F0.0003968253968253968
s(S'that'
p3205
S'did'
p3206
S'not'
p3207
tp3208
F0.0003968253968253968
s(S'also'
p3209
S'killed'
p3210
S'[[con]]'
p3211
tp3212
F0.0003968253968253968
s(S'to'
p3213
S'face'
p3214
S'[[adj]]'
p3215
tp3216
F0.0003968253968253968
s(S'was'
p3217
S'chosen'
p3218
S'of'
p3219
tp3220
F0.0003968253968253968
s(S'[[con]]'
p3221
S'turned'
p3222
S'on'
p3223
tp3224
F0.0003968253968253968
s(g57
S'wife'
p3225
S'[[adj]]'
p3226
tp3227
F0.0003968253968253968
s(S'first'
p3228
S'met'
p3229
S'when'
p3230
tp3231
F0.0003968253968253968
s(S'[[con]]'
p3232
S'acquired'
p3233
S'by'
p3234
tp3235
F0.0003968253968253968
s(S'by'
p3236
S'[[prp]]'
p3237
S'halfbrother'
p3238
tp3239
F0.0003968253968253968
s(S'[[det]]'
p3240
S'mother'
p3241
S'[[con]]'
p3242
tp3243
F0.0003968253968253968
s(S'also'
p3244
S'replaced'
p3245
S'[[det]]'
p3246
tp3247
F0.0003968253968253968
s(S'was'
p3248
S'named'
p3249
S'along'
p3250
tp3251
F0.0003968253968253968
s(S'who'
p3252
S'married'
p3253
S'first'
p3254
tp3255
F0.0003968253968253968
s(S'[[adj]]'
p3256
S'uncle'
p3257
S'to'
p3258
tp3259
F0.0003968253968253968
s(S'when'
p3260
S'died'
p3261
S'[[con]]'
p3262
tp3263
F0.0003968253968253968
s(S'[[con]]'
p3264
S'succeeded'
p3265
S'as'
p3266
tp3267
F0.0007936507936507937
s(S'son'
p3268
S'[[con]]'
p3269
S'heir'
p3270
tp3271
F0.002777777777777778
s(S'[[con]]'
p3272
S'defeated'
p3273
S'[[con]]'
p3274
tp3275
F0.0003968253968253968
s(S'being'
p3276
S'replaced'
p3277
S'with'
p3278
tp3279
F0.0003968253968253968
s(S'constituent'
p3280
S'was'
p3281
S'acquired'
p3282
tp3283
F0.0007936507936507937
s(S'where'
p3284
S'lost'
p3285
S'to'
p3286
tp3287
F0.0003968253968253968
s(S'also'
p3288
S'ran'
p3289
S'with'
p3290
tp3291
F0.0003968253968253968
s(S'also'
p3292
S'ran'
p3293
S'against'
p3294
tp3295
F0.0003968253968253968
s(S'was'
p3296
S'replaced'
p3297
S'from'
p3298
tp3299
F0.0003968253968253968
s(S'son'
p3300
S'of'
p3301
S'brother'
p3302
tp3303
F0.0003968253968253968
s(S'[[adj]]'
p3304
S'member'
p3305
S'where'
p3306
tp3307
F0.0003968253968253968
s(S'remained'
p3308
S'when'
p3309
S'was'
p3310
tp3311
F0.0003968253968253968
s(g2604
g2605
S'merge'
p3312
tp3313
F0.0003968253968253968
s(S'already'
p3314
S'married'
p3315
S'to'
p3316
tp3317
F0.0003968253968253968
s(S'married'
p3318
S'[[det]]'
p3319
S'son'
p3320
tp3321
F0.0007936507936507937
s(S'[[adj]]'
p3322
S'elected'
p3323
S'defeating'
p3324
tp3325
F0.0007936507936507937
s(S'was'
p3326
S'crowned'
p3327
S'by'
p3328
tp3329
F0.0003968253968253968
s(S'soon'
p3330
S'returned'
p3331
S'[[con]]'
p3332
tp3333
F0.0003968253968253968
s(S'as'
p3334
S'opposed'
p3335
S'to'
p3336
tp3337
F0.0003968253968253968
s(S'then'
p3338
S'announced'
p3339
S'that'
p3340
tp3341
F0.0003968253968253968
s(S'[[det]]'
p3342
S'replacement'
p3343
S'for'
p3344
tp3345
F0.0003968253968253968
s(S'[[con]]'
p3346
S'took'
p3347
S'over'
p3348
tp3349
F0.0003968253968253968
s(g57
S'son'
p3350
S'with'
p3351
tp3352
F0.0003968253968253968
s(S'is'
p3353
S'father'
p3354
S'to'
p3355
tp3356
F0.0003968253968253968
s(S'to'
p3357
S'replace'
p3358
S'[[prp]]'
p3359
tp3360
F0.0003968253968253968
s(g57
S'death'
p3361
S'to'
p3362
tp3363
F0.0003968253968253968
s(S'be'
p3364
S'renamed'
p3365
S'[[det]]'
p3366
tp3367
F0.0003968253968253968
s(S'[[con]]'
p3368
S'lost'
p3369
S'[[prp]]'
p3370
tp3371
F0.0003968253968253968
s(S'[[det]]'
p3372
S'wife'
p3373
S'[[con]]'
p3374
tp3375
F0.0003968253968253968
s(S'with'
p3376
S'[[prp]]'
p3377
S'son'
p3378
tp3379
F0.0003968253968253968
s(S'was'
p3380
S'followed'
p3381
S'as'
p3382
tp3383
F0.0003968253968253968
s(S'to'
p3384
S'son'
p3385
S'of'
p3386
tp3387
F0.0007936507936507937
s(S'been'
p3388
S'defeated'
p3389
S'by'
p3390
tp3391
F0.0003968253968253968
s(S'before'
p3392
S'moved'
p3393
S'along'
p3394
tp3395
F0.0003968253968253968
s(S'[[adj]]'
p3396
S'choice'
p3397
S'to'
p3398
tp3399
F0.0003968253968253968
s(S'is'
p3400
S'named'
p3401
S'by'
p3402
tp3403
F0.0003968253968253968
s(S'[[adj]]'
p3404
S'married'
p3405
S'to'
p3406
tp3407
F0.0003968253968253968
s(S'which'
p3408
S'merged'
p3409
S'with'
p3410
tp3411
F0.0003968253968253968
s(S'[[mod]]'
p3412
S'replace'
p3413
S'at'
p3414
tp3415
F0.0003968253968253968
s(S'was'
p3416
S'replaced'
p3417
S'with'
p3418
tp3419
F0.0003968253968253968
s(S'to'
p3420
S'make'
p3421
S'[[con]]'
p3422
tp3423
F0.0003968253968253968
s(S'seat'
p3424
S'to'
p3425
S'candidate'
p3426
tp3427
F0.0007936507936507937
s(S'elected'
p3428
S'defeating'
p3429
S'[[det]]'
p3430
tp3431
F0.0003968253968253968
s(S'is'
p3432
S'appointed'
p3433
S'to'
p3434
tp3435
F0.0003968253968253968
s(S'was'
p3436
S'married'
p3437
S'twice'
p3438
tp3439
F0.0007936507936507937
s(S'[[num]]'
p3440
S'children'
p3441
S'[[con]]'
p3442
tp3443
F0.0003968253968253968
s(S'to'
p3444
S'serve'
p3445
S'until'
p3446
tp3447
F0.0003968253968253968
s(S'by'
p3448
g1604
g1605
tp3449
F0.0015873015873015873
s(g57
S'son'
p3450
S'[[num]]'
p3451
tp3452
F0.0003968253968253968
s(S'[[num]]'
p3453
S'children'
p3454
S'to'
p3455
tp3456
F0.0003968253968253968
s(S'was'
p3457
S'replaced'
p3458
S'[[con]]'
p3459
tp3460
F0.0003968253968253968
s(S'died'
p3461
g21
g22
tp3462
F0.0003968253968253968
s(S'[[adj]]'
p3463
S'ally'
p3464
S'in'
p3465
tp3466
F0.0003968253968253968
s(S'was'
p3467
S'raised'
p3468
S'by'
p3469
tp3470
F0.0003968253968253968
s(S'[[con]]'
p3471
S'defeated'
p3472
S'in'
p3473
tp3474
F0.0003968253968253968
s(S'is'
p3475
S'killed'
p3476
S'by'
p3477
tp3478
F0.0003968253968253968
s(S'also'
p3479
S'wrote'
p3480
S'[[det]]'
p3481
tp3482
F0.0003968253968253968
s(S'was'
p3483
S'replaced'
p3484
S'[[det]]'
p3485
tp3486
F0.0003968253968253968
s(S'[[adj]]'
p3487
S'choice'
p3488
S'[[con]]'
p3489
tp3490
F0.0003968253968253968
s(g156
g157
S'was'
p3491
tp3492
F0.0003968253968253968
s(S'[[adj]]'
p3493
S'grandson'
p3494
S'of'
p3495
tp3496
F0.0003968253968253968
s(S'[[det]]'
p3497
S'halfbrother'
p3498
S'to'
p3499
tp3500
F0.0003968253968253968
s(g57
S'grandson'
p3501
S'[[con]]'
p3502
tp3503
F0.0003968253968253968
s(S'later'
p3504
S'changed'
p3505
S'[[prp]]'
p3506
tp3507
F0.0003968253968253968
s(S'where'
p3508
S'met'
p3509
S'[[con]]'
p3510
tp3511
F0.0003968253968253968
s(S'[[adj]]'
p3512
S'subsidiary'
p3513
S'of'
p3514
tp3515
F0.0003968253968253968
s(S'was'
p3516
S'raised'
p3517
S'[[con]]'
p3518
tp3519
F0.0003968253968253968
s(S'[[pro]]'
p3520
S'served'
p3521
S'as'
p3522
tp3523
F0.0003968253968253968
s(S'then'
p3524
S'took'
p3525
S'[[prp]]'
p3526
tp3527
F0.0003968253968253968
s(S'[[num]]'
p3528
S'younger'
p3529
S'brother'
p3530
tp3531
F0.0003968253968253968
s(S'married'
p3532
S'with'
p3533
S'[[det]]'
p3534
tp3535
F0.0003968253968253968
s(S'was'
p3536
S'renamed'
p3537
S'[[con]]'
p3538
tp3539
F0.0003968253968253968
s(S'was'
p3540
S'promoted'
p3541
S'to'
p3542
tp3543
F0.0003968253968253968
s(S'[[adj]]'
p3544
S'relationship'
p3545
S'between'
p3546
tp3547
F0.0003968253968253968
s(S'later'
p3548
S'served'
p3549
S'[[con]]'
p3550
tp3551
F0.0003968253968253968
s(S'[[adj]]'
p3552
S'member'
p3553
S'[[con]]'
p3554
tp3555
F0.0003968253968253968
s(S'was'
p3556
S'defeated'
p3557
S'while'
p3558
tp3559
F0.0003968253968253968
s(S'has'
p3560
S'called'
p3561
S'[[det]]'
p3562
tp3563
F0.0003968253968253968
s(S'later'
p3564
S'adopted'
p3565
S'by'
p3566
tp3567
F0.0003968253968253968
s(g57
S'son'
p3568
S'of'
p3569
tp3570
F0.0003968253968253968
s(S'was'
p3571
S'declared'
p3572
S'by'
p3573
tp3574
F0.0003968253968253968
s(S'[[num]]'
p3575
S'daughter'
p3576
S'of'
p3577
tp3578
F0.0003968253968253968
s(S'have'
p3579
S'served'
p3580
S'as'
p3581
tp3582
F0.0003968253968253968
s(S'then'
p3583
S'attacked'
p3584
S'with'
p3585
tp3586
F0.0003968253968253968
s(S'was'
p3587
S'sold'
p3588
S'for'
p3589
tp3590
F0.0003968253968253968
s(S'have'
p3591
S'met'
p3592
S'with'
p3593
tp3594
F0.0003968253968253968
s(S'[[adj]]'
p3595
S'surviving'
p3596
S'son'
p3597
tp3598
F0.0003968253968253968
s(S'to'
p3599
S'support'
p3600
S'[[adj]]'
p3601
tp3602
F0.0003968253968253968
s(S'in'
p3603
S'favor'
p3604
S'with'
p3605
tp3606
F0.0003968253968253968
s(S'[[det]]'
p3607
S'daughter'
p3608
S'with'
p3609
tp3610
F0.0003968253968253968
s(S'again'
p3611
S'appointed'
p3612
S'[[det]]'
p3613
tp3614
F0.0003968253968253968
s(S'[[num]]'
p3615
S'ref'
p3616
S'name'
p3617
tp3618
F0.0003968253968253968
s(S'to'
p3619
S'make'
p3620
S'up'
p3621
tp3622
F0.0003968253968253968
s(S'son'
p3623
S'[[pro]]'
p3624
S'father'
p3625
tp3626
F0.0003968253968253968
s(S'[[con]]'
p3627
S'[[adj]]'
p3628
S'brother'
p3629
tp3630
F0.0003968253968253968
s(S'often'
p3631
S'called'
p3632
S'[[det]]'
p3633
tp3634
F0.0003968253968253968
s(S'[[det]]'
p3635
S'daughter'
p3636
S'who'
p3637
tp3638
F0.0003968253968253968
s(S'was'
p3639
S'named'
p3640
S'[[con]]'
p3641
tp3642
F0.0003968253968253968
s(S'[[adj]]'
p3643
S'mother'
p3644
S'[[con]]'
p3645
tp3646
F0.0003968253968253968
s(S'[[prp]]'
p3647
S'son'
p3648
S'[[num]]'
p3649
tp3650
F0.0003968253968253968
s(S'[[num]]'
p3651
S'ref'
p3652
S'[[con]]'
p3653
tp3654
F0.0003968253968253968
s(S'was'
p3655
S'overshadowed'
p3656
S'by'
p3657
tp3658
F0.0003968253968253968
s(S'once'
p3659
S'served'
p3660
S'as'
p3661
tp3662
F0.0003968253968253968
s(S'also'
p3663
S'called'
p3664
S'for'
p3665
tp3666
F0.0003968253968253968
s(S'brother'
p3667
S'[[con]]'
p3668
S'son'
p3669
tp3670
F0.0007936507936507937
s(S'was'
p3671
S'chosen'
p3672
S'[[det]]'
p3673
tp3674
F0.0003968253968253968
s(S'also'
p3675
S'called'
p3676
S'[[con]]'
p3677
tp3678
F0.0003968253968253968
s(S'is'
p3679
S'led'
p3680
S'to'
p3681
tp3682
F0.0003968253968253968
s(S'[[adj]]'
p3683
S'son'
p3684
S'to'
p3685
tp3686
F0.0003968253968253968
s(S'was'
p3687
S'split'
p3688
S'off'
p3689
tp3690
F0.0003968253968253968
s(S'[[adj]]'
p3691
S'appointment'
p3692
S'as'
p3693
tp3694
F0.0003968253968253968
s(S'best'
p3695
S'friend'
p3696
S'of'
p3697
tp3698
F0.0003968253968253968
s(S'later'
p3699
S'renamed'
p3700
S'[[con]]'
p3701
tp3702
F0.0003968253968253968
s(S'[[adj]]'
p3703
S'letter'
p3704
S'to'
p3705
tp3706
F0.0003968253968253968
s(S'was'
p3707
S'renamed'
p3708
S'to'
p3709
tp3710
F0.0003968253968253968
s(S'[[con]]'
p3711
S'lost'
p3712
S'to'
p3713
tp3714
F0.0015873015873015873
s(S'was'
p3715
S'chosen'
p3716
S'over'
p3717
tp3718
F0.0003968253968253968
s(S'had'
p3719
S'killed'
p3720
S'[[con]]'
p3721
tp3722
F0.0003968253968253968
s(S'was'
p3723
S'mother'
p3724
S'of'
p3725
tp3726
F0.0003968253968253968
s(S'to'
p3727
g3185
g3186
tp3728
F0.0003968253968253968
s(S'then'
p3729
S'returned'
p3730
S'where'
p3731
tp3732
F0.0003968253968253968
s(S'[[det]]'
p3733
g3280
g3281
tp3734
F0.0007936507936507937
s(S'when'
p3735
S'resigned'
p3736
S'to'
p3737
tp3738
F0.0003968253968253968
s(S'[[prp]]'
p3739
S'son'
p3740
S'who'
p3741
tp3742
F0.0007936507936507937
s(S'be'
p3743
S'purchased'
p3744
S'by'
p3745
tp3746
F0.0003968253968253968
s(g57
S'government'
p3747
S'[[con]]'
p3748
tp3749
F0.0003968253968253968
s(g57
S'office'
p3750
S'to'
p3751
tp3752
F0.0003968253968253968
s(S'[[det]]'
p3753
S'choice'
p3754
S'of'
p3755
tp3756
F0.0003968253968253968
s(S'later'
p3757
S'renamed'
p3758
S'as'
p3759
tp3760
F0.0003968253968253968
s(S'later'
p3761
S'did'
p3762
S'[[det]]'
p3763
tp3764
F0.0003968253968253968
s(S'[[pro]]'
p3765
S'son'
p3766
S'of'
p3767
tp3768
F0.0003968253968253968
s(g117
g118
S'candidate'
p3769
tp3770
F0.0007936507936507937
s(S'is'
p3771
S'replaced'
p3772
S'as'
p3773
tp3774
F0.0003968253968253968
s(S'was'
p3775
S'removed'
p3776
S'[[con]]'
p3777
tp3778
F0.0003968253968253968
s(S'[[det]]'
p3779
S'son'
p3780
S'with'
p3781
tp3782
F0.0003968253968253968
s(S'lost'
p3783
S'to'
p3784
S'candidate'
p3785
tp3786
F0.0003968253968253968
s(S'[[adj]]'
p3787
S'friend'
p3788
S'who'
p3789
tp3790
F0.0003968253968253968
s(S'[[det]]'
p3791
S'seat'
p3792
S'formerly'
p3793
tp3794
F0.0003968253968253968
s(S'formerly'
p3795
S'married'
p3796
S'to'
p3797
tp3798
F0.0003968253968253968
s(S'with'
p3799
S'friends'
p3800
S'[[con]]'
p3801
tp3802
F0.0003968253968253968
s(S'also'
p3803
S'took'
p3804
S'[[con]]'
p3805
tp3806
F0.0003968253968253968
s(S'[[adj]]'
p3807
S'wife'
p3808
S'of'
p3809
tp3810
F0.0003968253968253968
s(S'was'
p3811
S'succeeded'
p3812
S'[[prp]]'
p3813
tp3814
F0.0003968253968253968
s(S'[[adj]]'
p3815
S'leader'
p3816
S'[[con]]'
p3817
tp3818
F0.0003968253968253968
s(S'was'
p3819
S'replaced'
p3820
S'while'
p3821
tp3822
F0.0003968253968253968
s(S'had'
p3823
S'met'
p3824
S'when'
p3825
tp3826
F0.0003968253968253968
s(S'first'
p3827
S'came'
p3828
S'as'
p3829
tp3830
F0.0003968253968253968
s(g57
S'mother'
p3831
S'that'
p3832
tp3833
F0.0003968253968253968
s(g57
S'brother'
p3834
S'who'
p3835
tp3836
F0.0003968253968253968
s(g57
S'cousin'
p3837
S'[[det]]'
p3838
tp3839
F0.0003968253968253968
s(S'has'
p3840
S'beaten'
p3841
S'[[con]]'
p3842
tp3843
F0.0003968253968253968
s(S'was'
p3844
S'removed'
p3845
S'as'
p3846
tp3847
F0.0003968253968253968
s(S'was'
p3848
S'murdered'
p3849
S'by'
p3850
tp3851
F0.0003968253968253968
s(S'[[con]]'
p3852
S'promoted'
p3853
S'to'
p3854
tp3855
F0.0003968253968253968
s(g57
S'plans'
p3856
S'for'
p3857
tp3858
F0.0003968253968253968
s(S'is'
p3859
S'sold'
p3860
S'as'
p3861
tp3862
F0.0003968253968253968
s(S'[[adj]]'
p3863
S'father'
p3864
S'of'
p3865
tp3866
F0.0003968253968253968
s(S'while'
p3867
S'served'
p3868
S'as'
p3869
tp3870
F0.0003968253968253968
s(S'made'
p3871
S'friends'
p3872
S'with'
p3873
tp3874
F0.0003968253968253968
s(S'[[con]]'
p3875
S'returned'
p3876
S'as'
p3877
tp3878
F0.0003968253968253968
s(S'[[mod]]'
p3879
S'merge'
p3880
S'[[con]]'
p3881
tp3882
F0.0003968253968253968
s(S'best'
p3883
S'friends'
p3884
S'with'
p3885
tp3886
F0.0003968253968253968
s(S'had'
p3887
S'finished'
p3888
S'behind'
p3889
tp3890
F0.0003968253968253968
s(S'[[num]]'
p3891
S'followed'
p3892
S'at'
p3893
tp3894
F0.0003968253968253968
s(S'[[det]]'
p3895
S'brother'
p3896
S'[[det]]'
p3897
tp3898
F0.0007936507936507937
s(S'later'
p3899
S'named'
p3900
S'[[pro]]'
p3901
tp3902
F0.0003968253968253968
s(S'married'
p3903
S'de'
p3904
S'[[det]]'
p3905
tp3906
F0.0003968253968253968
s(S'[[con]]'
p3907
S'followed'
p3908
S'by'
p3909
tp3910
F0.0003968253968253968
s(S'eldest'
p3911
S'[[adj]]'
p3912
S'son'
p3913
tp3914
F0.0003968253968253968
s(g57
S'support'
p3915
S'[[con]]'
p3916
tp3917
F0.0003968253968253968
s(S'[[con]]'
p3918
S'were'
p3919
S'defeated'
p3920
tp3921
F0.0003968253968253968
s(S'[[adj]]'
p3922
S'wife'
p3923
S'[[adj]]'
p3924
tp3925
F0.0003968253968253968
s(S'was'
p3926
S'named'
p3927
S'on'
p3928
tp3929
F0.0003968253968253968
s(S'was'
p3930
S'murdered'
p3931
S'[[con]]'
p3932
tp3933
F0.0003968253968253968
s(S'[[adj]]'
p3934
S'ref'
p3935
S'[[num]]'
p3936
tp3937
F0.0003968253968253968
s(g57
S'relationship'
p3938
S'to'
p3939
tp3940
F0.0003968253968253968
s(S'lost'
p3941
S'[[det]]'
p3942
S'election'
p3943
tp3944
F0.0011904761904761906
s(S'[[con]]'
p3945
S'married'
p3946
S'to'
p3947
tp3948
F0.0003968253968253968
s(S'held'
p3949
S'[[det]]'
p3950
g2426
tp3951
F0.0003968253968253968
s(S'[[adj]]'
p3952
S'member'
p3953
S'after'
p3954
tp3955
F0.0003968253968253968
s(S'is'
p3956
S'brother'
p3957
S'of'
p3958
tp3959
F0.0003968253968253968
s(S'had'
p3960
S'died'
p3961
S'[[con]]'
p3962
tp3963
F0.0003968253968253968
s(S'also'
p3964
S'wrote'
p3965
S'[[num]]'
p3966
tp3967
F0.0003968253968253968
s(S'is'
p3968
S'brother'
p3969
S'to'
p3970
tp3971
F0.0003968253968253968
s(S'were'
p3972
S'purchased'
p3973
S'by'
p3974
tp3975
F0.0003968253968253968
s(S'had'
p3976
S'appointed'
p3977
S'as'
p3978
tp3979
F0.0003968253968253968
s(S'[[con]]'
p3980
S'wife'
p3981
S'of'
p3982
tp3983
F0.0003968253968253968
s(S'was'
p3984
S'promoted'
p3985
S'[[adj]]'
p3986
tp3987
F0.0003968253968253968
s(S'[[con]]'
p3988
S'make'
p3989
S'[[adj]]'
p3990
tp3991
F0.0003968253968253968
s(S'[[det]]'
p3992
S'friend'
p3993
S'in'
p3994
tp3995
F0.0003968253968253968
s(S'also'
p3996
S'acted'
p3997
S'[[con]]'
p3998
tp3999
F0.0003968253968253968
s(S'[[con]]'
p4000
S'accompanied'
p4001
S'by'
p4002
tp4003
F0.0003968253968253968
s(S'candidate'
p4004
S'being'
p4005
S'defeated'
p4006
tp4007
F0.0003968253968253968
s(g2158
g2159
S'on'
p4008
tp4009
F0.0003968253968253968
s(S'then'
p4010
S'took'
p4011
S'on'
p4012
tp4013
F0.0003968253968253968
s(S'then'
p4014
S'served'
p4015
S'before'
p4016
tp4017
F0.0003968253968253968
s(S'was'
p4018
S'recognized'
p4019
S'as'
p4020
tp4021
F0.0003968253968253968
s(S'was'
p4022
g885
g886
tp4023
F0.0003968253968253968
s(g57
S'reign'
p4024
S'[[con]]'
p4025
tp4026
F0.0003968253968253968
s(S'[[pro]]'
p4027
S'did'
p4028
S'to'
p4029
tp4030
F0.0003968253968253968
s(S'[[prp]]'
p4031
g254
g255
tp4032
F0.0003968253968253968
s(S'be'
p4033
S'crowned'
p4034
S'as'
p4035
tp4036
F0.0003968253968253968
s(S'by'
p4037
S'[[prp]]'
p4038
S'brother'
p4039
tp4040
F0.001984126984126984
s(S'became'
p4041
S'friends'
p4042
S'with'
p4043
tp4044
F0.0003968253968253968
s(S'died'
p4045
S'[[con]]'
p4046
S'king'
p4047
tp4048
F0.0003968253968253968
s(S'power'
p4049
S'to'
p4050
S'[[adj]]'
p4051
tp4052
F0.0003968253968253968
s(g57
S'rival'
p4053
S'[[con]]'
p4054
tp4055
F0.0003968253968253968
s(S'[[con]]'
p4056
S'replacing'
p4057
S'[[con]]'
p4058
tp4059
F0.0003968253968253968
s(S'of'
p4060
S'[[prp]]'
p4061
S'father'
p4062
tp4063
F0.0003968253968253968
s(S'where'
p4064
S'came'
p4065
S'across'
p4066
tp4067
F0.0003968253968253968
s(S'also'
p4068
S'wrote'
p4069
S'at'
p4070
tp4071
F0.0003968253968253968
s(S'been'
p4072
S'replaced'
p4073
S'by'
p4074
tp4075
F0.0003968253968253968
s(S'to'
p4076
S'defeat'
p4077
S'[[adj]]'
p4078
tp4079
F0.0003968253968253968
s(S'[[mod]]'
p4080
S'remain'
p4081
S'[[con]]'
p4082
tp4083
F0.0003968253968253968
s(S'also'
p4084
S'served'
p4085
S'as'
p4086
tp4087
F0.0003968253968253968
s(S'has'
p4088
S'moved'
p4089
S'as'
p4090
tp4091
F0.0003968253968253968
s(S'eldest'
p4092
S'son'
p4093
S'[[con]]'
p4094
tp4095
F0.0007936507936507937
s(S'was'
p4096
S'appointed'
p4097
S'first'
p4098
tp4099
F0.0003968253968253968
s(S'was'
p4100
S'elected'
p4101
S'[[con]]'
p4102
tp4103
F0.0003968253968253968
s(S'was'
p4104
S'preceded'
p4105
g491
tp4106
F0.0003968253968253968
s(S'was'
p4107
S'appointed'
p4108
S'[[prp]]'
p4109
tp4110
F0.0003968253968253968
s(S'which'
p4111
S'led'
p4112
S'to'
p4113
tp4114
F0.0003968253968253968
s(S'also'
p4115
S'wrote'
p4116
S'of'
p4117
tp4118
F0.0003968253968253968
s(S'[[det]]'
p4119
S'victory'
p4120
S'of'
p4121
tp4122
F0.0003968253968253968
s(S'then'
p4123
S'served'
p4124
S'to'
p4125
tp4126
F0.0003968253968253968
s(S'[[prp]]'
p4127
S'friends'
p4128
S'[[con]]'
p4129
tp4130
F0.0003968253968253968
s(S'never'
p4131
S'called'
p4132
S'[[con]]'
p4133
tp4134
F0.0003968253968253968
s(S'[[det]]'
p4135
S'daughter'
p4136
S'[[adj]]'
p4137
tp4138
F0.0003968253968253968
s(S'ran'
p4139
g3918
g3919
tp4140
F0.0003968253968253968
s(S'died'
p4141
g3376
g3377
tp4142
F0.0003968253968253968
s(S'had'
p4143
S'declared'
p4144
S'[[pro]]'
p4145
tp4146
F0.0003968253968253968
s(S'[[prp]]'
p4147
S'seat'
p4148
S'[[con]]'
p4149
tp4150
F0.0003968253968253968
s(S'son'
p4151
g4060
g4061
tp4152
F0.0007936507936507937
s(S'was'
p4153
S'forced'
p4154
S'out'
p4155
tp4156
F0.0003968253968253968
s(S'in'
p4157
S'support'
p4158
S'of'
p4159
tp4160
F0.0003968253968253968
s(S'was'
p4161
S'merged'
p4162
S'[[con]]'
p4163
tp4164
F0.0003968253968253968
s(S'been'
p4165
S'called'
p4166
S'[[num]]'
p4167
tp4168
F0.0003968253968253968
s(S'[[con]]'
p4169
S'responded'
p4170
S'that'
p4171
tp4172
F0.0003968253968253968
s(S'[[adj]]'
p4173
S'ref'
p4174
S'name'
p4175
tp4176
F0.0003968253968253968
s(S'son'
p4177
S'[[con]]'
p4178
S'[[det]]'
p4179
tp4180
F0.0011904761904761906
s(g1918
g1919
S'was'
p4181
tp4182
F0.0003968253968253968
s(S'becomes'
p4183
S'friends'
p4184
S'[[con]]'
p4185
tp4186
F0.0003968253968253968
s(S'was'
p4187
S'succeeded'
p4188
S'to'
p4189
tp4190
F0.0003968253968253968
s(S'[[det]]'
p4191
S'children'
p4192
S'of'
p4193
tp4194
F0.0003968253968253968
s(S'[[con]]'
p4195
S'heir'
p4196
S'of'
p4197
tp4198
F0.0015873015873015873
s(S'was'
p4199
S'crowned'
p4200
S'[[con]]'
p4201
tp4202
F0.0003968253968253968
s(S'brother'
p4203
S'[[det]]'
p4204
S'son'
p4205
tp4206
F0.0003968253968253968
s(S'later'
p4207
S'served'
p4208
S'from'
p4209
tp4210
F0.0003968253968253968
s(S'[[mod]]'
p4211
S'serve'
p4212
S'as'
p4213
tp4214
F0.0003968253968253968
s(S'aged'
p4215
S'[[num]]'
p4216
S'was'
p4217
tp4218
F0.0007936507936507937
s(S'[[det]]'
p4219
S'county'
p4220
S'margin'
p4221
tp4222
F0.0003968253968253968
s(S'[[det]]'
p4223
S'mention'
p4224
S'of'
p4225
tp4226
F0.0003968253968253968
s(S'has'
p4227
S'supported'
p4228
S'[[con]]'
p4229
tp4230
F0.0003968253968253968
s(S'served'
p4231
g1199
g1200
tp4232
F0.0003968253968253968
s(g57
S'followed'
p4233
S'by'
p4234
tp4235
F0.0003968253968253968
s(S'is'
p4236
S'succeeded'
p4237
S'by'
p4238
tp4239
F0.0011904761904761906
s(S'[[prp]]'
p4240
S'appointment'
p4241
S'as'
p4242
tp4243
F0.0003968253968253968
s(S'was'
p4244
S'returned'
p4245
S'for'
p4246
tp4247
F0.0003968253968253968
s(S'[[adj]]'
p4248
S'oldest'
p4249
S'son'
p4250
tp4251
F0.0003968253968253968
s(S'is'
p4252
S'renamed'
p4253
S'from'
p4254
tp4255
F0.0003968253968253968
s(g57
S'called'
p4256
S'[[det]]'
p4257
tp4258
F0.0003968253968253968
s(S'served'
p4259
S'[[con]]'
p4260
S'lost'
p4261
tp4262
F0.0003968253968253968
s(S'was'
p4263
S'succeeded'
p4264
S'on'
p4265
tp4266
F0.0003968253968253968
s(S'also'
p4267
S'defeated'
p4268
S'[[num]]'
p4269
tp4270
F0.0003968253968253968
s(S'[[con]]'
p4271
S'remained'
p4272
S'as'
p4273
tp4274
F0.0003968253968253968
s(S'was'
p4275
S'chosen'
p4276
S'to'
p4277
tp4278
F0.0003968253968253968
s(S'been'
p4279
S'beaten'
p4280
S'by'
p4281
tp4282
F0.0003968253968253968
s(g2696
g2697
S'form'
p4283
tp4284
F0.0007936507936507937
s(S'[[adj]]'
p4285
S'successor'
p4286
S'of'
p4287
tp4288
F0.0003968253968253968
s(S'eldest'
p4289
S'son'
p4290
S'[[num]]'
p4291
tp4292
F0.0003968253968253968
s(S'was'
p4293
S'renamed'
p4294
S'[[det]]'
p4295
tp4296
F0.0003968253968253968
s(S'also'
p4297
S'wrote'
p4298
S'[[con]]'
p4299
tp4300
F0.0003968253968253968
s(S'has'
p4301
S'served'
p4302
S'as'
p4303
tp4304
F0.0003968253968253968
s(S'announced'
p4305
S'that'
p4306
S'[[con]]'
p4307
tp4308
F0.0003968253968253968
s(S'was'
p4309
S'friend'
p4310
S'with'
p4311
tp4312
F0.0003968253968253968
s(S'[[con]]'
p4313
S'thought'
p4314
S'that'
p4315
tp4316
F0.0003968253968253968
s(S'was'
p4317
S'father'
p4318
S'to'
p4319
tp4320
F0.0003968253968253968
s(g57
S'grandson'
p4321
S'[[det]]'
p4322
tp4323
F0.0003968253968253968
s(S'was'
p4324
S'deposed'
p4325
S'by'
p4326
tp4327
F0.0003968253968253968
s(S'[[con]]'
p4328
S'met'
p4329
S'[[det]]'
p4330
tp4331
F0.0003968253968253968
s(S'[[adj]]'
p4332
S'friends'
p4333
S'of'
p4334
tp4335
F0.0003968253968253968
s(S'[[prp]]'
p4336
S'father'
p4337
g57
tp4338
F0.0003968253968253968
s(S'[[det]]'
p4339
g3009
g3010
tp4340
F0.005158730158730159
s(S'is'
p4341
S'appointed'
p4342
S'[[det]]'
p4343
tp4344
F0.0003968253968253968
s(S'later'
p4345
S'renamed'
p4346
S'[[det]]'
p4347
tp4348
F0.0003968253968253968
s(S'again'
p4349
S'defeated'
p4350
S'[[con]]'
p4351
tp4352
F0.0003968253968253968
s(S'was'
p4353
S'absorbed'
p4354
S'by'
p4355
tp4356
F0.0003968253968253968
s(S'[[det]]'
p4357
S'reign'
p4358
S'[[con]]'
p4359
tp4360
F0.0003968253968253968
s(S'[[adj]]'
p4361
S'choice'
p4362
S'as'
p4363
tp4364
F0.0003968253968253968
s(S'[[det]]'
p4365
S'grandson'
p4366
S'[[con]]'
p4367
tp4368
F0.0003968253968253968
s(S'was'
p4369
S'recognized'
p4370
S'with'
p4371
tp4372
F0.0003968253968253968
s(S'was'
p4373
S'called'
p4374
S'into'
p4375
tp4376
F0.0003968253968253968
s(S'[[det]]'
p4377
g2711
g242
tp4378
F0.0007936507936507937
s(S'[[adj]]'
p4379
S'support'
p4380
S'of'
p4381
tp4382
F0.0003968253968253968
s(S'[[con]]'
p4383
S'met'
p4384
S'up'
p4385
tp4386
F0.0003968253968253968
s(S'was'
p4387
S'briefly'
p4388
S'[[adj]]'
p4389
tp4390
F0.0003968253968253968
s(S'also'
p4391
S'replaced'
p4392
S'as'
p4393
tp4394
F0.0003968253968253968
s(S'be'
p4395
S'followed'
p4396
S'by'
p4397
tp4398
F0.0003968253968253968
s(S'[[adj]]'
p4399
S'children'
p4400
S'[[adj]]'
p4401
tp4402
F0.0003968253968253968
s(S'also'
p4403
S'appointed'
p4404
S'as'
p4405
tp4406
F0.0003968253968253968
s(g2329
g2330
S'son'
p4407
tp4408
F0.0003968253968253968
s(S'be'
p4409
S'appointed'
p4410
S'to'
p4411
tp4412
F0.0003968253968253968
s(S'later'
p4413
S'met'
p4414
S'with'
p4415
tp4416
F0.0003968253968253968
s(g1216
g1217
S'son'
p4417
tp4418
F0.0011904761904761906
s(S'[[det]]'
p4419
S'member'
p4420
S'as'
p4421
tp4422
F0.0003968253968253968
s(S'then'
p4423
S'returned'
p4424
S'as'
p4425
tp4426
F0.0003968253968253968
s(S'[[det]]'
p4427
g1302
g1303
tp4428
F0.0003968253968253968
s(S'was'
p4429
S'produced'
p4430
S'was'
p4431
tp4432
F0.0003968253968253968
s(S'was'
p4433
S'married'
p4434
S'[[con]]'
p4435
tp4436
F0.0015873015873015873
s(S'[[adj]]'
p4437
S'leader'
p4438
S'with'
p4439
tp4440
F0.0003968253968253968
s(S'later'
p4441
S'served'
p4442
S'as'
p4443
tp4444
F0.0003968253968253968
s(S'had'
p4445
S'replaced'
p4446
S'with'
p4447
tp4448
F0.0003968253968253968
s(S'has'
p4449
S'commented'
p4450
S'on'
p4451
tp4452
F0.0003968253968253968
s(S'was'
p4453
S'replaced'
p4454
S'as'
p4455
tp4456
F0.0003968253968253968
s(S'is'
p4457
S'beaten'
p4458
S'by'
p4459
tp4460
F0.0003968253968253968
s(S'had'
p4461
S'moved'
p4462
S'[[con]]'
p4463
tp4464
F0.0003968253968253968
s(S'represented'
p4465
S'[[det]]'
p4466
S'electorate'
p4467
tp4468
F0.0007936507936507937
s(S'[[det]]'
p4469
S'friend'
p4470
S'to'
p4471
tp4472
F0.0003968253968253968
s(g3309
g3310
S'replaced'
p4473
tp4474
F0.0007936507936507937
s(S'still'
p4475
S'married'
p4476
S'to'
p4477
tp4478
F0.0003968253968253968
s(S'announced'
p4479
g961
g962
tp4480
F0.0015873015873015873
s(S'[[adj]]'
p4481
S'rival'
p4482
S'[[con]]'
p4483
tp4484
F0.0003968253968253968
s(S'been'
p4485
S'purchased'
p4486
S'by'
p4487
tp4488
F0.0003968253968253968
s(S'twice'
p4489
S'served'
p4490
S'as'
p4491
tp4492
F0.0003968253968253968
s(S'[[num]]'
p4493
S'children'
p4494
S'of'
p4495
tp4496
F0.0003968253968253968
s(S'[[det]]'
p4497
S'leader'
p4498
S'to'
p4499
tp4500
F0.0003968253968253968
s(S'[[adj]]'
p4501
S'wife'
p4502
S'in'
p4503
tp4504
F0.0003968253968253968
s(S'[[con]]'
p4505
S'finished'
p4506
S'[[num]]'
p4507
tp4508
F0.0003968253968253968
s(S'is'
p4509
S'called'
p4510
S'[[det]]'
p4511
tp4512
F0.0003968253968253968
s(S'was'
p4513
S'killed'
p4514
S'by'
p4515
tp4516
F0.0003968253968253968
s(g1170
g1171
S'son'
p4517
tp4518
F0.0003968253968253968
s(S'was'
p4519
S'married'
p4520
S'by'
p4521
tp4522
F0.0003968253968253968
s(S'being'
p4523
S'defeated'
p4524
S'by'
p4525
tp4526
F0.0007936507936507937
s(S'been'
p4527
S'renamed'
p4528
S'[[det]]'
p4529
tp4530
F0.0003968253968253968
s(S'[[adj]]'
p4531
S'served'
p4532
S'as'
p4533
tp4534
F0.0003968253968253968
s(S'[[adj]]'
p4535
S'daughter'
p4536
S'[[det]]'
p4537
tp4538
F0.0003968253968253968
s(g3624
g3625
S'of'
p4539
tp4540
F0.0003968253968253968
s(g57
S'mother'
p4541
S'of'
p4542
tp4543
F0.0003968253968253968
s(S'[[num]]'
p4544
S'friends'
p4545
S'[[det]]'
p4546
tp4547
F0.0003968253968253968
s(S'was'
p4548
S'absorbed'
p4549
S'into'
p4550
tp4551
F0.0003968253968253968
s(S'[[det]]'
p4552
S'appointment'
p4553
S'in'
p4554
tp4555
F0.0003968253968253968
s(S'[[adj]]'
p4556
S'support'
p4557
S'for'
p4558
tp4559
F0.0003968253968253968
s(g1357
g139
g140
tp4560
F0.001984126984126984
s(S'was'
p4561
S'son'
p4562
S'[[con]]'
p4563
tp4564
F0.0011904761904761906
s(S'[[det]]'
p4565
S'leader'
p4566
S'is'
p4567
tp4568
F0.0003968253968253968
s(S'has'
p4569
S'remained'
p4570
S'[[adj]]'
p4571
tp4572
F0.0003968253968253968
s(S'[[con]]'
p4573
S'took'
p4574
S'up'
p4575
tp4576
F0.0003968253968253968
s(S'also'
p4577
S'lost'
p4578
S'with'
p4579
tp4580
F0.0003968253968253968
s(S'[[det]]'
p4581
S'father'
p4582
S'to'
p4583
tp4584
F0.0003968253968253968
s(S'[[det]]'
p4585
S'uncle'
p4586
S'to'
p4587
tp4588
F0.0003968253968253968
s(S'also'
p4589
g2157
g2158
tp4590
F0.002777777777777778
s(S'also'
p4591
S'did'
p4592
S'[[det]]'
p4593
tp4594
F0.0003968253968253968
s(S'first'
p4595
S'met'
p4596
S'with'
p4597
tp4598
F0.0003968253968253968
s(g57
S'choice'
p4599
S'for'
p4600
tp4601
F0.0003968253968253968
s(S'[[det]]'
p4602
S'replacement'
p4603
S'of'
p4604
tp4605
F0.0003968253968253968
s(S'became'
p4606
S'friends'
p4607
S'[[adj]]'
p4608
tp4609
F0.0003968253968253968
s(S'[[det]]'
p4610
S'supporter'
p4611
S'of'
p4612
tp4613
F0.0003968253968253968
s(S'[[pro]]'
p4614
S'brother'
p4615
S'[[con]]'
p4616
tp4617
F0.0003968253968253968
s(S'not'
p4618
S'mention'
p4619
S'[[det]]'
p4620
tp4621
F0.0003968253968253968
s(S'[[num]]'
p4622
S'children'
p4623
S'[[num]]'
p4624
tp4625
F0.0003968253968253968
s(S'[[con]]'
p4626
S'brother'
p4627
S'to'
p4628
tp4629
F0.0011904761904761906
s(S'half'
p4630
g467
g468
tp4631
F0.0003968253968253968
s(S'[[adj]]'
p4632
S'ally'
p4633
S'of'
p4634
tp4635
F0.0003968253968253968
s(S'[[det]]'
p4636
S'son'
p4637
S'whom'
p4638
tp4639
F0.0003968253968253968
s(S'[[num]]'
p4640
S'ref'
p4641
S'was'
p4642
tp4643
F0.0003968253968253968
s(S'then'
p4644
S'appointed'
p4645
S'as'
p4646
tp4647
F0.0003968253968253968
s(S'[[prp]]'
p4648
S'successor'
p4649
S'as'
p4650
tp4651
F0.0003968253968253968
s(S'been'
p4652
S'called'
p4653
S'by'
p4654
tp4655
F0.0003968253968253968
s(S'served'
p4656
S'when'
p4657
S'succeeded'
p4658
tp4659
F0.0003968253968253968
s(S'was'
p4660
S'opposed'
p4661
S'to'
p4662
tp4663
F0.0003968253968253968
s(S'is'
p4664
S'appointed'
p4665
S'[[con]]'
p4666
tp4667
F0.0003968253968253968
s(g1733
g1734
S'succeeded'
p4668
tp4669
F0.0003968253968253968
s(S'[[det]]'
p4670
g4630
g467
tp4671
F0.0003968253968253968
s(S'[[adj]]'
p4672
S'wife'
p4673
S'[[con]]'
p4674
tp4675
F0.0003968253968253968
s(S'succeeded'
p4676
S'[[prp]]'
p4677
S'nephew'
p4678
tp4679
F0.0003968253968253968
s(S'be'
p4680
S'named'
p4681
S'later'
p4682
tp4683
F0.0003968253968253968
s(S'is'
p4684
S'assassinated'
p4685
S'by'
p4686
tp4687
F0.0003968253968253968
s(S'[[adj]]'
p4688
S'support'
p4689
S'[[con]]'
p4690
tp4691
F0.0003968253968253968
s(S'succeeded'
p4692
S'by'
p4693
S'[[num]]'
p4694
tp4695
F0.0003968253968253968
s(S'is'
p4696
S'recognized'
p4697
S'as'
p4698
tp4699
F0.0003968253968253968
s(S'married'
p4700
g2211
g2212
tp4701
F0.0011904761904761906
s(S'[[det]]'
p4702
S'son'
p4703
S'[[det]]'
p4704
tp4705
F0.0007936507936507937
s(S'first'
p4706
S'met'
p4707
S'at'
p4708
tp4709
F0.0003968253968253968
s(S'stepped'
p4710
g1139
g1140
tp4711
F0.0003968253968253968
s(S'has'
p4712
S'replaced'
p4713
S'[[det]]'
p4714
tp4715
F0.0003968253968253968
s(g1174
g1175
S'by'
p4716
tp4717
F0.0003968253968253968
s(S'[[det]]'
p4718
S'member'
p4719
S'that'
p4720
tp4721
F0.0003968253968253968
s(S'[[det]]'
p4722
g1147
g460
tp4723
F0.0003968253968253968
s(S'[[con]]'
p4724
S'served'
p4725
S'to'
p4726
tp4727
F0.0003968253968253968
s(S'[[det]]'
p4728
S'role'
p4729
S'with'
p4730
tp4731
F0.0003968253968253968
s(S'also'
p4732
S'acted'
p4733
S'[[adj]]'
p4734
tp4735
F0.0003968253968253968
s(S'again'
p4736
S'served'
p4737
S'as'
p4738
tp4739
F0.0003968253968253968
s(S'[[det]]'
p4740
S'thought'
p4741
S'of'
p4742
tp4743
F0.0003968253968253968
s(S'handing'
p4744
S'over'
p4745
g4049
tp4746
F0.0003968253968253968
s(S'later'
p4747
S'purchased'
p4748
S'by'
p4749
tp4750
F0.0003968253968253968
s(S'[[det]]'
p4751
S'member'
p4752
S'who'
p4753
tp4754
F0.0003968253968253968
s(S'[[adj]]'
p4755
S'role'
p4756
S'with'
p4757
tp4758
F0.0003968253968253968
s(S'[[con]]'
p4759
S'took'
p4760
S'on'
p4761
tp4762
F0.0003968253968253968
s(S'[[num]]'
p4763
S'votes'
p4764
S'[[num]]'
p4765
tp4766
F0.0003968253968253968
s(S'was'
p4767
S'brother'
p4768
S'to'
p4769
tp4770
F0.0003968253968253968
s(g57
S'defeat'
p4771
S'[[con]]'
p4772
tp4773
F0.0003968253968253968
s(S'also'
p4774
S'married'
p4775
S'to'
p4776
tp4777
F0.0003968253968253968
s(S'[[prp]]'
p4778
S'[[adj]]'
p4779
S'cousin'
p4780
tp4781
F0.0003968253968253968
s(S'succeeded'
p4782
S'when'
p4783
S'died'
p4784
tp4785
F0.0003968253968253968
s(g57
S'daughter'
p4786
S'by'
p4787
tp4788
F0.0003968253968253968
s(S'been'
p4789
S'appointed'
p4790
S'as'
p4791
tp4792
F0.0003968253968253968
s(g57
S'support'
p4793
S'of'
p4794
tp4795
F0.0003968253968253968
s(S'was'
p4796
S'killed'
p4797
S'when'
p4798
tp4799
F0.0003968253968253968
s(S'to'
p4800
S'serve'
p4801
S'[[det]]'
p4802
tp4803
F0.0003968253968253968
s(S'[[adj]]'
p4804
S'cousin'
p4805
S'to'
p4806
tp4807
F0.0003968253968253968
s(S'was'
p4808
S'uncle'
p4809
S'to'
p4810
tp4811
F0.0003968253968253968
s(S'[[prp]]'
p4812
S'sons'
p4813
S'[[con]]'
p4814
tp4815
F0.0007936507936507937
s(g57
S'appointment'
p4816
S'of'
p4817
tp4818
F0.0003968253968253968
s(S'also'
p4819
S'acquired'
p4820
S'from'
p4821
tp4822
F0.0003968253968253968
s(g57
S'son'
p4823
S'de'
p4824
tp4825
F0.0003968253968253968
s(S'[[con]]'
p4826
S'father'
p4827
S'of'
p4828
tp4829
F0.0007936507936507937
s(S'be'
p4830
S'married'
p4831
S'to'
p4832
tp4833
F0.0003968253968253968
s(S'had'
p4834
S'served'
p4835
S'on'
p4836
tp4837
F0.0003968253968253968
s(S'lost'
p4838
g3197
g3198
tp4839
F0.0011904761904761906
s(S'[[con]]'
p4840
S'daughter'
p4841
S'of'
p4842
tp4843
F0.0003968253968253968
s(S'[[adj]]'
p4844
S'son'
p4845
S'[[adj]]'
p4846
tp4847
F0.0003968253968253968
s(g4745
g4049
g4050
tp4848
F0.0003968253968253968
s(S'succeeded'
p4849
g13
g14
tp4850
F0.0003968253968253968
s(S'married'
p4851
S'[[pro]]'
p4852
S'[[num]]'
p4853
tp4854
F0.0003968253968253968
s(S'[[prp]]'
p4855
S'support'
p4856
S'behind'
p4857
tp4858
F0.0007936507936507937
s(S'[[num]]'
p4859
S'married'
p4860
S'in'
p4861
tp4862
F0.0003968253968253968
s(S'[[num]]'
p4863
S'sons'
p4864
S'[[con]]'
p4865
tp4866
F0.0003968253968253968
s(S'[[con]]'
p4867
S'announced'
p4868
S'that'
p4869
tp4870
F0.0003968253968253968
s(S'became'
p4871
S'leader'
p4872
S'[[con]]'
p4873
tp4874
F0.0003968253968253968
s(S'to'
p4875
S'defeat'
p4876
S'[[num]]'
p4877
tp4878
F0.0003968253968253968
s(S'was'
p4879
S'bought'
p4880
S'[[con]]'
p4881
tp4882
F0.0003968253968253968
s(S'was'
p4883
S'met'
p4884
S'by'
p4885
tp4886
F0.0003968253968253968
s(S'[[con]]'
p4887
S'remained'
p4888
S'so'
p4889
tp4890
F0.0003968253968253968
s(g4466
g4467
S'when'
p4891
tp4892
F0.0003968253968253968
s(S'was'
p4893
S'deputy'
p4894
S'to'
p4895
tp4896
F0.0003968253968253968
s(S'lead'
p4897
S'ahead'
p4898
S'of'
p4899
tp4900
F0.0003968253968253968
s(S'lost'
p4901
g4427
g1302
tp4902
F0.0007936507936507937
s(S'[[con]]'
p4903
S'did'
p4904
S'[[det]]'
p4905
tp4906
F0.0003968253968253968
s(S'served'
p4907
g993
g994
tp4908
F0.0003968253968253968
s(S'[[adj]]'
p4909
S'minister'
p4910
S'[[det]]'
p4911
tp4912
F0.0003968253968253968
s(S'married'
p4913
S'[[prp]]'
p4914
S'son'
p4915
tp4916
F0.0003968253968253968
s(S'later'
p4917
S'defeated'
p4918
S'by'
p4919
tp4920
F0.0003968253968253968
s(S'then'
p4921
S'killed'
p4922
S'by'
p4923
tp4924
F0.0003968253968253968
s(S'was'
p4925
S'bought'
p4926
S'by'
p4927
tp4928
F0.0003968253968253968
s(S'by'
p4929
S'[[prp]]'
p4930
S'cousin'
p4931
tp4932
F0.0003968253968253968
s(S'[[con]]'
p4933
S'resigned'
p4934
S'as'
p4935
tp4936
F0.0003968253968253968
s(S'ran'
p4937
S'[[con]]'
p4938
S'was'
p4939
tp4940
F0.001984126984126984
s(S'also'
p4941
S'served'
p4942
S'[[con]]'
p4943
tp4944
F0.0003968253968253968
s(g57
S'father'
p4945
S'to'
p4946
tp4947
F0.0003968253968253968
s(S'was'
p4948
S'killed'
p4949
S'to'
p4950
tp4951
F0.0003968253968253968
s(g4852
g4853
S'son'
p4952
tp4953
F0.0003968253968253968
s(S'[[det]]'
p4954
S'role'
p4955
g985
tp4956
F0.0003968253968253968
s(S'also'
p4957
S'met'
p4958
S'with'
p4959
tp4960
F0.0003968253968253968
s(S'[[det]]'
p4961
S'children'
p4962
S'[[det]]'
p4963
tp4964
F0.0003968253968253968
s(S'that'
p4965
S'called'
p4966
S'[[det]]'
p4967
tp4968
F0.0003968253968253968
s(S'[[det]]'
p4969
S'brother'
p4970
S'to'
p4971
tp4972
F0.0003968253968253968
s(S'[[det]]'
p4973
S'letter'
p4974
S'to'
p4975
tp4976
F0.0003968253968253968
s(S'also'
p4977
S'wrote'
p4978
S'as'
p4979
tp4980
F0.0003968253968253968
s(S'regained'
p4981
g4722
g1147
tp4982
F0.0003968253968253968
s(S'died'
p4983
g1087
g1088
tp4984
F0.0003968253968253968
s(S'had'
p4985
S'acted'
p4986
S'to'
p4987
tp4988
F0.0003968253968253968
s(S'[[pro]]'
p4989
S'called'
p4990
S'[[det]]'
p4991
tp4992
F0.0003968253968253968
s(S'[[mod]]'
p4993
S'replace'
p4994
S'as'
p4995
tp4996
F0.0003968253968253968
s(S'also'
p4997
S'supported'
p4998
S'[[con]]'
p4999
tp5000
F0.0003968253968253968
s(S'son'
p5001
S'of'
p5002
S'[[adj]]'
p5003
tp5004
F0.0003968253968253968
s(S'lost'
p5005
g641
g642
tp5006
F0.0003968253968253968
s(S'[[det]]'
p5007
S'son'
p5008
S'became'
p5009
tp5010
F0.0003968253968253968
s(S'was'
p5011
S'accompanied'
p5012
S'with'
p5013
tp5014
F0.0003968253968253968
s(S'was'
p5015
S'recognized'
p5016
S'[[con]]'
p5017
tp5018
F0.0003968253968253968
s(S'[[adj]]'
p5019
S'met'
p5020
S'while'
p5021
tp5022
F0.0003968253968253968
s(S'was'
p5023
S'called'
p5024
S'as'
p5025
tp5026
F0.0003968253968253968
s(S'[[prp]]'
p5027
S'choice'
p5028
S'for'
p5029
tp5030
F0.0003968253968253968
s(S'[[adj]]'
p5031
S'led'
p5032
S'by'
p5033
tp5034
F0.0003968253968253968
s(S'[[det]]'
p5035
S'reign'
p5036
S'of'
p5037
tp5038
F0.0003968253968253968
s(S'[[det]]'
p5039
S'support'
p5040
S'[[con]]'
p5041
tp5042
F0.0003968253968253968
s(S'[[num]]'
p5043
S'son'
p5044
S'[[det]]'
p5045
tp5046
F0.0003968253968253968
s(S'[[prp]]'
p5047
S'friend'
p5048
S'[[con]]'
p5049
tp5050
F0.0003968253968253968
s(g2669
g2670
S'brother'
p5051
tp5052
F0.0003968253968253968
s(S'defeated'
p5053
S'when'
p5054
S'ran'
p5055
tp5056
F0.0007936507936507937
s(g57
S'command'
p5057
S'at'
p5058
tp5059
F0.0003968253968253968
s(S'when'
p5060
S'was'
p5061
S'succeeded'
p5062
tp5063
F0.0011904761904761906
s(S'have'
p5064
S'killed'
p5065
S'[[con]]'
p5066
tp5067
F0.0003968253968253968
s(S'defeated'
p5068
g2969
g2970
tp5069
F0.0003968253968253968
s(S'succeeded'
p5070
S'[[prp]]'
p5071
S'cousin'
p5072
tp5073
F0.0003968253968253968
s(g57
S'children'
p5074
S'[[con]]'
p5075
tp5076
F0.0003968253968253968
s(S'was'
p5077
S'appointed'
p5078
S'with'
p5079
tp5080
F0.0003968253968253968
s(S'was'
p5081
S'married'
p5082
S'with'
p5083
tp5084
F0.0003968253968253968
s(S'was'
p5085
S'offered'
p5086
S'[[adj]]'
p5087
tp5088
F0.0003968253968253968
s(S'[[pro]]'
p5089
S'did'
p5090
S'not'
p5091
tp5092
F0.0003968253968253968
s(S'had'
p5093
S'merged'
p5094
S'into'
p5095
tp5096
F0.0003968253968253968
s(S'[[det]]'
p5097
S'death'
p5098
S'of'
p5099
tp5100
F0.0003968253968253968
s(S'also'
p5101
S'gave'
p5102
S'[[num]]'
p5103
tp5104
F0.0003968253968253968
s(g1904
S'winter'
p5105
S'[[con]]'
p5106
tp5107
F0.0003968253968253968
s(S'[[det]]'
p5108
S'friend'
p5109
S'[[det]]'
p5110
tp5111
F0.0003968253968253968
s(S'is'
p5112
S'met'
p5113
S'by'
p5114
tp5115
F0.0003968253968253968
s(S'held'
p5116
S'[[det]]'
p5117
g1502
tp5118
F0.0011904761904761906
s(S'had'
p5119
S'served'
p5120
S'[[con]]'
p5121
tp5122
F0.0003968253968253968
s(S'later'
p5123
S'announced'
p5124
S'that'
p5125
tp5126
F0.0003968253968253968
s(S'was'
p5127
S'called'
p5128
S'out'
p5129
tp5130
F0.0003968253968253968
s(S'[[adj]]'
p5131
S'member'
p5132
S'with'
p5133
tp5134
F0.0003968253968253968
s(S'[[adj]]'
p5135
S'successor'
p5136
S'to'
p5137
tp5138
F0.0003968253968253968
s(S'[[con]]'
p5139
S'ref'
p5140
S'name'
p5141
tp5142
F0.0003968253968253968
s(S'[[det]]'
p5143
S'president'
p5144
S'[[con]]'
p5145
tp5146
F0.0003968253968253968
s(S'[[det]]'
p5147
S'led'
p5148
S'by'
p5149
tp5150
F0.0003968253968253968
s(S'has'
p5151
S'announced'
p5152
S'that'
p5153
tp5154
F0.0003968253968253968
s(S'have'
p5155
S'met'
p5156
S'[[con]]'
p5157
tp5158
F0.0003968253968253968
s(S'[[con]]'
p5159
S'is'
p5160
S'replaced'
p5161
tp5162
F0.0003968253968253968
s(g2333
g2334
S'replaced'
p5163
tp5164
F0.0003968253968253968
s(S'then'
p5165
S'moved'
p5166
S'as'
p5167
tp5168
F0.0003968253968253968
s(S'[[num]]'
p5169
S'daughter'
p5170
S'[[con]]'
p5171
tp5172
F0.0003968253968253968
s(S'was'
p5173
S'married'
p5174
S'first'
p5175
tp5176
F0.0003968253968253968
s(S'younger'
p5177
S'brother'
p5178
S'[[con]]'
p5179
tp5180
F0.0011904761904761906
s(S'also'
p5181
S'finished'
p5182
S'second'
p5183
tp5184
F0.0003968253968253968
s(S'is'
p5185
S'accused'
p5186
S'of'
p5187
tp5188
F0.0003968253968253968
s(S'[[adj]]'
p5189
S'wrote'
p5190
S'to'
p5191
tp5192
F0.0003968253968253968
s(S'where'
p5193
S'met'
p5194
S'with'
p5195
tp5196
F0.0003968253968253968
s(S'then'
p5197
S'married'
p5198
S'to'
p5199
tp5200
F0.0003968253968253968
s(g57
S'government'
p5201
S'as'
p5202
tp5203
F0.0003968253968253968
s(S'later'
p5204
S'appointed'
p5205
S'[[con]]'
p5206
tp5207
F0.0003968253968253968
s(S'[[prp]]'
p5208
S'son'
p5209
S'was'
p5210
tp5211
F0.0003968253968253968
s(S'has'
p5212
S'followed'
p5213
S'[[det]]'
p5214
tp5215
F0.0003968253968253968
s(S'had'
p5216
S'married'
p5217
S'to'
p5218
tp5219
F0.0003968253968253968
s(S'[[det]]'
p5220
S'brother'
p5221
S'had'
p5222
tp5223
F0.0003968253968253968
s(S'was'
p5224
S'briefly'
p5225
S'[[con]]'
p5226
tp5227
F0.0003968253968253968
s(S'under'
p5228
S'command'
p5229
S'of'
p5230
tp5231
F0.0003968253968253968
s(S'[[prp]]'
p5232
S'mother'
p5233
S'[[con]]'
p5234
tp5235
F0.0003968253968253968
s(S'is'
p5236
S'killed'
p5237
S'at'
p5238
tp5239
F0.0003968253968253968
s(S'is'
p5240
S'married'
p5241
S'to'
p5242
tp5243
F0.0011904761904761906
s(S'[[prp]]'
p5244
S'support'
p5245
S'of'
p5246
tp5247
F0.0003968253968253968
s(S'to'
p5248
S'daughter'
p5249
S'of'
p5250
tp5251
F0.0003968253968253968
s(S'when'
p5252
g4838
g3197
tp5253
F0.0003968253968253968
s(S'[[det]]'
p5254
S'eldest'
p5255
S'son'
p5256
tp5257
F0.002777777777777778
s(S'[[prp]]'
p5258
S'brothers'
p5259
S'were'
p5260
tp5261
F0.0003968253968253968
s(S'was'
p5262
S'son'
p5263
S'of'
p5264
tp5265
F0.0003968253968253968
s(S'[[det]]'
p5266
S'letter'
p5267
S'of'
p5268
tp5269
F0.0003968253968253968
s(g769
g770
S'governments'
p5270
tp5271
F0.0003968253968253968
s(S'was'
p5272
S'named'
p5273
S'was'
p5274
tp5275
F0.0003968253968253968
s(S'later'
p5276
S'moved'
p5277
S'with'
p5278
tp5279
F0.0003968253968253968
s(S'is'
p5280
S'mother'
p5281
S'of'
p5282
tp5283
F0.0003968253968253968
s(S'[[adj]]'
p5284
S'plans'
p5285
S'of'
p5286
tp5287
F0.0003968253968253968
s(S'[[adj]]'
p5288
S'member'
p5289
S'[[num]]'
p5290
tp5291
F0.0003968253968253968
s(S'where'
p5292
S'served'
p5293
S'as'
p5294
tp5295
F0.0003968253968253968
s(g57
S'eldest'
p5296
S'surviving'
p5297
tp5298
F0.0003968253968253968
s(S'[[con]]'
p5299
S'played'
p5300
S'[[det]]'
p5301
tp5302
F0.0003968253968253968
s(S'[[prp]]'
p5303
S'resignation'
p5304
S'as'
p5305
tp5306
F0.0003968253968253968
s(S'of'
p5307
S'[[prp]]'
p5308
S'brother'
p5309
tp5310
F0.0003968253968253968
s(S'[[num]]'
p5311
S'elections'
p5312
S'to'
p5313
tp5314
F0.0003968253968253968
s(S'[[det]]'
p5315
S'daughter'
p5316
S'[[con]]'
p5317
tp5318
F0.0003968253968253968
s(S'had'
p5319
S'turned'
p5320
S'to'
p5321
tp5322
F0.0003968253968253968
s(S'was'
p5323
S'called'
p5324
S'on'
p5325
tp5326
F0.0003968253968253968
s(g57
S'oldest'
p5327
S'son'
p5328
tp5329
F0.0007936507936507937
s(g57
S'appointment'
p5330
S'to'
p5331
tp5332
F0.0003968253968253968
s(S'became'
p5333
S'president'
p5334
S'[[con]]'
p5335
tp5336
F0.0003968253968253968
s(S'[[adj]]'
p5337
S'role'
p5338
S'played'
p5339
tp5340
F0.0003968253968253968
s(S'also'
p5341
S'married'
p5342
S'[[det]]'
p5343
tp5344
F0.0003968253968253968
s(S'passed'
p5345
S'[[det]]'
p5346
S'reins'
p5347
tp5348
F0.0003968253968253968
s(S'also'
p5349
S'promoted'
p5350
S'[[det]]'
p5351
tp5352
F0.0003968253968253968
s(S'[[num]]'
p5353
S'children'
p5354
S'[[adj]]'
p5355
tp5356
F0.0003968253968253968
s(S'who'
p5357
S'appointed'
p5358
S'[[det]]'
p5359
tp5360
F0.0003968253968253968
s(S'half'
p5361
S'brother'
p5362
S'of'
p5363
tp5364
F0.0003968253968253968
s(S'later'
p5365
S'acquired'
p5366
S'[[num]]'
p5367
tp5368
F0.0003968253968253968
s(S'[[det]]'
p5369
S'uncle'
p5370
S'[[con]]'
p5371
tp5372
F0.0003968253968253968
s(g57
S'brother'
p5373
S'[[det]]'
p5374
tp5375
F0.0003968253968253968
s(S'[[det]]'
p5376
S'cousin'
p5377
S'[[det]]'
p5378
tp5379
F0.0003968253968253968
s(S'[[con]]'
p5380
S'friend'
p5381
S'of'
p5382
tp5383
F0.0003968253968253968
s(S'[[det]]'
p5384
S'power'
p5385
S'of'
p5386
tp5387
F0.0003968253968253968
s(S'[[det]]'
p5388
g5361
g5362
tp5389
F0.0003968253968253968
s(S'[[adj]]'
p5390
S'member'
p5391
S'who'
p5392
tp5393
F0.0003968253968253968
s(S'[[prp]]'
p5394
S'friend'
p5395
S'[[det]]'
p5396
tp5397
F0.0003968253968253968
s(S'by'
p5398
S'[[prp]]'
p5399
S'nephew'
p5400
tp5401
F0.0003968253968253968
s(S'had'
p5402
S'defeated'
p5403
S'[[adj]]'
p5404
tp5405
F0.0003968253968253968
s(S'who'
p5406
S'killed'
p5407
S'[[num]]'
p5408
tp5409
F0.0003968253968253968
s(S'[[adj]]'
p5410
S'promoted'
p5411
S'to'
p5412
tp5413
F0.0003968253968253968
s(S'was'
p5414
S'called'
p5415
S'after'
p5416
tp5417
F0.0003968253968253968
s(S'[[det]]'
p5418
S'younger'
p5419
S'brother'
p5420
tp5421
F0.0031746031746031746
s(S'[[det]]'
p5422
S'appointment'
p5423
S'of'
p5424
tp5425
F0.0003968253968253968
s(S'died'
p5426
g2821
g2822
tp5427
F0.003968253968253968
s(S'[[det]]'
p5428
S'member'
p5429
S'by'
p5430
tp5431
F0.0003968253968253968
s(S'also'
p5432
S'served'
p5433
S'where'
p5434
tp5435
F0.0003968253968253968
s(S'what'
p5436
S'did'
p5437
S'to'
p5438
tp5439
F0.0003968253968253968
s(S'[[det]]'
p5440
S'party'
p5441
S'of'
p5442
tp5443
F0.0003968253968253968
s(S'[[con]]'
p5444
S'felt'
p5445
S'that'
p5446
tp5447
F0.0003968253968253968
s(S'[[prp]]'
p5448
g5177
g5178
tp5449
F0.001984126984126984
s(S'died'
p5450
g4215
g4216
tp5451
F0.0007936507936507937
s(S'to'
p5452
S'remain'
p5453
S'[[adj]]'
p5454
tp5455
F0.0003968253968253968
s(S'married'
p5456
S'twice'
p5457
S'[[det]]'
p5458
tp5459
F0.0003968253968253968
s(S'also'
p5460
S'led'
p5461
S'[[con]]'
p5462
tp5463
F0.0003968253968253968
s(S'is'
p5464
S'called'
p5465
S'by'
p5466
tp5467
F0.0003968253968253968
s(S'[[det]]'
p5468
S'role'
p5469
S'while'
p5470
tp5471
F0.0003968253968253968
s(S'later'
p5472
S'wrote'
p5473
S'of'
p5474
tp5475
F0.0003968253968253968
s(g57
S'mother'
p5476
S'[[det]]'
p5477
tp5478
F0.0003968253968253968
s(S'[[adj]]'
p5479
S'support'
p5480
S'to'
p5481
tp5482
F0.0003968253968253968
s(S'[[det]]'
p5483
S'leader'
p5484
S'[[con]]'
p5485
tp5486
F0.0003968253968253968
s(S'[[con]]'
p5487
S'named'
p5488
S'[[det]]'
p5489
tp5490
F0.0003968253968253968
s(S'had'
p5491
S'served'
p5492
S'under'
p5493
tp5494
F0.0003968253968253968
s(S'is'
p5495
S'called'
p5496
S'[[con]]'
p5497
tp5498
F0.0003968253968253968
s(S'have'
p5499
S'remained'
p5500
S'[[adj]]'
p5501
tp5502
F0.0003968253968253968
s(S'was'
p5503
S'succeeded'
p5504
S'as'
p5505
tp5506
F0.0011904761904761906
s(S'was'
p5507
S'promoted'
p5508
S'with'
p5509
tp5510
F0.0003968253968253968
s(S'was'
p5511
S'beaten'
p5512
S'[[num]]'
p5513
tp5514
F0.0003968253968253968
s(S'also'
p5515
S'accompanied'
p5516
S'[[con]]'
p5517
tp5518
F0.0003968253968253968
s(S'was'
p5519
S'succeeded'
p5520
S'by'
p5521
tp5522
F0.01746031746031746
s(S'be'
p5523
S'appointed'
p5524
S'[[con]]'
p5525
tp5526
F0.0003968253968253968
s(S'also'
p5527
S'named'
p5528
S'as'
p5529
tp5530
F0.0003968253968253968
s(S'being'
p5531
S'beaten'
p5532
S'by'
p5533
tp5534
F0.0003968253968253968
s(S'being'
p5535
S'appointed'
p5536
S'as'
p5537
tp5538
F0.0003968253968253968
s(S'later'
p5539
S'merged'
p5540
S'into'
p5541
tp5542
F0.0003968253968253968
s(S'died'
p5543
g1391
g1392
tp5544
F0.0003968253968253968
s(S'son'
p5545
g3627
g3628
tp5546
F0.0003968253968253968
s(S'later'
p5547
S'served'
p5548
S'under'
p5549
tp5550
F0.0003968253968253968
s(S'was'
p5551
S'father'
p5552
S'of'
p5553
tp5554
F0.0003968253968253968
s(S'had'
p5555
S'succeeded'
p5556
S'[[pro]]'
p5557
tp5558
F0.0003968253968253968
s(g3141
S'accession'
p5559
S'of'
p5560
tp5561
F0.0003968253968253968
s(S'then'
p5562
S'met'
p5563
S'with'
p5564
tp5565
F0.0003968253968253968
s(S'then'
p5566
S'lost'
p5567
S'to'
p5568
tp5569
F0.0003968253968253968
s(S'[[det]]'
p5570
S'letter'
p5571
S'from'
p5572
tp5573
F0.0003968253968253968
s(S'[[det]]'
p5574
g5311
g5312
tp5575
F0.0003968253968253968
s(S'been'
p5576
S'named'
p5577
S'after'
p5578
tp5579
F0.0003968253968253968
s(g57
S'mother'
p5580
S'who'
p5581
tp5582
F0.0003968253968253968
s(S'by'
p5583
S'[[prp]]'
p5584
S'younger'
p5585
tp5586
F0.0011904761904761906
s(S'[[adj]]'
p5587
S'rival'
p5588
S'of'
p5589
tp5590
F0.0003968253968253968
s(S'was'
p5591
g4479
g961
tp5592
F0.0015873015873015873
s(S'was'
p5593
S'supported'
p5594
S'by'
p5595
tp5596
F0.0003968253968253968
s(S'had'
p5597
S'met'
p5598
S'through'
p5599
tp5600
F0.0003968253968253968
s(S'[[det]]'
p5601
g4897
g4898
tp5602
F0.0003968253968253968
s(S'was'
p5603
S'succeeded'
p5604
S'[[con]]'
p5605
tp5606
F0.0003968253968253968
s(S'nearly'
p5607
S'killed'
p5608
S'by'
p5609
tp5610
F0.0003968253968253968
s(S'then'
p5611
S'served'
p5612
S'[[num]]'
p5613
tp5614
F0.0003968253968253968
s(g4105
g491
g492
tp5615
F0.0003968253968253968
s(S'[[adj]]'
p5616
S'served'
p5617
S'for'
p5618
tp5619
F0.0003968253968253968
s(S'was'
p5620
S'named'
p5621
S'[[adj]]'
p5622
tp5623
F0.0003968253968253968
s(S'[[det]]'
p5624
S'daughter'
p5625
S'[[det]]'
p5626
tp5627
F0.0003968253968253968
s(S'is'
p5628
S'appointed'
p5629
S'by'
p5630
tp5631
F0.0003968253968253968
s(g2084
g2085
S'of'
p5632
tp5633
F0.0003968253968253968
s(S'[[adj]]'
p5634
S'lost'
p5635
S'to'
p5636
tp5637
F0.0003968253968253968
s(S'then'
p5638
S'served'
p5639
S'under'
p5640
tp5641
F0.0003968253968253968
s(S'[[num]]'
p5642
S'son'
p5643
S'[[con]]'
p5644
tp5645
F0.0003968253968253968
s(S'[[adj]]'
p5646
S'younger'
p5647
S'brother'
p5648
tp5649
F0.0003968253968253968
s(S'was'
p5650
S'moved'
p5651
S'back'
p5652
tp5653
F0.0003968253968253968
s(S'[[det]]'
p5654
S'member'
p5655
S'along'
p5656
tp5657
F0.0003968253968253968
s(S'[[adj]]'
p5658
S'days'
p5659
S'after'
p5660
tp5661
F0.0003968253968253968
s(S'first'
p5662
S'ran'
p5663
S'[[con]]'
p5664
tp5665
F0.0003968253968253968
s(S'was'
p5666
S'succeeded'
p5667
S'who'
p5668
tp5669
F0.0003968253968253968
s(S'[[con]]'
p5670
S'married'
p5671
S'[[det]]'
p5672
tp5673
F0.0003968253968253968
s(S'[[prp]]'
p5674
S'uncle'
p5675
S'[[con]]'
p5676
tp5677
F0.0003968253968253968
s(S'[[num]]'
p5678
S'son'
p5679
S'by'
p5680
tp5681
F0.0003968253968253968
s(S'be'
p5682
S'appointed'
p5683
S'[[det]]'
p5684
tp5685
F0.0003968253968253968
s(S'is'
p5686
S'defeated'
p5687
S'[[con]]'
p5688
tp5689
F0.0003968253968253968
s(S'candidate'
p5690
S'[[con]]'
p5691
S'lost'
p5692
tp5693
F0.0007936507936507937
s(S'also'
p5694
S'accompanied'
p5695
S'[[adj]]'
p5696
tp5697
F0.0003968253968253968
s(S'[[con]]'
p5698
S'supporter'
p5699
S'of'
p5700
tp5701
F0.0003968253968253968
s(S'is'
p5702
S'called'
p5703
S'in'
p5704
tp5705
F0.0003968253968253968
s(S'soon'
p5706
S'replaced'
p5707
S'by'
p5708
tp5709
F0.0003968253968253968
s(S'[[det]]'
p5710
S'deputy'
p5711
S'of'
p5712
tp5713
F0.0003968253968253968
s(S'[[adj]]'
p5714
S'rival'
p5715
S'to'
p5716
tp5717
F0.0003968253968253968
s(S'[[adj]]'
p5718
S'children'
p5719
S'with'
p5720
tp5721
F0.0003968253968253968
s(S'had'
p5722
S'appointed'
p5723
S'in'
p5724
tp5725
F0.0003968253968253968
s(S'had'
p5726
S'succeeded'
p5727
S'in'
p5728
tp5729
F0.0003968253968253968
s(S'[[adj]]'
p5730
S'friends'
p5731
S'[[adj]]'
p5732
tp5733
F0.0003968253968253968
s(S'narrowly'
p5734
S'defeated'
p5735
S'by'
p5736
tp5737
F0.0003968253968253968
s(S'which'
p5738
S'wrote'
p5739
S'with'
p5740
tp5741
F0.0003968253968253968
s(S'once'
p5742
S'wrote'
p5743
S'that'
p5744
tp5745
F0.0003968253968253968
s(S'[[pro]]'
p5746
S'came'
p5747
S'to'
p5748
tp5749
F0.0003968253968253968
s(S'had'
p5750
S'offered'
p5751
S'to'
p5752
tp5753
F0.0003968253968253968
s(S'[[det]]'
p5754
S'father'
p5755
S'[[det]]'
p5756
tp5757
F0.0003968253968253968
s(S'when'
p5758
S'took'
p5759
S'over'
p5760
tp5761
F0.0003968253968253968
s(S'is'
p5762
S'son'
p5763
S'of'
p5764
tp5765
F0.0003968253968253968
s(S'was'
p5766
S'deposed'
p5767
S'as'
p5768
tp5769
F0.0003968253968253968
s(S'made'
p5770
S'plans'
p5771
S'for'
p5772
tp5773
F0.0003968253968253968
s(S'[[prp]]'
p5774
S'daughter'
p5775
S'was'
p5776
tp5777
F0.0003968253968253968
s(S'narrowly'
p5778
S'defeated'
p5779
S'[[adj]]'
p5780
tp5781
F0.0003968253968253968
s(S'[[adj]]'
p5782
S'brother'
p5783
S'in'
p5784
tp5785
F0.0003968253968253968
s(S'[[adj]]'
p5786
S'recognized'
p5787
S'by'
p5788
tp5789
F0.0003968253968253968
s(S'[[det]]'
p5790
S'minister'
p5791
S'[[con]]'
p5792
tp5793
F0.0003968253968253968
s(S'been'
p5794
S'married'
p5795
S'to'
p5796
tp5797
F0.0003968253968253968
s(S'became'
p5798
S'member'
p5799
S'[[con]]'
p5800
tp5801
F0.0003968253968253968
s(S'[[adj]]'
p5802
S'form'
p5803
S'as'
p5804
tp5805
F0.0003968253968253968
s(S'[[det]]'
p5806
S'member'
p5807
S'when'
p5808
tp5809
F0.0003968253968253968
s(S'[[prp]]'
p5810
S'[[adj]]'
p5811
S'support'
p5812
tp5813
F0.0003968253968253968
s(g57
S'choice'
p5814
S'of'
p5815
tp5816
F0.0003968253968253968
s(S'was'
p5817
S'succeeded'
p5818
S'in'
p5819
tp5820
F0.0003968253968253968
s(S'to'
p5821
S'serve'
p5822
S'as'
p5823
tp5824
F0.0003968253968253968
s(S'[[prp]]'
p5825
S'relationship'
p5826
S'with'
p5827
tp5828
F0.0003968253968253968
s(S'who'
p5829
S'led'
p5830
S'for'
p5831
tp5832
F0.0003968253968253968
s(S'is'
p5833
S'murdered'
p5834
S'by'
p5835
tp5836
F0.0003968253968253968
s(S'was'
p5837
S'named'
p5838
S'while'
p5839
tp5840
F0.0003968253968253968
s(S'[[adj]]'
p5841
S'command'
p5842
S'of'
p5843
tp5844
F0.0003968253968253968
s(S'was'
p5845
S'merged'
p5846
S'to'
p5847
tp5848
F0.0003968253968253968
s(S'is'
p5849
S'promoted'
p5850
S'to'
p5851
tp5852
F0.0003968253968253968
s(S'[[det]]'
p5853
S'friend'
p5854
S'with'
p5855
tp5856
F0.0003968253968253968
s(S'[[prp]]'
p5857
S'son'
p5858
S'by'
p5859
tp5860
F0.0003968253968253968
s(S'has'
p5861
S'served'
p5862
S'[[con]]'
p5863
tp5864
F0.0003968253968253968
s(S'[[adj]]'
p5865
S'named'
p5866
S'after'
p5867
tp5868
F0.0003968253968253968
s(S'first'
p5869
S'served'
p5870
S'as'
p5871
tp5872
F0.0003968253968253968
s(S'[[con]]'
p5873
S'defeated'
p5874
S'[[det]]'
p5875
tp5876
F0.0003968253968253968
s(S'be'
p5877
S'named'
p5878
S'by'
p5879
tp5880
F0.0003968253968253968
s(S'[[num]]'
p5881
S'brothers'
p5882
S'[[con]]'
p5883
tp5884
F0.0003968253968253968
s(S'[[con]]'
p5885
S'met'
p5886
S'[[adj]]'
p5887
tp5888
F0.0003968253968253968
s(S'also'
p5889
S'called'
p5890
S'[[adj]]'
p5891
tp5892
F0.0003968253968253968
s(S'when'
p5893
S'lost'
p5894
S'[[prp]]'
p5895
tp5896
F0.0003968253968253968
s(S'[[adj]]'
p5897
S'cousin'
p5898
S'of'
p5899
tp5900
F0.0003968253968253968
s(S'[[det]]'
p5901
S'uncle'
p5902
S'[[det]]'
p5903
tp5904
F0.0003968253968253968
s(g1903
g1904
g5105
tp5905
F0.0003968253968253968
s(S'been'
p5906
S'surpassed'
p5907
S'by'
p5908
tp5909
F0.0003968253968253968
s(S'was'
p5910
g5053
g5054
tp5911
F0.0007936507936507937
s(S'that'
p5912
S'make'
p5913
S'up'
p5914
tp5915
F0.0003968253968253968
s(S'been'
p5916
S'killed'
p5917
S'by'
p5918
tp5919
F0.0003968253968253968
s(S'succeeded'
p5920
S'[[prp]]'
p5921
S'halfbrother'
p5922
tp5923
F0.0003968253968253968
s(S'when'
p5924
S'ran'
p5925
S'to'
p5926
tp5927
F0.0003968253968253968
s(S'was'
p5928
S'offered'
p5929
S'[[det]]'
p5930
tp5931
F0.0003968253968253968
s(S'[[adj]]'
p5932
S'son'
p5933
S'in'
p5934
tp5935
F0.0003968253968253968
s(S'passed'
p5936
S'[[con]]'
p5937
S'set'
p5938
tp5939
F0.0003968253968253968
s(S'son'
p5940
S'was'
p5941
S'[[det]]'
p5942
tp5943
F0.0003968253968253968
s(g5937
g5938
S'off'
p5944
tp5945
F0.0003968253968253968
s(S'was'
p5946
S'split'
p5947
S'from'
p5948
tp5949
F0.0003968253968253968
s(S'again'
p5950
S'defeated'
p5951
S'by'
p5952
tp5953
F0.0003968253968253968
s(S'has'
p5954
S'served'
p5955
S'under'
p5956
tp5957
F0.0003968253968253968
s(S'[[det]]'
p5958
S'throne'
p5959
S'from'
p5960
tp5961
F0.0003968253968253968
s(S'[[adj]]'
p5962
S'father'
p5963
S'in'
p5964
tp5965
F0.0003968253968253968
s(g57
S'friend'
p5966
S'[[det]]'
p5967
tp5968
F0.0003968253968253968
s(S'[[prp]]'
p5969
S'cousin'
p5970
S'[[con]]'
p5971
tp5972
F0.0003968253968253968
s(S'[[det]]'
p5973
S'eldest'
p5974
S'surviving'
p5975
tp5976
F0.0003968253968253968
s(S'not'
p5977
S'support'
p5978
S'[[con]]'
p5979
tp5980
F0.0003968253968253968
s(g5338
g5339
S'by'
p5981
tp5982
F0.0003968253968253968
s(S'be'
p5983
S'merged'
p5984
S'with'
p5985
tp5986
F0.0003968253968253968
s(S'were'
p5987
S'killed'
p5988
S'by'
p5989
tp5990
F0.0003968253968253968
s(S'later'
p5991
S'married'
p5992
S'to'
p5993
tp5994
F0.0003968253968253968
s(g57
S'son'
p5995
S'as'
p5996
tp5997
F0.0003968253968253968
s(g3812
g3813
S'son'
p5998
tp5999
F0.0003968253968253968
s(S'by'
p6000
S'[[adj]]'
p6001
S'candidate'
p6002
tp6003
F0.0003968253968253968
s(S'sometimes'
p6004
S'called'
p6005
S'[[det]]'
p6006
tp6007
F0.0003968253968253968
s(S'[[mod]]'
p6008
S'replace'
p6009
S'[[con]]'
p6010
tp6011
F0.0003968253968253968
s(S'brother'
p6012
S'[[con]]'
p6013
S'[[det]]'
p6014
tp6015
F0.0003968253968253968
s(S'[[pro]]'
p6016
S'son'
p6017
S'as'
p6018
tp6019
F0.0003968253968253968
s(S'[[con]]'
p6020
S'ran'
p6021
S'into'
p6022
tp6023
F0.0003968253968253968
s(S'then'
p6024
S'followed'
p6025
S'up'
p6026
tp6027
F0.0003968253968253968
s(S'which'
p6028
S'wrote'
p6029
S'that'
p6030
tp6031
F0.0003968253968253968
s(S'been'
p6032
S'attacked'
p6033
S'by'
p6034
tp6035
F0.0003968253968253968
s(S'now'
p6036
S'married'
p6037
S'to'
p6038
tp6039
F0.0003968253968253968
s(g252
S'role'
p6040
S'of'
p6041
tp6042
F0.002380952380952381
s(S'when'
p6043
S'lost'
p6044
S'to'
p6045
tp6046
F0.0003968253968253968
s(S'was'
p6047
S'married'
p6048
S'[[num]]'
p6049
tp6050
F0.0003968253968253968
s(S'later'
p6051
S'married'
p6052
S'[[det]]'
p6053
tp6054
F0.0003968253968253968
s(g57
S'successor'
p6055
S'as'
p6056
tp6057
F0.0003968253968253968
s(S'was'
p6058
S'killed'
p6059
S'while'
p6060
tp6061
F0.0003968253968253968
s(S'[[prp]]'
p6062
S'mother'
p6063
g57
tp6064
F0.0003968253968253968
s(S'[[det]]'
p6065
S'death'
p6066
S'[[con]]'
p6067
tp6068
F0.0003968253968253968
s(g57
S'brother'
p6069
S'[[pro]]'
p6070
tp6071
F0.0003968253968253968
s(g57
S'uncle'
p6072
S'[[det]]'
p6073
tp6074
F0.0003968253968253968
s(S'[[adj]]'
p6075
S'children'
p6076
S'[[con]]'
p6077
tp6078
F0.0003968253968253968
s(S'to'
p6079
S'replace'
p6080
S'[[pro]]'
p6081
tp6082
F0.0003968253968253968
s(S'later'
p6083
S'wrote'
p6084
S'[[num]]'
p6085
tp6086
F0.0003968253968253968
s(S'[[con]]'
p6087
S'gave'
p6088
S'to'
p6089
tp6090
F0.0003968253968253968
s(S'[[con]]'
p6091
S'wrote'
p6092
S'[[det]]'
p6093
tp6094
F0.0003968253968253968
s(S'never'
p6095
g2135
g2136
tp6096
F0.0003968253968253968
s(S'had'
p6097
S'purchased'
p6098
S'[[det]]'
p6099
tp6100
F0.0003968253968253968
s(S'was'
p6101
S'appointed'
p6102
S'[[det]]'
p6103
tp6104
F0.0003968253968253968
s(S'continued'
p6105
S'when'
p6106
S'was'
p6107
tp6108
F0.0003968253968253968
s(S'who'
p6109
S'served'
p6110
S'under'
p6111
tp6112
F0.0003968253968253968
s(S'was'
p6113
S'called'
p6114
S'by'
p6115
tp6116
F0.0003968253968253968
s(g57
S'daughter'
p6117
S'with'
p6118
tp6119
F0.0003968253968253968
s(S'[[adj]]'
p6120
S'member'
p6121
S'together'
p6122
tp6123
F0.0003968253968253968
s(g4306
g4307
S'merge'
p6124
tp6125
F0.0003968253968253968
s(S'was'
p6126
S'appointed'
p6127
S'as'
p6128
tp6129
F0.0003968253968253968
s(S'also'
p6130
S'served'
p6131
S'twice'
p6132
tp6133
F0.0003968253968253968
s(S'[[con]]'
p6134
S'finished'
p6135
S'second'
p6136
tp6137
F0.0003968253968253968
s(S'had'
p6138
S'finished'
p6139
S'[[det]]'
p6140
tp6141
F0.0003968253968253968
s(S'[[adj]]'
p6142
S'wife'
p6143
S'to'
p6144
tp6145
F0.0003968253968253968
s(S'[[det]]'
p6146
S'election'
p6147
S'to'
p6148
tp6149
F0.0003968253968253968
s(g5811
g5812
S'behind'
p6150
tp6151
F0.0003968253968253968
s(S'is'
p6152
S'named'
p6153
S'as'
p6154
tp6155
F0.0003968253968253968
s(g57
S'death'
p6156
S'in'
p6157
tp6158
F0.0003968253968253968
s(S'was'
p6159
S'acquired'
p6160
S'by'
p6161
tp6162
F0.0011904761904761906
s(S'[[pro]]'
p6163
S'death'
p6164
S'[[con]]'
p6165
tp6166
F0.0003968253968253968
s(S'served'
p6167
g5060
g5061
tp6168
F0.0011904761904761906
s(S'[[adj]]'
p6169
S'figures'
p6170
S'as'
p6171
tp6172
F0.0003968253968253968
s(g3793
S'held'
p6173
S'by'
p6174
tp6175
F0.0003968253968253968
s(S'had'
p6176
S'turned'
p6177
S'on'
p6178
tp6179
F0.0003968253968253968
s(S'[[adj]]'
p6180
S'choice'
p6181
S'of'
p6182
tp6183
F0.0003968253968253968
s(S'[[adj]]'
p6184
S'minister'
p6185
S'[[con]]'
p6186
tp6187
F0.0003968253968253968
s(S'then'
p6188
S'appointed'
p6189
S'[[con]]'
p6190
tp6191
F0.0003968253968253968
s(S'when'
p6192
S'finished'
p6193
S'second'
p6194
tp6195
F0.0003968253968253968
s(S'was'
p6196
g3054
g3055
tp6197
F0.0003968253968253968
s(S'abdicate'
p6198
S'in'
p6199
S'favor'
p6200
tp6201
F0.0003968253968253968
s(S'was'
p6202
S'defeated'
p6203
S'by'
p6204
tp6205
F0.006746031746031746
s(S'being'
p6206
S'appointed'
p6207
S'to'
p6208
tp6209
F0.0003968253968253968
s(S'son'
p6210
S'[[con]]'
p6211
S'crown'
p6212
tp6213
F0.0003968253968253968
s(S'have'
p6214
S'succeeded'
p6215
S'as'
p6216
tp6217
F0.0003968253968253968
s(g57
S'son'
p6218
S'[[det]]'
p6219
tp6220
F0.0003968253968253968
s(S'had'
p6221
S'appointed'
p6222
S'to'
p6223
tp6224
F0.0003968253968253968
s(S'then'
p6225
S'appointed'
p6226
S'by'
p6227
tp6228
F0.0003968253968253968
s(S'[[adj]]'
p6229
S'votes'
p6230
S'for'
p6231
tp6232
F0.0003968253968253968
s(S'[[prp]]'
p6233
S'halfbrother'
p6234
S'[[con]]'
p6235
tp6236
F0.0003968253968253968
s(S'was'
p6237
S'killed'
p6238
S'along'
p6239
tp6240
F0.0003968253968253968
s(S'is'
p6241
S'appointed'
p6242
S'after'
p6243
tp6244
F0.0003968253968253968
s(S'[[det]]'
p6245
S'lead'
p6246
g3084
tp6247
F0.0003968253968253968
s(S'also'
p6248
S'came'
p6249
S'[[adj]]'
p6250
tp6251
F0.0003968253968253968
s(S'[[pro]]'
p6252
S'came'
p6253
S'through'
p6254
tp6255
F0.0003968253968253968
s(S'[[det]]'
p6256
S'son'
p6257
S'later'
p6258
tp6259
F0.0003968253968253968
s(g57
S'office'
p6260
S'[[con]]'
p6261
tp6262
F0.0003968253968253968
s(S'was'
p6263
S'promoted'
p6264
S'[[num]]'
p6265
tp6266
F0.0003968253968253968
s(S'[[det]]'
p6267
S'subsidiary'
p6268
S'of'
p6269
tp6270
F0.0003968253968253968
s(S'had'
p6271
S'met'
p6272
S'[[det]]'
p6273
tp6274
F0.0003968253968253968
s(S'[[num]]'
p6275
S'children'
p6276
S'from'
p6277
tp6278
F0.0003968253968253968
s(S'then'
p6279
S'did'
p6280
S'[[det]]'
p6281
tp6282
F0.0003968253968253968
s(S'[[prp]]'
p6283
S'son'
p6284
S'with'
p6285
tp6286
F0.0003968253968253968
s(g57
S'friends'
p6287
S'[[con]]'
p6288
tp6289
F0.0003968253968253968
s(S'merged'
p6290
S'to'
p6291
S'form'
p6292
tp6293
F0.0007936507936507937
s(S'[[prp]]'
p6294
S'leader'
p6295
S'when'
p6296
tp6297
F0.0003968253968253968
s(S'was'
p6298
S'friend'
p6299
S'of'
p6300
tp6301
F0.0003968253968253968
s(S'has'
p6302
S'served'
p6303
S'to'
p6304
tp6305
F0.0003968253968253968
s(S'died'
p6306
g2083
g2084
tp6307
F0.0011904761904761906
s(g57
S'victory'
p6308
S'over'
p6309
tp6310
F0.0003968253968253968
s(S'[[adj]]'
p6311
S'ref'
p6312
S'[[adj]]'
p6313
tp6314
F0.0003968253968253968
s(S'married'
p6315
g2540
g2541
tp6316
F0.0003968253968253968
s(g3140
g3141
g5559
tp6317
F0.0003968253968253968
s(S'to'
p6318
S'remove'
p6319
S'[[con]]'
p6320
tp6321
F0.0003968253968253968
s(S'was'
p6322
g5734
g5735
tp6323
F0.0003968253968253968
s(S'[[adj]]'
p6324
S'daughter'
p6325
S'[[con]]'
p6326
tp6327
F0.0003968253968253968
s(S'where'
p6328
S'finished'
p6329
S'[[adj]]'
p6330
tp6331
F0.0003968253968253968
s(S'younger'
p6332
S'brother'
p6333
S'of'
p6334
tp6335
F0.0011904761904761906
s(S'be'
p6336
S'replaced'
p6337
S'by'
p6338
tp6339
F0.0003968253968253968
s(g343
g344
S'by'
p6340
tp6341
F0.0007936507936507937
s(S'married'
p6342
S'[[con]]'
p6343
S'[[prp]]'
p6344
tp6345
F0.0011904761904761906
s(S'was'
p6346
S'killed'
p6347
S'as'
p6348
tp6349
F0.0003968253968253968
s(S'[[con]]'
p6350
S'lost'
p6351
S'[[det]]'
p6352
tp6353
F0.0003968253968253968
s(g3533
g3534
S'son'
p6354
tp6355
F0.0003968253968253968
s(S'to'
p6356
g6198
g6199
tp6357
F0.0003968253968253968
s(S'[[adj]]'
p6358
S'friends'
p6359
S'as'
p6360
tp6361
F0.0003968253968253968
s(S'[[prp]]'
p6362
S'father'
p6363
S'[[det]]'
p6364
tp6365
F0.0003968253968253968
s(S'[[con]]'
p6366
S'appointed'
p6367
S'as'
p6368
tp6369
F0.0003968253968253968
s(S'[[adj]]'
p6370
S'role'
p6371
S'on'
p6372
tp6373
F0.0003968253968253968
s(S'[[adj]]'
p6374
S'uncle'
p6375
S'[[det]]'
p6376
tp6377
F0.0003968253968253968
s(S'[[prp]]'
p6378
S'children'
p6379
S'[[con]]'
p6380
tp6381
F0.0003968253968253968
s(S'[[det]]'
p6382
S'daughter'
p6383
S'by'
p6384
tp6385
F0.0003968253968253968
s(S'also'
p6386
S'acted'
p6387
S'at'
p6388
tp6389
F0.0003968253968253968
s(S'also'
p6390
S'took'
p6391
S'over'
p6392
tp6393
F0.0003968253968253968
s(S'was'
p6394
S'brother'
p6395
S'[[con]]'
p6396
tp6397
F0.0003968253968253968
s(S'[[con]]'
p6398
g760
g761
tp6399
F0.0003968253968253968
s(S'to'
p6400
S'serve'
p6401
S'[[con]]'
p6402
tp6403
F0.0003968253968253968
s(S'[[adj]]'
p6404
S'friends'
p6405
S'with'
p6406
tp6407
F0.0003968253968253968
s(S'[[prp]]'
p6408
S'brothers'
p6409
S'[[con]]'
p6410
tp6411
F0.0003968253968253968
s(g4050
g4051
S'governor'
p6412
tp6413
F0.0003968253968253968
s(g57
S'office'
p6414
S'where'
p6415
tp6416
F0.0003968253968253968
s(S'retired'
p6417
S'[[con]]'
p6418
S'was'
p6419
tp6420
F0.0007936507936507937
s(S'resigned'
p6421
S'[[con]]'
p6422
S'was'
p6423
tp6424
F0.0015873015873015873
s(S'[[adj]]'
p6425
S'member'
p6426
S'to'
p6427
tp6428
F0.0003968253968253968
s(S'was'
p6429
S'reorganized'
p6430
S'as'
p6431
tp6432
F0.0003968253968253968
s(S'then'
p6433
S'defeated'
p6434
S'by'
p6435
tp6436
F0.0003968253968253968
s(S'be'
p6437
S'replaced'
p6438
S'as'
p6439
tp6440
F0.0003968253968253968
s(S'[[det]]'
p6441
S'throne'
p6442
S'to'
p6443
tp6444
F0.0007936507936507937
s(S'had'
p6445
S'murdered'
p6446
S'[[det]]'
p6447
tp6448
F0.0003968253968253968
s(S'[[det]]'
p6449
S'seat'
p6450
S'by'
p6451
tp6452
F0.0003968253968253968
s(S'was'
p6453
S'promoted'
p6454
S'[[con]]'
p6455
tp6456
F0.0003968253968253968
s(g1233
S'[[det]]'
p6457
S'constituent'
p6458
tp6459
F0.0003968253968253968
s(S'[[adj]]'
p6460
S'minister'
p6461
S'who'
p6462
tp6463
F0.0003968253968253968
s(S'[[prp]]'
p6464
S'daughter'
p6465
S'[[det]]'
p6466
tp6467
F0.0003968253968253968
s(S'to'
p6468
S'serve'
p6469
S'under'
p6470
tp6471
F0.0003968253968253968
s(S'defeated'
p6472
S'by'
p6473
S'candidate'
p6474
tp6475
F0.0011904761904761906
s(S'formerly'
p6476
S'served'
p6477
S'as'
p6478
tp6479
F0.0003968253968253968
s(S'[[con]]'
p6480
S'lost'
p6481
S'out'
p6482
tp6483
F0.0003968253968253968
s(S'became'
p6484
S'member'
p6485
S'[[det]]'
p6486
tp6487
F0.0003968253968253968
s(S'was'
p6488
S'promoted'
p6489
S'when'
p6490
tp6491
F0.0003968253968253968
s(S'was'
p6492
S'brother'
p6493
S'of'
p6494
tp6495
F0.0003968253968253968
s(S'[[det]]'
p6496
S'cousin'
p6497
S'to'
p6498
tp6499
F0.0003968253968253968
s(S'also'
p6500
S'named'
p6501
S'[[adj]]'
p6502
tp6503
F0.0003968253968253968
s(S'been'
p6504
S'called'
p6505
S'[[det]]'
p6506
tp6507
F0.0003968253968253968
s(S'was'
p6508
S'merged'
p6509
S'with'
p6510
tp6511
F0.0003968253968253968
s(S'took'
p6512
g5601
g4897
tp6513
F0.0007936507936507937
s(S'is'
p6514
S'named'
p6515
S'with'
p6516
tp6517
F0.0003968253968253968
s(S'best'
p6518
S'friend'
p6519
S'[[con]]'
p6520
tp6521
F0.0003968253968253968
s(S'[[adj]]'
p6522
S'halfbrother'
p6523
S'of'
p6524
tp6525
F0.0003968253968253968
s(S'has'
p6526
S'named'
p6527
S'as'
p6528
tp6529
F0.0003968253968253968
s(S'have'
p6530
S'remained'
p6531
S'with'
p6532
tp6533
F0.0003968253968253968
s(S'was'
p6534
S'defeated'
p6535
S'for'
p6536
tp6537
F0.0003968253968253968
s(S'[[det]]'
p6538
S'successor'
p6539
S'to'
p6540
tp6541
F0.0003968253968253968
s(S'[[adj]]'
p6542
S'son'
p6543
S'[[con]]'
p6544
tp6545
F0.002380952380952381
s(S'[[adj]]'
p6546
S'son'
p6547
S'later'
p6548
tp6549
F0.0003968253968253968
s(S'was'
p6550
S'appointed'
p6551
S'after'
p6552
tp6553
F0.0003968253968253968
s(S'[[det]]'
p6554
S'office'
p6555
S'of'
p6556
tp6557
F0.0003968253968253968
s(g5117
g1502
g1503
tp6558
F0.0007936507936507937
s(g57
S'wife'
p6559
S'in'
p6560
tp6561
F0.0003968253968253968
s(S'be'
p6562
S'named'
p6563
S'[[det]]'
p6564
tp6565
F0.0003968253968253968
s(S'[[num]]'
p6566
S'votes'
p6567
S'to'
p6568
tp6569
F0.0003968253968253968
s(S'be'
p6570
S'merged'
p6571
S'into'
p6572
tp6573
F0.0003968253968253968
s(S'[[adj]]'
p6574
S'called'
p6575
S'with'
p6576
tp6577
F0.0003968253968253968
s(S'[[det]]'
p6578
S'role'
p6579
S'in'
p6580
tp6581
F0.0003968253968253968
s(g57
S'son'
p6582
S'by'
p6583
tp6584
F0.0003968253968253968
s(g4430
g4431
S'replaced'
p6585
tp6586
F0.0003968253968253968
s(g1232
g1233
g6457
tp6587
F0.0003968253968253968
s(S'was'
p6588
S'announced'
p6589
S'[[con]]'
p6590
tp6591
F0.0003968253968253968
s(g57
S'appointment'
p6592
S'as'
p6593
tp6594
F0.0003968253968253968
s(S'[[adj]]'
p6595
S'brothers'
p6596
S'[[num]]'
p6597
tp6598
F0.0003968253968253968
s(S'was'
p6599
S'appointed'
p6600
S'where'
p6601
tp6602
F0.0003968253968253968
s(g1503
g1504
S'defeated'
p6603
tp6604
F0.0011904761904761906
s(g5002
g5003
S'brother'
p6605
tp6606
F0.0003968253968253968
s(S'later'
p6607
S'lost'
p6608
S'to'
p6609
tp6610
F0.0003968253968253968
s(S'[[det]]'
p6611
S'friend'
p6612
S'as'
p6613
tp6614
F0.0003968253968253968
s(S'[[mod]]'
p6615
S'make'
p6616
S'[[det]]'
p6617
tp6618
F0.0003968253968253968
s(S'[[num]]'
p6619
S'children'
p6620
S'[[det]]'
p6621
tp6622
F0.0003968253968253968
s(S'[[det]]'
p6623
S'friend'
p6624
S'of'
p6625
tp6626
F0.0003968253968253968
s(S'was'
p6627
S'sold'
p6628
S'[[con]]'
p6629
tp6630
F0.0003968253968253968
s(g654
g655
S'succeeded'
p6631
tp6632
F0.0003968253968253968
s(S'be'
p6633
S'named'
p6634
S'for'
p6635
tp6636
F0.0003968253968253968
s(S'was'
p6637
S'defeated'
p6638
S'[[num]]'
p6639
tp6640
F0.0003968253968253968
s(S'what'
p6641
S'thought'
p6642
S'was'
p6643
tp6644
F0.0003968253968253968
s(S'were'
p6645
S'chosen'
p6646
S'to'
p6647
tp6648
F0.0003968253968253968
s(S'[[prp]]'
p6649
S'eldest'
p6650
S'surviving'
p6651
tp6652
F0.0003968253968253968
s(S'had'
p6653
S'merged'
p6654
S'with'
p6655
tp6656
F0.0003968253968253968
s(S'was'
p6657
S'named'
p6658
S'as'
p6659
tp6660
F0.0003968253968253968
s(g3085
g3086
S'of'
p6661
tp6662
F0.0003968253968253968
s(S'been'
p6663
S'ordered'
p6664
S'by'
p6665
tp6666
F0.0003968253968253968
s(S'[[con]]'
p6667
S'served'
p6668
S'where'
p6669
tp6670
F0.0003968253968253968
s(g6211
g6212
S'prince'
p6671
tp6672
F0.0003968253968253968
s(S'were'
p6673
S'acquired'
p6674
S'by'
p6675
tp6676
F0.0003968253968253968
s(S'also'
p6677
S'commented'
p6678
S'on'
p6679
tp6680
F0.0003968253968253968
s(S'[[con]]'
p6681
S'defeated'
p6682
S'with'
p6683
tp6684
F0.0003968253968253968
s(S'[[det]]'
p6685
S'brothers'
p6686
S'[[con]]'
p6687
tp6688
F0.0003968253968253968
s(S'was'
p6689
S'appointed'
p6690
S'by'
p6691
tp6692
F0.0003968253968253968
s(S'[[adj]]'
p6693
S'role'
p6694
S'of'
p6695
tp6696
F0.0003968253968253968
s(S'to'
p6697
S'form'
p6698
S'[[num]]'
p6699
tp6700
F0.0003968253968253968
s(g57
S'death'
p6701
S'by'
p6702
tp6703
F0.0003968253968253968
s(S'later'
p6704
S'came'
p6705
S'with'
p6706
tp6707
F0.0003968253968253968
s(S'being'
p6708
S'killed'
p6709
S'by'
p6710
tp6711
F0.0003968253968253968
s(g3904
g3905
S'son'
p6712
tp6713
F0.0003968253968253968
s(S'later'
p6714
S'commented'
p6715
S'that'
p6716
tp6717
F0.0003968253968253968
s(S'has'
p6718
S'served'
p6719
S'by'
p6720
tp6721
F0.0003968253968253968
s(S'[[con]]'
p6722
g2301
g2302
tp6723
F0.0003968253968253968
s(S'was'
p6724
S'promoted'
p6725
S'[[det]]'
p6726
tp6727
F0.0003968253968253968
s(g4216
g4217
S'succeeded'
p6728
tp6729
F0.0007936507936507937
s(S'only'
p6730
S'son'
p6731
S'of'
p6732
tp6733
F0.0003968253968253968
s(S'[[adj]]'
p6734
S'brothers'
p6735
S'[[det]]'
p6736
tp6737
F0.0003968253968253968
s(S'[[adj]]'
p6738
S'election'
p6739
S'for'
p6740
tp6741
F0.0003968253968253968
s(g4220
g4221
S'over'
p6742
tp6743
F0.0003968253968253968
s(g57
S'successor'
p6744
S'in'
p6745
tp6746
F0.0003968253968253968
s(S'later'
p6747
S'followed'
p6748
S'by'
p6749
tp6750
F0.0003968253968253968
s(S'also'
p6751
S'commented'
p6752
S'to'
p6753
tp6754
F0.0003968253968253968
s(S'was'
p6755
S'forced'
p6756
S'to'
p6757
tp6758
F0.0007936507936507937
s(S'[[det]]'
p6759
S'support'
p6760
S'of'
p6761
tp6762
F0.0003968253968253968
s(S'also'
p6763
S'gave'
p6764
S'[[adj]]'
p6765
tp6766
F0.0003968253968253968
s(S'[[con]]'
p6767
S'defeated'
p6768
S'after'
p6769
tp6770
F0.0003968253968253968
s(g57
S'daughter'
p6771
S'[[det]]'
p6772
tp6773
F0.0003968253968253968
s(S'threw'
p6774
g5810
g5811
tp6775
F0.0003968253968253968
s(S'was'
p6776
S'overthrown'
p6777
S'[[con]]'
p6778
tp6779
F0.0003968253968253968
s(g57
S'son'
p6780
S'[[adj]]'
p6781
tp6782
F0.0003968253968253968
s(S'announced'
p6783
S'[[mod]]'
p6784
S'merge'
p6785
tp6786
F0.0003968253968253968
s(g5941
g5942
S'father'
p6787
tp6788
F0.0003968253968253968
s(S'played'
p6789
g4031
g254
tp6790
F0.0003968253968253968
s(S'what'
p6791
S'called'
p6792
S'[[det]]'
p6793
tp6794
F0.0003968253968253968
s(S'also'
p6795
S'changed'
p6796
S'[[prp]]'
p6797
tp6798
F0.0003968253968253968
s(S'to'
p6799
S'form'
p6800
S'of'
p6801
tp6802
F0.0003968253968253968
s(S'was'
p6803
S'declared'
p6804
S'[[det]]'
p6805
tp6806
F0.0003968253968253968
s(S'then'
p6807
S'attacked'
p6808
S'by'
p6809
tp6810
F0.0003968253968253968
s(S'[[con]]'
p6811
S'named'
p6812
S'as'
p6813
tp6814
F0.0003968253968253968
s(S'[[con]]'
p6815
S'killed'
p6816
S'[[det]]'
p6817
tp6818
F0.0003968253968253968
s(S'also'
p6819
S'appointed'
p6820
S'by'
p6821
tp6822
F0.0003968253968253968
s(S'[[det]]'
p6823
S'role'
p6824
S'to'
p6825
tp6826
F0.0003968253968253968
s(S'then'
p6827
S'resigned'
p6828
S'as'
p6829
tp6830
F0.0003968253968253968
s(S'then'
p6831
S'came'
p6832
S'out'
p6833
tp6834
F0.0003968253968253968
s(S'[[adj]]'
p6835
S'friend'
p6836
S'[[con]]'
p6837
tp6838
F0.0003968253968253968
s(S'was'
p6839
g2906
g2907
tp6840
F0.0003968253968253968
s(S'then'
p6841
S'called'
p6842
S'as'
p6843
tp6844
F0.0003968253968253968
s(S'[[det]]'
p6845
S'favor'
p6846
S'of'
p6847
tp6848
F0.0003968253968253968
s(g3792
g3793
g6173
tp6849
F0.0003968253968253968
s(S'[[det]]'
p6850
S'member'
p6851
S'[[prp]]'
p6852
tp6853
F0.0003968253968253968
s(S'[[con]]'
p6854
S'called'
p6855
S'[[det]]'
p6856
tp6857
F0.0003968253968253968
s(S'later'
p6858
S'appointed'
p6859
S'of'
p6860
tp6861
F0.0003968253968253968
s(S'[[det]]'
p6862
S'face'
p6863
S'[[con]]'
p6864
tp6865
F0.0003968253968253968
s(S'is'
p6866
S'returned'
p6867
S'to'
p6868
tp6869
F0.0003968253968253968
s(g57
S'wife'
p6870
S'with'
p6871
tp6872
F0.0003968253968253968
s(g57
S'son'
p6873
S'who'
p6874
tp6875
F0.0003968253968253968
s(S'later'
p6876
S'named'
p6877
S'of'
p6878
tp6879
F0.0003968253968253968
s(S'also'
p6880
S'served'
p6881
S'against'
p6882
tp6883
F0.0003968253968253968
s(S'[[adj]]'
p6884
S'friends'
p6885
S'to'
p6886
tp6887
F0.0003968253968253968
s(S'was'
p6888
S'appointed'
p6889
S'[[adj]]'
p6890
tp6891
F0.0003968253968253968
s(S'[[adj]]'
p6892
S'married'
p6893
S'on'
p6894
tp6895
F0.0003968253968253968
s(S'[[prp]]'
p6896
S'brother'
p6897
S'to'
p6898
tp6899
F0.0003968253968253968
s(S'also'
p6900
S'acted'
p6901
S'by'
p6902
tp6903
F0.0003968253968253968
s(S'also'
p6904
S'serve'
p6905
S'as'
p6906
tp6907
F0.0003968253968253968
s(g2605
g3312
S'with'
p6908
tp6909
F0.0007936507936507937
s(g57
S'successor'
p6910
S'[[con]]'
p6911
tp6912
F0.0003968253968253968
s(S'[[adj]]'
p6913
g4004
g4005
tp6914
F0.0003968253968253968
s(S'was'
p6915
S'friends'
p6916
S'with'
p6917
tp6918
F0.0003968253968253968
s(S'[[num]]'
p6919
S'ref'
p6920
S'ref'
p6921
tp6922
F0.0003968253968253968
s(S'[[adj]]'
p6923
S'mother'
p6924
S'to'
p6925
tp6926
F0.0003968253968253968
s(S'[[mod]]'
p6927
S'replace'
p6928
S'[[det]]'
p6929
tp6930
F0.0003968253968253968
s(g57
S'uncle'
p6931
S'who'
p6932
tp6933
F0.0003968253968253968
s(g2363
g1902
g1903
tp6934
F0.0003968253968253968
s(S'was'
p6935
S'renamed'
p6936
S'as'
p6937
tp6938
F0.0003968253968253968
s(S'[[con]]'
p6939
S'replaced'
p6940
S'by'
p6941
tp6942
F0.0007936507936507937
s(S'[[con]]'
p6943
S'mother'
p6944
S'of'
p6945
tp6946
F0.0003968253968253968
s(S'was'
p6947
S'called'
p6948
S'[[con]]'
p6949
tp6950
F0.0003968253968253968
s(S'was'
p6951
S'announced'
p6952
S'as'
p6953
tp6954
F0.0003968253968253968
s(S'carried'
p6955
g4219
g4220
tp6956
F0.0003968253968253968
s(S'[[con]]'
p6957
S'succeeded'
p6958
S'[[pro]]'
p6959
tp6960
F0.0003968253968253968
s(S'[[adj]]'
p6961
S'son'
p6962
S'[[pro]]'
p6963
tp6964
F0.0003968253968253968
s(S'[[adj]]'
p6965
S'friend'
p6966
S'was'
p6967
tp6968
F0.0003968253968253968
s(S'[[prp]]'
p6969
S'brother'
p6970
S'[[con]]'
p6971
tp6972
F0.0003968253968253968
s(S'replaced'
p6973
S'[[det]]'
p6974
S'retired'
p6975
tp6976
F0.0003968253968253968
s(S'was'
p6977
S'slain'
p6978
S'by'
p6979
tp6980
F0.0003968253968253968
s(S'became'
p6981
S'emperor'
p6982
S'as'
p6983
tp6984
F0.0003968253968253968
s(g57
S'support'
p6985
S'for'
p6986
tp6987
F0.0003968253968253968
s(g4955
g985
g986
tp6988
F0.0003968253968253968
s(S'as'
p6989
S'did'
p6990
S'[[det]]'
p6991
tp6992
F0.0003968253968253968
s(S'[[pro]]'
p6993
S'relationship'
p6994
S'with'
p6995
tp6996
F0.0003968253968253968
s(g4467
g4891
S'defeated'
p6997
tp6998
F0.0003968253968253968
s(S'[[det]]'
p6999
S'resignation'
p7000
S'of'
p7001
tp7002
F0.0003968253968253968
s(S'[[con]]'
p7003
S'acted'
p7004
S'as'
p7005
tp7006
F0.0003968253968253968
s(S'first'
p7007
S'appointed'
p7008
S'when'
p7009
tp7010
F0.0003968253968253968
s(S'[[adj]]'
p7011
S'friend'
p7012
S'in'
p7013
tp7014
F0.0003968253968253968
s(S'then'
p7015
S'changed'
p7016
S'[[prp]]'
p7017
tp7018
F0.0003968253968253968
s(S'also'
p7019
S'opposed'
p7020
S'[[det]]'
p7021
tp7022
F0.0003968253968253968
s(S'[[det]]'
p7023
S'member'
p7024
S'while'
p7025
tp7026
F0.0003968253968253968
s(S'to'
p7027
S'make'
p7028
S'[[adj]]'
p7029
tp7030
F0.0003968253968253968
s(S'was'
p7031
S'accused'
p7032
S'of'
p7033
tp7034
F0.0003968253968253968
s(g3942
g3943
S'for'
p7035
tp7036
F0.0007936507936507937
s(S'was'
p7037
S'accompanied'
p7038
S'[[con]]'
p7039
tp7040
F0.0003968253968253968
s(g57
S'cousin'
p7041
S'[[con]]'
p7042
tp7043
F0.0003968253968253968
s(S'had'
p7044
S'lost'
p7045
S'to'
p7046
tp7047
F0.0003968253968253968
s(S'was'
p7048
S'defeated'
p7049
S'[[con]]'
p7050
tp7051
F0.0003968253968253968
s(S'[[prp]]'
p7052
S'daughter'
p7053
S'[[adj]]'
p7054
tp7055
F0.0003968253968253968
s(S'had'
p7056
S'appointed'
p7057
S'[[det]]'
p7058
tp7059
F0.0003968253968253968
s(S'been'
p7060
S'chosen'
p7061
S'by'
p7062
tp7063
F0.0003968253968253968
s(S'[[det]]'
p7064
S'elder'
p7065
S'[[con]]'
p7066
tp7067
F0.0003968253968253968
s(S'died'
p7068
g6398
g760
tp7069
F0.0003968253968253968
s(S'to'
p7070
S'support'
p7071
S'[[con]]'
p7072
tp7073
F0.0003968253968253968
s(S'defeated'
p7074
g6000
g6001
tp7075
F0.0003968253968253968
s(S'[[det]]'
p7076
S'relationship'
p7077
S'[[con]]'
p7078
tp7079
F0.0003968253968253968
s(S'[[mod]]'
p7080
S'face'
p7081
S'off'
p7082
tp7083
F0.0003968253968253968
s(S'is'
p7084
S'appointed'
p7085
S'as'
p7086
tp7087
F0.0003968253968253968
s(S'who'
p7088
S'lost'
p7089
S'to'
p7090
tp7091
F0.0003968253968253968
s(S'[[det]]'
p7092
S'ally'
p7093
S'in'
p7094
tp7095
F0.0003968253968253968
s(S'was'
p7096
S'assassinated'
p7097
S'by'
p7098
tp7099
F0.0003968253968253968
s(S'is'
p7100
S'ordered'
p7101
S'by'
p7102
tp7103
F0.0003968253968253968
s(S'is'
p7104
S'named'
p7105
S'[[con]]'
p7106
tp7107
F0.0003968253968253968
s(S'were'
p7108
S'appointed'
p7109
S'by'
p7110
tp7111
F0.0003968253968253968
s(g4101
g4102
S'was'
p7112
tp7113
F0.0003968253968253968
s(S'[[con]]'
p7114
S'wrote'
p7115
S'for'
p7116
tp7117
F0.0003968253968253968
s(S'[[adj]]'
p7118
S'election'
p7119
S'[[con]]'
p7120
tp7121
F0.0003968253968253968
s(S'is'
p7122
S'named'
p7123
S'to'
p7124
tp7125
F0.0003968253968253968
s(S'[[con]]'
p7126
S'wrote'
p7127
S'to'
p7128
tp7129
F0.0003968253968253968
s(S'lost'
p7130
g4147
g4148
tp7131
F0.002380952380952381
s(g3950
g2426
g2427
tp7132
F0.0003968253968253968
s(g5457
g5458
S'son'
p7133
tp7134
F0.0003968253968253968
s(S'be'
p7135
S'crowned'
p7136
S'by'
p7137
tp7138
F0.0003968253968253968
s(S'succeeded'
p7139
g1961
g1962
tp7140
F0.0003968253968253968
s(S'[[det]]'
p7141
S'member'
p7142
S'after'
p7143
tp7144
F0.0003968253968253968
s(S'[[det]]'
p7145
S'supporter'
p7146
S'[[con]]'
p7147
tp7148
F0.0003968253968253968
s(S'was'
p7149
S'returned'
p7150
S'as'
p7151
tp7152
F0.0003968253968253968
s(S'later'
p7153
S'merged'
p7154
S'[[con]]'
p7155
tp7156
F0.0003968253968253968
s(S'later'
p7157
S'appointed'
p7158
S'[[det]]'
p7159
tp7160
F0.0003968253968253968
s(g57
S'daughter'
p7161
S'to'
p7162
tp7163
F0.0003968253968253968
s(S'also'
p7164
S'served'
p7165
S'along'
p7166
tp7167
F0.0003968253968253968
s(g4178
g4179
S'father'
p7168
tp7169
F0.0003968253968253968
s(S'also'
p7170
S'served'
p7171
S'[[num]]'
p7172
tp7173
F0.0003968253968253968
s(S'to'
p7174
S'replace'
p7175
S'who'
p7176
tp7177
F0.0003968253968253968
s(S'is'
p7178
S'father'
p7179
S'[[con]]'
p7180
tp7181
F0.0003968253968253968
s(S'died'
p7182
S'[[num]]'
p7183
S'[[adj]]'
p7184
tp7185
F0.0003968253968253968
s(S'then'
p7186
S'took'
p7187
S'over'
p7188
tp7189
F0.0003968253968253968
s(S'[[det]]'
p7190
S'relationship'
p7191
S'with'
p7192
tp7193
F0.0003968253968253968
s(g1025
g1026
S'of'
p7194
tp7195
F0.0007936507936507937
s(S'also'
p7196
S'thought'
p7197
S'that'
p7198
tp7199
F0.0003968253968253968
s(S'is'
p7200
S'replaced'
p7201
S'by'
p7202
tp7203
F0.0007936507936507937
s(S'also'
p7204
S'supported'
p7205
S'against'
p7206
tp7207
F0.0003968253968253968
s(S'to'
p7208
S'form'
p7209
S'in'
p7210
tp7211
F0.0003968253968253968
s(S'was'
p7212
S'killed'
p7213
S'with'
p7214
tp7215
F0.0003968253968253968
s(S'died'
p7216
S'[[num]]'
p7217
S'succeeded'
p7218
tp7219
F0.0003968253968253968
s(g57
S'wife'
p7220
S'as'
p7221
tp7222
F0.0003968253968253968
s(S'[[num]]'
p7223
g424
g425
tp7224
F0.0003968253968253968
s(g387
g388
S'succeeded'
p7225
tp7226
F0.0003968253968253968
s(S'[[num]]'
p7227
S'ref'
p7228
S'[[det]]'
p7229
tp7230
F0.0003968253968253968
s(S'[[adj]]'
p7231
S'minister'
p7232
S'under'
p7233
tp7234
F0.0003968253968253968
s(S'was'
p7235
S'called'
p7236
S'of'
p7237
tp7238
F0.0003968253968253968
s(g4693
g4694
S'sons'
p7239
tp7240
F0.0003968253968253968
s(S'[[num]]'
p7241
S'children'
p7242
S'by'
p7243
tp7244
F0.0003968253968253968
s(S'[[det]]'
p7245
S'government'
p7246
S'of'
p7247
tp7248
F0.0003968253968253968
s(S'is'
p7249
S'defeated'
p7250
S'by'
p7251
tp7252
F0.0003968253968253968
s(g2734
g2735
S'[[det]]'
p7253
tp7254
F0.0003968253968253968
s(S'[[prp]]'
p7255
S'father'
p7256
S'[[con]]'
p7257
tp7258
F0.0003968253968253968
s(S'to'
p7259
S'replace'
p7260
S'[[con]]'
p7261
tp7262
F0.0003968253968253968
s(S'[[det]]'
p7263
S'role'
p7264
S'[[adj]]'
p7265
tp7266
F0.0007936507936507937
s(g57
S'death'
p7267
S'as'
p7268
tp7269
F0.0003968253968253968
s(g57
S'brother'
p7270
S'[[con]]'
p7271
tp7272
F0.0007936507936507937
s(S'[[adj]]'
p7273
S'eldest'
p7274
S'son'
p7275
tp7276
F0.0007936507936507937
s(S'by'
p7277
S'[[prp]]'
p7278
S'sons'
p7279
tp7280
F0.0007936507936507937
s(g986
g987
S'by'
p7281
tp7282
F0.0003968253968253968
s(S'been'
p7283
S'murdered'
p7284
S'by'
p7285
tp7286
F0.0003968253968253968
s(S'[[adj]]'
p7287
S'administration'
p7288
S'of'
p7289
tp7290
F0.0003968253968253968
s(g886
g887
S'[[adj]]'
p7291
tp7292
F0.0003968253968253968
s(S'succeeded'
p7293
S'by'
p7294
S'brother'
p7295
tp7296
F0.0007936507936507937
s(S'also'
p7297
S'met'
p7298
S'[[con]]'
p7299
tp7300
F0.0003968253968253968
s(S'was'
p7301
S'supported'
p7302
S'[[con]]'
p7303
tp7304
F0.0003968253968253968
s(S'by'
p7305
g3595
g3596
tp7306
F0.0003968253968253968
s(S'also'
p7307
S'killed'
p7308
S'along'
p7309
tp7310
F0.0003968253968253968
s(g658
g659
S'[[con]]'
p7311
tp7312
F0.0007936507936507937
s(S'is'
p7313
S'daughter'
p7314
S'of'
p7315
tp7316
F0.0003968253968253968
s(S'son'
p7317
S'was'
p7318
S'married'
p7319
tp7320
F0.0003968253968253968
s(S'[[prp]]'
p7321
S'brother'
p7322
S'[[adj]]'
p7323
tp7324
F0.0007936507936507937
s(S'son'
p7325
S'[[con]]'
p7326
S'son'
p7327
tp7328
F0.0003968253968253968
s(S'[[det]]'
p7329
S'father'
p7330
S'was'
p7331
tp7332
F0.0003968253968253968
s(S'was'
p7333
S'named'
p7334
S'with'
p7335
tp7336
F0.0003968253968253968
s(S'[[adj]]'
p7337
S'son'
p7338
S'by'
p7339
tp7340
F0.0003968253968253968
s(S'was'
p7341
S'defeated'
p7342
S'to'
p7343
tp7344
F0.0003968253968253968
s(S'was'
p7345
S'married'
p7346
S'[[det]]'
p7347
tp7348
F0.0003968253968253968
s(S'being'
p7349
S'appointed'
p7350
S'by'
p7351
tp7352
F0.0003968253968253968
s(g57
S'mother'
p7353
S'[[con]]'
p7354
tp7355
F0.0003968253968253968
s(S'also'
p7356
S'named'
p7357
S'[[det]]'
p7358
tp7359
F0.0003968253968253968
s(S'[[det]]'
p7360
S'wife'
p7361
S'to'
p7362
tp7363
F0.0003968253968253968
s(g7183
g7184
S'son'
p7364
tp7365
F0.0003968253968253968
s(S'has'
p7366
S'named'
p7367
S'[[con]]'
p7368
tp7369
F0.0003968253968253968
s(S'had'
p7370
S'met'
p7371
S'while'
p7372
tp7373
F0.0003968253968253968
s(S'played'
p7374
g4339
g3009
tp7375
F0.005158730158730159
s(S'[[adj]]'
p7376
S'figures'
p7377
S'of'
p7378
tp7379
F0.0003968253968253968
s(S'[[det]]'
p7380
g3911
g3912
tp7381
F0.0003968253968253968
s(S'[[adj]]'
p7382
S'sons'
p7383
S'of'
p7384
tp7385
F0.0003968253968253968
s(S'was'
p7386
S'appointed'
p7387
S'before'
p7388
tp7389
F0.0003968253968253968
s(S'who'
p7390
S'gave'
p7391
S'[[prp]]'
p7392
tp7393
F0.0003968253968253968
s(g623
g624
S'candidate'
p7394
tp7395
F0.0007936507936507937
s(S'also'
p7396
S'appointed'
p7397
S'[[det]]'
p7398
tp7399
F0.0003968253968253968
s(g6013
g6014
S'son'
p7400
tp7401
F0.0015873015873015873
s(S'[[con]]'
p7402
S'declared'
p7403
S'that'
p7404
tp7405
F0.0003968253968253968
s(S'[[det]]'
p7406
S'son'
p7407
S'[[pro]]'
p7408
tp7409
F0.0011904761904761906
s(S'[[num]]'
p7410
S'votes'
p7411
S'for'
p7412
tp7413
F0.0003968253968253968
s(S'received'
p7414
S'[[det]]'
p7415
S'votes'
p7416
tp7417
F0.0003968253968253968
s(g6246
g3084
g3085
tp7418
F0.0003968253968253968
s(S'also'
p7419
S'wrote'
p7420
S'by'
p7421
tp7422
F0.0003968253968253968
s(S'[[mod]]'
p7423
S'remain'
p7424
S'as'
p7425
tp7426
F0.0003968253968253968
s(S'been'
p7427
S'promoted'
p7428
S'to'
p7429
tp7430
F0.0003968253968253968
s(g57
S'friend'
p7431
S'from'
p7432
tp7433
F0.0003968253968253968
s(S'was'
p7434
S'split'
p7435
S'into'
p7436
tp7437
F0.0003968253968253968
s(g7217
g7218
S'[[con]]'
p7438
tp7439
F0.0003968253968253968
s(S'[[con]]'
p7440
S'remained'
p7441
S'[[adj]]'
p7442
tp7443
F0.0003968253968253968
s(S'as'
p7444
S'did'
p7445
S'[[con]]'
p7446
tp7447
F0.0003968253968253968
s(S'although'
p7448
S'did'
p7449
S'not'
p7450
tp7451
F0.0003968253968253968
s(S'[[adj]]'
p7452
S'cousin'
p7453
S'[[det]]'
p7454
tp7455
F0.0003968253968253968
s(g57
S'wife'
p7456
S'of'
p7457
tp7458
F0.0003968253968253968
s(S'[[adj]]'
p7459
S'cousin'
p7460
S'[[num]]'
p7461
tp7462
F0.0003968253968253968
s(S'was'
p7463
S'sold'
p7464
S'as'
p7465
tp7466
F0.0003968253968253968
s(S'was'
p7467
S'purchased'
p7468
S'in'
p7469
tp7470
F0.0003968253968253968
s(S'that'
p7471
S'sold'
p7472
S'[[det]]'
p7473
tp7474
F0.0003968253968253968
s(S'instead'
p7475
S'appointed'
p7476
S'as'
p7477
tp7478
F0.0003968253968253968
s(S'then'
p7479
S'turned'
p7480
S'up'
p7481
tp7482
F0.0003968253968253968
s(S'was'
p7483
g2770
g2771
tp7484
F0.0007936507936507937
s(S'[[prp]]'
p7485
S'daughter'
p7486
S'to'
p7487
tp7488
F0.0003968253968253968
s(S'[[adj]]'
p7489
S'relationship'
p7490
S'[[con]]'
p7491
tp7492
F0.0003968253968253968
s.