(dp0
(S'[[det]]'
p1
S'home'
p2
S'for'
p3
tp4
F0.007518796992481203
s(S'home'
p5
S'field'
p6
S'for'
p7
tp8
F0.007518796992481203
s(S'being'
p9
S'used'
p10
S'by'
p11
tp12
F0.007518796992481203
s(S'was'
p13
S'home'
p14
S'of'
p15
tp16
F0.007518796992481203
s(S'football'
p17
S'matches'
p18
S'[[con]]'
p19
tp20
F0.007518796992481203
s(S'[[adj]]'
p21
S'home'
p22
S'[[det]]'
p23
tp24
F0.007518796992481203
s(S'also'
p25
S'home'
p26
S'of'
p27
tp28
F0.007518796992481203
s(S'was'
p29
S'home'
p30
S'to'
p31
tp32
F0.015037593984962405
s(S'[[det]]'
p33
S'used'
p34
S'by'
p35
tp36
F0.007518796992481203
s(S'developed'
p37
S'jointly'
p38
S'by'
p39
tp40
F0.007518796992481203
s(S'was'
p41
S'used'
p42
S'on'
p43
tp44
F0.007518796992481203
s(S'[[det]]'
p45
S'home'
p46
S'ground'
p47
tp48
F0.03007518796992481
s(S'was'
p49
S'shared'
p50
S'between'
p51
tp52
F0.007518796992481203
s(S'[[det]]'
p53
S'home'
p54
S'[[det]]'
p55
tp56
F0.015037593984962405
s(S'primarily'
p57
S'used'
p58
S'[[con]]'
p59
tp60
F0.015037593984962405
s(S'is'
p61
S'shared'
p62
S'by'
p63
tp64
F0.007518796992481203
s(S'for'
p65
g17
g18
tp66
F0.007518796992481203
s(S'home'
p67
S'ground'
p68
S'for'
p69
tp70
F0.007518796992481203
s(S'opened'
p71
S'[[con]]'
p72
S'[[det]]'
p73
tp74
F0.007518796992481203
s(S'as'
p75
S'[[det]]'
p76
S'home'
p77
tp78
F0.022556390977443608
s(S'became'
p79
S'home'
p80
S'to'
p81
tp82
F0.007518796992481203
s(S'still'
p83
S'used'
p84
S'by'
p85
tp86
F0.007518796992481203
s(S'home'
p87
S'to'
p88
S'[[det]]'
p89
tp90
F0.015037593984962405
s(g58
g59
S'[[det]]'
p91
tp92
F0.015037593984962405
s(S'been'
p93
S'used'
p94
S'at'
p95
tp96
F0.007518796992481203
s(S'was'
p97
S'primarily'
p98
S'used'
p99
tp100
F0.007518796992481203
s(S'later'
p101
S'used'
p102
S'by'
p103
tp104
F0.007518796992481203
s(S'home'
p105
S'stadium'
p106
S'for'
p107
tp108
F0.015037593984962405
s(S'be'
p109
S'home'
p110
S'to'
p111
tp112
F0.007518796992481203
s(S'was'
p113
S'owned'
p114
S'by'
p115
tp116
F0.007518796992481203
s(S'used'
p117
S'mostly'
p118
g65
tp119
F0.007518796992481203
s(S'automobile'
p120
S'was'
p121
g37
tp122
F0.007518796992481203
s(S'is'
p123
S'home'
p124
S'to'
p125
tp126
F0.022556390977443608
s(S'[[adj]]'
p127
S'home'
p128
S'[[num]]'
p129
tp130
F0.007518796992481203
s(S'also'
p131
S'owned'
p132
S'by'
p133
tp134
F0.007518796992481203
s(S's'
p135
S'home'
p136
S'of'
p137
tp138
F0.007518796992481203
s(g118
g65
g17
tp139
F0.007518796992481203
s(S'[[con]]'
p140
S'owned'
p141
S'by'
p142
tp143
F0.007518796992481203
s(S'[[det]]'
p144
g120
g121
tp145
F0.007518796992481203
s(S'currently'
p146
S'used'
p147
S'by'
p148
tp149
F0.007518796992481203
s(S'now'
p150
S'owned'
p151
S'by'
p152
tp153
F0.007518796992481203
s(S'formerly'
p154
S'owned'
p155
S'by'
p156
tp157
F0.007518796992481203
s(S'is'
p158
S'owned'
p159
S'[[num]]'
p160
tp161
F0.007518796992481203
s(S'also'
p162
S'used'
p163
S'by'
p164
tp165
F0.007518796992481203
s(S'[[adj]]'
p166
S'home'
p167
S'to'
p168
tp169
F0.007518796992481203
s(S'home'
p170
S'field'
p171
S'of'
p172
tp173
F0.007518796992481203
s(S'then'
p174
S'used'
p175
S'by'
p176
tp177
F0.007518796992481203
s(S'not'
p178
S'used'
p179
S'by'
p180
tp181
F0.007518796992481203
s(S'been'
p182
S'owned'
p183
S'by'
p184
tp185
F0.007518796992481203
s(S'is'
p186
g57
g58
tp187
F0.007518796992481203
s(S'serves'
p188
g75
g76
tp189
F0.022556390977443608
s(S'[[det]]'
p190
S'home'
p191
S'[[con]]'
p192
tp193
F0.007518796992481203
s(S'[[con]]'
p194
S'used'
p195
S'by'
p196
tp197
F0.007518796992481203
s(S'are'
p198
S'owned'
p199
S'by'
p200
tp201
F0.007518796992481203
s(g18
g19
S'[[det]]'
p202
tp203
F0.007518796992481203
s(S'currently'
p204
g117
g118
tp205
F0.007518796992481203
s(g46
g47
S'of'
p206
tp207
F0.015037593984962405
s(S'also'
p208
S'hosted'
p209
S'[[det]]'
p210
tp211
F0.007518796992481203
s(S'home'
p212
S'ground'
p213
S'to'
p214
tp215
F0.007518796992481203
s(S'[[det]]'
p216
S'home'
p217
S'of'
p218
tp219
F0.03759398496240601
s(S'[[det]]'
p220
g105
g106
tp221
F0.03007518796992481
s(S'is'
p222
S'home'
p223
S'[[con]]'
p224
tp225
F0.007518796992481203
s(S'not'
p226
S'owned'
p227
S'by'
p228
tp229
F0.007518796992481203
s(S'is'
p230
S'used'
p231
S'on'
p232
tp233
F0.007518796992481203
s(S'[[det]]'
p234
S'home'
p235
S'to'
p236
tp237
F0.007518796992481203
s(S'was'
p238
S'used'
p239
S'by'
p240
tp241
F0.007518796992481203
s(S'[[det]]'
p242
S'home'
p243
S'when'
p244
tp245
F0.007518796992481203
s(S'been'
p246
S'used'
p247
S'for'
p248
tp249
F0.007518796992481203
s(S'now'
p250
S'used'
p251
S'by'
p252
tp253
F0.007518796992481203
s(S'[[adj]]'
p254
S'home'
p255
S'of'
p256
tp257
F0.015037593984962405
s(S'opened'
p258
S'[[con]]'
p259
S'is'
p260
tp261
F0.007518796992481203
s(S'mainly'
p262
S'used'
p263
S'by'
p264
tp265
F0.007518796992481203
s(S'was'
p266
S'home'
p267
S'[[det]]'
p268
tp269
F0.007518796992481203
s(S'is'
p270
S'home'
p271
S'[[det]]'
p272
tp273
F0.007518796992481203
s(S'was'
p274
S'home'
p275
S'[[con]]'
p276
tp277
F0.007518796992481203
s(S'been'
p278
S'home'
p279
S'to'
p280
tp281
F0.007518796992481203
s(S'was'
p282
S'used'
p283
S'[[con]]'
p284
tp285
F0.007518796992481203
s(S'now'
p286
S'home'
p287
S'to'
p288
tp289
F0.007518796992481203
s(S'be'
p290
S'used'
p291
S'by'
p292
tp293
F0.007518796992481203
s(S'once'
p294
S'used'
p295
S'by'
p296
tp297
F0.007518796992481203
s(S'only'
p298
S'used'
p299
S'by'
p300
tp301
F0.007518796992481203
s(S'been'
p302
S'used'
p303
S'by'
p304
tp305
F0.007518796992481203
s(g259
g260
S'home'
p306
tp307
F0.007518796992481203
s(S'still'
p308
S'owned'
p309
S'by'
p310
tp311
F0.007518796992481203
s(g72
g73
S'home'
p312
tp313
F0.03007518796992481
s(S'is'
p314
S'owned'
p315
S'[[con]]'
p316
tp317
F0.007518796992481203
s(S'[[det]]'
p318
S'owned'
p319
S'by'
p320
tp321
F0.007518796992481203
s(S'home'
p322
S'stadium'
p323
S'of'
p324
tp325
F0.007518796992481203
s(S'be'
p326
S'used'
p327
S'from'
p328
tp329
F0.007518796992481203
s(S'opened'
p330
S'as'
p331
S'[[adj]]'
p332
tp333
F0.007518796992481203
s(S'is'
p334
S'used'
p335
S'by'
p336
tp337
F0.007518796992481203
s(S'[[det]]'
p338
g5
g6
tp339
F0.015037593984962405
s(S'was'
p340
S'used'
p341
S'as'
p342
tp343
F0.007518796992481203
s(S'has'
p344
S'hosted'
p345
S'[[det]]'
p346
tp347
F0.007518796992481203
s(S'currently'
p348
S'home'
p349
S'to'
p350
tp351
F0.007518796992481203
s(S'is'
p352
S'owned'
p353
S'by'
p354
tp355
F0.007518796992481203
s(S'[[det]]'
p356
S'home'
p357
S'arena'
p358
tp359
F0.007518796992481203
s(g88
g89
S'team'
p360
tp361
F0.015037593984962405
s(S'currently'
p362
S'owned'
p363
S'by'
p364
tp365
F0.007518796992481203
s(S'[[adj]]'
p366
S'home'
p367
S'for'
p368
tp369
F0.007518796992481203
s(g331
g332
S'home'
p370
tp371
F0.007518796992481203
s(g121
g37
g38
tp372
F0.007518796992481203
s(S'[[adj]]'
p373
S'match'
p374
S'[[con]]'
p375
tp376
F0.007518796992481203
s(S'also'
p377
S'used'
p378
S'on'
p379
tp380
F0.007518796992481203
s.