(dp0
(S'earned'
p1
S'[[det]]'
p2
S'bachelor'
p3
tp4
F0.010570824524312896
s(S'[[det]]'
p5
S'economics'
p6
S'degree'
p7
tp8
F0.0007047216349541931
s(S'in'
p9
S'where'
p10
S'attended'
p11
tp12
F0.0014094432699083862
s(S'born'
p13
S'[[con]]'
p14
S'received'
p15
tp16
F0.005637773079633545
s(S'also'
p17
S'studied'
p18
S'[[con]]'
p19
tp20
F0.0007047216349541931
s(S'then'
p21
S'earned'
p22
S'from'
p23
tp24
F0.0007047216349541931
s(S'was'
p25
S'transferred'
p26
S'by'
p27
tp28
F0.0007047216349541931
s(S'first'
p29
S'met'
p30
S'in'
p31
tp32
F0.0007047216349541931
s(S'has'
p33
S'taught'
p34
S'as'
p35
tp36
F0.0007047216349541931
s(S'where'
p37
S'attended'
p38
S'[[con]]'
p39
tp40
F0.0007047216349541931
s(S'[[con]]'
p41
S'attended'
p42
S'[[det]]'
p43
tp44
F0.0014094432699083862
s(S'then'
p45
S'studied'
p46
S'[[con]]'
p47
tp48
F0.0007047216349541931
s(S'also'
p49
S'received'
p50
S'[[num]]'
p51
tp52
F0.0007047216349541931
s(S'[[con]]'
p53
S'received'
p54
S'[[det]]'
p55
tp56
F0.012684989429175475
s(S'has'
p57
S'studied'
p58
S'from'
p59
tp60
F0.0007047216349541931
s(S'studied'
p61
S'briefly'
p62
S'at'
p63
tp64
F0.0021141649048625794
s(S'be'
p65
S'transferred'
p66
S'to'
p67
tp68
F0.0007047216349541931
s(S'when'
p69
S'took'
p70
S'over'
p71
tp72
F0.0007047216349541931
s(S'then'
p73
S'graduated'
p74
S'from'
p75
tp76
F0.0007047216349541931
s(S'being'
p77
S'transferred'
p78
S'to'
p79
tp80
F0.0007047216349541931
s(S'earned'
p81
S'[[det]]'
p82
S'law'
p83
tp84
F0.004933051444679351
s(S'had'
p85
S'attended'
p86
S'[[con]]'
p87
tp88
F0.0007047216349541931
s(S'received'
p89
S'[[pro]]'
p90
S'degree'
p91
tp92
F0.0007047216349541931
s(S'earned'
p93
S'[[prp]]'
p94
S'bachelor'
p95
tp96
F0.009866102889358703
s(S'born'
p97
S'attended'
p98
S'[[det]]'
p99
tp100
F0.0007047216349541931
s(S'also'
p101
S'took'
p102
S'[[con]]'
p103
tp104
F0.0007047216349541931
s(S'later'
p105
S'met'
p106
S'in'
p107
tp108
F0.0007047216349541931
s(S'[[prp]]'
p109
S'degree'
p110
S'[[con]]'
p111
tp112
F0.0007047216349541931
s(S'also'
p113
S'attended'
p114
S'now'
p115
tp116
F0.0007047216349541931
s(S'is'
p117
S'taught'
p118
S'at'
p119
tp120
F0.0007047216349541931
s(S'later'
p121
S'studied'
p122
S'at'
p123
tp124
F0.0007047216349541931
s(S'received'
p125
S'[[prp]]'
p126
S'doctorate'
p127
tp128
F0.0007047216349541931
s(S'[[mod]]'
p129
S'study'
p130
S'at'
p131
tp132
F0.0007047216349541931
s(S's'
p133
S'degree'
p134
S'[[det]]'
p135
tp136
F0.0028188865398167725
s(S'was'
p137
S'returned'
p138
S'by'
p139
tp140
F0.0007047216349541931
s(S'earned'
p141
S'[[prp]]'
p142
S'law'
p143
tp144
F0.0035236081747709656
s(S'has'
p145
S'completed'
p146
S'[[det]]'
p147
tp148
F0.0007047216349541931
s(S'then'
p149
S'studied'
p150
S'under'
p151
tp152
F0.0007047216349541931
s(S'[[det]]'
p153
S'degree'
p154
S'as'
p155
tp156
F0.0007047216349541931
s(S'also'
p157
S'completed'
p158
S'at'
p159
tp160
F0.0007047216349541931
s(S'had'
p161
S'studied'
p162
S'under'
p163
tp164
F0.0007047216349541931
s(S'[[con]]'
p165
S'later'
p166
S'attended'
p167
tp168
F0.0007047216349541931
s(S'[[det]]'
p169
S'[[adj]]'
p170
S'science'
p171
tp172
F0.0007047216349541931
s(S'[[det]]'
p173
S'pupil'
p174
S'of'
p175
tp176
F0.0007047216349541931
s(g133
S'[[det]]'
p177
S'law'
p178
tp179
F0.0014094432699083862
s(g133
S'degrees'
p180
S'from'
p181
tp182
F0.004228329809725159
s(S'also'
p183
S'taught'
p184
S'[[det]]'
p185
tp186
F0.0007047216349541931
s(S'where'
p187
S'taught'
p188
S'in'
p189
tp190
F0.0007047216349541931
s(S'born'
p191
S'in'
p192
S'[[con]]'
p193
tp194
F0.0007047216349541931
s(S'also'
p195
S'studied'
p196
S'[[adj]]'
p197
tp198
F0.0007047216349541931
s(S'received'
p199
S'[[det]]'
p200
S'degree'
p201
tp202
F0.013389711064129669
s(S'received'
p203
S'[[prp]]'
p204
S'master'
p205
tp206
F0.0028188865398167725
s(g133
S'degrees'
p207
S'[[con]]'
p208
tp209
F0.0014094432699083862
s(S'then'
p210
S'received'
p211
S'[[det]]'
p212
tp213
F0.0028188865398167725
s(S'again'
p214
S'returned'
p215
S'[[con]]'
p216
tp217
F0.0007047216349541931
s(S'was'
p218
S'returned'
p219
S'[[con]]'
p220
tp221
F0.0007047216349541931
s(S'degree'
p222
S'[[con]]'
p223
S'received'
p224
tp225
F0.0021141649048625794
s(S'who'
p226
S'studied'
p227
S'at'
p228
tp229
F0.0007047216349541931
s(S'also'
p230
S'received'
p231
S'in'
p232
tp233
F0.0007047216349541931
s(g133
S'[[con]]'
p234
S'master'
p235
tp236
F0.006342494714587738
s(S'degree'
p237
S'[[con]]'
p238
S'degree'
p239
tp240
F0.0007047216349541931
s(S'to'
p241
S'study'
p242
S'art'
p243
tp244
F0.0007047216349541931
s(S'[[con]]'
p245
S'took'
p246
S'[[det]]'
p247
tp248
F0.0007047216349541931
s(S'where'
p249
S'studied'
p250
S'under'
p251
tp252
F0.0007047216349541931
s(S'also'
p253
S'earned'
p254
S'from'
p255
tp256
F0.0007047216349541931
s(S'was'
p257
S'returned'
p258
S'in'
p259
tp260
F0.0007047216349541931
s(S'[[con]]'
p261
S'completed'
p262
S'at'
p263
tp264
F0.0007047216349541931
s(S'[[con]]'
p265
S'received'
p266
S'from'
p267
tp268
F0.0028188865398167725
s(S'bachelor'
p269
S'degree'
p270
S'at'
p271
tp272
F0.0007047216349541931
s(S'where'
p273
S'entered'
p274
S'[[det]]'
p275
tp276
F0.0007047216349541931
s(S'later'
p277
S'received'
p278
S'in'
p279
tp280
F0.0007047216349541931
s(S'then'
p281
S'returned'
p282
S'to'
p283
tp284
F0.0007047216349541931
s(S'also'
p285
S'studied'
p286
S'painting'
p287
tp288
F0.0007047216349541931
s(S'later'
p289
S'received'
p290
S'at'
p291
tp292
F0.0007047216349541931
s(S'when'
p293
S'entered'
p294
S'[[det]]'
p295
tp296
F0.0007047216349541931
s(S'have'
p297
S'studied'
p298
S'at'
p299
tp300
F0.0007047216349541931
s(S'has'
p301
S'taught'
p302
S'at'
p303
tp304
F0.0007047216349541931
s(S'so'
p305
S'returned'
p306
S'to'
p307
tp308
F0.0007047216349541931
s(S'[[det]]'
p309
S'received'
p310
S'from'
p311
tp312
F0.0007047216349541931
s(S'[[con]]'
p313
S'[[det]]'
p314
S'degree'
p315
tp316
F0.0007047216349541931
s(S'received'
p317
S'[[det]]'
p318
S'bachelor'
p319
tp320
F0.015503875968992248
s(S'[[det]]'
p321
S'degree'
p322
S'at'
p323
tp324
F0.0014094432699083862
s(S'where'
p325
S'studied'
p326
S'painting'
p327
tp328
F0.0007047216349541931
s(S'also'
p329
S'earned'
p330
S'[[det]]'
p331
tp332
F0.0028188865398167725
s(S'was'
p333
S'graduated'
p334
S'[[con]]'
p335
tp336
F0.0007047216349541931
s(S'later'
p337
S'received'
p338
S'degree'
p339
tp340
F0.0007047216349541931
s(S'also'
p341
S'received'
p342
S'to'
p343
tp344
F0.0007047216349541931
s(S'[[con]]'
p345
S'studied'
p346
S'under'
p347
tp348
F0.0007047216349541931
s(S'had'
p349
S'received'
p350
S'[[det]]'
p351
tp352
F0.0014094432699083862
s(S'who'
p353
S'attended'
p354
S'[[det]]'
p355
tp356
F0.0007047216349541931
s(S'then'
p357
S'returned'
p358
S'at'
p359
tp360
F0.0007047216349541931
s(S'has'
p361
S'taught'
p362
S'[[adj]]'
p363
tp364
F0.0007047216349541931
s(S'degree'
p365
S'in'
p366
S'economics'
p367
tp368
F0.0028188865398167725
s(S'in'
p369
S'[[adj]]'
p370
S'engineering'
p371
tp372
F0.0014094432699083862
s(S'continued'
p373
S'[[prp]]'
p374
S'studies'
p375
tp376
F0.004228329809725159
s(S'then'
p377
S'returned'
p378
S'in'
p379
tp380
F0.0007047216349541931
s(S'was'
p381
S'transferred'
p382
S'to'
p383
tp384
F0.0007047216349541931
s(g374
g375
S'at'
p385
tp386
F0.0028188865398167725
s(S'received'
p387
S'[[det]]'
p388
S'[[prp]]'
p389
tp390
F0.0007047216349541931
s(S'had'
p391
S'studied'
p392
S'with'
p393
tp394
F0.0007047216349541931
s(S'also'
p395
S'studied'
p396
S'under'
p397
tp398
F0.0007047216349541931
s(S'has'
p399
S'studied'
p400
S'with'
p401
tp402
F0.0007047216349541931
s(S'[[det]]'
p403
S'solo'
p404
S'show'
p405
tp406
F0.0007047216349541931
s(S'later'
p407
S'transferred'
p408
S'to'
p409
tp410
F0.0007047216349541931
s(S'then'
p411
S'graduated'
p412
S'at'
p413
tp414
F0.0007047216349541931
s(S'then'
p415
S'studied'
p416
S'with'
p417
tp418
F0.0007047216349541931
s(S'which'
p419
S'returned'
p420
S'to'
p421
tp422
F0.0007047216349541931
s(S'then'
p423
S'received'
p424
S'from'
p425
tp426
F0.0007047216349541931
s(S'has'
p427
S'received'
p428
S'[[det]]'
p429
tp430
F0.0014094432699083862
s(S'then'
p431
S'transferred'
p432
S'[[con]]'
p433
tp434
F0.0007047216349541931
s(S'soon'
p435
S'transferred'
p436
S'to'
p437
tp438
F0.0007047216349541931
s(S'also'
p439
S'received'
p440
S'[[con]]'
p441
tp442
F0.0007047216349541931
s(S'professor'
p443
S'emeritus'
p444
S'prior'
p445
tp446
F0.0007047216349541931
s(S'also'
p447
S'completed'
p448
S'from'
p449
tp450
F0.0007047216349541931
s(S'[[pro]]'
p451
S'[[adj]]'
p452
S'degree'
p453
tp454
F0.0014094432699083862
s(S'[[con]]'
p455
S'continued'
p456
S'[[prp]]'
p457
tp458
F0.0007047216349541931
s(g133
S'[[prp]]'
p459
S'master'
p460
tp461
F0.0007047216349541931
s(S'was'
p462
S'enrolled'
p463
S'in'
p464
tp465
F0.0007047216349541931
s(S'received'
p466
S'degree'
p467
S'in'
p468
tp469
F0.0007047216349541931
s(S'has'
p470
S'received'
p471
S'at'
p472
tp473
F0.0007047216349541931
s(g133
S'degree'
p474
S'from'
p475
tp476
F0.035236081747709654
s(S'first'
p477
S'taught'
p478
S'at'
p479
tp480
F0.0007047216349541931
s(S'also'
p481
S'took'
p482
S'on'
p483
tp484
F0.0007047216349541931
s(g319
g133
g134
tp485
F0.0408738548273432
s(S'who'
p486
S'took'
p487
S'over'
p488
tp489
F0.0007047216349541931
s(S'undergraduate'
p490
S'degree'
p491
S'in'
p492
tp493
F0.0007047216349541931
s(S'bachelor'
p494
g133
S'degrees'
p495
tp496
F0.0007047216349541931
s(S'also'
p497
S'graduated'
p498
S'at'
p499
tp500
F0.0007047216349541931
s(S'had'
p501
S'transferred'
p502
S'from'
p503
tp504
F0.0007047216349541931
s(g133
S'degree'
p505
S'at'
p506
tp507
F0.006342494714587738
s(S'[[prp]]'
p508
S'doctorate'
p509
S'from'
p510
tp511
F0.0007047216349541931
s(S'where'
p512
S'enrolled'
p513
S'in'
p514
tp515
F0.0007047216349541931
s(S'received'
p516
S'[[con]]'
p517
S'[[adj]]'
p518
tp519
F0.0007047216349541931
s(S'[[det]]'
p520
S'associate'
p521
g133
tp522
F0.0014094432699083862
s(S'where'
p523
S'enrolled'
p524
S'at'
p525
tp526
F0.0007047216349541931
s(S'also'
p527
S'graduated'
p528
S'from'
p529
tp530
F0.0007047216349541931
s(S'also'
p531
S'studied'
p532
S'as'
p533
tp534
F0.0007047216349541931
s(S'has'
p535
S'studied'
p536
S'at'
p537
tp538
F0.0007047216349541931
s(S'later'
p539
S'attended'
p540
S'now'
p541
tp542
F0.0007047216349541931
s(S'masters'
p543
S'degree'
p544
S'from'
p545
tp546
F0.0007047216349541931
s(S'where'
p547
S'studied'
p548
S'with'
p549
tp550
F0.0007047216349541931
s(S'[[det]]'
p551
S'[[adj]]'
p552
S'doctorate'
p553
tp554
F0.0007047216349541931
s(S'studied'
p555
S'art'
p556
S'at'
p557
tp558
F0.0007047216349541931
s(S'[[con]]'
p559
S'met'
p560
S'in'
p561
tp562
F0.0007047216349541931
s(S'received'
p563
S'[[det]]'
p564
S'[[con]]'
p565
tp566
F0.0007047216349541931
s(S'then'
p567
S'returned'
p568
S'for'
p569
tp570
F0.0007047216349541931
s(S'[[adj]]'
p571
S'transferred'
p572
S'to'
p573
tp574
F0.0007047216349541931
s(S'[[det]]'
p575
S'law'
p576
S'degree'
p577
tp578
F0.010570824524312896
s(S'also'
p579
S'taught'
p580
S'as'
p581
tp582
F0.0007047216349541931
s(S'where'
p583
S'studied'
p584
S'[[det]]'
p585
tp586
F0.0007047216349541931
s(S'born'
p587
S'in'
p588
S'attended'
p589
tp590
F0.0007047216349541931
s(S'earned'
p591
g5
g6
tp592
F0.0007047216349541931
s(S'was'
p593
S'graduated'
p594
S'in'
p595
tp596
F0.0007047216349541931
s(g6
g7
S'from'
p597
tp598
F0.0007047216349541931
s(S'had'
p599
S'returned'
p600
S'to'
p601
tp602
F0.0007047216349541931
s(S'[[num]]'
p603
S'graduate'
p604
S'of'
p605
tp606
F0.0007047216349541931
s(S'then'
p607
S'taught'
p608
S'at'
p609
tp610
F0.0007047216349541931
s(S'then'
p611
S'received'
p612
S'[[prp]]'
p613
tp614
F0.0014094432699083862
s(S'study'
p615
S'[[adj]]'
p616
S'art'
p617
tp618
F0.0007047216349541931
s(S'later'
p619
S'completed'
p620
S'from'
p621
tp622
F0.0007047216349541931
s(S'[[det]]'
p623
S'[[adj]]'
p624
S'degree'
p625
tp626
F0.004933051444679351
s(g242
g243
S'at'
p627
tp628
F0.0007047216349541931
s(g143
S'degree'
p629
S'at'
p630
tp631
F0.0028188865398167725
s(S'where'
p632
S'attended'
p633
S'[[det]]'
p634
tp635
F0.0021141649048625794
s(S'then'
p636
S'completed'
p637
S'[[prp]]'
p638
tp639
F0.0007047216349541931
s(S'who'
p640
S'took'
p641
S'[[det]]'
p642
tp643
F0.0007047216349541931
s(S'[[adj]]'
p644
S'returned'
p645
S'to'
p646
tp647
F0.0007047216349541931
s(S'never'
p648
S'received'
p649
S'[[det]]'
p650
tp651
F0.0007047216349541931
s(S'before'
p652
S'returned'
p653
S'to'
p654
tp655
F0.0007047216349541931
s(S'also'
p656
S'completed'
p657
S'[[det]]'
p658
tp659
F0.0007047216349541931
s(S'where'
p660
S'received'
p661
S'from'
p662
tp663
F0.0007047216349541931
s(S'first'
p664
S'entered'
p665
S'[[det]]'
p666
tp667
F0.0007047216349541931
s(S'also'
p668
S'enrolled'
p669
S'in'
p670
tp671
F0.0007047216349541931
s(S'also'
p672
S'studied'
p673
S'with'
p674
tp675
F0.0007047216349541931
s(S'first'
p676
S'studied'
p677
S'with'
p678
tp679
F0.0007047216349541931
s(S'began'
p680
S'studying'
p681
S'for'
p682
tp683
F0.0007047216349541931
s(S'bachelor'
p684
S'[[con]]'
p685
S'[[det]]'
p686
tp687
F0.0014094432699083862
s(S'undergraduate'
p688
S'degree'
p689
S'[[con]]'
p690
tp691
F0.0014094432699083862
s(S'[[adj]]'
p692
S'received'
p693
S'from'
p694
tp695
F0.0007047216349541931
s(S'[[con]]'
p696
S'attended'
p697
S'of'
p698
tp699
F0.0007047216349541931
s(S'earned'
p700
S'bachelor'
p701
g133
tp702
F0.0014094432699083862
s(S'since'
p703
S'returned'
p704
S'to'
p705
tp706
F0.0007047216349541931
s(S'[[con]]'
p707
g508
g509
tp708
F0.0007047216349541931
s(S'[[con]]'
p709
S'studied'
p710
S'with'
p711
tp712
F0.0007047216349541931
s(S'also'
p713
S'taught'
p714
S'[[adj]]'
p715
tp716
F0.0007047216349541931
s(S'then'
p717
S'received'
p718
S'in'
p719
tp720
F0.0007047216349541931
s(S'has'
p721
S'studied'
p722
S'under'
p723
tp724
F0.0007047216349541931
s(S'[[con]]'
p725
S'studied'
p726
S'in'
p727
tp728
F0.0007047216349541931
s(S'[[adj]]'
p729
S'degree'
p730
S'from'
p731
tp732
F0.007047216349541931
s(S'[[prp]]'
p733
S'[[adj]]'
p734
S'studies'
p735
tp736
F0.0014094432699083862
s(S'holds'
p737
S'[[det]]'
p738
S'master'
p739
tp740
F0.004933051444679351
s(S'earned'
p741
g520
g521
tp742
F0.0014094432699083862
s(S'who'
p743
S'graduated'
p744
S'at'
p745
tp746
F0.0007047216349541931
s(S'born'
p747
g165
g166
tp748
F0.0007047216349541931
s(S'[[con]]'
p749
S'transferred'
p750
S'to'
p751
tp752
F0.0007047216349541931
s(g686
S'master'
p753
S'from'
p754
tp755
F0.0007047216349541931
s(S'[[adj]]'
p756
S'solo'
p757
S'show'
p758
tp759
F0.0007047216349541931
s(g204
g205
g133
tp760
F0.004933051444679351
s(S'[[adj]]'
p761
S'art'
p762
S'at'
p763
tp764
F0.0014094432699083862
s(S'also'
p765
S'took'
p766
S'over'
p767
tp768
F0.0007047216349541931
s(S'who'
p769
S'graduated'
p770
S'from'
p771
tp772
F0.0007047216349541931
s(S'then'
p773
S'attended'
p774
S'at'
p775
tp776
F0.0007047216349541931
s(S'was'
p777
S'taught'
p778
S'at'
p779
tp780
F0.0007047216349541931
s(S'earned'
p781
S'[[det]]'
p782
S'masters'
p783
tp784
F0.0021141649048625794
s(S'was'
p785
S'transferred'
p786
S'from'
p787
tp788
F0.0007047216349541931
s(S'also'
p789
S'taught'
p790
S'in'
p791
tp792
F0.0007047216349541931
s(g192
g193
S'attended'
p793
tp794
F0.0007047216349541931
s(g133
S'degree'
p795
S'[[con]]'
p796
tp797
F0.011980267794221282
s(S'continued'
p798
S'[[adj]]'
p799
S'studies'
p800
tp801
F0.0007047216349541931
s(S'[[con]]'
p802
S'enrolled'
p803
S'in'
p804
tp805
F0.0007047216349541931
s(S'also'
p806
S'received'
p807
S'[[prp]]'
p808
tp809
F0.0014094432699083862
s(S'[[det]]'
p810
S'studies'
p811
S'in'
p812
tp813
F0.0007047216349541931
s(S'has'
p814
S'graduated'
p815
S'from'
p816
tp817
F0.0007047216349541931
s(S'later'
p818
S'received'
p819
S'[[prp]]'
p820
tp821
F0.0014094432699083862
s(S'graduate'
p822
S'[[con]]'
p823
S'also'
p824
tp825
F0.0007047216349541931
s(S'were'
p826
S'transferred'
p827
S'to'
p828
tp829
F0.0007047216349541931
s(S'studied'
p830
g761
g762
tp831
F0.0007047216349541931
s(S'also'
p832
S'attended'
p833
S'from'
p834
tp835
F0.0007047216349541931
s(g142
g143
g629
tp836
F0.007751937984496124
s(S'had'
p837
S'attended'
p838
S'[[det]]'
p839
tp840
F0.0007047216349541931
s(S'[[con]]'
p841
g737
g738
tp842
F0.0028188865398167725
s(g823
g824
S'holds'
p843
tp844
F0.0007047216349541931
s(S'later'
p845
S'earned'
p846
S'at'
p847
tp848
F0.0007047216349541931
s(S'been'
p849
S'transferred'
p850
S'to'
p851
tp852
F0.0007047216349541931
s(S'received'
p853
g623
g624
tp854
F0.007047216349541931
s(S'have'
p855
S'met'
p856
S'in'
p857
tp858
F0.0007047216349541931
s(S'degree'
p859
S'[[con]]'
p860
S'has'
p861
tp862
F0.0007047216349541931
s(S'[[con]]'
p863
S'taught'
p864
S'in'
p865
tp866
F0.0007047216349541931
s(S'[[det]]'
p867
S'bachelor'
p868
S'from'
p869
tp870
F0.0007047216349541931
s(S'[[prp]]'
p871
S'degree'
p872
S'[[det]]'
p873
tp874
F0.0007047216349541931
s(S'then'
p875
S'studied'
p876
S'[[det]]'
p877
tp878
F0.0007047216349541931
s(S'has'
p879
S'returned'
p880
S'to'
p881
tp882
F0.0007047216349541931
s(S'received'
p883
g575
g576
tp884
F0.0028188865398167725
s(S'[[pro]]'
p885
S'returned'
p886
S'to'
p887
tp888
F0.0007047216349541931
s(S'then'
p889
S'taught'
p890
S'[[con]]'
p891
tp892
F0.0007047216349541931
s(S'then'
p893
S'transferred'
p894
S'as'
p895
tp896
F0.0007047216349541931
s(S'received'
p897
S'[[prp]]'
p898
S'degree'
p899
tp900
F0.007751937984496124
s(S'has'
p901
S'received'
p902
S'[[adj]]'
p903
tp904
F0.0007047216349541931
s(S'[[prp]]'
p905
g688
g689
tp906
F0.004933051444679351
s(S'also'
p907
S'taught'
p908
S'to'
p909
tp910
F0.0007047216349541931
s(S'[[con]]'
p911
S'took'
p912
S'up'
p913
tp914
F0.0007047216349541931
s(S'later'
p915
S'took'
p916
S'[[det]]'
p917
tp918
F0.0007047216349541931
s(S'bachelor'
p919
g133
S'[[prp]]'
p920
tp921
F0.0014094432699083862
s(S'also'
p922
S'holds'
p923
S'[[det]]'
p924
tp925
F0.0021141649048625794
s(S'had'
p926
S'entered'
p927
S'[[det]]'
p928
tp929
F0.0007047216349541931
s(S'then'
p930
S'attended'
p931
S'[[con]]'
p932
tp933
F0.0007047216349541931
s(S'has'
p934
S'completed'
p935
S'at'
p936
tp937
F0.0007047216349541931
s(S'graduated'
p938
S'[[con]]'
p939
S'earned'
p940
tp941
F0.007751937984496124
s(S'which'
p942
S'received'
p943
S'[[det]]'
p944
tp945
F0.0007047216349541931
s(S'attended'
p946
S'[[con]]'
p947
g883
tp948
F0.004933051444679351
s(g445
S'to'
p949
S'had'
p950
tp951
F0.0007047216349541931
s(S'later'
p952
S'taught'
p953
S'at'
p954
tp955
F0.0007047216349541931
s(S'where'
p956
S'took'
p957
S'part'
p958
tp959
F0.0007047216349541931
s(S'[[num]]'
p960
S'returned'
p961
S'to'
p962
tp963
F0.0007047216349541931
s(S'later'
p964
S'studied'
p965
S'[[con]]'
p966
tp967
F0.0007047216349541931
s(S'had'
p968
S'graduated'
p969
S'from'
p970
tp971
F0.0007047216349541931
s(S'[[con]]'
p972
S'holds'
p973
S'degree'
p974
tp975
F0.0007047216349541931
s(S'[[adj]]'
p976
S'degree'
p977
S'in'
p978
tp979
F0.0007047216349541931
s(S'who'
p980
S'studied'
p981
S'with'
p982
tp983
F0.0007047216349541931
s(S'[[adj]]'
p984
S'science'
p985
S'from'
p986
tp987
F0.0014094432699083862
s(S'later'
p988
S'received'
p989
S'[[con]]'
p990
tp991
F0.0007047216349541931
s(S'degree'
p992
g707
g508
tp993
F0.0007047216349541931
s(g171
S'degree'
p994
S'from'
p995
tp996
F0.0007047216349541931
s(S'graduate'
p997
g841
g737
tp998
F0.0021141649048625794
s(S'then'
p999
S'returned'
p1000
S'with'
p1001
tp1002
F0.0007047216349541931
s(S'was'
p1003
S'transferred'
p1004
S'back'
p1005
tp1006
F0.0007047216349541931
s(S'[[adj]]'
p1007
S'study'
p1008
S'at'
p1009
tp1010
F0.0007047216349541931
s(S'also'
p1011
S'attended'
p1012
S'[[det]]'
p1013
tp1014
F0.0007047216349541931
s(S'[[det]]'
p1015
S'returned'
p1016
S'to'
p1017
tp1018
F0.0007047216349541931
s(S'continued'
p1019
g733
g734
tp1020
F0.0014094432699083862
s(S'[[con]]'
p1021
S'[[num]]'
p1022
S'received'
p1023
tp1024
F0.0007047216349541931
s(S'was'
p1025
S'transferred'
p1026
S'as'
p1027
tp1028
F0.0007047216349541931
s(S'then'
p1029
S'earned'
p1030
S'in'
p1031
tp1032
F0.0007047216349541931
s(S'then'
p1033
S'studied'
p1034
S'briefly'
p1035
tp1036
F0.0007047216349541931
s(S'just'
p1037
S'returned'
p1038
S'from'
p1039
tp1040
F0.0007047216349541931
s(S'then'
p1041
S'earned'
p1042
S'at'
p1043
tp1044
F0.0007047216349541931
s(g939
g940
S'[[det]]'
p1045
tp1046
F0.009161381254404511
s(S'where'
p1047
S'taught'
p1048
S'at'
p1049
tp1050
F0.0007047216349541931
s(g576
g577
S'from'
p1051
tp1052
F0.01620859760394644
s(S'received'
p1053
S'[[det]]'
p1054
S'master'
p1055
tp1056
F0.007047216349541931
s(S'graduated'
p1057
S'with'
p1058
S'[[det]]'
p1059
tp1060
F0.0007047216349541931
s(S'first'
p1061
S'studied'
p1062
S'painting'
p1063
tp1064
F0.0007047216349541931
s(S'had'
p1065
S'taught'
p1066
S'at'
p1067
tp1068
F0.0014094432699083862
s(S'[[num]]'
p1069
S'graduate'
p1070
S'[[det]]'
p1071
tp1072
F0.0007047216349541931
s(S'where'
p1073
S'graduated'
p1074
S'from'
p1075
tp1076
F0.0007047216349541931
s(S'degree'
p1077
S'[[con]]'
p1078
S'masters'
p1079
tp1080
F0.0007047216349541931
s(S'also'
p1081
S'studied'
p1082
S'[[det]]'
p1083
tp1084
F0.0007047216349541931
s(S'received'
p1085
S'[[con]]'
p1086
S'degree'
p1087
tp1088
F0.0007047216349541931
s(S'[[det]]'
p1089
S'[[adj]]'
p1090
S'law'
p1091
tp1092
F0.0007047216349541931
s(S'[[con]]'
p1093
S'took'
p1094
S'on'
p1095
tp1096
F0.0007047216349541931
s(g94
g95
g133
tp1097
F0.019027484143763214
s(S'later'
p1098
S'studied'
p1099
S'with'
p1100
tp1101
F0.0007047216349541931
s(S'received'
p1102
S'degree'
p1103
S'[[con]]'
p1104
tp1105
F0.0007047216349541931
s(S'first'
p1106
S'attended'
p1107
S'[[det]]'
p1108
tp1109
F0.0007047216349541931
s(S'has'
p1110
S'taught'
p1111
S'[[con]]'
p1112
tp1113
F0.0007047216349541931
s(S'later'
p1114
S'enrolled'
p1115
S'at'
p1116
tp1117
F0.0007047216349541931
s(S'later'
p1118
S'taught'
p1119
S'[[con]]'
p1120
tp1121
F0.0007047216349541931
s(g796
S'[[det]]'
p1122
S'master'
p1123
tp1124
F0.0035236081747709656
s(S'later'
p1125
S'earned'
p1126
S'[[det]]'
p1127
tp1128
F0.0007047216349541931
s(S'later'
p1129
S'enrolled'
p1130
S'in'
p1131
tp1132
F0.0007047216349541931
s(S'was'
p1133
S'graduated'
p1134
S'now'
p1135
tp1136
F0.0007047216349541931
s(S'[[det]]'
p1137
S'degree'
p1138
S'from'
p1139
tp1140
F0.009866102889358703
s(S'[[con]]'
p1141
S'served'
p1142
S'in'
p1143
tp1144
F0.0007047216349541931
s(S'[[pro]]'
p1145
S'met'
p1146
S'in'
p1147
tp1148
F0.0007047216349541931
s(S'graduated'
p1149
S'[[con]]'
p1150
S'received'
p1151
tp1152
F0.009866102889358703
s(S'was'
p1153
S'transferred'
p1154
S'with'
p1155
tp1156
F0.0007047216349541931
s(S'until'
p1157
S'returned'
p1158
S'to'
p1159
tp1160
F0.0007047216349541931
s(g898
g899
S'from'
p1161
tp1162
F0.004933051444679351
s(S'while'
p1163
S'returned'
p1164
S'to'
p1165
tp1166
F0.0007047216349541931
s(S'[[num]]'
p1167
S'transferred'
p1168
S'to'
p1169
tp1170
F0.0007047216349541931
s(S'to'
p1171
S'study'
p1172
S'[[adj]]'
p1173
tp1174
F0.0014094432699083862
s(S'also'
p1175
S'completed'
p1176
S'in'
p1177
tp1178
F0.0007047216349541931
s(S'[[det]]'
p1179
S'graduate'
p1180
S'in'
p1181
tp1182
F0.0007047216349541931
s(S'earned'
p1183
S'[[prp]]'
p1184
S'degree'
p1185
tp1186
F0.0007047216349541931
s(S'[[con]]'
p1187
S'took'
p1188
S'[[con]]'
p1189
tp1190
F0.0007047216349541931
s(S'[[con]]'
p1191
S'attended'
p1192
S'now'
p1193
tp1194
F0.0007047216349541931
s(S'to'
p1195
S'graduate'
p1196
S'from'
p1197
tp1198
F0.0007047216349541931
s(S'retired'
p1199
g443
g444
tp1200
F0.0007047216349541931
s(S'then'
p1201
S'completed'
p1202
S'[[det]]'
p1203
tp1204
F0.0007047216349541931
s(S'grew'
p1205
S'up'
p1206
S'[[con]]'
p1207
tp1208
F0.0007047216349541931
s(S'was'
p1209
g191
g192
tp1210
F0.0028188865398167725
s(S'[[prp]]'
p1211
g269
g270
tp1212
F0.0014094432699083862
s(S'also'
p1213
S'received'
p1214
S'at'
p1215
tp1216
F0.0007047216349541931
s(S'received'
p1217
S'degree'
p1218
S'from'
p1219
tp1220
F0.0035236081747709656
s(S'has'
p1221
S'studied'
p1222
S'[[con]]'
p1223
tp1224
F0.0007047216349541931
s(S'then'
p1225
S'attended'
p1226
S'[[det]]'
p1227
tp1228
F0.0007047216349541931
s(S'in'
p1229
g984
g985
tp1230
F0.0014094432699083862
s(S'returned'
p1231
S'where'
p1232
S'studied'
p1233
tp1234
F0.0007047216349541931
s(S'[[con]]'
p1235
S'returned'
p1236
S'on'
p1237
tp1238
F0.0007047216349541931
s(g133
S'degree'
p1239
S'with'
p1240
tp1241
F0.0007047216349541931
s(S'has'
p1242
S'received'
p1243
S'[[con]]'
p1244
tp1245
F0.0007047216349541931
s(S'received'
p1246
g313
g314
tp1247
F0.0014094432699083862
s(S'[[det]]'
p1248
S'degree'
p1249
S'[[con]]'
p1250
tp1251
F0.0021141649048625794
s(S'briefly'
p1252
S'studied'
p1253
S'at'
p1254
tp1255
F0.0007047216349541931
s(S'born'
p1256
S'[[con]]'
p1257
S'attended'
p1258
tp1259
F0.004228329809725159
s(S'[[con]]'
p1260
S'earned'
p1261
S'from'
p1262
tp1263
F0.0007047216349541931
s(g1122
g1123
g133
tp1264
F0.026779422128259338
s(g949
g950
S'taught'
p1265
tp1266
F0.0007047216349541931
s(S'again'
p1267
S'returned'
p1268
S'to'
p1269
tp1270
F0.0007047216349541931
s(S'continued'
p1271
g810
g811
tp1272
F0.0007047216349541931
s(S'holds'
p1273
S'[[det]]'
p1274
S'bachelor'
p1275
tp1276
F0.007047216349541931
s(g1206
g1207
S'received'
p1277
tp1278
F0.0007047216349541931
s(S'[[con]]'
p1279
S'took'
p1280
S'[[pro]]'
p1281
tp1282
F0.0007047216349541931
s(S'had'
p1283
S'received'
p1284
S'in'
p1285
tp1286
F0.0007047216349541931
s(S'had'
p1287
S'studied'
p1288
S'at'
p1289
tp1290
F0.0007047216349541931
s(S'[[adj]]'
p1291
S'attended'
p1292
S'at'
p1293
tp1294
F0.0007047216349541931
s(S'[[con]]'
p1295
S'returned'
p1296
S'to'
p1297
tp1298
F0.0007047216349541931
s(S'[[con]]'
p1299
S'received'
p1300
S'degree'
p1301
tp1302
F0.0014094432699083862
s(S'then'
p1303
S'completed'
p1304
S'from'
p1305
tp1306
F0.0007047216349541931
s(S'also'
p1307
S'completed'
p1308
S'[[prp]]'
p1309
tp1310
F0.0007047216349541931
s(S'then'
p1311
S'met'
p1312
S'in'
p1313
tp1314
F0.0007047216349541931
s(g95
g133
g234
tp1315
F0.006342494714587738
s(g1123
g133
g474
tp1316
F0.031007751937984496
s(S'[[con]]'
p1317
S'earned'
p1318
S'degree'
p1319
tp1320
F0.0014094432699083862
s(S'[[con]]'
p1321
S'completed'
p1322
S'from'
p1323
tp1324
F0.0007047216349541931
s(S'had'
p1325
S'earned'
p1326
S'from'
p1327
tp1328
F0.0007047216349541931
s(S'is'
p1329
S'returned'
p1330
S'to'
p1331
tp1332
F0.0007047216349541931
s(S'[[con]]'
p1333
S'received'
p1334
S'[[prp]]'
p1335
tp1336
F0.009866102889358703
s(S'later'
p1337
g373
g374
tp1338
F0.0007047216349541931
s(S'was'
p1339
S'received'
p1340
S'into'
p1341
tp1342
F0.0007047216349541931
s(S'[[num]]'
p1343
S'studied'
p1344
S'at'
p1345
tp1346
F0.0007047216349541931
s(S'[[det]]'
p1347
S'bachelor'
p1348
S'degree'
p1349
tp1350
F0.0021141649048625794
s(g552
g553
S'degree'
p1351
tp1352
F0.0007047216349541931
s(S'attended'
p1353
g1021
g1022
tp1354
F0.0007047216349541931
s(S'has'
p1355
S'taught'
p1356
S'[[det]]'
p1357
tp1358
F0.0007047216349541931
s(g133
S'degree'
p1359
S'[[num]]'
p1360
tp1361
F0.0007047216349541931
s(g133
g920
S'law'
p1362
tp1363
F0.0007047216349541931
s(g1058
g1059
S'bachelor'
p1364
tp1365
F0.0007047216349541931
s(S'studied'
p1366
S'art'
p1367
S'[[con]]'
p1368
tp1369
F0.0007047216349541931
s(g565
S'degree'
p1370
S'from'
p1371
tp1372
F0.0021141649048625794
s(S'recently'
p1373
g1199
g443
tp1374
F0.0007047216349541931
s(S'later'
p1375
S'received'
p1376
S'from'
p1377
tp1378
F0.0007047216349541931
s(S'had'
p1379
S'earned'
p1380
S'[[det]]'
p1381
tp1382
F0.0007047216349541931
s(S'[[con]]'
p1383
S'returned'
p1384
S'in'
p1385
tp1386
F0.0007047216349541931
s(S'has'
p1387
S'attended'
p1388
S'[[det]]'
p1389
tp1390
F0.0007047216349541931
s(S'[[num]]'
p1391
S'graduate'
p1392
S'from'
p1393
tp1394
F0.0007047216349541931
s(S'where'
p1395
S'received'
p1396
S'in'
p1397
tp1398
F0.0007047216349541931
s(S'[[con]]'
p1399
S'returned'
p1400
S'at'
p1401
tp1402
F0.0007047216349541931
s(S'has'
p1403
S'earned'
p1404
S'from'
p1405
tp1406
F0.0007047216349541931
s(S'also'
p1407
S'attended'
p1408
S'[[con]]'
p1409
tp1410
F0.0007047216349541931
s(S'have'
p1411
S'studied'
p1412
S'under'
p1413
tp1414
F0.0007047216349541931
s(S'where'
p1415
S'studied'
p1416
S'at'
p1417
tp1418
F0.0014094432699083862
s(S'[[det]]'
p1419
S'graduate'
p1420
S'from'
p1421
tp1422
F0.0007047216349541931
s(S'received'
p1423
S'degree'
p1424
S'at'
p1425
tp1426
F0.0007047216349541931
s(S'has'
p1427
S'received'
p1428
S'in'
p1429
tp1430
F0.0007047216349541931
s(g200
g201
S'in'
p1431
tp1432
F0.0035236081747709656
s(S'[[pro]]'
p1433
S'studied'
p1434
S'at'
p1435
tp1436
F0.0007047216349541931
s(S'degree'
p1437
S'[[det]]'
p1438
S'master'
p1439
tp1440
F0.0007047216349541931
s(S'began'
p1441
S'studying'
p1442
S'at'
p1443
tp1444
F0.0007047216349541931
s(S'had'
p1445
S'studied'
p1446
S'[[adj]]'
p1447
tp1448
F0.0007047216349541931
s(g1348
g1349
S'[[con]]'
p1449
tp1450
F0.0007047216349541931
s(S'[[adj]]'
p1451
S'studied'
p1452
S'at'
p1453
tp1454
F0.0007047216349541931
s(S'undergraduate'
p1455
S'degree'
p1456
S'at'
p1457
tp1458
F0.0007047216349541931
s(g234
g235
g133
tp1459
F0.007047216349541931
s(S'was'
p1460
S'enrolled'
p1461
S'at'
p1462
tp1463
F0.0007047216349541931
s(S'then'
p1464
S'transferred'
p1465
S'to'
p1466
tp1467
F0.0007047216349541931
s(S'later'
p1468
S'received'
p1469
S'[[det]]'
p1470
tp1471
F0.0035236081747709656
s(S'when'
p1472
S'attended'
p1473
S'[[det]]'
p1474
tp1475
F0.0007047216349541931
s(S'had'
p1476
S'received'
p1477
S'[[prp]]'
p1478
tp1479
F0.0007047216349541931
s(S'also'
p1480
S'taught'
p1481
S'[[con]]'
p1482
tp1483
F0.0007047216349541931
s(S'[[det]]'
p1484
S'degree'
p1485
S'[[det]]'
p1486
tp1487
F0.0007047216349541931
s(S'also'
p1488
S'earned'
p1489
S'in'
p1490
tp1491
F0.0007047216349541931
s(S'received'
p1492
S'[[prp]]'
p1493
S'law'
p1494
tp1495
F0.0028188865398167725
s(g133
S'degree'
p1496
g369
tp1497
F0.011980267794221282
s(S'also'
p1498
S'earned'
p1499
S'at'
p1500
tp1501
F0.0007047216349541931
s(g126
g127
S'degree'
p1502
tp1503
F0.0007047216349541931
s(g318
g319
g133
tp1504
F0.031007751937984496
s(g133
S'[[det]]'
p1505
S'master'
p1506
tp1507
F0.0021141649048625794
s(S'received'
p1508
S'[[prp]]'
p1509
g729
tp1510
F0.0035236081747709656
s(g370
g371
S'from'
p1511
tp1512
F0.0014094432699083862
s(S'is'
p1513
S'transferred'
p1514
S'to'
p1515
tp1516
F0.0007047216349541931
s(g783
S'degree'
p1517
S'in'
p1518
tp1519
F0.0007047216349541931
s(S'[[adj]]'
p1520
S'pupil'
p1521
S'of'
p1522
tp1523
F0.0007047216349541931
s(g235
g133
g180
tp1524
F0.006342494714587738
s(S'was'
p1525
S'born'
p1526
S'attended'
p1527
tp1528
F0.0014094432699083862
s(S'masters'
p1529
S'degree'
p1530
S'at'
p1531
tp1532
F0.0007047216349541931
s(S'was'
p1533
S'graduated'
p1534
S'from'
p1535
tp1536
F0.0007047216349541931
s(S'earned'
p1537
S'[[det]]'
p1538
g365
tp1539
F0.004933051444679351
s(S'[[prp]]'
p1540
S'studies'
p1541
S'[[con]]'
p1542
tp1543
F0.0007047216349541931
s(S'had'
p1544
S'met'
p1545
S'to'
p1546
tp1547
F0.0007047216349541931
s(g795
g796
g1122
tp1548
F0.0028188865398167725
s(S'born'
p1549
g9
g10
tp1550
F0.0014094432699083862
s(S'also'
p1551
S'received'
p1552
S'[[det]]'
p1553
tp1554
F0.0028188865398167725
s(S'earned'
p1555
S'[[det]]'
p1556
S'master'
p1557
tp1558
F0.008456659619450317
s(g782
g783
g1517
tp1559
F0.0021141649048625794
s(S'[[adj]]'
p1560
S'graduate'
p1561
S'from'
p1562
tp1563
F0.0007047216349541931
s(S'[[con]]'
p1564
S'took'
p1565
S'over'
p1566
tp1567
F0.0007047216349541931
s(S'[[con]]'
p1568
S'attended'
p1569
S'[[con]]'
p1570
tp1571
F0.0014094432699083862
s(g1022
g1023
S'[[prp]]'
p1572
tp1573
F0.0007047216349541931
s(S'has'
p1574
S'met'
p1575
S'in'
p1576
tp1577
F0.0007047216349541931
s(g444
g445
g949
tp1578
F0.0007047216349541931
s(S'[[adj]]'
p1579
S'met'
p1580
S'in'
p1581
tp1582
F0.0007047216349541931
s(S'also'
p1583
S'attended'
p1584
S'at'
p1585
tp1586
F0.0007047216349541931
s(S'also'
p1587
S'met'
p1588
S'in'
p1589
tp1590
F0.0007047216349541931
s(S'then'
p1591
S'enrolled'
p1592
S'in'
p1593
tp1594
F0.0007047216349541931
s(S'had'
p1595
S'completed'
p1596
S'from'
p1597
tp1598
F0.0007047216349541931
s(S'[[adj]]'
p1599
S'attended'
p1600
S'[[det]]'
p1601
tp1602
F0.0007047216349541931
s(S'[[num]]'
p1603
S'graduated'
p1604
S'from'
p1605
tp1606
F0.0007047216349541931
s(S'then'
p1607
S'enrolled'
p1608
S'at'
p1609
tp1610
F0.0007047216349541931
s(S'to'
p1611
S'study'
p1612
S'at'
p1613
tp1614
F0.0007047216349541931
s(S'then'
p1615
S'attended'
p1616
S'now'
p1617
tp1618
F0.0007047216349541931
s(S'before'
p1619
S'going'
p1620
S'to'
p1621
tp1622
F0.0007047216349541931
s(S'also'
p1623
S'enrolled'
p1624
S'at'
p1625
tp1626
F0.0007047216349541931
s(S'later'
p1627
S'attended'
p1628
S'at'
p1629
tp1630
F0.0007047216349541931
s(S'[[adj]]'
p1631
S'degree'
p1632
S'[[con]]'
p1633
tp1634
F0.0007047216349541931
s(S'was'
p1635
S'enrolled'
p1636
S'as'
p1637
tp1638
F0.0007047216349541931
s(S'has'
p1639
S'taught'
p1640
S'for'
p1641
tp1642
F0.0007047216349541931
s(S'[[con]]'
p1643
S'earned'
p1644
S'[[prp]]'
p1645
tp1646
F0.0028188865398167725
s(S'then'
p1647
S'received'
p1648
S'at'
p1649
tp1650
F0.0007047216349541931
s(g366
g367
S'from'
p1651
tp1652
F0.0028188865398167725
s(S'studied'
p1653
S'painting'
p1654
S'with'
p1655
tp1656
F0.0021141649048625794
s(S'then'
p1657
S'took'
p1658
S'over'
p1659
tp1660
F0.0007047216349541931
s(S'[[con]]'
p1661
S'studied'
p1662
S'at'
p1663
tp1664
F0.0007047216349541931
s(S'later'
p1665
S'entered'
p1666
S'[[det]]'
p1667
tp1668
F0.0007047216349541931
s(g90
g91
S'from'
p1669
tp1670
F0.0007047216349541931
s(S'then'
p1671
S'earned'
p1672
S'[[prp]]'
p1673
tp1674
F0.0007047216349541931
s(S'soon'
p1675
S'returned'
p1676
S'to'
p1677
tp1678
F0.0007047216349541931
s(S'then'
p1679
S'attended'
p1680
S'of'
p1681
tp1682
F0.0007047216349541931
s(S'then'
p1683
S'taught'
p1684
S'[[num]]'
p1685
tp1686
F0.0007047216349541931
s(S'[[con]]'
p1687
S'entered'
p1688
S'[[det]]'
p1689
tp1690
F0.0007047216349541931
s(S'[[det]]'
p1691
g684
g685
tp1692
F0.0014094432699083862
s(S'then'
p1693
S'took'
p1694
S'on'
p1695
tp1696
F0.0007047216349541931
s(S'has'
p1697
S'earned'
p1698
S'[[det]]'
p1699
tp1700
F0.0014094432699083862
s(g860
g861
S'attended'
p1701
tp1702
F0.0007047216349541931
s(S'later'
p1703
S'returned'
p1704
S'to'
p1705
tp1706
F0.0007047216349541931
s(S'when'
p1707
S'transferred'
p1708
S'to'
p1709
tp1710
F0.0007047216349541931
s(S'later'
p1711
S'studied'
p1712
S'under'
p1713
tp1714
F0.0007047216349541931
s(S'have'
p1715
S'attended'
p1716
S'[[det]]'
p1717
tp1718
F0.0007047216349541931
s(S'[[con]]'
p1719
S'[[det]]'
p1720
S'law'
p1721
tp1722
F0.0014094432699083862
s(g1318
g1319
S'from'
p1723
tp1724
F0.0014094432699083862
s(S'also'
p1725
S'studied'
p1726
S'at'
p1727
tp1728
F0.0007047216349541931
s(S'has'
p1729
S'taught'
p1730
S'in'
p1731
tp1732
F0.0007047216349541931
s(S'undergraduate'
p1733
S'degree'
p1734
S'from'
p1735
tp1736
F0.0021141649048625794
s(g564
g565
g1370
tp1737
F0.0007047216349541931
s(S'then'
p1738
S'studied'
p1739
S'at'
p1740
tp1741
F0.0007047216349541931
s(S'[[con]]'
p1742
S'attended'
p1743
S'at'
p1744
tp1745
F0.0014094432699083862
s(g1090
g1091
S'degree'
p1746
tp1747
F0.0007047216349541931
s(S'holds'
p1748
S'[[det]]'
p1749
S'degree'
p1750
tp1751
F0.0007047216349541931
s(S'later'
p1752
S'attended'
p1753
S'of'
p1754
tp1755
F0.0007047216349541931
s(S'[[det]]'
p1756
S'pupil'
p1757
S'[[det]]'
p1758
tp1759
F0.0007047216349541931
s(S'[[con]]'
p1760
S'enrolled'
p1761
S'at'
p1762
tp1763
F0.0007047216349541931
s(S'also'
p1764
S'received'
p1765
S'degree'
p1766
tp1767
F0.0007047216349541931
s(S'later'
p1768
S'graduated'
p1769
S'from'
p1770
tp1771
F0.0007047216349541931
s(S'also'
p1772
S'taught'
p1773
S'at'
p1774
tp1775
F0.0007047216349541931
s(S'then'
p1776
S'took'
p1777
S'[[prp]]'
p1778
tp1779
F0.0007047216349541931
s(S'bachelor'
p1780
S'degree'
p1781
S'from'
p1782
tp1783
F0.0021141649048625794
s(S'later'
p1784
S'earned'
p1785
S'from'
p1786
tp1787
F0.0007047216349541931
s(S'has'
p1788
S'attended'
p1789
S'[[con]]'
p1790
tp1791
F0.0007047216349541931
s(S'then'
p1792
S'completed'
p1793
S'at'
p1794
tp1795
F0.0007047216349541931
s(S'earned'
p1796
S'[[prp]]'
p1797
S'master'
p1798
tp1799
F0.0014094432699083862
s(g973
g974
S'from'
p1800
tp1801
F0.0007047216349541931
s(g521
g133
S'degree'
p1802
tp1803
F0.0014094432699083862
s(S'have'
p1804
S'studied'
p1805
S'with'
p1806
tp1807
F0.0007047216349541931
s(S'first'
p1808
S'studied'
p1809
S'[[con]]'
p1810
tp1811
F0.0007047216349541931
s(S'[[det]]'
p1812
S'pupil'
p1813
S'[[con]]'
p1814
tp1815
F0.0007047216349541931
s(S'[[num]]'
p1816
S'graduate'
p1817
S'[[con]]'
p1818
tp1819
F0.0014094432699083862
s(S'[[det]]'
p1820
S'graduate'
p1821
S'[[det]]'
p1822
tp1823
F0.0007047216349541931
s(S'has'
p1824
S'received'
p1825
S'[[num]]'
p1826
tp1827
F0.0007047216349541931
s(S'[[con]]'
p1828
S'taught'
p1829
S'at'
p1830
tp1831
F0.0007047216349541931
s(S'then'
p1832
S'earned'
p1833
S'[[det]]'
p1834
tp1835
F0.0035236081747709656
s(g388
g389
S'law'
p1836
tp1837
F0.0007047216349541931
s(S'later'
p1838
S'earned'
p1839
S'in'
p1840
tp1841
F0.0007047216349541931
s(S'[[adj]]'
p1842
S'graduate'
p1843
S'of'
p1844
tp1845
F0.0007047216349541931
s(S'also'
p1846
S'completed'
p1847
S'[[con]]'
p1848
tp1849
F0.0007047216349541931
s(S'[[det]]'
p1850
S'graduate'
p1851
S'[[con]]'
p1852
tp1853
F0.0028188865398167725
s(S'then'
p1854
S'entered'
p1855
S'[[det]]'
p1856
tp1857
F0.0007047216349541931
s(S'received'
p1858
g905
g688
tp1859
F0.004933051444679351
s(S'was'
p1860
S'entered'
p1861
S'at'
p1862
tp1863
F0.0007047216349541931
s(g133
S'degrees'
p1864
S'at'
p1865
tp1866
F0.0014094432699083862
s(S'also'
p1867
S'taught'
p1868
S'for'
p1869
tp1870
F0.0007047216349541931
s(S'graduated'
p1871
S'[[con]]'
p1872
S'holds'
p1873
tp1874
F0.0014094432699083862
s(S'[[con]]'
p1875
S'took'
p1876
S'[[num]]'
p1877
tp1878
F0.0007047216349541931
s(S'was'
p1879
g1256
g1257
tp1880
F0.010570824524312896
s(S'later'
p1881
S'completed'
p1882
S'at'
p1883
tp1884
F0.0007047216349541931
s(S'had'
p1885
S'met'
p1886
S'while'
p1887
tp1888
F0.0007047216349541931
s(S'degree'
p1889
g1141
g1142
tp1890
F0.0007047216349541931
s(S'had'
p1891
S'met'
p1892
S'in'
p1893
tp1894
F0.0007047216349541931
s(S'bachelor'
p1895
g133
g1505
tp1896
F0.0035236081747709656
s(S'[[prp]]'
p1897
S'degree'
p1898
S'at'
p1899
tp1900
F0.0007047216349541931
s(S'be'
p1901
S'returned'
p1902
S'to'
p1903
tp1904
F0.0007047216349541931
s(S'first'
p1905
S'studied'
p1906
S'under'
p1907
tp1908
F0.0007047216349541931
s(S'was'
p1909
S'transferred'
p1910
S'for'
p1911
tp1912
F0.0007047216349541931
s(S'[[prp]]'
p1913
S'degree'
p1914
S'in'
p1915
tp1916
F0.0007047216349541931
s(S'also'
p1917
S'attended'
p1918
S'for'
p1919
tp1920
F0.0007047216349541931
s(S'[[con]]'
p1921
S'later'
p1922
S'received'
p1923
tp1924
F0.0007047216349541931
s(S'born'
p1925
g37
g38
tp1926
F0.0021141649048625794
s(S'[[con]]'
p1927
S'received'
p1928
S'in'
p1929
tp1930
F0.0007047216349541931
s(S'[[con]]'
p1931
S'graduated'
p1932
S'at'
p1933
tp1934
F0.0007047216349541931
s(g624
g625
S'at'
p1935
tp1936
F0.0021141649048625794
s(g170
g171
g994
tp1937
F0.0007047216349541931
s(S'graduated'
p1938
g1921
g1922
tp1939
F0.0007047216349541931
s(S'year'
p1940
g1619
g1620
tp1941
F0.0007047216349541931
s(S'[[con]]'
p1942
S'graduated'
p1943
S'from'
p1944
tp1945
F0.0007047216349541931
s(S'to'
p1946
S'study'
p1947
S'[[con]]'
p1948
tp1949
F0.0007047216349541931
s(S'[[con]]'
p1950
S'received'
p1951
S'at'
p1952
tp1953
F0.0007047216349541931
s(S'degree'
p1954
S'[[con]]'
p1955
S'master'
p1956
tp1957
F0.0007047216349541931
s(g1496
g369
g370
tp1958
F0.0028188865398167725
s(S'had'
p1959
S'transferred'
p1960
S'to'
p1961
tp1962
F0.0007047216349541931
s(S'[[pro]]'
p1963
S'graduated'
p1964
S'from'
p1965
tp1966
F0.0007047216349541931
s(S'to'
p1967
S'study'
p1968
S'for'
p1969
tp1970
F0.0007047216349541931
s(S'also'
p1971
g61
g62
tp1972
F0.0007047216349541931
s(g127
g1502
S'from'
p1973
tp1974
F0.0014094432699083862
s(S'was'
p1975
g1925
g37
tp1976
F0.0021141649048625794
s(S'later'
p1977
S'attended'
p1978
S'[[con]]'
p1979
tp1980
F0.0007047216349541931
s(g517
g518
S'degree'
p1981
tp1982
F0.0007047216349541931
s(g734
g735
S'at'
p1983
tp1984
F0.0021141649048625794
s(S'also'
p1985
S'received'
p1986
S'from'
p1987
tp1988
F0.0007047216349541931
s(S'attended'
p1989
g1643
g1644
tp1990
F0.005637773079633545
s(S'then'
p1991
S'received'
p1992
S'[[con]]'
p1993
tp1994
F0.0007047216349541931
s(S'has'
p1995
S'received'
p1996
S'from'
p1997
tp1998
F0.0007047216349541931
s(S'first'
p1999
S'studied'
p2000
S'at'
p2001
tp2002
F0.0007047216349541931
s(S'was'
p2003
S'met'
p2004
S'at'
p2005
tp2006
F0.0007047216349541931
s(S'later'
p2007
S'attended'
p2008
S'[[det]]'
p2009
tp2010
F0.0007047216349541931
s(S'then'
p2011
g1019
g733
tp2012
F0.0014094432699083862
s(g1078
g1079
S'from'
p2013
tp2014
F0.0007047216349541931
s(S'[[det]]'
p2015
S'graduate'
p2016
S'of'
p2017
tp2018
F0.0007047216349541931
s(g1509
g729
g730
tp2019
F0.0035236081747709656
s(S'to'
p2020
S'study'
p2021
S'[[det]]'
p2022
tp2023
F0.0007047216349541931
s(S'then'
p2024
S'returned'
p2025
S'where'
p2026
tp2027
F0.0007047216349541931
s(S'received'
p2028
g451
g452
tp2029
F0.0014094432699083862
s(S'received'
p2030
S'[[prp]]'
p2031
S'bachelor'
p2032
tp2033
F0.009866102889358703
s.