(dp0
(S'was'
p1
S'graduated'
p2
S'from'
p3
tp4
F0.009433962264150943
s(S'then'
p5
S'enrolled'
p6
S'in'
p7
tp8
F0.009433962264150943
s(S'also'
p9
S'studied'
p10
S'[[con]]'
p11
tp12
F0.009433962264150943
s(S'[[con]]'
p13
S'attended'
p14
S'[[det]]'
p15
tp16
F0.009433962264150943
s(S'then'
p17
S'studied'
p18
S'[[con]]'
p19
tp20
F0.009433962264150943
s(S'was'
p21
S'graduated'
p22
S'in'
p23
tp24
F0.009433962264150943
s(S'when'
p25
S'attended'
p26
S'[[det]]'
p27
tp28
F0.009433962264150943
s(S'before'
p29
S'studying'
p30
S'at'
p31
tp32
F0.009433962264150943
s(S'has'
p33
S'studied'
p34
S'from'
p35
tp36
F0.009433962264150943
s(S'was'
p37
S'studying'
p38
S'for'
p39
tp40
F0.009433962264150943
s(S'to'
p41
S'study'
p42
S'[[con]]'
p43
tp44
F0.009433962264150943
s(S'later'
p45
S'studied'
p46
S'at'
p47
tp48
F0.009433962264150943
s(S'[[con]]'
p49
S'attended'
p50
S'[[con]]'
p51
tp52
F0.009433962264150943
s(S'then'
p53
S'graduated'
p54
S'from'
p55
tp56
F0.009433962264150943
s(S'where'
p57
S'attended'
p58
S'[[det]]'
p59
tp60
F0.009433962264150943
s(S'had'
p61
S'attended'
p62
S'[[con]]'
p63
tp64
F0.009433962264150943
s(S'where'
p65
S'graduated'
p66
S'from'
p67
tp68
F0.009433962264150943
s(S'is'
p69
S'studying'
p70
S'at'
p71
tp72
F0.009433962264150943
s(S'also'
p73
S'attended'
p74
S'at'
p75
tp76
F0.009433962264150943
s(S'also'
p77
S'attended'
p78
S'now'
p79
tp80
F0.009433962264150943
s(S'was'
p81
S'studying'
p82
S'at'
p83
tp84
F0.009433962264150943
s(S'[[adj]]'
p85
S'attended'
p86
S'[[det]]'
p87
tp88
F0.009433962264150943
s(S'[[num]]'
p89
S'graduated'
p90
S'from'
p91
tp92
F0.009433962264150943
s(S'first'
p93
S'attended'
p94
S'[[det]]'
p95
tp96
F0.009433962264150943
s(S'then'
p97
S'read'
p98
S'at'
p99
tp100
F0.009433962264150943
s(S'then'
p101
S'enrolled'
p102
S'at'
p103
tp104
F0.009433962264150943
s(S'to'
p105
S'study'
p106
S'at'
p107
tp108
F0.009433962264150943
s(S'then'
p109
S'attended'
p110
S'now'
p111
tp112
F0.009433962264150943
s(S'[[mod]]'
p113
S'study'
p114
S'at'
p115
tp116
F0.009433962264150943
s(S'later'
p117
S'enrolled'
p118
S'at'
p119
tp120
F0.009433962264150943
s(S'before'
p121
S'going'
p122
S'to'
p123
tp124
F0.009433962264150943
s(S'also'
p125
S'enrolled'
p126
S'at'
p127
tp128
F0.009433962264150943
s(S'later'
p129
S'attended'
p130
S'at'
p131
tp132
F0.009433962264150943
s(S'later'
p133
S'enrolled'
p134
S'in'
p135
tp136
F0.009433962264150943
s(S'was'
p137
S'graduated'
p138
S'now'
p139
tp140
F0.009433962264150943
s(S'[[con]]'
p141
S'studied'
p142
S'at'
p143
tp144
F0.009433962264150943
s(S'been'
p145
S'studying'
p146
S'with'
p147
tp148
F0.009433962264150943
s(S'[[con]]'
p149
S'studied'
p150
S'in'
p151
tp152
F0.009433962264150943
s(S'then'
p153
S'attended'
p154
S'of'
p155
tp156
F0.009433962264150943
s(S'also'
p157
S'studied'
p158
S'[[adj]]'
p159
tp160
F0.009433962264150943
s(S'who'
p161
S'graduated'
p162
S'at'
p163
tp164
F0.009433962264150943
s(S'has'
p165
S'studied'
p166
S'[[con]]'
p167
tp168
F0.009433962264150943
s(S'who'
p169
S'studied'
p170
S'at'
p171
tp172
F0.009433962264150943
s(S'then'
p173
S'attended'
p174
S'[[det]]'
p175
tp176
F0.009433962264150943
s(S'have'
p177
S'attended'
p178
S'[[det]]'
p179
tp180
F0.009433962264150943
s(S'while'
p181
S'studying'
p182
S'at'
p183
tp184
F0.009433962264150943
s(S'also'
p185
S'studied'
p186
S'at'
p187
tp188
F0.009433962264150943
s(S'was'
p189
S'enrolled'
p190
S'as'
p191
tp192
F0.009433962264150943
s(S'who'
p193
S'graduated'
p194
S'from'
p195
tp196
F0.009433962264150943
s(S'then'
p197
S'attended'
p198
S'at'
p199
tp200
F0.009433962264150943
s(S'then'
p201
S'studied'
p202
S'at'
p203
tp204
F0.009433962264150943
s(S'[[con]]'
p205
S'attended'
p206
S'at'
p207
tp208
F0.009433962264150943
s(S'later'
p209
S'attended'
p210
S'of'
p211
tp212
F0.009433962264150943
s(S'[[con]]'
p213
S'enrolled'
p214
S'at'
p215
tp216
F0.009433962264150943
s(S'had'
p217
S'studied'
p218
S'at'
p219
tp220
F0.009433962264150943
s(S'[[adj]]'
p221
S'attended'
p222
S'at'
p223
tp224
F0.009433962264150943
s(S'later'
p225
S'graduated'
p226
S'from'
p227
tp228
F0.009433962264150943
s(S'[[con]]'
p229
S'enrolled'
p230
S'in'
p231
tp232
F0.009433962264150943
s(S'also'
p233
S'enrolled'
p234
S'in'
p235
tp236
F0.009433962264150943
s(S'has'
p237
S'graduated'
p238
S'from'
p239
tp240
F0.009433962264150943
s(S'has'
p241
S'attended'
p242
S'[[con]]'
p243
tp244
F0.009433962264150943
s(S'have'
p245
S'studied'
p246
S'at'
p247
tp248
F0.009433962264150943
s(S'been'
p249
S'studying'
p250
S'at'
p251
tp252
F0.009433962264150943
s(S'also'
p253
S'attended'
p254
S'from'
p255
tp256
F0.009433962264150943
s(S'first'
p257
S'studied'
p258
S'[[con]]'
p259
tp260
F0.009433962264150943
s(S'had'
p261
S'attended'
p262
S'[[det]]'
p263
tp264
F0.009433962264150943
s(S'was'
p265
S'graduated'
p266
S'[[con]]'
p267
tp268
F0.009433962264150943
s(S'[[num]]'
p269
S'studied'
p270
S'at'
p271
tp272
F0.009433962264150943
s(S'who'
p273
S'attended'
p274
S'[[det]]'
p275
tp276
F0.009433962264150943
s(S'to'
p277
S'read'
p278
S'at'
p279
tp280
F0.009433962264150943
s(S'is'
p281
S'studying'
p282
S'in'
p283
tp284
F0.009433962264150943
s(S'then'
p285
S'studied'
p286
S'[[det]]'
p287
tp288
F0.009433962264150943
s(S'to'
p289
S'study'
p290
S'[[adj]]'
p291
tp292
F0.009433962264150943
s(S'then'
p293
S'graduated'
p294
S'at'
p295
tp296
F0.009433962264150943
s(S'has'
p297
S'attended'
p298
S'[[det]]'
p299
tp300
F0.009433962264150943
s(S'later'
p301
S'studying'
p302
S'at'
p303
tp304
F0.009433962264150943
s(S'also'
p305
S'attended'
p306
S'[[con]]'
p307
tp308
F0.009433962264150943
s(S'where'
p309
S'studied'
p310
S'at'
p311
tp312
F0.009433962264150943
s(S'then'
p313
S'attended'
p314
S'[[con]]'
p315
tp316
F0.009433962264150943
s(S'[[adj]]'
p317
S'study'
p318
S'at'
p319
tp320
F0.009433962264150943
s(S'[[pro]]'
p321
S'studied'
p322
S'at'
p323
tp324
F0.009433962264150943
s(S'also'
p325
S'attended'
p326
S'for'
p327
tp328
F0.009433962264150943
s(S'was'
p329
S'enrolled'
p330
S'in'
p331
tp332
F0.009433962264150943
s(S'[[adj]]'
p333
S'studied'
p334
S'at'
p335
tp336
F0.009433962264150943
s(S'[[con]]'
p337
S'graduated'
p338
S'at'
p339
tp340
F0.009433962264150943
s(S'currently'
p341
S'studying'
p342
S'in'
p343
tp344
F0.009433962264150943
s(S'was'
p345
S'enrolled'
p346
S'at'
p347
tp348
F0.009433962264150943
s(S'later'
p349
S'studied'
p350
S'[[con]]'
p351
tp352
F0.009433962264150943
s(S'year'
p353
g121
g122
tp354
F0.009433962264150943
s(S'[[con]]'
p355
S'graduated'
p356
S'from'
p357
tp358
F0.009433962264150943
s(S'had'
p359
S'graduated'
p360
S'from'
p361
tp362
F0.009433962264150943
s(S'currently'
p363
S'studying'
p364
S'at'
p365
tp366
F0.009433962264150943
s(S'[[pro]]'
p367
S'graduated'
p368
S'from'
p369
tp370
F0.009433962264150943
s(S'to'
p371
S'study'
p372
S'for'
p373
tp374
F0.009433962264150943
s(S'also'
p375
S'graduated'
p376
S'at'
p377
tp378
F0.009433962264150943
s(S'later'
p379
S'attended'
p380
S'[[con]]'
p381
tp382
F0.009433962264150943
s(S'after'
p383
S'studying'
p384
S'at'
p385
tp386
F0.009433962264150943
s(S'first'
p387
S'studied'
p388
S'at'
p389
tp390
F0.009433962264150943
s(S'where'
p391
S'enrolled'
p392
S'in'
p393
tp394
F0.009433962264150943
s(S'later'
p395
S'attended'
p396
S'[[det]]'
p397
tp398
F0.009433962264150943
s(S'where'
p399
S'enrolled'
p400
S'at'
p401
tp402
F0.009433962264150943
s(S'also'
p403
S'graduated'
p404
S'from'
p405
tp406
F0.009433962264150943
s(S'has'
p407
S'studied'
p408
S'at'
p409
tp410
F0.009433962264150943
s(S'also'
p411
S'attended'
p412
S'[[det]]'
p413
tp414
F0.009433962264150943
s(S'later'
p415
S'attended'
p416
S'now'
p417
tp418
F0.009433962264150943
s(S'to'
p419
S'study'
p420
S'[[det]]'
p421
tp422
F0.009433962264150943
s.