(dp0
(S'was'
p1
S'used'
p2
S'[[det]]'
p3
tp4
F0.03225806451612903
s(S'been'
p5
S'used'
p6
S'in'
p7
tp8
F0.03225806451612903
s(S'later'
p9
S'used'
p10
S'in'
p11
tp12
F0.03225806451612903
s(S'was'
p13
S'used'
p14
S'in'
p15
tp16
F0.03225806451612903
s(S'is'
p17
S'used'
p18
S'on'
p19
tp20
F0.03225806451612903
s(S'also'
p21
S'used'
p22
S'for'
p23
tp24
F0.03225806451612903
s(S'was'
p25
S'used'
p26
S'at'
p27
tp28
F0.03225806451612903
s(S'was'
p29
S'used'
p30
S'as'
p31
tp32
F0.03225806451612903
s(S'was'
p33
S'used'
p34
S'on'
p35
tp36
F0.03225806451612903
s(S'been'
p37
S'used'
p38
S'for'
p39
tp40
F0.03225806451612903
s(S'[[det]]'
p41
S'basis'
p42
S'for'
p43
tp44
F0.03225806451612903
s(S'is'
p45
S'used'
p46
S'in'
p47
tp48
F0.03225806451612903
s(S'was'
p49
S'used'
p50
S'for'
p51
tp52
F0.03225806451612903
s(S'is'
p53
S'used'
p54
S'[[num]]'
p55
tp56
F0.03225806451612903
s(S'is'
p57
S'used'
p58
S'for'
p59
tp60
F0.03225806451612903
s(S'also'
p61
S'used'
p62
S'in'
p63
tp64
F0.03225806451612903
s(S'was'
p65
S'used'
p66
S'[[num]]'
p67
tp68
F0.03225806451612903
s(S'is'
p69
S'used'
p70
S'as'
p71
tp72
F0.03225806451612903
s(S'[[det]]'
p73
S'basis'
p74
S'of'
p75
tp76
F0.03225806451612903
s(S'also'
p77
S'used'
p78
S'to'
p79
tp80
F0.03225806451612903
s(S'also'
p81
S'used'
p82
S'at'
p83
tp84
F0.03225806451612903
s(S'be'
p85
S'used'
p86
S'in'
p87
tp88
F0.03225806451612903
s(S'was'
p89
S'used'
p90
S'to'
p91
tp92
F0.03225806451612903
s(S'be'
p93
S'used'
p94
S'with'
p95
tp96
F0.03225806451612903
s(S'been'
p97
S'used'
p98
S'as'
p99
tp100
F0.03225806451612903
s(S'often'
p101
S'used'
p102
S'to'
p103
tp104
F0.03225806451612903
s(S'also'
p105
S'used'
p106
S'as'
p107
tp108
F0.03225806451612903
s(S'also'
p109
S'used'
p110
S'until'
p111
tp112
F0.03225806451612903
s(S'be'
p113
S'used'
p114
S'on'
p115
tp116
F0.03225806451612903
s(S'be'
p117
S'used'
p118
S'as'
p119
tp120
F0.03225806451612903
s(S'also'
p121
S'used'
p122
S'on'
p123
tp124
F0.03225806451612903
s.