(dp0
(S'is'
p1
S'recognized'
p2
S'as'
p3
tp4
F0.038461538461538464
s(S'is'
p5
S'commemorated'
p6
S'on'
p7
tp8
F0.038461538461538464
s(S'also'
p9
S'commemorated'
p10
S'[[det]]'
p11
tp12
F0.038461538461538464
s(S'venerated'
p13
S'as'
p14
S'[[det]]'
p15
tp16
F0.038461538461538464
s(S'also'
p17
S'commemorated'
p18
S'at'
p19
tp20
F0.038461538461538464
s(S'was'
p21
S'recognized'
p22
S'by'
p23
tp24
F0.038461538461538464
s(S'was'
p25
S'recognized'
p26
S'as'
p27
tp28
F0.038461538461538464
s(S'[[det]]'
p29
S'saint'
p30
S'of'
p31
tp32
F0.038461538461538464
s(S'was'
p33
S'recognized'
p34
S'at'
p35
tp36
F0.038461538461538464
s(S'is'
p37
S'commemorated'
p38
S'in'
p39
tp40
F0.038461538461538464
s(S'was'
p41
S'recognized'
p42
S'to'
p43
tp44
F0.038461538461538464
s(S'also'
p45
S'commemorated'
p46
S'in'
p47
tp48
F0.038461538461538464
s(S'is'
p49
S'commemorated'
p50
S'at'
p51
tp52
F0.038461538461538464
s(S'also'
p53
S'recognized'
p54
S'by'
p55
tp56
F0.038461538461538464
s(g14
g15
S'saint'
p57
tp58
F0.038461538461538464
s(S'[[det]]'
p59
S'saint'
p60
S'in'
p61
tp62
F0.07692307692307693
s(S'is'
p63
S'commemorated'
p64
S'by'
p65
tp66
F0.038461538461538464
s(S'been'
p67
S'recognized'
p68
S'as'
p69
tp70
F0.038461538461538464
s(S'also'
p71
S'recognized'
p72
S'in'
p73
tp74
F0.038461538461538464
s(S'is'
p75
S'commemorated'
p76
S'[[det]]'
p77
tp78
F0.038461538461538464
s(S'is'
p79
S'recognized'
p80
S'in'
p81
tp82
F0.038461538461538464
s(S'been'
p83
S'recognized'
p84
S'in'
p85
tp86
F0.038461538461538464
s(S'been'
p87
S'recognized'
p88
S'by'
p89
tp90
F0.038461538461538464
s(S'is'
p91
g13
g14
tp92
F0.038461538461538464
s(S'was'
p93
S'recognized'
p94
S'[[con]]'
p95
tp96
F0.038461538461538464
s.