(dp0
(S'has'
p1
S'worked'
p2
S'until'
p3
tp4
F0.0048543689320388345
s(S'has'
p5
S'worked'
p6
S'[[con]]'
p7
tp8
F0.0048543689320388345
s(S'also'
p9
S'studied'
p10
S'[[con]]'
p11
tp12
F0.0048543689320388345
s(S'[[con]]'
p13
S'worked'
p14
S'later'
p15
tp16
F0.0048543689320388345
s(S'having'
p17
S'studied'
p18
S'under'
p19
tp20
F0.0048543689320388345
s(S'then'
p21
S'worked'
p22
S'with'
p23
tp24
F0.0048543689320388345
s(S'was'
p25
S'employed'
p26
S'[[con]]'
p27
tp28
F0.0048543689320388345
s(S'where'
p29
S'studied'
p30
S'[[det]]'
p31
tp32
F0.0048543689320388345
s(S'later'
p33
S'received'
p34
S'[[det]]'
p35
tp36
F0.0048543689320388345
s(S'mainly'
p37
S'worked'
p38
S'under'
p39
tp40
F0.0048543689320388345
s(S'was'
p41
S'taught'
p42
S'[[con]]'
p43
tp44
F0.0048543689320388345
s(S'also'
p45
S'taught'
p46
S'by'
p47
tp48
F0.0048543689320388345
s(S'[[det]]'
p49
S'worked'
p50
S'for'
p51
tp52
F0.0048543689320388345
s(S'well'
p53
S'received'
p54
S'by'
p55
tp56
F0.0048543689320388345
s(S'followed'
p57
S'[[det]]'
p58
S'stage'
p59
tp60
F0.0048543689320388345
s(S'also'
p61
S'received'
p62
S'of'
p63
tp64
F0.0048543689320388345
s(S'[[adj]]'
p65
S'student'
p66
S'of'
p67
tp68
F0.0048543689320388345
s(S'later'
p69
S'studied'
p70
S'with'
p71
tp72
F0.0048543689320388345
s(S'where'
p73
S'worked'
p74
S'as'
p75
tp76
F0.0048543689320388345
s(S'later'
p77
S'worked'
p78
S'under'
p79
tp80
F0.0048543689320388345
s(S'[[prp]]'
p81
S'[[adj]]'
p82
S'doctorate'
p83
tp84
F0.0048543689320388345
s(S'that'
p85
S'worked'
p86
S'with'
p87
tp88
F0.0048543689320388345
s(S's'
p89
S'worked'
p90
S'as'
p91
tp92
F0.0048543689320388345
s(S'was'
p93
S'employed'
p94
S'by'
p95
tp96
F0.0048543689320388345
s(S'then'
p97
S'studied'
p98
S'with'
p99
tp100
F0.0048543689320388345
s(S'received'
p101
S'[[det]]'
p102
S'doctorate'
p103
tp104
F0.009708737864077669
s(S'is'
p105
S'employed'
p106
S'as'
p107
tp108
F0.0048543689320388345
s(S'have'
p109
S'worked'
p110
S'with'
p111
tp112
F0.0048543689320388345
s(S'in'
p113
S'where'
p114
S'worked'
p115
tp116
F0.0048543689320388345
s(S'has'
p117
S'worked'
p118
S'by'
p119
tp120
F0.0048543689320388345
s(S'have'
p121
S'studied'
p122
S'under'
p123
tp124
F0.0048543689320388345
s(S'have'
p125
S'worked'
p126
S'as'
p127
tp128
F0.0048543689320388345
s(S'[[det]]'
p129
S'student'
p130
S'of'
p131
tp132
F0.0048543689320388345
s(S'to'
p133
S'study'
p134
S'with'
p135
tp136
F0.0048543689320388345
s(S'also'
p137
S'employed'
p138
S'[[det]]'
p139
tp140
F0.0048543689320388345
s(S'formerly'
p141
S'worked'
p142
S'as'
p143
tp144
F0.0048543689320388345
s(S'later'
p145
S'received'
p146
S'under'
p147
tp148
F0.0048543689320388345
s(S'received'
p149
S'[[prp]]'
p150
S'doctorate'
p151
tp152
F0.0048543689320388345
s(S'has'
p153
S'worked'
p154
S'under'
p155
tp156
F0.0048543689320388345
s(S'also'
p157
S'worked'
p158
S'with'
p159
tp160
F0.0048543689320388345
s(S'where'
p161
S'worked'
p162
S'for'
p163
tp164
F0.0048543689320388345
s(S'first'
p165
S'studied'
p166
S'with'
p167
tp168
F0.0048543689320388345
s(S'then'
p169
S'worked'
p170
S'before'
p171
tp172
F0.0048543689320388345
s(S'also'
p173
S'studied'
p174
S'with'
p175
tp176
F0.0048543689320388345
s(S'well'
p177
S'received'
p178
S'[[con]]'
p179
tp180
F0.0048543689320388345
s(S'where'
p181
S'worked'
p182
S'under'
p183
tp184
F0.0048543689320388345
s(S'often'
p185
S'worked'
p186
S'with'
p187
tp188
F0.0048543689320388345
s(S'have'
p189
S'received'
p190
S'[[det]]'
p191
tp192
F0.0048543689320388345
s(S'[[num]]'
p193
S'worked'
p194
S'with'
p195
tp196
F0.0048543689320388345
s(S'career'
p197
S'where'
p198
S'worked'
p199
tp200
F0.0048543689320388345
s(S'then'
p201
S'studied'
p202
S'under'
p203
tp204
F0.0048543689320388345
s(S'[[mod]]'
p205
S'study'
p206
S'with'
p207
tp208
F0.0048543689320388345
s(S'who'
p209
S'worked'
p210
S'under'
p211
tp212
F0.0048543689320388345
s(S'also'
p213
S'worked'
p214
S'[[adj]]'
p215
tp216
F0.0048543689320388345
s(S'[[det]]'
p217
S'student'
p218
S'where'
p219
tp220
F0.0048543689320388345
s(S'also'
p221
S'worked'
p222
S'where'
p223
tp224
F0.0048543689320388345
s(S'then'
p225
S'worked'
p226
S'along'
p227
tp228
F0.0048543689320388345
s(S'had'
p229
S'studied'
p230
S'under'
p231
tp232
F0.0048543689320388345
s(S'later'
p233
S'received'
p234
S'[[con]]'
p235
tp236
F0.0048543689320388345
s(S'received'
p237
S'awards'
p238
S'that'
p239
tp240
F0.0048543689320388345
s(S'has'
p241
S'studied'
p242
S'under'
p243
tp244
F0.0048543689320388345
s(S'[[pro]]'
p245
S'[[det]]'
p246
S'opportunity'
p247
tp248
F0.0048543689320388345
s(S'also'
p249
S'worked'
p250
S'together'
p251
tp252
F0.0048543689320388345
s(S'that'
p253
S'worked'
p254
S'along'
p255
tp256
F0.0048543689320388345
s(S'has'
p257
S'worked'
p258
S'among'
p259
tp260
F0.0048543689320388345
s(S'[[adj]]'
p261
S'assistant'
p262
S'for'
p263
tp264
F0.0048543689320388345
s(S'was'
p265
S'received'
p266
S'to'
p267
tp268
F0.0048543689320388345
s(S'later'
p269
S'worked'
p270
S'as'
p271
tp272
F0.0048543689320388345
s(S'then'
p273
S'received'
p274
S'[[det]]'
p275
tp276
F0.0048543689320388345
s(S'again'
p277
S'worked'
p278
S'with'
p279
tp280
F0.0048543689320388345
s(S'was'
p281
S'received'
p282
S'by'
p283
tp284
F0.0048543689320388345
s(S'has'
p285
S'studied'
p286
S'[[con]]'
p287
tp288
F0.0048543689320388345
s(S'was'
p289
S'employed'
p290
S'on'
p291
tp292
F0.0048543689320388345
s(S'[[det]]'
p293
S'doctorate'
p294
S'where'
p295
tp296
F0.0048543689320388345
s(g59
g197
g198
tp297
F0.0048543689320388345
s(S'[[adj]]'
p298
S'assistant'
p299
S'[[con]]'
p300
tp301
F0.0048543689320388345
s(S'[[con]]'
p302
S'worked'
p303
S'[[prp]]'
p304
tp305
F0.0048543689320388345
s(S'later'
p306
S'worked'
p307
S'on'
p308
tp309
F0.0048543689320388345
s(S'later'
p310
S'studied'
p311
S'under'
p312
tp313
F0.0048543689320388345
s(S'became'
p314
S'assistant'
p315
S'[[con]]'
p316
tp317
F0.0048543689320388345
s(S'then'
p318
S'worked'
p319
S'[[adj]]'
p320
tp321
F0.0048543689320388345
s(S'to'
p322
S'study'
p323
S'under'
p324
tp325
F0.0048543689320388345
s(S'singing'
p326
S'[[con]]'
p327
g57
tp328
F0.0048543689320388345
s(S'[[det]]'
p329
S'study'
p330
S'of'
p331
tp332
F0.0048543689320388345
s(S'[[adj]]'
p333
S'assistant'
p334
S'to'
p335
tp336
F0.0048543689320388345
s(S'also'
p337
S'worked'
p338
S'along'
p339
tp340
F0.0048543689320388345
s(S'where'
p341
S'studied'
p342
S'under'
p343
tp344
F0.009708737864077669
s(S'became'
p345
S'assistant'
p346
S'to'
p347
tp348
F0.0048543689320388345
s(S'has'
p349
S'worked'
p350
S'from'
p351
tp352
F0.0048543689320388345
s(S'[[det]]'
p353
S'assistant'
p354
S'of'
p355
tp356
F0.0048543689320388345
s(S'was'
p357
S'taught'
p358
S'in'
p359
tp360
F0.0048543689320388345
s(S'also'
p361
S'worked'
p362
S'among'
p363
tp364
F0.0048543689320388345
s(S'had'
p365
S'received'
p366
S'from'
p367
tp368
F0.0048543689320388345
s(S'later'
p369
S'worked'
p370
S'to'
p371
tp372
F0.0048543689320388345
s(g89
S'worked'
p373
S'on'
p374
tp375
F0.0048543689320388345
s(g151
S'where'
p376
S'studied'
p377
tp378
F0.014563106796116505
s(g58
g59
g197
tp379
F0.0048543689320388345
s(S'currently'
p380
S'employed'
p381
S'as'
p382
tp383
F0.0048543689320388345
s(S'was'
p384
S'received'
p385
S'[[con]]'
p386
tp387
F0.0048543689320388345
s(S'also'
p388
S'received'
p389
S'[[prp]]'
p390
tp391
F0.0048543689320388345
s(S'[[adj]]'
p392
S'assistant'
p393
S'of'
p394
tp395
F0.0048543689320388345
s(S'[[adj]]'
p396
S'student'
p397
S'[[con]]'
p398
tp399
F0.0048543689320388345
s(S'was'
p400
S'employed'
p401
S'to'
p402
tp403
F0.0048543689320388345
s(S'had'
p404
S'worked'
p405
S'with'
p406
tp407
F0.0048543689320388345
s(S'then'
p408
S'worked'
p409
S'under'
p410
tp411
F0.0048543689320388345
s(S'since'
p412
S'worked'
p413
S'with'
p414
tp415
F0.0048543689320388345
s(S'later'
p416
S'worked'
p417
S'[[con]]'
p418
tp419
F0.0048543689320388345
s(S'[[adj]]'
p420
S'worked'
p421
S'as'
p422
tp423
F0.0048543689320388345
s(g103
g17
g18
tp424
F0.0048543689320388345
s(S'has'
p425
S'worked'
p426
S'along'
p427
tp428
F0.0048543689320388345
s(S'have'
p429
S'studied'
p430
S'with'
p431
tp432
F0.0048543689320388345
s(S'also'
p433
S'employed'
p434
S'by'
p435
tp436
F0.0048543689320388345
s(S'where'
p437
S'worked'
p438
S'along'
p439
tp440
F0.0048543689320388345
s(S'was'
p441
S'assistant'
p442
S'of'
p443
tp444
F0.0048543689320388345
s(S'also'
p445
S'received'
p446
S'[[adj]]'
p447
tp448
F0.0048543689320388345
s(S'as'
p449
S'taught'
p450
S'by'
p451
tp452
F0.0048543689320388345
s(g102
g103
g17
tp453
F0.0048543689320388345
s(S'also'
p454
S'received'
p455
S'by'
p456
tp457
F0.0048543689320388345
s(S'[[con]]'
p458
S'studied'
p459
S'under'
p460
tp461
F0.0048543689320388345
s(S'then'
p462
S'received'
p463
S'[[prp]]'
p464
tp465
F0.0048543689320388345
s(S'[[adj]]'
p466
S'employed'
p467
S'by'
p468
tp469
F0.0048543689320388345
s(S'has'
p470
S'worked'
p471
S'again'
p472
tp473
F0.0048543689320388345
s(S'[[prp]]'
p474
S'studies'
p475
g113
tp476
F0.0048543689320388345
s(S'who'
p477
S'received'
p478
S'[[det]]'
p479
tp480
F0.0048543689320388345
s(S'[[det]]'
p481
S'assistant'
p482
S'for'
p483
tp484
F0.0048543689320388345
s(g89
S'study'
p485
S'of'
p486
tp487
F0.0048543689320388345
s(g150
g151
g376
tp488
F0.0048543689320388345
s(S'since'
p489
S'worked'
p490
S'[[con]]'
p491
tp492
F0.0048543689320388345
s(S'[[det]]'
p493
S'student'
p494
S'to'
p495
tp496
F0.0048543689320388345
s(S'first'
p497
S'worked'
p498
S'to'
p499
tp500
F0.0048543689320388345
s(S'then'
p501
S'worked'
p502
S'as'
p503
tp504
F0.0048543689320388345
s(S'[[det]]'
p505
S'student'
p506
S'[[con]]'
p507
tp508
F0.0048543689320388345
s(S'[[con]]'
p509
S'studied'
p510
S'with'
p511
tp512
F0.0048543689320388345
s(S'had'
p513
S'studied'
p514
S'with'
p515
tp516
F0.0048543689320388345
s(S'also'
p517
S'studied'
p518
S'under'
p519
tp520
F0.0048543689320388345
s(S'has'
p521
S'studied'
p522
S'with'
p523
tp524
F0.0048543689320388345
s(S'then'
p525
S'worked'
p526
S'from'
p527
tp528
F0.0048543689320388345
s(S'then'
p529
S'worked'
p530
S'[[con]]'
p531
tp532
F0.0048543689320388345
s(S'began'
p533
g326
g327
tp534
F0.0048543689320388345
s(S'[[prp]]'
p535
S'study'
p536
S'of'
p537
tp538
F0.0048543689320388345
s(S'then'
p539
S'worked'
p540
S'to'
p541
tp542
F0.0048543689320388345
s(S'also'
p543
S'worked'
p544
S'to'
p545
tp546
F0.0048543689320388345
s(S'[[adj]]'
p547
S'study'
p548
S'of'
p549
tp550
F0.0048543689320388345
s(S'continue'
p551
g474
g475
tp552
F0.0048543689320388345
s(S'[[con]]'
p553
S'worked'
p554
S'as'
p555
tp556
F0.0048543689320388345
s(S'was'
p557
S'employed'
p558
S'with'
p559
tp560
F0.0048543689320388345
s(g114
g115
S'with'
p561
tp562
F0.014563106796116505
s(S'[[adj]]'
p563
S'worked'
p564
S'for'
p565
tp566
F0.0048543689320388345
s(S'have'
p567
S'received'
p568
S'from'
p569
tp570
F0.0048543689320388345
s(S'had'
p571
S'received'
p572
S'[[adj]]'
p573
tp574
F0.0048543689320388345
s(S'first'
p575
S'studied'
p576
S'under'
p577
tp578
F0.0048543689320388345
s(S'was'
p579
S'employed'
p580
S'as'
p581
tp582
F0.0048543689320388345
s(S'have'
p583
S'worked'
p584
S'under'
p585
tp586
F0.0048543689320388345
s(g238
g239
S'gave'
p587
tp588
F0.0048543689320388345
s(g327
g57
g58
tp589
F0.0048543689320388345
s(S'also'
p590
S'studied'
p591
S'as'
p592
tp593
F0.0048543689320388345
s(S'to'
p594
g551
g474
tp595
F0.0048543689320388345
s(S'where'
p596
S'received'
p597
S'[[det]]'
p598
tp599
F0.0048543689320388345
s(g239
g587
g245
tp600
F0.0048543689320388345
s(S'[[con]]'
p601
S'worked'
p602
S'mainly'
p603
tp604
F0.0048543689320388345
s(S'had'
p605
S'studied'
p606
S'[[adj]]'
p607
tp608
F0.0048543689320388345
s(g82
g83
S'where'
p609
tp610
F0.0048543689320388345
s(S'[[det]]'
p611
S'student'
p612
S'[[det]]'
p613
tp614
F0.0048543689320388345
s(S'first'
p615
S'worked'
p616
S'with'
p617
tp618
F0.0048543689320388345
s(S'has'
p619
S'worked'
p620
S'as'
p621
tp622
F0.0048543689320388345
s(S'also'
p623
S'worked'
p624
S'under'
p625
tp626
F0.0048543689320388345
s(S'which'
p627
S'received'
p628
S'[[det]]'
p629
tp630
F0.0048543689320388345
s(g247
g594
g551
tp631
F0.0048543689320388345
s(S'also'
p632
S'received'
p633
S'as'
p634
tp635
F0.0048543689320388345
s(S'to'
p636
S'study'
p637
S'[[con]]'
p638
tp639
F0.0048543689320388345
s(g246
g247
g594
tp640
F0.0048543689320388345
s(S'also'
p641
S'studied'
p642
S'[[det]]'
p643
tp644
F0.0048543689320388345
s(S'had'
p645
S'worked'
p646
S'before'
p647
tp648
F0.0048543689320388345
s(S'who'
p649
S'studied'
p650
S'with'
p651
tp652
F0.0048543689320388345
s(S'had'
p653
S'worked'
p654
S'under'
p655
tp656
F0.0048543689320388345
s(S'when'
p657
S'received'
p658
S'[[det]]'
p659
tp660
F0.0048543689320388345
s(S'also'
p661
S'worked'
p662
S'[[con]]'
p663
tp664
F0.0048543689320388345
s(S'has'
p665
S'worked'
p666
S'with'
p667
tp668
F0.0048543689320388345
s(S'has'
p669
S'worked'
p670
S'together'
p671
tp672
F0.0048543689320388345
s(S'is'
p673
S'employed'
p674
S'by'
p675
tp676
F0.0048543689320388345
s(g587
g245
g246
tp677
F0.0048543689320388345
s(S'had'
p678
S'worked'
p679
S'to'
p680
tp681
F0.0048543689320388345
s(S'was'
p682
S'taught'
p683
S'from'
p684
tp685
F0.0048543689320388345
s(S'later'
p686
S'worked'
p687
S'with'
p688
tp689
F0.0048543689320388345
s(S'currently'
p690
S'employed'
p691
S'in'
p692
tp693
F0.0048543689320388345
s(S'received'
p694
g81
g82
tp695
F0.0048543689320388345
s(S'also'
p696
S'worked'
p697
S'as'
p698
tp699
F0.0048543689320388345
s(S'[[det]]'
p700
S'assistant'
p701
S'[[con]]'
p702
tp703
F0.0048543689320388345
s(S'[[con]]'
p704
S'worked'
p705
S'with'
p706
tp707
F0.0048543689320388345
s(g475
g113
g114
tp708
F0.0048543689320388345
s(S'also'
p709
S'worked'
p710
S'by'
p711
tp712
F0.0048543689320388345
s(S'studied'
p713
S'[[adj]]'
p714
S'history'
p715
tp716
F0.0048543689320388345
s(S'who'
p717
S'worked'
p718
S'with'
p719
tp720
F0.0048543689320388345
s(S'then'
p721
S'worked'
p722
S'where'
p723
tp724
F0.0048543689320388345
s(S'was'
p725
S'taught'
p726
S'by'
p727
tp728
F0.0048543689320388345
s(S'where'
p729
S'studied'
p730
S'with'
p731
tp732
F0.014563106796116505
s(S'[[mod]]'
p733
S'study'
p734
S'under'
p735
tp736
F0.0048543689320388345
s(S'[[det]]'
p737
S'assistant'
p738
S'to'
p739
tp740
F0.0048543689320388345
s.