(dp0
(S'to'
p1
S'form'
p2
S'[[det]]'
p3
tp4
F0.018518518518518517
s(S'[[num]]'
p5
S'colleges'
p6
S'of'
p7
tp8
F0.018518518518518517
s(S'to'
p9
S'form'
p10
S'part'
p11
tp12
F0.018518518518518517
s(S'also'
p13
S'affiliated'
p14
S'with'
p15
tp16
F0.018518518518518517
s(S'been'
p17
S'affiliated'
p18
S'to'
p19
tp20
F0.018518518518518517
s(S'was'
p21
S'established'
p22
S'[[det]]'
p23
tp24
F0.018518518518518517
s(S'[[adj]]'
p25
S'college'
p26
S'[[det]]'
p27
tp28
F0.018518518518518517
s(S'was'
p29
S'established'
p30
S'as'
p31
tp32
F0.018518518518518517
s(S'[[adj]]'
p33
S'college'
p34
S'[[con]]'
p35
tp36
F0.018518518518518517
s(S'[[adj]]'
p37
S'teaching'
p38
S'hospital'
p39
tp40
F0.037037037037037035
s(S'approved'
p41
S'[[con]]'
p42
S'affiliated'
p43
tp44
F0.018518518518518517
s(S'to'
p45
S'form'
p46
S'[[con]]'
p47
tp48
F0.018518518518518517
s(S'[[adj]]'
p49
S'college'
p50
S'affiliated'
p51
tp52
F0.037037037037037035
s(g50
g51
S'to'
p53
tp54
F0.018518518518518517
s(S'is'
p55
S'affiliated'
p56
S'with'
p57
tp58
F0.018518518518518517
s(S'was'
p59
S'established'
p60
S'when'
p61
tp62
F0.018518518518518517
s(S'[[adj]]'
p63
S'form'
p64
S'as'
p65
tp66
F0.018518518518518517
s(S'teaching'
p67
S'hospital'
p68
S'of'
p69
tp70
F0.037037037037037035
s(S'[[con]]'
p71
S'affiliated'
p72
S'with'
p73
tp74
F0.018518518518518517
s(S'became'
p75
S'affiliated'
p76
S'to'
p77
tp78
F0.018518518518518517
s(S'to'
p79
S'form'
p80
S'in'
p81
tp82
F0.018518518518518517
s(S'[[det]]'
p83
S'college'
p84
S'of'
p85
tp86
F0.018518518518518517
s(S'[[adj]]'
p87
S'established'
p88
S'as'
p89
tp90
F0.018518518518518517
s(S'was'
p91
S'established'
p92
S'[[con]]'
p93
tp94
F0.018518518518518517
s(S'[[adj]]'
p95
S'college'
p96
S'of'
p97
tp98
F0.018518518518518517
s(S'to'
p99
S'form'
p100
S'[[num]]'
p101
tp102
F0.018518518518518517
s(g38
g39
S'for'
p103
tp104
F0.037037037037037035
s(S'[[adj]]'
p105
S'venture'
p106
S'between'
p107
tp108
F0.018518518518518517
s(S'college'
p109
S'affiliated'
p110
S'with'
p111
tp112
F0.018518518518518517
s(S'[[adj]]'
p113
S'venture'
p114
S'of'
p115
tp116
F0.018518518518518517
s(S'[[det]]'
p117
S'college'
p118
S'at'
p119
tp120
F0.018518518518518517
s(S'to'
p121
S'form'
p122
S'of'
p123
tp124
F0.018518518518518517
s(S'is'
p125
S'affiliated'
p126
S'to'
p127
tp128
F0.018518518518518517
s(S'not'
p129
S'affiliated'
p130
S'with'
p131
tp132
F0.018518518518518517
s(S'was'
p133
S'established'
p134
S'under'
p135
tp136
F0.018518518518518517
s(S'be'
p137
S'established'
p138
S'after'
p139
tp140
F0.018518518518518517
s(S'[[adj]]'
p141
S'colleges'
p142
S'of'
p143
tp144
F0.018518518518518517
s(S'[[adj]]'
p145
S'college'
p146
S'at'
p147
tp148
F0.018518518518518517
s(S'was'
p149
S'affiliated'
p150
S'to'
p151
tp152
F0.018518518518518517
s(S'[[adj]]'
p153
S'venture'
p154
S'[[con]]'
p155
tp156
F0.018518518518518517
s(S'is'
p157
g41
g42
tp158
F0.018518518518518517
s(S'became'
p159
S'affiliated'
p160
S'with'
p161
tp162
F0.018518518518518517
s(g42
g43
S'to'
p163
tp164
F0.018518518518518517
s(S'was'
p165
S'established'
p166
S'at'
p167
tp168
F0.018518518518518517
s(S'[[det]]'
p169
S'teaching'
p170
S'hospital'
p171
tp172
F0.037037037037037035
s(S'[[adj]]'
p173
S'venture'
p174
S'with'
p175
tp176
F0.018518518518518517
s(S'was'
p177
S'established'
p178
S'by'
p179
tp180
F0.018518518518518517
s(S'[[num]]'
p181
S'colleges'
p182
S'in'
p183
tp184
F0.018518518518518517
s(S'[[det]]'
p185
S'established'
p186
S'in'
p187
tp188
F0.018518518518518517
s.