(dp0
(S'by'
p1
S'[[det]]'
p2
S'album'
p3
tp4
F0.008264462809917356
s(S'[[num]]'
p5
S'album'
p6
S'in'
p7
tp8
F0.008264462809917356
s(S'was'
p9
S'released'
p10
S'as'
p11
tp12
F0.008264462809917356
s(S'released'
p13
S'on'
p14
S'[[det]]'
p15
tp16
F0.008264462809917356
s(S'from'
p17
S'[[adj]]'
p18
S'album'
p19
tp20
F0.03305785123966942
s(S'[[adj]]'
p21
S'song'
p22
S'from'
p23
tp24
F0.01652892561983471
s(S'[[adj]]'
p25
S'album'
p26
S'on'
p27
tp28
F0.008264462809917356
s(S'[[det]]'
p29
S'song'
p30
S'featured'
p31
tp32
F0.008264462809917356
s(g30
g31
S'on'
p33
tp34
F0.008264462809917356
s(S'song'
p35
S'from'
p36
S'[[prp]]'
p37
tp38
F0.01652892561983471
s(S'as'
p39
S'[[adj]]'
p40
S'album'
p41
tp42
F0.01652892561983471
s(S'released'
p43
S'from'
p44
S'[[det]]'
p45
tp46
F0.01652892561983471
s(S'from'
p47
S'[[prp]]'
p48
S'album'
p49
tp50
F0.01652892561983471
s(S'from'
p51
S'[[num]]'
p52
S'album'
p53
tp54
F0.024793388429752067
s(S'released'
p55
S'from'
p56
S'[[num]]'
p57
tp58
F0.008264462809917356
s(S'[[adj]]'
p59
S'album'
p60
S'[[con]]'
p61
tp62
F0.008264462809917356
s(S'[[adj]]'
p63
S'album'
p64
S'from'
p65
tp66
F0.008264462809917356
s(S'[[det]]'
p67
S'album'
p68
S'released'
p69
tp70
F0.008264462809917356
s(S'released'
p71
g39
g40
tp72
F0.01652892561983471
s(S'song'
p73
S'from'
p74
S'[[det]]'
p75
tp76
F0.008264462809917356
s(S'band'
p77
g71
g39
tp78
F0.008264462809917356
s(S'is'
p79
S'featured'
p80
S'on'
p81
tp82
F0.008264462809917356
s(S'[[adj]]'
p83
S'album'
p84
S'after'
p85
tp86
F0.008264462809917356
s(S'on'
p87
S'[[num]]'
p88
S'album'
p89
tp90
F0.03305785123966942
s(S'song'
p91
S'by'
p92
S'band'
p93
tp94
F0.008264462809917356
s(S'[[det]]'
p95
S'album'
p96
S'[[con]]'
p97
tp98
F0.008264462809917356
s(S'song'
p99
g51
g52
tp100
F0.008264462809917356
s(S'[[det]]'
p101
S'song'
p102
S'[[num]]'
p103
tp104
F0.008264462809917356
s(S'song'
p105
g17
g18
tp106
F0.01652892561983471
s(S'[[num]]'
p107
S'album'
p108
S'[[num]]'
p109
tp110
F0.008264462809917356
s(S'by'
p111
S'rock'
p112
S'band'
p113
tp114
F0.008264462809917356
s(S'[[con]]'
p115
g79
g80
tp116
F0.008264462809917356
s(g74
g75
S'album'
p117
tp118
F0.024793388429752067
s(g113
S'from'
p119
S'[[num]]'
p120
tp121
F0.008264462809917356
s(S'in'
p122
S'[[adj]]'
p123
S'album'
p124
tp125
F0.008264462809917356
s(S'song'
p126
g115
g79
tp127
F0.008264462809917356
s(g36
g37
S'debut'
p128
tp129
F0.008264462809917356
s(g14
g15
S'album'
p130
tp131
F0.008264462809917356
s(S'[[num]]'
p132
S'album'
p133
S'[[det]]'
p134
tp135
F0.008264462809917356
s(g80
g81
S'[[prp]]'
p136
tp137
F0.008264462809917356
s(S'released'
p138
S'on'
p139
S'[[num]]'
p140
tp141
F0.008264462809917356
s(S'[[det]]'
p142
S'song'
p143
S'by'
p144
tp145
F0.049586776859504134
s(S'[[con]]'
p146
S'[[num]]'
p147
S'album'
p148
tp149
F0.008264462809917356
s(S'[[adj]]'
p150
g43
g44
tp151
F0.03305785123966942
s(S'[[adj]]'
p152
S'album'
p153
S'since'
p154
tp155
F0.008264462809917356
s(S'[[adj]]'
p156
S'album'
p157
S'[[det]]'
p158
tp159
F0.008264462809917356
s(g92
g93
S'featured'
p160
tp161
F0.008264462809917356
s(S'was'
p162
g13
g14
tp163
F0.01652892561983471
s(g143
g144
S'[[num]]'
p164
tp165
F0.008264462809917356
s(S'[[det]]'
p166
S'rock'
p167
g77
tp168
F0.008264462809917356
s(S'[[det]]'
p169
S'album'
p170
S'as'
p171
tp172
F0.008264462809917356
s(S'released'
p173
g122
g123
tp174
F0.008264462809917356
s(S'released'
p175
S'from'
p176
S'[[adj]]'
p177
tp178
F0.01652892561983471
s(g102
g103
S'album'
p179
tp180
F0.008264462809917356
s(S'album'
p181
S'released'
p182
S'in'
p183
tp184
F0.008264462809917356
s(g144
g164
S'album'
p185
tp186
F0.008264462809917356
s(S'best'
p187
S'album'
p188
S'since'
p189
tp190
F0.008264462809917356
s(S'song'
p191
g111
g112
tp192
F0.008264462809917356
s(g112
g113
g119
tp193
F0.008264462809917356
s(S'song'
p194
S'by'
p195
S'featured'
p196
tp197
F0.008264462809917356
s(S'[[det]]'
p198
S'song'
p199
S'of'
p200
tp201
F0.008264462809917356
s(S'be'
p202
S'released'
p203
S'from'
p204
tp205
F0.008264462809917356
s(g93
g160
g87
tp206
F0.008264462809917356
s(S'[[det]]'
p207
S'album'
p208
S'was'
p209
tp210
F0.008264462809917356
s(S'[[det]]'
p211
g105
g17
tp212
F0.049586776859504134
s(S'by'
p213
g166
g167
tp214
F0.008264462809917356
s(g167
g77
g71
tp215
F0.008264462809917356
s(S'[[adj]]'
p216
g181
g182
tp217
F0.01652892561983471
s(S'was'
p218
S'released'
p219
S'from'
p220
tp221
F0.01652892561983471
s(S'[[adj]]'
p222
S'song'
p223
S'on'
p224
tp225
F0.008264462809917356
s(g81
g136
S'debut'
p226
tp227
F0.008264462809917356
s(S'[[det]]'
p228
S'song'
p229
g146
tp230
F0.024793388429752067
s(S'was'
p231
g173
g122
tp232
F0.008264462809917356
s(g229
g146
g147
tp233
F0.008264462809917356
s(g195
g196
S'on'
p234
tp235
F0.008264462809917356
s(g160
g87
g88
tp236
F0.024793388429752067
s(S'[[adj]]'
p237
S'album'
p238
S'[[num]]'
p239
tp240
F0.008264462809917356
s(S'song'
p241
g1
g2
tp242
F0.01652892561983471
s(g203
g204
S'album'
p243
tp244
F0.008264462809917356
s(S'released'
p245
g47
g48
tp246
F0.008264462809917356
s(g37
g128
S'album'
p247
tp248
F0.01652892561983471
s.