(dp0
(S'be'
p1
S'appointed'
p2
S'[[det]]'
p3
tp4
F0.00847457627118644
s(S'appointed'
p5
S'[[det]]'
p6
S'recommendation'
p7
tp8
F0.00847457627118644
s(S'been'
p9
S'nominated'
p10
S'[[con]]'
p11
tp12
F0.00847457627118644
s(S'is'
p13
S'appointed'
p14
S'as'
p15
tp16
F0.00847457627118644
s(S'being'
p17
S'appointed'
p18
S'to'
p19
tp20
F0.00847457627118644
s(S'again'
p21
S'nominated'
p22
S'for'
p23
tp24
F0.00847457627118644
s(S'was'
p25
S'appointed'
p26
S'[[con]]'
p27
tp28
F0.00847457627118644
s(S'was'
p29
S'nominated'
p30
S'by'
p31
tp32
F0.00847457627118644
s(S'had'
p33
S'appointed'
p34
S'to'
p35
tp36
F0.00847457627118644
s(S'then'
p37
S'appointed'
p38
S'by'
p39
tp40
F0.00847457627118644
s(S'summoned'
p41
S'[[det]]'
p42
S'advice'
p43
tp44
F0.00847457627118644
s(S'were'
p45
S'appointed'
p46
S'by'
p47
tp48
F0.00847457627118644
s(S'had'
p49
S'appointed'
p50
S'in'
p51
tp52
F0.00847457627118644
s(S'division'
p53
S'[[det]]'
p54
S'advice'
p55
tp56
F0.00847457627118644
s(S'is'
p57
S'appointed'
p58
S'after'
p59
tp60
F0.00847457627118644
s(S'been'
p61
S'appointed'
p62
S'to'
p63
tp64
F0.00847457627118644
s(S'later'
p65
S'appointed'
p66
S'[[con]]'
p67
tp68
F0.00847457627118644
s(S'been'
p69
S'nominated'
p70
S'as'
p71
tp72
F0.00847457627118644
s(S'was'
p73
S'appointed'
p74
S'by'
p75
tp76
F0.00847457627118644
s(S'was'
p77
S'appointed'
p78
S'to'
p79
tp80
F0.01694915254237288
s(S'later'
p81
S'appointed'
p82
S'as'
p83
tp84
F0.00847457627118644
s(S'later'
p85
S'appointed'
p86
S'[[det]]'
p87
tp88
F0.00847457627118644
s(S'[[con]]'
p89
S'appointed'
p90
S'[[pro]]'
p91
tp92
F0.00847457627118644
s(S'then'
p93
S'appointed'
p94
S'to'
p95
tp96
F0.00847457627118644
s(S'was'
p97
S'appointed'
p98
S'under'
p99
tp100
F0.00847457627118644
s(S'later'
p101
S'appointed'
p102
S'by'
p103
tp104
F0.00847457627118644
s(S'been'
p105
S'appointed'
p106
S'as'
p107
tp108
F0.00847457627118644
s(S'been'
p109
S'appointed'
p110
S'by'
p111
tp112
F0.00847457627118644
s(S'summoned'
p113
S'representing'
p114
S'[[det]]'
p115
tp116
F0.00847457627118644
s(S'was'
p117
S'nominated'
p118
S'[[num]]'
p119
tp120
F0.00847457627118644
s(g114
g115
S'[[adj]]'
p121
tp122
F0.00847457627118644
s(g121
g53
g54
tp123
F0.00847457627118644
s(S'is'
p124
S'appointed'
p125
S'on'
p126
tp127
F0.00847457627118644
s(S'is'
p128
S'nominated'
p129
S'for'
p130
tp131
F0.00847457627118644
s(S'is'
p132
S'appointed'
p133
S'[[det]]'
p134
tp135
F0.00847457627118644
s(g115
g121
g53
tp136
F0.00847457627118644
s(S'being'
p137
S'appointed'
p138
S'[[det]]'
p139
tp140
F0.00847457627118644
s(g54
g55
S'of'
p141
tp142
F0.0423728813559322
s(S'who'
p143
S'appointed'
p144
S'[[det]]'
p145
tp146
F0.00847457627118644
s(S'also'
p147
S'appointed'
p148
S'[[con]]'
p149
tp150
F0.00847457627118644
s(S'was'
p151
g113
g114
tp152
F0.00847457627118644
s(S'on'
p153
S'[[det]]'
p154
S'advice'
p155
tp156
F0.01694915254237288
s(S'is'
p157
S'nominated'
p158
S'by'
p159
tp160
F0.00847457627118644
s(S'had'
p161
S'nominated'
p162
S'[[con]]'
p163
tp164
F0.00847457627118644
s(S'[[con]]'
p165
S'appointed'
p166
S'as'
p167
tp168
F0.00847457627118644
s(g43
S'of'
p169
S'representing'
p170
tp171
F0.00847457627118644
s(S'appointed'
p172
S'on'
p173
S'[[det]]'
p174
tp175
F0.025423728813559324
s(S'be'
p176
S'appointed'
p177
S'to'
p178
tp179
F0.00847457627118644
s(S'[[adj]]'
p180
S'appointed'
p181
S'by'
p182
tp183
F0.00847457627118644
s(S'was'
p184
S'nominated'
p185
S'again'
p186
tp187
F0.00847457627118644
s(S'also'
p188
S'appointed'
p189
S'by'
p190
tp191
F0.00847457627118644
s(g78
g79
S'[[det]]'
p192
tp193
F0.01694915254237288
s(S'first'
p194
S'appointed'
p195
S'by'
p196
tp197
F0.00847457627118644
s(S'had'
p198
S'appointed'
p199
S'as'
p200
tp201
F0.00847457627118644
s(g174
S'recommendation'
p202
S'of'
p203
tp204
F0.025423728813559324
s(S'later'
p205
S'appointed'
p206
S'of'
p207
tp208
F0.00847457627118644
s(S'was'
p209
S'nominated'
p210
S'with'
p211
tp212
F0.00847457627118644
s(S'[[det]]'
p213
S'appointed'
p214
S'[[con]]'
p215
tp216
F0.00847457627118644
s(S'also'
p217
S'appointed'
p218
S'as'
p219
tp220
F0.00847457627118644
s(S'was'
p221
g41
g42
tp222
F0.00847457627118644
s(S'be'
p223
S'nominated'
p224
S'as'
p225
tp226
F0.00847457627118644
s(S'be'
p227
S'nominated'
p228
S'for'
p229
tp230
F0.00847457627118644
s(S'was'
p231
S'appointed'
p232
S'[[adj]]'
p233
tp234
F0.00847457627118644
s(g79
g192
S'recommendation'
p235
tp236
F0.00847457627118644
s(S'[[det]]'
p237
S'appointed'
p238
S'by'
p239
tp240
F0.00847457627118644
s(S'also'
p241
S'nominated'
p242
S'as'
p243
tp244
F0.00847457627118644
s(S'be'
p245
S'appointed'
p246
S'as'
p247
tp248
F0.00847457627118644
s(S'to'
p249
S'[[det]]'
p250
S'advice'
p251
tp252
F0.00847457627118644
s(S'being'
p253
S'appointed'
p254
S'by'
p255
tp256
F0.00847457627118644
s(S'again'
p257
S'appointed'
p258
S'[[det]]'
p259
tp260
F0.00847457627118644
s(S'was'
p261
S'appointed'
p262
S'first'
p263
tp264
F0.00847457627118644
s(S'be'
p265
S'appointed'
p266
S'[[con]]'
p267
tp268
F0.00847457627118644
s(S'being'
p269
S'appointed'
p270
S'as'
p271
tp272
F0.00847457627118644
s(S'was'
p273
g172
g173
tp274
F0.01694915254237288
s(S'then'
p275
S'appointed'
p276
S'[[det]]'
p277
tp278
F0.00847457627118644
s(S'also'
p279
S'appointed'
p280
S'[[adj]]'
p281
tp282
F0.00847457627118644
s(S'was'
p283
S'appointed'
p284
S'when'
p285
tp286
F0.00847457627118644
s(S'was'
p287
S'nominated'
p288
S'as'
p289
tp290
F0.00847457627118644
s(S'was'
p291
S'appointed'
p292
S'before'
p293
tp294
F0.00847457627118644
s(S'also'
p295
S'appointed'
p296
S'[[det]]'
p297
tp298
F0.00847457627118644
s(S'[[num]]'
p299
S'appointed'
p300
S'by'
p301
tp302
F0.00847457627118644
s(S'was'
p303
S'appointed'
p304
S'[[prp]]'
p305
tp306
F0.00847457627118644
s(S'was'
p307
S'appointed'
p308
S'[[det]]'
p309
tp310
F0.01694915254237288
s(S'be'
p311
S'appointed'
p312
S'by'
p313
tp314
F0.00847457627118644
s(S'was'
p315
S'appointed'
p316
S'after'
p317
tp318
F0.00847457627118644
s(S'also'
p319
S'nominated'
p320
S'by'
p321
tp322
F0.00847457627118644
s(S'had'
p323
S'appointed'
p324
S'[[det]]'
p325
tp326
F0.00847457627118644
s(S'first'
p327
S'appointed'
p328
S'when'
p329
tp330
F0.00847457627118644
s(S'was'
p331
S'appointed'
p332
S'as'
p333
tp334
F0.00847457627118644
s(S'was'
p335
S'appointed'
p336
S'with'
p337
tp338
F0.00847457627118644
s(S'is'
p339
S'appointed'
p340
S'to'
p341
tp342
F0.00847457627118644
s(S'being'
p343
S'nominated'
p344
S'by'
p345
tp346
F0.00847457627118644
s(S'is'
p347
S'appointed'
p348
S'by'
p349
tp350
F0.00847457627118644
s(g173
g174
g202
tp351
F0.00847457627118644
s(S'was'
p352
S'nominated'
p353
S'to'
p354
tp355
F0.00847457627118644
s(S'then'
p356
S'appointed'
p357
S'as'
p358
tp359
F0.00847457627118644
s(S'was'
p360
S'appointed'
p361
S'where'
p362
tp363
F0.00847457627118644
s(S'been'
p364
S'nominated'
p365
S'by'
p366
tp367
F0.00847457627118644
s(S'[[con]]'
p368
S'appointed'
p369
S'[[det]]'
p370
tp371
F0.00847457627118644
s(S'was'
p372
S'nominated'
p373
S'[[adj]]'
p374
tp375
F0.00847457627118644
s(S'instead'
p376
S'appointed'
p377
S'as'
p378
tp379
F0.00847457627118644
s(S'is'
p380
S'appointed'
p381
S'[[con]]'
p382
tp383
F0.00847457627118644
s(S'then'
p384
S'appointed'
p385
S'[[con]]'
p386
tp387
F0.00847457627118644
s(S'first'
p388
S'appointed'
p389
S'in'
p390
tp391
F0.00847457627118644
s(S'again'
p392
S'appointed'
p393
S'as'
p394
tp395
F0.00847457627118644
s.