(dp0
(S'was'
p1
S'designed'
p2
S'to'
p3
tp4
F0.010752688172043012
s(S'[[adj]]'
p5
S'house'
p6
S'designed'
p7
tp8
F0.010752688172043012
s(S'was'
p9
S'built'
p10
S'for'
p11
tp12
F0.010752688172043012
s(S'was'
p13
S'designed'
p14
S'by'
p15
tp16
F0.0967741935483871
s(S'[[con]]'
p17
S'[[det]]'
p18
S'architect'
p19
tp20
F0.010752688172043012
s(S'be'
p21
S'built'
p22
S'as'
p23
tp24
F0.010752688172043012
s(S'was'
p25
S'built'
p26
S'after'
p27
tp28
F0.010752688172043012
s(S'[[num]]'
p29
S'built'
p30
S'by'
p31
tp32
F0.010752688172043012
s(S'[[num]]'
p33
S'built'
p34
S'for'
p35
tp36
F0.010752688172043012
s(S'was'
p37
S'built'
p38
S'with'
p39
tp40
F0.010752688172043012
s(S'[[adj]]'
p41
S'home'
p42
S'[[con]]'
p43
tp44
F0.010752688172043012
s(S'was'
p45
S'designed'
p46
S'for'
p47
tp48
F0.010752688172043012
s(S'was'
p49
S'built'
p50
S'by'
p51
tp52
F0.043010752688172046
s(S'[[adj]]'
p53
S'home'
p54
S'[[det]]'
p55
tp56
F0.010752688172043012
s(S'was'
p57
S'built'
p58
S'[[num]]'
p59
tp60
F0.010752688172043012
s(S'[[con]]'
p61
S'built'
p62
S'by'
p63
tp64
F0.010752688172043012
s(S'[[det]]'
p65
S'built'
p66
S'for'
p67
tp68
F0.010752688172043012
s(S'[[det]]'
p69
S'built'
p70
S'in'
p71
tp72
F0.010752688172043012
s(S'[[det]]'
p73
S'designed'
p74
S'by'
p75
tp76
F0.010752688172043012
s(S'been'
p77
S'built'
p78
S'for'
p79
tp80
F0.010752688172043012
s(S'designed'
p81
S'by'
p82
S'architects'
p83
tp84
F0.03225806451612903
s(S'[[adj]]'
p85
S'built'
p86
S'for'
p87
tp88
F0.010752688172043012
s(S'[[adj]]'
p89
S'designed'
p90
S'by'
p91
tp92
F0.010752688172043012
s(S'is'
p93
S'built'
p94
S'by'
p95
tp96
F0.010752688172043012
s(S'[[adj]]'
p97
S'home'
p98
S'for'
p99
tp100
F0.010752688172043012
s(S'built'
p101
S'by'
p102
S'architect'
p103
tp104
F0.010752688172043012
s(S'[[adj]]'
p105
S'home'
p106
S'at'
p107
tp108
F0.010752688172043012
s(S'been'
p109
S'designed'
p110
S'by'
p111
tp112
F0.010752688172043012
s(S'be'
p113
S'built'
p114
S'by'
p115
tp116
F0.010752688172043012
s(S'is'
p117
S'built'
p118
S'at'
p119
tp120
F0.010752688172043012
s(S'built'
p121
S'by'
p122
S'[[det]]'
p123
tp124
F0.010752688172043012
s(S'were'
p125
S'built'
p126
S'by'
p127
tp128
F0.010752688172043012
s(S'[[adj]]'
p129
S'built'
p130
S'by'
p131
tp132
F0.010752688172043012
s(S'architect'
p133
S'who'
p134
S'also'
p135
tp136
F0.010752688172043012
s(S'designed'
p137
S'by'
p138
S'architect'
p139
tp140
F0.053763440860215055
s(S'been'
p141
S'built'
p142
S'by'
p143
tp144
F0.010752688172043012
s(S'is'
p145
S'home'
p146
S'[[det]]'
p147
tp148
F0.010752688172043012
s(S'designed'
p149
S'by'
p150
S'[[det]]'
p151
tp152
F0.021505376344086023
s(S'by'
p153
S'architect'
p154
S'of'
p155
tp156
F0.010752688172043012
s(S'was'
p157
S'designed'
p158
S'[[con]]'
p159
tp160
F0.010752688172043012
s(S'is'
p161
S'built'
p162
S'up'
p163
tp164
F0.010752688172043012
s(S'was'
p165
S'built'
p166
S'over'
p167
tp168
F0.010752688172043012
s(S'designed'
p169
S'by'
p170
S'[[adj]]'
p171
tp172
F0.010752688172043012
s(S'is'
p173
S'[[det]]'
p174
S'home'
p175
tp176
F0.010752688172043012
s(g82
g83
S'[[con]]'
p177
tp178
F0.021505376344086023
s(S'built'
p179
g17
g18
tp180
F0.010752688172043012
s(S'once'
p181
S'home'
p182
S'to'
p183
tp184
F0.010752688172043012
s(S'by'
p185
g133
g134
tp186
F0.010752688172043012
s(S'also'
p187
S'known'
p188
g173
tp189
F0.010752688172043012
s(S'was'
p190
S'built'
p191
S'[[con]]'
p192
tp193
F0.021505376344086023
s(S'[[num]]'
p194
S'designed'
p195
S'by'
p196
tp197
F0.010752688172043012
s(S'was'
p198
S'built'
p199
S'around'
p200
tp201
F0.010752688172043012
s(g134
g135
S'designed'
p202
tp203
F0.010752688172043012
s(S'built'
p204
S'by'
p205
S'[[adj]]'
p206
tp207
F0.010752688172043012
s(S'also'
p208
S'built'
p209
S'by'
p210
tp211
F0.010752688172043012
s(S'was'
p212
S'built'
p213
S'between'
p214
tp215
F0.010752688172043012
s(S'by'
p216
S'[[det]]'
p217
S'architects'
p218
tp219
F0.010752688172043012
s(S'were'
p220
S'designed'
p221
S'by'
p222
tp223
F0.021505376344086023
s(g6
g7
S'by'
p224
tp225
F0.010752688172043012
s(g150
g151
S'architect'
p226
tp227
F0.021505376344086023
s(S'[[det]]'
p228
S'built'
p229
S'by'
p230
tp231
F0.010752688172043012
s(S'[[det]]'
p232
S'home'
p233
S'from'
p234
tp235
F0.010752688172043012
s(S'designed'
p236
S'by'
p237
S'noted'
p238
tp239
F0.010752688172043012
s(S'were'
p240
S'built'
p241
S'for'
p242
tp243
F0.010752688172043012
s(g170
g171
S'architect'
p244
tp245
F0.021505376344086023
s(S'was'
p246
S'built'
p247
S'as'
p248
tp249
F0.010752688172043012
s(g135
g202
S'[[det]]'
p250
tp251
F0.010752688172043012
s(S'is'
p252
S'designed'
p253
S'by'
p254
tp255
F0.010752688172043012
s(S'was'
p256
S'designed'
p257
S'with'
p258
tp259
F0.010752688172043012
s(g188
g173
g174
tp260
F0.010752688172043012
s.