(dp0
(S'is'
p1
S'produced'
p2
S'in'
p3
tp4
F0.021739130434782608
s(S'was'
p5
S'sold'
p6
S'in'
p7
tp8
F0.021739130434782608
s(S'was'
p9
S'produced'
p10
S'[[con]]'
p11
tp12
F0.021739130434782608
s(S'was'
p13
S'built'
p14
S'[[num]]'
p15
tp16
F0.021739130434782608
s(S'was'
p17
S'built'
p18
S'at'
p19
tp20
F0.021739130434782608
s(S'[[con]]'
p21
S'manufactured'
p22
S'in'
p23
tp24
F0.021739130434782608
s(S'was'
p25
S'launched'
p26
S'[[num]]'
p27
tp28
F0.021739130434782608
s(S'was'
p29
S'assembled'
p30
S'in'
p31
tp32
F0.021739130434782608
s(S'[[det]]'
p33
S'built'
p34
S'by'
p35
tp36
F0.021739130434782608
s(S'was'
p37
S'produced'
p38
S'in'
p39
tp40
F0.021739130434782608
s(S'is'
p41
S'launched'
p42
S'from'
p43
tp44
F0.021739130434782608
s(S'was'
p45
S'built'
p46
S'near'
p47
tp48
F0.021739130434782608
s(S'being'
p49
S'produced'
p50
S'in'
p51
tp52
F0.021739130434782608
s(S'was'
p53
S'built'
p54
S'in'
p55
tp56
F0.021739130434782608
s(S'[[adj]]'
p57
S'sold'
p58
S'in'
p59
tp60
F0.021739130434782608
s(S'is'
p61
S'manufactured'
p62
S'in'
p63
tp64
F0.021739130434782608
s(S'be'
p65
S'sold'
p66
S'in'
p67
tp68
F0.021739130434782608
s(S'was'
p69
S'produced'
p70
S'at'
p71
tp72
F0.021739130434782608
s(S'is'
p73
S'built'
p74
S'in'
p75
tp76
F0.021739130434782608
s(S'was'
p77
S'manufactured'
p78
S'in'
p79
tp80
F0.021739130434782608
s(S'was'
p81
S'launched'
p82
S'on'
p83
tp84
F0.021739130434782608
s(S'was'
p85
S'built'
p86
S'[[det]]'
p87
tp88
F0.021739130434782608
s(S'were'
p89
S'built'
p90
S'in'
p91
tp92
F0.021739130434782608
s(S'was'
p93
S'launched'
p94
S'by'
p95
tp96
F0.021739130434782608
s(S'be'
p97
S'launched'
p98
S'in'
p99
tp100
F0.021739130434782608
s(S'were'
p101
S'built'
p102
S'by'
p103
tp104
F0.021739130434782608
s(S'been'
p105
S'built'
p106
S'in'
p107
tp108
F0.021739130434782608
s(S'[[adj]]'
p109
S'built'
p110
S'in'
p111
tp112
F0.021739130434782608
s(S'is'
p113
S'produced'
p114
S'[[con]]'
p115
tp116
F0.021739130434782608
s(S'been'
p117
S'built'
p118
S'along'
p119
tp120
F0.021739130434782608
s(S'been'
p121
S'sold'
p122
S'in'
p123
tp124
F0.021739130434782608
s(S'was'
p125
S'launched'
p126
S'in'
p127
tp128
F0.021739130434782608
s(S'be'
p129
S'built'
p130
S'in'
p131
tp132
F0.021739130434782608
s(S'is'
p133
S'launched'
p134
S'in'
p135
tp136
F0.021739130434782608
s(S'was'
p137
S'launched'
p138
S'from'
p139
tp140
F0.021739130434782608
s(S'is'
p141
S'sold'
p142
S'in'
p143
tp144
F0.021739130434782608
s(S'was'
p145
S'imported'
p146
S'from'
p147
tp148
F0.021739130434782608
s(S'first'
p149
S'produced'
p150
S'at'
p151
tp152
F0.021739130434782608
s(S'was'
p153
S'sold'
p154
S'[[num]]'
p155
tp156
F0.021739130434782608
s(S'is'
p157
S'built'
p158
S'[[con]]'
p159
tp160
F0.021739130434782608
s(S'then'
p161
S'produced'
p162
S'at'
p163
tp164
F0.021739130434782608
s(S'been'
p165
S'produced'
p166
S'in'
p167
tp168
F0.021739130434782608
s(S'is'
p169
S'produced'
p170
S'at'
p171
tp172
F0.021739130434782608
s(S'also'
p173
S'sold'
p174
S'in'
p175
tp176
F0.021739130434782608
s(S'[[num]]'
p177
S'built'
p178
S'in'
p179
tp180
F0.021739130434782608
s(S'[[det]]'
p181
S'length'
p182
S'of'
p183
tp184
F0.021739130434782608
s.