(dp0
(S'only'
p1
S'played'
p2
S'twice'
p3
tp4
F0.0008944543828264759
s(S'then'
p5
S'played'
p6
S'with'
p7
tp8
F0.0008944543828264759
s(S'[[det]]'
p9
S'member'
p10
S'at'
p11
tp12
F0.0008944543828264759
s(S'again'
p13
S'played'
p14
S'against'
p15
tp16
F0.0008944543828264759
s(S'who'
p17
S'played'
p18
S'in'
p19
tp20
F0.0008944543828264759
s(S'then'
p21
S'earned'
p22
S'from'
p23
tp24
F0.0008944543828264759
s(S'[[adj]]'
p25
S'starred'
p26
S'in'
p27
tp28
F0.0008944543828264759
s(S'to'
p29
S'win'
p30
S'of'
p31
tp32
F0.0008944543828264759
s(S'was'
p33
S'invested'
p34
S'with'
p35
tp36
F0.0008944543828264759
s(S'was'
p37
S'awarded'
p38
S'in'
p39
tp40
F0.0008944543828264759
s(S'later'
p41
S'played'
p42
S'twice'
p43
tp44
F0.0008944543828264759
s(S'[[mod]]'
p45
S'win'
p46
S'[[num]]'
p47
tp48
F0.0008944543828264759
s(S'first'
p49
S'played'
p50
S'at'
p51
tp52
F0.0008944543828264759
s(S'also'
p53
S'received'
p54
S'[[num]]'
p55
tp56
F0.0008944543828264759
s(S'[[con]]'
p57
S'received'
p58
S'[[det]]'
p59
tp60
F0.0008944543828264759
s(S'been'
p61
S'nominated'
p62
S'as'
p63
tp64
F0.0008944543828264759
s(S'was'
p65
S'named'
p66
S'at'
p67
tp68
F0.0008944543828264759
s(S'be'
p69
S'buried'
p70
S'in'
p71
tp72
F0.0008944543828264759
s(S'also'
p73
S'selected'
p74
S'as'
p75
tp76
F0.0008944543828264759
s(S'member'
p77
S'that'
p78
S'won'
p79
tp80
F0.0017889087656529517
s(S'had'
p81
S'signed'
p82
S'from'
p83
tp84
F0.0008944543828264759
s(S'to'
p85
S'win'
p86
S'[[num]]'
p87
tp88
F0.0008944543828264759
s(S'later'
p89
S'promoted'
p90
S'to'
p91
tp92
F0.0008944543828264759
s(S'was'
p93
S'buried'
p94
S'at'
p95
tp96
F0.0008944543828264759
s(S'[[num]]'
p97
S'films'
p98
S'from'
p99
tp100
F0.0008944543828264759
s(S'had'
p101
S'starred'
p102
S'in'
p103
tp104
F0.0008944543828264759
s(S'[[adj]]'
p105
S'film'
p106
S'with'
p107
tp108
F0.0008944543828264759
s(S'to'
p109
S'star'
p110
S'in'
p111
tp112
F0.0008944543828264759
s(S'has'
p113
S'received'
p114
S'for'
p115
tp116
F0.0008944543828264759
s(S'was'
p117
S'buried'
p118
S'in'
p119
tp120
F0.0008944543828264759
s(S'later'
p121
S'led'
p122
S'[[det]]'
p123
tp124
F0.0008944543828264759
s(S'[[adj]]'
p125
S'member'
p126
S'[[det]]'
p127
tp128
F0.0008944543828264759
s(S'also'
p129
S'led'
p130
S'[[det]]'
p131
tp132
F0.0008944543828264759
s(S'born'
p133
S'on'
p134
S'[[adj]]'
p135
tp136
F0.0008944543828264759
s(S'was'
p137
S'playing'
p138
S'[[adj]]'
p139
tp140
F0.0008944543828264759
s(S'[[adj]]'
p141
S'playing'
p142
S'in'
p143
tp144
F0.0008944543828264759
s(S's'
p145
S'film'
p146
S'in'
p147
tp148
F0.0008944543828264759
s(S'was'
p149
S'signed'
p150
S'under'
p151
tp152
F0.0008944543828264759
s(S'had'
p153
S'won'
p154
S'at'
p155
tp156
F0.0008944543828264759
s(S'also'
p157
S'playing'
p158
S'in'
p159
tp160
F0.0008944543828264759
s(S'again'
p161
S'nominated'
p162
S'for'
p163
tp164
F0.0008944543828264759
s(S'[[det]]'
p165
S'member'
p166
S'when'
p167
tp168
F0.0017889087656529517
s(S'then'
p169
S'selected'
p170
S'to'
p171
tp172
F0.0008944543828264759
s(S'appointed'
p173
S'in'
p174
S'[[num]]'
p175
tp176
F0.0008944543828264759
s(S'was'
p177
S'awarded'
p178
S'to'
p179
tp180
F0.0008944543828264759
s(S'later'
p181
S'signed'
p182
S'with'
p183
tp184
F0.0008944543828264759
s(S'[[det]]'
p185
S'member'
p186
S'until'
p187
tp188
F0.0008944543828264759
s(S'has'
p189
S'played'
p190
S'for'
p191
tp192
F0.0008944543828264759
s(S'been'
p193
S'named'
p194
S'by'
p195
tp196
F0.0008944543828264759
s(S'been'
p197
S'awarded'
p198
S'[[num]]'
p199
tp200
F0.0008944543828264759
s(S'[[con]]'
p201
S'signed'
p202
S'for'
p203
tp204
F0.0008944543828264759
s(S'before'
p205
S'playing'
p206
S'for'
p207
tp208
F0.0008944543828264759
s(S'be'
p209
S'named'
p210
S'as'
p211
tp212
F0.0008944543828264759
s(S'then'
p213
S'earned'
p214
S'at'
p215
tp216
F0.0008944543828264759
s(S'[[det]]'
p217
S'films'
p218
S'[[con]]'
p219
tp220
F0.0008944543828264759
s(S'since'
p221
S'played'
p222
S'for'
p223
tp224
F0.0008944543828264759
s(S'has'
p225
S'starred'
p226
S'as'
p227
tp228
F0.0008944543828264759
s(S'were'
p229
S'awarded'
p230
S'from'
p231
tp232
F0.0008944543828264759
s(S'mainly'
p233
S'played'
p234
S'for'
p235
tp236
F0.0008944543828264759
s(S'was'
p237
S'member'
p238
S'for'
p239
tp240
F0.0008944543828264759
s(S'also'
p241
S'won'
p242
S'[[con]]'
p243
tp244
F0.0008944543828264759
s(S'also'
p245
S'signed'
p246
S'with'
p247
tp248
F0.0008944543828264759
s(S'also'
p249
S'named'
p250
S'for'
p251
tp252
F0.0008944543828264759
s(S'after'
p253
S'won'
p254
S'[[det]]'
p255
tp256
F0.0008944543828264759
s(S'was'
p257
S'inducted'
p258
S'as'
p259
tp260
F0.0008944543828264759
s(S'gt'
p261
S'at'
p262
S'[[adj]]'
p263
tp264
F0.0008944543828264759
s(S'member'
p265
S'when'
p266
S'[[pro]]'
p267
tp268
F0.0008944543828264759
s(S'was'
p269
S'born'
p270
S'educated'
p271
tp272
F0.0008944543828264759
s(S'is'
p273
S'member'
p274
S'[[con]]'
p275
tp276
F0.0008944543828264759
s(S'[[num]]'
p277
S'films'
p278
S'[[con]]'
p279
tp280
F0.0008944543828264759
s(S'was'
p281
S'buried'
p282
S'[[adj]]'
p283
tp284
F0.0008944543828264759
s(S'league'
p285
S'appearances'
p286
S'for'
p287
tp288
F0.0008944543828264759
s(S'then'
p289
S'joined'
p290
S'to'
p291
tp292
F0.0008944543828264759
s(S'was'
p293
S'named'
p294
S'by'
p295
tp296
F0.0008944543828264759
s(S'currently'
p297
S'signed'
p298
S'to'
p299
tp300
F0.0008944543828264759
s(S'[[prp]]'
p301
S'work'
p302
S'on'
p303
tp304
F0.0008944543828264759
s(S'was'
p305
S'selected'
p306
S'[[con]]'
p307
tp308
F0.0008944543828264759
s(S'to'
p309
S'win'
p310
S'against'
p311
tp312
F0.0008944543828264759
s(S'also'
p313
S'appointed'
p314
S'[[con]]'
p315
tp316
F0.0008944543828264759
s(S'also'
p317
S'signed'
p318
S'for'
p319
tp320
F0.0008944543828264759
s(S'[[con]]'
p321
S'signed'
p322
S'up'
p323
tp324
F0.0008944543828264759
s(S'also'
p325
S'received'
p326
S'in'
p327
tp328
F0.0008944543828264759
s(S'then'
p329
S'joined'
p330
S'[[adj]]'
p331
tp332
F0.0008944543828264759
s(S'[[adj]]'
p333
S'starred'
p334
S'[[con]]'
p335
tp336
F0.0008944543828264759
s(S'which'
p337
S'led'
p338
S'at'
p339
tp340
F0.0008944543828264759
s(S'had'
p341
S'joined'
p342
S'from'
p343
tp344
F0.0008944543828264759
s(S'formerly'
p345
S'played'
p346
S'[[con]]'
p347
tp348
F0.0008944543828264759
s(S'with'
p349
S'won'
p350
S'[[det]]'
p351
tp352
F0.0008944543828264759
s(S'be'
p353
S'named'
p354
S'to'
p355
tp356
F0.0008944543828264759
s(g145
S'won'
p357
S'[[det]]'
p358
tp359
F0.0008944543828264759
s(S'of'
p360
S'which'
p361
S'won'
p362
tp363
F0.0008944543828264759
s(S'be'
p364
S'awarded'
p365
S'by'
p366
tp367
F0.0008944543828264759
s(S'were'
p368
S'nominated'
p369
S'for'
p370
tp371
F0.0008944543828264759
s(S'been'
p372
S'named'
p373
S'[[det]]'
p374
tp375
F0.0008944543828264759
s(S'formerly'
p376
S'played'
p377
S'for'
p378
tp379
F0.0008944543828264759
s(S'competed'
p380
S'[[det]]'
p381
S'[[num]]'
p382
tp383
F0.0008944543828264759
s(S'also'
p384
S'earned'
p385
S'from'
p386
tp387
F0.0008944543828264759
s(S'only'
p388
S'played'
p389
S'against'
p390
tp391
F0.0008944543828264759
s(S'when'
p392
S'signed'
p393
S'with'
p394
tp395
F0.0008944543828264759
s(S'where'
p396
S'played'
p397
S'against'
p398
tp399
F0.0008944543828264759
s(S'signed'
p400
S'to'
p401
S'[[adj]]'
p402
tp403
F0.0008944543828264759
s(S'was'
p404
S'signed'
p405
S'up'
p406
tp407
F0.0008944543828264759
s(S'at'
p408
S'[[num]]'
p409
S'lt'
p410
tp411
F0.0008944543828264759
s(S'[[con]]'
p412
S'won'
p413
S'[[con]]'
p414
tp415
F0.0008944543828264759
s(S'[[con]]'
p416
S'received'
p417
S'from'
p418
tp419
F0.0008944543828264759
s(S'also'
p420
S'served'
p421
S'with'
p422
tp423
F0.0008944543828264759
s(S'[[adj]]'
p424
S'star'
p425
S'of'
p426
tp427
F0.0008944543828264759
s(S'instead'
p428
S'signed'
p429
S'with'
p430
tp431
F0.0008944543828264759
s(S'also'
p432
S'won'
p433
S'as'
p434
tp435
F0.0008944543828264759
s(S'[[adj]]'
p436
S'film'
p437
S'[[num]]'
p438
tp439
F0.0008944543828264759
s(S'where'
p440
S'received'
p441
S'in'
p442
tp443
F0.0008944543828264759
s(S'while'
p444
S'playing'
p445
S'for'
p446
tp447
F0.0008944543828264759
s(S'was'
p448
S'selected'
p449
S'by'
p450
tp451
F0.0008944543828264759
s(S'twice'
p452
S'nominated'
p453
S'for'
p454
tp455
F0.0008944543828264759
s(S'later'
p456
S'received'
p457
S'in'
p458
tp459
F0.0008944543828264759
s(S'ref'
p460
S'gt'
p461
S'[[num]]'
p462
tp463
F0.0008944543828264759
s(S'[[num]]'
p464
S'times'
p465
S'[[det]]'
p466
tp467
F0.0008944543828264759
s(S'is'
p468
S'signed'
p469
S'to'
p470
tp471
F0.0008944543828264759
s(S'also'
p472
S'selected'
p473
S'in'
p474
tp475
F0.0008944543828264759
s(S'was'
p476
S'buried'
p477
S'[[con]]'
p478
tp479
F0.0008944543828264759
s(S'of'
p480
S'that'
p481
S'won'
p482
tp483
F0.0008944543828264759
s(S'also'
p484
S'finished'
p485
S'at'
p486
tp487
F0.0008944543828264759
s(S'later'
p488
S'received'
p489
S'at'
p490
tp491
F0.0008944543828264759
s(S'also'
p492
S'honored'
p493
S'as'
p494
tp495
F0.0008944543828264759
s(S'was'
p496
S'selected'
p497
S'against'
p498
tp499
F0.0008944543828264759
s(S'also'
p500
S'nominated'
p501
S'on'
p502
tp503
F0.0008944543828264759
s(S'ever'
p504
S'played'
p505
S'for'
p506
tp507
F0.0008944543828264759
s(S'again'
p508
S'named'
p509
S'as'
p510
tp511
F0.0008944543828264759
s(S'has'
p512
S'played'
p513
S'[[det]]'
p514
tp515
F0.0008944543828264759
s(S'[[det]]'
p516
S'received'
p517
S'from'
p518
tp519
F0.0008944543828264759
s(S'from'
p520
S'playing'
p521
S'in'
p522
tp523
F0.0008944543828264759
s(g145
S'film'
p524
S'of'
p525
tp526
F0.0008944543828264759
s(S'[[adj]]'
p527
S'player'
p528
S'by'
p529
tp530
F0.0008944543828264759
s(S'[[num]]'
p531
S'films'
p532
S'of'
p533
tp534
F0.0008944543828264759
s(S'is'
p535
S'selected'
p536
S'as'
p537
tp538
F0.0008944543828264759
s(S'with'
p539
S'joined'
p540
S'[[det]]'
p541
tp542
F0.0008944543828264759
s(S'[[adj]]'
p543
S'film'
p544
S'of'
p545
tp546
F0.0008944543828264759
s(S'be'
p547
S'playing'
p548
S'for'
p549
tp550
F0.0008944543828264759
s(S'was'
p551
S'selected'
p552
S'after'
p553
tp554
F0.0008944543828264759
s(S'was'
p555
S'nominated'
p556
S'as'
p557
tp558
F0.0008944543828264759
s(S'to'
p559
S'played'
p560
S'for'
p561
tp562
F0.0008944543828264759
s(S'be'
p563
S'nominated'
p564
S'for'
p565
tp566
F0.0008944543828264759
s(S'also'
p567
S'earned'
p568
S'[[det]]'
p569
tp570
F0.0008944543828264759
s(S'that'
p571
S'led'
p572
S'[[det]]'
p573
tp574
F0.0008944543828264759
s(S'helped'
p575
S'win'
p576
S'[[det]]'
p577
tp578
F0.0017889087656529517
s(S'[[det]]'
p579
S'lt'
p580
S'ref'
p581
tp582
F0.0017889087656529517
s(S'was'
p583
S'honored'
p584
S'by'
p585
tp586
F0.0008944543828264759
s(S'also'
p587
S'received'
p588
S'to'
p589
tp590
F0.0008944543828264759
s(S'[[adj]]'
p591
S'awarded'
p592
S'by'
p593
tp594
F0.0008944543828264759
s(S'when'
p595
S'won'
p596
S'[[det]]'
p597
tp598
F0.0008944543828264759
s(S'had'
p599
S'received'
p600
S'[[det]]'
p601
tp602
F0.0008944543828264759
s(S'when'
p603
S'signed'
p604
S'for'
p605
tp606
F0.0008944543828264759
s(S'while'
p607
S'joined'
p608
S'[[det]]'
p609
tp610
F0.0008944543828264759
s(S'been'
p611
S'nominated'
p612
S'in'
p613
tp614
F0.0008944543828264759
s(S'[[det]]'
p615
S'award'
p616
g464
tp617
F0.0008944543828264759
s(S'had'
p618
S'played'
p619
S'[[det]]'
p620
tp621
F0.0008944543828264759
s(S'which'
p622
S'won'
p623
S'in'
p624
tp625
F0.0008944543828264759
s(S'[[det]]'
p626
S'star'
p627
S'on'
p628
tp629
F0.0008944543828264759
s(S'back'
p630
S'playing'
p631
S'[[det]]'
p632
tp633
F0.0008944543828264759
s(S'been'
p634
S'honored'
p635
S'[[det]]'
p636
tp637
F0.0008944543828264759
s(S'was'
p638
S'awarded'
p639
S'[[prp]]'
p640
tp641
F0.0008944543828264759
s(S'then'
p642
S'signed'
p643
S'to'
p644
tp645
F0.0008944543828264759
s(S'where'
p646
S'played'
p647
S'for'
p648
tp649
F0.0008944543828264759
s(S'[[adj]]'
p650
S'awarded'
p651
S'[[det]]'
p652
tp653
F0.0008944543828264759
s(S'born'
p654
S'[[con]]'
p655
S'educated'
p656
tp657
F0.0017889087656529517
s(S'then'
p658
S'joined'
p659
S'side'
p660
tp661
F0.0008944543828264759
s(S'had'
p662
S'played'
p663
S'in'
p664
tp665
F0.0008944543828264759
s(g580
g581
S'name'
p666
tp667
F0.0026833631484794273
s(S'with'
p668
S'won'
p669
S'in'
p670
tp671
F0.0008944543828264759
s(S'posthumously'
p672
S'awarded'
p673
S'[[det]]'
p674
tp675
F0.0008944543828264759
s(S'[[mod]]'
p676
S'win'
p677
S'for'
p678
tp679
F0.0008944543828264759
s(S'had'
p680
S'won'
p681
S'as'
p682
tp683
F0.0008944543828264759
s(S'be'
p684
S'signed'
p685
S'by'
p686
tp687
F0.0008944543828264759
s(S'been'
p688
S'named'
p689
S'at'
p690
tp691
F0.0008944543828264759
s(S'since'
p692
S'played'
p693
S'with'
p694
tp695
F0.0008944543828264759
s(S'had'
p696
S'played'
p697
S'with'
p698
tp699
F0.0008944543828264759
s(S'[[det]]'
p700
S'film'
p701
S'on'
p702
tp703
F0.0008944543828264759
s(S'in'
p704
S'films'
p705
S'[[adj]]'
p706
tp707
F0.0008944543828264759
s(S'to'
p708
S'star'
p709
S'at'
p710
tp711
F0.0008944543828264759
s(S'has'
p712
S'starred'
p713
S'[[num]]'
p714
tp715
F0.0008944543828264759
s(S'also'
p716
S'played'
p717
S'with'
p718
tp719
F0.0008944543828264759
s(S'was'
p720
S'playing'
p721
S'against'
p722
tp723
F0.0008944543828264759
s(S'still'
p724
S'playing'
p725
S'for'
p726
tp727
F0.0008944543828264759
s(S'also'
p728
S'nominated'
p729
S'[[con]]'
p730
tp731
F0.0008944543828264759
s(S'has'
p732
S'played'
p733
S'with'
p734
tp735
F0.0008944543828264759
s(S'were'
p736
S'signed'
p737
S'by'
p738
tp739
F0.0008944543828264759
s(S'was'
p740
S'playing'
p741
S'for'
p742
tp743
F0.0008944543828264759
s(S'then'
p744
S'received'
p745
S'from'
p746
tp747
F0.0008944543828264759
s(S'[[det]]'
p748
S'awarded'
p749
S'for'
p750
tp751
F0.0008944543828264759
s(S'has'
p752
S'received'
p753
S'[[det]]'
p754
tp755
F0.0008944543828264759
s(S'was'
p756
S'awarded'
p757
S'after'
p758
tp759
F0.0008944543828264759
s(S'was'
p760
S'signed'
p761
S'on'
p762
tp763
F0.0008944543828264759
s(S'also'
p764
S'selected'
p765
S'[[adj]]'
p766
tp767
F0.0008944543828264759
s(S'also'
p768
S'received'
p769
S'[[con]]'
p770
tp771
F0.0008944543828264759
s(S'[[adj]]'
p772
S'member'
p773
S'as'
p774
tp775
F0.0008944543828264759
s(S'[[adj]]'
p776
S'member'
p777
S'from'
p778
tp779
F0.0008944543828264759
s(S'after'
p780
S'playing'
p781
S'at'
p782
tp783
F0.0008944543828264759
s(S'[[pro]]'
p784
S'played'
p785
S'together'
p786
tp787
F0.0008944543828264759
s(S'formerly'
p788
S'played'
p789
S'in'
p790
tp791
F0.0008944543828264759
s(S'had'
p792
S'won'
p793
S'[[con]]'
p794
tp795
F0.0008944543828264759
s(S'was'
p796
S'nominated'
p797
S'twice'
p798
tp799
F0.0008944543828264759
s(S'was'
p800
S'awarded'
p801
S'with'
p802
tp803
F0.0008944543828264759
s(S'was'
p804
S'appointed'
p805
S'[[det]]'
p806
tp807
F0.0008944543828264759
s(S'was'
p808
S'selected'
p809
S'[[det]]'
p810
tp811
F0.0008944543828264759
s(S'that'
p812
S'played'
p813
S'in'
p814
tp815
F0.0008944543828264759
s(S'then'
p816
S'selected'
p817
S'in'
p818
tp819
F0.0008944543828264759
s(S'were'
p820
S'awarded'
p821
S'in'
p822
tp823
F0.0008944543828264759
s(g145
S'film'
p824
S'[[con]]'
p825
tp826
F0.0008944543828264759
s(S'also'
p827
S'played'
p828
S'before'
p829
tp830
F0.0008944543828264759
s(S'has'
p831
S'received'
p832
S'at'
p833
tp834
F0.0008944543828264759
s(S'was'
p835
S'appointed'
p836
S'during'
p837
tp838
F0.0008944543828264759
s(S'had'
p839
S'signed'
p840
S'to'
p841
tp842
F0.0008944543828264759
s(S'ever'
p843
S'win'
p844
S'[[det]]'
p845
tp846
F0.0008944543828264759
s(S'was'
p847
S'appointed'
p848
S'as'
p849
tp850
F0.0008944543828264759
s(S'been'
p851
S'honored'
p852
S'with'
p853
tp854
F0.0008944543828264759
s(S'also'
p855
S'presented'
p856
S'[[det]]'
p857
tp858
F0.0008944543828264759
s(S'now'
p859
S'playing'
p860
S'for'
p861
tp862
F0.0008944543828264759
s(S'with'
p863
S'played'
p864
S'for'
p865
tp866
F0.0008944543828264759
s(S'who'
p867
S'played'
p868
S'with'
p869
tp870
F0.0008944543828264759
s(S'who'
p871
S'played'
p872
S'for'
p873
tp874
F0.0008944543828264759
s(S'been'
p875
S'nominated'
p876
S'for'
p877
tp878
F0.0008944543828264759
s(S'also'
p879
S'won'
p880
S'[[det]]'
p881
tp882
F0.0008944543828264759
s(S'also'
p883
S'starred'
p884
S'as'
p885
tp886
F0.0008944543828264759
s(S'also'
p887
S'selected'
p888
S'by'
p889
tp890
F0.0008944543828264759
s(S'been'
p891
S'nominated'
p892
S'[[num]]'
p893
tp894
F0.0008944543828264759
s(S'was'
p895
S'member'
p896
S'in'
p897
tp898
F0.0008944543828264759
s(S'also'
p899
S'nominated'
p900
S'by'
p901
tp902
F0.0008944543828264759
s(S'is'
p903
S'named'
p904
S'as'
p905
tp906
F0.0008944543828264759
s(S'[[con]]'
p907
S'played'
p908
S'for'
p909
tp910
F0.0008944543828264759
s(S'been'
p911
S'playing'
p912
S'with'
p913
tp914
F0.0008944543828264759
s(S'then'
p915
S'starred'
p916
S'in'
p917
tp918
F0.0008944543828264759
s(S'[[con]]'
p919
S'starred'
p920
S'in'
p921
tp922
F0.0008944543828264759
s(g145
S'film'
p923
S'[[det]]'
p924
tp925
F0.0008944543828264759
s(S'by'
p926
S'playing'
p927
S'for'
p928
tp929
F0.0008944543828264759
s(S'helped'
p930
S'[[det]]'
p931
S'[[num]]'
p932
tp933
F0.0008944543828264759
s(S'later'
p934
S'joined'
p935
S'[[con]]'
p936
tp937
F0.0008944543828264759
s(S'won'
p938
g615
g616
tp939
F0.0008944543828264759
s(S'[[adj]]'
p940
S'film'
p941
S'[[det]]'
p942
tp943
F0.0008944543828264759
s(S'then'
p944
S'joined'
p945
S'[[num]]'
p946
tp947
F0.0008944543828264759
s(S'ref'
p948
g145
S'[[num]]'
p949
tp950
F0.0008944543828264759
s(S'[[adj]]'
p951
S'films'
p952
S'of'
p953
tp954
F0.0008944543828264759
s(S'[[det]]'
p955
S'member'
p956
S'who'
p957
tp958
F0.0008944543828264759
s(S'[[pro]]'
p959
S'won'
p960
S'[[con]]'
p961
tp962
F0.0008944543828264759
s(S'being'
p963
S'awarded'
p964
S'[[det]]'
p965
tp966
F0.0008944543828264759
s(S'have'
p967
S'played'
p968
S'[[det]]'
p969
tp970
F0.0008944543828264759
s(S'was'
p971
S'presented'
p972
S'for'
p973
tp974
F0.0008944543828264759
s(S'has'
p975
S'played'
p976
S'in'
p977
tp978
F0.0008944543828264759
s(S'be'
p979
S'awarded'
p980
S'[[det]]'
p981
tp982
F0.0008944543828264759
s(S'been'
p983
S'signed'
p984
S'by'
p985
tp986
F0.0008944543828264759
s(S'[[det]]'
p987
S'[[adj]]'
p988
S'deal'
p989
tp990
F0.006261180679785331
s(S'twice'
p991
S'won'
p992
S'[[det]]'
p993
tp994
F0.0008944543828264759
s(S'was'
p995
S'knighted'
p996
S'in'
p997
tp998
F0.0008944543828264759
s(S'directed'
p999
S'[[num]]'
p1000
S'film'
p1001
tp1002
F0.0017889087656529517
s(S'[[adj]]'
p1003
S'member'
p1004
S'during'
p1005
tp1006
F0.0008944543828264759
s(S'was'
p1007
S'[[num]]'
p1008
S'gt'
p1009
tp1010
F0.0026833631484794273
s(S'was'
p1011
S'named'
p1012
S'[[pro]]'
p1013
tp1014
F0.0008944543828264759
s(S'[[adj]]'
p1015
S'win'
p1016
S'on'
p1017
tp1018
F0.0008944543828264759
s(S'been'
p1019
S'playing'
p1020
S'for'
p1021
tp1022
F0.0008944543828264759
s(S'educated'
p1023
S'at'
p1024
S'[[adj]]'
p1025
tp1026
F0.0026833631484794273
s(S'awarded'
p1027
S'[[det]]'
p1028
S'posthumously'
p1029
tp1030
F0.0008944543828264759
s(S'has'
p1031
S'won'
p1032
S'from'
p1033
tp1034
F0.0008944543828264759
s(S'[[adj]]'
p1035
S'named'
p1036
S'by'
p1037
tp1038
F0.0008944543828264759
s(S'then'
p1039
S'signed'
p1040
S'by'
p1041
tp1042
F0.0008944543828264759
s(S'directed'
p1043
S'[[prp]]'
p1044
S'[[adj]]'
p1045
tp1046
F0.0008944543828264759
s(S'while'
p1047
S'played'
p1048
S'for'
p1049
tp1050
F0.0008944543828264759
s(S'[[num]]'
p1051
S'won'
p1052
S'[[det]]'
p1053
tp1054
F0.0008944543828264759
s(S'also'
p1055
S'played'
p1056
S'[[con]]'
p1057
tp1058
F0.0008944543828264759
s(S'be'
p1059
S'promoted'
p1060
S'to'
p1061
tp1062
F0.0008944543828264759
s(S'[[det]]'
p1063
S'member'
p1064
S'from'
p1065
tp1066
F0.0008944543828264759
s(S'[[det]]'
p1067
S'bar'
p1068
S'to'
p1069
tp1070
F0.0008944543828264759
s(S'[[det]]'
p1071
S'member'
p1072
S'which'
p1073
tp1074
F0.0035778175313059034
s(S'[[con]]'
p1075
S'joined'
p1076
S'from'
p1077
tp1078
F0.0008944543828264759
s(S'also'
p1079
S'honored'
p1080
S'in'
p1081
tp1082
F0.0008944543828264759
s(S'also'
p1083
S'starred'
p1084
S'[[con]]'
p1085
tp1086
F0.0008944543828264759
s(S'then'
p1087
S'played'
p1088
S'against'
p1089
tp1090
F0.0008944543828264759
s(S'helped'
p1091
S'[[pro]]'
p1092
S'win'
p1093
tp1094
F0.0008944543828264759
s(S'first'
p1095
S'won'
p1096
S'[[det]]'
p1097
tp1098
F0.0008944543828264759
s(S'was'
p1099
S'honored'
p1100
S'for'
p1101
tp1102
F0.0008944543828264759
s(S'were'
p1103
S'awarded'
p1104
S'[[det]]'
p1105
tp1106
F0.0008944543828264759
s(S'had'
p1107
S'played'
p1108
S'against'
p1109
tp1110
F0.0008944543828264759
s(S'also'
p1111
S'honored'
p1112
S'with'
p1113
tp1114
F0.0008944543828264759
s(S'[[adj]]'
p1115
S'starred'
p1116
S'on'
p1117
tp1118
F0.0008944543828264759
s(S'had'
p1119
S'signed'
p1120
S'[[det]]'
p1121
tp1122
F0.0017889087656529517
s(S'now'
p1123
S'playing'
p1124
S'in'
p1125
tp1126
F0.0008944543828264759
s(S'then'
p1127
S'received'
p1128
S'[[prp]]'
p1129
tp1130
F0.0008944543828264759
s(S'ref'
p1131
S'lt'
p1132
S'ref'
p1133
tp1134
F0.004472271914132379
s(S'[[adj]]'
p1135
S'deal'
p1136
S'[[con]]'
p1137
tp1138
F0.0008944543828264759
s(S'[[adj]]'
p1139
S'playing'
p1140
S'with'
p1141
tp1142
F0.0008944543828264759
s(S'was'
p1143
S'honored'
p1144
S'to'
p1145
tp1146
F0.0008944543828264759
s(S'[[num]]'
p1147
S'film'
p1148
S'[[num]]'
p1149
tp1150
F0.0008944543828264759
s(S'[[adj]]'
p1151
S'win'
p1152
S'in'
p1153
tp1154
F0.0008944543828264759
s(S'been'
p1155
S'selected'
p1156
S'for'
p1157
tp1158
F0.0008944543828264759
s(S'have'
p1159
S'played'
p1160
S'for'
p1161
tp1162
F0.0008944543828264759
s(g145
S'star'
p1163
S'on'
p1164
tp1165
F0.0008944543828264759
s(S'also'
p1166
S'named'
p1167
S'[[con]]'
p1168
tp1169
F0.0008944543828264759
s(S'also'
p1170
S'member'
p1171
S'[[con]]'
p1172
tp1173
F0.0008944543828264759
s(S'never'
p1174
S'received'
p1175
S'[[det]]'
p1176
tp1177
F0.0008944543828264759
s(S'[[adj]]'
p1178
S'signed'
p1179
S'with'
p1180
tp1181
F0.0008944543828264759
s(S'[[con]]'
p1182
S'played'
p1183
S'together'
p1184
tp1185
F0.0008944543828264759
s(S'gt'
p1186
S'lt'
p1187
S'ref'
p1188
tp1189
F0.0008944543828264759
s(S'been'
p1190
S'selected'
p1191
S'by'
p1192
tp1193
F0.0008944543828264759
s(S'where'
p1194
S'received'
p1195
S'from'
p1196
tp1197
F0.0008944543828264759
s(S'to'
p1198
S'star'
p1199
S'on'
p1200
tp1201
F0.0008944543828264759
s(S'name'
p1202
S'gt'
p1203
S'[[con]]'
p1204
tp1205
F0.0008944543828264759
s(S'twice'
p1206
S'nominated'
p1207
S'by'
p1208
tp1209
F0.0008944543828264759
s(S'has'
p1210
S'won'
p1211
S'[[det]]'
p1212
tp1213
F0.0008944543828264759
s(S'also'
p1214
S'starred'
p1215
S'[[det]]'
p1216
tp1217
F0.0008944543828264759
s(S'later'
p1218
S'played'
p1219
S'[[con]]'
p1220
tp1221
F0.0008944543828264759
s(S'been'
p1222
S'inducted'
p1223
S'at'
p1224
tp1225
F0.0008944543828264759
s(S'[[con]]'
p1226
S'won'
p1227
S'[[prp]]'
p1228
tp1229
F0.0008944543828264759
s(S'who'
p1230
S'joined'
p1231
S'[[det]]'
p1232
tp1233
F0.0008944543828264759
s(S'[[con]]'
p1234
S'led'
p1235
S'to'
p1236
tp1237
F0.0008944543828264759
s(S'[[det]]'
p1238
S'member'
p1239
S'[[det]]'
p1240
tp1241
F0.0008944543828264759
s(S'[[adj]]'
p1242
S'received'
p1243
S'from'
p1244
tp1245
F0.0008944543828264759
s(S'instead'
p1246
S'joined'
p1247
S'[[det]]'
p1248
tp1249
F0.0008944543828264759
s(S'[[con]]'
p1250
S'won'
p1251
S'for'
p1252
tp1253
F0.0008944543828264759
s(S'was'
p1254
S'awarded'
p1255
S'for'
p1256
tp1257
F0.0008944543828264759
s(S'also'
p1258
S'named'
p1259
S'of'
p1260
tp1261
F0.0008944543828264759
s(S'[[det]]'
p1262
S'member'
p1263
S'of'
p1264
tp1265
F0.0026833631484794273
s(S'had'
p1266
S'won'
p1267
S'[[num]]'
p1268
tp1269
F0.0008944543828264759
s(S'also'
p1270
S'selected'
p1271
S'for'
p1272
tp1273
F0.0008944543828264759
s(S'also'
p1274
S'competed'
p1275
g408
tp1276
F0.0008944543828264759
s(S'awarded'
p1277
S'[[det]]'
p1278
S'[[num]]'
p1279
tp1280
F0.0008944543828264759
s(S'is'
p1281
S'playing'
p1282
S'in'
p1283
tp1284
F0.0008944543828264759
s(S'was'
p1285
S'nominated'
p1286
S'at'
p1287
tp1288
F0.0008944543828264759
s(S'then'
p1289
S'received'
p1290
S'in'
p1291
tp1292
F0.0008944543828264759
s(S'[[det]]'
p1293
S'played'
p1294
S'for'
p1295
tp1296
F0.0008944543828264759
s(S'[[pro]]'
p1297
S'to'
p1298
S'win'
p1299
tp1300
F0.0008944543828264759
s(S'which'
p1301
S'won'
p1302
S'[[pro]]'
p1303
tp1304
F0.0008944543828264759
s(S'was'
p1305
S'nominated'
p1306
S'in'
p1307
tp1308
F0.0008944543828264759
s(S'before'
p1309
S'playing'
p1310
S'[[det]]'
p1311
tp1312
F0.0008944543828264759
s(g1132
g1133
S'gt'
p1313
tp1314
F0.01073345259391771
s(S'also'
p1315
S'awarded'
p1316
S'from'
p1317
tp1318
F0.0008944543828264759
s(S'formerly'
p1319
S'played'
p1320
S'as'
p1321
tp1322
F0.0008944543828264759
s(S'had'
p1323
S'played'
p1324
S'for'
p1325
tp1326
F0.0008944543828264759
s(S'later'
p1327
S'played'
p1328
S'with'
p1329
tp1330
F0.0008944543828264759
s(g655
g656
S'[[num]]'
p1331
tp1332
F0.0008944543828264759
s(S'where'
p1333
S'played'
p1334
S'in'
p1335
tp1336
F0.0008944543828264759
s(S'was'
p1337
S'named'
p1338
S'for'
p1339
tp1340
F0.0008944543828264759
s(S'where'
p1341
S'won'
p1342
S'[[det]]'
p1343
tp1344
F0.0008944543828264759
s(S'was'
p1345
S'joined'
p1346
S'on'
p1347
tp1348
F0.0008944543828264759
s(S'[[det]]'
p1349
S'awarded'
p1350
S'[[det]]'
p1351
tp1352
F0.0008944543828264759
s(S'also'
p1353
S'presented'
p1354
S'[[con]]'
p1355
tp1356
F0.0008944543828264759
s(S'has'
p1357
S'played'
p1358
S'mainly'
p1359
tp1360
F0.0008944543828264759
s(S'[[det]]'
p1361
S'member'
p1362
S'on'
p1363
tp1364
F0.0008944543828264759
s(S'[[adj]]'
p1365
S'pitcher'
p1366
S'who'
p1367
tp1368
F0.0008944543828264759
s(S'was'
p1369
S'educated'
p1370
S'at'
p1371
tp1372
F0.0008944543828264759
s(S'[[con]]'
p1373
S'won'
p1374
S'[[num]]'
p1375
tp1376
F0.0008944543828264759
s(S'being'
p1377
S'named'
p1378
S'of'
p1379
tp1380
F0.0008944543828264759
s(S'only'
p1381
S'played'
p1382
S'with'
p1383
tp1384
F0.0008944543828264759
s(S'had'
p1385
S'won'
p1386
S'[[det]]'
p1387
tp1388
F0.0008944543828264759
s(S'also'
p1389
S'played'
p1390
S'of'
p1391
tp1392
F0.0008944543828264759
s(S'[[num]]'
p1393
S'led'
p1394
S'[[det]]'
p1395
tp1396
F0.0008944543828264759
s(S'[[mod]]'
p1397
S'split'
p1398
S'[[adj]]'
p1399
tp1400
F0.0008944543828264759
s(S'later'
p1401
S'played'
p1402
S'against'
p1403
tp1404
F0.0008944543828264759
s(S'later'
p1405
S'signed'
p1406
S'[[det]]'
p1407
tp1408
F0.0008944543828264759
s(g135
g948
g145
tp1409
F0.0008944543828264759
s(S'raised'
p1410
g579
g580
tp1411
F0.0008944543828264759
s(S'[[adj]]'
p1412
S'won'
p1413
S'[[det]]'
p1414
tp1415
F0.0008944543828264759
s(S'currently'
p1416
S'playing'
p1417
S'in'
p1418
tp1419
F0.0008944543828264759
s(S'also'
p1420
S'playing'
p1421
S'with'
p1422
tp1423
F0.0008944543828264759
s(S'later'
p1424
S'starred'
p1425
S'as'
p1426
tp1427
F0.0008944543828264759
s(S'[[pro]]'
p1428
S'joined'
p1429
S'[[det]]'
p1430
tp1431
F0.0008944543828264759
s(S'was'
p1432
S'awarded'
p1433
S'[[con]]'
p1434
tp1435
F0.0008944543828264759
s(S'have'
p1436
S'joined'
p1437
S'[[det]]'
p1438
tp1439
F0.0008944543828264759
s(g581
g666
S'gt'
p1440
tp1441
F0.0017889087656529517
s(S'[[adj]]'
p1442
S'member'
p1443
S'on'
p1444
tp1445
F0.0008944543828264759
s(S'had'
p1446
S'joined'
p1447
S'side'
p1448
tp1449
F0.0008944543828264759
s(S'[[det]]'
p1450
S'member'
p1451
S'as'
p1452
tp1453
F0.0008944543828264759
s(S'[[adj]]'
p1454
S'honored'
p1455
S'with'
p1456
tp1457
F0.0008944543828264759
s(S'where'
p1458
S'joined'
p1459
S'[[det]]'
p1460
tp1461
F0.0008944543828264759
s(S'instead'
p1462
S'signed'
p1463
S'for'
p1464
tp1465
F0.0008944543828264759
s(S'[[adj]]'
p1466
S'deal'
p1467
S'at'
p1468
tp1469
F0.0008944543828264759
s(S'was'
p1470
S'named'
p1471
S'[[num]]'
p1472
tp1473
F0.0008944543828264759
s(S'was'
p1474
S'member'
p1475
S'[[num]]'
p1476
tp1477
F0.0008944543828264759
s(S'then'
p1478
S'won'
p1479
S'[[det]]'
p1480
tp1481
F0.0008944543828264759
s(S'ref'
p1482
S'gt'
p1483
S'brought'
p1484
tp1485
F0.0008944543828264759
s(S'[[adj]]'
p1486
S'starred'
p1487
S'as'
p1488
tp1489
F0.0008944543828264759
s(S'has'
p1490
S'signed'
p1491
S'with'
p1492
tp1493
F0.0008944543828264759
s(S'had'
p1494
S'won'
p1495
S'for'
p1496
tp1497
F0.0008944543828264759
s(S'was'
p1498
S'nominated'
p1499
S'for'
p1500
tp1501
F0.0008944543828264759
s(S'was'
p1502
S'received'
p1503
S'[[con]]'
p1504
tp1505
F0.0008944543828264759
s(S'been'
p1506
S'signed'
p1507
S'from'
p1508
tp1509
F0.0008944543828264759
s(S'was'
p1510
S'member'
p1511
S'at'
p1512
tp1513
F0.0008944543828264759
s(S'also'
p1514
S'received'
p1515
S'[[prp]]'
p1516
tp1517
F0.0008944543828264759
s(S'in'
p1518
S'playing'
p1519
S'for'
p1520
tp1521
F0.0008944543828264759
s(S'is'
p1522
S'selected'
p1523
S'by'
p1524
tp1525
F0.0008944543828264759
s(S'also'
p1526
S'named'
p1527
S'in'
p1528
tp1529
F0.0008944543828264759
s(S'also'
p1530
S'directed'
p1531
S'[[det]]'
p1532
tp1533
F0.0026833631484794273
s(S'was'
p1534
S'invested'
p1535
S'in'
p1536
tp1537
F0.0008944543828264759
s(S'been'
p1538
S'nominated'
p1539
S'[[det]]'
p1540
tp1541
F0.0008944543828264759
s(S'was'
p1542
S'playing'
p1543
S'as'
p1544
tp1545
F0.0008944543828264759
s(S'to'
p1546
S'win'
p1547
S'[[prp]]'
p1548
tp1549
F0.0008944543828264759
s(S'[[adj]]'
p1550
S'member'
p1551
S'of'
p1552
tp1553
F0.0008944543828264759
s(S'also'
p1554
S'awarded'
p1555
S'for'
p1556
tp1557
F0.0008944543828264759
s(S'is'
p1558
S'honored'
p1559
S'by'
p1560
tp1561
F0.0008944543828264759
s(S'was'
p1562
S'buried'
p1563
S'with'
p1564
tp1565
F0.0008944543828264759
s(S'[[con]]'
p1566
S'promoted'
p1567
S'to'
p1568
tp1569
F0.0008944543828264759
s(S'later'
p1570
S'received'
p1571
S'[[prp]]'
p1572
tp1573
F0.0008944543828264759
s(S'ref'
p1574
S'gt'
p1575
S'lt'
p1576
tp1577
F0.0008944543828264759
s(S'when'
p1578
S'joined'
p1579
S'[[det]]'
p1580
tp1581
F0.0008944543828264759
s(S'also'
p1582
S'inducted'
p1583
S'as'
p1584
tp1585
F0.0008944543828264759
s(S'is'
p1586
S'promoted'
p1587
S'to'
p1588
tp1589
F0.0008944543828264759
s(S'helped'
p1590
S'to'
p1591
S'win'
p1592
tp1593
F0.0008944543828264759
s(S'been'
p1594
S'honored'
p1595
S'by'
p1596
tp1597
F0.0008944543828264759
s(S'later'
p1598
S'joined'
p1599
S'at'
p1600
tp1601
F0.0008944543828264759
s(S'soon'
p1602
S'joined'
p1603
S'[[det]]'
p1604
tp1605
F0.0008944543828264759
s(S'[[num]]'
p1606
S'won'
p1607
S'[[num]]'
p1608
tp1609
F0.0008944543828264759
s(S'had'
p1610
S'starred'
p1611
S'with'
p1612
tp1613
F0.0008944543828264759
s(S'was'
p1614
S'awarded'
p1615
S'on'
p1616
tp1617
F0.0008944543828264759
s(S'later'
p1618
S'earned'
p1619
S'at'
p1620
tp1621
F0.0008944543828264759
s(S'also'
p1622
S'played'
p1623
S'from'
p1624
tp1625
F0.0008944543828264759
s(S'where'
p1626
S'earned'
p1627
S'[[det]]'
p1628
tp1629
F0.0008944543828264759
s(S'[[det]]'
p1630
S'film'
p1631
S'[[det]]'
p1632
tp1633
F0.0008944543828264759
s(g145
S'films'
p1634
S'[[con]]'
p1635
tp1636
F0.0008944543828264759
s(S'has'
p1637
S'won'
p1638
S'[[con]]'
p1639
tp1640
F0.0008944543828264759
s(S'has'
p1641
S'received'
p1642
S'[[num]]'
p1643
tp1644
F0.0008944543828264759
s(S'[[num]]'
p1645
S'joined'
p1646
S'[[det]]'
p1647
tp1648
F0.0008944543828264759
s(S'already'
p1649
S'played'
p1650
S'for'
p1651
tp1652
F0.0008944543828264759
s(S'never'
p1653
S'played'
p1654
S'in'
p1655
tp1656
F0.0008944543828264759
s(S'[[adj]]'
p1657
S'films'
p1658
S'[[con]]'
p1659
tp1660
F0.0008944543828264759
s(S'also'
p1661
S'nominated'
p1662
S'as'
p1663
tp1664
F0.0008944543828264759
s(S'then'
p1665
S'signed'
p1666
S'for'
p1667
tp1668
F0.0008944543828264759
s(S'to'
p1669
S'win'
p1670
S'on'
p1671
tp1672
F0.0008944543828264759
s(S'became'
p1673
S'member'
p1674
S'[[det]]'
p1675
tp1676
F0.0008944543828264759
s(S'was'
p1677
S'named'
p1678
S'with'
p1679
tp1680
F0.0008944543828264759
s(g1275
g408
g409
tp1681
F0.0008944543828264759
s(S'was'
p1682
S'named'
p1683
S'[[det]]'
p1684
tp1685
F0.0008944543828264759
s(S'was'
p1686
S'nominated'
p1687
S'[[con]]'
p1688
tp1689
F0.0008944543828264759
s(S'had'
p1690
S'signed'
p1691
S'with'
p1692
tp1693
F0.0008944543828264759
s(S'was'
p1694
S'signed'
p1695
S'from'
p1696
tp1697
F0.0008944543828264759
s(S'[[num]]'
p1698
S'films'
p1699
S'in'
p1700
tp1701
F0.0008944543828264759
s(S'also'
p1702
S'promoted'
p1703
S'to'
p1704
tp1705
F0.0008944543828264759
s(S'never'
p1706
S'played'
p1707
S'[[det]]'
p1708
tp1709
F0.0008944543828264759
s(S'more'
p1710
S'films'
p1711
S'which'
p1712
tp1713
F0.0008944543828264759
s(S'also'
p1714
S'awarded'
p1715
S'[[det]]'
p1716
tp1717
F0.0008944543828264759
s(S'also'
p1718
S'won'
p1719
S'on'
p1720
tp1721
F0.0008944543828264759
s(S'where'
p1722
S'played'
p1723
S'[[con]]'
p1724
tp1725
F0.0008944543828264759
s(S'was'
p1726
S'awarded'
p1727
S'of'
p1728
tp1729
F0.0008944543828264759
s(S'has'
p1730
S'led'
p1731
S'[[det]]'
p1732
tp1733
F0.0008944543828264759
s(S'has'
p1734
S'received'
p1735
S'[[adj]]'
p1736
tp1737
F0.0008944543828264759
s(S'posthumously'
p1738
S'awarded'
p1739
S'with'
p1740
tp1741
F0.0008944543828264759
s(S'was'
p1742
S'selected'
p1743
S'with'
p1744
tp1745
F0.0008944543828264759
s(S'directed'
p1746
S'[[det]]'
p1747
S'film'
p1748
tp1749
F0.0017889087656529517
s(S'been'
p1750
S'awarded'
p1751
S'[[con]]'
p1752
tp1753
F0.0008944543828264759
s(S'was'
p1754
S'member'
p1755
S'of'
p1756
tp1757
F0.0008944543828264759
s(S'[[pro]]'
p1758
S'won'
p1759
S'[[det]]'
p1760
tp1761
F0.0017889087656529517
s(S'first'
p1762
S'played'
p1763
S'for'
p1764
tp1765
F0.0008944543828264759
s(S'helped'
p1766
g1297
g1298
tp1767
F0.0008944543828264759
s(S'[[adj]]'
p1768
S'films'
p1769
S'for'
p1770
tp1771
F0.0008944543828264759
s(S'[[det]]'
p1772
S'films'
p1773
S'[[num]]'
p1774
tp1775
F0.0008944543828264759
s(S'mainly'
p1776
S'played'
p1777
S'with'
p1778
tp1779
F0.0008944543828264759
s(S'[[num]]'
p1780
S'lt'
p1781
S'[[num]]'
p1782
tp1783
F0.0008944543828264759
s(S'[[pro]]'
p1784
S'playing'
p1785
S'for'
p1786
tp1787
F0.0008944543828264759
s(g1133
g1313
S'[[con]]'
p1788
tp1789
F0.005366726296958855
s(S'never'
p1790
S'won'
p1791
S'[[det]]'
p1792
tp1793
F0.0008944543828264759
s(S'is'
p1794
S'member'
p1795
S'of'
p1796
tp1797
F0.0008944543828264759
s(S'then'
p1798
S'promoted'
p1799
S'to'
p1800
tp1801
F0.0008944543828264759
s(S'is'
p1802
S'named'
p1803
S'of'
p1804
tp1805
F0.0008944543828264759
s(S'later'
p1806
S'played'
p1807
S'at'
p1808
tp1809
F0.0008944543828264759
s(S'which'
p1810
S'received'
p1811
S'[[det]]'
p1812
tp1813
F0.0008944543828264759
s(S'then'
p1814
S'joined'
p1815
S'then'
p1816
tp1817
F0.0008944543828264759
s(S'currently'
p1818
S'playing'
p1819
S'for'
p1820
tp1821
F0.0008944543828264759
s(g270
g271
S'at'
p1822
tp1823
F0.0008944543828264759
s(g145
S'lt'
p1824
S'ref'
p1825
tp1826
F0.0008944543828264759
s(S'also'
p1827
S'won'
p1828
S'of'
p1829
tp1830
F0.0008944543828264759
s(S'has'
p1831
S'starred'
p1832
S'in'
p1833
tp1834
F0.0008944543828264759
s(S'had'
p1835
S'signed'
p1836
S'up'
p1837
tp1838
F0.0008944543828264759
s(g262
g263
S'newscasts'
p1839
tp1840
F0.0008944543828264759
s(S'was'
p1841
S'signed'
p1842
S'with'
p1843
tp1844
F0.0008944543828264759
s(S'be'
p1845
S'named'
p1846
S'[[det]]'
p1847
tp1848
F0.0008944543828264759
s(S'be'
p1849
S'selected'
p1850
S'for'
p1851
tp1852
F0.0008944543828264759
s(S'also'
p1853
S'played'
p1854
S'[[num]]'
p1855
tp1856
F0.0008944543828264759
s(S'where'
p1857
S'signed'
p1858
S'for'
p1859
tp1860
F0.0008944543828264759
s(S'was'
p1861
S'awarded'
p1862
S'[[det]]'
p1863
tp1864
F0.004472271914132379
s(S'[[con]]'
p1865
S'joined'
p1866
S'[[det]]'
p1867
tp1868
F0.0008944543828264759
s(S'being'
p1869
S'selected'
p1870
S'by'
p1871
tp1872
F0.0008944543828264759
s(S'also'
p1873
S'played'
p1874
S'once'
p1875
tp1876
F0.0008944543828264759
s(S'was'
p1877
S'recommended'
p1878
S'for'
p1879
tp1880
F0.0008944543828264759
s(S'was'
p1881
S'honored'
p1882
S'at'
p1883
tp1884
F0.0008944543828264759
s(S'later'
p1885
S'received'
p1886
S'[[con]]'
p1887
tp1888
F0.0008944543828264759
s(S'[[prp]]'
p1889
S'work'
p1890
S'in'
p1891
tp1892
F0.0008944543828264759
s(S'were'
p1893
S'named'
p1894
S'as'
p1895
tp1896
F0.0008944543828264759
s(S'[[adj]]'
p1897
S'signed'
p1898
S'by'
p1899
tp1900
F0.0008944543828264759
s(S'later'
p1901
S'joined'
p1902
S'[[det]]'
p1903
tp1904
F0.0008944543828264759
s(S'had'
p1905
S'joined'
p1906
S'[[det]]'
p1907
tp1908
F0.0008944543828264759
s(S'when'
p1909
S'won'
p1910
S'[[prp]]'
p1911
tp1912
F0.0008944543828264759
s(S'also'
p1913
S'awarded'
p1914
S'of'
p1915
tp1916
F0.0008944543828264759
s(S'then'
p1917
S'appointed'
p1918
S'as'
p1919
tp1920
F0.0008944543828264759
s(S'who'
p1921
g420
g421
tp1922
F0.0008944543828264759
s(S'was'
p1923
S'appointed'
p1924
S'where'
p1925
tp1926
F0.0008944543828264759
s(g656
g1331
S'gt'
p1927
tp1928
F0.0008944543828264759
s(S'[[num]]'
p1929
S'film'
p1930
S'[[con]]'
p1931
tp1932
F0.0008944543828264759
s(S'[[con]]'
p1933
S'signed'
p1934
S'by'
p1935
tp1936
F0.0008944543828264759
s(S'[[num]]'
p1937
S'playing'
p1938
S'for'
p1939
tp1940
F0.0008944543828264759
s(S'again'
p1941
S'named'
p1942
S'by'
p1943
tp1944
F0.0008944543828264759
s(S'not'
p1945
S'played'
p1946
S'for'
p1947
tp1948
F0.0008944543828264759
s(S'also'
p1949
S'named'
p1950
S'as'
p1951
tp1952
F0.0008944543828264759
s(S'later'
p1953
S'appointed'
p1954
S'[[pro]]'
p1955
tp1956
F0.0008944543828264759
s(g1025
S'ref'
p1957
g1007
tp1958
F0.0026833631484794273
s(S'was'
p1959
S'inducted'
p1960
S'by'
p1961
tp1962
F0.0008944543828264759
s(S'later'
p1963
S'signed'
p1964
S'by'
p1965
tp1966
F0.0008944543828264759
s(S'became'
p1967
S'member'
p1968
S'of'
p1969
tp1970
F0.0008944543828264759
s(S'to'
p1971
S'finish'
p1972
S'[[adj]]'
p1973
tp1974
F0.0008944543828264759
s(S'[[con]]'
p1975
S'member'
p1976
S'of'
p1977
tp1978
F0.0008944543828264759
s(S'has'
p1979
S'won'
p1980
S'at'
p1981
tp1982
F0.0008944543828264759
s(S'[[adj]]'
p1983
S'member'
p1984
S'for'
p1985
tp1986
F0.0008944543828264759
s(S'also'
p1987
S'joined'
p1988
S'[[det]]'
p1989
tp1990
F0.0008944543828264759
s(S'[[det]]'
p1991
S'star'
p1992
S'at'
p1993
tp1994
F0.0008944543828264759
s(S'has'
p1995
S'won'
p1996
S'in'
p1997
tp1998
F0.0008944543828264759
s(S'then'
p1999
S'joined'
p2000
S'with'
p2001
tp2002
F0.0008944543828264759
s(S'then'
p2003
S'earned'
p2004
S'in'
p2005
tp2006
F0.0008944543828264759
s(S'be'
p2007
S'buried'
p2008
S'[[det]]'
p2009
tp2010
F0.0008944543828264759
s(S'which'
p2011
S'won'
p2012
S'[[con]]'
p2013
tp2014
F0.0008944543828264759
s(S'[[det]]'
p2015
S'signed'
p2016
S'with'
p2017
tp2018
F0.0008944543828264759
s(S'been'
p2019
S'nominated'
p2020
S'[[con]]'
p2021
tp2022
F0.0008944543828264759
s(S'film'
p2023
S'was'
p2024
S'directed'
p2025
tp2026
F0.0008944543828264759
s(S'was'
p2027
S'appointed'
p2028
S'[[con]]'
p2029
tp2030
F0.0008944543828264759
s(S'[[adj]]'
p2031
S'promoted'
p2032
S'to'
p2033
tp2034
F0.0008944543828264759
s(S'[[con]]'
p2035
S'earned'
p2036
S'[[det]]'
p2037
tp2038
F0.0008944543828264759
s(S'has'
p2039
g999
g1000
tp2040
F0.0008944543828264759
s(S'been'
p2041
S'named'
p2042
S'of'
p2043
tp2044
F0.0008944543828264759
s(S'[[num]]'
p2045
S'played'
p2046
S'for'
p2047
tp2048
F0.0008944543828264759
s(S'was'
p2049
S'named'
p2050
S'from'
p2051
tp2052
F0.0008944543828264759
s(S'was'
p2053
S'awarded'
p2054
S'at'
p2055
tp2056
F0.0008944543828264759
s(S'been'
p2057
S'named'
p2058
S'to'
p2059
tp2060
F0.0008944543828264759
s(S'after'
p2061
S'playing'
p2062
S'for'
p2063
tp2064
F0.0008944543828264759
s(S'[[det]]'
p2065
g77
g78
tp2066
F0.0017889087656529517
s(S'that'
p2067
S'won'
p2068
S'at'
p2069
tp2070
F0.0017889087656529517
s(S'first'
p2071
S'played'
p2072
S'in'
p2073
tp2074
F0.0008944543828264759
s(S'then'
p2075
S'selected'
p2076
S'by'
p2077
tp2078
F0.0008944543828264759
s(S'was'
p2079
S'received'
p2080
S'at'
p2081
tp2082
F0.0008944543828264759
s(S'as'
p2083
S'won'
p2084
S'[[det]]'
p2085
tp2086
F0.0008944543828264759
s(S'helped'
p2087
S'[[con]]'
p2088
S'win'
p2089
tp2090
F0.0008944543828264759
s(S'also'
p2091
S'played'
p2092
S'against'
p2093
tp2094
F0.0008944543828264759
s(S'was'
p2095
S'member'
p2096
S'[[con]]'
p2097
tp2098
F0.0008944543828264759
s(S'was'
p2099
S'named'
p2100
S'in'
p2101
tp2102
F0.0008944543828264759
s(S'is'
p2103
S'signed'
p2104
S'with'
p2105
tp2106
F0.0008944543828264759
s(S'first'
p2107
S'joined'
p2108
S'[[det]]'
p2109
tp2110
F0.0008944543828264759
s(S'again'
p2111
S'named'
p2112
S'in'
p2113
tp2114
F0.0008944543828264759
s(S'[[con]]'
p2115
S'joined'
p2116
S'of'
p2117
tp2118
F0.0008944543828264759
s(S'[[adj]]'
p2119
S'films'
p2120
S'[[num]]'
p2121
tp2122
F0.0008944543828264759
s(S'which'
p2123
S'played'
p2124
S'[[con]]'
p2125
tp2126
F0.0008944543828264759
s(S'also'
p2127
S'signed'
p2128
S'by'
p2129
tp2130
F0.0008944543828264759
s(g145
S'films'
p2131
S'[[num]]'
p2132
tp2133
F0.0008944543828264759
s(S'also'
p2134
S'signed'
p2135
S'to'
p2136
tp2137
F0.0008944543828264759
s(S'has'
p2138
S'played'
p2139
S'most'
p2140
tp2141
F0.0008944543828264759
s(S'was'
p2142
S'awarded'
p2143
S'from'
p2144
tp2145
F0.0008944543828264759
s(S'signed'
p2146
g987
g988
tp2147
F0.006261180679785331
s(S'also'
p2148
S'starred'
p2149
S'[[num]]'
p2150
tp2151
F0.0008944543828264759
s(S'while'
p2152
S'won'
p2153
S'[[det]]'
p2154
tp2155
F0.0008944543828264759
s(S'[[con]]'
p2156
S'played'
p2157
S'with'
p2158
tp2159
F0.0008944543828264759
s(S'soon'
p2160
S'signed'
p2161
S'with'
p2162
tp2163
F0.0008944543828264759
s(S'[[det]]'
p2164
g527
g528
tp2165
F0.0008944543828264759
s(S'had'
p2166
S'appointed'
p2167
S'to'
p2168
tp2169
F0.0008944543828264759
s(S'[[con]]'
p2170
S'played'
p2171
S'on'
p2172
tp2173
F0.0008944543828264759
s(S'[[con]]'
p2174
S'received'
p2175
S'for'
p2176
tp2177
F0.0008944543828264759
s(S'only'
p2178
S'played'
p2179
S'in'
p2180
tp2181
F0.0008944543828264759
s(S'was'
p2182
S'selected'
p2183
S'for'
p2184
tp2185
F0.0008944543828264759
s(S'has'
p2186
S'played'
p2187
S'to'
p2188
tp2189
F0.0008944543828264759
s(S'also'
p2190
S'played'
p2191
S'twice'
p2192
tp2193
F0.0008944543828264759
s(S'[[num]]'
p2194
S'member'
p2195
S'of'
p2196
tp2197
F0.0008944543828264759
s(S'[[con]]'
p2198
g1023
g1024
tp2199
F0.0008944543828264759
s(S'was'
p2200
S'promoted'
p2201
S'[[det]]'
p2202
tp2203
F0.0008944543828264759
s(S'[[det]]'
p2204
S'film'
p2205
S'[[con]]'
p2206
tp2207
F0.0008944543828264759
s(g145
S'film'
p2208
S'[[num]]'
p2209
tp2210
F0.0008944543828264759
s(S'was'
p2211
S'buried'
p2212
S'on'
p2213
tp2214
F0.0008944543828264759
s(g1782
S'ref'
p2215
S'gt'
p2216
tp2217
F0.0017889087656529517
s(S'been'
p2218
S'appointed'
p2219
S'as'
p2220
tp2221
F0.0008944543828264759
s(S'[[pro]]'
p2222
S'signed'
p2223
S'with'
p2224
tp2225
F0.0008944543828264759
s(S'then'
p2226
S'played'
p2227
S'also'
p2228
tp2229
F0.0008944543828264759
s(S'was'
p2230
S'joined'
p2231
S'[[det]]'
p2232
tp2233
F0.0008944543828264759
s(S'[[det]]'
p2234
S'playing'
p2235
S'for'
p2236
tp2237
F0.0008944543828264759
s(S'been'
p2238
S'named'
p2239
S'as'
p2240
tp2241
F0.0008944543828264759
s(S'before'
p2242
S'playing'
p2243
S'with'
p2244
tp2245
F0.0008944543828264759
s(S'then'
p2246
S'joined'
p2247
S'[[con]]'
p2248
tp2249
F0.0008944543828264759
s(S'also'
p2250
S'named'
p2251
S'to'
p2252
tp2253
F0.0008944543828264759
s(S'was'
p2254
S'awarded'
p2255
S'[[pro]]'
p2256
tp2257
F0.0008944543828264759
s(g174
g175
S'lt'
p2258
tp2259
F0.0008944543828264759
s(S'fought'
p2260
S'[[con]]'
p2261
S'was'
p2262
tp2263
F0.0008944543828264759
s(S'been'
p2264
S'playing'
p2265
S'in'
p2266
tp2267
F0.0008944543828264759
s(S'was'
p2268
S'nominated'
p2269
S'[[num]]'
p2270
tp2271
F0.0008944543828264759
s(S'also'
p2272
S'won'
p2273
S'for'
p2274
tp2275
F0.0008944543828264759
s(S'then'
p2276
S'signed'
p2277
S'with'
p2278
tp2279
F0.0008944543828264759
s(S'is'
p2280
S'buried'
p2281
S'on'
p2282
tp2283
F0.0008944543828264759
s(g1092
g1093
S'[[det]]'
p2284
tp2285
F0.0008944543828264759
s(S'been'
p2286
S'named'
p2287
S'[[con]]'
p2288
tp2289
F0.0008944543828264759
s(S'never'
p2290
S'played'
p2291
S'for'
p2292
tp2293
F0.0008944543828264759
s(S'then'
p2294
S'led'
p2295
S'[[det]]'
p2296
tp2297
F0.0008944543828264759
s(S'then'
p2298
S'signed'
p2299
S'on'
p2300
tp2301
F0.0008944543828264759
s(S'later'
p2302
S'named'
p2303
S'for'
p2304
tp2305
F0.0008944543828264759
s(S'also'
p2306
S'played'
p2307
S'for'
p2308
tp2309
F0.0008944543828264759
s(S'[[mod]]'
p2310
S'win'
p2311
S'in'
p2312
tp2313
F0.0008944543828264759
s(S'then'
p2314
S'played'
p2315
S'for'
p2316
tp2317
F0.0008944543828264759
s(S'been'
p2318
S'awarded'
p2319
S'at'
p2320
tp2321
F0.0008944543828264759
s(S'[[adj]]'
p2322
S'film'
p2323
S'as'
p2324
tp2325
F0.0008944543828264759
s(S'[[adj]]'
p2326
S'film'
p2327
S'[[adj]]'
p2328
tp2329
F0.0008944543828264759
s(S'also'
p2330
S'received'
p2331
S'at'
p2332
tp2333
F0.0008944543828264759
s(S'then'
p2334
S'selected'
p2335
S'against'
p2336
tp2337
F0.0008944543828264759
s(S'[[adj]]'
p2338
S'career'
p2339
S'[[con]]'
p2340
tp2341
F0.0008944543828264759
s(S'have'
p2342
S'received'
p2343
S'[[det]]'
p2344
tp2345
F0.0008944543828264759
s(S'then'
p2346
S'selected'
p2347
S'as'
p2348
tp2349
F0.0008944543828264759
s(S'is'
p2350
S'buried'
p2351
S'[[con]]'
p2352
tp2353
F0.0008944543828264759
s(S'ref'
p2354
S'gt'
p2355
S'[[det]]'
p2356
tp2357
F0.0017889087656529517
s(S'twice'
p2358
S'named'
p2359
S'by'
p2360
tp2361
F0.0008944543828264759
s(S'for'
p2362
S'films'
p2363
S'[[adj]]'
p2364
tp2365
F0.0008944543828264759
s(S'helped'
p2366
S'to'
p2367
S'[[det]]'
p2368
tp2369
F0.0008944543828264759
s(S'[[det]]'
p2370
S'member'
p2371
S'[[num]]'
p2372
tp2373
F0.0008944543828264759
s(S'was'
p2374
g173
g174
tp2375
F0.0008944543828264759
s(S'also'
p2376
S'starred'
p2377
S'at'
p2378
tp2379
F0.0008944543828264759
s(g145
S'films'
p2380
S'of'
p2381
tp2382
F0.0008944543828264759
s(S'later'
p2383
S'awarded'
p2384
S'from'
p2385
tp2386
F0.0008944543828264759
s(S'[[num]]'
p2387
S'awarded'
p2388
S'by'
p2389
tp2390
F0.0008944543828264759
s(S'[[con]]'
p2391
S'earned'
p2392
S'from'
p2393
tp2394
F0.0008944543828264759
s(S'is'
p2395
S'awarded'
p2396
S'by'
p2397
tp2398
F0.0008944543828264759
s(S'has'
p2399
S'won'
p2400
S'[[num]]'
p2401
tp2402
F0.0008944543828264759
s(S'has'
p2403
S'signed'
p2404
S'for'
p2405
tp2406
F0.0008944543828264759
s(S'then'
p2407
S'awarded'
p2408
S'[[det]]'
p2409
tp2410
F0.0008944543828264759
s(g266
g267
S'won'
p2411
tp2412
F0.0008944543828264759
s(g2024
g2025
S'[[con]]'
p2413
tp2414
F0.0008944543828264759
s(S'later'
p2415
S'received'
p2416
S'from'
p2417
tp2418
F0.0008944543828264759
s(S'who'
p2419
S'signed'
p2420
S'[[det]]'
p2421
tp2422
F0.0008944543828264759
s(S'be'
p2423
S'named'
p2424
S'of'
p2425
tp2426
F0.0008944543828264759
s(S'has'
p2427
S'received'
p2428
S'[[con]]'
p2429
tp2430
F0.0008944543828264759
s(S'had'
p2431
S'received'
p2432
S'in'
p2433
tp2434
F0.0008944543828264759
s(S'[[det]]'
p2435
S'won'
p2436
S'[[det]]'
p2437
tp2438
F0.0008944543828264759
s(S'was'
p2439
S'awarded'
p2440
S'as'
p2441
tp2442
F0.0008944543828264759
s(S'is'
p2443
S'playing'
p2444
S'for'
p2445
tp2446
F0.0008944543828264759
s(S'was'
p2447
S'named'
p2448
S'[[con]]'
p2449
tp2450
F0.0008944543828264759
s(S'later'
p2451
S'won'
p2452
S'in'
p2453
tp2454
F0.0008944543828264759
s(S'as'
p2455
S'member'
p2456
S'of'
p2457
tp2458
F0.0008944543828264759
s(S'again'
p2459
S'led'
p2460
S'[[det]]'
p2461
tp2462
F0.0008944543828264759
s(S'was'
p2463
S'awarded'
p2464
S'[[num]]'
p2465
tp2466
F0.0008944543828264759
s(S'[[adj]]'
p2467
S'win'
p2468
S'[[det]]'
p2469
tp2470
F0.0008944543828264759
s(S'directed'
p2471
S'[[det]]'
p2472
S'[[num]]'
p2473
tp2474
F0.0017889087656529517
s(S'born'
p2475
S'lt'
p2476
S'ref'
p2477
tp2478
F0.0008944543828264759
s(S'again'
p2479
S'won'
p2480
S'[[det]]'
p2481
tp2482
F0.0008944543828264759
s(g616
g464
g465
tp2483
F0.0008944543828264759
s(S'had'
p2484
S'earned'
p2485
S'from'
p2486
tp2487
F0.0008944543828264759
s(S'has'
p2488
S'signed'
p2489
S'[[det]]'
p2490
tp2491
F0.0008944543828264759
s(S'not'
p2492
S'selected'
p2493
S'against'
p2494
tp2495
F0.0008944543828264759
s(S'where'
p2496
S'received'
p2497
S'[[prp]]'
p2498
tp2499
F0.0008944543828264759
s(S'[[adj]]'
p2500
S'member'
p2501
S'[[adj]]'
p2502
tp2503
F0.0008944543828264759
s(S'[[con]]'
p2504
S'received'
p2505
S'[[prp]]'
p2506
tp2507
F0.0008944543828264759
s(S'later'
p2508
S'named'
p2509
S'of'
p2510
tp2511
F0.0008944543828264759
s(S'[[det]]'
p2512
S'films'
p2513
S'[[det]]'
p2514
tp2515
F0.0008944543828264759
s(S'has'
p2516
S'played'
p2517
S'[[num]]'
p2518
tp2519
F0.0008944543828264759
s(S'was'
p2520
S'signed'
p2521
S'to'
p2522
tp2523
F0.0017889087656529517
s(S'then'
p2524
S'named'
p2525
S'[[det]]'
p2526
tp2527
F0.0008944543828264759
s(S'back'
p2528
S'playing'
p2529
S'for'
p2530
tp2531
F0.0008944543828264759
s(g1532
S'[[adj]]'
p2532
S'film'
p2533
tp2534
F0.0017889087656529517
s(S'[[con]]'
p2535
S'won'
p2536
S'[[det]]'
p2537
tp2538
F0.0026833631484794273
s(S'is'
p2539
S'appointed'
p2540
S'at'
p2541
tp2542
F0.0008944543828264759
s(g134
g135
g948
tp2543
F0.0008944543828264759
s(S'which'
p2544
S'won'
p2545
S'at'
p2546
tp2547
F0.0017889087656529517
s(S'is'
p2548
S'awarded'
p2549
S'[[det]]'
p2550
tp2551
F0.0008944543828264759
s(S'was'
p2552
S'decorated'
p2553
S'with'
p2554
tp2555
F0.0008944543828264759
s(S'[[det]]'
p2556
S'member'
p2557
S'has'
p2558
tp2559
F0.0008944543828264759
s(S'been'
p2560
S'awarded'
p2561
S'[[adj]]'
p2562
tp2563
F0.0008944543828264759
s(S'were'
p2564
S'named'
p2565
S'by'
p2566
tp2567
F0.0008944543828264759
s(S'also'
p2568
S'awarded'
p2569
S'at'
p2570
tp2571
F0.0008944543828264759
s(S'also'
p2572
S'nominated'
p2573
S'in'
p2574
tp2575
F0.0008944543828264759
s(S'be'
p2576
S'awarded'
p2577
S'in'
p2578
tp2579
F0.0008944543828264759
s(S'also'
p2580
S'won'
p2581
S'[[prp]]'
p2582
tp2583
F0.0008944543828264759
s(S'also'
p2584
S'presented'
p2585
S'on'
p2586
tp2587
F0.0008944543828264759
s(S'be'
p2588
S'appointed'
p2589
S'as'
p2590
tp2591
F0.0008944543828264759
s(S'only'
p2592
S'played'
p2593
S'for'
p2594
tp2595
F0.0008944543828264759
s(g381
g382
S'lt'
p2596
tp2597
F0.0017889087656529517
s(S'was'
p2598
g1410
g579
tp2599
F0.0008944543828264759
s(S'been'
p2600
S'named'
p2601
S'in'
p2602
tp2603
F0.0008944543828264759
s(S'gt'
p2604
g1921
g420
tp2605
F0.0008944543828264759
s(S'being'
p2606
S'signed'
p2607
S'by'
p2608
tp2609
F0.0008944543828264759
s(S'member'
p2610
g480
g481
tp2611
F0.0008944543828264759
s(S'then'
p2612
S'played'
p2613
S'in'
p2614
tp2615
F0.0008944543828264759
s(S'also'
p2616
S'appointed'
p2617
S'[[det]]'
p2618
tp2619
F0.0008944543828264759
s(S'was'
p2620
S'promoted'
p2621
S'as'
p2622
tp2623
F0.0008944543828264759
s(S'had'
p2624
S'played'
p2625
S'at'
p2626
tp2627
F0.0008944543828264759
s(S'had'
p2628
S'earned'
p2629
S'[[det]]'
p2630
tp2631
F0.0008944543828264759
s(S'was'
p2632
S'awarded'
p2633
S'[[adj]]'
p2634
tp2635
F0.0008944543828264759
s(S'then'
p2636
S'played'
p2637
S'at'
p2638
tp2639
F0.0008944543828264759
s(S'was'
p2640
S'named'
p2641
S'on'
p2642
tp2643
F0.0008944543828264759
s(S'never'
p2644
S'won'
p2645
S'on'
p2646
tp2647
F0.0008944543828264759
s(g2261
g2262
S'awarded'
p2648
tp2649
F0.0008944543828264759
s(g175
g2258
g1131
tp2650
F0.006261180679785331
s(S'has'
p2651
S'played'
p2652
S'[[adj]]'
p2653
tp2654
F0.0008944543828264759
s(S'was'
p2655
S'awarded'
p2656
S'during'
p2657
tp2658
F0.0008944543828264759
s(S'formerly'
p2659
S'played'
p2660
S'at'
p2661
tp2662
F0.0008944543828264759
s(S'again'
p2663
S'joined'
p2664
S'[[det]]'
p2665
tp2666
F0.0008944543828264759
s(S'[[con]]'
p2667
S'named'
p2668
S'after'
p2669
tp2670
F0.0008944543828264759
s(g401
g402
S'deal'
p2671
tp2672
F0.0008944543828264759
s(S'also'
p2673
S'starred'
p2674
S'on'
p2675
tp2676
F0.0008944543828264759
s(S'[[det]]'
p2677
S'member'
p2678
S'to'
p2679
tp2680
F0.0008944543828264759
s(S'also'
p2681
S'played'
p2682
S'where'
p2683
tp2684
F0.0008944543828264759
s(S'was'
p2685
S'presented'
p2686
S'in'
p2687
tp2688
F0.0008944543828264759
s(S'later'
p2689
S'starred'
p2690
S'of'
p2691
tp2692
F0.0008944543828264759
s(S'[[adj]]'
p2693
S'played'
p2694
S'in'
p2695
tp2696
F0.0008944543828264759
s(S'has'
p2697
S'received'
p2698
S'in'
p2699
tp2700
F0.0008944543828264759
s(S'is'
p2701
S'buried'
p2702
S'at'
p2703
tp2704
F0.0008944543828264759
s(S'was'
p2705
S'appointed'
p2706
S'[[prp]]'
p2707
tp2708
F0.0008944543828264759
s(S'[[con]]'
p2709
S'won'
p2710
S'twice'
p2711
tp2712
F0.0008944543828264759
s(S'been'
p2713
S'awarded'
p2714
S'from'
p2715
tp2716
F0.0008944543828264759
s(S'was'
p2717
S'presented'
p2718
S'at'
p2719
tp2720
F0.0008944543828264759
s(S'was'
p2721
S'playing'
p2722
S'with'
p2723
tp2724
F0.0008944543828264759
s(S'which'
p2725
S'won'
p2726
S'[[det]]'
p2727
tp2728
F0.0026833631484794273
s(S'have'
p2729
S'played'
p2730
S'in'
p2731
tp2732
F0.0008944543828264759
s(S'[[adj]]'
p2733
S'played'
p2734
S'with'
p2735
tp2736
F0.0008944543828264759
s(S'later'
p2737
S'awarded'
p2738
S'[[det]]'
p2739
tp2740
F0.0008944543828264759
s(S'was'
p2741
S'promoted'
p2742
S'from'
p2743
tp2744
F0.0008944543828264759
s(S'then'
p2745
S'played'
p2746
S'then'
p2747
tp2748
F0.0008944543828264759
s(g1531
g1532
g2532
tp2749
F0.0017889087656529517
s(S'ref'
p2750
g2604
g1921
tp2751
F0.0008944543828264759
s(S'was'
p2752
S'honored'
p2753
S'[[con]]'
p2754
tp2755
F0.0008944543828264759
s(S'when'
p2756
S'played'
p2757
S'against'
p2758
tp2759
F0.0008944543828264759
s(S'later'
p2760
S'received'
p2761
S'[[det]]'
p2762
tp2763
F0.0008944543828264759
s(S'is'
p2764
S'member'
p2765
S'[[det]]'
p2766
tp2767
F0.0008944543828264759
s(S'also'
p2768
S'earned'
p2769
S'in'
p2770
tp2771
F0.0008944543828264759
s(S'been'
p2772
S'nominated'
p2773
S'on'
p2774
tp2775
F0.0008944543828264759
s(S'was'
p2776
S'presented'
p2777
S'[[det]]'
p2778
tp2779
F0.0008944543828264759
s(g2339
g2340
S'won'
p2780
tp2781
F0.0008944543828264759
s(S'[[adj]]'
p2782
S'played'
p2783
S'against'
p2784
tp2785
F0.0008944543828264759
s(g931
g932
S'win'
p2786
tp2787
F0.0008944543828264759
s(S'also'
p2788
S'earned'
p2789
S'at'
p2790
tp2791
F0.0008944543828264759
s(S'twice'
p2792
S'won'
p2793
S'for'
p2794
tp2795
F0.0008944543828264759
s(S'[[det]]'
p2796
S'film'
p2797
S'of'
p2798
tp2799
F0.0008944543828264759
s(S'when'
p2800
S'led'
p2801
S'[[det]]'
p2802
tp2803
F0.0008944543828264759
s(S'then'
p2804
S'joined'
p2805
S'[[det]]'
p2806
tp2807
F0.0008944543828264759
s(S'also'
p2808
S'won'
p2809
S'in'
p2810
tp2811
F0.0008944543828264759
s(S'who'
p2812
S'joined'
p2813
S'from'
p2814
tp2815
F0.0008944543828264759
s(S'also'
p2816
S'selected'
p2817
S'to'
p2818
tp2819
F0.0008944543828264759
s(S'was'
p2820
S'received'
p2821
S'into'
p2822
tp2823
F0.0008944543828264759
s(S'that'
p2824
S'led'
p2825
S'at'
p2826
tp2827
F0.0008944543828264759
s(S'where'
p2828
S'led'
p2829
S'[[det]]'
p2830
tp2831
F0.0008944543828264759
s(S'also'
p2832
S'won'
p2833
S'at'
p2834
tp2835
F0.0008944543828264759
s(S'[[det]]'
p2836
S'film'
p2837
S'to'
p2838
tp2839
F0.0008944543828264759
s(S'then'
p2840
S'played'
p2841
S'[[det]]'
p2842
tp2843
F0.0008944543828264759
s(S'be'
p2844
S'selected'
p2845
S'to'
p2846
tp2847
F0.0008944543828264759
s(S'awarded'
p2848
g1067
g1068
tp2849
F0.0008944543828264759
s(S'has'
p2850
S'played'
p2851
S'at'
p2852
tp2853
F0.0008944543828264759
s(S'who'
p2854
S'won'
p2855
S'for'
p2856
tp2857
F0.0008944543828264759
s(S'when'
p2858
S'playing'
p2859
S'for'
p2860
tp2861
F0.0008944543828264759
s(g145
S'film'
p2862
S'for'
p2863
tp2864
F0.0008944543828264759
s(S'is'
p2865
S'buried'
p2866
S'near'
p2867
tp2868
F0.0008944543828264759
s(S'was'
p2869
S'joined'
p2870
S'in'
p2871
tp2872
F0.0008944543828264759
s(S'later'
p2873
S'starred'
p2874
S'in'
p2875
tp2876
F0.0008944543828264759
s(S'also'
p2877
S'helped'
p2878
S'win'
p2879
tp2880
F0.0008944543828264759
s(S'member'
p2881
S'which'
p2882
S'won'
p2883
tp2884
F0.0026833631484794273
s(S'to'
p2885
S'earn'
p2886
S'[[det]]'
p2887
tp2888
F0.0008944543828264759
s(S'led'
p2889
S'[[det]]'
p2890
S'finished'
p2891
tp2892
F0.0008944543828264759
s(S'also'
p2893
S'named'
p2894
S'by'
p2895
tp2896
F0.0008944543828264759
s(S'was'
p2897
S'joined'
p2898
S'at'
p2899
tp2900
F0.0008944543828264759
s(S'was'
p2901
S'selected'
p2902
S'at'
p2903
tp2904
F0.0008944543828264759
s(S'never'
p2905
S'played'
p2906
S'[[con]]'
p2907
tp2908
F0.0008944543828264759
s(S'was'
p2909
S'selected'
p2910
S'[[adj]]'
p2911
tp2912
F0.0008944543828264759
s(S'when'
p2913
S'played'
p2914
S'[[det]]'
p2915
tp2916
F0.0008944543828264759
s(g1367
S'began'
p2917
S'as'
p2918
tp2919
F0.0008944543828264759
s(g1399
g285
g286
tp2920
F0.0008944543828264759
s(S'later'
p2921
S'selected'
p2922
S'by'
p2923
tp2924
F0.0008944543828264759
s(S'was'
p2925
S'playing'
p2926
S'on'
p2927
tp2928
F0.0008944543828264759
s(S'[[con]]'
p2929
S'won'
p2930
S'at'
p2931
tp2932
F0.0017889087656529517
s(S'[[det]]'
p2933
S'awarded'
p2934
S'by'
p2935
tp2936
F0.0008944543828264759
s(S'was'
p2937
S'presented'
p2938
S'with'
p2939
tp2940
F0.0008944543828264759
s(S'signed'
p2941
S'[[det]]'
p2942
S'deal'
p2943
tp2944
F0.0026833631484794273
s(S'then'
p2945
S'playing'
p2946
S'for'
p2947
tp2948
F0.0008944543828264759
s(S'first'
p2949
S'joined'
p2950
S'[[con]]'
p2951
tp2952
F0.0008944543828264759
s(S'also'
p2953
S'received'
p2954
S'[[det]]'
p2955
tp2956
F0.0008944543828264759
s(S'when'
p2957
S'played'
p2958
S'for'
p2959
tp2960
F0.0008944543828264759
s(S'[[con]]'
p2961
S'won'
p2962
S'in'
p2963
tp2964
F0.0008944543828264759
s(S'on'
p2965
S'playing'
p2966
S'for'
p2967
tp2968
F0.0008944543828264759
s(S'to'
p2969
S'win'
p2970
S'[[con]]'
p2971
tp2972
F0.0008944543828264759
s(S'was'
p2973
S'honored'
p2974
S'in'
p2975
tp2976
F0.0008944543828264759
s(S'also'
p2977
S'honored'
p2978
S'at'
p2979
tp2980
F0.0008944543828264759
s(S'ref'
p2981
S'gt'
p2982
S'of'
p2983
tp2984
F0.0008944543828264759
s(S'was'
p2985
S'playing'
p2986
S'in'
p2987
tp2988
F0.0008944543828264759
s(g145
g949
S'gt'
p2989
tp2990
F0.0008944543828264759
s(S'twice'
p2991
S'nominated'
p2992
S'[[con]]'
p2993
tp2994
F0.0008944543828264759
s(S'be'
p2995
S'awarded'
p2996
S'during'
p2997
tp2998
F0.0008944543828264759
s(S'which'
p2999
S'led'
p3000
S'[[det]]'
p3001
tp3002
F0.0008944543828264759
s(S'[[adj]]'
p3003
S'played'
p3004
S'for'
p3005
tp3006
F0.0008944543828264759
s(S'ref'
p3007
g261
g262
tp3008
F0.0008944543828264759
s(g2472
g2473
S'film'
p3009
tp3010
F0.0017889087656529517
s(S'helped'
p3011
S'win'
p3012
S'[[prp]]'
p3013
tp3014
F0.0008944543828264759
s(S'also'
p3015
S'played'
p3016
S'as'
p3017
tp3018
F0.0008944543828264759
s(S'be'
p3019
S'honored'
p3020
S'by'
p3021
tp3022
F0.0008944543828264759
s(S'[[con]]'
p3023
S'joined'
p3024
S'at'
p3025
tp3026
F0.0008944543828264759
s(S'after'
p3027
S'played'
p3028
S'with'
p3029
tp3030
F0.0008944543828264759
s(S'until'
p3031
S'joined'
p3032
S'[[det]]'
p3033
tp3034
F0.0008944543828264759
s(S'[[con]]'
p3035
S'awarded'
p3036
S'[[det]]'
p3037
tp3038
F0.0008944543828264759
s(S'had'
p3039
S'won'
p3040
S'[[prp]]'
p3041
tp3042
F0.0008944543828264759
s(S'to'
p3043
S'win'
p3044
S'by'
p3045
tp3046
F0.0008944543828264759
s(S'had'
p3047
S'signed'
p3048
S'for'
p3049
tp3050
F0.0008944543828264759
s(S'also'
p3051
S'received'
p3052
S'for'
p3053
tp3054
F0.0008944543828264759
s(S'been'
p3055
S'promoted'
p3056
S'to'
p3057
tp3058
F0.0008944543828264759
s(S'has'
p3059
S'starred'
p3060
S'[[con]]'
p3061
tp3062
F0.0008944543828264759
s(S'to'
p3063
S'finish'
p3064
S'[[prp]]'
p3065
tp3066
F0.0008944543828264759
s(g1483
g1484
S'[[pro]]'
p3067
tp3068
F0.0008944543828264759
s(S'[[adj]]'
p3069
S'member'
p3070
S'in'
p3071
tp3072
F0.0008944543828264759
s(S'is'
p3073
S'named'
p3074
S'by'
p3075
tp3076
F0.0008944543828264759
s(g145
S'films'
p3077
S'[[adj]]'
p3078
tp3079
F0.0008944543828264759
s(S'[[adj]]'
p3080
S'member'
p3081
S'[[num]]'
p3082
tp3083
F0.0008944543828264759
s(S'also'
p3084
S'awarded'
p3085
S'as'
p3086
tp3087
F0.0008944543828264759
s(S'[[adj]]'
p3088
S'films'
p3089
S'[[adj]]'
p3090
tp3091
F0.0008944543828264759
s(S'already'
p3092
S'won'
p3093
S'[[det]]'
p3094
tp3095
F0.0008944543828264759
s(S'[[adj]]'
p3096
S'member'
p3097
S'at'
p3098
tp3099
F0.0008944543828264759
s(S'was'
p3100
S'named'
p3101
S'of'
p3102
tp3103
F0.0008944543828264759
s(S'also'
p3104
S'appointed'
p3105
S'for'
p3106
tp3107
F0.0008944543828264759
s(S'[[num]]'
p3108
S'film'
p3109
S'[[det]]'
p3110
tp3111
F0.0017889087656529517
s(g402
g2671
S'with'
p3112
tp3113
F0.005366726296958855
s(g1044
g1045
S'film'
p3114
tp3115
F0.0008944543828264759
s(S'[[det]]'
p3116
S'star'
p3117
S'to'
p3118
tp3119
F0.0008944543828264759
s(S'[[det]]'
p3120
S'member'
p3121
S'[[adj]]'
p3122
tp3123
F0.0008944543828264759
s(S'once'
p3124
S'played'
p3125
S'for'
p3126
tp3127
F0.0008944543828264759
s(S'also'
p3128
S'awarded'
p3129
S'by'
p3130
tp3131
F0.0008944543828264759
s(S'has'
p3132
S'won'
p3133
S'with'
p3134
tp3135
F0.0008944543828264759
s(S'then'
p3136
S'received'
p3137
S'at'
p3138
tp3139
F0.0008944543828264759
s(S'been'
p3140
S'honored'
p3141
S'as'
p3142
tp3143
F0.0008944543828264759
s(S'member'
p3144
g360
g361
tp3145
F0.0008944543828264759
s(S'now'
p3146
S'signed'
p3147
S'with'
p3148
tp3149
F0.0008944543828264759
s(S'who'
p3150
S'won'
p3151
S'[[det]]'
p3152
tp3153
F0.0008944543828264759
s(S'was'
p3154
S'appointed'
p3155
S'was'
p3156
tp3157
F0.0008944543828264759
s(S'[[det]]'
p3158
S'film'
p3159
S'as'
p3160
tp3161
F0.0008944543828264759
s(S'be'
p3162
S'buried'
p3163
S'at'
p3164
tp3165
F0.0008944543828264759
s(S'[[mod]]'
p3166
S'win'
p3167
S'[[det]]'
p3168
tp3169
F0.0008944543828264759
s(S'then'
p3170
S'played'
p3171
S'[[con]]'
p3172
tp3173
F0.0008944543828264759
s(S'first'
p3174
S'played'
p3175
S'with'
p3176
tp3177
F0.0008944543828264759
s(S'also'
p3178
S'starred'
p3179
S'of'
p3180
tp3181
F0.0008944543828264759
s(S'[[con]]'
p3182
S'member'
p3183
S'[[det]]'
p3184
tp3185
F0.0008944543828264759
s(S'as'
p3186
S'led'
p3187
S'[[det]]'
p3188
tp3189
F0.0008944543828264759
s(S'was'
p3190
S'named'
p3191
S'to'
p3192
tp3193
F0.0008944543828264759
s(S'was'
p3194
S'signed'
p3195
S'as'
p3196
tp3197
F0.0008944543828264759
s(S'also'
p3198
S'played'
p3199
S'to'
p3200
tp3201
F0.0008944543828264759
s(S'has'
p3202
S'won'
p3203
S'on'
p3204
tp3205
F0.0008944543828264759
s(S'then'
p3206
S'joined'
p3207
S'on'
p3208
tp3209
F0.0008944543828264759
s(S'be'
p3210
S'selected'
p3211
S'by'
p3212
tp3213
F0.0008944543828264759
s(S'was'
p3214
S'signed'
p3215
S'for'
p3216
tp3217
F0.0008944543828264759
s(S'also'
p3218
S'honored'
p3219
S'by'
p3220
tp3221
F0.0008944543828264759
s(S'been'
p3222
S'selected'
p3223
S'as'
p3224
tp3225
F0.0008944543828264759
s(S'has'
p3226
S'earned'
p3227
S'[[det]]'
p3228
tp3229
F0.0008944543828264759
s(S'[[num]]'
p3230
S'played'
p3231
S'at'
p3232
tp3233
F0.0008944543828264759
s(S'[[con]]'
p3234
S'joined'
p3235
S'[[adj]]'
p3236
tp3237
F0.0008944543828264759
s(S'have'
p3238
S'won'
p3239
S'[[det]]'
p3240
tp3241
F0.0008944543828264759
s(S'also'
p3242
S'starred'
p3243
S'in'
p3244
tp3245
F0.0008944543828264759
s(S'where'
p3246
S'won'
p3247
S'[[con]]'
p3248
tp3249
F0.0008944543828264759
s(S'to'
p3250
S'star'
p3251
S'as'
p3252
tp3253
F0.0008944543828264759
s(S'in'
p3254
S'won'
p3255
S'[[det]]'
p3256
tp3257
F0.0008944543828264759
s(S'[[adj]]'
p3258
S'joined'
p3259
S'[[det]]'
p3260
tp3261
F0.0008944543828264759
s(S'also'
p3262
S'member'
p3263
S'of'
p3264
tp3265
F0.0008944543828264759
s(S'[[con]]'
p3266
S'member'
p3267
S'[[con]]'
p3268
tp3269
F0.0008944543828264759
s(S'been'
p3270
S'appointed'
p3271
S'[[det]]'
p3272
tp3273
F0.0008944543828264759
s(S'again'
p3274
S'selected'
p3275
S'for'
p3276
tp3277
F0.0008944543828264759
s(S'been'
p3278
S'awarded'
p3279
S'[[det]]'
p3280
tp3281
F0.0008944543828264759
s(S'[[adj]]'
p3282
S'playing'
p3283
S'for'
p3284
tp3285
F0.0008944543828264759
s(S'which'
p3286
S'won'
p3287
S'for'
p3288
tp3289
F0.0008944543828264759
s(S'was'
p3290
S'honored'
p3291
S'as'
p3292
tp3293
F0.0008944543828264759
s(g1024
g1025
g1957
tp3294
F0.0026833631484794273
s(S'currently'
p3295
S'playing'
p3296
S'with'
p3297
tp3298
F0.0008944543828264759
s(S'[[adj]]'
p3299
S'starred'
p3300
S'[[det]]'
p3301
tp3302
F0.0008944543828264759
s(S'to'
p3303
S'win'
p3304
S'at'
p3305
tp3306
F0.0008944543828264759
s(S'was'
p3307
S'rated'
p3308
g2164
tp3309
F0.0008944543828264759
s(S'was'
p3310
S'nominated'
p3311
S'again'
p3312
tp3313
F0.0008944543828264759
s(S'[[con]]'
p3314
S'win'
p3315
S'[[det]]'
p3316
tp3317
F0.0017889087656529517
s(S'when'
p3318
S'signed'
p3319
S'up'
p3320
tp3321
F0.0008944543828264759
s(S'[[adj]]'
p3322
S'won'
p3323
S'for'
p3324
tp3325
F0.0008944543828264759
s(g145
S'win'
p3326
S'in'
p3327
tp3328
F0.0008944543828264759
s(S'[[num]]'
p3329
S'film'
p3330
S'of'
p3331
tp3332
F0.0008944543828264759
s(S'that'
p3333
S'won'
p3334
S'[[num]]'
p3335
tp3336
F0.0008944543828264759
s(S'where'
p3337
S'starred'
p3338
S'in'
p3339
tp3340
F0.0008944543828264759
s(S'[[adj]]'
p3341
S'star'
p3342
S'on'
p3343
tp3344
F0.0008944543828264759
s(g1398
g1399
g285
tp3345
F0.0008944543828264759
s(S'later'
p3346
S'won'
p3347
S'[[det]]'
p3348
tp3349
F0.0008944543828264759
s(S'also'
p3350
S'won'
p3351
S'[[num]]'
p3352
tp3353
F0.0008944543828264759
s(g145
S'win'
p3354
S'at'
p3355
tp3356
F0.0008944543828264759
s(S'also'
p3357
S'played'
p3358
S'over'
p3359
tp3360
F0.0008944543828264759
s(g1781
g1782
g2215
tp3361
F0.0017889087656529517
s(S'was'
p3362
S'signed'
p3363
S'[[con]]'
p3364
tp3365
F0.0008944543828264759
s(S'also'
p3366
S'named'
p3367
S'at'
p3368
tp3369
F0.0008944543828264759
s(g1957
g1007
g1008
tp3370
F0.0026833631484794273
s(S'is'
p3371
S'named'
p3372
S'in'
p3373
tp3374
F0.0008944543828264759
s(S'formerly'
p3375
S'played'
p3376
S'with'
p3377
tp3378
F0.0008944543828264759
s(g2258
g1131
g1132
tp3379
F0.004472271914132379
s(S'later'
p3380
S'played'
p3381
S'[[det]]'
p3382
tp3383
F0.0008944543828264759
s(S'has'
p3384
S'received'
p3385
S'from'
p3386
tp3387
F0.0008944543828264759
s(S'was'
p3388
g133
g134
tp3389
F0.0008944543828264759
s(S'was'
p3390
S'selected'
p3391
S'as'
p3392
tp3393
F0.0008944543828264759
s(S'was'
p3394
S'nominated'
p3395
S'[[det]]'
p3396
tp3397
F0.0008944543828264759
s(S'was'
p3398
S'promoted'
p3399
S'to'
p3400
tp3401
F0.0008944543828264759
s(S'later'
p3402
S'earned'
p3403
S'from'
p3404
tp3405
F0.0008944543828264759
s(S'was'
p3406
S'selected'
p3407
S'to'
p3408
tp3409
F0.0008944543828264759
s(S'while'
p3410
S'playing'
p3411
S'with'
p3412
tp3413
F0.0008944543828264759
s(S'first'
p3414
S'appointed'
p3415
S'as'
p3416
tp3417
F0.0008944543828264759
s(S'also'
p3418
S'playing'
p3419
S'for'
p3420
tp3421
F0.0008944543828264759
s(S'also'
p3422
S'starred'
p3423
S'to'
p3424
tp3425
F0.0008944543828264759
s(S'was'
p3426
S'awarded'
p3427
S'by'
p3428
tp3429
F0.0008944543828264759
s(S'became'
p3430
S'member'
p3431
S'for'
p3432
tp3433
F0.0008944543828264759
s(S'was'
p3434
S'selected'
p3435
S'[[num]]'
p3436
tp3437
F0.0008944543828264759
s(S'also'
p3438
S'led'
p3439
S'[[con]]'
p3440
tp3441
F0.0008944543828264759
s(S'[[adj]]'
p3442
S'member'
p3443
S'[[con]]'
p3444
tp3445
F0.0008944543828264759
s(S'also'
p3446
S'nominated'
p3447
S'twice'
p3448
tp3449
F0.0008944543828264759
s(S'was'
p3450
S'signed'
p3451
S'by'
p3452
tp3453
F0.0008944543828264759
s(S'been'
p3454
S'awarded'
p3455
S'for'
p3456
tp3457
F0.0008944543828264759
s(S'has'
p3458
S'earned'
p3459
S'from'
p3460
tp3461
F0.0008944543828264759
s(S'[[adj]]'
p3462
S'played'
p3463
S'on'
p3464
tp3465
F0.0008944543828264759
s(S'also'
p3466
S'selected'
p3467
S'[[det]]'
p3468
tp3469
F0.0008944543828264759
s(S'since'
p3470
S'won'
p3471
S'[[det]]'
p3472
tp3473
F0.0008944543828264759
s(S'[[det]]'
p3474
S'member'
p3475
S'[[con]]'
p3476
tp3477
F0.0026833631484794273
s(S'has'
p3478
S'played'
p3479
S'[[con]]'
p3480
tp3481
F0.0008944543828264759
s(S'been'
p3482
S'awarded'
p3483
S'by'
p3484
tp3485
F0.0008944543828264759
s(S'signed'
p3486
S'[[det]]'
p3487
S'[[num]]'
p3488
tp3489
F0.0008944543828264759
s(S'[[adj]]'
p3490
S'selected'
p3491
S'for'
p3492
tp3493
F0.0008944543828264759
s(S'later'
p3494
S'played'
p3495
S'for'
p3496
tp3497
F0.0008944543828264759
s(S'then'
p3498
S'playing'
p3499
S'in'
p3500
tp3501
F0.0008944543828264759
s(S'then'
p3502
S'earned'
p3503
S'[[det]]'
p3504
tp3505
F0.0008944543828264759
s(S'has'
p3506
S'starred'
p3507
S'[[det]]'
p3508
tp3509
F0.0008944543828264759
s(S'then'
p3510
S'joined'
p3511
S'of'
p3512
tp3513
F0.0008944543828264759
s(S'later'
p3514
S'earned'
p3515
S'in'
p3516
tp3517
F0.0008944543828264759
s(S'[[con]]'
p3518
S'played'
p3519
S'twice'
p3520
tp3521
F0.0008944543828264759
s(S'later'
p3522
S'won'
p3523
S'for'
p3524
tp3525
F0.0008944543828264759
s(S'member'
p3526
S'[[con]]'
p3527
S'won'
p3528
tp3529
F0.0017889087656529517
s(S'had'
p3530
S'led'
p3531
S'[[det]]'
p3532
tp3533
F0.0008944543828264759
s(S'then'
p3534
S'won'
p3535
S'at'
p3536
tp3537
F0.0008944543828264759
s(S'up'
p3538
S'playing'
p3539
S'for'
p3540
tp3541
F0.0008944543828264759
s(S'[[adj]]'
p3542
S'film'
p3543
S'after'
p3544
tp3545
F0.0008944543828264759
s(S'[[pro]]'
p3546
S'led'
p3547
S'[[det]]'
p3548
tp3549
F0.0008944543828264759
s(S'also'
p3550
S'played'
p3551
S'in'
p3552
tp3553
F0.0008944543828264759
s(S'won'
p3554
S'for'
p3555
g1889
tp3556
F0.0017889087656529517
s(S'been'
p3557
S'nominated'
p3558
S'twice'
p3559
tp3560
F0.0008944543828264759
s(S'that'
p3561
S'won'
p3562
S'[[det]]'
p3563
tp3564
F0.0026833631484794273
s(S'was'
p3565
S'named'
p3566
S'[[prp]]'
p3567
tp3568
F0.0008944543828264759
s(S'was'
p3569
S'named'
p3570
S'as'
p3571
tp3572
F0.0008944543828264759
s(S'also'
p3573
S'named'
p3574
S'[[det]]'
p3575
tp3576
F0.0008944543828264759
s(S'was'
p3577
S'honored'
p3578
S'[[det]]'
p3579
tp3580
F0.0008944543828264759
s(g3487
g3488
S'deal'
p3581
tp3582
F0.0008944543828264759
s(S'had'
p3583
S'starred'
p3584
S'as'
p3585
tp3586
F0.0008944543828264759
s(S'been'
p3587
S'named'
p3588
S'[[num]]'
p3589
tp3590
F0.0008944543828264759
s(S'was'
p3591
g654
g655
tp3592
F0.0017889087656529517
s(S'later'
p3593
S'signed'
p3594
S'for'
p3595
tp3596
F0.0008944543828264759
s(S'was'
p3597
S'member'
p3598
S'[[det]]'
p3599
tp3600
F0.0008944543828264759
s(S'also'
p3601
S'received'
p3602
S'by'
p3603
tp3604
F0.0008944543828264759
s(S'not'
p3605
S'played'
p3606
S'in'
p3607
tp3608
F0.0008944543828264759
s(S'again'
p3609
S'selected'
p3610
S'in'
p3611
tp3612
F0.0008944543828264759
s(S'first'
p3613
S'played'
p3614
S'against'
p3615
tp3616
F0.0008944543828264759
s(S'had'
p3617
S'played'
p3618
S'[[con]]'
p3619
tp3620
F0.0008944543828264759
s(S'to'
p3621
S'win'
p3622
S'[[det]]'
p3623
tp3624
F0.0026833631484794273
s(S'[[det]]'
p3625
S'member'
p3626
g145
tp3627
F0.0008944543828264759
s(S'helped'
p3628
S'win'
p3629
S'[[num]]'
p3630
tp3631
F0.0008944543828264759
s(S'not'
p3632
S'selected'
p3633
S'by'
p3634
tp3635
F0.0008944543828264759
s(S'has'
p3636
S'presented'
p3637
S'on'
p3638
tp3639
F0.0008944543828264759
s(g1366
g1367
g2917
tp3640
F0.0008944543828264759
s(S'was'
p3641
S'appointed'
p3642
S'before'
p3643
tp3644
F0.0008944543828264759
s(S'later'
p3645
S'named'
p3646
S'[[det]]'
p3647
tp3648
F0.0008944543828264759
s(S'[[det]]'
p3649
S'member'
p3650
S'for'
p3651
tp3652
F0.0008944543828264759
s(S'again'
p3653
S'named'
p3654
S'[[det]]'
p3655
tp3656
F0.0008944543828264759
s(S'[[adj]]'
p3657
S'film'
p3658
S'[[con]]'
p3659
tp3660
F0.0008944543828264759
s(S'posthumously'
p3661
S'awarded'
p3662
S'for'
p3663
tp3664
F0.0008944543828264759
s(S'signed'
p3665
S'[[adj]]'
p3666
S'deal'
p3667
tp3668
F0.0008944543828264759
s(S'was'
p3669
g3661
g3662
tp3670
F0.0026833631484794273
s(S'was'
p3671
S'played'
p3672
S'for'
p3673
tp3674
F0.0008944543828264759
s(S'has'
p3675
S'won'
p3676
S'for'
p3677
tp3678
F0.0008944543828264759
s(S'once'
p3679
S'played'
p3680
S'with'
p3681
tp3682
F0.0008944543828264759
s(g3488
g3581
S'with'
p3683
tp3684
F0.0008944543828264759
s(S'was'
p3685
S'nominated'
p3686
S'on'
p3687
tp3688
F0.0008944543828264759
s(S'has'
p3689
S'joined'
p3690
S'[[det]]'
p3691
tp3692
F0.0008944543828264759
s(S'[[con]]'
p3693
S'received'
p3694
S'in'
p3695
tp3696
F0.0008944543828264759
s(S'has'
p3697
S'starred'
p3698
S'on'
p3699
tp3700
F0.0008944543828264759
s(S'later'
p3701
S'played'
p3702
S'in'
p3703
tp3704
F0.0008944543828264759
s(g2367
g2368
S'win'
p3705
tp3706
F0.0008944543828264759
s(S'were'
p3707
S'signed'
p3708
S'from'
p3709
tp3710
F0.0008944543828264759
s(S'[[adj]]'
p3711
S'films'
p3712
S'as'
p3713
tp3714
F0.0008944543828264759
s(S'was'
p3715
S'signed'
p3716
S'at'
p3717
tp3718
F0.0008944543828264759
s(S'already'
p3719
S'played'
p3720
S'in'
p3721
tp3722
F0.0008944543828264759
s(S'had'
p3723
S'joined'
p3724
S'of'
p3725
tp3726
F0.0008944543828264759
s(S'later'
p3727
S'signed'
p3728
S'to'
p3729
tp3730
F0.0008944543828264759
s(S'[[con]]'
p3731
S'received'
p3732
S'at'
p3733
tp3734
F0.0008944543828264759
s(g3555
g1889
g1890
tp3735
F0.0017889087656529517
s(S'never'
p3736
S'played'
p3737
S'with'
p3738
tp3739
F0.0008944543828264759
s(S'has'
p3740
S'won'
p3741
S'twice'
p3742
tp3743
F0.0008944543828264759
s(S'was'
p3744
S'signed'
p3745
S'in'
p3746
tp3747
F0.0008944543828264759
s(S'was'
p3748
S'named'
p3749
S'[[adj]]'
p3750
tp3751
F0.0008944543828264759
s(S'was'
p3752
S'honored'
p3753
S'with'
p3754
tp3755
F0.0008944543828264759
s(S'also'
p3756
S'nominated'
p3757
S'for'
p3758
tp3759
F0.0008944543828264759
s(g3308
g2164
g527
tp3760
F0.0008944543828264759
s(S'also'
p3761
S'received'
p3762
S'from'
p3763
tp3764
F0.0008944543828264759
s(S'has'
p3765
S'presented'
p3766
S'for'
p3767
tp3768
F0.0008944543828264759
s(S'then'
p3769
S'received'
p3770
S'[[con]]'
p3771
tp3772
F0.0008944543828264759
s(S'[[con]]'
p3773
S'led'
p3774
S'[[det]]'
p3775
tp3776
F0.0008944543828264759
s(S'in'
p3777
S'films'
p3778
S'[[con]]'
p3779
tp3780
F0.0008944543828264759
s(S'[[det]]'
p3781
S'film'
p3782
S'[[adj]]'
p3783
tp3784
F0.0008944543828264759
s(S'[[mod]]'
p3785
S'star'
p3786
S'in'
p3787
tp3788
F0.0008944543828264759
s(S'has'
p3789
S'starred'
p3790
S'of'
p3791
tp3792
F0.0008944543828264759
s(S'also'
p3793
S'presented'
p3794
S'for'
p3795
tp3796
F0.0008944543828264759
s(S'[[adj]]'
p3797
S'played'
p3798
S'as'
p3799
tp3800
F0.0008944543828264759
s(S'also'
p3801
S'named'
p3802
S'[[num]]'
p3803
tp3804
F0.0008944543828264759
s(S'been'
p3805
S'buried'
p3806
S'in'
p3807
tp3808
F0.0008944543828264759
s(S'then'
p3809
S'signed'
p3810
S'in'
p3811
tp3812
F0.0008944543828264759
s(S'help'
p3813
S'win'
p3814
S'[[det]]'
p3815
tp3816
F0.0008944543828264759
s(S'was'
p3817
S'selected'
p3818
S'from'
p3819
tp3820
F0.0008944543828264759
s(S'currently'
p3821
S'signed'
p3822
S'with'
p3823
tp3824
F0.0008944543828264759
s(S'[[det]]'
p3825
S'star'
p3826
S'in'
p3827
tp3828
F0.0008944543828264759
s(S'[[con]]'
p3829
S'played'
p3830
S'against'
p3831
tp3832
F0.0008944543828264759
s(S'[[con]]'
p3833
S'signed'
p3834
S'with'
p3835
tp3836
F0.0008944543828264759
s(S'also'
p3837
S'nominated'
p3838
S'[[det]]'
p3839
tp3840
F0.0008944543828264759
s(S'again'
p3841
S'played'
p3842
S'for'
p3843
tp3844
F0.0008944543828264759
s(g2942
g2943
S'with'
p3845
tp3846
F0.0017889087656529517
s.