(dp0
(S'[[adj]]'
p1
S'church'
p2
S'[[det]]'
p3
tp4
F0.2
s(S'[[adj]]'
p5
S'church'
p6
S'in'
p7
tp8
F0.2
s(S'[[adj]]'
p9
S'church'
p10
S'at'
p11
tp12
F0.2
s(S'[[det]]'
p13
S'church'
p14
S'in'
p15
tp16
F0.2
s(S'[[det]]'
p17
S'church'
p18
S'on'
p19
tp20
F0.2
s.