(dp0
(S'was'
p1
S'built'
p2
S'for'
p3
tp4
F0.02531645569620253
s(S'[[num]]'
p5
S'built'
p6
S'for'
p7
tp8
F0.006329113924050633
s(S'was'
p9
S'built'
p10
S'with'
p11
tp12
F0.006329113924050633
s(S'image'
p13
S'was'
p14
S'[[det]]'
p15
tp16
F0.02531645569620253
s(S'is'
p17
S'launched'
p18
S'from'
p19
tp20
F0.006329113924050633
s(S'[[con]]'
p21
S'built'
p22
S'by'
p23
tp24
F0.006329113924050633
s(S'then'
p25
S'sailed'
p26
S'to'
p27
tp28
F0.006329113924050633
s(S'be'
p29
S'built'
p30
S'by'
p31
tp32
F0.006329113924050633
s(S'[[con]]'
p33
S'sailed'
p34
S'for'
p35
tp36
F0.006329113924050633
s(S'was'
p37
S'launched'
p38
S'as'
p39
tp40
F0.006329113924050633
s(S'be'
p41
S'built'
p42
S'in'
p43
tp44
F0.006329113924050633
s(S'then'
p45
S'sailed'
p46
S'for'
p47
tp48
F0.006329113924050633
s(S'[[adj]]'
p49
S'built'
p50
S'in'
p51
tp52
F0.006329113924050633
s(S'was'
p53
S'launched'
p54
S'by'
p55
tp56
F0.006329113924050633
s(S'was'
p57
S'ordered'
p58
S'from'
p59
tp60
F0.006329113924050633
s(S'originally'
p61
S'built'
p62
S'as'
p63
tp64
F0.006329113924050633
s(S'ocean'
p65
S'liner'
p66
S'built'
p67
tp68
F0.006329113924050633
s(S'originally'
p69
S'built'
p70
S'for'
p71
tp72
F0.006329113924050633
s(S'image'
p73
S'was'
p74
S'built'
p75
tp76
F0.012658227848101266
s(S'ship'
p77
S'image'
p78
S'built'
p79
tp80
F0.006329113924050633
s(S'is'
p81
S'built'
p82
S'[[con]]'
p83
tp84
F0.006329113924050633
s(g78
g79
S'for'
p85
tp86
F0.006329113924050633
s(S'[[con]]'
p87
S'sailed'
p88
S'to'
p89
tp90
F0.006329113924050633
s(S'[[num]]'
p91
S'built'
p92
S'in'
p93
tp94
F0.006329113924050633
s(S'was'
p95
S'built'
p96
S'as'
p97
tp98
F0.006329113924050633
s(S'originally'
p99
S'built'
p100
S'in'
p101
tp102
F0.006329113924050633
s(S'built'
p103
S'at'
p104
S'shipyard'
p105
tp106
F0.006329113924050633
s(S'had'
p107
S'sailed'
p108
S'from'
p109
tp110
F0.006329113924050633
s(S'was'
p111
g99
g100
tp112
F0.03164556962025317
s(S'cargo'
p113
S'ship'
p114
S'built'
p115
tp116
F0.006329113924050633
s(S'[[det]]'
p117
S'built'
p118
S'in'
p119
tp120
F0.006329113924050633
s(S'[[adj]]'
p121
S'built'
p122
S'for'
p123
tp124
F0.006329113924050633
s(S'is'
p125
S'built'
p126
S'by'
p127
tp128
F0.006329113924050633
s(S'built'
p129
S'at'
p130
S'[[det]]'
p131
tp132
F0.006329113924050633
s(S'then'
p133
S'sailed'
p134
S'from'
p135
tp136
F0.006329113924050633
s(S'were'
p137
S'built'
p138
S'in'
p139
tp140
F0.006329113924050633
s(S'was'
p141
S'[[num]]'
p142
S'cargo'
p143
tp144
F0.0189873417721519
s(S'built'
p145
S'by'
p146
S'[[det]]'
p147
tp148
F0.006329113924050633
s(S'was'
p149
S'constructed'
p150
S'by'
p151
tp152
F0.006329113924050633
s(g104
g105
S'in'
p153
tp154
F0.006329113924050633
s(S'[[adj]]'
p155
S'built'
p156
S'by'
p157
tp158
F0.006329113924050633
s(S'[[det]]'
p159
S'laid'
p160
S'down'
p161
tp162
F0.006329113924050633
s(S'been'
p163
S'built'
p164
S'by'
p165
tp166
F0.006329113924050633
s(S'cargo'
p167
S'ship'
p168
S'that'
p169
tp170
F0.006329113924050633
s(g131
S'shipyard'
p171
S'in'
p172
tp173
F0.012658227848101266
s(S'[[det]]'
p174
g65
g66
tp175
F0.006329113924050633
s(S'was'
p176
S'constructed'
p177
S'for'
p178
tp179
F0.006329113924050633
s(S'is'
p180
S'launched'
p181
S'by'
p182
tp183
F0.006329113924050633
s(S'was'
p184
S'built'
p185
S'[[con]]'
p186
tp187
F0.006329113924050633
s(S'had'
p188
S'originally'
p189
S'been'
p190
tp191
F0.006329113924050633
s(g146
g147
S'shipyard'
p192
tp193
F0.006329113924050633
s(S'was'
p194
S'built'
p195
S'between'
p196
tp197
F0.006329113924050633
s(S'then'
p198
S'sailed'
p199
S'at'
p200
tp201
F0.006329113924050633
s(S'is'
p202
S'launched'
p203
S'in'
p204
tp205
F0.006329113924050633
s(g130
g131
g171
tp206
F0.006329113924050633
s(g142
g143
S'ship'
p207
tp208
F0.03164556962025317
s(S'[[det]]'
p209
S'built'
p210
S'for'
p211
tp212
F0.012658227848101266
s(S'was'
p213
S'[[det]]'
p214
S'built'
p215
tp216
F0.012658227848101266
s(g14
g15
S'submarine'
p217
tp218
F0.012658227848101266
s(S'was'
p219
S'built'
p220
S'after'
p221
tp222
F0.006329113924050633
s(S'was'
p223
S'built'
p224
S'near'
p225
tp226
F0.006329113924050633
s(g114
g115
S'for'
p227
tp228
F0.006329113924050633
s(S'ship'
p229
g13
g14
tp230
F0.0379746835443038
s(g169
S'was'
p231
S'built'
p232
tp233
F0.006329113924050633
s(S'were'
p234
S'built'
p235
S'for'
p236
tp237
F0.006329113924050633
s(g143
g207
S'which'
p238
tp239
F0.02531645569620253
s(S'was'
p240
S'completed'
p241
S'at'
p242
tp243
F0.006329113924050633
s(S'image'
p244
g141
g142
tp245
F0.0189873417721519
s(S'been'
p246
S'built'
p247
S'in'
p248
tp249
F0.006329113924050633
s(S'originally'
p250
S'built'
p251
S'by'
p252
tp253
F0.006329113924050633
s(S'was'
p254
S'launched'
p255
S'in'
p256
tp257
F0.006329113924050633
s(S'submarine'
p258
S'built'
p259
S'by'
p260
tp261
F0.006329113924050633
s(S'were'
p262
S'built'
p263
S'by'
p264
tp265
F0.006329113924050633
s(S'be'
p266
S'built'
p267
S'as'
p268
tp269
F0.006329113924050633
s(g66
g67
S'by'
p270
tp271
F0.006329113924050633
s(g189
g190
S'built'
p272
tp273
F0.006329113924050633
s(S'also'
p274
S'built'
p275
S'by'
p276
tp277
F0.006329113924050633
s(g207
g238
S'was'
p278
tp279
F0.02531645569620253
s(S'was'
p280
S'completed'
p281
S'for'
p282
tp283
F0.006329113924050633
s(S'built'
p284
S'circa'
p285
S'[[num]]'
p286
tp287
F0.006329113924050633
s(S'is'
p288
S'built'
p289
S'up'
p290
tp291
F0.006329113924050633
s(S'was'
p292
S'built'
p293
S'by'
p294
tp295
F0.0379746835443038
s(S'was'
p296
S'completed'
p297
S'[[con]]'
p298
tp299
F0.006329113924050633
s(S'when'
p300
S'sailed'
p301
S'for'
p302
tp303
F0.006329113924050633
s(S'[[num]]'
p304
S'built'
p305
S'by'
p306
tp307
F0.006329113924050633
s(S'was'
p308
S'built'
p309
S'at'
p310
tp311
F0.0189873417721519
s(S'when'
p312
S'sailed'
p313
S'to'
p314
tp315
F0.006329113924050633
s(S'[[det]]'
p316
S'built'
p317
S'by'
p318
tp319
F0.012658227848101266
s(S'was'
p320
S'built'
p321
S'[[num]]'
p322
tp323
F0.006329113924050633
s(S'was'
p324
S'launched'
p325
S'[[num]]'
p326
tp327
F0.006329113924050633
s(S'was'
p328
S'built'
p329
S'in'
p330
tp331
F0.006329113924050633
s(S'been'
p332
S'built'
p333
S'for'
p334
tp335
F0.006329113924050633
s(S'is'
p336
S'built'
p337
S'in'
p338
tp339
F0.006329113924050633
s(S'was'
p340
g284
g285
tp341
F0.006329113924050633
s(S'was'
p342
S'completed'
p343
S'by'
p344
tp345
F0.006329113924050633
s(S'was'
p346
S'built'
p347
S'[[det]]'
p348
tp349
F0.006329113924050633
s(S'was'
p350
S'laid'
p351
S'up'
p352
tp353
F0.006329113924050633
s(S'is'
p354
S'built'
p355
S'at'
p356
tp357
F0.006329113924050633
s(S'[[adj]]'
p358
S'sailed'
p359
S'from'
p360
tp361
F0.006329113924050633
s(S'be'
p362
S'launched'
p363
S'in'
p364
tp365
F0.006329113924050633
s(S'was'
p366
S'laid'
p367
S'down'
p368
tp369
F0.006329113924050633
s(S'was'
p370
S'launched'
p371
S'to'
p372
tp373
F0.006329113924050633
s(S'been'
p374
S'built'
p375
S'along'
p376
tp377
F0.006329113924050633
s(S'was'
p378
S'laid'
p379
S'by'
p380
tp381
F0.006329113924050633
s(g238
g278
S'built'
p382
tp383
F0.02531645569620253
s(g190
g272
S'[[det]]'
p384
tp385
F0.006329113924050633
s(S'[[det]]'
p386
g113
g114
tp387
F0.006329113924050633
s(S'was'
p388
S'built'
p389
S'around'
p390
tp391
F0.006329113924050633
s(S'was'
p392
S'built'
p393
S'over'
p394
tp395
F0.006329113924050633
s(g168
g169
g231
tp396
F0.006329113924050633
s(S'[[det]]'
p397
g258
g259
tp398
F0.006329113924050633
s(S'was'
p399
S'launched'
p400
S'on'
p401
tp402
F0.006329113924050633
s(S'was'
p403
S'launched'
p404
S'from'
p405
tp406
F0.006329113924050633
s.