(dp0
(S'[[num]]'
p1
S'campuses'
p2
S'[[con]]'
p3
tp4
F0.058823529411764705
s(S'university'
p5
S'with'
p6
S'campuses'
p7
tp8
F0.058823529411764705
s(S'[[adj]]'
p9
S'campuses'
p10
S'in'
p11
tp12
F0.058823529411764705
s(S'[[num]]'
p13
S'campuses'
p14
S'in'
p15
tp16
F0.11764705882352941
s(S'with'
p17
g13
g14
tp18
F0.058823529411764705
s(S'[[adj]]'
p19
g5
g6
tp20
F0.058823529411764705
s(S'has'
p21
S'campuses'
p22
S'[[con]]'
p23
tp24
F0.058823529411764705
s(g6
g7
S'in'
p25
tp26
F0.11764705882352941
s(S'university'
p27
g17
g13
tp28
F0.058823529411764705
s(S'[[det]]'
p29
g27
g17
tp30
F0.058823529411764705
s(S'[[adj]]'
p31
S'university'
p32
S'located'
p33
tp34
F0.058823529411764705
s(S'[[det]]'
p35
S'university'
p36
S'located'
p37
tp38
F0.058823529411764705
s(S'has'
p39
S'campuses'
p40
S'in'
p41
tp42
F0.058823529411764705
s(g36
g37
S'in'
p43
tp44
F0.11764705882352941
s.