(dp0
(S'[[con]]'
p1
S'declared'
p2
S'that'
p3
tp4
F0.06666666666666667
s(S'had'
p5
S'declared'
p6
S'[[pro]]'
p7
tp8
F0.06666666666666667
s(S'[[con]]'
p9
S'declared'
p10
S'[[adj]]'
p11
tp12
F0.06666666666666667
s(S'was'
p13
S'canonized'
p14
S'by'
p15
tp16
F0.13333333333333333
s(S'beatified'
p17
S'canonized'
p18
S'by'
p19
tp20
F0.06666666666666667
s(S'was'
p21
S'beatified'
p22
S'was'
p23
tp24
F0.06666666666666667
s(g22
g23
S'canonized'
p25
tp26
F0.06666666666666667
s(S'was'
p27
S'canonized'
p28
S'[[det]]'
p29
tp30
F0.06666666666666667
s(g28
g29
S'saint'
p31
tp32
F0.06666666666666667
s(S'was'
p33
S'declared'
p34
S'by'
p35
tp36
F0.06666666666666667
s(S'was'
p37
g17
g18
tp38
F0.06666666666666667
s(S'was'
p39
S'declared'
p40
S'[[det]]'
p41
tp42
F0.06666666666666667
s(S'was'
p43
S'declared'
p44
S'to'
p45
tp46
F0.06666666666666667
s(S'was'
p47
S'declared'
p48
S'[[adj]]'
p49
tp50
F0.06666666666666667
s.