(dp0
(S'comedy'
p1
S'film'
p2
S'produced'
p3
tp4
F0.001026167265264238
s(S'also'
p5
S'known'
p6
S'as'
p7
tp8
F0.000513083632632119
s(S'road'
p9
S'movie'
p10
S'directed'
p11
tp12
F0.001026167265264238
s(S'released'
p13
S'in'
p14
S'[[num]]'
p15
tp16
F0.000513083632632119
s(S'[[num]]'
p17
S'film'
p18
S'made'
p19
tp20
F0.000513083632632119
s(S'thriller'
p21
S'film'
p22
S'starring'
p23
tp24
F0.00513083632632119
s(S'[[num]]'
p25
S'crime'
p26
S'film'
p27
tp28
F0.006670087224217547
s(S'television'
p29
S'drama'
p30
S'film'
p31
tp32
F0.000513083632632119
s(S'horror'
p33
S'film'
p34
S'starring'
p35
tp36
F0.0035915854284248334
s(S'by'
p37
S'produced'
p38
S'[[con]]'
p39
tp40
F0.000513083632632119
s(S'directed'
p41
S'starring'
p42
S'[[con]]'
p43
tp44
F0.00513083632632119
s(S'thriller'
p45
S'film'
p46
S'directed'
p47
tp48
F0.011287839917906618
s(S'is'
p49
S'[[num]]'
p50
g29
tp51
F0.000513083632632119
s(S'comedy'
p52
S'film'
p53
S'featuring'
p54
tp55
F0.0015392508978963571
s(S'mystery'
p56
S'film'
p57
S'starring'
p58
tp59
F0.000513083632632119
s(S'feature'
p60
S'film'
p61
S'starring'
p62
tp63
F0.0035915854284248334
s(S'[[num]]'
p64
S'film'
p65
S'[[adj]]'
p66
tp67
F0.000513083632632119
s(S'film'
p68
S'directed'
p69
S'written'
p70
tp71
F0.00513083632632119
s(S'gentleman'
p72
S'[[num]]'
p73
S'movie'
p74
tp75
F0.000513083632632119
s(S'produced'
p76
S'by'
p77
S'starring'
p78
tp79
F0.000513083632632119
s(S'[[adj]]'
p80
S'arts'
p81
S'film'
p82
tp83
F0.0015392508978963571
s(S'[[det]]'
p84
S'feature'
p85
S'film'
p86
tp87
F0.002052334530528476
s(S'film'
p88
S'directed'
p89
S'by'
p90
tp91
F0.06413545407901487
s(S'was'
p92
S'directed'
p93
S'produced'
p94
tp95
F0.000513083632632119
s(S'is'
p96
S'[[adj]]'
p97
S'arts'
p98
tp99
F0.000513083632632119
s(S'adapted'
p100
S'[[num]]'
p101
S'movie'
p102
tp103
F0.000513083632632119
s(g65
g66
S'[[con]]'
p104
tp105
F0.001026167265264238
s(S'action'
p106
S'film'
p107
S'[[con]]'
p108
tp109
F0.000513083632632119
s(S'crime'
p110
S'film'
p111
S'starring'
p112
tp113
F0.002052334530528476
s(S'directed'
p114
g37
g38
tp115
F0.000513083632632119
s(S'film'
p116
S'from'
p117
S'directed'
p118
tp119
F0.001026167265264238
s(g14
g15
S'starring'
p120
tp121
F0.001026167265264238
s(S'[[con]]'
p122
S'action'
p123
S'film'
p124
tp125
F0.000513083632632119
s(S'directed'
p126
S'with'
p127
S'[[det]]'
p128
tp129
F0.0015392508978963571
s(S'[[num]]'
p130
S'film'
p131
S'starring'
p132
tp133
F0.0015392508978963571
s(S'[[det]]'
p134
S'thriller'
p135
S'directed'
p136
tp137
F0.000513083632632119
s(S'[[num]]'
p138
S'film'
p139
S'that'
p140
tp141
F0.001026167265264238
s(S'by'
p142
S'starring'
p143
S'[[con]]'
p144
tp145
F0.004104669061056952
s(S'is'
p146
S'[[num]]'
p147
S'thriller'
p148
tp149
F0.000513083632632119
s(S'[[num]]'
p150
S'fantasy'
p151
S'film'
p152
tp153
F0.0015392508978963571
s(S'[[num]]'
p154
S'movie'
p155
S'produced'
p156
tp157
F0.000513083632632119
s(S'directed'
p158
S'starring'
p159
S'as'
p160
tp161
F0.000513083632632119
s(S'[[num]]'
p162
S'detective'
p163
S'film'
p164
tp165
F0.001026167265264238
s(S'into'
p166
S'[[det]]'
p167
S'film'
p168
tp169
F0.000513083632632119
s(S'[[con]]'
p170
S'based'
p171
S'by'
p172
tp173
F0.000513083632632119
s(S'film'
p174
S'starring'
p175
S'directed'
p176
tp177
F0.001026167265264238
s(S'[[num]]'
p178
S'drama'
p179
S'film'
p180
tp181
F0.01590559261159569
s(S'created'
p182
S'[[con]]'
p183
S'written'
p184
tp185
F0.000513083632632119
s(S'[[adj]]'
p186
S'movie'
p187
S'directed'
p188
tp189
F0.000513083632632119
s(S'[[adj]]'
p190
g33
g34
tp191
F0.002565418163160595
s(S'documentary'
p192
S'directed'
p193
S'[[con]]'
p194
tp195
F0.001026167265264238
s(S'directed'
p196
S'starring'
p197
S'[[det]]'
p198
tp199
F0.000513083632632119
s(S'[[num]]'
p200
S'film'
p201
S'directed'
p202
tp203
F0.018471010774756286
s(S'television'
p204
S'film'
p205
S'starring'
p206
tp207
F0.001026167265264238
s(S'[[con]]'
p208
S'directed'
p209
S'by'
p210
tp211
F0.025654181631605953
s(S'[[num]]'
p212
S'film'
p213
S'produced'
p214
tp215
F0.001026167265264238
s(S'that'
p216
S'was'
p217
S'directed'
p218
tp219
F0.000513083632632119
s(S'was'
p220
S'directed'
p221
S'with'
p222
tp223
F0.000513083632632119
s(S'[[adj]]'
p224
S'written'
p225
S'[[con]]'
p226
tp227
F0.001026167265264238
s(S'documentary'
p228
S'film'
p229
S'produced'
p230
tp231
F0.000513083632632119
s(S'adventure'
p232
g13
g14
tp233
F0.000513083632632119
s(S'comedy'
p234
S'family'
p235
S'film'
p236
tp237
F0.000513083632632119
s(g19
S'directed'
p238
S'by'
p239
tp240
F0.000513083632632119
s(S'action'
p241
S'comedy'
p242
S'film'
p243
tp244
F0.002565418163160595
s(S'[[num]]'
p245
S'directed'
p246
S'by'
p247
tp248
F0.000513083632632119
s(S'adventure'
p249
S'film'
p250
S'directed'
p251
tp252
F0.002565418163160595
s(S'horror'
p253
S'film'
p254
S'written'
p255
tp256
F0.0030785017957927143
s(S'[[con]]'
p257
S'directed'
p258
S'[[con]]'
p259
tp260
F0.0107747562852745
s(S'directed'
p261
S'produced'
p262
S'[[con]]'
p263
tp264
F0.001026167265264238
s(g73
g74
S'directed'
p265
tp266
F0.002052334530528476
s(S'was'
p267
g100
g101
tp268
F0.000513083632632119
s(S'cult'
p269
S'[[num]]'
p270
S'drama'
p271
tp272
F0.000513083632632119
s(S'[[adj]]'
p273
S'action'
p274
S'film'
p275
tp276
F0.002052334530528476
s(S'[[con]]'
p277
S'starring'
p278
S'as'
p279
tp280
F0.001026167265264238
s(g127
g128
S'screenplay'
p281
tp282
F0.001026167265264238
s(g18
g19
g238
tp283
F0.000513083632632119
s(S'family'
p284
S'comedy'
p285
S'film'
p286
tp287
F0.001026167265264238
s(S'crime'
p288
S'film'
p289
S'directed'
p290
tp291
F0.007696254489481785
s(S'titled'
p292
S'is'
p293
S'[[num]]'
p294
tp295
F0.000513083632632119
s(S'[[det]]'
p296
S'mystery'
p297
S'film'
p298
tp299
F0.000513083632632119
s(S'of'
p300
S'directed'
p301
S'[[con]]'
p302
tp303
F0.000513083632632119
s(S'directed'
p304
S'produced'
p305
S'by'
p306
tp307
F0.001026167265264238
s(S'[[num]]'
p308
S'film'
p309
S'noir'
p310
tp311
F0.0015392508978963571
s(g6
g7
S'[[num]]'
p312
tp313
F0.000513083632632119
s(S'[[num]]'
p314
S'drama'
p315
S'directed'
p316
tp317
F0.000513083632632119
s(S'drama'
p318
S'directed'
p319
S'[[con]]'
p320
tp321
F0.0015392508978963571
s(S'[[adj]]'
p322
S'drama'
p323
S'[[adj]]'
p324
tp325
F0.000513083632632119
s(S'[[num]]'
p326
g284
g285
tp327
F0.001026167265264238
s(S'comedy'
p328
S'horror'
p329
S'film'
p330
tp331
F0.000513083632632119
s(S'television'
p332
S'film'
p333
S'written'
p334
tp335
F0.000513083632632119
s(S'noir'
p336
S'directed'
p337
S'[[con]]'
p338
tp339
F0.000513083632632119
s(S'drama'
p340
S'film'
p341
S'based'
p342
tp343
F0.000513083632632119
s(S'released'
p344
S'is'
p345
S'[[num]]'
p346
tp347
F0.000513083632632119
s(S'[[num]]'
p348
S'fantasy'
p349
S'adventure'
p350
tp351
F0.000513083632632119
s(g69
g70
S'[[con]]'
p352
tp353
F0.0035915854284248334
s(g81
g82
S'directed'
p354
tp355
F0.0015392508978963571
s(S'action'
p356
S'written'
p357
S'[[con]]'
p358
tp359
F0.001026167265264238
s(S'[[num]]'
p360
S'action'
p361
S'thriller'
p362
tp363
F0.002052334530528476
s(S'produced'
p364
S'with'
p365
S'[[det]]'
p366
tp367
F0.000513083632632119
s(S'movie'
p368
S'directed'
p369
S'[[con]]'
p370
tp371
F0.002052334530528476
s(S'[[con]]'
p372
g364
g365
tp373
F0.000513083632632119
s(S'drama'
p374
S'directed'
p375
S'by'
p376
tp377
F0.000513083632632119
s(S'film'
p378
g374
g375
tp379
F0.000513083632632119
s(S'starring'
p380
S'[[con]]'
p381
S'featuring'
p382
tp383
F0.002052334530528476
s(S'[[adj]]'
p384
S'feature'
p385
S'film'
p386
tp387
F0.001026167265264238
s(S'[[num]]'
p388
S'language'
p389
S'film'
p390
tp391
F0.002052334530528476
s(S'[[num]]'
p392
S'comedy'
p393
S'directed'
p394
tp395
F0.001026167265264238
s(g259
S'written'
p396
S'by'
p397
tp398
F0.008722421754746024
s(S'color'
p399
S'film'
p400
S'was'
p401
tp402
F0.000513083632632119
s(S'screenplay'
p403
S'written'
p404
S'by'
p405
tp406
F0.000513083632632119
s(S'[[adj]]'
p407
S'drama'
p408
S'film'
p409
tp410
F0.01026167265264238
s(S'[[adj]]'
p411
S'comedy'
p412
S'drama'
p413
tp414
F0.000513083632632119
s(S'[[con]]'
p415
g158
g159
tp416
F0.004104669061056952
s(S'comedy'
p417
S'film'
p418
S'from'
p419
tp420
F0.000513083632632119
s(S'[[num]]'
p421
S'movie'
p422
S'[[con]]'
p423
tp424
F0.000513083632632119
s(g26
g27
S'based'
p425
tp426
F0.000513083632632119
s(S'as'
p427
S'[[det]]'
p428
S'film'
p429
tp430
F0.000513083632632119
s(S'comedy'
p431
S'film'
p432
S'written'
p433
tp434
F0.007696254489481785
s(S'[[det]]'
p435
S'drama'
p436
S'thriller'
p437
tp438
F0.000513083632632119
s(S'[[adj]]'
p439
S'drama'
p440
S'directed'
p441
tp442
F0.000513083632632119
s(S'fantasy'
p443
S'action'
p444
S'film'
p445
tp446
F0.000513083632632119
s(S'[[adj]]'
p447
g328
g329
tp448
F0.000513083632632119
s(S'aka'
p449
g96
g97
tp450
F0.000513083632632119
s(S'[[con]]'
p451
S'directed'
p452
S'with'
p453
tp454
F0.001026167265264238
s(S'[[num]]'
p455
S'horror'
p456
g116
tp457
F0.006670087224217547
s(g400
g401
S'released'
p458
tp459
F0.000513083632632119
s(S'[[det]]'
p460
S'film'
p461
S'written'
p462
tp463
F0.000513083632632119
s(S'adapted'
p464
g166
g167
tp465
F0.000513083632632119
s(S'thriller'
p466
S'written'
p467
S'[[con]]'
p468
tp469
F0.000513083632632119
s(g444
g445
S'starring'
p470
tp471
F0.002565418163160595
s(S'comedy'
p472
S'crime'
p473
S'film'
p474
tp475
F0.000513083632632119
s(S'written'
p476
S'directed'
p477
S'by'
p478
tp479
F0.000513083632632119
s(S'adapted'
p480
S'into'
p481
S'[[num]]'
p482
tp483
F0.000513083632632119
s(S'[[adj]]'
p484
S'film'
p485
S'produced'
p486
tp487
F0.000513083632632119
s(S'[[con]]'
p488
S'directed'
p489
S'gt'
p490
tp491
F0.000513083632632119
s(S'edited'
p492
S'[[con]]'
p493
S'starring'
p494
tp495
F0.000513083632632119
s(S'thriller'
p496
S'film'
p497
S'written'
p498
tp499
F0.001026167265264238
s(S'film'
p500
S'made'
p501
S'by'
p502
tp503
F0.000513083632632119
s(S'was'
p504
S'written'
p505
S'directed'
p506
tp507
F0.000513083632632119
s(S'[[num]]'
p508
g249
g250
tp509
F0.0035915854284248334
s(S'about'
p510
S'directed'
p511
S'[[con]]'
p512
tp513
F0.001026167265264238
s(S'[[det]]'
p514
g232
g13
tp515
F0.000513083632632119
s(S'comedy'
p516
S'film'
p517
S'starring'
p518
tp519
F0.0061570035915854285
s(g505
g506
S'[[con]]'
p520
tp521
F0.0015392508978963571
s(g135
g136
S'[[con]]'
p522
tp523
F0.001026167265264238
s(S'was'
p524
S'adapted'
p525
g427
tp526
F0.000513083632632119
s(g175
g176
S'by'
p527
tp528
F0.001026167265264238
s(g481
g482
S'film'
p529
tp530
F0.000513083632632119
s(S'written'
p531
S'[[con]]'
p532
S'starring'
p533
tp534
F0.0061570035915854285
s(g108
S'crime'
p535
g318
tp536
F0.000513083632632119
s(S'action'
p537
S'film'
p538
S'about'
p539
tp540
F0.000513083632632119
s(g418
g419
S'written'
p541
tp542
F0.000513083632632119
s(S'drama'
p543
S'film'
p544
S'produced'
p545
tp546
F0.0015392508978963571
s(S'documentary'
p547
S'film'
p548
S'by'
p549
tp550
F0.001026167265264238
s(g310
S'starring'
p551
S'[[con]]'
p552
tp553
F0.000513083632632119
s(S'[[num]]'
p554
S'crime'
p555
S'drama'
p556
tp557
F0.004104669061056952
s(S'comedydrama'
p558
S'film'
p559
S'directed'
p560
tp561
F0.002565418163160595
s(S'documentary'
p562
S'film'
p563
S'about'
p564
tp565
F0.000513083632632119
s(g412
g413
g88
tp566
F0.0015392508978963571
s(S'film'
p567
S'written'
p568
S'by'
p569
tp570
F0.0030785017957927143
s(S'film'
p571
g41
g42
tp572
F0.012314007183170857
s(S'directed'
p573
S'by'
p574
S'[[con]]'
p575
tp576
F0.025141097998973832
s(S'drama'
p577
S'film'
p578
S'featuring'
p579
tp580
F0.000513083632632119
s(S'[[con]]'
p581
S'starring'
p582
S'[[con]]'
p583
tp584
F0.01539250897896357
s(S'crime'
p585
S'thriller'
p586
S'film'
p587
tp588
F0.002052334530528476
s(S'[[det]]'
p589
S'horror'
p590
S'film'
p591
tp592
F0.0015392508978963571
s(S'thriller'
p593
S'film'
p594
S'released'
p595
tp596
F0.000513083632632119
s(S'[[det]]'
p597
S'language'
p598
S'film'
p599
tp600
F0.001026167265264238
s(S'is'
p601
S'directed'
p602
S'by'
p603
tp604
F0.000513083632632119
s(S'[[adj]]'
p605
S'comedy'
p606
S'starring'
p607
tp608
F0.000513083632632119
s(S'[[num]]'
p609
S'family'
p610
S'film'
p611
tp612
F0.001026167265264238
s(g50
g29
g30
tp613
F0.000513083632632119
s(g428
g429
S'in'
p614
tp615
F0.000513083632632119
s(S'film'
p616
S'[[adj]]'
p617
S'starring'
p618
tp619
F0.000513083632632119
s(S'written'
p620
S'by'
p621
S'[[con]]'
p622
tp623
F0.000513083632632119
s(S'[[num]]'
p624
S'documentary'
p625
S'film'
p626
tp627
F0.004617752693689072
s(S'[[det]]'
p628
S'directed'
p629
S'by'
p630
tp631
F0.000513083632632119
s(S'film'
p632
S'[[con]]'
p633
S'[[adj]]'
p634
tp635
F0.000513083632632119
s(g555
g556
S'film'
p636
tp637
F0.0030785017957927143
s(S'comedy'
p638
S'film'
p639
S'released'
p640
tp641
F0.000513083632632119
s(g258
g259
g396
tp642
F0.0107747562852745
s(S'[[det]]'
p643
S'documentary'
p644
S'film'
p645
tp646
F0.001026167265264238
s(S'[[num]]'
p647
S'romance'
p648
S'film'
p649
tp650
F0.002565418163160595
s(S'directed'
p651
S'[[con]]'
p652
S'starred'
p653
tp654
F0.000513083632632119
s(S'film'
p655
g49
g50
tp656
F0.000513083632632119
s(S'[[det]]'
p657
g269
g270
tp658
F0.000513083632632119
s(S'[[num]]'
p659
S'mystery'
p660
S'thriller'
p661
tp662
F0.000513083632632119
s(S'film'
p663
S'starring'
p664
g257
tp665
F0.017444843509492047
s(S'cast'
p666
S'comedydrama'
p667
S'film'
p668
tp669
F0.000513083632632119
s(S'war'
p670
S'film'
p671
S'directed'
p672
tp673
F0.002052334530528476
s(S'horror'
p674
S'film'
p675
S'directed'
p676
tp677
F0.0061570035915854285
s(S'movie'
p678
S'directed'
p679
S'starring'
p680
tp681
F0.000513083632632119
s(S'assassination'
p682
g122
g123
tp683
F0.000513083632632119
s(S'[[det]]'
p684
S'drama'
p685
S'film'
p686
tp687
F0.001026167265264238
s(S'film'
p688
g304
g305
tp689
F0.0015392508978963571
s(S'[[num]]'
p690
S'thriller'
p691
S'film'
p692
tp693
F0.008722421754746024
s(S'[[det]]'
p694
S'film'
p695
S'directed'
p696
tp697
F0.004617752693689072
s(S'[[num]]'
p698
g241
g242
tp699
F0.002565418163160595
s(g634
S'comedy'
p700
S'written'
p701
tp702
F0.000513083632632119
s(S'[[det]]'
p703
S'thriller'
p704
S'film'
p705
tp706
F0.001026167265264238
s(S'film'
p707
S'directed'
p708
S'as'
p709
tp710
F0.001026167265264238
s(S'[[det]]'
p711
g682
g122
tp712
F0.000513083632632119
s(S'known'
p713
S'is'
p714
S'[[adj]]'
p715
tp716
F0.000513083632632119
s(S'drama'
p717
S'film'
p718
S'[[adj]]'
p719
tp720
F0.001026167265264238
s(S'by'
p721
S'film'
p722
S'stars'
p723
tp724
F0.000513083632632119
s(g639
g640
S'starring'
p725
tp726
F0.0015392508978963571
s(S'crime'
p727
S'drama'
p728
S'starring'
p729
tp730
F0.000513083632632119
s(S'[[num]]'
p731
S'action'
p732
S'film'
p733
tp734
F0.006670087224217547
s(S'comedy'
p735
S'directed'
p736
g531
tp737
F0.000513083632632119
s(S'film'
p738
S'[[adj]]'
p739
S'directed'
p740
tp741
F0.001026167265264238
s(S'directed'
p742
g581
g582
tp743
F0.04258594150846588
s(S'film'
p744
S'directed'
p745
S'that'
p746
tp747
F0.000513083632632119
s(g419
g541
S'[[con]]'
p748
tp749
F0.000513083632632119
s(g262
g263
S'starring'
p750
tp751
F0.001026167265264238
s(S'film'
p752
g742
g581
tp753
F0.044638276038994354
s(S'[[num]]'
p754
g670
g671
tp755
F0.002565418163160595
s(S'directed'
p756
S'by'
p757
S'starring'
p758
tp759
F0.01590559261159569
s(S'by'
p760
S'starring'
p761
S'[[det]]'
p762
tp763
F0.000513083632632119
s(S'[[num]]'
p764
g60
g61
tp765
F0.0035915854284248334
s(S'adventure'
p766
S'film'
p767
S'starring'
p768
tp769
F0.002052334530528476
s(g664
g257
g258
tp770
F0.004104669061056952
s(S'[[adj]]'
p771
S'comedy'
p772
g752
tp773
F0.0107747562852745
s(g610
g611
S'directed'
p774
tp775
F0.0015392508978963571
s(S'[[con]]'
p776
S'directed'
p777
S'which'
p778
tp779
F0.000513083632632119
s(S'[[det]]'
p780
S'war'
p781
S'film'
p782
tp783
F0.000513083632632119
s(g490
S'[[con]]'
p784
S'starring'
p785
tp786
F0.000513083632632119
s(S'[[det]]'
p787
S'film'
p788
S'comedy'
p789
tp790
F0.000513083632632119
s(S'[[num]]'
p791
g378
g374
tp792
F0.000513083632632119
s(S'written'
p793
S'by'
p794
S'starring'
p795
tp796
F0.000513083632632119
s(S'[[num]]'
p797
g516
g517
tp798
F0.013853258081067214
s(g217
g218
S'by'
p799
tp800
F0.0015392508978963571
s(S'was'
p801
S'written'
p802
S'produced'
p803
tp804
F0.000513083632632119
s(g180
S'directed'
p805
S'based'
p806
tp807
F0.001026167265264238
s(S'produced'
p808
S'directed'
p809
S'by'
p810
tp811
F0.0015392508978963571
s(g139
g140
S'was'
p812
tp813
F0.001026167265264238
s(g607
S'[[con]]'
p814
S'written'
p815
tp816
F0.000513083632632119
s(S'was'
p817
S'directed'
p818
S'[[con]]'
p819
tp820
F0.000513083632632119
s(g777
g778
S'starred'
p821
tp822
F0.000513083632632119
s(S'[[adj]]'
p823
S'documentary'
p824
S'film'
p825
tp826
F0.000513083632632119
s(S'[[num]]'
p827
S'mystery'
p828
S'crime'
p829
tp830
F0.000513083632632119
s(g179
g180
g805
tp831
F0.02052334530528476
s(g389
g390
S'starring'
p832
tp833
F0.0015392508978963571
s(S'feature'
p834
S'film'
p835
S'directed'
p836
tp837
F0.004104669061056952
s(g349
g350
S'film'
p838
tp839
F0.000513083632632119
s(g828
g829
S'film'
p840
tp841
F0.000513083632632119
s(g535
g318
g319
tp842
F0.000513083632632119
s(S'film'
p843
g300
g301
tp844
F0.000513083632632119
s(S'directed'
p845
S'[[con]]'
p846
S'stars'
p847
tp848
F0.002565418163160595
s(S'[[det]]'
p849
S'crime'
p850
S'film'
p851
tp852
F0.000513083632632119
s(S'[[adj]]'
p853
S'mystery'
p854
S'film'
p855
tp856
F0.000513083632632119
s(g293
g294
S'drama'
p857
tp858
F0.000513083632632119
s(S'directed'
p859
g721
g722
tp860
F0.001026167265264238
s(S'[[adj]]'
p861
S'film'
p862
S'directed'
p863
tp864
F0.011287839917906618
s(S'[[num]]'
p865
S'produced'
p866
S'[[con]]'
p867
tp868
F0.000513083632632119
s(S'known'
p869
S'is'
p870
S'film'
p871
tp872
F0.000513083632632119
s(g3
S'[[con]]'
p873
S'directed'
p874
tp875
F0.005643919958953309
s(S'crime'
p876
S'drama'
p877
S'written'
p878
tp879
F0.000513083632632119
s(S'[[det]]'
p880
g72
g73
tp881
F0.000513083632632119
s(S'[[num]]'
p882
g234
g235
tp883
F0.000513083632632119
s(g155
g156
S'[[con]]'
p884
tp885
F0.000513083632632119
s(g309
g310
g551
tp886
F0.000513083632632119
s(S'language'
p887
S'film'
p888
S'written'
p889
tp890
F0.000513083632632119
s(S'[[num]]'
p891
S'drama'
p892
S'[[adj]]'
p893
tp894
F0.000513083632632119
s(S'by'
p895
S'[[con]]'
p896
S'featuring'
p897
tp898
F0.000513083632632119
s(S'[[adj]]'
p899
S'comedy'
p900
S'[[adj]]'
p901
tp902
F0.001026167265264238
s(S'[[adj]]'
p903
S'romance'
p904
S'film'
p905
tp906
F0.000513083632632119
s(g94
S'[[con]]'
p907
S'written'
p908
tp909
F0.000513083632632119
s(g401
g458
S'starring'
p910
tp911
F0.000513083632632119
s(g525
g427
g428
tp912
F0.000513083632632119
s(g429
g614
S'[[num]]'
p913
tp914
F0.000513083632632119
s(g877
g878
S'[[con]]'
p915
tp916
F0.000513083632632119
s(S'[[det]]'
p917
S'written'
p918
S'produced'
p919
tp920
F0.000513083632632119
s(S'directed'
p921
S'written'
p922
S'by'
p923
tp924
F0.002052334530528476
s(S'[[det]]'
p925
S'film'
p926
S'released'
p927
tp928
F0.000513083632632119
s(g648
g649
S'directed'
p929
tp930
F0.002052334530528476
s(S'romance'
p931
S'film'
p932
S'starring'
p933
tp934
F0.001026167265264238
s(S'[[det]]'
p935
g843
g300
tp936
F0.000513083632632119
s(S'film'
p937
g510
g511
tp938
F0.001026167265264238
s(S'[[adj]]'
p939
S'fantasy'
p940
S'film'
p941
tp942
F0.000513083632632119
s(g745
g746
S'starred'
p943
tp944
F0.000513083632632119
s(g652
g653
S'by'
p945
tp946
F0.000513083632632119
s(g625
g626
S'directed'
p947
tp948
F0.002565418163160595
s(S'also'
p949
g713
g714
tp950
F0.004104669061056952
s(S'film'
p951
S'written'
p952
S'directed'
p953
tp954
F0.0015392508978963571
s(S'[[num]]'
p955
g356
g357
tp956
F0.001026167265264238
s(g812
S'written'
p957
S'[[con]]'
p958
tp959
F0.001026167265264238
s(S'[[adj]]'
p960
g288
g289
tp961
F0.002565418163160595
s(S'action'
p962
g738
g739
tp963
F0.000513083632632119
s(S'[[num]]'
p964
g585
g586
tp965
F0.002052334530528476
s(g802
g803
S'[[con]]'
p966
tp967
F0.001026167265264238
s(g953
S'[[con]]'
p968
g492
tp969
F0.001026167265264238
s(g423
g808
g809
tp970
F0.000513083632632119
s(S'war'
p971
S'film'
p972
S'starring'
p973
tp974
F0.0015392508978963571
s(S'[[det]]'
p975
S'color'
p976
S'film'
p977
tp978
F0.001026167265264238
s(S'[[adj]]'
p979
g466
g467
tp980
F0.000513083632632119
s(S'comedy'
p981
g616
g617
tp982
F0.000513083632632119
s(g345
g346
S'adventure'
p983
tp984
F0.000513083632632119
s(S'is'
p985
S'directed'
p986
S'at'
p987
tp988
F0.000513083632632119
s(S'[[num]]'
p989
S'mystery'
p990
S'film'
p991
tp992
F0.002565418163160595
s(g489
g490
g784
tp993
F0.000513083632632119
s(S'known'
p994
S'is'
p995
g130
tp996
F0.004104669061056952
s(S'documentary'
p997
S'film'
p998
S'starring'
p999
tp1000
F0.000513083632632119
s(S'[[num]]'
p1001
S'comedy'
p1002
S'drama'
p1003
tp1004
F0.001026167265264238
s(g117
g118
S'by'
p1005
tp1006
F0.001026167265264238
s(g501
g502
S'starring'
p1007
tp1008
F0.000513083632632119
s(S'[[adj]]'
p1009
g45
g46
tp1010
F0.0030785017957927143
s(S'[[det]]'
p1011
g403
g404
tp1012
F0.000513083632632119
s(g66
g104
S'directed'
p1013
tp1014
F0.001026167265264238
s(g772
g752
g742
tp1015
F0.016418676244227808
s(g700
g701
S'[[con]]'
p1016
tp1017
F0.000513083632632119
s(S'[[adj]]'
p1018
S'comedy'
p1019
S'directed'
p1020
tp1021
F0.001026167265264238
s(S'[[adj]]'
p1022
g472
g473
tp1023
F0.000513083632632119
s(g27
g425
S'directed'
p1024
tp1025
F0.000513083632632119
s(g805
g806
S'by'
p1026
tp1027
F0.001026167265264238
s(S'[[con]]'
p1028
S'written'
p1029
S'[[con]]'
p1030
tp1031
F0.002565418163160595
s(S'[[det]]'
p1032
S'comedy'
p1033
S'action'
p1034
tp1035
F0.000513083632632119
s(g485
g486
S'directed'
p1036
tp1037
F0.001026167265264238
s(S'[[num]]'
p1038
g9
g10
tp1039
F0.001026167265264238
s(S'[[adj]]'
p1040
g663
g664
tp1041
F0.0030785017957927143
s(g739
g740
S'by'
p1042
tp1043
F0.0015392508978963571
s(S'comedydrama'
p1044
S'film'
p1045
S'starring'
p1046
tp1047
F0.002565418163160595
s(g846
g847
S'[[con]]'
p1048
tp1049
F0.001026167265264238
s(g606
g607
g814
tp1050
F0.000513083632632119
s(g1033
g1034
S'film'
p1051
tp1052
F0.000513083632632119
s(g544
g545
S'by'
p1053
tp1054
F0.000513083632632119
s(g422
g423
g808
tp1055
F0.000513083632632119
s(g520
S'produced'
p1056
S'by'
p1057
tp1058
F0.0061570035915854285
s(g732
g733
S'directed'
p1059
tp1060
F0.00513083632632119
s(g714
g715
S'film'
p1061
tp1062
F0.000513083632632119
s(S'is'
p1063
g200
g201
tp1064
F0.0035915854284248334
s(g53
g54
S'[[con]]'
p1065
tp1066
F0.000513083632632119
s(S'[[adj]]'
p1067
S'thriller'
p1068
S'directed'
p1069
tp1070
F0.000513083632632119
s(S'documentary'
p1071
S'film'
p1072
S'written'
p1073
tp1074
F0.000513083632632119
s(S'directed'
p1075
g170
g171
tp1076
F0.000513083632632119
s(S'[[det]]'
p1077
g638
g639
tp1078
F0.002052334530528476
s(S'film'
p1079
g336
g337
tp1080
F0.0015392508978963571
s(g633
g634
g700
tp1081
F0.000513083632632119
s(S'sports'
p1082
S'drama'
p1083
S'film'
p1084
tp1085
F0.000513083632632119
s(S'article'
p1086
g1063
g200
tp1087
F0.000513083632632119
s(g393
g394
S'[[con]]'
p1088
tp1089
F0.0015392508978963571
s(g2
g3
g873
tp1090
F0.0035915854284248334
s(S'[[num]]'
p1091
S'thriller'
p1092
S'directed'
p1093
tp1094
F0.000513083632632119
s(S'[[adj]]'
p1095
g666
g667
tp1096
F0.000513083632632119
s(S'language'
p1097
S'film'
p1098
S'directed'
p1099
tp1100
F0.001026167265264238
s(g425
g1024
S'[[con]]'
p1101
tp1102
F0.000513083632632119
s(S'[[adj]]'
p1103
g500
g501
tp1104
F0.000513083632632119
s(S'was'
p1105
g480
g481
tp1106
F0.001026167265264238
s(g556
g636
S'starring'
p1107
tp1108
F0.004104669061056952
s(S'[[num]]'
p1109
S'comedy'
p1110
S'[[adj]]'
p1111
tp1112
F0.001026167265264238
s(g660
g661
S'film'
p1113
tp1114
F0.000513083632632119
s(g361
g362
S'film'
p1115
tp1116
F0.002052334530528476
s(S'comedy'
p1117
g1040
g663
tp1118
F0.002565418163160595
s(S'film'
p1119
g126
g127
tp1120
F0.001026167265264238
s(S'directed'
p1121
S'[[con]]'
p1122
S'featuring'
p1123
tp1124
F0.0015392508978963571
s(S'comedydrama'
p1125
g567
g568
tp1126
F0.002565418163160595
s(S'[[det]]'
p1127
g192
g193
tp1128
F0.001026167265264238
s(S'[[num]]'
p1129
S'family'
p1130
S'adventure'
p1131
tp1132
F0.000513083632632119
s(g365
g366
S'starring'
p1133
tp1134
F0.000513083632632119
s(g1130
g1131
S'film'
p1135
tp1136
F0.000513083632632119
s(g990
g991
S'directed'
p1137
tp1138
F0.0030785017957927143
s(S'written'
p1139
g415
g158
tp1140
F0.03129810159055926
s(S'[[num]]'
p1141
g443
g444
tp1142
F0.000513083632632119
s(S'action'
p1143
S'film'
p1144
S'written'
p1145
tp1146
F0.001026167265264238
s(S'noir'
p1147
S'directed'
p1148
S'by'
p1149
tp1150
F0.001026167265264238
s(g70
g352
S'produced'
p1151
tp1152
F0.000513083632632119
s(g10
g11
S'by'
p1153
tp1154
F0.0015392508978963571
s(S'[[adj]]'
p1155
S'film'
p1156
S'written'
p1157
tp1158
F0.0015392508978963571
s(g163
g164
S'directed'
p1159
tp1160
F0.001026167265264238
s(g1068
g1069
S'by'
p1161
tp1162
F0.000513083632632119
s(S'[[con]]'
p1163
S'edited'
p1164
S'by'
p1165
tp1166
F0.000513083632632119
s(S'[[num]]'
p1167
g332
g333
tp1168
F0.0015392508978963571
s(g107
g108
g535
tp1169
F0.000513083632632119
s(S'[[adj]]'
p1170
S'adventure'
p1171
S'film'
p1172
tp1173
F0.001026167265264238
s(S'[[det]]'
p1174
S'film'
p1175
g1147
tp1176
F0.000513083632632119
s(S'[[num]]'
p1177
g655
g49
tp1178
F0.000513083632632119
s(g456
g116
g117
tp1179
F0.000513083632632119
s(g870
g871
S'starring'
p1180
tp1181
F0.000513083632632119
s(S'crime'
p1182
S'film'
p1183
S'written'
p1184
tp1185
F0.000513083632632119
s(g151
g152
S'directed'
p1186
tp1187
F0.002052334530528476
s(g140
g812
g957
tp1188
F0.000513083632632119
s(g968
g492
g493
tp1189
F0.000513083632632119
s(S'directed'
p1190
S'starring'
p1191
S'with'
p1192
tp1193
F0.001026167265264238
s(g7
g312
S'comedy'
p1194
tp1195
F0.000513083632632119
s(S'[[adj]]'
p1196
g632
g633
tp1197
F0.000513083632632119
s(g506
g520
g1056
tp1198
F0.0061570035915854285
s(S'film'
p1199
g1139
g415
tp1200
F0.02668034889687019
s(S'[[det]]'
p1201
g1082
g1083
tp1202
F0.000513083632632119
s(g323
g324
S'film'
p1203
tp1204
F0.001026167265264238
s(S'is'
p1205
S'[[num]]'
p1206
S'mystery'
p1207
tp1208
F0.000513083632632119
s(g788
g789
S'starring'
p1209
tp1210
F0.000513083632632119
s(S'[[num]]'
p1211
g558
g559
tp1212
F0.004617752693689072
s(S'aka'
p1213
S'is'
p1214
S'[[num]]'
p1215
tp1216
F0.001026167265264238
s(S'drama'
p1217
S'film'
p1218
S'written'
p1219
tp1220
F0.00513083632632119
s(S'is'
p1221
S'[[num]]'
p1222
S'crime'
p1223
tp1224
F0.001026167265264238
s(S'adventure'
p1225
S'film'
p1226
S'written'
p1227
tp1228
F0.001026167265264238
s(S'[[num]]'
p1229
S'film'
p1230
S'written'
p1231
tp1232
F0.004104669061056952
s(S'with'
p1233
S'[[det]]'
p1234
S'script'
p1235
tp1236
F0.000513083632632119
s(g436
g437
S'film'
p1237
tp1238
F0.000513083632632119
s(g574
g575
S'starring'
p1239
tp1240
F0.025141097998973832
s(S'[[det]]'
p1241
g1117
g1040
tp1242
F0.000513083632632119
s(g976
g977
S'starring'
p1243
tp1244
F0.000513083632632119
s.