(dp0
(S'has'
p1
S'coached'
p2
S'[[num]]'
p3
tp4
F0.03571428571428571
s(S'also'
p5
S'trained'
p6
S'for'
p7
tp8
F0.03571428571428571
s(S'be'
p9
S'trained'
p10
S'by'
p11
tp12
F0.03571428571428571
s(S'was'
p13
S'coached'
p14
S'by'
p15
tp16
F0.03571428571428571
s(S'has'
p17
S'coached'
p18
S'[[con]]'
p19
tp20
F0.03571428571428571
s(S'to'
p21
S'train'
p22
S'under'
p23
tp24
F0.03571428571428571
s(S'also'
p25
S'trained'
p26
S'[[adj]]'
p27
tp28
F0.03571428571428571
s(S'later'
p29
S'coached'
p30
S'by'
p31
tp32
F0.03571428571428571
s(S'[[con]]'
p33
S'trained'
p34
S'under'
p35
tp36
F0.03571428571428571
s(S'also'
p37
S'trained'
p38
S'[[con]]'
p39
tp40
F0.03571428571428571
s(S'is'
p41
S'trained'
p42
S'by'
p43
tp44
F0.03571428571428571
s(S'coaching'
p45
S'change'
p46
S'to'
p47
tp48
F0.03571428571428571
s(S'was'
p49
S'trained'
p50
S'[[con]]'
p51
tp52
F0.03571428571428571
s(S'to'
p53
S'train'
p54
S'for'
p55
tp56
F0.03571428571428571
s(S'has'
p57
S'trained'
p58
S'with'
p59
tp60
F0.03571428571428571
s(S'[[det]]'
p61
g45
g46
tp62
F0.03571428571428571
s(S'to'
p63
S'train'
p64
S'with'
p65
tp66
F0.03571428571428571
s(S'is'
p67
S'coached'
p68
S'by'
p69
tp70
F0.03571428571428571
s(S'has'
p71
S'trained'
p72
S'under'
p73
tp74
F0.03571428571428571
s(S'was'
p75
S'trained'
p76
S'under'
p77
tp78
F0.03571428571428571
s(S'also'
p79
S'coached'
p80
S'[[adj]]'
p81
tp82
F0.03571428571428571
s(S'also'
p83
S'trained'
p84
S'with'
p85
tp86
F0.03571428571428571
s(S'to'
p87
S'train'
p88
S'[[adj]]'
p89
tp90
F0.03571428571428571
s(S'been'
p91
S'trained'
p92
S'by'
p93
tp94
F0.03571428571428571
s(S'announced'
p95
g61
g45
tp96
F0.03571428571428571
s(S'was'
p97
S'trained'
p98
S'by'
p99
tp100
F0.03571428571428571
s(S'was'
p101
S'trained'
p102
S'with'
p103
tp104
F0.03571428571428571
s(S'also'
p105
S'trained'
p106
S'under'
p107
tp108
F0.03571428571428571
s.