(dp0
(S'television'
p1
S'series'
p2
S'created'
p3
tp4
F0.02
s(S'[[det]]'
p5
S'drama'
p6
S'television'
p7
tp8
F0.02
s(S'[[adj]]'
p9
S'series'
p10
S'produced'
p11
tp12
F0.02
s(S's'
p13
S'television'
p14
S'series'
p15
tp16
F0.02
s(S'drama'
p17
S'series'
p18
S'produced'
p19
tp20
F0.04
s(S'be'
p21
S'produced'
p22
S'for'
p23
tp24
F0.02
s(S'is'
p25
S'produced'
p26
S'with'
p27
tp28
F0.02
s(S'[[con]]'
p29
S'produced'
p30
S'by'
p31
tp32
F0.02
s(S'[[det]]'
p33
S'produced'
p34
S'by'
p35
tp36
F0.02
s(S'also'
p37
S'produced'
p38
S'in'
p39
tp40
F0.02
s(S'television'
p41
g17
g18
tp42
F0.02
s(g3
g29
g30
tp43
F0.02
s(S'[[num]]'
p44
S'produced'
p45
S'by'
p46
tp47
F0.02
s(S'television'
p48
S'series'
p49
S'produced'
p50
tp51
F0.1
s(S'[[det]]'
p52
g48
g49
tp53
F0.02
s(S'also'
p54
S'produced'
p55
S'by'
p56
tp57
F0.02
s(S'[[num]]'
p58
S'television'
p59
S'series'
p60
tp61
F0.02
s(S'[[det]]'
p62
S'television'
p63
S'drama'
p64
tp65
F0.02
s(S'[[det]]'
p66
S'children'
p67
g13
tp68
F0.02
s(g6
g7
S'series'
p69
tp70
F0.02
s(g67
g13
g14
tp71
F0.02
s(S'was'
p72
S'produced'
p73
S'[[con]]'
p74
tp75
F0.02
s(S'[[det]]'
p76
S'drama'
p77
S'series'
p78
tp79
F0.02
s(S'[[adj]]'
p80
g1
g2
tp81
F0.04
s(S'is'
p82
S'produced'
p83
S'by'
p84
tp85
F0.02
s(S'also'
p86
S'airs'
p87
S'on'
p88
tp89
F0.02
s(S'was'
p90
S'produced'
p91
S'for'
p92
tp93
F0.02
s(S'[[det]]'
p94
S'series'
p95
S'produced'
p96
tp97
F0.02
s(S'[[adj]]'
p98
g41
g17
tp99
F0.02
s(S'then'
p100
S'produced'
p101
S'by'
p102
tp103
F0.02
s(g64
S'produced'
p104
S'by'
p105
tp106
F0.02
s(g95
g96
S'by'
p107
tp108
F0.2
s(S'[[adj]]'
p109
S'collaboration'
p110
S'between'
p111
tp112
F0.02
s(g63
g64
g104
tp113
F0.02
s(g2
g3
g29
tp114
F0.02
s.