(dp0
(S'released'
p1
S'[[con]]'
p2
S'later'
p3
tp4
F0.009523809523809525
s(S'subsequently'
p5
S'ported'
p6
S'to'
p7
tp8
F0.004761904761904762
s(S'[[con]]'
p9
S'published'
p10
S'was'
p11
tp12
F0.004761904761904762
s(S'[[adj]]'
p13
S'platform'
p14
S'game'
p15
tp16
F0.004761904761904762
s(S'later'
p17
S'ported'
p18
S'to'
p19
tp20
F0.009523809523809525
s(S'video'
p21
S'game'
p22
S'being'
p23
tp24
F0.004761904761904762
s(S'[[det]]'
p25
S'action'
p26
S'video'
p27
tp28
F0.004761904761904762
s(S'game'
p29
S'by'
p30
S'originally'
p31
tp32
F0.004761904761904762
s(S'is'
p33
S'developed'
p34
S'[[con]]'
p35
tp36
F0.004761904761904762
s(S'was'
p37
S'announced'
p38
S'for'
p39
tp40
F0.004761904761904762
s(S'ref'
p41
S'gt'
p42
S'lt'
p43
tp44
F0.004761904761904762
s(S'initially'
p45
S'released'
p46
S'for'
p47
tp48
F0.004761904761904762
s(S'released'
p49
S'[[det]]'
p50
S'game'
p51
tp52
F0.004761904761904762
s(S'strategy'
p53
S'video'
p54
S'game'
p55
tp56
F0.004761904761904762
s(g30
g31
S'released'
p57
tp58
F0.004761904761904762
s(S'game'
p59
S'developed'
p60
S'in'
p61
tp62
F0.004761904761904762
s(S'in'
p63
S'be'
p64
S'released'
p65
tp66
F0.004761904761904762
s(S'adventure'
p67
S'game'
p68
S'for'
p69
tp70
F0.009523809523809525
s(S'game'
p71
g63
g64
tp72
F0.004761904761904762
s(S'initially'
p73
S'released'
p74
S'[[con]]'
p75
tp76
F0.004761904761904762
s(S'[[con]]'
p77
S'developed'
p78
S'for'
p79
tp80
F0.004761904761904762
s(S'released'
p81
S'for'
p82
S'[[adj]]'
p83
tp84
F0.009523809523809525
s(S'puzzle'
p85
S'game'
p86
S'developed'
p87
tp88
F0.004761904761904762
s(g26
g27
S'game'
p89
tp90
F0.009523809523809525
s(S'was'
p91
S'released'
p92
S'on'
p93
tp94
F0.004761904761904762
s(S'been'
p95
g81
g82
tp96
F0.009523809523809525
s(S'was'
p97
g5
g6
tp98
F0.004761904761904762
s(S'ref'
p99
S'gt'
p100
S'in'
p101
tp102
F0.004761904761904762
s(S'game'
p103
S'released'
p104
S'for'
p105
tp106
F0.02857142857142857
s(S'released'
p107
S'[[con]]'
p108
S'[[adj]]'
p109
tp110
F0.004761904761904762
s(g50
g51
S'for'
p111
tp112
F0.009523809523809525
s(S'was'
p113
S'developed'
p114
S'for'
p115
tp116
F0.004761904761904762
s(S'actionadventure'
p117
S'video'
p118
S'game'
p119
tp120
F0.004761904761904762
s(S'[[det]]'
p121
g85
g86
tp122
F0.004761904761904762
s(S'[[adj]]'
p123
g71
g63
tp124
F0.004761904761904762
s(g14
g15
S'developed'
p125
tp126
F0.009523809523809525
s(g43
S'gt'
p127
S'[[con]]'
p128
tp129
F0.004761904761904762
s(S'lt'
p130
g99
g100
tp131
F0.009523809523809525
s(S'being'
p132
S'developed'
p133
S'on'
p134
tp135
F0.004761904761904762
s(S'[[det]]'
p136
g117
g118
tp137
F0.004761904761904762
s(S'[[det]]'
p138
S'[[adj]]'
p139
S'video'
p140
tp141
F0.004761904761904762
s(S'licensed'
p142
S'game'
p143
S'[[adj]]'
p144
tp145
F0.004761904761904762
s(S'[[adj]]'
p146
g53
g54
tp147
F0.004761904761904762
s(g82
g83
S'generation'
p148
tp149
F0.004761904761904762
s(g2
g3
S'ported'
p150
tp151
F0.009523809523809525
s(g22
g23
S'developed'
p152
tp153
F0.004761904761904762
s(S'be'
p154
S'released'
p155
S'exclusively'
p156
tp157
F0.004761904761904762
s(S'was'
p158
g1
g2
tp159
F0.014285714285714285
s(S'game'
p160
g91
g92
tp161
F0.009523809523809525
s(S'produced'
p162
g77
g78
tp163
F0.004761904761904762
s(S'was'
p164
S'ported'
p165
S'to'
p166
tp167
F0.004761904761904762
s(S'released'
p168
S'including'
p169
S'[[det]]'
p170
tp171
F0.004761904761904762
s(S'was'
p172
g49
g50
tp173
F0.004761904761904762
s(S'developed'
p174
S'[[con]]'
p175
S'produced'
p176
tp177
F0.004761904761904762
s(g119
S'developed'
p178
S'[[con]]'
p179
tp180
F0.0380952380952381
s(S'[[det]]'
p181
S'game'
p182
S'released'
p183
tp184
F0.004761904761904762
s(S'game'
p185
g162
g77
tp186
F0.004761904761904762
s(S'[[adj]]'
p187
S'action'
p188
S'video'
p189
tp190
F0.004761904761904762
s(g31
g57
S'for'
p191
tp192
F0.014285714285714285
s(S'series'
p193
S'developed'
p194
S'for'
p195
tp196
F0.004761904761904762
s(S'[[det]]'
p197
S'platform'
p198
S'game'
p199
tp200
F0.004761904761904762
s(S'was'
p201
S'developed'
p202
S'[[con]]'
p203
tp204
F0.01904761904761905
s(S'was'
p205
S'originally'
p206
S'released'
p207
tp208
F0.004761904761904762
s(S'[[num]]'
p209
g142
g143
tp210
F0.004761904761904762
s(S'[[con]]'
p211
S'published'
p212
S'by'
p213
tp214
F0.014285714285714285
s(g34
g35
S'released'
p215
tp216
F0.01904761904761905
s(S'[[adj]]'
p217
S'adventure'
p218
S'game'
p219
tp220
F0.004761904761904762
s(S'[[con]]'
p221
S'released'
p222
S'in'
p223
tp224
F0.004761904761904762
s(g118
g119
g178
tp225
F0.02857142857142857
s(g108
g109
S'platforms'
p226
tp227
F0.004761904761904762
s(g15
g125
S'by'
p228
tp229
F0.009523809523809525
s(S'video'
p230
S'game'
p231
S'[[con]]'
p232
tp233
F0.004761904761904762
s(S'released'
p234
S'exclusively'
p235
S'on'
p236
tp237
F0.009523809523809525
s(S'had'
p238
S'developed'
p239
S'for'
p240
tp241
F0.004761904761904762
s(S'was'
p242
S'released'
p243
S'later'
p244
tp245
F0.004761904761904762
s(S'[[det]]'
p246
S'video'
p247
S'game'
p248
tp249
F0.047619047619047616
s(S'video'
p250
S'game'
p251
S'for'
p252
tp253
F0.02857142857142857
s(S'[[det]]'
p254
g67
g68
tp255
F0.004761904761904762
s(g35
g215
S'for'
p256
tp257
F0.009523809523809525
s(S'video'
p258
g29
g30
tp259
F0.004761904761904762
s(S'was'
p260
g234
g235
tp261
F0.009523809523809525
s(S'released'
p262
S'exclusively'
p263
S'in'
p264
tp265
F0.004761904761904762
s(S'computer'
p266
S'game'
p267
S'for'
p268
tp269
F0.009523809523809525
s(S'game'
p270
S'developed'
p271
S'for'
p272
tp273
F0.014285714285714285
s(g243
g244
S'ported'
p274
tp275
F0.004761904761904762
s(S'for'
p276
S'[[adj]]'
p277
S'platforms'
p278
tp279
F0.004761904761904762
s(S'video'
p280
g160
g91
tp281
F0.009523809523809525
s(S'video'
p282
g185
g162
tp283
F0.004761904761904762
s(g178
g179
S'published'
p284
tp285
F0.0380952380952381
s(S'computer'
p286
S'game'
p287
S'released'
p288
tp289
F0.009523809523809525
s(S'[[adj]]'
p290
g103
g104
tp291
F0.004761904761904762
s(S'[[num]]'
p292
g130
g99
tp293
F0.009523809523809525
s(S'[[adj]]'
p294
g250
g251
tp295
F0.01904761904761905
s(S'hockey'
p296
S'video'
p297
g270
tp298
F0.004761904761904762
s(S'was'
p299
S'released'
p300
S'[[num]]'
p301
tp302
F0.004761904761904762
s(S'video'
p303
S'game'
p304
g193
tp305
F0.004761904761904762
s(S'[[det]]'
p306
g296
g297
tp307
F0.004761904761904762
s(g179
g284
S'for'
p308
tp309
F0.01904761904761905
s(S'video'
p310
S'game'
p311
S'released'
p312
tp313
F0.014285714285714285
s(g64
g65
S'for'
p314
tp315
F0.004761904761904762
s(S'game'
p316
S'released'
p317
S'in'
p318
tp319
F0.004761904761904762
s(S'released'
p320
g138
g139
tp321
F0.004761904761904762
s(S'[[det]]'
p322
g266
g267
tp323
F0.014285714285714285
s(g175
g176
S'for'
p324
tp325
F0.004761904761904762
s(S'was'
p326
g45
g46
tp327
F0.009523809523809525
s(S'is'
p328
S'announced'
p329
S'for'
p330
tp331
F0.004761904761904762
s(S'[[det]]'
p332
S'game'
p333
S'developed'
p334
tp335
F0.009523809523809525
s(S'game'
p336
S'originally'
p337
S'released'
p338
tp339
F0.004761904761904762
s(g23
g152
S'for'
p340
tp341
F0.009523809523809525
s(S'of'
p342
g303
g304
tp343
F0.004761904761904762
s(S'[[num]]'
p344
S'game'
p345
S'for'
p346
tp347
F0.004761904761904762
s(S'[[con]]'
p348
S'released'
p349
S'on'
p350
tp351
F0.004761904761904762
s(S'was'
p352
g168
g169
tp353
F0.009523809523809525
s(g304
g193
g194
tp354
F0.004761904761904762
s(g278
S'including'
p355
S'[[det]]'
p356
tp357
F0.004761904761904762
s(g42
g43
g127
tp358
F0.004761904761904762
s(S'been'
p359
S'ported'
p360
S'to'
p361
tp362
F0.004761904761904762
s(g83
g148
S'video'
p363
tp364
F0.004761904761904762
s(S'has'
p365
S'developed'
p366
S'for'
p367
tp368
F0.004761904761904762
s(S'[[num]]'
p369
S'video'
p370
S'game'
p371
tp372
F0.004761904761904762
s(g109
g226
S'including'
p373
tp374
F0.009523809523809525
s(S'[[det]]'
p375
S'game'
p376
S'show'
p377
tp378
F0.004761904761904762
s(g148
g363
S'game'
p379
tp380
F0.004761904761904762
s(S'[[num]]'
p381
S'computer'
p382
S'game'
p383
tp384
F0.004761904761904762
s.