(dp0
(S'where'
p1
S'crosses'
p2
S'[[det]]'
p3
tp4
F0.05555555555555555
s(S'[[adj]]'
p5
S'bridge'
p6
S'on'
p7
tp8
F0.05555555555555555
s(S'was'
p9
S'built'
p10
S'along'
p11
tp12
F0.05555555555555555
s(S'[[num]]'
p13
S'crosses'
p14
S'[[det]]'
p15
tp16
F0.05555555555555555
s(S'is'
p17
S'built'
p18
S'on'
p19
tp20
F0.05555555555555555
s(S'by'
p21
S'crossing'
p22
S'[[det]]'
p23
tp24
F0.05555555555555555
s(S'[[adj]]'
p25
S'crossing'
p26
S'of'
p27
tp28
F0.05555555555555555
s(S'[[det]]'
p29
S'bridge'
p30
S'over'
p31
tp32
F0.05555555555555555
s(S'which'
p33
S'crosses'
p34
S'[[det]]'
p35
tp36
F0.05555555555555555
s(S'[[adj]]'
p37
S'bridge'
p38
S'over'
p39
tp40
F0.05555555555555555
s(S'before'
p41
S'crossing'
p42
S'[[det]]'
p43
tp44
F0.05555555555555555
s(S'was'
p45
S'built'
p46
S'over'
p47
tp48
F0.05555555555555555
s(S'[[adj]]'
p49
S'bridge'
p50
S'across'
p51
tp52
F0.05555555555555555
s(S'[[det]]'
p53
S'bridge'
p54
S'across'
p55
tp56
F0.05555555555555555
s(S'[[det]]'
p57
S'crossing'
p58
S'of'
p59
tp60
F0.05555555555555555
s(S'[[con]]'
p61
S'crosses'
p62
S'[[det]]'
p63
tp64
F0.05555555555555555
s(S'was'
p65
S'built'
p66
S'across'
p67
tp68
F0.05555555555555555
s(S'then'
p69
S'crosses'
p70
S'[[det]]'
p71
tp72
F0.05555555555555555
s.