(dp0
(S'[[mod]]'
p1
S'play'
p2
S'with'
p3
tp4
F0.00017853954650955185
s(S'only'
p5
S'played'
p6
S'twice'
p7
tp8
F0.00017853954650955185
s(S'then'
p9
S'played'
p10
S'with'
p11
tp12
F0.00017853954650955185
s(S'again'
p13
S'played'
p14
S'against'
p15
tp16
F0.00017853954650955185
s(S'played'
p17
S'[[num]]'
p18
S'of'
p19
tp20
F0.00017853954650955185
s(S'when'
p21
S'served'
p22
S'with'
p23
tp24
F0.00017853954650955185
s(S'[[pro]]'
p25
S'played'
p26
S'professionally'
p27
tp28
F0.00017853954650955185
s(S'to'
p29
S'play'
p30
S'when'
p31
tp32
F0.00017853954650955185
s(S'drafted'
p33
S'[[adj]]'
p34
S'[[con]]'
p35
tp36
F0.00017853954650955185
s(S'football'
p37
S'coach'
p38
S'of'
p39
tp40
F0.0003570790930191037
s(S'[[adj]]'
p41
S'debut'
p42
S'in'
p43
tp44
F0.00017853954650955185
s(S'defender'
p45
S'who'
p46
S'plays'
p47
tp48
F0.00017853954650955185
s(S'football'
p49
S'[[con]]'
p50
S'[[det]]'
p51
tp52
F0.0003570790930191037
s(S'born'
p53
S'[[num]]'
p54
S'played'
p55
tp56
F0.0003570790930191037
s(S'first'
p57
S'came'
p58
S'with'
p59
tp60
F0.00017853954650955185
s(S'who'
p61
S'played'
p62
S'notably'
p63
tp64
F0.00017853954650955185
s(S'soccer'
p65
S'midfielder'
p66
S'playing'
p67
tp68
F0.00017853954650955185
s(S'[[adj]]'
p69
S'association'
p70
S'footballer'
p71
tp72
F0.0003570790930191037
s(S'football'
p73
S'striker'
p74
S'for'
p75
tp76
F0.00017853954650955185
s(S'basketball'
p77
S'[[con]]'
p78
S'thereafter'
p79
tp80
F0.00017853954650955185
s(S'had'
p81
S'signed'
p82
S'from'
p83
tp84
F0.00017853954650955185
s(S'was'
p85
S'picked'
p86
S'for'
p87
tp88
F0.00017853954650955185
s(S'was'
p89
S'won'
p90
S'for'
p91
tp92
F0.00017853954650955185
s(S'become'
p93
S'head'
p94
S'at'
p95
tp96
F0.00017853954650955185
s(S'later'
p97
S'join'
p98
S'[[det]]'
p99
tp100
F0.00017853954650955185
s(S'basketball'
p101
S'[[con]]'
p102
S'[[adj]]'
p103
tp104
F0.0003570790930191037
s(S'[[adj]]'
p105
S'game'
p106
S'on'
p107
tp108
F0.00017853954650955185
s(S'also'
p109
S'involved'
p110
S'[[con]]'
p111
tp112
F0.00017853954650955185
s(S'[[prp]]'
p113
S'career'
p114
S'at'
p115
tp116
F0.0007141581860382074
s(S'[[adj]]'
p117
S'football'
p118
S'[[adj]]'
p119
tp120
F0.0010712372790573112
s(S'was'
p121
S'head'
p122
S'[[con]]'
p123
tp124
F0.00017853954650955185
s(S'allocated'
p125
S'[[con]]'
p126
S'played'
p127
tp128
F0.00017853954650955185
s(S'then'
p129
S'spent'
p130
S'most'
p131
tp132
F0.00017853954650955185
s(S'first'
p133
S'played'
p134
S'[[adj]]'
p135
tp136
F0.00017853954650955185
s(S'as'
p137
S'[[adj]]'
p138
S'head'
p139
tp140
F0.0007141581860382074
s(S'[[det]]'
p141
S'[[adj]]'
p142
S'seasons'
p143
tp144
F0.0005356186395286556
s(S'[[mod]]'
p145
S'remain'
p146
S'[[det]]'
p147
tp148
F0.00017853954650955185
s(S'was'
p149
S'born'
p150
S'[[con]]'
p151
tp152
F0.001249776825566863
s(S'[[adj]]'
p153
S'game'
p154
S'with'
p155
tp156
F0.00017853954650955185
s(S'[[mod]]'
p157
S'sign'
p158
S'with'
p159
tp160
F0.00017853954650955185
s(S'had'
p161
S'represented'
p162
S'in'
p163
tp164
F0.00017853954650955185
s(S'has'
p165
S'played'
p166
S'for'
p167
tp168
F0.001249776825566863
s(S's'
p169
S'career'
p170
S'in'
p171
tp172
F0.00017853954650955185
s(S'[[num]]'
p173
S'goal'
p174
S'in'
p175
tp176
F0.0003570790930191037
s(S'[[det]]'
p177
S'quarterback'
p178
S'at'
p179
tp180
F0.0003570790930191037
s(S'[[num]]'
p181
S'games'
p182
S'[[con]]'
p183
tp184
F0.0014283163720764148
s(S'is'
p185
S'[[det]]'
p186
S'soccer'
p187
tp188
F0.0005356186395286556
s(S'[[num]]'
p189
S'years'
p190
S'with'
p191
tp192
F0.0007141581860382074
s(S'currently'
p193
S'plays'
p194
S'as'
p195
tp196
F0.0007141581860382074
s(S'player'
p197
S'who'
p198
S'was'
p199
tp200
F0.0003570790930191037
s(S'originally'
p201
S'drafted'
p202
S'in'
p203
tp204
F0.00017853954650955185
s(S'[[num]]'
p205
S'round'
p206
S'[[adj]]'
p207
tp208
F0.00017853954650955185
s(S'was'
p209
S'member'
p210
S'for'
p211
tp212
F0.00017853954650955185
s(S'when'
p213
S'moved'
p214
S'from'
p215
tp216
F0.00017853954650955185
s(S'then'
p217
S'served'
p218
S'for'
p219
tp220
F0.00017853954650955185
s(S'serve'
p221
S'as'
p222
S'[[det]]'
p223
tp224
F0.00017853954650955185
s(S'play'
p225
S'[[det]]'
p226
S'[[adj]]'
p227
tp228
F0.00017853954650955185
s(S'as'
p229
S'[[det]]'
p230
S'wing'
p231
tp232
F0.00017853954650955185
s(S'league'
p233
S'appearances'
p234
S'for'
p235
tp236
F0.00017853954650955185
s(S'then'
p237
S'joined'
p238
S'to'
p239
tp240
F0.00017853954650955185
s(S'over'
p241
S'[[num]]'
p242
S'games'
p243
tp244
F0.0003570790930191037
s(S'[[con]]'
p245
S'professionally'
p246
S'for'
p247
tp248
F0.00017853954650955185
s(S'[[adj]]'
p249
S'match'
p250
S'against'
p251
tp252
F0.001249776825566863
s(S'also'
p253
S'appointed'
p254
S'[[con]]'
p255
tp256
F0.00017853954650955185
s(S'who'
p257
S'came'
p258
S'to'
p259
tp260
F0.00017853954650955185
s(S'began'
p261
S'[[det]]'
p262
S'[[adj]]'
p263
tp264
F0.0003570790930191037
s(S'later'
p265
S'moved'
p266
S'at'
p267
tp268
F0.00017853954650955185
s(S'[[adj]]'
p269
S'footballer'
p270
S'who'
p271
tp272
F0.00874843777896804
s(S'for'
p273
S'[[det]]'
p274
S'located'
p275
tp276
F0.0007141581860382074
s(g169
S'won'
p277
S'[[det]]'
p278
tp279
F0.00017853954650955185
s(S'currently'
p280
S'playing'
p281
S'in'
p282
tp283
F0.00017853954650955185
s(S'[[num]]'
p284
S'debut'
p285
S'against'
p286
tp287
F0.00017853954650955185
s(S'then'
p288
S'moved'
p289
S'to'
p290
tp291
F0.00017853954650955185
s(S'became'
p292
S'head'
p293
S'at'
p294
tp295
F0.00017853954650955185
s(S'[[adj]]'
p296
S'given'
p297
S'by'
p298
tp299
F0.00017853954650955185
s(S'[[adj]]'
p300
S'played'
p301
S'with'
p302
tp303
F0.00017853954650955185
s(S'had'
p304
S'won'
p305
S'[[pro]]'
p306
tp307
F0.00017853954650955185
s(S'[[det]]'
p308
S'games'
p309
S'for'
p310
tp311
F0.00017853954650955185
s(S'be'
p312
S'released'
p313
S'by'
p314
tp315
F0.00017853954650955185
s(S'who'
p316
S'began'
p317
S'as'
p318
tp319
F0.00017853954650955185
s(S'at'
p320
S'professionally'
p321
S'for'
p322
tp323
F0.00017853954650955185
s(S'[[num]]'
p324
S'appearances'
p325
S'in'
p326
tp327
F0.0003570790930191037
s(S'[[num]]'
p328
S'times'
p329
S'[[det]]'
p330
tp331
F0.00017853954650955185
s(S'then'
p332
S'joined'
p333
S'side'
p334
tp335
F0.00017853954650955185
s(S'[[num]]'
p336
S'league'
p337
S'games'
p338
tp339
F0.00017853954650955185
s(S'basketball'
p340
S'player'
p341
S'currently'
p342
tp343
F0.0003570790930191037
s(S'when'
p344
S'came'
p345
S'to'
p346
tp347
F0.00017853954650955185
s(S'known'
p348
S'is'
p349
S'[[det]]'
p350
tp351
F0.0003570790930191037
s(S'when'
p352
S'joined'
p353
S'[[det]]'
p354
tp355
F0.00017853954650955185
s(S'again'
p356
S'named'
p357
S'as'
p358
tp359
F0.00017853954650955185
s(S'has'
p360
S'played'
p361
S'[[det]]'
p362
tp363
F0.00017853954650955185
s(S'from'
p364
S'playing'
p365
S'in'
p366
tp367
F0.00017853954650955185
s(S'has'
p368
S'coached'
p369
S'[[num]]'
p370
tp371
F0.00017853954650955185
s(S'played'
p372
S'with'
p373
S'[[adj]]'
p374
tp375
F0.0003570790930191037
s(S'also'
p376
S'involved'
p377
S'for'
p378
tp379
F0.00017853954650955185
s(S'[[adj]]'
p380
S'winger'
p381
S'for'
p382
tp383
F0.00017853954650955185
s(S'[[det]]'
p384
S'captain'
p385
S'in'
p386
tp387
F0.00017853954650955185
s(S'[[det]]'
p388
S'head'
p389
S'men'
p390
tp391
F0.00017853954650955185
s(S'to'
p392
S'played'
p393
S'for'
p394
tp395
F0.00017853954650955185
s(S'for'
p396
S'[[det]]'
p397
S'held'
p398
tp399
F0.00017853954650955185
s(S'[[det]]'
p400
S'team'
p401
S'is'
p402
tp403
F0.00017853954650955185
s(S'league'
p404
S'debut'
p405
S'on'
p406
tp407
F0.00017853954650955185
s(S'in'
p408
S'[[adj]]'
p409
S'scoring'
p410
tp411
F0.00017853954650955185
s(S'played'
p412
S'[[det]]'
p413
S'total'
p414
tp415
F0.0005356186395286556
s(S'later'
p416
S'played'
p417
S'[[num]]'
p418
tp419
F0.0003570790930191037
s(S'also'
p420
S'appointed'
p421
S'on'
p422
tp423
F0.00017853954650955185
s(S'is'
p424
S'[[adj]]'
p425
S'footballer'
p426
tp427
F0.0005356186395286556
s(S'[[det]]'
p428
S'award'
p429
g328
tp430
F0.00017853954650955185
s(S'played'
p431
S'[[num]]'
p432
S'match'
p433
tp434
F0.0010712372790573112
s(S'to'
p435
S'play'
p436
S'for'
p437
tp438
F0.00017853954650955185
s(S'where'
p439
S'played'
p440
S'for'
p441
tp442
F0.0003570790930191037
s(S'was'
p443
S'chosen'
p444
S'[[adj]]'
p445
tp446
F0.00017853954650955185
s(S'[[det]]'
p447
S'year'
p448
S'as'
p449
tp450
F0.00017853954650955185
s(S'made'
p451
S'debut'
p452
S'for'
p453
tp454
F0.00017853954650955185
s(S'football'
p455
S'as'
p456
S'[[det]]'
p457
tp458
F0.0003570790930191037
s(S'had'
p459
S'played'
p460
S'in'
p461
tp462
F0.00017853954650955185
s(S'[[num]]'
p463
S'game'
p464
S'against'
p465
tp466
F0.0003570790930191037
s(S'signed'
p467
S'to'
p468
S'[[det]]'
p469
tp470
F0.0003570790930191037
s(S'[[det]]'
p471
S'football'
p472
S'striker'
p473
tp474
F0.0007141581860382074
s(S'was'
p475
S'moved'
p476
S'to'
p477
tp478
F0.00017853954650955185
s(S'been'
p479
S'named'
p480
S'at'
p481
tp482
F0.00017853954650955185
s(S'[[num]]'
p483
S'games'
p484
S'[[num]]'
p485
tp486
F0.0017853954650955187
s(S'been'
p487
S'given'
p488
S'[[det]]'
p489
tp490
F0.00017853954650955185
s(S'born'
p491
S'was'
p492
S'[[det]]'
p493
tp494
F0.0010712372790573112
s(S'has'
p495
S'played'
p496
S'with'
p497
tp498
F0.00017853954650955185
s(S'began'
p499
S'[[prp]]'
p500
S'[[adj]]'
p501
tp502
F0.0014283163720764148
s(S'is'
p503
S'football'
p504
S'player'
p505
tp506
F0.00017853954650955185
s(S'just'
p507
S'[[num]]'
p508
S'seasons'
p509
tp510
F0.00017853954650955185
s(S'more'
p511
S'seasons'
p512
S'[[num]]'
p513
tp514
F0.00017853954650955185
s(S'coach'
p515
S'then'
p516
S'known'
p517
tp518
F0.00017853954650955185
s(S'[[adj]]'
p519
S'member'
p520
S'as'
p521
tp522
F0.00017853954650955185
s(S'[[adj]]'
p523
S'member'
p524
S'from'
p525
tp526
F0.00017853954650955185
s(S'[[det]]'
p527
S'season'
p528
S'with'
p529
tp530
F0.0008926977325477593
s(S'had'
p531
S'played'
p532
S'[[det]]'
p533
tp534
F0.00017853954650955185
s(S'plays'
p535
S'on'
p536
S'loan'
p537
tp538
F0.00017853954650955185
s(S'had'
p539
S'joined'
p540
S'[[det]]'
p541
tp542
F0.00017853954650955185
s(S'won'
p543
S'award'
p544
S'for'
p545
tp546
F0.00017853954650955185
s(S'to'
p547
S'head'
p548
S'[[det]]'
p549
tp550
F0.00017853954650955185
s(S'[[adj]]'
p551
S'playing'
p552
S'for'
p553
tp554
F0.0003570790930191037
s(S'[[adj]]'
p555
S'match'
p556
S'with'
p557
tp558
F0.0003570790930191037
s(S'footballer'
p559
S'born'
p560
S'in'
p561
tp562
F0.0005356186395286556
s(S'previously'
p563
S'served'
p564
S'as'
p565
tp566
F0.0010712372790573112
s(S'[[det]]'
p567
S'rules'
p568
S'footballer'
p569
tp570
F0.002678093197643278
s(S'who'
p571
S'play'
p572
S'in'
p573
tp574
F0.00017853954650955185
s(g169
S'debut'
p575
S'for'
p576
tp577
F0.00017853954650955185
s(S'been'
p578
S'released'
p579
S'with'
p580
tp581
F0.00017853954650955185
s(S'[[num]]'
p582
S'goals'
p583
S'in'
p584
tp585
F0.0010712372790573112
s(S'[[con]]'
p586
S'played'
p587
S'for'
p588
tp589
F0.0010712372790573112
s(S'had'
p590
S'transferred'
p591
S'from'
p592
tp593
F0.00017853954650955185
s(S'started'
p594
S'[[det]]'
p595
S'[[adj]]'
p596
tp597
F0.00017853954650955185
s(g151
S'played'
p598
S'[[num]]'
p599
tp600
F0.0007141581860382074
s(S'currently'
p601
S'plays'
p602
S'for'
p603
tp604
F0.0035707909301910374
s(S'[[adj]]'
p605
S'team'
p606
S'at'
p607
tp608
F0.00017853954650955185
s(S'[[adj]]'
p609
S'stints'
p610
S'with'
p611
tp612
F0.00017853954650955185
s(S'later'
p613
S'joined'
p614
S'[[con]]'
p615
tp616
F0.00017853954650955185
s(S'won'
p617
g428
g429
tp618
F0.0008926977325477593
s(S'appointed'
p619
S'as'
p620
S'[[det]]'
p621
tp622
F0.00017853954650955185
s(S'again'
p623
S'moved'
p624
S'to'
p625
tp626
F0.00017853954650955185
s(S'drafted'
p627
S'[[adj]]'
p628
S'never'
p629
tp630
F0.00017853954650955185
s(S'later'
p631
S'appointed'
p632
S'at'
p633
tp634
F0.00017853954650955185
s(S'played'
p635
S'[[adj]]'
p636
S'lineman'
p637
tp638
F0.00017853954650955185
s(S'has'
p639
S'played'
p640
S'in'
p641
tp642
F0.0005356186395286556
s(S'been'
p643
S'signed'
p644
S'by'
p645
tp646
F0.00017853954650955185
s(S'striker'
p647
S'who'
p648
S'plays'
p649
tp650
F0.00017853954650955185
s(S'[[adj]]'
p651
S'member'
p652
S'during'
p653
tp654
F0.00017853954650955185
s(S'star'
p655
S'quarterback'
p656
S'at'
p657
tp658
F0.00017853954650955185
s(S'been'
p659
S'playing'
p660
S'for'
p661
tp662
F0.00017853954650955185
s(S'[[num]]'
p663
S'years'
p664
S'in'
p665
tp666
F0.0005356186395286556
s(S'also'
p667
S'played'
p668
S'[[con]]'
p669
tp670
F0.0003570790930191037
s(S'drafted'
p671
S'where'
p672
S'played'
p673
tp674
F0.00017853954650955185
s(S'[[det]]'
p675
S'member'
p676
S'from'
p677
tp678
F0.00017853954650955185
s(S'had'
p679
S'played'
p680
S'[[con]]'
p681
tp682
F0.00017853954650955185
s(S'[[det]]'
p683
S'striker'
p684
S'for'
p685
tp686
F0.0008926977325477593
s(S'was'
p687
S'added'
p688
S'to'
p689
tp690
F0.00017853954650955185
s(S'had'
p691
S'applied'
p692
S'to'
p693
tp694
F0.00017853954650955185
s(S'was'
p695
S'picked'
p696
S'up'
p697
tp698
F0.0003570790930191037
s(S'was'
p699
S'signed'
p700
S'to'
p701
tp702
F0.0010712372790573112
s(S'[[num]]'
p703
S'game'
p704
S'with'
p705
tp706
F0.0005356186395286556
s(S'as'
p707
S'coach'
p708
S'of'
p709
tp710
F0.0003570790930191037
s(S'[[det]]'
p711
S'goals'
p712
S'in'
p713
tp714
F0.0003570790930191037
s(S'[[num]]'
p715
S'season'
p716
S'with'
p717
tp718
F0.0014283163720764148
s(S'was'
p719
S'drafted'
p720
S'into'
p721
tp722
F0.0003570790930191037
s(S'appointed'
p723
S'coach'
p724
S'of'
p725
tp726
F0.00017853954650955185
s(S'[[adj]]'
p727
S'signed'
p728
S'with'
p729
tp730
F0.00017853954650955185
s(S'[[con]]'
p731
S'played'
p732
S'together'
p733
tp734
F0.00017853954650955185
s(S'before'
p735
S'returned'
p736
S'to'
p737
tp738
F0.00017853954650955185
s(S'then'
p739
S'moved'
p740
S'into'
p741
tp742
F0.00017853954650955185
s(S'[[det]]'
p743
S'moved'
p744
S'to'
p745
tp746
F0.00017853954650955185
s(S'played'
p747
S'football'
p748
S'with'
p749
tp750
F0.0005356186395286556
s(S'was'
p751
S'drafted'
p752
S'[[con]]'
p753
tp754
F0.0010712372790573112
s(S'have'
p755
S'served'
p756
S'in'
p757
tp758
F0.00017853954650955185
s(S'spent'
p759
S'[[num]]'
p760
S'seasons'
p761
tp762
F0.003035172290662382
s(S'[[det]]'
p763
S'rugby'
p764
S'union'
p765
tp766
F0.0003570790930191037
s(S'became'
p767
S'head'
p768
S'[[det]]'
p769
tp770
F0.00017853954650955185
s(S'was'
p771
S'released'
p772
S'by'
p773
tp774
F0.00017853954650955185
s(S'being'
p775
S'hired'
p776
S'by'
p777
tp778
F0.00017853954650955185
s(S'footballer'
p779
S'who'
p780
S'[[num]]'
p781
tp782
F0.0014283163720764148
s(S'[[adj]]'
p783
S'debut'
p784
S'for'
p785
tp786
F0.00017853954650955185
s(S'football'
p787
S'[[con]]'
p788
S'graduated'
p789
tp790
F0.00017853954650955185
s(S'[[det]]'
p791
S'footballer'
p792
S'playing'
p793
tp794
F0.00017853954650955185
s(S'since'
p795
S'returned'
p796
S'to'
p797
tp798
F0.00017853954650955185
s(S'[[num]]'
p799
S'appearances'
p800
S'for'
p801
tp802
F0.0003570790930191037
s(S'named'
p803
S'head'
p804
S'coach'
p805
tp806
F0.0008926977325477593
s(S'before'
p807
S'playing'
p808
S'[[det]]'
p809
tp810
F0.00017853954650955185
s(S'then'
p811
S'played'
p812
S'[[con]]'
p813
tp814
F0.00017853954650955185
s(S'[[num]]'
p815
S'stints'
p816
S'at'
p817
tp818
F0.00017853954650955185
s(S'only'
p819
S'played'
p820
S'with'
p821
tp822
F0.00017853954650955185
s(S'[[adj]]'
p823
S'player'
p824
S'[[con]]'
p825
tp826
F0.00017853954650955185
s(S'later'
p827
S'played'
p828
S'against'
p829
tp830
F0.00017853954650955185
s(S'later'
p831
S'signed'
p832
S'[[det]]'
p833
tp834
F0.0003570790930191037
s(S'[[num]]'
p835
S'[[adj]]'
p836
S'match'
p837
tp838
F0.0007141581860382074
s(S'[[adj]]'
p839
S'league'
p840
S'debut'
p841
tp842
F0.001249776825566863
s(S'been'
p843
S'involved'
p844
S'in'
p845
tp846
F0.00017853954650955185
s(S'was'
p847
S'originally'
p848
S'signed'
p849
tp850
F0.00017853954650955185
s(S'also'
p851
S'playing'
p852
S'with'
p853
tp854
F0.00017853954650955185
s(S'[[num]]'
p855
S'[[det]]'
p856
S'born'
p857
tp858
F0.00017853954650955185
s(S'also'
p859
S'represented'
p860
S'against'
p861
tp862
F0.00017853954650955185
s(S'[[num]]'
p863
S'seasons'
p864
S'[[det]]'
p865
tp866
F0.0005356186395286556
s(S'had'
p867
S'joined'
p868
S'side'
p869
tp870
F0.00017853954650955185
s(S'[[adj]]'
p871
S'game'
p872
S'by'
p873
tp874
F0.00017853954650955185
s(S'played'
p875
S'[[det]]'
p876
S'game'
p877
tp878
F0.0008926977325477593
s(S'instead'
p879
S'signed'
p880
S'for'
p881
tp882
F0.00017853954650955185
s(S'[[adj]]'
p883
S'deal'
p884
S'at'
p885
tp886
F0.00017853954650955185
s(g473
S'who'
p887
S'currently'
p888
tp889
F0.0003570790930191037
s(S'was'
p890
S'member'
p891
S'[[num]]'
p892
tp893
F0.00017853954650955185
s(S'became'
p894
S'coach'
p895
S'at'
p896
tp897
F0.00017853954650955185
s(S'[[adj]]'
p898
S'games'
p899
S'in'
p900
tp901
F0.0005356186395286556
s(S'played'
p902
g507
g508
tp903
F0.0008926977325477593
s(g18
g19
S'games'
p904
tp905
F0.00017853954650955185
s(S'that'
p906
S'season'
p907
S'in'
p908
tp909
F0.00017853954650955185
s(S'[[con]]'
p910
S'assistant'
p911
S'coach'
p912
tp913
F0.00017853954650955185
s(g595
g596
S'career'
p914
tp915
F0.0007141581860382074
s(S'played'
p916
S'for'
p917
S'team'
p918
tp919
F0.0005356186395286556
s(S'served'
p920
S'as'
p921
S'head'
p922
tp923
F0.0021424745581146223
s(S'[[con]]'
p924
S'[[adj]]'
p925
S'coach'
p926
tp927
F0.00017853954650955185
s(S'is'
p928
S'head'
p929
S'at'
p930
tp931
F0.00017853954650955185
s(S'was'
p932
S'hired'
p933
S'as'
p934
tp935
F0.00017853954650955185
s(S'to'
p936
S'join'
p937
S'[[adj]]'
p938
tp939
F0.00017853954650955185
s(S'where'
p940
S'served'
p941
S'with'
p942
tp943
F0.00017853954650955185
s(S'also'
p944
S'played'
p945
S'from'
p946
tp947
F0.00017853954650955185
s(S'football'
p948
S'[[con]]'
p949
S'has'
p950
tp951
F0.0003570790930191037
s(S'also'
p952
S'play'
p953
S'with'
p954
tp955
F0.00017853954650955185
s(S'to'
p956
S'represent'
p957
S'[[det]]'
p958
tp959
F0.00017853954650955185
s(S'then'
p960
S'signed'
p961
S'for'
p962
tp963
F0.00017853954650955185
s(S'[[adj]]'
p964
S'play'
p965
S'against'
p966
tp967
F0.00017853954650955185
s(S'premiership'
p968
S'player'
p969
S'with'
p970
tp971
F0.00017853954650955185
s(S'served'
p972
S'as'
p973
S'[[det]]'
p974
tp975
F0.0033922513836814857
s(S'also'
p976
S'played'
p977
S'on'
p978
tp979
F0.00017853954650955185
s(S'had'
p980
S'represented'
p981
S'[[det]]'
p982
tp983
F0.00017853954650955185
s(S'[[adj]]'
p984
S'tackle'
p985
S'for'
p986
tp987
F0.0003570790930191037
s(S'was'
p988
S'playing'
p989
S'against'
p990
tp991
F0.00017853954650955185
s(S'was'
p992
S'head'
p993
S'at'
p994
tp995
F0.00017853954650955185
s(S'life'
p996
S'member'
p997
S'of'
p998
tp999
F0.00017853954650955185
s(S'[[mod]]'
p1000
S'play'
p1001
S'in'
p1002
tp1003
F0.00017853954650955185
s(S'was'
p1004
S'represented'
p1005
S'for'
p1006
tp1007
F0.00017853954650955185
s(S'was'
p1008
S'member'
p1009
S'of'
p1010
tp1011
F0.00017853954650955185
s(g325
g326
S'[[det]]'
p1012
tp1013
F0.00017853954650955185
s(S'also'
p1014
S'joined'
p1015
S'[[det]]'
p1016
tp1017
F0.00017853954650955185
s(S'also'
p1018
S'picked'
p1019
S'up'
p1020
tp1021
F0.00017853954650955185
s(S'head'
p1022
S'basketball'
p1023
S'coach'
p1024
tp1025
F0.0010712372790573112
s(S'games'
p1026
S'over'
p1027
S'[[num]]'
p1028
tp1029
F0.00017853954650955185
s(S'has'
p1030
S'served'
p1031
S'before'
p1032
tp1033
F0.00017853954650955185
s(S'is'
p1034
S'named'
p1035
S'of'
p1036
tp1037
F0.00017853954650955185
s(S'was'
p1038
S'head'
p1039
S'[[det]]'
p1040
tp1041
F0.00017853954650955185
s(S'agent'
p1042
S'[[con]]'
p1043
S'was'
p1044
tp1045
F0.00017853954650955185
s(S'played'
p1046
S'quarterback'
p1047
S'for'
p1048
tp1049
F0.0005356186395286556
s(g628
g629
S'played'
p1050
tp1051
F0.00017853954650955185
s(S'[[det]]'
p1052
S'season'
p1053
S'in'
p1054
tp1055
F0.0003570790930191037
s(S'coach'
p1056
S'at'
p1057
S'[[con]]'
p1058
tp1059
F0.00017853954650955185
s(S'[[mod]]'
p1060
S'remain'
p1061
S'with'
p1062
tp1063
F0.00017853954650955185
s(S'[[adj]]'
p1064
S'debut'
p1065
S'[[det]]'
p1066
tp1067
F0.00017853954650955185
s(S'[[num]]'
p1068
S'[[adj]]'
p1069
S'games'
p1070
tp1071
F0.0003570790930191037
s(S'served'
p1072
S'head'
p1073
S'coach'
p1074
tp1075
F0.00017853954650955185
s(S'was'
p1076
S'chosen'
p1077
S'at'
p1078
tp1079
F0.00017853954650955185
s(S'has'
p1080
S'served'
p1081
S'in'
p1082
tp1083
F0.00017853954650955185
s(S'[[num]]'
p1084
g269
g270
tp1085
F0.008391358685948938
s(S'[[adj]]'
p1086
S'receiver'
p1087
S'in'
p1088
tp1089
F0.0003570790930191037
s(S'again'
p1090
S'served'
p1091
S'to'
p1092
tp1093
F0.00017853954650955185
s(S'[[adj]]'
p1094
S'pick'
p1095
S'of'
p1096
tp1097
F0.00017853954650955185
s(S'later'
p1098
S'joined'
p1099
S'[[det]]'
p1100
tp1101
F0.00017853954650955185
s(S'college'
p1102
S'for'
p1103
S'[[det]]'
p1104
tp1105
F0.00017853954650955185
s(S'just'
p1106
S'[[num]]'
p1107
S'game'
p1108
tp1109
F0.0005356186395286556
s(S'[[adj]]'
p1110
S'manager'
p1111
S'of'
p1112
tp1113
F0.00017853954650955185
s(g472
g473
g887
tp1114
F0.0005356186395286556
s(S'was'
p1115
S'transferred'
p1116
S'back'
p1117
tp1118
F0.00017853954650955185
s(S'previously'
p1119
S'played'
p1120
S'[[adj]]'
p1121
tp1122
F0.00017853954650955185
s(S'was'
p1123
S'transferred'
p1124
S'with'
p1125
tp1126
F0.00017853954650955185
s(g169
S'career'
p1127
S'with'
p1128
tp1129
F0.00017853954650955185
s(S'not'
p1130
S'played'
p1131
S'for'
p1132
tp1133
F0.00017853954650955185
s(g270
g271
S'played'
p1134
tp1135
F0.011069451883592216
s(S'also'
p1136
S'served'
p1137
S'to'
p1138
tp1139
F0.00017853954650955185
s(S'is'
p1140
S'[[adj]]'
p1141
S'football'
p1142
tp1143
F0.004999107302267452
s(S'[[det]]'
p1144
S'head'
p1145
S'of'
p1146
tp1147
F0.00017853954650955185
s(S'rated'
p1148
S'[[det]]'
p1149
S'[[adj]]'
p1150
tp1151
F0.00017853954650955185
s(S'[[mod]]'
p1152
S'remain'
p1153
S'[[adj]]'
p1154
tp1155
F0.00017853954650955185
s(S'[[adj]]'
p1156
S'player'
p1157
S'with'
p1158
tp1159
F0.00017853954650955185
s(S'college'
p1160
S'football'
p1161
S'[[det]]'
p1162
tp1163
F0.00017853954650955185
s(S'played'
p1164
S'professionally'
p1165
S'[[con]]'
p1166
tp1167
F0.0005356186395286556
s(S'then'
p1168
S'earned'
p1169
S'in'
p1170
tp1171
F0.00017853954650955185
s(S'later'
p1172
S'coached'
p1173
S'with'
p1174
tp1175
F0.00017853954650955185
s(S'was'
p1176
S'joined'
p1177
S'at'
p1178
tp1179
F0.00017853954650955185
s(S'been'
p1180
S'named'
p1181
S'of'
p1182
tp1183
F0.00017853954650955185
s(S'was'
p1184
S'released'
p1185
S'to'
p1186
tp1187
F0.00017853954650955185
s(S'best'
p1188
S'known'
p1189
S'as'
p1190
tp1191
F0.00017853954650955185
s(S'been'
p1192
S'named'
p1193
S'to'
p1194
tp1195
F0.00017853954650955185
s(S'after'
p1196
S'playing'
p1197
S'for'
p1198
tp1199
F0.00017853954650955185
s(S'[[con]]'
p1200
S'won'
p1201
S'with'
p1202
tp1203
F0.00017853954650955185
s(g66
g67
S'as'
p1204
tp1205
F0.00017853954650955185
s(g1161
g1162
S'member'
p1206
tp1207
F0.00017853954650955185
s(S'had'
p1208
S'signed'
p1209
S'with'
p1210
tp1211
F0.00017853954650955185
s(S'who'
p1212
S'came'
p1213
S'from'
p1214
tp1215
F0.00017853954650955185
s(S'again'
p1216
S'named'
p1217
S'in'
p1218
tp1219
F0.00017853954650955185
s(S'being'
p1220
S'drafted'
p1221
S'by'
p1222
tp1223
F0.00017853954650955185
s(S'had'
p1224
S'transferred'
p1225
S'to'
p1226
tp1227
F0.00017853954650955185
s(S'also'
p1228
S'signed'
p1229
S'by'
p1230
tp1231
F0.00017853954650955185
s(S'then'
p1232
S'appointed'
p1233
S'[[pro]]'
p1234
tp1235
F0.00017853954650955185
s(S'that'
p1236
S'played'
p1237
S'in'
p1238
tp1239
F0.00017853954650955185
s(S'as'
p1240
S'[[adj]]'
p1241
S'agent'
p1242
tp1243
F0.0007141581860382074
s(S'[[prp]]'
p1244
S'career'
p1245
S'with'
p1246
tp1247
F0.0008926977325477593
s(S'spent'
p1248
S'only'
p1249
S'[[num]]'
p1250
tp1251
F0.0003570790930191037
s(g1149
g1150
S'player'
p1252
tp1253
F0.00017853954650955185
s(S'later'
p1254
S'appointed'
p1255
S'as'
p1256
tp1257
F0.00017853954650955185
s(S'[[adj]]'
p1258
g233
g234
tp1259
F0.00017853954650955185
s(g169
S'career'
p1260
S'at'
p1261
tp1262
F0.00017853954650955185
s(S'[[con]]'
p1263
S'also'
p1264
S'played'
p1265
tp1266
F0.0007141581860382074
s(S'[[num]]'
p1267
S'season'
p1268
S'[[det]]'
p1269
tp1270
F0.00017853954650955185
s(S'previously'
p1271
S'played'
p1272
S'[[con]]'
p1273
tp1274
F0.0003570790930191037
s(S'[[det]]'
p1275
S'head'
p1276
S'at'
p1277
tp1278
F0.00017853954650955185
s(S'who'
p1279
S'moved'
p1280
S'from'
p1281
tp1282
F0.00017853954650955185
s(S'[[adj]]'
p1283
S'seasons'
p1284
S'with'
p1285
tp1286
F0.001249776825566863
s(S'[[con]]'
p1287
S'served'
p1288
S'as'
p1289
tp1290
F0.00017853954650955185
s(S'was'
p1291
S'given'
p1292
S'[[det]]'
p1293
tp1294
F0.00017853954650955185
s(S'also'
p1295
S'named'
p1296
S'to'
p1297
tp1298
F0.00017853954650955185
s(S'played'
p1299
S'[[adj]]'
p1300
S'football'
p1301
tp1302
F0.0032137118371719335
s(g1024
S'[[num]]'
p1303
S'[[con]]'
p1304
tp1305
F0.0005356186395286556
s(S'as'
p1306
S'[[det]]'
p1307
S'goalkeeper'
p1308
tp1309
F0.001249776825566863
s(S'[[prp]]'
p1310
S'debut'
p1311
S'to'
p1312
tp1313
F0.00017853954650955185
s(S'previously'
p1314
S'been'
p1315
S'[[det]]'
p1316
tp1317
F0.00017853954650955185
s(S'[[adj]]'
p1318
S'games'
p1319
S'for'
p1320
tp1321
F0.001249776825566863
s(S'to'
p1322
S'coach'
p1323
S'at'
p1324
tp1325
F0.00017853954650955185
s(S'been'
p1326
S'named'
p1327
S'[[con]]'
p1328
tp1329
F0.00017853954650955185
s(S'been'
p1330
S'appointed'
p1331
S'at'
p1332
tp1333
F0.00017853954650955185
s(g857
S'footballer'
p1334
S'currently'
p1335
tp1336
F0.00017853954650955185
s(S'never'
p1337
S'played'
p1338
S'for'
p1339
tp1340
F0.0003570790930191037
s(S'born'
p1341
S'[[det]]'
p1342
S'[[adj]]'
p1343
tp1344
F0.00017853954650955185
s(S'then'
p1345
S'appointed'
p1346
S'at'
p1347
tp1348
F0.00017853954650955185
s(S'[[num]]'
p1349
S'playing'
p1350
S'for'
p1351
tp1352
F0.00017853954650955185
s(S'was'
p1353
S'cut'
p1354
S'from'
p1355
tp1356
F0.00017853954650955185
s(S'back'
p1357
S'[[det]]'
p1358
S'born'
p1359
tp1360
F0.00017853954650955185
s(S'also'
p1361
S'played'
p1362
S'for'
p1363
tp1364
F0.0016068559185859668
s(S'[[con]]'
p1365
S'head'
p1366
S'of'
p1367
tp1368
F0.00017853954650955185
s(S'was'
p1369
S'appointed'
p1370
S'[[num]]'
p1371
tp1372
F0.00017853954650955185
s(S'in'
p1373
S'[[adj]]'
p1374
S'games'
p1375
tp1376
F0.00017853954650955185
s(S'later'
p1377
S'moved'
p1378
S'on'
p1379
tp1380
F0.00017853954650955185
s(S'football'
p1381
S'coach'
p1382
S'[[num]]'
p1383
tp1384
F0.0003570790930191037
s(S'[[adj]]'
p1385
S'football'
p1386
S'at'
p1387
tp1388
F0.0003570790930191037
s(S'also'
p1389
S'started'
p1390
S'in'
p1391
tp1392
F0.00017853954650955185
s(S'[[det]]'
p1393
S'debut'
p1394
S'at'
p1395
tp1396
F0.00017853954650955185
s(S'[[num]]'
p1397
S'games'
p1398
S'as'
p1399
tp1400
F0.00017853954650955185
s(S'had'
p1401
S'joined'
p1402
S'from'
p1403
tp1404
F0.00017853954650955185
s(S'[[det]]'
p1405
S'football'
p1406
S'center'
p1407
tp1408
F0.00017853954650955185
s(S'[[det]]'
p1409
S'[[num]]'
p1410
S'award'
p1411
tp1412
F0.00017853954650955185
s(S'[[con]]'
p1413
g25
g26
tp1414
F0.00017853954650955185
s(S'who'
p1415
S'signed'
p1416
S'[[det]]'
p1417
tp1418
F0.00017853954650955185
s(S'player'
p1419
S'[[det]]'
p1420
S'running'
p1421
tp1422
F0.00017853954650955185
s(S'had'
p1423
S'retired'
p1424
S'from'
p1425
tp1426
F0.00017853954650955185
s(S'[[adj]]'
p1427
S'player'
p1428
S'of'
p1429
tp1430
F0.00017853954650955185
s(S'was'
p1431
S'transferred'
p1432
S'from'
p1433
tp1434
F0.00017853954650955185
s(S'again'
p1435
S'led'
p1436
S'[[det]]'
p1437
tp1438
F0.00017853954650955185
s(g856
g857
g1334
tp1439
F0.00017853954650955185
s(S'in'
p1440
S'[[num]]'
p1441
S'seasons'
p1442
tp1443
F0.00017853954650955185
s(S'[[det]]'
p1444
S'football'
p1445
S'[[adj]]'
p1446
tp1447
F0.00017853954650955185
s(S'[[det]]'
p1448
S'analyst'
p1449
S'[[con]]'
p1450
tp1451
F0.00017853954650955185
s(S'was'
p1452
S'recruited'
p1453
S'to'
p1454
tp1455
F0.00017853954650955185
s(S'[[det]]'
p1456
S'practice'
p1457
S'squad'
p1458
tp1459
F0.00017853954650955185
s(S'midfielder'
p1460
S'who'
p1461
S'plays'
p1462
tp1463
F0.00017853954650955185
s(S'[[con]]'
p1464
S'manager'
p1465
S'of'
p1466
tp1467
F0.00017853954650955185
s(S'[[det]]'
p1468
S'[[adj]]'
p1469
S'contract'
p1470
tp1471
F0.0016068559185859668
s(S'to'
p1472
S'play'
p1473
S'[[num]]'
p1474
tp1475
F0.0007141581860382074
s(S'was'
p1476
g803
g804
tp1477
F0.0010712372790573112
s(S'has'
p1478
S'played'
p1479
S'[[num]]'
p1480
tp1481
F0.001249776825566863
s(S'to'
p1482
S'play'
p1483
S'again'
p1484
tp1485
F0.00017853954650955185
s(S'also'
p1486
S'served'
p1487
S'for'
p1488
tp1489
F0.00017853954650955185
s(S'as'
p1490
S'played'
p1491
S'for'
p1492
tp1493
F0.00017853954650955185
s(S'then'
p1494
S'joined'
p1495
S'of'
p1496
tp1497
F0.00017853954650955185
s(S'played'
p1498
S'for'
p1499
S'[[adj]]'
p1500
tp1501
F0.0005356186395286556
s(S'played'
p1502
g1318
g1319
tp1503
F0.0010712372790573112
s(S'was'
p1504
S'named'
p1505
S'of'
p1506
tp1507
F0.00017853954650955185
s(S'to'
p1508
S'remain'
p1509
S'at'
p1510
tp1511
F0.00017853954650955185
s(S'[[pro]]'
p1512
S'playing'
p1513
S'for'
p1514
tp1515
F0.00017853954650955185
s(S'games'
p1516
g173
g174
tp1517
F0.0003570790930191037
s(S'[[con]]'
p1518
S'played'
p1519
S'college'
p1520
tp1521
F0.0010712372790573112
s(g753
S'never'
p1522
S'played'
p1523
tp1524
F0.00017853954650955185
s(S'graduated'
p1525
g1518
g1519
tp1526
F0.00017853954650955185
s(S'be'
p1527
S'picked'
p1528
S'for'
p1529
tp1530
F0.00017853954650955185
s(S'been'
p1531
S'named'
p1532
S'in'
p1533
tp1534
F0.00017853954650955185
s(S'[[det]]'
p1535
S'team'
p1536
S'[[con]]'
p1537
tp1538
F0.00017853954650955185
s(S'had'
p1539
S'coached'
p1540
S'[[det]]'
p1541
tp1542
F0.00017853954650955185
s(S'[[num]]'
p1543
S'years'
p1544
S'for'
p1545
tp1546
F0.0005356186395286556
s(g62
g63
S'for'
p1547
tp1548
F0.00017853954650955185
s(S'[[con]]'
p1549
S'was'
p1550
S'picked'
p1551
tp1552
F0.00017853954650955185
s(S'[[num]]'
p1553
S'seasons'
p1554
S'[[num]]'
p1555
tp1556
F0.0032137118371719335
s(S'[[con]]'
p1557
S'returned'
p1558
S'at'
p1559
tp1560
F0.00017853954650955185
s(S'[[det]]'
p1561
S'linebacker'
p1562
S'for'
p1563
tp1564
F0.00017853954650955185
s(S'also'
p1565
S'attended'
p1566
S'[[con]]'
p1567
tp1568
F0.00017853954650955185
s(S'to'
p1569
S'[[adj]]'
p1570
S'deal'
p1571
tp1572
F0.00017853954650955185
s(S'since'
p1573
S'played'
p1574
S'[[adj]]'
p1575
tp1576
F0.00017853954650955185
s(S'originally'
p1577
S'drafted'
p1578
S'by'
p1579
tp1580
F0.00017853954650955185
s(S'college'
p1581
S'football'
p1582
S'in'
p1583
tp1584
F0.00017853954650955185
s(S'before'
p1585
S'transferring'
p1586
S'to'
p1587
tp1588
F0.0003570790930191037
s(S'played'
p1589
S'[[num]]'
p1590
S'years'
p1591
tp1592
F0.0021424745581146223
s(S'[[det]]'
p1593
S'match'
p1594
S'against'
p1595
tp1596
F0.0003570790930191037
s(S'football'
p1597
S'quarterback'
p1598
S'who'
p1599
tp1600
F0.00017853954650955185
s(S'also'
p1601
S'selected'
p1602
S'by'
p1603
tp1604
F0.00017853954650955185
s(S'also'
p1605
S'started'
p1606
S'[[det]]'
p1607
tp1608
F0.00017853954650955185
s(S'played'
p1609
S'forward'
p1610
S'in'
p1611
tp1612
F0.00017853954650955185
s(S'then'
p1613
S'played'
p1614
S'then'
p1615
tp1616
F0.00017853954650955185
s(S'[[con]]'
p1617
S'coached'
p1618
S'[[det]]'
p1619
tp1620
F0.00017853954650955185
s(S'football'
p1621
g1413
g25
tp1622
F0.00017853954650955185
s(S'when'
p1623
S'attended'
p1624
S'[[det]]'
p1625
tp1626
F0.00017853954650955185
s(S'is'
p1627
S'member'
p1628
S'[[det]]'
p1629
tp1630
F0.00017853954650955185
s(S'[[adj]]'
p1631
S'end'
p1632
S'at'
p1633
tp1634
F0.00017853954650955185
s(S'also'
p1635
S'play'
p1636
S'[[det]]'
p1637
tp1638
F0.00017853954650955185
s(S'basketball'
p1639
S'player'
p1640
S'with'
p1641
tp1642
F0.0003570790930191037
s(S'to'
p1643
S'play'
p1644
S'of'
p1645
tp1646
F0.00017853954650955185
s(S'attended'
p1647
S'[[adj]]'
p1648
S'school'
p1649
tp1650
F0.00017853954650955185
s(S'originally'
p1651
S'drafted'
p1652
S'out'
p1653
tp1654
F0.00017853954650955185
s(S'also'
p1655
S'earned'
p1656
S'at'
p1657
tp1658
F0.00017853954650955185
s(S'then'
p1659
S'appointed'
p1660
S'of'
p1661
tp1662
F0.00017853954650955185
s(S'when'
p1663
S'led'
p1664
S'[[det]]'
p1665
tp1666
F0.00017853954650955185
s(S'then'
p1667
S'joined'
p1668
S'[[det]]'
p1669
tp1670
F0.00017853954650955185
s(S'[[adj]]'
p1671
S'football'
p1672
S'running'
p1673
tp1674
F0.0005356186395286556
s(S'then'
p1675
S'moved'
p1676
S'in'
p1677
tp1678
F0.00017853954650955185
s(S'in'
p1679
S'leading'
p1680
S'[[det]]'
p1681
tp1682
F0.00017853954650955185
s(g169
S'career'
p1683
S'as'
p1684
tp1685
F0.00017853954650955185
s(S'now'
p1686
S'plays'
p1687
S'in'
p1688
tp1689
F0.00017853954650955185
s(g911
g912
S'for'
p1690
tp1691
F0.00017853954650955185
s(S'again'
p1692
S'appointed'
p1693
S'of'
p1694
tp1695
F0.00017853954650955185
s(S'as'
p1696
S'[[det]]'
p1697
S'defender'
p1698
tp1699
F0.001249776825566863
s(S'best'
p1700
S'known'
p1701
S'for'
p1702
tp1703
F0.00017853954650955185
s(S'when'
p1704
S'playing'
p1705
S'for'
p1706
tp1707
F0.00017853954650955185
s(S'is'
p1708
S'transferred'
p1709
S'to'
p1710
tp1711
F0.00017853954650955185
s(S'running'
p1712
S'back'
p1713
S'who'
p1714
tp1715
F0.0007141581860382074
s(S'football'
p1716
S'[[con]]'
p1717
S'thereafter'
p1718
tp1719
F0.00017853954650955185
s(S'appearances'
p1720
S'as'
p1721
g551
tp1722
F0.00017853954650955185
s(S'has'
p1723
S'coached'
p1724
S'for'
p1725
tp1726
F0.00017853954650955185
s(S'[[det]]'
p1727
S'[[num]]'
p1728
S'seasons'
p1729
tp1730
F0.002499553651133726
s(S'footballer'
p1731
S'best'
p1732
S'known'
p1733
tp1734
F0.00017853954650955185
s(S'football'
p1735
S'[[con]]'
p1736
S'basketball'
p1737
tp1738
F0.0003570790930191037
s(S'was'
p1739
S'chosen'
p1740
S'in'
p1741
tp1742
F0.00017853954650955185
s(S'later'
p1743
S'selected'
p1744
S'by'
p1745
tp1746
F0.00017853954650955185
s(S'played'
p1747
S'for'
p1748
S'[[num]]'
p1749
tp1750
F0.002678093197643278
s(S'[[prp]]'
p1751
S'[[adj]]'
p1752
S'game'
p1753
tp1754
F0.0017853954650955187
s(S'was'
p1755
S'chosen'
p1756
S'because'
p1757
tp1758
F0.00017853954650955185
s(g1717
g1718
S'played'
p1759
tp1760
F0.0003570790930191037
s(S'to'
p1761
S'play'
p1762
S'[[adj]]'
p1763
tp1764
F0.00017853954650955185
s(S'[[con]]'
p1765
S'kicked'
p1766
S'[[num]]'
p1767
tp1768
F0.00017853954650955185
s(S'[[pro]]'
p1769
S'basketball'
p1770
S'player'
p1771
tp1772
F0.00017853954650955185
s(S'[[adj]]'
p1773
S'year'
p1774
S'at'
p1775
tp1776
F0.00017853954650955185
s(S'has'
p1777
S'previously'
p1778
S'served'
p1779
tp1780
F0.00017853954650955185
s(S'league'
p1781
S'career'
p1782
S'with'
p1783
tp1784
F0.0003570790930191037
s(S'became'
p1785
S'coach'
p1786
S'for'
p1787
tp1788
F0.00017853954650955185
s(S'kicked'
p1789
g582
g583
tp1790
F0.001249776825566863
s(S'[[det]]'
p1791
S'player'
p1792
S'for'
p1793
tp1794
F0.00017853954650955185
s(S'college'
p1795
S'football'
p1796
S'for'
p1797
tp1798
F0.0007141581860382074
s(S'[[con]]'
p1799
S'joined'
p1800
S'at'
p1801
tp1802
F0.00017853954650955185
s(S'[[det]]'
p1803
S'team'
p1804
S'that'
p1805
tp1806
F0.00017853954650955185
s(S'[[con]]'
p1807
S'spent'
p1808
S'[[num]]'
p1809
tp1810
F0.00017853954650955185
s(S'[[adj]]'
p1811
S'pick'
p1812
S'by'
p1813
tp1814
F0.00017853954650955185
s(S'[[prp]]'
p1815
S'career'
p1816
S'[[det]]'
p1817
tp1818
F0.0003570790930191037
s(S'taken'
p1819
S'in'
p1820
S'[[adj]]'
p1821
tp1822
F0.00017853954650955185
s(S'footballer'
p1823
S'who'
p1824
g193
tp1825
F0.0017853954650955187
s(S'was'
p1826
S'recruited'
p1827
S'by'
p1828
tp1829
F0.0003570790930191037
s(S'then'
p1830
S'attended'
p1831
S'now'
p1832
tp1833
F0.00017853954650955185
s(S'[[num]]'
p1834
S'known'
p1835
S'is'
p1836
tp1837
F0.00017853954650955185
s(S'[[det]]'
p1838
S'career'
p1839
S'in'
p1840
tp1841
F0.0003570790930191037
s(S'was'
p1842
S'moved'
p1843
S'as'
p1844
tp1845
F0.00017853954650955185
s(S'[[adj]]'
p1846
S'team'
p1847
S'[[det]]'
p1848
tp1849
F0.00017853954650955185
s(S'not'
p1850
S'play'
p1851
S'for'
p1852
tp1853
F0.00017853954650955185
s(S'life'
p1854
S'[[con]]'
p1855
S'[[det]]'
p1856
tp1857
F0.00017853954650955185
s(S'[[det]]'
p1858
S'goalkeeper'
p1859
S'in'
p1860
tp1861
F0.00017853954650955185
s(S'has'
p1862
S'served'
p1863
S'until'
p1864
tp1865
F0.00017853954650955185
s(S'[[num]]'
p1866
S'[[adj]]'
p1867
S'seasons'
p1868
tp1869
F0.0014283163720764148
s(S'[[det]]'
p1870
S'team'
p1871
S'played'
p1872
tp1873
F0.00017853954650955185
s(S'manager'
p1874
S'who'
p1875
S'played'
p1876
tp1877
F0.0005356186395286556
s(S'has'
p1878
S'signed'
p1879
S'[[det]]'
p1880
tp1881
F0.0005356186395286556
s(S'[[det]]'
p1882
S'of'
p1883
S'games'
p1884
tp1885
F0.00017853954650955185
s(S'[[adj]]'
p1886
g1490
g1491
tp1887
F0.00017853954650955185
s(S'to'
p1888
S'[[adj]]'
p1889
S'contract'
p1890
tp1891
F0.0005356186395286556
s(S'was'
p1892
S'hired'
p1893
S'on'
p1894
tp1895
F0.00017853954650955185
s(S'[[adj]]'
p1896
S'member'
p1897
S'at'
p1898
tp1899
F0.00017853954650955185
s(S'year'
p1900
S'before'
p1901
S'going'
p1902
tp1903
F0.00017853954650955185
s(g974
S'head'
p1904
S'coach'
p1905
tp1906
F0.004999107302267452
s(S'coach'
p1907
S'[[con]]'
p1908
S'[[adj]]'
p1909
tp1910
F0.0008926977325477593
s(S'had'
p1911
S'served'
p1912
S'in'
p1913
tp1914
F0.00017853954650955185
s(S'also'
p1915
S'played'
p1916
S'to'
p1917
tp1918
F0.00017853954650955185
s(g1770
g1771
S'who'
p1919
tp1920
F0.0014283163720764148
s(S'also'
p1921
S'coached'
p1922
S'in'
p1923
tp1924
F0.00017853954650955185
s(g1771
g1919
S'playing'
p1925
tp1926
F0.00017853954650955185
s(S'was'
p1927
S'[[det]]'
p1928
S'footballer'
p1929
tp1930
F0.0003570790930191037
s(S'when'
p1931
S'transferred'
p1932
S'to'
p1933
tp1934
F0.00017853954650955185
s(S'again'
p1935
S'selected'
p1936
S'for'
p1937
tp1938
F0.00017853954650955185
s(S'played'
p1939
S'[[con]]'
p1940
S'inside'
p1941
tp1942
F0.00017853954650955185
s(S'played'
p1943
S'[[det]]'
p1944
S'end'
p1945
tp1946
F0.00017853954650955185
s(S'as'
p1947
S'[[det]]'
p1948
S'midfielder'
p1949
tp1950
F0.0010712372790573112
s(S'be'
p1951
S'playing'
p1952
S'for'
p1953
tp1954
F0.00017853954650955185
s(S'later'
p1955
S'hired'
p1956
S'by'
p1957
tp1958
F0.00017853954650955185
s(S'is'
p1959
S'[[det]]'
p1960
S'head'
p1961
tp1962
F0.00017853954650955185
s(S'played'
p1963
S'quarterback'
p1964
S'in'
p1965
tp1966
F0.00017853954650955185
s(S'[[con]]'
p1967
S'was'
p1968
S'drafted'
p1969
tp1970
F0.001249776825566863
s(S'was'
p1971
S'head'
p1972
S'of'
p1973
tp1974
F0.00017853954650955185
s(S'football'
p1975
S'safety'
p1976
S'in'
p1977
tp1978
F0.00017853954650955185
s(S'[[prp]]'
p1979
S'career'
p1980
S'[[con]]'
p1981
tp1982
F0.0003570790930191037
s(S'formerly'
p1983
S'played'
p1984
S'with'
p1985
tp1986
F0.00017853954650955185
s(S'[[num]]'
p1987
S'[[con]]'
p1988
S'played'
p1989
tp1990
F0.0003570790930191037
s(S'[[adj]]'
p1991
S'receiver'
p1992
S'for'
p1993
tp1994
F0.0007141581860382074
s(S'was'
p1995
S'selected'
p1996
S'as'
p1997
tp1998
F0.00017853954650955185
s(S'[[det]]'
p1999
S'year'
p2000
S'to'
p2001
tp2002
F0.00017853954650955185
s(S'once'
p2003
S'played'
p2004
S'for'
p2005
tp2006
F0.00017853954650955185
s(g1718
g1759
S'professionally'
p2007
tp2008
F0.0005356186395286556
s(S'also'
p2009
S'playing'
p2010
S'for'
p2011
tp2012
F0.00017853954650955185
s(S'[[det]]'
p2013
g1731
g1732
tp2014
F0.00017853954650955185
s(S'footballer'
p2015
S'[[con]]'
p2016
g1874
tp2017
F0.0005356186395286556
s(S'[[adj]]'
p2018
S'starting'
p2019
S'quarterback'
p2020
tp2021
F0.00017853954650955185
s(S'played'
p2022
S'in'
p2023
S'game'
p2024
tp2025
F0.00017853954650955185
s(S'[[con]]'
p2026
S'signed'
p2027
S'by'
p2028
tp2029
F0.00017853954650955185
s(S'football'
p2030
g1585
g1586
tp2031
F0.0003570790930191037
s(S'was'
p2032
S'signed'
p2033
S'by'
p2034
tp2035
F0.0007141581860382074
s(S'previously'
p2036
S'played'
p2037
S'in'
p2038
tp2039
F0.0005356186395286556
s(S'[[num]]'
p2040
g69
g70
tp2041
F0.0007141581860382074
s(S'also'
p2042
S'played'
p2043
S'football'
p2044
tp2045
F0.0010712372790573112
s(g186
g187
S'player'
p2046
tp2047
F0.0008926977325477593
s(S'footballer'
p2048
S'[[con]]'
p2049
g1110
tp2050
F0.0003570790930191037
s(S'named'
p2051
S'head'
p2052
S'basketball'
p2053
tp2054
F0.00017853954650955185
s(S'played'
p2055
S'in'
p2056
S'losing'
p2057
tp2058
F0.00017853954650955185
s(S'to'
p2059
S'play'
p2060
S'[[con]]'
p2061
tp2062
F0.00017853954650955185
s(S'also'
p2063
S'served'
p2064
S'until'
p2065
tp2066
F0.00017853954650955185
s(S'played'
p2067
S'more'
p2068
S'[[num]]'
p2069
tp2070
F0.0003570790930191037
s(S'[[adj]]'
p2071
g1781
g1782
tp2072
F0.00017853954650955185
s(S'[[prp]]'
p2073
S'debut'
p2074
S'for'
p2075
tp2076
F0.0003570790930191037
s(S'to'
p2077
S'represent'
p2078
S'[[adj]]'
p2079
tp2080
F0.00017853954650955185
s(S'now'
p2081
S'plays'
p2082
S'with'
p2083
tp2084
F0.00017853954650955185
s(S'[[adj]]'
p2085
S'play'
p2086
S'in'
p2087
tp2088
F0.00017853954650955185
s(S'[[pro]]'
p2089
S'led'
p2090
S'[[det]]'
p2091
tp2092
F0.00017853954650955185
s(S'has'
p2093
S'served'
p2094
S'at'
p2095
tp2096
F0.00017853954650955185
s(S'football'
p2097
S'player'
p2098
S'[[det]]'
p2099
tp2100
F0.0005356186395286556
s(S'was'
p2101
S'chosen'
p2102
S'[[num]]'
p2103
tp2104
F0.00017853954650955185
s(S'[[adj]]'
p2105
S'union'
p2106
S'player'
p2107
tp2108
F0.0005356186395286556
s(S'[[num]]'
p2109
S'seasons'
p2110
S'at'
p2111
tp2112
F0.0010712372790573112
s(S'board'
p2113
S'member'
p2114
S'in'
p2115
tp2116
F0.00017853954650955185
s(S'then'
p2117
S'crossed'
p2118
S'to'
p2119
tp2120
F0.00017853954650955185
s(S'born'
p2121
S'[[num]]'
p2122
S'running'
p2123
tp2124
F0.00017853954650955185
s(S'[[adj]]'
p2125
S'football'
p2126
S'soccer'
p2127
tp2128
F0.0007141581860382074
s(S'later'
p2129
S'signed'
p2130
S'for'
p2131
tp2132
F0.00017853954650955185
s(S'was'
p2133
S'member'
p2134
S'[[det]]'
p2135
tp2136
F0.00017853954650955185
s(S'[[num]]'
p2137
S'more'
p2138
S'season'
p2139
tp2140
F0.0003570790930191037
s(S'[[adj]]'
p2141
S'union'
p2142
S'footballer'
p2143
tp2144
F0.0007141581860382074
s(S'was'
p2145
S'appointed'
p2146
S'on'
p2147
tp2148
F0.00017853954650955185
s(S'again'
p2149
S'selected'
p2150
S'in'
p2151
tp2152
F0.00017853954650955185
s(S'was'
p2153
S'previously'
p2154
S'[[det]]'
p2155
tp2156
F0.0005356186395286556
s(S'not'
p2157
S'selected'
p2158
S'by'
p2159
tp2160
F0.00017853954650955185
s(S'pitcher'
p2161
g316
g317
tp2162
F0.00017853954650955185
s(S'played'
p2163
S'football'
p2164
S'for'
p2165
tp2166
F0.0007141581860382074
s(S'[[adj]]'
p2167
S'career'
p2168
S'at'
p2169
tp2170
F0.0008926977325477593
s(S'[[det]]'
p2171
S'member'
p2172
S'for'
p2173
tp2174
F0.00017853954650955185
s(S'was'
p2175
S'given'
p2176
S'by'
p2177
tp2178
F0.00017853954650955185
s(S'is'
p2179
S'[[adj]]'
p2180
S'head'
p2181
tp2182
F0.0003570790930191037
s(S'also'
p2183
S'represented'
p2184
S'[[det]]'
p2185
tp2186
F0.00017853954650955185
s(S'played'
p2187
S'[[con]]'
p2188
S'was'
p2189
tp2190
F0.0005356186395286556
s(g2138
g2139
S'in'
p2191
tp2192
F0.00017853954650955185
s(g401
g402
S'[[det]]'
p2193
tp2194
F0.00017853954650955185
s(S'while'
p2195
S'joined'
p2196
S'[[det]]'
p2197
tp2198
F0.00017853954650955185
s(S'also'
p2199
S'attended'
p2200
S'[[det]]'
p2201
tp2202
F0.00017853954650955185
s(S'[[num]]'
p2203
S'added'
p2204
S'by'
p2205
tp2206
F0.00017853954650955185
s(S'became'
p2207
S'member'
p2208
S'of'
p2209
tp2210
F0.00017853954650955185
s(S'later'
p2211
S'played'
p2212
S'in'
p2213
tp2214
F0.00017853954650955185
s(S'[[num]]'
p2215
S'games'
p2216
S'at'
p2217
tp2218
F0.00017853954650955185
s(S'was'
p2219
S'coach'
p2220
S'of'
p2221
tp2222
F0.00017853954650955185
s(S'during'
p2223
S'[[num]]'
p2224
S'seasons'
p2225
tp2226
F0.00017853954650955185
s(S'had'
p2227
S'served'
p2228
S'as'
p2229
tp2230
F0.00017853954650955185
s(S'[[adj]]'
p2231
S'football'
p2232
S'[[con]]'
p2233
tp2234
F0.00017853954650955185
s(g1103
g1104
S'football'
p2235
tp2236
F0.00017853954650955185
s(S'played'
p2237
S'only'
p2238
S'[[num]]'
p2239
tp2240
F0.0005356186395286556
s(g921
g922
S'coach'
p2241
tp2242
F0.0019639350116050706
s(S'until'
p2243
S'joined'
p2244
S'[[det]]'
p2245
tp2246
F0.00017853954650955185
s(S'back'
p2247
S'playing'
p2248
S'[[det]]'
p2249
tp2250
F0.00017853954650955185
s(S'played'
p2251
S'[[num]]'
p2252
S'game'
p2253
tp2254
F0.0017853954650955187
s(S'also'
p2255
S'appointed'
p2256
S'to'
p2257
tp2258
F0.00017853954650955185
s(S'football'
p2259
S'player'
p2260
S'who'
p2261
tp2262
F0.006248884127834315
s(S'college'
p2263
g2030
g1585
tp2264
F0.00017853954650955185
s(g1334
g1335
S'playing'
p2265
tp2266
F0.0017853954650955187
s(S'[[adj]]'
p2267
S'football'
p2268
S'head'
p2269
tp2270
F0.00017853954650955185
s(S'started'
p2271
S'[[prp]]'
p2272
S'[[adj]]'
p2273
tp2274
F0.0010712372790573112
s(S'later'
p2275
S'served'
p2276
S'at'
p2277
tp2278
F0.00017853954650955185
s(S'then'
p2279
S'signed'
p2280
S'in'
p2281
tp2282
F0.00017853954650955185
s(S'[[num]]'
p2283
S'season'
p2284
g169
tp2285
F0.00017853954650955185
s(S'[[adj]]'
p2286
S'list'
p2287
S'[[con]]'
p2288
tp2289
F0.00017853954650955185
s(S'was'
p2290
S'selected'
p2291
S'from'
p2292
tp2293
F0.00017853954650955185
s(S'again'
p2294
S'joined'
p2295
S'[[det]]'
p2296
tp2297
F0.00017853954650955185
s(S'[[adj]]'
p2298
S'agent'
p2299
S'[[con]]'
p2300
tp2301
F0.0003570790930191037
s(S'[[adj]]'
p2302
S'captain'
p2303
S'in'
p2304
tp2305
F0.00017853954650955185
s(g337
g338
S'[[con]]'
p2306
tp2307
F0.00017853954650955185
s(S'[[con]]'
p2308
S'served'
p2309
S'with'
p2310
tp2311
F0.00017853954650955185
s(g402
g2193
S'son'
p2312
tp2313
F0.00017853954650955185
s(S'[[det]]'
p2314
S'[[adj]]'
p2315
S'game'
p2316
tp2317
F0.0003570790930191037
s(g142
g143
S'in'
p2318
tp2319
F0.0010712372790573112
s(S'was'
p2320
S'moved'
p2321
S'after'
p2322
tp2323
F0.00017853954650955185
s(S'football'
p2324
S'after'
p2325
S'graduating'
p2326
tp2327
F0.00017853954650955185
s(S'[[mod]]'
p2328
S'remain'
p2329
S'at'
p2330
tp2331
F0.00017853954650955185
s(g568
g569
S'who'
p2332
tp2333
F0.0032137118371719335
s(g636
g637
S'for'
p2334
tp2335
F0.00017853954650955185
s(S'board'
p2336
S'member'
p2337
S'[[con]]'
p2338
tp2339
F0.0003570790930191037
s(S'[[det]]'
p2340
S'head'
p2341
S'football'
p2342
tp2343
F0.0033922513836814857
s(S'is'
p2344
g1448
g1449
tp2345
F0.00017853954650955185
s(S'off'
p2346
S'waivers'
p2347
S'by'
p2348
tp2349
F0.00017853954650955185
s(g150
g151
g598
tp2350
F0.0010712372790573112
s(S'also'
p2351
S'coached'
p2352
S'for'
p2353
tp2354
F0.00017853954650955185
s(S'has'
p2355
S'coached'
p2356
S'at'
p2357
tp2358
F0.00017853954650955185
s(S'previously'
p2359
S'played'
p2360
S'from'
p2361
tp2362
F0.00017853954650955185
s(g2261
S'played'
p2363
S'college'
p2364
tp2365
F0.00017853954650955185
s(S'[[adj]]'
p2366
S'played'
p2367
S'professionally'
p2368
tp2369
F0.0003570790930191037
s(S'[[adj]]'
p2370
S'team'
p2371
S'of'
p2372
tp2373
F0.0005356186395286556
s(S'in'
p2374
S'[[det]]'
p2375
S'match'
p2376
tp2377
F0.00017853954650955185
s(S'as'
p2378
S'[[adj]]'
p2379
S'forward'
p2380
tp2381
F0.00017853954650955185
s(S'[[adj]]'
p2382
S'match'
p2383
S'for'
p2384
tp2385
F0.0010712372790573112
s(S'prevent'
p2386
S'[[det]]'
p2387
S'issue'
p2388
tp2389
F0.00017853954650955185
s(S'drafted'
p2390
g1886
g1490
tp2391
F0.00017853954650955185
s(S'been'
p2392
S'released'
p2393
S'by'
p2394
tp2395
F0.00017853954650955185
s(S'played'
p2396
S'[[prp]]'
p2397
S'college'
p2398
tp2399
F0.0005356186395286556
s(S'coach'
p2400
S'located'
p2401
S'in'
p2402
tp2403
F0.00017853954650955185
s(S'was'
p2404
S'signed'
p2405
S'under'
p2406
tp2407
F0.00017853954650955185
s(S'[[adj]]'
p2408
S'season'
p2409
S'with'
p2410
tp2411
F0.0007141581860382074
s(S'[[num]]'
p2412
S'debut'
p2413
S'for'
p2414
tp2415
F0.00017853954650955185
s(S'until'
p2416
S'retired'
p2417
S'from'
p2418
tp2419
F0.00017853954650955185
s(S'football'
p2420
S'coach'
p2421
S'with'
p2422
tp2423
F0.00017853954650955185
s(S'later'
p2424
S'signed'
p2425
S'with'
p2426
tp2427
F0.00017853954650955185
s(S'on'
p2428
S'[[det]]'
p2429
S'team'
p2430
tp2431
F0.0003570790930191037
s(S'was'
p2432
S'released'
p2433
S'from'
p2434
tp2435
F0.00017853954650955185
s(g169
S'released'
p2436
S'by'
p2437
tp2438
F0.00017853954650955185
s(S'[[det]]'
p2439
S'member'
p2440
S'until'
p2441
tp2442
F0.00017853954650955185
s(S'is'
p2443
S'[[adj]]'
p2444
S'rules'
p2445
tp2446
F0.0003570790930191037
s(S'been'
p2447
S'named'
p2448
S'by'
p2449
tp2450
F0.00017853954650955185
s(S'[[det]]'
p2451
S'contract'
p2452
S'[[con]]'
p2453
tp2454
F0.00017853954650955185
s(S'played'
p2455
S'[[num]]'
p2456
S'more'
p2457
tp2458
F0.0010712372790573112
s(S'is'
p2459
S'involved'
p2460
S'in'
p2461
tp2462
F0.00017853954650955185
s(S'mainly'
p2463
S'played'
p2464
S'for'
p2465
tp2466
F0.00017853954650955185
s(S'[[det]]'
p2467
S'career'
p2468
S'[[adj]]'
p2469
tp2470
F0.00017853954650955185
s(S'[[con]]'
p2471
S'served'
p2472
S'at'
p2473
tp2474
F0.00017853954650955185
s(g1701
g1702
S'[[det]]'
p2475
tp2476
F0.00017853954650955185
s(S'also'
p2477
S'named'
p2478
S'for'
p2479
tp2480
F0.00017853954650955185
s(S'[[adj]]'
p2481
S'games'
p2482
S'against'
p2483
tp2484
F0.0003570790930191037
s(g1307
g1308
S'for'
p2485
tp2486
F0.0010712372790573112
s(S'is'
p2487
S'member'
p2488
S'[[con]]'
p2489
tp2490
F0.00017853954650955185
s(S'began'
p2491
g1838
g1839
tp2492
F0.0007141581860382074
s(S'was'
p2493
S'taken'
p2494
S'[[adj]]'
p2495
tp2496
F0.00017853954650955185
s(S'[[det]]'
p2497
S'player'
p2498
S'in'
p2499
tp2500
F0.00017853954650955185
s(S'[[num]]'
p2501
S'linebacker'
p2502
S'for'
p2503
tp2504
F0.00017853954650955185
s(S'[[det]]'
p2505
S'star'
p2506
S'[[con]]'
p2507
tp2508
F0.00017853954650955185
s(S'also'
p2509
S'played'
p2510
S'with'
p2511
tp2512
F0.0007141581860382074
s(S'[[num]]'
p2513
S'[[adj]]'
p2514
S'head'
p2515
tp2516
F0.00017853954650955185
s(S'became'
p2517
S'head'
p2518
S'football'
p2519
tp2520
F0.00017853954650955185
s(S'then'
p2521
S'joined'
p2522
S'[[adj]]'
p2523
tp2524
F0.00017853954650955185
s(S'[[adj]]'
p2525
S'quarterback'
p2526
S'for'
p2527
tp2528
F0.00017853954650955185
s(S'more'
p2529
S'games'
p2530
S'for'
p2531
tp2532
F0.00017853954650955185
s(S'to'
p2533
S'join'
p2534
S'at'
p2535
tp2536
F0.00017853954650955185
s(S'league'
p2537
S'debut'
p2538
S'with'
p2539
tp2540
F0.0003570790930191037
s(S'[[adj]]'
p2541
S'team'
p2542
S'[[num]]'
p2543
tp2544
F0.00017853954650955185
s(S'formerly'
p2545
S'played'
p2546
S'for'
p2547
tp2548
F0.0003570790930191037
s(S'also'
p2549
S'earned'
p2550
S'from'
p2551
tp2552
F0.00017853954650955185
s(S'only'
p2553
S'played'
p2554
S'against'
p2555
tp2556
F0.00017853954650955185
s(S'where'
p2557
S'played'
p2558
S'against'
p2559
tp2560
F0.00017853954650955185
s(S'made'
p2561
S'debut'
p2562
S'against'
p2563
tp2564
F0.00017853954650955185
s(S'was'
p2565
S'playing'
p2566
S'for'
p2567
tp2568
F0.00017853954650955185
s(S'in'
p2569
S'[[prp]]'
p2570
S'career'
p2571
tp2572
F0.0003570790930191037
s(S'ever'
p2573
S'play'
p2574
S'for'
p2575
tp2576
F0.00017853954650955185
s(S'later'
p2577
S'earned'
p2578
S'in'
p2579
tp2580
F0.00017853954650955185
s(S'football'
p2581
S'player'
p2582
S'[[con]]'
p2583
tp2584
F0.0007141581860382074
s(S'while'
p2585
S'playing'
p2586
S'for'
p2587
tp2588
F0.00017853954650955185
s(S'was'
p2589
S'selected'
p2590
S'by'
p2591
tp2592
F0.0010712372790573112
s(S'[[adj]]'
p2593
S'player'
p2594
S'to'
p2595
tp2596
F0.00017853954650955185
s(S'was'
p2597
S'involved'
p2598
S'in'
p2599
tp2600
F0.00017853954650955185
s(S'first'
p2601
S'played'
p2602
S'in'
p2603
tp2604
F0.00017853954650955185
s(S'playing'
p2605
S'for'
p2606
S'club'
p2607
tp2608
F0.00017853954650955185
s(S'born'
p2609
S'in'
p2610
S'[[adj]]'
p2611
tp2612
F0.00017853954650955185
s(g2268
g2269
S'coach'
p2613
tp2614
F0.00017853954650955185
s(S'now'
p2615
S'signed'
p2616
S'with'
p2617
tp2618
F0.00017853954650955185
s(S'football'
p2619
g2400
g2401
tp2620
F0.00017853954650955185
s(S'have'
p2621
S'won'
p2622
S'with'
p2623
tp2624
F0.00017853954650955185
s(S'drafted'
p2625
S'[[con]]'
p2626
S'played'
p2627
tp2628
F0.0005356186395286556
s(S'being'
p2629
S'released'
p2630
S'by'
p2631
tp2632
F0.00017853954650955185
s(S'is'
p2633
S'[[det]]'
p2634
S'football'
p2635
tp2636
F0.0017853954650955187
s(S'[[det]]'
p2637
S'interchange'
p2638
S'bench'
p2639
tp2640
F0.00017853954650955185
s(S'appearances'
p2641
g1696
g1697
tp2642
F0.0005356186395286556
s(S'again'
p2643
S'served'
p2644
S'with'
p2645
tp2646
F0.00017853954650955185
s(S'in'
p2647
S'[[det]]'
p2648
S'games'
p2649
tp2650
F0.00017853954650955185
s(S'then'
p2651
S'coached'
p2652
S'in'
p2653
tp2654
F0.00017853954650955185
s(S'played'
p2655
S'[[num]]'
p2656
S'[[det]]'
p2657
tp2658
F0.00017853954650955185
s(S'[[num]]'
p2659
S'goals'
p2660
S'[[num]]'
p2661
tp2662
F0.0003570790930191037
s(S'running'
p2663
g1357
g1358
tp2664
F0.00017853954650955185
s(S'who'
p2665
S'attended'
p2666
S'[[det]]'
p2667
tp2668
F0.00017853954650955185
s(S'[[num]]'
p2669
S'leading'
p2670
S'[[det]]'
p2671
tp2672
F0.00017853954650955185
s(S'then'
p2673
S'returned'
p2674
S'at'
p2675
tp2676
F0.00017853954650955185
s(S'[[prp]]'
p2677
S'career'
p2678
S'also'
p2679
tp2680
F0.00017853954650955185
s(g2193
g2312
S'of'
p2681
tp2682
F0.00017853954650955185
s(S'games'
p2683
g711
g712
tp2684
F0.0003570790930191037
s(S'has'
p2685
S'coached'
p2686
S'in'
p2687
tp2688
F0.00017853954650955185
s(S'play'
p2689
S'[[num]]'
p2690
S'games'
p2691
tp2692
F0.0016068559185859668
s(S'[[con]]'
p2693
S'played'
p2694
S'against'
p2695
tp2696
F0.0003570790930191037
s(S'was'
p2697
S'transferred'
p2698
S'to'
p2699
tp2700
F0.00017853954650955185
s(g468
g469
S'contract'
p2701
tp2702
F0.00017853954650955185
s(S'[[adj]]'
p2703
S'end'
p2704
S'for'
p2705
tp2706
F0.0005356186395286556
s(S'[[adj]]'
p2707
S'football'
p2708
S'for'
p2709
tp2710
F0.001249776825566863
s(S'has'
p2711
S'spent'
p2712
S'most'
p2713
tp2714
F0.00017853954650955185
s(S'born'
p2715
S'in'
p2716
S'[[num]]'
p2717
tp2718
F0.00017853954650955185
s(g102
g103
S'head'
p2719
tp2720
F0.0003570790930191037
s(S'including'
p2721
S'[[det]]'
p2722
S'winning'
p2723
tp2724
F0.00017853954650955185
s(g271
g1134
S'as'
p2725
tp2726
F0.003035172290662382
s(S'later'
p2727
S'transferred'
p2728
S'to'
p2729
tp2730
F0.00017853954650955185
s(S'played'
p2731
S'out'
p2732
S'[[prp]]'
p2733
tp2734
F0.0005356186395286556
s(S'also'
p2735
S'played'
p2736
S'[[prp]]'
p2737
tp2738
F0.00017853954650955185
s(S'also'
p2739
S'appointed'
p2740
S'of'
p2741
tp2742
F0.00017853954650955185
s(S'once'
p2743
S'played'
p2744
S'football'
p2745
tp2746
F0.00017853954650955185
s(S'also'
p2747
S'named'
p2748
S'of'
p2749
tp2750
F0.00017853954650955185
s(S'which'
p2751
S'returned'
p2752
S'to'
p2753
tp2754
F0.00017853954650955185
s(S'is'
p2755
S'[[adj]]'
p2756
S'player'
p2757
tp2758
F0.00017853954650955185
s(S'soon'
p2759
S'transferred'
p2760
S'to'
p2761
tp2762
F0.00017853954650955185
s(g1027
g1028
S'seasons'
p2763
tp2764
F0.00017853954650955185
s(g2457
S'seasons'
p2765
S'in'
p2766
tp2767
F0.0003570790930191037
s(S'only'
p2768
S'[[num]]'
p2769
S'game'
p2770
tp2771
F0.00017853954650955185
s(S'formerly'
p2772
S'played'
p2773
S'in'
p2774
tp2775
F0.00017853954650955185
s(S'[[prp]]'
p2776
S'game'
p2777
S'for'
p2778
tp2779
F0.00017853954650955185
s(g752
g753
g1522
tp2780
F0.00017853954650955185
s(g492
g493
S'rules'
p2781
tp2782
F0.0003570790930191037
s(S'was'
p2783
S'selected'
p2784
S'[[det]]'
p2785
tp2786
F0.00017853954650955185
s(S'in'
p2787
S'[[num]]'
p2788
S'games'
p2789
tp2790
F0.0014283163720764148
s(S'was'
p2791
S'[[adj]]'
p2792
S'head'
p2793
tp2794
F0.00017853954650955185
s(S'[[det]]'
p2795
S'player'
p2796
S'with'
p2797
tp2798
F0.00017853954650955185
s(S'first'
p2799
S'served'
p2800
S'in'
p2801
tp2802
F0.00017853954650955185
s(S'was'
p2803
S'appointed'
p2804
S'coach'
p2805
tp2806
F0.0007141581860382074
s(S'[[adj]]'
p2807
g2420
g2421
tp2808
F0.0005356186395286556
s(S'[[adj]]'
p2809
S'year'
p2810
S'for'
p2811
tp2812
F0.00017853954650955185
s(S'[[prp]]'
p2813
S'career'
p2814
S'[[adj]]'
p2815
tp2816
F0.00017853954650955185
s(S'played'
p2817
S'on'
p2818
S'team'
p2819
tp2820
F0.00017853954650955185
s(S'[[det]]'
p2821
S'football'
p2822
S'linebacker'
p2823
tp2824
F0.00017853954650955185
s(S'[[con]]'
p2825
S'won'
p2826
S'for'
p2827
tp2828
F0.00017853954650955185
s(g516
g517
S'as'
p2829
tp2830
F0.00017853954650955185
s(S'then'
p2831
S'served'
p2832
S'to'
p2833
tp2834
F0.00017853954650955185
s(S'[[adj]]'
p2835
S'games'
p2836
S'[[num]]'
p2837
tp2838
F0.00017853954650955185
s(S'[[num]]'
p2839
S'match'
p2840
S'in'
p2841
tp2842
F0.00017853954650955185
s(g1590
g1591
S'from'
p2843
tp2844
F0.00017853954650955185
s(S'member'
p2845
S'[[det]]'
p2846
S'board'
p2847
tp2848
F0.0007141581860382074
s(S'player'
p2849
S'[[adj]]'
p2850
S'pick'
p2851
tp2852
F0.00017853954650955185
s(g390
g169
S'basketball'
p2853
tp2854
F0.0016068559185859668
s(S'[[det]]'
p2855
S'[[adj]]'
p2856
S'football'
p2857
tp2858
F0.00017853954650955185
s(S'then'
p2859
S'joined'
p2860
S'[[num]]'
p2861
tp2862
F0.00017853954650955185
s(S'played'
p2863
S'football'
p2864
S'before'
p2865
tp2866
F0.00017853954650955185
s(S'also'
p2867
S'taken'
p2868
S'part'
p2869
tp2870
F0.00017853954650955185
s(S'[[det]]'
p2871
S'[[adj]]'
p2872
S'deal'
p2873
tp2874
F0.001249776825566863
s(S'[[adj]]'
p2875
S'linebacker'
p2876
S'in'
p2877
tp2878
F0.00017853954650955185
s(S'also'
p2879
S'appointed'
p2880
S'in'
p2881
tp2882
F0.00017853954650955185
s(S'[[adj]]'
p2883
S'team'
p2884
S'[[con]]'
p2885
tp2886
F0.00017853954650955185
s(g1736
g1737
S'at'
p2887
tp2888
F0.0003570790930191037
s(S'[[det]]'
p2889
S'[[num]]'
p2890
S'season'
p2891
tp2892
F0.0016068559185859668
s(S'[[det]]'
p2893
S'year'
p2894
S'with'
p2895
tp2896
F0.00017853954650955185
s(S'while'
p2897
S'played'
p2898
S'for'
p2899
tp2900
F0.00017853954650955185
s(S'college'
p2901
S'basketball'
p2902
g1826
tp2903
F0.00017853954650955185
s(g1820
g1821
S'round'
p2904
tp2905
F0.00017853954650955185
s(S'[[num]]'
p2906
S'seasons'
p2907
S'of'
p2908
tp2909
F0.00017853954650955185
s(S'[[det]]'
p2910
S'member'
p2911
S'which'
p2912
tp2913
F0.00017853954650955185
s(S'[[det]]'
p2914
S'quarterback'
p2915
S'for'
p2916
tp2917
F0.00017853954650955185
s(S'being'
p2918
S'appointed'
p2919
S'of'
p2920
tp2921
F0.00017853954650955185
s(S'was'
p2922
S'served'
p2923
S'as'
p2924
tp2925
F0.00017853954650955185
s(S'football'
p2926
g1460
g1461
tp2927
F0.0003570790930191037
s(S'was'
p2928
S'hired'
p2929
S'at'
p2930
tp2931
F0.00017853954650955185
s(S'[[adj]]'
p2932
S'year'
p2933
S'with'
p2934
tp2935
F0.00017853954650955185
s(S'grew'
p2936
S'up'
p2937
S'[[con]]'
p2938
tp2939
F0.00017853954650955185
s(S'[[adj]]'
p2940
S'deal'
p2941
S'[[con]]'
p2942
tp2943
F0.00017853954650955185
s(S'men'
p2944
g169
S'head'
p2945
tp2946
F0.00017853954650955185
s(S'again'
p2947
S'appointed'
p2948
S'to'
p2949
tp2950
F0.00017853954650955185
s(g804
g805
S'in'
p2951
tp2952
F0.00017853954650955185
s(S'was'
p2953
S'involved'
p2954
S'on'
p2955
tp2956
F0.00017853954650955185
s(S'have'
p2957
S'played'
p2958
S'for'
p2959
tp2960
F0.00017853954650955185
s(g2126
g2127
S'player'
p2961
tp2962
F0.0008926977325477593
s(g195
g380
g381
tp2963
F0.00017853954650955185
s(S'also'
p2964
S'picked'
p2965
S'by'
p2966
tp2967
F0.00017853954650955185
s(S'best'
p2968
S'season'
p2969
S'in'
p2970
tp2971
F0.00017853954650955185
s(S'before'
p2972
S'moved'
p2973
S'to'
p2974
tp2975
F0.00017853954650955185
s(S'[[num]]'
p2976
S'[[adj]]'
p2977
S'years'
p2978
tp2979
F0.00017853954650955185
s(S'football'
p2980
S'coach'
p2981
S'in'
p2982
tp2983
F0.00017853954650955185
s(S'has'
p2984
S'played'
p2985
S'to'
p2986
tp2987
F0.00017853954650955185
s(S'born'
p2988
S'c'
p2989
S'[[num]]'
p2990
tp2991
F0.00017853954650955185
s(S'later'
p2992
S'played'
p2993
S'[[con]]'
p2994
tp2995
F0.00017853954650955185
s(S'also'
p2996
S'served'
p2997
S'at'
p2998
tp2999
F0.00017853954650955185
s(S'[[con]]'
p3000
S'led'
p3001
S'to'
p3002
tp3003
F0.00017853954650955185
s(S'was'
p3004
S'signed'
p3005
S'for'
p3006
tp3007
F0.00017853954650955185
s(S'ever'
p3008
S'play'
p3009
S'in'
p3010
tp3011
F0.00017853954650955185
s(S'has'
p3012
S'attended'
p3013
S'[[con]]'
p3014
tp3015
F0.00017853954650955185
s(S'was'
p3016
S'coach'
p3017
S'for'
p3018
tp3019
F0.00017853954650955185
s(S'then'
p3020
S'signed'
p3021
S'[[det]]'
p3022
tp3023
F0.0003570790930191037
s(S'[[det]]'
p3024
S'member'
p3025
S'of'
p3026
tp3027
F0.002321014104624174
s(S'formerly'
p3028
S'served'
p3029
S'at'
p3030
tp3031
F0.00017853954650955185
s(S'also'
p3032
S'selected'
p3033
S'[[det]]'
p3034
tp3035
F0.00017853954650955185
s(S'[[prp]]'
p3036
S'college'
p3037
S'basketball'
p3038
tp3039
F0.00017853954650955185
s(S'born'
p3040
S'played'
p3041
S'for'
p3042
tp3043
F0.00017853954650955185
s(S'who'
p3044
S'plays'
p3045
S'in'
p3046
tp3047
F0.0003570790930191037
s(S'had'
p3048
S'served'
p3049
S'at'
p3050
tp3051
F0.00017853954650955185
s(S'[[num]]'
p3052
S'game'
p3053
S'[[det]]'
p3054
tp3055
F0.00017853954650955185
s(g1134
g2725
S'[[det]]'
p3056
tp3057
F0.002321014104624174
s(S'[[adj]]'
p3058
S'head'
p3059
S'of'
p3060
tp3061
F0.00017853954650955185
s(S'formerly'
p3062
S'played'
p3063
S'as'
p3064
tp3065
F0.00017853954650955185
s(S'college'
p3066
g455
g456
tp3067
F0.0005356186395286556
s(S'later'
p3068
S'played'
p3069
S'with'
p3070
tp3071
F0.00017853954650955185
s(S'soon'
p3072
S'moved'
p3073
S'on'
p3074
tp3075
F0.00017853954650955185
s(S'[[num]]'
p3076
g1026
g1027
tp3077
F0.00017853954650955185
s(S'was'
p3078
S'named'
p3079
S'for'
p3080
tp3081
F0.00017853954650955185
s(S'played'
p3082
g1735
g1736
tp3083
F0.0007141581860382074
s(g456
g457
S'tackle'
p3084
tp3085
F0.00017853954650955185
s(S'goalkeeper'
p3086
S'currently'
p3087
S'playing'
p3088
tp3089
F0.00017853954650955185
s(S'most'
p3090
S'[[prp]]'
p3091
S'career'
p3092
tp3093
F0.00017853954650955185
s(S'has'
p3094
S'taken'
p3095
S'over'
p3096
tp3097
F0.00017853954650955185
s(S'[[adj]]'
p3098
g2161
g316
tp3099
F0.00017853954650955185
s(S'[[con]]'
p3100
S'signed'
p3101
S'for'
p3102
tp3103
F0.00017853954650955185
s(S'[[num]]'
p3104
S'led'
p3105
S'[[det]]'
p3106
tp3107
F0.00017853954650955185
s(S'[[mod]]'
p3108
S'join'
p3109
S'[[det]]'
p3110
tp3111
F0.00017853954650955185
s(S'[[adj]]'
p3112
S'head'
p3113
g2619
tp3114
F0.0016068559185859668
s(S'[[det]]'
p3115
S'coach'
p3116
S'in'
p3117
tp3118
F0.00017853954650955185
s(S'[[pro]]'
p3119
S'joined'
p3120
S'[[det]]'
p3121
tp3122
F0.00017853954650955185
s(g925
g926
S'of'
p3123
tp3124
F0.0007141581860382074
s(S'date'
p3125
S'was'
p3126
S'[[adj]]'
p3127
tp3128
F0.0003570790930191037
s(S'taken'
p3129
g205
g206
tp3130
F0.0003570790930191037
s(S'appointed'
p3131
S'as'
p3132
S'[[adj]]'
p3133
tp3134
F0.00017853954650955185
s(S'[[num]]'
p3135
S'[[adj]]'
p3136
S'end'
p3137
tp3138
F0.0003570790930191037
s(S'when'
p3139
S'won'
p3140
S'in'
p3141
tp3142
F0.00017853954650955185
s(S'[[adj]]'
p3143
S'men'
p3144
g169
tp3145
F0.0005356186395286556
s(S'of'
p3146
S'[[adj]]'
p3147
S'board'
p3148
tp3149
F0.00017853954650955185
s(S'also'
p3150
S'spent'
p3151
S'[[num]]'
p3152
tp3153
F0.0010712372790573112
s(S'play'
p3154
S'in'
p3155
S'games'
p3156
tp3157
F0.00017853954650955185
s(S'[[det]]'
p3158
S'matter'
p3159
S'to'
p3160
tp3161
F0.00017853954650955185
s(S'member'
p3162
S'of'
p3163
S'[[num]]'
p3164
tp3165
F0.00017853954650955185
s(S'member'
p3166
S'[[con]]'
p3167
S'[[det]]'
p3168
tp3169
F0.00017853954650955185
s(S'born'
p3170
S'[[num]]'
p3171
S'[[det]]'
p3172
tp3173
F0.011426530976611319
s(S'also'
p3174
S'named'
p3175
S'in'
p3176
tp3177
F0.00017853954650955185
s(S'played'
p3178
S'football'
p3179
S'as'
p3180
tp3181
F0.00017853954650955185
s(S'football'
p3182
S'currently'
p3183
S'plays'
p3184
tp3185
F0.00017853954650955185
s(S'as'
p3186
S'[[det]]'
p3187
S'winger'
p3188
tp3189
F0.00017853954650955185
s(S'then'
p3190
S'hired'
p3191
S'as'
p3192
tp3193
F0.00017853954650955185
s(S'later'
p3194
S'represented'
p3195
S'in'
p3196
tp3197
F0.00017853954650955185
s(g2635
g1907
g1908
tp3198
F0.0010712372790573112
s(S'also'
p3199
S'attended'
p3200
S'from'
p3201
tp3202
F0.00017853954650955185
s(S'won'
p3203
S'award'
p3204
S'from'
p3205
tp3206
F0.00017853954650955185
s(S'was'
p3207
S'joined'
p3208
S'on'
p3209
tp3210
F0.00017853954650955185
s(S'for'
p3211
S'[[det]]'
p3212
S'played'
p3213
tp3214
F0.00017853954650955185
s(S'also'
p3215
S'selected'
p3216
S'for'
p3217
tp3218
F0.00017853954650955185
s(S'more'
p3219
S'season'
p3220
S'with'
p3221
tp3222
F0.00017853954650955185
s(S'was'
p3223
S'chosen'
p3224
S'by'
p3225
tp3226
F0.00017853954650955185
s(S'also'
p3227
S'came'
p3228
S'to'
p3229
tp3230
F0.00017853954650955185
s(S'[[num]]'
p3231
g2529
g2530
tp3232
F0.00017853954650955185
s(S'been'
p3233
S'transferred'
p3234
S'to'
p3235
tp3236
F0.00017853954650955185
s(S'[[det]]'
p3237
S'footballer'
p3238
S'[[con]]'
p3239
tp3240
F0.00017853954650955185
s(S'began'
p3241
S'to'
p3242
S'playing'
p3243
tp3244
F0.00017853954650955185
s(S'[[det]]'
p3245
S'member'
p3246
S'[[con]]'
p3247
tp3248
F0.0003570790930191037
s(S'who'
p3249
S'played'
p3250
S'center'
p3251
tp3252
F0.00017853954650955185
s(S'to'
p3253
S'sign'
p3254
S'[[det]]'
p3255
tp3256
F0.00017853954650955185
s(S'played'
p3257
S'[[adj]]'
p3258
S'school'
p3259
tp3260
F0.0007141581860382074
s(S'being'
p3261
S'appointed'
p3262
S'at'
p3263
tp3264
F0.00017853954650955185
s(S'has'
p3265
S'returned'
p3266
S'to'
p3267
tp3268
F0.00017853954650955185
s(S'[[det]]'
p3269
S'tenth'
p3270
S'head'
p3271
tp3272
F0.00017853954650955185
s(S'originally'
p3273
S'drafted'
p3274
S'from'
p3275
tp3276
F0.00017853954650955185
s(S'was'
p3277
S'hired'
p3278
S'[[det]]'
p3279
tp3280
F0.00017853954650955185
s(S'[[prp]]'
p3281
S'position'
p3282
S'as'
p3283
tp3284
F0.00017853954650955185
s(S'never'
p3285
S'played'
p3286
S'[[det]]'
p3287
tp3288
F0.0007141581860382074
s(S'[[adj]]'
p3289
g559
g560
tp3290
F0.0005356186395286556
s(S'has'
p3291
S'led'
p3292
S'[[det]]'
p3293
tp3294
F0.00017853954650955185
s(S'in'
p3295
S'[[adj]]'
p3296
S'football'
p3297
tp3298
F0.00017853954650955185
s(S'played'
p3299
S'[[num]]'
p3300
S'seasons'
p3301
tp3302
F0.004999107302267452
s(S'currently'
p3303
S'manager'
p3304
S'of'
p3305
tp3306
F0.00017853954650955185
s(S'to'
p3307
S'remain'
p3308
S'as'
p3309
tp3310
F0.00017853954650955185
s(S'[[det]]'
p3311
S'coach'
p3312
S'for'
p3313
tp3314
F0.00017853954650955185
s(g1948
g1949
S'for'
p3315
tp3316
F0.0007141581860382074
s(S'was'
p3317
S'appointed'
p3318
S'when'
p3319
tp3320
F0.00017853954650955185
s(S'[[adj]]'
p3321
S'team'
p3322
S'with'
p3323
tp3324
F0.00017853954650955185
s(S'played'
p3325
g3295
g3296
tp3326
F0.0010712372790573112
s(g3242
g3243
S'against'
p3327
tp3328
F0.00017853954650955185
s(S'then'
p3329
S'earned'
p3330
S'[[det]]'
p3331
tp3332
F0.00017853954650955185
s(S'[[con]]'
p3333
S'leading'
p3334
S'[[det]]'
p3335
tp3336
F0.00017853954650955185
s(S'plays'
p3337
S'for'
p3338
S'[[det]]'
p3339
tp3340
F0.00017853954650955185
s(S'then'
p3341
S'joined'
p3342
S'then'
p3343
tp3344
F0.00017853954650955185
s(S'also'
p3345
S'coached'
p3346
S'with'
p3347
tp3348
F0.00017853954650955185
s(S'been'
p3349
S'involved'
p3350
S'as'
p3351
tp3352
F0.00017853954650955185
s(S'was'
p3353
S'signed'
p3354
S'with'
p3355
tp3356
F0.00017853954650955185
s(S'champion'
p3357
S'rules'
p3358
S'footballer'
p3359
tp3360
F0.00017853954650955185
s(S'[[num]]'
p3361
S'games'
p3362
S'with'
p3363
tp3364
F0.0021424745581146223
s(S'where'
p3365
S'signed'
p3366
S'for'
p3367
tp3368
F0.00017853954650955185
s(S'appointed'
p3369
S'coach'
p3370
S'to'
p3371
tp3372
F0.00017853954650955185
s(S'has'
p3373
g1072
g1073
tp3374
F0.00017853954650955185
s(S'also'
p3375
S'played'
p3376
S'once'
p3377
tp3378
F0.00017853954650955185
s(S'as'
p3379
S'moved'
p3380
S'to'
p3381
tp3382
F0.00017853954650955185
s(S'first'
p3383
S'served'
p3384
S'with'
p3385
tp3386
F0.00017853954650955185
s(S'were'
p3387
S'named'
p3388
S'as'
p3389
tp3390
F0.00017853954650955185
s(S'been'
p3391
S'appointed'
p3392
S'[[con]]'
p3393
tp3394
F0.00017853954650955185
s(S'drafted'
p3395
S'[[con]]'
p3396
S'also'
p3397
tp3398
F0.0003570790930191037
s(S'[[adj]]'
p3399
S'signed'
p3400
S'by'
p3401
tp3402
F0.00017853954650955185
s(S'is'
p3403
S'head'
p3404
S'[[det]]'
p3405
tp3406
F0.00017853954650955185
s(S'later'
p3407
S'led'
p3408
S'[[det]]'
p3409
tp3410
F0.00017853954650955185
s(S'[[prp]]'
p3411
S'debut'
p3412
S'[[num]]'
p3413
tp3414
F0.00017853954650955185
s(g2846
g2847
S'of'
p3415
tp3416
F0.0007141581860382074
s(S'being'
p3417
S'released'
p3418
S'from'
p3419
tp3420
F0.00017853954650955185
s(S'[[con]]'
p3421
S'was'
p3422
S'selected'
p3423
tp3424
F0.0007141581860382074
s(S'head'
p3425
S'college'
p3426
S'football'
p3427
tp3428
F0.0008926977325477593
s(S'been'
p3429
S'recruited'
p3430
S'by'
p3431
tp3432
F0.00017853954650955185
s(S'played'
p3433
S'in'
p3434
S'match'
p3435
tp3436
F0.0003570790930191037
s(S'[[num]]'
p3437
S'pick'
p3438
S'by'
p3439
tp3440
F0.00017853954650955185
s(S'then'
p3441
S'moved'
p3442
S'up'
p3443
tp3444
F0.00017853954650955185
s(S'[[num]]'
p3445
S'more'
p3446
S'years'
p3447
tp3448
F0.00017853954650955185
s(S'[[con]]'
p3449
S'member'
p3450
S'of'
p3451
tp3452
F0.00017853954650955185
s(S'[[adj]]'
p3453
S'member'
p3454
S'for'
p3455
tp3456
F0.00017853954650955185
s(S'[[num]]'
p3457
S'died'
p3458
S'[[num]]'
p3459
tp3460
F0.0007141581860382074
s(S'then'
p3461
S'appointed'
p3462
S'[[adj]]'
p3463
tp3464
F0.00017853954650955185
s(S'was'
p3465
S'transferred'
p3466
S'as'
p3467
tp3468
F0.00017853954650955185
s(S'has'
p3469
S'served'
p3470
S'for'
p3471
tp3472
F0.00017853954650955185
s(g187
g2046
S'who'
p3473
tp3474
F0.0019639350116050706
s(S'football'
p3475
g65
g66
tp3476
F0.00017853954650955185
s(S'born'
p3477
g424
g425
tp3478
F0.00856989823245849
s(S'was'
p3479
S'appointed'
p3480
S'[[con]]'
p3481
tp3482
F0.00017853954650955185
s(S'[[det]]'
p3483
S'served'
p3484
S'in'
p3485
tp3486
F0.00017853954650955185
s(S'was'
p3487
g2609
g2610
tp3488
F0.00017853954650955185
s(S'been'
p3489
S'appointed'
p3490
S'of'
p3491
tp3492
F0.00017853954650955185
s(g3434
g3435
S'for'
p3493
tp3494
F0.00017853954650955185
s(S'won'
p3495
S'[[det]]'
p3496
S'[[con]]'
p3497
tp3498
F0.00017853954650955185
s(S'[[prp]]'
p3499
S'career'
p3500
S'where'
p3501
tp3502
F0.00017853954650955185
s(g3297
S'games'
p3503
S'with'
p3504
tp3505
F0.00017853954650955185
s(S'then'
p3506
S'appointed'
p3507
S'[[num]]'
p3508
tp3509
F0.00017853954650955185
s(S'also'
p3510
S'played'
p3511
S'against'
p3512
tp3513
F0.00017853954650955185
s(S'was'
p3514
S'member'
p3515
S'[[con]]'
p3516
tp3517
F0.00017853954650955185
s(S'was'
p3518
S'named'
p3519
S'in'
p3520
tp3521
F0.00017853954650955185
s(S'spent'
p3522
S'most'
p3523
S'[[det]]'
p3524
tp3525
F0.00017853954650955185
s(S'[[adj]]'
p3526
S'match'
p3527
S'in'
p3528
tp3529
F0.0003570790930191037
s(S'previously'
p3530
S'played'
p3531
S'as'
p3532
tp3533
F0.00017853954650955185
s(S'which'
p3534
S'played'
p3535
S'[[con]]'
p3536
tp3537
F0.00017853954650955185
s(S'played'
p3538
g1102
g1103
tp3539
F0.00017853954650955185
s(S'was'
p3540
S'cut'
p3541
S'by'
p3542
tp3543
F0.00017853954650955185
s(S'had'
p3544
S'previously'
p3545
S'served'
p3546
tp3547
F0.0005356186395286556
s(S'signed'
p3548
g1468
g1469
tp3549
F0.0028566327441528296
s(S'[[con]]'
p3550
S'retired'
p3551
S'from'
p3552
tp3553
F0.00017853954650955185
s(S'footballer'
p3554
S'formerly'
p3555
S'played'
p3556
tp3557
F0.00017853954650955185
s(S'[[con]]'
p3558
S'played'
p3559
S'on'
p3560
tp3561
F0.00017853954650955185
s(S'[[det]]'
p3562
g3182
g3183
tp3563
F0.0003570790930191037
s(S'then'
p3564
S'appointed'
p3565
S'to'
p3566
tp3567
F0.00017853954650955185
s(g2456
g2457
g2765
tp3568
F0.0010712372790573112
s(S'then'
p3569
S'hired'
p3570
S'by'
p3571
tp3572
F0.00017853954650955185
s(S'played'
p3573
g2703
g2704
tp3574
F0.0005356186395286556
s(S'was'
p3575
S'recruited'
p3576
S'as'
p3577
tp3578
F0.00017853954650955185
s(S'also'
p3579
S'represented'
p3580
S'while'
p3581
tp3582
F0.00017853954650955185
s(S'[[det]]'
p3583
S'head'
p3584
S'in'
p3585
tp3586
F0.00017853954650955185
s(S'[[con]]'
p3587
S'represented'
p3588
S'[[det]]'
p3589
tp3590
F0.00017853954650955185
s(S'[[det]]'
p3591
S'playing'
p3592
S'for'
p3593
tp3594
F0.00017853954650955185
s(S'been'
p3595
S'named'
p3596
S'as'
p3597
tp3598
F0.00017853954650955185
s(S'[[con]]'
p3599
S'served'
p3600
S'in'
p3601
tp3602
F0.00017853954650955185
s(S'[[adj]]'
p3603
S'captain'
p3604
S'of'
p3605
tp3606
F0.00017853954650955185
s(S'became'
p3607
S'involved'
p3608
S'at'
p3609
tp3610
F0.00017853954650955185
s(S'[[adj]]'
p3611
S'game'
p3612
S'[[num]]'
p3613
tp3614
F0.00017853954650955185
s(S'to'
p3615
S'coach'
p3616
S'in'
p3617
tp3618
F0.00017853954650955185
s(S'was'
p3619
g2390
g1886
tp3620
F0.0008926977325477593
s(S'[[prp]]'
p3621
S'[[adj]]'
p3622
S'season'
p3623
tp3624
F0.0003570790930191037
s(S'played'
p3625
S'college'
p3626
S'[[con]]'
p3627
tp3628
F0.00017853954650955185
s(S'then'
p3629
S'led'
p3630
S'[[det]]'
p3631
tp3632
F0.00017853954650955185
s(S'[[det]]'
p3633
S'player'
p3634
S'at'
p3635
tp3636
F0.00017853954650955185
s(S'head'
p3637
S'coach'
p3638
S'for'
p3639
tp3640
F0.001249776825566863
s(S'to'
p3641
S'play'
p3642
S'during'
p3643
tp3644
F0.00017853954650955185
s(g1241
g1242
S'with'
p3645
tp3646
F0.0003570790930191037
s(S'[[det]]'
p3647
S'captain'
p3648
S'for'
p3649
tp3650
F0.00017853954650955185
s(S'[[adj]]'
p3651
S'football'
p3652
S'in'
p3653
tp3654
F0.0003570790930191037
s(S'then'
p3655
S'attended'
p3656
S'[[det]]'
p3657
tp3658
F0.00017853954650955185
s(S'[[det]]'
p3659
S'[[num]]'
p3660
S'games'
p3661
tp3662
F0.00017853954650955185
s(S'named'
p3663
S'[[det]]'
p3664
S'head'
p3665
tp3666
F0.0008926977325477593
s(g3259
S'football'
p3667
S'for'
p3668
tp3669
F0.00017853954650955185
s(S'[[det]]'
p3670
S'member'
p3671
S'[[num]]'
p3672
tp3673
F0.00017853954650955185
s(S'[[con]]'
p3674
S'played'
p3675
S'professionally'
p3676
tp3677
F0.0008926977325477593
s(S'to'
p3678
S'play'
p3679
S'against'
p3680
tp3681
F0.00017853954650955185
s(S'[[con]]'
p3682
S'earned'
p3683
S'from'
p3684
tp3685
F0.00017853954650955185
s(S'been'
p3686
S'appointed'
p3687
S'in'
p3688
tp3689
F0.00017853954650955185
s(g341
g342
S'playing'
p3690
tp3691
F0.0010712372790573112
s(S'while'
p3692
S'leading'
p3693
S'[[det]]'
p3694
tp3695
F0.00017853954650955185
s(S'be'
p3696
S'named'
p3697
S'of'
p3698
tp3699
F0.00017853954650955185
s(g169
g2945
S'coach'
p3700
tp3701
F0.00017853954650955185
s(S'taken'
p3702
S'[[adj]]'
p3703
S'round'
p3704
tp3705
F0.00017853954650955185
s(S'was'
p3706
S'appointed'
p3707
S'in'
p3708
tp3709
F0.00017853954650955185
s(S'was'
p3710
S'named'
p3711
S'[[con]]'
p3712
tp3713
F0.00017853954650955185
s(S'[[adj]]'
p3714
S'attended'
p3715
S'at'
p3716
tp3717
F0.00017853954650955185
s(S'as'
p3718
S'member'
p3719
S'of'
p3720
tp3721
F0.00017853954650955185
s(S'also'
p3722
S'plays'
p3723
S'in'
p3724
tp3725
F0.00017853954650955185
s(S'who'
p3726
S'[[adj]]'
p3727
S'tackle'
p3728
tp3729
F0.00017853954650955185
s(S'[[adj]]'
p3730
S'football'
p3731
S'quarterback'
p3732
tp3733
F0.0007141581860382074
s(S'[[adj]]'
p3734
S'appointed'
p3735
S'as'
p3736
tp3737
F0.00017853954650955185
s(S'[[num]]'
p3738
S'served'
p3739
S'for'
p3740
tp3741
F0.00017853954650955185
s(g429
g328
g329
tp3742
F0.00017853954650955185
s(S'had'
p3743
S'earned'
p3744
S'from'
p3745
tp3746
F0.00017853954650955185
s(S'[[num]]'
p3747
S'won'
p3748
S'by'
p3749
tp3750
F0.00017853954650955185
s(S'football'
p3751
g3421
g3422
tp3752
F0.0007141581860382074
s(S'life'
p3753
S'member'
p3754
S'[[con]]'
p3755
tp3756
F0.00017853954650955185
s(S'not'
p3757
S'selected'
p3758
S'against'
p3759
tp3760
F0.00017853954650955185
s(S'was'
p3761
g3040
g3041
tp3762
F0.00017853954650955185
s(S'league'
p3763
S'career'
p3764
S'at'
p3765
tp3766
F0.00017853954650955185
s(S'[[adj]]'
p3767
S'coach'
p3768
S'[[num]]'
p3769
tp3770
F0.00017853954650955185
s(S'[[adj]]'
p3771
S'rules'
p3772
S'football'
p3773
tp3774
F0.0010712372790573112
s(S'[[adj]]'
p3775
S'player'
p3776
S'on'
p3777
tp3778
F0.00017853954650955185
s(S'football'
p3779
S'thereafter'
p3780
S'played'
p3781
tp3782
F0.00017853954650955185
s(S'also'
p3783
S'hired'
p3784
S'by'
p3785
tp3786
F0.00017853954650955185
s(S'football'
p3787
S'goalkeeper'
p3788
S'who'
p3789
tp3790
F0.00017853954650955185
s(S'is'
p3791
S'appointed'
p3792
S'at'
p3793
tp3794
F0.00017853954650955185
s(S'[[adj]]'
p3795
S'team'
p3796
S'for'
p3797
tp3798
F0.00017853954650955185
s(S'also'
p3799
S'recruited'
p3800
S'by'
p3801
tp3802
F0.00017853954650955185
s(S'also'
p3803
S'spent'
p3804
S'part'
p3805
tp3806
F0.00017853954650955185
s(S'currently'
p3807
S'plays'
p3808
S'with'
p3809
tp3810
F0.00017853954650955185
s(g2106
g2107
S'who'
p3811
tp3812
F0.0005356186395286556
s(S'then'
p3813
S'spent'
p3814
S'[[det]]'
p3815
tp3816
F0.0007141581860382074
s(S'[[adj]]'
p3817
S'contract'
p3818
S'at'
p3819
tp3820
F0.0003570790930191037
s(g2678
g2679
S'played'
p3821
tp3822
F0.00017853954650955185
s(S'[[con]]'
p3823
S'played'
p3824
S'in'
p3825
tp3826
F0.0007141581860382074
s(S'[[con]]'
p3827
S'spent'
p3828
S'time'
p3829
tp3830
F0.00017853954650955185
s(S'basketball'
p3831
g2849
g2850
tp3832
F0.00017853954650955185
s(S'who'
p3833
S'served'
p3834
S'as'
p3835
tp3836
F0.00017853954650955185
s(S'was'
p3837
S'picked'
p3838
S'by'
p3839
tp3840
F0.00017853954650955185
s(S'also'
p3841
S'won'
p3842
S'with'
p3843
tp3844
F0.00017853954650955185
s(g1499
g1500
S'team'
p3845
tp3846
F0.0005356186395286556
s(S'before'
p3847
S'playing'
p3848
S'for'
p3849
tp3850
F0.00017853954650955185
s(S'had'
p3851
S'played'
p3852
S'at'
p3853
tp3854
F0.00017853954650955185
s(S'signed'
p3855
S'[[adj]]'
p3856
S'deal'
p3857
tp3858
F0.00017853954650955185
s(S'then'
p3859
S'played'
p3860
S'at'
p3861
tp3862
F0.00017853954650955185
s(S'was'
p3863
S'named'
p3864
S'on'
p3865
tp3866
F0.0003570790930191037
s(S'being'
p3867
S'recruited'
p3868
S'by'
p3869
tp3870
F0.00017853954650955185
s(S'has'
p3871
S'played'
p3872
S'[[adj]]'
p3873
tp3874
F0.00017853954650955185
s(S'[[adj]]'
p3875
g340
g341
tp3876
F0.002321014104624174
s(S'formerly'
p3877
S'played'
p3878
S'at'
p3879
tp3880
F0.00017853954650955185
s(S'was'
p3881
S'claimed'
p3882
S'off'
p3883
tp3884
F0.0003570790930191037
s(S'[[adj]]'
p3885
S'stints'
p3886
S'at'
p3887
tp3888
F0.00017853954650955185
s(S'had'
p3889
S'started'
p3890
S'at'
p3891
tp3892
F0.00017853954650955185
s(S'be'
p3893
S'signed'
p3894
S'by'
p3895
tp3896
F0.00017853954650955185
s(S'also'
p3897
S'attended'
p3898
S'for'
p3899
tp3900
F0.00017853954650955185
s(S'midfielder'
p3901
S'currently'
p3902
S'playing'
p3903
tp3904
F0.00017853954650955185
s(S'have'
p3905
S'played'
p3906
S'in'
p3907
tp3908
F0.00017853954650955185
s(S'in'
p3909
S'of'
p3910
S'games'
p3911
tp3912
F0.00017853954650955185
s(S'was'
p3913
S'hired'
p3914
S'for'
p3915
tp3916
F0.00017853954650955185
s(S'[[adj]]'
p3917
S'coach'
p3918
S'for'
p3919
tp3920
F0.0007141581860382074
s(S'then'
p3921
S'transferred'
p3922
S'to'
p3923
tp3924
F0.00017853954650955185
s(g3814
g3815
S'season'
p3925
tp3926
F0.001249776825566863
s(S'also'
p3927
S'earned'
p3928
S'in'
p3929
tp3930
F0.00017853954650955185
s(S'[[num]]'
p3931
S'served'
p3932
S'in'
p3933
tp3934
F0.00017853954650955185
s(S'[[adj]]'
p3935
S'coach'
p3936
S'at'
p3937
tp3938
F0.0007141581860382074
s(S'has'
p3939
S'given'
p3940
S'[[det]]'
p3941
tp3942
F0.00017853954650955185
s(S'was'
p3943
S'taken'
p3944
S'by'
p3945
tp3946
F0.00017853954650955185
s(S'was'
p3947
S'chosen'
p3948
S'of'
p3949
tp3950
F0.00017853954650955185
s(S'be'
p3951
S'involved'
p3952
S'with'
p3953
tp3954
F0.00017853954650955185
s(S'later'
p3955
S'played'
p3956
S'[[adj]]'
p3957
tp3958
F0.0005356186395286556
s(g840
g841
S'for'
p3959
tp3960
F0.0003570790930191037
s(S'coach'
p3961
S'[[con]]'
p3962
S'ndash'
p3963
tp3964
F0.0005356186395286556
s(S'has'
p3965
S'represented'
p3966
S'[[det]]'
p3967
tp3968
F0.00017853954650955185
s(S'[[con]]'
p3969
S'resigned'
p3970
S'from'
p3971
tp3972
F0.00017853954650955185
s(g2397
g2398
S'football'
p3973
tp3974
F0.0005356186395286556
s(S'be'
p3975
S'selected'
p3976
S'to'
p3977
tp3978
F0.00017853954650955185
s(S'was'
p3979
S'signed'
p3980
S'from'
p3981
tp3982
F0.00017853954650955185
s(S'best'
p3983
S'year'
p3984
S'with'
p3985
tp3986
F0.00017853954650955185
s(S'[[adj]]'
p3987
S'agent'
p3988
S'in'
p3989
tp3990
F0.00017853954650955185
s(S'[[num]]'
p3991
g2875
g2876
tp3992
F0.0003570790930191037
s(S'when'
p3993
g719
g720
tp3994
F0.00017853954650955185
s(S'then'
p3995
S'joined'
p3996
S'on'
p3997
tp3998
F0.00017853954650955185
s(S'[[det]]'
p3999
S'starting'
p4000
S'quarterback'
p4001
tp4002
F0.0005356186395286556
s(S'during'
p4003
g1815
g1816
tp4004
F0.0008926977325477593
s(S'spent'
p4005
S'[[prp]]'
p4006
S'[[num]]'
p4007
tp4008
F0.0003570790930191037
s(S'playing'
p4009
S'as'
p4010
S'[[det]]'
p4011
tp4012
F0.0005356186395286556
s(S'won'
p4013
g1409
g1410
tp4014
F0.00017853954650955185
s(S'football'
p4015
S'coach'
p4016
S'at'
p4017
tp4018
F0.002321014104624174
s(S'was'
p4019
S'selected'
p4020
S'at'
p4021
tp4022
F0.00017853954650955185
s(S'[[con]]'
p4023
S'scored'
p4024
S'goals'
p4025
tp4026
F0.00017853954650955185
s(S'[[adj]]'
p4027
S'football'
p4028
S'linebacker'
p4029
tp4030
F0.0003570790930191037
s(S'[[con]]'
p4031
S'served'
p4032
S'for'
p4033
tp4034
F0.00017853954650955185
s(S'is'
p4035
S'appointed'
p4036
S'of'
p4037
tp4038
F0.00017853954650955185
s(S'was'
p4039
S'playing'
p4040
S'on'
p4041
tp4042
F0.00017853954650955185
s(S'been'
p4043
S'hired'
p4044
S'by'
p4045
tp4046
F0.00017853954650955185
s(S'football'
p4047
S'player'
p4048
S'at'
p4049
tp4050
F0.0003570790930191037
s(S'then'
p4051
S'moved'
p4052
S'at'
p4053
tp4054
F0.00017853954650955185
s(S'just'
p4055
S'[[adj]]'
p4056
S'match'
p4057
tp4058
F0.00017853954650955185
s(S'was'
p4059
S'given'
p4060
S'as'
p4061
tp4062
F0.00017853954650955185
s(S'[[con]]'
p4063
S'[[det]]'
p4064
S'men'
p4065
tp4066
F0.00017853954650955185
s(g620
g621
S'coach'
p4067
tp4068
F0.00017853954650955185
s(S'basketball'
p4069
g4063
g4064
tp4070
F0.00017853954650955185
s(S'played'
p4071
g2428
g2429
tp4072
F0.0003570790930191037
s(S'[[num]]'
p4073
S'year'
p4074
S'in'
p4075
tp4076
F0.00017853954650955185
s(S'to'
p4077
S'represent'
p4078
S'[[con]]'
p4079
tp4080
F0.00017853954650955185
s(S'was'
p4081
S'appointed'
p4082
S'for'
p4083
tp4084
F0.00017853954650955185
s(S'[[adj]]'
p4085
S'member'
p4086
S'in'
p4087
tp4088
F0.00017853954650955185
s(S'is'
p4089
S'named'
p4090
S'by'
p4091
tp4092
F0.00017853954650955185
s(S'was'
p4093
S'signed'
p4094
S'in'
p4095
tp4096
F0.00017853954650955185
s(g1901
g1902
S'to'
p4097
tp4098
F0.00017853954650955185
s(S'[[det]]'
p4099
S'year'
p4100
S'[[con]]'
p4101
tp4102
F0.00017853954650955185
s(S'has'
p4103
S'won'
p4104
S'[[adj]]'
p4105
tp4106
F0.00017853954650955185
s(S'formerly'
p4107
S'served'
p4108
S'in'
p4109
tp4110
F0.00017853954650955185
s(S'also'
p4111
S'member'
p4112
S'of'
p4113
tp4114
F0.00017853954650955185
s(g1570
g1571
S'with'
p4115
tp4116
F0.0010712372790573112
s(S'[[num]]'
p4117
S'[[det]]'
p4118
S'soccer'
p4119
tp4120
F0.00017853954650955185
s(S'first'
p4121
S'appointed'
p4122
S'to'
p4123
tp4124
F0.00017853954650955185
s(S'who'
p4125
S'joined'
p4126
S'[[det]]'
p4127
tp4128
F0.00017853954650955185
s(g3037
g3038
S'at'
p4129
tp4130
F0.0007141581860382074
s(S'football'
p4131
g3674
g3675
tp4132
F0.001249776825566863
s(S'[[det]]'
p4133
S'match'
p4134
S'for'
p4135
tp4136
F0.0003570790930191037
s(S'play'
p4137
S'in'
p4138
S'[[num]]'
p4139
tp4140
F0.00017853954650955185
s(g3147
g3148
S'for'
p4141
tp4142
F0.00017853954650955185
s(S'[[num]]'
p4143
S'seasons'
p4144
S'[[con]]'
p4145
tp4146
F0.0008926977325477593
s(S'later'
p4147
S'served'
p4148
S'[[adj]]'
p4149
tp4150
F0.00017853954650955185
s(S'[[det]]'
p4151
S'[[adj]]'
p4152
S'head'
p4153
tp4154
F0.0005356186395286556
s(S'[[con]]'
p4155
S'member'
p4156
S'[[det]]'
p4157
tp4158
F0.00017853954650955185
s(S'as'
p4159
S'led'
p4160
S'[[det]]'
p4161
tp4162
F0.00017853954650955185
s(S'was'
p4163
S'named'
p4164
S'to'
p4165
tp4166
F0.00017853954650955185
s(S'to'
p4167
S'play'
p4168
S'as'
p4169
tp4170
F0.00017853954650955185
s(S'teams'
p4171
S'[[num]]'
p4172
S'head'
p4173
tp4174
F0.00017853954650955185
s(g413
g414
S'[[num]]'
p4175
tp4176
F0.00017853954650955185
s(S'be'
p4177
S'selected'
p4178
S'by'
p4179
tp4180
F0.00017853954650955185
s(g1420
g1421
S'back'
p4181
tp4182
F0.0003570790930191037
s(S'has'
p4183
S'taken'
p4184
S'[[con]]'
p4185
tp4186
F0.00017853954650955185
s(S'[[adj]]'
p4187
S'football'
p4188
S'with'
p4189
tp4190
F0.0007141581860382074
s(S'[[prp]]'
p4191
S'contract'
p4192
S'with'
p4193
tp4194
F0.00017853954650955185
s(S'[[num]]'
p4195
S'[[det]]'
p4196
S'association'
p4197
tp4198
F0.0005356186395286556
s(S'[[det]]'
p4199
S'board'
p4200
S'[[det]]'
p4201
tp4202
F0.00017853954650955185
s(S'college'
p4203
g2324
g2325
tp4204
F0.00017853954650955185
s(S'later'
p4205
S'returned'
p4206
S'to'
p4207
tp4208
F0.00017853954650955185
s(S'[[adj]]'
p4209
S'joined'
p4210
S'[[det]]'
p4211
tp4212
F0.00017853954650955185
s(S'[[con]]'
p4213
S'member'
p4214
S'[[con]]'
p4215
tp4216
F0.00017853954650955185
s(S'[[adj]]'
p4217
S'career'
p4218
S'for'
p4219
tp4220
F0.0005356186395286556
s(S'football'
p4221
g45
g46
tp4222
F0.00017853954650955185
s(S'currently'
p4223
S'playing'
p4224
S'with'
p4225
tp4226
F0.00017853954650955185
s(S'to'
p4227
g1456
g1457
tp4228
F0.00017853954650955185
s(g1342
g1343
S'footballer'
p4229
tp4230
F0.00017853954650955185
s(S'[[con]]'
p4231
S'attended'
p4232
S'at'
p4233
tp4234
F0.00017853954650955185
s(S'[[num]]'
p4235
S'seasons'
p4236
S'for'
p4237
tp4238
F0.0017853954650955187
s(g2016
g1874
g1875
tp4239
F0.0005356186395286556
s(S'then'
p4240
S'served'
p4241
S'[[det]]'
p4242
tp4243
F0.00017853954650955185
s(g3172
S'footballer'
p4244
S'who'
p4245
tp4246
F0.006605963220853419
s(S'[[mod]]'
p4247
S'join'
p4248
S'up'
p4249
tp4250
F0.00017853954650955185
s(S'played'
p4251
S'quarterback'
p4252
S'at'
p4253
tp4254
F0.00017853954650955185
s(S'also'
p4255
S'played'
p4256
S'quarterback'
p4257
tp4258
F0.00017853954650955185
s(S'[[con]]'
p4259
S'added'
p4260
S'[[num]]'
p4261
tp4262
F0.00017853954650955185
s(g223
S'judge'
p4263
S'of'
p4264
tp4265
F0.00017853954650955185
s(S'[[con]]'
p4266
S'[[det]]'
p4267
S'team'
p4268
tp4269
F0.00017853954650955185
s(g1824
g193
g194
tp4270
F0.003927870023210141
s(S'later'
p4271
S'served'
p4272
S'[[con]]'
p4273
tp4274
F0.00017853954650955185
s(S'[[adj]]'
p4275
S'member'
p4276
S'[[con]]'
p4277
tp4278
F0.00017853954650955185
s(S'[[adj]]'
p4279
S'footballer'
p4280
S'currently'
p4281
tp4282
F0.0007141581860382074
s(S'[[adj]]'
p4283
S'played'
p4284
S'on'
p4285
tp4286
F0.00017853954650955185
s(S'[[det]]'
p4287
S'contract'
p4288
S'at'
p4289
tp4290
F0.00017853954650955185
s(S'previously'
p4291
S'played'
p4292
S'college'
p4293
tp4294
F0.00017853954650955185
s(S'[[num]]'
p4295
S'[[adj]]'
p4296
S'women'
p4297
tp4298
F0.00017853954650955185
s(S'has'
p4299
S'played'
p4300
S'[[con]]'
p4301
tp4302
F0.00017853954650955185
s(S'for'
p4303
S'[[num]]'
p4304
S'years'
p4305
tp4306
F0.0007141581860382074
s(S'signed'
p4307
S'[[det]]'
p4308
S'[[num]]'
p4309
tp4310
F0.0003570790930191037
s(S'[[det]]'
p4311
S'forward'
p4312
S'in'
p4313
tp4314
F0.00017853954650955185
s(S'[[num]]'
p4315
S'football'
p4316
S'player'
p4317
tp4318
F0.0005356186395286556
s(S'[[num]]'
p4319
S'[[adj]]'
p4320
S'game'
p4321
tp4322
F0.00017853954650955185
s(S'[[con]]'
p4323
S'played'
p4324
S'twice'
p4325
tp4326
F0.00017853954650955185
s(S'made'
p4327
S'captain'
p4328
S'of'
p4329
tp4330
F0.00017853954650955185
s(S'basketball'
p4331
S'[[con]]'
p4332
S'was'
p4333
tp4334
F0.0003570790930191037
s(S'played'
p4335
g308
g309
tp4336
F0.00017853954650955185
s(S'also'
p4337
S'played'
p4338
S'in'
p4339
tp4340
F0.0005356186395286556
s(S'[[num]]'
p4341
S'match'
p4342
S'against'
p4343
tp4344
F0.0003570790930191037
s(S'later'
p4345
S'attended'
p4346
S'[[det]]'
p4347
tp4348
F0.00017853954650955185
s(S'was'
p4349
S'released'
p4350
S'at'
p4351
tp4352
F0.00017853954650955185
s(g4000
g4001
S'for'
p4353
tp4354
F0.0003570790930191037
s(S'then'
p4355
S'coach'
p4356
S'of'
p4357
tp4358
F0.00017853954650955185
s(S'was'
p4359
S'leading'
p4360
S'[[det]]'
p4361
tp4362
F0.00017853954650955185
s(g3239
S'coach'
p4363
S'who'
p4364
tp4365
F0.0003570790930191037
s(S'board'
p4366
S'member'
p4367
S'[[num]]'
p4368
tp4369
F0.00017853954650955185
s(S'currently'
p4370
S'plays'
p4371
S'in'
p4372
tp4373
F0.0003570790930191037
s(S'later'
p4374
S'served'
p4375
S'for'
p4376
tp4377
F0.00017853954650955185
s(S'football'
p4378
S'player'
p4379
S'currently'
p4380
tp4381
F0.0008926977325477593
s(S'with'
p4382
S'[[adj]]'
p4383
S'career'
p4384
tp4385
F0.00017853954650955185
s(S'[[adj]]'
p4386
S'career'
p4387
S'in'
p4388
tp4389
F0.0007141581860382074
s(S'of'
p4390
g4199
g4200
tp4391
F0.0003570790930191037
s(S'by'
p4392
S'playing'
p4393
S'for'
p4394
tp4395
F0.00017853954650955185
s(S'be'
p4396
S'returned'
p4397
S'to'
p4398
tp4399
F0.00017853954650955185
s(S'head'
p4400
S'football'
p4401
S'[[con]]'
p4402
tp4403
F0.00017853954650955185
s(S'signed'
p4404
g1240
g1241
tp4405
F0.0007141581860382074
s(S'later'
p4406
S'named'
p4407
S'[[det]]'
p4408
tp4409
F0.00017853954650955185
s(S'[[num]]'
p4410
S'represented'
p4411
S'in'
p4412
tp4413
F0.00017853954650955185
s(S'is'
p4414
S'[[det]]'
p4415
S'footballer'
p4416
tp4417
F0.0010712372790573112
s(S'[[det]]'
p4418
S'head'
p4419
S'[[det]]'
p4420
tp4421
F0.00017853954650955185
s(S'was'
p4422
S'chosen'
p4423
S'[[det]]'
p4424
tp4425
F0.00017853954650955185
s(g2507
S'[[adj]]'
p4426
S'quarterback'
p4427
tp4428
F0.00017853954650955185
s(S'[[num]]'
p4429
S'deal'
p4430
S'with'
p4431
tp4432
F0.00017853954650955185
s(S'formerly'
p4433
S'played'
p4434
S'[[num]]'
p4435
tp4436
F0.00017853954650955185
s(S'also'
p4437
S'served'
p4438
S'from'
p4439
tp4440
F0.00017853954650955185
s(S'later'
p4441
S'play'
p4442
S'with'
p4443
tp4444
F0.00017853954650955185
s(g4296
g4297
g1769
tp4445
F0.00017853954650955185
s(S'was'
p4446
S'appointed'
p4447
S'of'
p4448
tp4449
F0.00017853954650955185
s(S'later'
p4450
S'signed'
p4451
S'to'
p4452
tp4453
F0.00017853954650955185
s(S'[[num]]'
p4454
S'season'
p4455
S'to'
p4456
tp4457
F0.00017853954650955185
s(S'[[det]]'
p4458
g1854
g1855
tp4459
F0.00017853954650955185
s(S'born'
p4460
g4315
g4316
tp4461
F0.00017853954650955185
s(S'football'
p4462
S'player'
p4463
S'with'
p4464
tp4465
F0.0003570790930191037
s(S'also'
p4466
S'served'
p4467
S'on'
p4468
tp4469
F0.00017853954650955185
s(S'later'
p4470
S'attended'
p4471
S'[[con]]'
p4472
tp4473
F0.00017853954650955185
s(S'later'
p4474
S'coached'
p4475
S'for'
p4476
tp4477
F0.00017853954650955185
s(S'[[adj]]'
p4478
g3425
g3426
tp4479
F0.0007141581860382074
s(S'member'
p4480
S'[[det]]'
p4481
S'[[adj]]'
p4482
tp4483
F0.00017853954650955185
s(g2299
g2300
S'signed'
p4484
tp4485
F0.00017853954650955185
s(S'goals'
p4486
S'[[con]]'
p4487
S'[[num]]'
p4488
tp4489
F0.00017853954650955185
s(g1721
g551
g552
tp4490
F0.00017853954650955185
s(S'had'
p4491
S'stints'
p4492
S'with'
p4493
tp4494
F0.00017853954650955185
s(S'total'
p4495
S'of'
p4496
S'[[num]]'
p4497
tp4498
F0.0003570790930191037
s(S'was'
p4499
S'head'
p4500
S'for'
p4501
tp4502
F0.00017853954650955185
s(g3546
S'as'
p4503
g3935
tp4504
F0.0017853954650955187
s(g4488
S'points'
p4505
S'in'
p4506
tp4507
F0.00017853954650955185
s(S'[[adj]]'
p4508
S'head'
p4509
S'[[det]]'
p4510
tp4511
F0.00017853954650955185
s(S'[[con]]'
p4512
S'previously'
p4513
S'played'
p4514
tp4515
F0.00017853954650955185
s(S'then'
p4516
S'returned'
p4517
S'where'
p4518
tp4519
F0.00017853954650955185
s(S'[[mod]]'
p4520
S'join'
p4521
S'[[adj]]'
p4522
tp4523
F0.00017853954650955185
s(g1598
g1599
S'played'
p4524
tp4525
F0.00017853954650955185
s(S'[[det]]'
p4526
S'member'
p4527
S'at'
p4528
tp4529
F0.00017853954650955185
s(S'[[adj]]'
p4530
S'seasons'
p4531
S'at'
p4532
tp4533
F0.0003570790930191037
s(S'rules'
p4534
S'football'
p4535
S'for'
p4536
tp4537
F0.0003570790930191037
s(S'[[num]]'
p4538
S'games'
p4539
S'before'
p4540
tp4541
F0.00017853954650955185
s(S'that'
p4542
S'won'
p4543
S'for'
p4544
tp4545
F0.00017853954650955185
s(S'was'
p4546
S'transferred'
p4547
S'by'
p4548
tp4549
F0.00017853954650955185
s(S'at'
p4550
S'then'
p4551
S'played'
p4552
tp4553
F0.00017853954650955185
s(S'plays'
p4554
S'for'
p4555
S'club'
p4556
tp4557
F0.0003570790930191037
s(S'[[adj]]'
p4558
S'captain'
p4559
S'at'
p4560
tp4561
F0.00017853954650955185
s(S'later'
p4562
S'played'
p4563
S'twice'
p4564
tp4565
F0.00017853954650955185
s(S'recruited'
p4566
S'[[con]]'
p4567
S'[[prp]]'
p4568
tp4569
F0.00017853954650955185
s(S'first'
p4570
S'played'
p4571
S'at'
p4572
tp4573
F0.00017853954650955185
s(S'while'
p4574
S'moved'
p4575
S'to'
p4576
tp4577
F0.00017853954650955185
s(S'was'
p4578
S'joined'
p4579
S'in'
p4580
tp4581
F0.00017853954650955185
s(S'[[num]]'
p4582
S'games'
p4583
S'for'
p4584
tp4585
F0.004284949116229245
s(S'was'
p4586
S'named'
p4587
S'at'
p4588
tp4589
F0.00017853954650955185
s(S'footballer'
p4590
S'who'
p4591
S'[[adj]]'
p4592
tp4593
F0.0003570790930191037
s(S'on'
p4594
S'[[det]]'
p4595
S'wing'
p4596
tp4597
F0.00017853954650955185
s(g2822
g2823
S'for'
p4598
tp4599
F0.0003570790930191037
s(g2850
g2851
S'played'
p4600
tp4601
F0.00017853954650955185
s(S'[[det]]'
p4602
S'retired'
p4603
S'in'
p4604
tp4605
F0.00017853954650955185
s(S'[[adj]]'
p4606
S'team'
p4607
S'[[adj]]'
p4608
tp4609
F0.00017853954650955185
s(S'footballer'
p4610
S'who'
p4611
S'notably'
p4612
tp4613
F0.00017853954650955185
s(S'was'
p4614
g1819
g1820
tp4615
F0.00017853954650955185
s(S'had'
p4616
S'attended'
p4617
S'[[con]]'
p4618
tp4619
F0.00017853954650955185
s(S'then'
p4620
S'earned'
p4621
S'from'
p4622
tp4623
F0.00017853954650955185
s(S'who'
p4624
S'played'
p4625
S'with'
p4626
tp4627
F0.0017853954650955187
s(S'[[adj]]'
p4628
S'member'
p4629
S'[[det]]'
p4630
tp4631
F0.0003570790930191037
s(S'was'
p4632
S'playing'
p4633
S'[[adj]]'
p4634
tp4635
F0.00017853954650955185
s(S'also'
p4636
S'attended'
p4637
S'now'
p4638
tp4639
F0.00017853954650955185
s(S'[[adj]]'
p4640
S'playing'
p4641
S'in'
p4642
tp4643
F0.00017853954650955185
s(S'played'
p4644
g4055
g4056
tp4645
F0.00017853954650955185
s(S'was'
p4646
S'selected'
p4647
S'against'
p4648
tp4649
F0.00017853954650955185
s(S'instead'
p4650
S'appointed'
p4651
S'[[pro]]'
p4652
tp4653
F0.00017853954650955185
s(S'[[det]]'
p4654
S'game'
p4655
S'for'
p4656
tp4657
F0.0005356186395286556
s(S'[[det]]'
p4658
S'coach'
p4659
S'with'
p4660
tp4661
F0.00017853954650955185
s(S'then'
p4662
S'selected'
p4663
S'to'
p4664
tp4665
F0.00017853954650955185
s(S'[[det]]'
p4666
g655
g656
tp4667
F0.00017853954650955185
s(S'first'
p4668
S'came'
p4669
S'as'
p4670
tp4671
F0.00017853954650955185
s(S'also'
p4672
S'chosen'
p4673
S'by'
p4674
tp4675
F0.00017853954650955185
s(S'became'
p4676
S'involved'
p4677
S'in'
p4678
tp4679
F0.00017853954650955185
s(S'was'
p4680
S'returned'
p4681
S'by'
p4682
tp4683
F0.00017853954650955185
s(S'born'
p4684
g4414
g4415
tp4685
F0.003927870023210141
s(S'[[con]]'
p4686
S'joined'
p4687
S'[[det]]'
p4688
tp4689
F0.00017853954650955185
s(S'[[prp]]'
p4690
S'career'
p4691
S'on'
p4692
tp4693
F0.00017853954650955185
s(g1697
g1698
S'for'
p4694
tp4695
F0.001249776825566863
s(S'[[det]]'
p4696
g2259
g2260
tp4697
F0.002321014104624174
s(S'had'
p4698
S'earned'
p4699
S'[[det]]'
p4700
tp4701
F0.00017853954650955185
s(S'coach'
p4702
g2721
g2722
tp4703
F0.0005356186395286556
s(S'[[det]]'
p4704
S'year'
p4705
S'at'
p4706
tp4707
F0.00017853954650955185
s(S'before'
p4708
S'returning'
p4709
S'to'
p4710
tp4711
F0.00017853954650955185
s(g3238
g3239
g4363
tp4712
F0.0003570790930191037
s(g2902
g1826
g1827
tp4713
F0.00017853954650955185
s(S'football'
p4714
S'running'
p4715
S'back'
p4716
tp4717
F0.001249776825566863
s(S'in'
p4718
S'[[adj]]'
p4719
S'game'
p4720
tp4721
F0.0003570790930191037
s(S'also'
p4722
S'spent'
p4723
S'[[adj]]'
p4724
tp4725
F0.00017853954650955185
s(S'[[con]]'
p4726
S'attended'
p4727
S'[[det]]'
p4728
tp4729
F0.00017853954650955185
s(S'born'
p4730
S'who'
p4731
S'played'
p4732
tp4733
F0.0003570790930191037
s(S'games'
p4734
g408
g409
tp4735
F0.00017853954650955185
s(g2938
S'played'
p4736
S'[[adj]]'
p4737
tp4738
F0.0005356186395286556
s(S'[[num]]'
p4739
S'season'
p4740
S'[[num]]'
p4741
tp4742
F0.0005356186395286556
s(g169
S'team'
p4743
S'[[det]]'
p4744
tp4745
F0.00017853954650955185
s(S'[[mod]]'
p4746
S'play'
p4747
S'[[con]]'
p4748
tp4749
F0.00017853954650955185
s(S'was'
p4750
S'returned'
p4751
S'[[con]]'
p4752
tp4753
F0.00017853954650955185
s(S'appointed'
p4754
S'[[adj]]'
p4755
S'coach'
p4756
tp4757
F0.0007141581860382074
s(S'been'
p4758
S'playing'
p4759
S'in'
p4760
tp4761
F0.00017853954650955185
s(S'born'
p4762
g1834
g1835
tp4763
F0.00017853954650955185
s(S'is'
p4764
S'football'
p4765
g1712
tp4766
F0.00017853954650955185
s(g2387
g2388
g3281
tp4767
F0.00017853954650955185
s(S'which'
p4768
S'led'
p4769
S'at'
p4770
tp4771
F0.00017853954650955185
s(S'played'
p4772
g241
g242
tp4773
F0.0003570790930191037
s(S'originally'
p4774
S'signed'
p4775
S'with'
p4776
tp4777
F0.00017853954650955185
s(S'[[adj]]'
p4778
S'soccer'
p4779
S'player'
p4780
tp4781
F0.0003570790930191037
s(S'basketball'
p4782
S'head'
p4783
S'coach'
p4784
tp4785
F0.0005356186395286556
s(S'plays'
p4786
g4594
g4595
tp4787
F0.00017853954650955185
s(S'been'
p4788
S'released'
p4789
S'from'
p4790
tp4791
F0.00017853954650955185
s(S'[[num]]'
p4792
S'served'
p4793
S'as'
p4794
tp4795
F0.00017853954650955185
s(S'[[det]]'
p4796
S'footballer'
p4797
S'currently'
p4798
tp4799
F0.0008926977325477593
s(S'is'
p4800
S'[[det]]'
p4801
S'running'
p4802
tp4803
F0.00017853954650955185
s(S'signed'
p4804
g1888
g1889
tp4805
F0.0007141581860382074
s(g1449
g1450
g3730
tp4806
F0.00017853954650955185
s(g2325
g2326
S'from'
p4807
tp4808
F0.00017853954650955185
s(S'who'
p4809
S'played'
p4810
S'linebacker'
p4811
tp4812
F0.00017853954650955185
s(S'to'
p4813
S'join'
p4814
S'up'
p4815
tp4816
F0.00017853954650955185
s(S'basketball'
p4817
S'coach'
p4818
S'[[con]]'
p4819
tp4820
F0.0003570790930191037
s(S'also'
p4821
S'served'
p4822
S'with'
p4823
tp4824
F0.00017853954650955185
s(g381
g382
S'club'
p4825
tp4826
F0.00017853954650955185
s(g2238
g2239
S'games'
p4827
tp4828
F0.0003570790930191037
s(S'league'
p4829
S'debut'
p4830
S'to'
p4831
tp4832
F0.0003570790930191037
s(S'on'
p4833
S'playing'
p4834
S'for'
p4835
tp4836
F0.00017853954650955185
s(S'also'
p4837
S'selected'
p4838
S'in'
p4839
tp4840
F0.00017853954650955185
s(g561
S'who'
p4841
S'played'
p4842
tp4843
F0.0005356186395286556
s(S'[[adj]]'
p4844
S'association'
p4845
S'football'
p4846
tp4847
F0.0007141581860382074
s(S'ever'
p4848
S'played'
p4849
S'for'
p4850
tp4851
F0.00017853954650955185
s(S'to'
p4852
S'play'
p4853
S'[[det]]'
p4854
tp4855
F0.0003570790930191037
s(S'then'
p4856
S'served'
p4857
S'before'
p4858
tp4859
F0.00017853954650955185
s(S'of'
p4860
S'[[adj]]'
p4861
S'team'
p4862
tp4863
F0.00017853954650955185
s(S'only'
p4864
S'played'
p4865
S'[[num]]'
p4866
tp4867
F0.0007141581860382074
s(S'when'
p4868
S'signed'
p4869
S'for'
p4870
tp4871
F0.00017853954650955185
s(g3627
S'[[adj]]'
p4872
S'school'
p4873
tp4874
F0.00017853954650955185
s(S'also'
p4875
S'involved'
p4876
S'in'
p4877
tp4878
F0.00017853954650955185
s(S'also'
p4879
S'served'
p4880
S'[[det]]'
p4881
tp4882
F0.00017853954650955185
s(S'[[adj]]'
p4883
S'game'
p4884
S'as'
p4885
tp4886
F0.00017853954650955185
s(g2583
S'coach'
p4887
S'in'
p4888
tp4889
F0.0005356186395286556
s(S'head'
p4890
S'coach'
p4891
S'[[det]]'
p4892
tp4893
F0.0008926977325477593
s(S'played'
p4894
g2569
g2570
tp4895
F0.0003570790930191037
s(S'then'
p4896
S'returned'
p4897
S'in'
p4898
tp4899
F0.00017853954650955185
s(S'[[det]]'
p4900
g2336
g2337
tp4901
F0.0014283163720764148
s(S'[[det]]'
p4902
S'player'
p4903
S'that'
p4904
tp4905
F0.00017853954650955185
s(S'then'
p4906
S'moved'
p4907
S'for'
p4908
tp4909
F0.00017853954650955185
s(S'also'
p4910
g920
g921
tp4911
F0.0007141581860382074
s(S'since'
p4912
S'played'
p4913
S'with'
p4914
tp4915
F0.00017853954650955185
s(S'had'
p4916
S'played'
p4917
S'with'
p4918
tp4919
F0.00017853954650955185
s(S'[[prp]]'
p4920
S'debut'
p4921
S'[[det]]'
p4922
tp4923
F0.00017853954650955185
s(S'was'
p4924
S'taken'
p4925
S'out'
p4926
tp4927
F0.00017853954650955185
s(S'was'
p4928
S'signed'
p4929
S'on'
p4930
tp4931
F0.00017853954650955185
s(g1150
g1252
S'by'
p4932
tp4933
F0.00017853954650955185
s(S'that'
p4934
S'season'
p4935
S'with'
p4936
tp4937
F0.00017853954650955185
s(S'[[pro]]'
p4938
S'played'
p4939
S'together'
p4940
tp4941
F0.00017853954650955185
s(g2127
g2961
S'[[con]]'
p4942
tp4943
F0.00017853954650955185
s(S'footballer'
p4944
g3303
g3304
tp4945
F0.00017853954650955185
s(g1069
g1070
S'with'
p4946
tp4947
F0.0007141581860382074
s(S'also'
p4948
S'played'
p4949
S'before'
p4950
tp4951
F0.00017853954650955185
s(S'college'
p4952
S'football'
p4953
g4550
tp4954
F0.0021424745581146223
s(S'had'
p4955
S'signed'
p4956
S'to'
p4957
tp4958
F0.00017853954650955185
s(S'[[mod]]'
p4959
S'play'
p4960
S'[[num]]'
p4961
tp4962
F0.0007141581860382074
s(g373
g374
S'team'
p4963
tp4964
F0.00017853954650955185
s(S'[[adj]]'
p4965
S'coach'
p4966
S'in'
p4967
tp4968
F0.00017853954650955185
s(g1057
g1058
S'ndash'
p4969
tp4970
F0.00017853954650955185
s(S'now'
p4971
S'playing'
p4972
S'for'
p4973
tp4974
F0.00017853954650955185
s(S'with'
p4975
S'played'
p4976
S'for'
p4977
tp4978
F0.0003570790930191037
s(S'[[prp]]'
p4979
S'debut'
p4980
S'on'
p4981
tp4982
F0.00017853954650955185
s(S'then'
p4983
S'moved'
p4984
S'[[con]]'
p4985
tp4986
F0.00017853954650955185
s(S'later'
p4987
S'moved'
p4988
S'with'
p4989
tp4990
F0.00017853954650955185
s(S'[[adj]]'
p4991
S'coach'
p4992
S'with'
p4993
tp4994
F0.00017853954650955185
s(S'who'
p4995
S'played'
p4996
S'including'
p4997
tp4998
F0.0003570790930191037
s(S'football'
p4999
S'linebacker'
p5000
S'in'
p5001
tp5002
F0.00017853954650955185
s(S'[[num]]'
p5003
S'[[adj]]'
p5004
S'running'
p5005
tp5006
F0.00017853954650955185
s(S'[[con]]'
p5007
S'moved'
p5008
S'on'
p5009
tp5010
F0.00017853954650955185
s(S'only'
p5011
S'played'
p5012
S'in'
p5013
tp5014
F0.00017853954650955185
s(S'was'
p5015
S'given'
p5016
S'[[num]]'
p5017
tp5018
F0.00017853954650955185
s(S'[[num]]'
p5019
S'[[adj]]'
p5020
g3357
tp5021
F0.00017853954650955185
s(S'then'
p5022
S'served'
p5023
S'on'
p5024
tp5025
F0.00017853954650955185
s(S'has'
p5026
S'previously'
p5027
S'played'
p5028
tp5029
F0.0007141581860382074
s(S'league'
p5030
S'debut'
p5031
S'against'
p5032
tp5033
F0.0003570790930191037
s(S'has'
p5034
S'coached'
p5035
S'with'
p5036
tp5037
F0.00017853954650955185
s(g1649
S'[[con]]'
p5038
S'played'
p5039
tp5040
F0.00017853954650955185
s(S'[[num]]'
p5041
S'[[det]]'
p5042
S'football'
p5043
tp5044
F0.002499553651133726
s(S'played'
p5045
S'[[prp]]'
p5046
S'[[det]]'
p5047
tp5048
F0.00017853954650955185
s(S'have'
p5049
S'played'
p5050
S'[[det]]'
p5051
tp5052
F0.00017853954650955185
s(S'[[con]]'
p5053
S'plays'
p5054
S'for'
p5055
tp5056
F0.00017853954650955185
s(S'fell'
p5057
S'out'
p5058
g3827
tp5059
F0.00017853954650955185
s(S'to'
p5060
S'captain'
p5061
S'[[det]]'
p5062
tp5063
F0.00017853954650955185
s(S'then'
p5064
S'returned'
p5065
S'for'
p5066
tp5067
F0.00017853954650955185
s(S'then'
p5068
S'signed'
p5069
S'by'
p5070
tp5071
F0.00017853954650955185
s(S'[[adj]]'
p5072
S'coach'
p5073
S'[[det]]'
p5074
tp5075
F0.00017853954650955185
s(S'then'
p5076
S'played'
p5077
S'for'
p5078
tp5079
F0.00017853954650955185
s(S'[[con]]'
p5080
S'joined'
p5081
S'from'
p5082
tp5083
F0.00017853954650955185
s(g1457
g1458
S'of'
p5084
tp5085
F0.00017853954650955185
s(g50
g51
S'member'
p5086
tp5087
F0.0007141581860382074
s(S'had'
p5088
S'signed'
p5089
S'[[det]]'
p5090
tp5091
F0.0007141581860382074
s(g2681
S'[[adj]]'
p5092
S'footballer'
p5093
tp5094
F0.00017853954650955185
s(S'played'
p5095
S'for'
p5096
S'[[det]]'
p5097
tp5098
F0.0016068559185859668
s(S'[[det]]'
p5099
S'contract'
p5100
S'with'
p5101
tp5102
F0.001249776825566863
s(g3496
g3497
S'award'
p5103
tp5104
F0.00017853954650955185
s(S'to'
p5105
S'coach'
p5106
S'[[det]]'
p5107
tp5108
F0.00017853954650955185
s(g3665
S'coach'
p5109
S'at'
p5110
tp5111
F0.0017853954650955187
s(S'that'
p5112
S'won'
p5113
S'against'
p5114
tp5115
F0.00017853954650955185
s(S'had'
p5116
S'taken'
p5117
S'[[num]]'
p5118
tp5119
F0.00017853954650955185
s(S'[[num]]'
p5120
S'goals'
p5121
S'for'
p5122
tp5123
F0.001249776825566863
s(g5020
g3357
g3358
tp5124
F0.00017853954650955185
s(S'where'
p5125
S'attended'
p5126
S'[[det]]'
p5127
tp5128
F0.00017853954650955185
s(S'been'
p5129
S'selected'
p5130
S'for'
p5131
tp5132
F0.00017853954650955185
s(S'when'
p5133
S'retired'
p5134
S'from'
p5135
tp5136
F0.00017853954650955185
s(S'who'
p5137
S'played'
p5138
S'in'
p5139
tp5140
F0.002321014104624174
s(g598
g599
S'games'
p5141
tp5142
F0.007141581860382075
s(S'[[prp]]'
p5143
g1385
g1386
tp5144
F0.0003570790930191037
s(S'played'
p5145
S'professionally'
p5146
S'for'
p5147
tp5148
F0.0021424745581146223
s(S'[[con]]'
p5149
S'debut'
p5150
S'against'
p5151
tp5152
F0.00017853954650955185
s(S'been'
p5153
S'selected'
p5154
S'by'
p5155
tp5156
F0.00017853954650955185
s(S'midfielder'
p5157
S'who'
p5158
S'currently'
p5159
tp5160
F0.00017853954650955185
s(S'[[mod]]'
p5161
S'remain'
p5162
S'in'
p5163
tp5164
F0.00017853954650955185
s(S'[[num]]'
p5165
S'round'
p5166
S'[[num]]'
p5167
tp5168
F0.00017853954650955185
s(S'[[adj]]'
p5169
S'match'
p5170
S'to'
p5171
tp5172
F0.00017853954650955185
s(g169
S'coach'
p5173
S'with'
p5174
tp5175
F0.00017853954650955185
s(g2342
S'coach'
p5176
S'for'
p5177
tp5178
F0.002321014104624174
s(S'[[adj]]'
p5179
S'game'
p5180
S'in'
p5181
tp5182
F0.00017853954650955185
s(S'best'
p5183
S'season'
p5184
S'at'
p5185
tp5186
F0.00017853954650955185
s(S'has'
p5187
S'served'
p5188
S'as'
p5189
tp5190
F0.001249776825566863
s(g2506
g2507
g4426
tp5191
F0.00017853954650955185
s(S'[[det]]'
p5192
S'head'
p5193
S'college'
p5194
tp5195
F0.00017853954650955185
s(S'[[det]]'
p5196
S'member'
p5197
S'[[det]]'
p5198
tp5199
F0.0007141581860382074
s(g1940
g1941
S'forward'
p5200
tp5201
F0.00017853954650955185
s(S'who'
p5202
g412
g413
tp5203
F0.00017853954650955185
s(S'also'
p5204
S'served'
p5205
S'in'
p5206
tp5207
F0.00017853954650955185
s(S'[[num]]'
p5208
S'seasons'
p5209
S'as'
p5210
tp5211
F0.00017853954650955185
s(g3338
g3339
S'team'
p5212
tp5213
F0.0016068559185859668
s(g2142
g2143
S'who'
p5214
tp5215
F0.0007141581860382074
s(S'football'
p5216
g320
g321
tp5217
F0.00017853954650955185
s(S'is'
p5218
S'playing'
p5219
S'in'
p5220
tp5221
F0.00017853954650955185
s(S'player'
p5222
S'who'
p5223
S'has'
p5224
tp5225
F0.0005356186395286556
s(S'[[con]]'
p5226
S'scored'
p5227
S'[[num]]'
p5228
tp5229
F0.0007141581860382074
s(S'[[det]]'
p5230
S'played'
p5231
S'for'
p5232
tp5233
F0.00017853954650955185
s(g3250
g3251
S'for'
p5234
tp5235
F0.00017853954650955185
s(S'is'
p5236
S'appointed'
p5237
S'[[det]]'
p5238
tp5239
F0.00017853954650955185
s(S'[[adj]]'
p5240
S'career'
p5241
S'as'
p5242
tp5243
F0.0005356186395286556
s(S'[[con]]'
p5244
S'picked'
p5245
S'up'
p5246
tp5247
F0.00017853954650955185
s(S'had'
p5248
S'played'
p5249
S'for'
p5250
tp5251
F0.00017853954650955185
s(S'striker'
p5252
S'for'
p5253
S'club'
p5254
tp5255
F0.00017853954650955185
s(S'where'
p5256
S'played'
p5257
S'in'
p5258
tp5259
F0.00017853954650955185
s(S'who'
p5260
S'has'
p5261
S'played'
p5262
tp5263
F0.0007141581860382074
s(S'[[con]]'
p5264
g2032
g2033
tp5265
F0.0003570790930191037
s(S'was'
p5266
S'hired'
p5267
S'by'
p5268
tp5269
F0.00017853954650955185
s(S'[[det]]'
p5270
S'member'
p5271
S'on'
p5272
tp5273
F0.00017853954650955185
s(S'currently'
p5274
S'plays'
p5275
S'[[det]]'
p5276
tp5277
F0.00017853954650955185
s(S'[[mod]]'
p5278
S'split'
p5279
g1258
tp5280
F0.00017853954650955185
s(S'board'
p5281
S'[[con]]'
p5282
S'[[det]]'
p5283
tp5284
F0.00017853954650955185
s(g54
g55
S'in'
p5285
tp5286
F0.00017853954650955185
s(S'[[num]]'
p5287
S'years'
p5288
S'[[con]]'
p5289
tp5290
F0.00017853954650955185
s(S'later'
p5291
S'served'
p5292
S'on'
p5293
tp5294
F0.00017853954650955185
s(S'[[adj]]'
p5295
S'debut'
p5296
S'[[con]]'
p5297
tp5298
F0.00017853954650955185
s(S'played'
p5299
S'college'
p5300
S'football'
p5301
tp5302
F0.005713265488305659
s(S'have'
p5303
S'joined'
p5304
S'[[det]]'
p5305
tp5306
F0.00017853954650955185
s(g169
g2853
S'coach'
p5307
tp5308
F0.0010712372790573112
s(S'[[adj]]'
p5309
S'member'
p5310
S'on'
p5311
tp5312
F0.00017853954650955185
s(S'was'
p5313
S'involved'
p5314
S'[[adj]]'
p5315
tp5316
F0.00017853954650955185
s(S'be'
p5317
S'appointed'
p5318
S'to'
p5319
tp5320
F0.00017853954650955185
s(S'[[adj]]'
p5321
S'seasons'
p5322
S'[[num]]'
p5323
tp5324
F0.0003570790930191037
s(S'[[det]]'
p5325
S'member'
p5326
S'as'
p5327
tp5328
F0.00017853954650955185
s(g2756
g2757
S'who'
p5329
tp5330
F0.00017853954650955185
s(S'has'
p5331
S'given'
p5332
S'[[adj]]'
p5333
tp5334
F0.00017853954650955185
s(S'became'
p5335
S'involved'
p5336
S'for'
p5337
tp5338
F0.00017853954650955185
s(S'board'
p5339
S'member'
p5340
S'for'
p5341
tp5342
F0.0003570790930191037
s(S'[[num]]'
p5343
S'seasons'
p5344
S'with'
p5345
tp5346
F0.002678093197643278
s(S'player'
p5347
g1561
g1562
tp5348
F0.00017853954650955185
s(S'again'
p5349
S'represented'
p5350
S'[[det]]'
p5351
tp5352
F0.00017853954650955185
s(S'later'
p5353
S'served'
p5354
S'as'
p5355
tp5356
F0.00017853954650955185
s(S'became'
p5357
S'involved'
p5358
S'with'
p5359
tp5360
F0.00017853954650955185
s(S'spent'
p5361
S'[[num]]'
p5362
S'[[adj]]'
p5363
tp5364
F0.0005356186395286556
s(S'who'
p5365
g1939
g1940
tp5366
F0.0010712372790573112
s(S'is'
p5367
S'selected'
p5368
S'by'
p5369
tp5370
F0.00017853954650955185
s(g1762
g1763
S'games'
p5371
tp5372
F0.00017853954650955185
s(g2273
S'career'
p5373
S'with'
p5374
tp5375
F0.001249776825566863
s(S'later'
p5376
S'coached'
p5377
S'at'
p5378
tp5379
F0.00017853954650955185
s(S'also'
p5380
S'appointed'
p5381
S'as'
p5382
tp5383
F0.00017853954650955185
s(S'twice'
p5384
S'served'
p5385
S'as'
p5386
tp5387
F0.00017853954650955185
s(S'to'
p5388
S'sign'
p5389
S'with'
p5390
tp5391
F0.00017853954650955185
s(g2638
g2639
S'in'
p5392
tp5393
F0.00017853954650955185
s(S'rules'
p5394
S'footballer'
p5395
S'for'
p5396
tp5397
F0.0003570790930191037
s(S'attended'
p5398
S'[[con]]'
p5399
g2163
tp5400
F0.0008926977325477593
s(S'[[con]]'
p5401
S'appointed'
p5402
S'to'
p5403
tp5404
F0.00017853954650955185
s(S'[[adj]]'
p5405
S'board'
p5406
S'member'
p5407
tp5408
F0.0008926977325477593
s(S'[[adj]]'
p5409
S'debut'
p5410
S'on'
p5411
tp5412
F0.00017853954650955185
s(g4196
g4197
S'football'
p5413
tp5414
F0.0008926977325477593
s(S'later'
p5415
S'earned'
p5416
S'at'
p5417
tp5418
F0.00017853954650955185
s(S'[[det]]'
p5419
g4221
g45
tp5420
F0.00017853954650955185
s(S'already'
p5421
S'played'
p5422
S'for'
p5423
tp5424
F0.00017853954650955185
s(S'never'
p5425
S'played'
p5426
S'in'
p5427
tp5428
F0.0005356186395286556
s(g3171
g3172
g4244
tp5429
F0.006248884127834315
s(S'previously'
p5430
S'played'
p5431
S'at'
p5432
tp5433
F0.00017853954650955185
s(S'[[adj]]'
p5434
S'director'
p5435
S'at'
p5436
tp5437
F0.0005356186395286556
s(S'[[num]]'
p5438
S'season'
p5439
S'at'
p5440
tp5441
F0.0007141581860382074
s(S'is'
p5442
S'head'
p5443
S'of'
p5444
tp5445
F0.00017853954650955185
s(S'was'
p5446
g3663
g3664
tp5447
F0.0016068559185859668
s(S'that'
p5448
S'won'
p5449
S'[[prp]]'
p5450
tp5451
F0.00017853954650955185
s(S'[[det]]'
p5452
g4495
g4496
tp5453
F0.0003570790930191037
s(S'best'
p5454
S'season'
p5455
S'as'
p5456
tp5457
F0.00017853954650955185
s(g432
g433
S'for'
p5458
tp5459
F0.0007141581860382074
s(S'then'
p5460
S'transferred'
p5461
S'as'
p5462
tp5463
F0.00017853954650955185
s(S'then'
p5464
S'came'
p5465
S'to'
p5466
tp5467
F0.00017853954650955185
s(S'rugby'
p5468
S'union'
p5469
S'player'
p5470
tp5471
F0.0005356186395286556
s(S'where'
p5472
S'played'
p5473
S'[[con]]'
p5474
tp5475
F0.00017853954650955185
s(S'was'
p5476
S'involved'
p5477
S'to'
p5478
tp5479
F0.00017853954650955185
s(S'played'
p5480
g4266
g4267
tp5481
F0.00017853954650955185
s(S'had'
p5482
S'stints'
p5483
S'in'
p5484
tp5485
F0.00017853954650955185
s(S'born'
p5486
g2501
g2502
tp5487
F0.00017853954650955185
s(S'mainly'
p5488
S'played'
p5489
S'with'
p5490
tp5491
F0.00017853954650955185
s(S'first'
p5492
S'came'
p5493
S'in'
p5494
tp5495
F0.00017853954650955185
s(S'[[adj]]'
p5496
S'career'
p5497
S'[[num]]'
p5498
tp5499
F0.0003570790930191037
s(S'then'
p5500
S'attended'
p5501
S'[[con]]'
p5502
tp5503
F0.00017853954650955185
s(S'[[prp]]'
p5504
S'debut'
p5505
S'with'
p5506
tp5507
F0.00017853954650955185
s(S'is'
p5508
S'member'
p5509
S'of'
p5510
tp5511
F0.00017853954650955185
s(S'[[adj]]'
p5512
S'rules'
p5513
S'footballer'
p5514
tp5515
F0.002499553651133726
s(g2582
g2583
g4887
tp5516
F0.0005356186395286556
s(S'had'
p5517
S'coached'
p5518
S'at'
p5519
tp5520
F0.00017853954650955185
s(S'who'
p5521
S'joined'
p5522
S'from'
p5523
tp5524
F0.00017853954650955185
s(S'[[num]]'
p5525
S'returned'
p5526
S'to'
p5527
tp5528
F0.00017853954650955185
s(S'quarterback'
p5529
g3211
g3212
tp5530
F0.00017853954650955185
s(g848
g849
S'by'
p5531
tp5532
F0.00017853954650955185
s(g4363
g4364
S'played'
p5533
tp5534
F0.0003570790930191037
s(S'become'
p5535
S'head'
p5536
S'coach'
p5537
tp5538
F0.00017853954650955185
s(S'born'
p5539
S'[[num]]'
p5540
S'[[con]]'
p5541
tp5542
F0.00017853954650955185
s(S'were'
p5543
S'released'
p5544
S'by'
p5545
tp5546
F0.00017853954650955185
s(S'[[pro]]'
p5547
S'won'
p5548
S'[[num]]'
p5549
tp5550
F0.00017853954650955185
s(S'has'
p5551
S'served'
p5552
S'[[det]]'
p5553
tp5554
F0.00017853954650955185
s(S'then'
p5555
S'moved'
p5556
S'back'
p5557
tp5558
F0.00017853954650955185
s(S'[[det]]'
p5559
S'career'
p5560
S'on'
p5561
tp5562
F0.00017853954650955185
s(g1469
g1470
S'with'
p5563
tp5564
F0.0016068559185859668
s(S'[[mod]]'
p5565
S'play'
p5566
S'for'
p5567
tp5568
F0.00017853954650955185
s(S'[[det]]'
p5569
S'basketball'
p5570
S'player'
p5571
tp5572
F0.00017853954650955185
s(S'rules'
p5573
S'footballer'
p5574
S'playing'
p5575
tp5576
F0.0003570790930191037
s(S'[[adj]]'
p5577
S'quarterback'
p5578
S'to'
p5579
tp5580
F0.00017853954650955185
s(S'[[adj]]'
p5581
S'season'
p5582
S'as'
p5583
tp5584
F0.00017853954650955185
s(S'[[adj]]'
p5585
S'served'
p5586
S'as'
p5587
tp5588
F0.00017853954650955185
s(S'as'
p5589
S'[[adj]]'
p5590
S'end'
p5591
tp5592
F0.00017853954650955185
s(S'later'
p5593
S'appointed'
p5594
S'[[pro]]'
p5595
tp5596
F0.00017853954650955185
s(S'is'
p5597
S'appointed'
p5598
S'[[con]]'
p5599
tp5600
F0.00017853954650955185
s(S'also'
p5601
S'coached'
p5602
S'[[det]]'
p5603
tp5604
F0.00017853954650955185
s(S'[[prp]]'
p5605
g2071
g1781
tp5606
F0.00017853954650955185
s(S'[[det]]'
p5607
S'coach'
p5608
S'[[num]]'
p5609
tp5610
F0.00017853954650955185
s(S'also'
p5611
S'served'
p5612
S'[[adj]]'
p5613
tp5614
F0.00017853954650955185
s(S'[[mod]]'
p5615
S'play'
p5616
S'again'
p5617
tp5618
F0.00017853954650955185
s(S'rules'
p5619
S'football'
p5620
S'with'
p5621
tp5622
F0.00017853954650955185
s(g5004
g5005
S'back'
p5623
tp5624
F0.0003570790930191037
s(g4503
g3935
g3936
tp5625
F0.0010712372790573112
s(S'[[con]]'
p5626
S'has'
p5627
S'served'
p5628
tp5629
F0.00017853954650955185
s(S'then'
p5630
S'picked'
p5631
S'up'
p5632
tp5633
F0.00017853954650955185
s(S'[[mod]]'
p5634
S'play'
p5635
S'from'
p5636
tp5637
F0.00017853954650955185
s(g5406
g5407
S'of'
p5638
tp5639
F0.0005356186395286556
s(S'was'
p5640
S'recruited'
p5641
S'from'
p5642
tp5643
F0.00017853954650955185
s(g2853
g5307
S'at'
p5644
tp5645
F0.0014283163720764148
s(S'played'
p5646
g5321
g5322
tp5647
F0.001249776825566863
s(S'has'
p5648
S'served'
p5649
S'where'
p5650
tp5651
F0.00017853954650955185
s(S'[[con]]'
p5652
S'applied'
p5653
S'to'
p5654
tp5655
F0.00017853954650955185
s(S'then'
p5656
S'joined'
p5657
S'with'
p5658
tp5659
F0.00017853954650955185
s(S'as'
p5660
S'won'
p5661
S'[[det]]'
p5662
tp5663
F0.00017853954650955185
s(S'played'
p5664
S'[[prp]]'
p5665
S'career'
p5666
tp5667
F0.0003570790930191037
s(S'twice'
p5668
S'served'
p5669
S'in'
p5670
tp5671
F0.00017853954650955185
s(S'rules'
p5672
g3554
g3555
tp5673
F0.00017853954650955185
s(S'made'
p5674
S'head'
p5675
S'of'
p5676
tp5677
F0.00017853954650955185
s(S'[[det]]'
p5678
S'coach'
p5679
S'[[det]]'
p5680
tp5681
F0.00017853954650955185
s(S'[[prp]]'
p5682
S'career'
p5683
S'in'
p5684
tp5685
F0.0008926977325477593
s(S'was'
p5686
S'appointed'
p5687
S'at'
p5688
tp5689
F0.00017853954650955185
s(g194
g195
g380
tp5690
F0.00017853954650955185
s(S'has'
p5691
S'played'
p5692
S'most'
p5693
tp5694
F0.00017853954650955185
s(S'played'
p5695
S'forward'
p5696
S'for'
p5697
tp5698
F0.00017853954650955185
s(S'[[det]]'
p5699
S'member'
p5700
S'who'
p5701
tp5702
F0.00017853954650955185
s(S'[[con]]'
p5703
S'played'
p5704
S'with'
p5705
tp5706
F0.0005356186395286556
s(S'soon'
p5707
S'signed'
p5708
S'with'
p5709
tp5710
F0.00017853954650955185
s(g169
S'debut'
p5711
S'in'
p5712
tp5713
F0.00017853954650955185
s(S'first'
p5714
S'attended'
p5715
S'[[det]]'
p5716
tp5717
F0.00017853954650955185
s(S'was'
p5718
S'selected'
p5719
S'for'
p5720
tp5721
F0.00017853954650955185
s(S'later'
p5722
S'play'
p5723
S'for'
p5724
tp5725
F0.00017853954650955185
s(S'[[det]]'
p5726
S'game'
p5727
S'against'
p5728
tp5729
F0.00017853954650955185
s(S'currently'
p5730
S'plays'
p5731
S'from'
p5732
tp5733
F0.00017853954650955185
s(S'[[adj]]'
p5734
S'coach'
p5735
S'[[con]]'
p5736
tp5737
F0.00017853954650955185
s(S'football'
p5738
S'safety'
p5739
S'for'
p5740
tp5741
F0.00017853954650955185
s(g2341
g2342
g5176
tp5742
F0.0058918050348152114
s(g1648
g1649
g5038
tp5743
F0.00017853954650955185
s(S'been'
p5744
S'appointed'
p5745
S'as'
p5746
tp5747
F0.00017853954650955185
s(S'born'
p5748
S'[[num]]'
p5749
S'head'
p5750
tp5751
F0.00017853954650955185
s(S'before'
p5752
S'playing'
p5753
S'with'
p5754
tp5755
F0.00017853954650955185
s(g2977
g2978
S'for'
p5756
tp5757
F0.00017853954650955185
s(g2634
g2635
g1907
tp5758
F0.00017853954650955185
s(S'[[num]]'
p5759
S'goals'
p5760
S'[[con]]'
p5761
tp5762
F0.0003570790930191037
s(S'now'
p5763
S'plays'
p5764
S'for'
p5765
tp5766
F0.00017853954650955185
s(S'then'
p5767
S'signed'
p5768
S'with'
p5769
tp5770
F0.00017853954650955185
s(S'while'
p5771
S'returned'
p5772
S'to'
p5773
tp5774
F0.00017853954650955185
s(S'[[prp]]'
p5775
g4829
g4830
tp5776
F0.0010712372790573112
s(S'[[adj]]'
p5777
S'debut'
p5778
S'away'
p5779
tp5780
F0.00017853954650955185
s(g4611
g4612
S'for'
p5781
tp5782
F0.00017853954650955185
s(S'had'
p5783
S'served'
p5784
S'on'
p5785
tp5786
F0.00017853954650955185
s(S'again'
p5787
S'named'
p5788
S'by'
p5789
tp5790
F0.00017853954650955185
s(S'then'
p5791
S'selected'
p5792
S'against'
p5793
tp5794
F0.00017853954650955185
s(S'football'
p5795
S'player'
p5796
S'in'
p5797
tp5798
F0.0007141581860382074
s(S'become'
p5799
S'head'
p5800
S'of'
p5801
tp5802
F0.00017853954650955185
s(S'made'
p5803
S'debut'
p5804
S'with'
p5805
tp5806
F0.00017853954650955185
s(S'[[con]]'
p5807
S'returned'
p5808
S'on'
p5809
tp5810
F0.00017853954650955185
s(S'be'
p5811
S'appointed'
p5812
S'at'
p5813
tp5814
F0.00017853954650955185
s(S'in'
p5815
g5726
g5727
tp5816
F0.0005356186395286556
s(S'to'
p5817
S'sign'
p5818
S'[[pro]]'
p5819
tp5820
F0.00017853954650955185
s(S'who'
p5821
S'played'
p5822
g4582
tp5823
F0.0005356186395286556
s(S'college'
p5824
S'basketball'
p5825
S'for'
p5826
tp5827
F0.00017853954650955185
s(S'[[num]]'
p5828
S'stints'
p5829
S'with'
p5830
tp5831
F0.00017853954650955185
s(S'again'
p5832
S'returned'
p5833
S'to'
p5834
tp5835
F0.00017853954650955185
s(S'is'
p5836
S'signed'
p5837
S'with'
p5838
tp5839
F0.00017853954650955185
s(S'had'
p5840
S'resigned'
p5841
S'from'
p5842
tp5843
F0.00017853954650955185
s(S'is'
p5844
S'playing'
p5845
S'for'
p5846
tp5847
F0.00017853954650955185
s(S'[[det]]'
p5848
S'career'
p5849
S'with'
p5850
tp5851
F0.0003570790930191037
s(S'also'
p5852
S'involved'
p5853
S'with'
p5854
tp5855
F0.00017853954650955185
s(S'[[prp]]'
p5856
S'career'
p5857
S'[[num]]'
p5858
tp5859
F0.00017853954650955185
s(S'[[adj]]'
p5860
S'debut'
p5861
S'[[num]]'
p5862
tp5863
F0.00017853954650955185
s(S'seasons'
p5864
S'[[num]]'
p5865
S'games'
p5866
tp5867
F0.0019639350116050706
s(S'[[mod]]'
p5868
S'retire'
p5869
S'from'
p5870
tp5871
F0.00017853954650955185
s(S'[[prp]]'
p5872
S'[[adj]]'
p5873
S'contract'
p5874
tp5875
F0.0007141581860382074
s(g4496
g4497
S'games'
p5876
tp5877
F0.0003570790930191037
s(S'[[prp]]'
p5878
g3763
g3764
tp5879
F0.0003570790930191037
s(g1702
g2475
S'head'
p5880
tp5881
F0.00017853954650955185
s(S'appointed'
p5882
S'to'
p5883
S'coach'
p5884
tp5885
F0.00017853954650955185
s(S'born'
p5886
g3457
g3458
tp5887
F0.0007141581860382074
s(S'goals'
p5888
S'in'
p5889
S'[[num]]'
p5890
tp5891
F0.00017853954650955185
s(S'appointed'
p5892
S'as'
p5893
S'coach'
p5894
tp5895
F0.0003570790930191037
s(S'[[adj]]'
p5896
S'player'
p5897
S'from'
p5898
tp5899
F0.00017853954650955185
s(S'then'
p5900
S'head'
p5901
S'of'
p5902
tp5903
F0.00017853954650955185
s(S'spent'
p5904
S'just'
p5905
S'[[num]]'
p5906
tp5907
F0.00017853954650955185
s(S'then'
p5908
S'named'
p5909
S'[[det]]'
p5910
tp5911
F0.00017853954650955185
s(g536
g537
S'from'
p5912
tp5913
F0.00017853954650955185
s(S'also'
p5914
S'served'
p5915
S'[[con]]'
p5916
tp5917
F0.00017853954650955185
s(S'became'
p5918
S'head'
p5919
S'for'
p5920
tp5921
F0.00017853954650955185
s(S'played'
p5922
g1882
g1883
tp5923
F0.00017853954650955185
s(S'[[det]]'
p5924
S'member'
p5925
S'has'
p5926
tp5927
F0.00017853954650955185
s(S'born'
p5928
S'[[num]]'
p5929
g3125
tp5930
F0.00017853954650955185
s(S'[[con]]'
p5931
g5434
g5435
tp5932
F0.0005356186395286556
s(g3422
g3423
S'[[adj]]'
p5933
tp5934
F0.0003570790930191037
s(S'[[con]]'
p5935
S'led'
p5936
S'[[det]]'
p5937
tp5938
F0.00017853954650955185
s(S'be'
p5939
S'returning'
p5940
S'to'
p5941
tp5942
F0.00017853954650955185
s(S'[[con]]'
p5943
S'signed'
p5944
S'with'
p5945
tp5946
F0.0003570790930191037
s(S'[[adj]]'
p5947
S'captain'
p5948
S'for'
p5949
tp5950
F0.00017853954650955185
s(S'then'
p5951
S'moved'
p5952
S'over'
p5953
tp5954
F0.00017853954650955185
s(S'where'
p5955
S'served'
p5956
S'in'
p5957
tp5958
F0.00017853954650955185
s(S'as'
p5959
S'[[adj]]'
p5960
S'defender'
p5961
tp5962
F0.00017853954650955185
s(S'being'
p5963
S'signed'
p5964
S'by'
p5965
tp5966
F0.00017853954650955185
s(S'[[adj]]'
p5967
S'playing'
p5968
S'with'
p5969
tp5970
F0.00017853954650955185
s(S'been'
p5971
S'chosen'
p5972
S'at'
p5973
tp5974
F0.00017853954650955185
s(S'then'
p5975
S'played'
p5976
S'in'
p5977
tp5978
F0.0003570790930191037
s(g70
g71
S'who'
p5979
tp5980
F0.0003570790930191037
s(g2312
g2681
g5092
tp5981
F0.00017853954650955185
s(S'was'
p5982
S'involved'
p5983
S'for'
p5984
tp5985
F0.00017853954650955185
s(S'also'
p5986
S'played'
p5987
S'[[det]]'
p5988
tp5989
F0.0008926977325477593
s(S'also'
p5990
S'previously'
p5991
S'played'
p5992
tp5993
F0.0005356186395286556
s(g5288
g5289
S'later'
p5994
tp5995
F0.00017853954650955185
s(g4487
g4488
g4505
tp5996
F0.00017853954650955185
s(S'entered'
p5997
S'[[con]]'
p5998
S'was'
p5999
tp6000
F0.00017853954650955185
s(S'[[det]]'
p6001
S'member'
p6002
S'to'
p6003
tp6004
F0.00017853954650955185
s(S'[[det]]'
p6005
S'game'
p6006
S'with'
p6007
tp6008
F0.00017853954650955185
s(S'with'
p6009
S'[[det]]'
p6010
S'team'
p6011
tp6012
F0.00017853954650955185
s(S'[[con]]'
p6013
S'[[adj]]'
p6014
S'played'
p6015
tp6016
F0.00017853954650955185
s(S'also'
p6017
S'plays'
p6018
S'with'
p6019
tp6020
F0.00017853954650955185
s(S'[[adj]]'
p6021
S'played'
p6022
S'in'
p6023
tp6024
F0.00017853954650955185
s(S'[[adj]]'
p6025
S'football'
p6026
S'as'
p6027
tp6028
F0.0003570790930191037
s(S'[[adj]]'
p6029
S'stints'
p6030
S'in'
p6031
tp6032
F0.00017853954650955185
s(S'has'
p6033
S'given'
p6034
S'at'
p6035
tp6036
F0.00017853954650955185
s(S'[[adj]]'
p6037
S'game'
p6038
S'to'
p6039
tp6040
F0.00017853954650955185
s(S'who'
p6041
S'played'
p6042
S'for'
p6043
tp6044
F0.00946259596500625
s(S'college'
p6045
S'football'
p6046
S'with'
p6047
tp6048
F0.00017853954650955185
s(S'then'
p6049
S'coached'
p6050
S'for'
p6051
tp6052
F0.00017853954650955185
s(g4401
g4402
g3544
tp6053
F0.00017853954650955185
s(g2716
g2717
S'appearances'
p6054
tp6055
F0.00017853954650955185
s(S'of'
p6056
S'[[det]]'
p6057
S'team'
p6058
tp6059
F0.0003570790930191037
s(S'player'
p6060
S'who'
p6061
S'currently'
p6062
tp6063
F0.0017853954650955187
s(S'was'
p6064
S'appointed'
p6065
S'to'
p6066
tp6067
F0.0003570790930191037
s(g4281
g4009
g4010
tp6068
F0.0005356186395286556
s(g4320
g4321
S'for'
p6069
tp6070
F0.0008926977325477593
s(S'is'
p6071
S'involved'
p6072
S'[[con]]'
p6073
tp6074
F0.00017853954650955185
s(S'[[det]]'
p6075
S'award'
p6076
S'from'
p6077
tp6078
F0.00017853954650955185
s(S'to'
p6079
S'play'
p6080
S'in'
p6081
tp6082
F0.0005356186395286556
s(g5469
g5470
S'for'
p6083
tp6084
F0.0005356186395286556
s(S'also'
p6085
S'selected'
p6086
S'to'
p6087
tp6088
F0.00017853954650955185
s(g5058
g3827
g3828
tp6089
F0.00017853954650955185
s(S'[[det]]'
p6090
g968
g969
tp6091
F0.00017853954650955185
s(g3159
g3160
g2386
tp6092
F0.00017853954650955185
s(S'where'
p6093
S'led'
p6094
S'[[det]]'
p6095
tp6096
F0.00017853954650955185
s(S'then'
p6097
S'played'
p6098
S'[[det]]'
p6099
tp6100
F0.00017853954650955185
s(S'had'
p6101
S'moved'
p6102
S'on'
p6103
tp6104
F0.00017853954650955185
s(S'has'
p6105
S'played'
p6106
S'at'
p6107
tp6108
F0.00017853954650955185
s(S'also'
p6109
S'play'
p6110
S'[[num]]'
p6111
tp6112
F0.0005356186395286556
s(S'kicked'
p6113
S'[[num]]'
p6114
S'of'
p6115
tp6116
F0.00017853954650955185
s(S'was'
p6117
S'originally'
p6118
S'drafted'
p6119
tp6120
F0.0008926977325477593
s(g3828
g3829
S'at'
p6121
tp6122
F0.00017853954650955185
s(S'was'
p6123
S'recruited'
p6124
S'for'
p6125
tp6126
F0.00017853954650955185
s(S'played'
p6127
g5959
g5960
tp6128
F0.0005356186395286556
s(S'[[det]]'
p6129
S'year'
p6130
S'for'
p6131
tp6132
F0.00017853954650955185
s(S'never'
p6133
S'played'
p6134
S'[[con]]'
p6135
tp6136
F0.00017853954650955185
s(S'[[con]]'
p6137
S'[[adj]]'
p6138
S'coordinator'
p6139
tp6140
F0.00017853954650955185
s(S'[[prp]]'
p6141
g4235
g4236
tp6142
F0.0008926977325477593
s(g6138
g6139
S'for'
p6143
tp6144
F0.00017853954650955185
s(S'[[adj]]'
p6145
S'contract'
p6146
S'for'
p6147
tp6148
F0.0003570790930191037
s(S'[[prp]]'
p6149
S'career'
p6150
S'from'
p6151
tp6152
F0.0003570790930191037
s(g4873
S'football'
p6153
S'at'
p6154
tp6155
F0.0008926977325477593
s(S'played'
p6156
g2223
g2224
tp6157
F0.00017853954650955185
s(S'signed'
p6158
S'[[det]]'
p6159
S'deal'
p6160
tp6161
F0.0005356186395286556
s(g1919
g1925
S'for'
p6162
tp6163
F0.00017853954650955185
s(S'when'
p6164
S'played'
p6165
S'for'
p6166
tp6167
F0.00017853954650955185
s(S'returned'
p6168
S'as'
p6169
S'head'
p6170
tp6171
F0.00017853954650955185
s(S'was'
p6172
S'moved'
p6173
S'for'
p6174
tp6175
F0.00017853954650955185
s(g1867
g1868
S'between'
p6176
tp6177
F0.00017853954650955185
s(S'[[prp]]'
p6178
S'debut'
p6179
S'[[con]]'
p6180
tp6181
F0.0005356186395286556
s(S'[[con]]'
p6182
S'attended'
p6183
S'[[con]]'
p6184
tp6185
F0.00017853954650955185
s(S'which'
p6186
S'led'
p6187
S'[[det]]'
p6188
tp6189
F0.00017853954650955185
s(S'[[adj]]'
p6190
S'played'
p6191
S'for'
p6192
tp6193
F0.0010712372790573112
s(S'[[det]]'
p6194
g2926
g1460
tp6195
F0.0005356186395286556
s(g780
g781
g2641
tp6196
F0.0014283163720764148
s(S'association'
p6197
S'football'
p6198
S'who'
p6199
tp6200
F0.00017853954650955185
s(S'[[det]]'
p6201
g3475
g65
tp6202
F0.0003570790930191037
s(S'then'
p6203
S'coached'
p6204
S'[[det]]'
p6205
tp6206
F0.00017853954650955185
s(g4567
g4568
S'debut'
p6207
tp6208
F0.00017853954650955185
s(S'played'
p6209
g3090
g3091
tp6210
F0.00017853954650955185
s(S'ndash'
p6211
g1987
g1988
tp6212
F0.00017853954650955185
s(S'[[adj]]'
p6213
S'member'
p6214
S'[[num]]'
p6215
tp6216
F0.00017853954650955185
s(S'[[con]]'
p6217
S'served'
p6218
S'[[det]]'
p6219
tp6220
F0.00017853954650955185
s(S'best'
p6221
S'season'
p6222
S'with'
p6223
tp6224
F0.00017853954650955185
s(S'[[det]]'
p6225
S'life'
p6226
S'member'
p6227
tp6228
F0.0005356186395286556
s(S'[[num]]'
p6229
S'year'
p6230
S'[[adj]]'
p6231
tp6232
F0.00017853954650955185
s(S'[[prp]]'
p6233
S'[[adj]]'
p6234
S'games'
p6235
tp6236
F0.00017853954650955185
s(g5905
g5906
S'season'
p6237
tp6238
F0.00017853954650955185
s(S'starting'
p6239
S'quarterback'
p6240
S'at'
p6241
tp6242
F0.00017853954650955185
s(S'later'
p6243
S'attended'
p6244
S'at'
p6245
tp6246
F0.00017853954650955185
s(g389
g390
g169
tp6247
F0.0007141581860382074
s(S'[[adj]]'
p6248
S'receiver'
p6249
S'[[con]]'
p6250
tp6251
F0.00017853954650955185
s(S'rules'
p6252
S'footballer'
p6253
S'currently'
p6254
tp6255
F0.00017853954650955185
s(S'was'
p6256
S'selected'
p6257
S'to'
p6258
tp6259
F0.00017853954650955185
s(S'has'
p6260
S'won'
p6261
S'with'
p6262
tp6263
F0.00017853954650955185
s(S'to'
p6264
S'coach'
p6265
S'[[num]]'
p6266
tp6267
F0.00017853954650955185
s(S'[[prp]]'
p6268
S'career'
p6269
S'before'
p6270
tp6271
F0.00017853954650955185
s(S'was'
p6272
S'recruited'
p6273
S'[[con]]'
p6274
tp6275
F0.0003570790930191037
s(g1909
S'player'
p6276
S'in'
p6277
tp6278
F0.0003570790930191037
s(S'had'
p6279
g1314
g1315
tp6280
F0.00017853954650955185
s(S'football'
p6281
g3901
g3902
tp6282
F0.00017853954650955185
s(g2388
g3281
g3282
tp6283
F0.00017853954650955185
s(S'has'
p6284
S'joined'
p6285
S'[[det]]'
p6286
tp6287
F0.00017853954650955185
s(S'first'
p6288
S'played'
p6289
S'with'
p6290
tp6291
F0.00017853954650955185
s(S'then'
p6292
S'played'
p6293
S'professionally'
p6294
tp6295
F0.0003570790930191037
s(S'was'
p6296
S'signed'
p6297
S'as'
p6298
tp6299
F0.0007141581860382074
s(S'basketball'
p6300
S'player'
p6301
S'at'
p6302
tp6303
F0.00017853954650955185
s(S'previously'
p6304
S'played'
p6305
S'for'
p6306
tp6307
F0.0008926977325477593
s(g1264
g1265
S'professionally'
p6308
tp6309
F0.0005356186395286556
s(S'has'
p6310
S'earned'
p6311
S'[[det]]'
p6312
tp6313
F0.00017853954650955185
s(S'[[num]]'
p6314
S'played'
p6315
S'at'
p6316
tp6317
F0.00017853954650955185
s(g1303
g1304
S'ndash'
p6318
tp6319
F0.0005356186395286556
s(S'to'
p6320
S'play'
p6321
S'with'
p6322
tp6323
F0.00017853954650955185
s(S'player'
p6324
S'playing'
p6325
S'in'
p6326
tp6327
F0.00017853954650955185
s(S'played'
p6328
g141
g142
tp6329
F0.002678093197643278
s(S'played'
p6330
g6141
g4235
tp6331
F0.0005356186395286556
s(S'also'
p6332
S'played'
p6333
S'rules'
p6334
tp6335
F0.00017853954650955185
s(S'[[con]]'
p6336
S'signed'
p6337
S'up'
p6338
tp6339
F0.00017853954650955185
s(S'[[con]]'
p6340
S'appointed'
p6341
S'of'
p6342
tp6343
F0.00017853954650955185
s(S'played'
p6344
S'in'
p6345
S'games'
p6346
tp6347
F0.00017853954650955185
s(S'player'
p6348
S'who'
p6349
S'plays'
p6350
tp6351
F0.0016068559185859668
s(g2656
g2657
S'games'
p6352
tp6353
F0.00017853954650955185
s(S'[[det]]'
p6354
S'coach'
p6355
S'at'
p6356
tp6357
F0.00017853954650955185
s(S'was'
p6358
g1148
g1149
tp6359
F0.00017853954650955185
s(g2937
g2938
g4736
tp6360
F0.00017853954650955185
s(S'[[det]]'
p6361
g5281
g5282
tp6362
F0.00017853954650955185
s(g1941
g5200
S'for'
p6363
tp6364
F0.00017853954650955185
s(S'is'
p6365
g5569
g5570
tp6366
F0.00017853954650955185
s(S'was'
p6367
g671
g672
tp6368
F0.00017853954650955185
s(S'head'
p6369
S'coach'
p6370
S'[[num]]'
p6371
tp6372
F0.0003570790930191037
s(S'later'
p6373
S'won'
p6374
S'[[det]]'
p6375
tp6376
F0.00017853954650955185
s(g1023
g1024
g1303
tp6377
F0.0003570790930191037
s(S'also'
p6378
S'played'
p6379
S'over'
p6380
tp6381
F0.00017853954650955185
s(S'was'
p6382
S'signed'
p6383
S'[[con]]'
p6384
tp6385
F0.00017853954650955185
s(S'played'
p6386
g3909
g3910
tp6387
F0.00017853954650955185
s(S'[[adj]]'
p6388
S'season'
p6389
S'in'
p6390
tp6391
F0.00017853954650955185
s(S'later'
p6392
S'coached'
p6393
S'in'
p6394
tp6395
F0.00017853954650955185
s(S'later'
p6396
S'played'
p6397
S'[[det]]'
p6398
tp6399
F0.00017853954650955185
s(S'most'
p6400
S'[[num]]'
p6401
S'season'
p6402
tp6403
F0.0003570790930191037
s(S'to'
p6404
S'remain'
p6405
S'with'
p6406
tp6407
F0.00017853954650955185
s(S'[[num]]'
p6408
S'game'
p6409
S'in'
p6410
tp6411
F0.0005356186395286556
s(S'spent'
p6412
S'[[adj]]'
p6413
S'seasons'
p6414
tp6415
F0.0005356186395286556
s(S'while'
p6416
S'playing'
p6417
S'with'
p6418
tp6419
F0.00017853954650955185
s(S'became'
p6420
S'member'
p6421
S'for'
p6422
tp6423
F0.00017853954650955185
s(S'also'
p6424
S'led'
p6425
S'[[con]]'
p6426
tp6427
F0.00017853954650955185
s(S'has'
p6428
S'released'
p6429
S'[[adj]]'
p6430
tp6431
F0.00017853954650955185
s(S'started'
p6432
S'[[prp]]'
p6433
S'career'
p6434
tp6435
F0.0016068559185859668
s(S'as'
p6436
S'[[adj]]'
p6437
S'receiver'
p6438
tp6439
F0.00017853954650955185
s(g6226
g6227
S'[[det]]'
p6440
tp6441
F0.00017853954650955185
s(S'[[num]]'
p6442
S'season'
p6443
S'in'
p6444
tp6445
F0.0010712372790573112
s(S'been'
p6446
S'signed'
p6447
S'from'
p6448
tp6449
F0.00017853954650955185
s(S'was'
p6450
S'head'
p6451
g4015
tp6452
F0.00017853954650955185
s(S'first'
p6453
S'represented'
p6454
S'for'
p6455
tp6456
F0.00017853954650955185
s(g2804
g2805
S'at'
p6457
tp6458
F0.00017853954650955185
s(S'[[adj]]'
p6459
S'player'
p6460
S'[[det]]'
p6461
tp6462
F0.00017853954650955185
s(S'has'
p6463
S'taken'
p6464
S'[[det]]'
p6465
tp6466
F0.00017853954650955185
s(S'left'
p6467
S'to'
p6468
g5535
tp6469
F0.00017853954650955185
s(S'games'
p6470
g1765
g1766
tp6471
F0.00017853954650955185
s(g3788
g3789
S'currently'
p6472
tp6473
F0.00017853954650955185
s(g1315
g1316
S'head'
p6474
tp6475
F0.00017853954650955185
s(S'[[det]]'
p6476
g4429
g4430
tp6477
F0.00017853954650955185
s(S'later'
p6478
S'played'
p6479
S'for'
p6480
tp6481
F0.0005356186395286556
s(S'coach'
p6482
S'in'
p6483
S'who'
p6484
tp6485
F0.00017853954650955185
s(S'board'
p6486
S'member'
p6487
S'[[det]]'
p6488
tp6489
F0.0003570790930191037
s(S'also'
p6490
S'play'
p6491
S'in'
p6492
tp6493
F0.00017853954650955185
s(g3270
g3271
S'football'
p6494
tp6495
F0.00017853954650955185
s(S'later'
p6496
S'spent'
p6497
g4739
tp6498
F0.00017853954650955185
s(S'spent'
p6499
S'[[num]]'
p6500
S'season'
p6501
tp6502
F0.0014283163720764148
s(g1968
g1969
S'by'
p6503
tp6504
F0.0008926977325477593
s(S'also'
p6505
S'signed'
p6506
S'[[det]]'
p6507
tp6508
F0.00017853954650955185
s(S'to'
p6509
S'retire'
p6510
S'after'
p6511
tp6512
F0.00017853954650955185
s(S'then'
p6513
S'played'
p6514
S'[[num]]'
p6515
tp6516
F0.0014283163720764148
s(S'played'
p6517
g6009
g6010
tp6518
F0.00017853954650955185
s(S'[[con]]'
p6519
S'started'
p6520
S'[[det]]'
p6521
tp6522
F0.00017853954650955185
s(S'then'
p6523
S'served'
p6524
S'in'
p6525
tp6526
F0.00017853954650955185
s(S'being'
p6527
S'selected'
p6528
S'by'
p6529
tp6530
F0.00017853954650955185
s(S'being'
p6531
S'appointed'
p6532
S'as'
p6533
tp6534
F0.00017853954650955185
s(S'not'
p6535
S'played'
p6536
S'in'
p6537
tp6538
F0.00017853954650955185
s(S'first'
p6539
S'played'
p6540
S'against'
p6541
tp6542
F0.00017853954650955185
s(g326
g1012
S'playing'
p6543
tp6544
F0.00017853954650955185
s(S'named'
p6545
S'as'
p6546
S'[[adj]]'
p6547
tp6548
F0.00017853954650955185
s(S'was'
p6549
S'appointed'
p6550
S'was'
p6551
tp6552
F0.00017853954650955185
s(g2379
g2380
S'for'
p6553
tp6554
F0.00017853954650955185
s(S'[[prp]]'
p6555
S'career'
p6556
S'for'
p6557
tp6558
F0.0010712372790573112
s(S'became'
p6559
S'involved'
p6560
S'as'
p6561
tp6562
F0.00017853954650955185
s(S'[[det]]'
p6563
S'season'
p6564
S'at'
p6565
tp6566
F0.0003570790930191037
s(S'[[adj]]'
p6567
S'seasons'
p6568
S'for'
p6569
tp6570
F0.0008926977325477593
s(S'was'
p6571
S'selected'
p6572
S'after'
p6573
tp6574
F0.00017853954650955185
s(S'also'
p6575
S'played'
p6576
g6567
tp6577
F0.0008926977325477593
s(S'was'
p6578
S'joined'
p6579
S'[[det]]'
p6580
tp6581
F0.00017853954650955185
s(S'[[adj]]'
p6582
S'season'
p6583
S'for'
p6584
tp6585
F0.00017853954650955185
s(S'also'
p6586
S'appointed'
p6587
S'at'
p6588
tp6589
F0.00017853954650955185
s(S'[[num]]'
p6590
S'games'
p6591
S'against'
p6592
tp6593
F0.0007141581860382074
s(S'had'
p6594
S'joined'
p6595
S'of'
p6596
tp6597
F0.00017853954650955185
s(g788
g789
S'from'
p6598
tp6599
F0.00017853954650955185
s(S'[[num]]'
p6600
S'served'
p6601
S'on'
p6602
tp6603
F0.00017853954650955185
s(S'[[adj]]'
p6604
S'served'
p6605
S'for'
p6606
tp6607
F0.00017853954650955185
s(S'was'
p6608
S'named'
p6609
S'[[adj]]'
p6610
tp6611
F0.00017853954650955185
s(S'spent'
p6612
S'[[det]]'
p6613
S'[[num]]'
p6614
tp6615
F0.002678093197643278
s(g1713
g1714
S'played'
p6616
tp6617
F0.0007141581860382074
s(g4245
g3337
g3338
tp6618
F0.0033922513836814857
s(S'[[det]]'
p6619
S'[[adj]]'
p6620
S'games'
p6621
tp6622
F0.0005356186395286556
s(S'was'
p6623
S'coach'
p6624
S'at'
p6625
tp6626
F0.00017853954650955185
s(S'was'
p6627
S'moved'
p6628
S'back'
p6629
tp6630
F0.00017853954650955185
s(g1748
g1749
S'seasons'
p6631
tp6632
F0.0019639350116050706
s(S'[[mod]]'
p6633
S'play'
p6634
S'against'
p6635
tp6636
F0.00017853954650955185
s(g3126
g3127
S'footballer'
p6637
tp6638
F0.0005356186395286556
s(g2989
g2990
S'date'
p6639
tp6640
F0.00017853954650955185
s(S'football'
p6641
g1263
g1264
tp6642
F0.0003570790930191037
s(S'played'
p6643
S'football'
p6644
S'in'
p6645
tp6646
F0.0003570790930191037
s(S'[[det]]'
p6647
S'contract'
p6648
S'for'
p6649
tp6650
F0.00017853954650955185
s(S'also'
p6651
S'served'
p6652
S'of'
p6653
tp6654
F0.00017853954650955185
s(S'drafted'
p6655
S'[[adj]]'
p6656
S'with'
p6657
tp6658
F0.00017853954650955185
s(S'again'
p6659
S'played'
p6660
S'for'
p6661
tp6662
F0.00017853954650955185
s(S'best'
p6663
S'player'
p6664
S'in'
p6665
tp6666
F0.00017853954650955185
s(g6349
g6350
S'with'
p6667
tp6668
F0.00017853954650955185
s(S'[[prp]]'
p6669
S'career'
p6670
S'as'
p6671
tp6672
F0.0003570790930191037
s(g1908
g1909
g6276
tp6673
F0.00017853954650955185
s(S'played'
p6674
g4133
g4134
tp6675
F0.0005356186395286556
s(S'also'
p6676
S'won'
p6677
S'from'
p6678
tp6679
F0.00017853954650955185
s(S'left'
p6680
S'to'
p6681
S'[[det]]'
p6682
tp6683
F0.0007141581860382074
s(S'also'
p6684
S'signed'
p6685
S'for'
p6686
tp6687
F0.00017853954650955185
s(S'more'
p6688
S'seasons'
p6689
S'with'
p6690
tp6691
F0.0003570790930191037
s(S'footballer'
p6692
g910
g911
tp6693
F0.00017853954650955185
s(S'also'
p6694
S'selected'
p6695
S'as'
p6696
tp6697
F0.00017853954650955185
s(S'be'
p6698
S'transferred'
p6699
S'to'
p6700
tp6701
F0.00017853954650955185
s(g2401
g2402
S'held'
p6702
tp6703
F0.0003570790930191037
s(S'being'
p6704
S'transferred'
p6705
S'to'
p6706
tp6707
F0.00017853954650955185
s(g118
g119
S'receiver'
p6708
tp6709
F0.001249776825566863
s(S'footballer'
p6710
g5260
g5261
tp6711
F0.00017853954650955185
s(S'also'
p6712
S'led'
p6713
S'[[det]]'
p6714
tp6715
F0.00017853954650955185
s(g5300
g5301
S'[[con]]'
p6716
tp6717
F0.003749330476700589
s(S'in'
p6718
g463
g464
tp6719
F0.0003570790930191037
s(S'to'
p6720
S'join'
p6721
S'[[num]]'
p6722
tp6723
F0.00017853954650955185
s(S'who'
p6724
S'served'
p6725
S'with'
p6726
tp6727
F0.00017853954650955185
s(S'named'
p6728
g4151
g4152
tp6729
F0.0005356186395286556
s(S'upon'
p6730
S'returning'
p6731
S'as'
p6732
tp6733
F0.00017853954650955185
s(S'also'
p6734
S'playing'
p6735
S'in'
p6736
tp6737
F0.00017853954650955185
s(g2068
g2069
S'games'
p6738
tp6739
F0.0003570790930191037
s(S'[[det]]'
p6740
S'member'
p6741
S'when'
p6742
tp6743
F0.00017853954650955185
s(S'[[adj]]'
p6744
S'debut'
p6745
S'to'
p6746
tp6747
F0.00017853954650955185
s(S'[[adj]]'
p6748
S'player'
p6749
S'for'
p6750
tp6751
F0.00017853954650955185
s(S'league'
p6752
S'debut'
p6753
S'in'
p6754
tp6755
F0.0003570790930191037
s(S'since'
p6756
S'played'
p6757
S'for'
p6758
tp6759
F0.00017853954650955185
s(S'[[adj]]'
p6760
S'attended'
p6761
S'[[det]]'
p6762
tp6763
F0.00017853954650955185
s(S'played'
p6764
S'with'
p6765
S'team'
p6766
tp6767
F0.0003570790930191037
s(S'[[mod]]'
p6768
S'retire'
p6769
S'after'
p6770
tp6771
F0.00017853954650955185
s(S'football'
p6772
S'coach'
p6773
S'[[det]]'
p6774
tp6775
F0.00017853954650955185
s(S'[[det]]'
p6776
S'combined'
p6777
S'[[num]]'
p6778
tp6779
F0.00017853954650955185
s(S'has'
p6780
S'served'
p6781
S'[[con]]'
p6782
tp6783
F0.00017853954650955185
s(S'has'
p6784
S'coached'
p6785
S'[[con]]'
p6786
tp6787
F0.00017853954650955185
s(S'[[adj]]'
p6788
S'games'
p6789
S'over'
p6790
tp6791
F0.00017853954650955185
s(g6681
g6682
g4890
tp6792
F0.0007141581860382074
s(g3160
g2386
g2387
tp6793
F0.00017853954650955185
s(g2154
g2155
S'head'
p6794
tp6795
F0.0005356186395286556
s(S'later'
p6796
S'represented'
p6797
S'[[det]]'
p6798
tp6799
F0.00017853954650955185
s(S'quickly'
p6800
S'established'
p6801
S'[[pro]]'
p6802
tp6803
F0.00017853954650955185
s(S'played'
p6804
g4003
g1815
tp6805
F0.0008926977325477593
s(S'when'
p6806
S'was'
p6807
S'named'
p6808
tp6809
F0.00017853954650955185
s(S'[[adj]]'
p6810
S'list'
p6811
S'of'
p6812
tp6813
F0.00017853954650955185
s(S'was'
p6814
S'named'
p6815
S'by'
p6816
tp6817
F0.00017853954650955185
s(S'[[det]]'
p6818
S'coach'
p6819
S'of'
p6820
tp6821
F0.0003570790930191037
s(g2851
g4600
S'with'
p6822
tp6823
F0.00017853954650955185
s(g6468
g5535
g5536
tp6824
F0.00017853954650955185
s(S'again'
p6825
S'returned'
p6826
S'[[con]]'
p6827
tp6828
F0.00017853954650955185
s(S'was'
p6829
S'selected'
p6830
S'[[con]]'
p6831
tp6832
F0.00017853954650955185
s(S'[[num]]'
p6833
S'played'
p6834
S'for'
p6835
tp6836
F0.0003570790930191037
s(S'still'
p6837
S'playing'
p6838
S'for'
p6839
tp6840
F0.00017853954650955185
s(S'became'
p6841
S'coach'
p6842
S'[[det]]'
p6843
tp6844
F0.00017853954650955185
s(g6656
g6657
S'played'
p6845
tp6846
F0.00017853954650955185
s(S'formerly'
p6847
S'played'
p6848
S'[[con]]'
p6849
tp6850
F0.00017853954650955185
s(g2725
g3056
S'forward'
p6851
tp6852
F0.0003570790930191037
s(S'also'
p6853
S'play'
p6854
S'for'
p6855
tp6856
F0.00017853954650955185
s(S'been'
p6857
S'named'
p6858
S'[[det]]'
p6859
tp6860
F0.00017853954650955185
s(S'played'
p6861
g5619
g5620
tp6862
F0.0005356186395286556
s(S'when'
p6863
S'signed'
p6864
S'with'
p6865
tp6866
F0.00017853954650955185
s(S'first'
p6867
S'came'
p6868
S'to'
p6869
tp6870
F0.00017853954650955185
s(S'[[det]]'
p6871
S'receiver'
p6872
S'for'
p6873
tp6874
F0.00017853954650955185
s(S'instead'
p6875
S'signed'
p6876
S'with'
p6877
tp6878
F0.00017853954650955185
s(S'played'
p6879
S'[[con]]'
p6880
S'professionally'
p6881
tp6882
F0.00017853954650955185
s(S'then'
p6883
S'released'
p6884
S'by'
p6885
tp6886
F0.00017853954650955185
s(S'[[prp]]'
p6887
S'debut'
p6888
S'in'
p6889
tp6890
F0.00017853954650955185
s(S'for'
p6891
S'[[det]]'
p6892
S'games'
p6893
tp6894
F0.00017853954650955185
s(S'was'
p6895
S'taken'
p6896
S'on'
p6897
tp6898
F0.00017853954650955185
s(S'then'
p6899
S'returned'
p6900
S'to'
p6901
tp6902
F0.00017853954650955185
s(S'football'
p6903
S'safety'
p6904
S'player'
p6905
tp6906
F0.00017853954650955185
s(S'end'
p6907
S'played'
p6908
S'for'
p6909
tp6910
F0.00017853954650955185
s(g2122
g2123
S'back'
p6911
tp6912
F0.00017853954650955185
s(S'[[det]]'
p6913
S'team'
p6914
g169
tp6915
F0.00017853954650955185
s(S'[[det]]'
p6916
S'[[num]]'
p6917
S'years'
p6918
tp6919
F0.00017853954650955185
s(S'is'
p6920
S'selected'
p6921
S'as'
p6922
tp6923
F0.00017853954650955185
s(S'when'
p6924
S'signed'
p6925
S'up'
p6926
tp6927
F0.00017853954650955185
s(S'has'
p6928
S'served'
p6929
S'[[adj]]'
p6930
tp6931
F0.00017853954650955185
s(S'who'
p6932
g535
g536
tp6933
F0.0003570790930191037
s(S'[[adj]]'
p6934
S'quarterback'
p6935
S'in'
p6936
tp6937
F0.00017853954650955185
s(S'[[adj]]'
p6938
S'contract'
p6939
S'was'
p6940
tp6941
F0.00017853954650955185
s(S'also'
p6942
S'earned'
p6943
S'[[det]]'
p6944
tp6945
F0.00017853954650955185
s(S'[[det]]'
p6946
S'captain'
p6947
S'at'
p6948
tp6949
F0.00017853954650955185
s(S'college'
p6950
g4331
g4332
tp6951
F0.0014283163720764148
s(S'to'
p6952
S'head'
p6953
S'at'
p6954
tp6955
F0.00017853954650955185
s(g1904
g1905
S'of'
p6956
tp6957
F0.004642028209248348
s(S'played'
p6958
S'[[prp]]'
p6959
S'football'
p6960
tp6961
F0.0003570790930191037
s(S'who'
p6962
S'plays'
p6963
S'from'
p6964
tp6965
F0.00017853954650955185
s(S'also'
p6966
S'played'
p6967
S'where'
p6968
tp6969
F0.00017853954650955185
s(S'then'
p6970
S'signed'
p6971
S'to'
p6972
tp6973
F0.00017853954650955185
s(S'was'
p6974
S'signed'
p6975
S'up'
p6976
tp6977
F0.00017853954650955185
s(S'also'
p6978
S'coached'
p6979
S'at'
p6980
tp6981
F0.00017853954650955185
s(S'[[det]]'
p6982
S'located'
p6983
S'in'
p6984
tp6985
F0.0003570790930191037
s(g6198
g6199
S'played'
p6986
tp6987
F0.00017853954650955185
s(S'[[adj]]'
p6988
S'contract'
p6989
S'in'
p6990
tp6991
F0.0003570790930191037
s(S'then'
p6992
S'hired'
p6993
S'in'
p6994
tp6995
F0.00017853954650955185
s(S'[[prp]]'
p6996
S'debut'
p6997
S'when'
p6998
tp6999
F0.00017853954650955185
s(S'then'
p7000
S'spent'
p7001
S'[[num]]'
p7002
tp7003
F0.0008926977325477593
s(S'[[prp]]'
p7004
S'[[adj]]'
p7005
S'school'
p7006
tp7007
F0.00017853954650955185
s(S'also'
p7008
S'coached'
p7009
S'[[con]]'
p7010
tp7011
F0.00017853954650955185
s(S'currently'
p7012
S'signed'
p7013
S'to'
p7014
tp7015
F0.00017853954650955185
s(S'basketball'
p7016
S'[[con]]'
p7017
g6211
tp7018
F0.00017853954650955185
s(S'is'
p7019
S'retired'
p7020
S'from'
p7021
tp7022
F0.00017853954650955185
s(S'were'
p7023
S'signed'
p7024
S'by'
p7025
tp7026
F0.00017853954650955185
s(S'been'
p7027
S'appointed'
p7028
S'for'
p7029
tp7030
F0.00017853954650955185
s(S'college'
p7031
g3779
g3780
tp7032
F0.00017853954650955185
s(S'then'
p7033
S'transferred'
p7034
S'[[con]]'
p7035
tp7036
F0.00017853954650955185
s(S'also'
p7037
S'selected'
p7038
S'[[adj]]'
p7039
tp7040
F0.00017853954650955185
s(g4197
g5413
S'player'
p7041
tp7042
F0.0014283163720764148
s(g5749
g5750
S'coach'
p7043
tp7044
F0.00017853954650955185
s(S'[[adj]]'
p7045
S'debut'
p7046
S'with'
p7047
tp7048
F0.00017853954650955185
s(S'[[adj]]'
p7049
S'linebacker'
p7050
S'for'
p7051
tp7052
F0.00017853954650955185
s(S'was'
p7053
S'appointed'
p7054
S'[[det]]'
p7055
tp7056
F0.00017853954650955185
s(S'then'
p7057
S'selected'
p7058
S'in'
p7059
tp7060
F0.00017853954650955185
s(g3882
g3883
S'waivers'
p7061
tp7062
F0.0003570790930191037
s(S'is'
p7063
g3875
g340
tp7064
F0.0019639350116050706
s(S'[[num]]'
p7065
g6300
g6301
tp7066
F0.0003570790930191037
s(S'also'
p7067
S'signed'
p7068
S'to'
p7069
tp7070
F0.00017853954650955185
s(S'who'
p7071
g5145
g5146
tp7072
F0.0005356186395286556
s(S'has'
p7073
S'played'
p7074
S'football'
p7075
tp7076
F0.00017853954650955185
s(S'had'
p7077
g6304
g6305
tp7078
F0.0005356186395286556
s(S'played'
p7079
g5824
g5825
tp7080
F0.0017853954650955187
s(S'was'
p7081
S'appointed'
p7082
S'as'
p7083
tp7084
F0.0008926977325477593
s(S'became'
p7085
S'captain'
p7086
S'of'
p7087
tp7088
F0.00017853954650955185
s(S'played'
p7089
S'quarterback'
p7090
S'[[con]]'
p7091
tp7092
F0.00017853954650955185
s(S'[[det]]'
p7093
S'head'
p7094
g5626
tp7095
F0.0003570790930191037
s(S'[[det]]'
p7096
S'football'
p7097
g3086
tp7098
F0.00017853954650955185
s(g3426
g3427
S'coach'
p7099
tp7100
F0.001249776825566863
s(S'also'
p7101
S'won'
p7102
S'[[det]]'
p7103
tp7104
F0.00017853954650955185
s(S'has'
p7105
S'coached'
p7106
S'[[det]]'
p7107
tp7108
F0.00017853954650955185
s(S'footballer'
p7109
g4730
g4731
tp7110
F0.0003570790930191037
s(g4953
g4550
g4551
tp7111
F0.00017853954650955185
s(S'is'
p7112
S'named'
p7113
S'as'
p7114
tp7115
F0.00017853954650955185
s(g6939
g6940
S'signed'
p7116
tp7117
F0.00017853954650955185
s(g1406
g1407
S'for'
p7118
tp7119
F0.00017853954650955185
s(g103
g2719
S'men'
p7120
tp7121
F0.0005356186395286556
s(g2252
g2253
S'for'
p7122
tp7123
F0.0010712372790573112
s(S'then'
p7124
S'moved'
p7125
S'onto'
p7126
tp7127
F0.00017853954650955185
s(S'[[num]]'
p7128
g4995
g4996
tp7129
F0.0005356186395286556
s(S'soon'
p7130
S'joined'
p7131
S'[[det]]'
p7132
tp7133
F0.00017853954650955185
s(g949
g950
S'played'
p7134
tp7135
F0.0005356186395286556
s(g5399
g2163
g2164
tp7136
F0.0003570790930191037
s(S'best'
p7137
S'season'
p7138
S'for'
p7139
tp7140
F0.00017853954650955185
s(S'has'
p7141
S'served'
p7142
S'with'
p7143
tp7144
F0.00017853954650955185
s(S'[[pro]]'
p7145
S'served'
p7146
S'in'
p7147
tp7148
F0.00017853954650955185
s(S'[[num]]'
p7149
S'season'
p7150
S'[[con]]'
p7151
tp7152
F0.00017853954650955185
s(S'also'
p7153
S'named'
p7154
S'at'
p7155
tp7156
F0.00017853954650955185
s(S'later'
p7157
S'attended'
p7158
S'now'
p7159
tp7160
F0.00017853954650955185
s(S'then'
p7161
S'moved'
p7162
S'then'
p7163
tp7164
F0.00017853954650955185
s(S'who'
p7165
g1046
g1047
tp7166
F0.00017853954650955185
s(S'[[adj]]'
p7167
g3787
g3788
tp7168
F0.00017853954650955185
s(S'[[adj]]'
p7169
S'career'
p7170
S'of'
p7171
tp7172
F0.00017853954650955185
s(S'was'
p7173
S'[[det]]'
p7174
g4714
tp7175
F0.0003570790930191037
s(S'then'
p7176
S'coached'
p7177
S'[[con]]'
p7178
tp7179
F0.00017853954650955185
s(g3626
g3627
g4872
tp7180
F0.00017853954650955185
s(g4304
g4305
S'at'
p7181
tp7182
F0.0005356186395286556
s(S'[[num]]'
p7183
g567
g568
tp7184
F0.0019639350116050706
s(S'formerly'
p7185
S'served'
p7186
S'to'
p7187
tp7188
F0.00017853954650955185
s(S'spent'
p7189
g6400
g6401
tp7190
F0.0003570790930191037
s(S'being'
p7191
S'appointed'
p7192
S'to'
p7193
tp7194
F0.00017853954650955185
s(g4481
g4482
S'board'
p7195
tp7196
F0.00017853954650955185
s(S'is'
p7197
S'involved'
p7198
S'with'
p7199
tp7200
F0.00017853954650955185
s(S'[[det]]'
p7201
S'coach'
p7202
S'[[con]]'
p7203
tp7204
F0.00017853954650955185
s(S'had'
p7205
S'appointed'
p7206
S'to'
p7207
tp7208
F0.00017853954650955185
s(g169
S'debut'
p7209
S'against'
p7210
tp7211
F0.00017853954650955185
s(g6904
g6905
S'for'
p7212
tp7213
F0.00017853954650955185
s(S'then'
p7214
S'played'
p7215
S'against'
p7216
tp7217
F0.00017853954650955185
s(S'football'
p7218
S'player'
p7219
S'for'
p7220
tp7221
F0.0008926977325477593
s(g183
S'played'
p7222
S'mostly'
p7223
tp7224
F0.00017853954650955185
s(S'is'
p7225
S'[[det]]'
p7226
S'college'
p7227
tp7228
F0.00017853954650955185
s(S'had'
p7229
S'played'
p7230
S'against'
p7231
tp7232
F0.00017853954650955185
s(S'to'
p7233
S'retire'
p7234
S'from'
p7235
tp7236
F0.00017853954650955185
s(S'[[mod]]'
p7237
S'sign'
p7238
S'for'
p7239
tp7240
F0.00017853954650955185
s(S'member'
p7241
g6056
g6057
tp7242
F0.0007141581860382074
s(S'who'
p7243
S'played'
p7244
S'at'
p7245
tp7246
F0.00017853954650955185
s(S'before'
p7247
S'returning'
p7248
S'with'
p7249
tp7250
F0.00017853954650955185
s(S'also'
p7251
S'came'
p7252
S'[[adj]]'
p7253
tp7254
F0.00017853954650955185
s(S'has'
p7255
S'moved'
p7256
S'from'
p7257
tp7258
F0.00017853954650955185
s(S'been'
p7259
S'involved'
p7260
S'[[num]]'
p7261
tp7262
F0.00017853954650955185
s(S'also'
p7263
S'plays'
p7264
S'for'
p7265
tp7266
F0.00017853954650955185
s(S'also'
p7267
S'named'
p7268
S'[[con]]'
p7269
tp7270
F0.00017853954650955185
s(S'[[num]]'
p7271
S'season'
p7272
S'of'
p7273
tp7274
F0.0003570790930191037
s(S'also'
p7275
S'member'
p7276
S'[[con]]'
p7277
tp7278
F0.00017853954650955185
s(S'plays'
p7279
S'as'
p7280
g683
tp7281
F0.0019639350116050706
s(S'then'
p7282
S'moved'
p7283
S'on'
p7284
tp7285
F0.00017853954650955185
s(S'[[adj]]'
p7286
S'play'
p7287
S'with'
p7288
tp7289
F0.00017853954650955185
s(S'[[adj]]'
p7290
g5468
g5469
tp7291
F0.00017853954650955185
s(S'[[det]]'
p7292
S'captain'
p7293
S'of'
p7294
tp7295
F0.00017853954650955185
s(S'[[adj]]'
p7296
S'year'
p7297
S'of'
p7298
tp7299
F0.00017853954650955185
s(S'was'
p7300
S'involved'
p7301
S'with'
p7302
tp7303
F0.00017853954650955185
s(S'[[adj]]'
p7304
S'team'
p7305
S'against'
p7306
tp7307
F0.00017853954650955185
s(S'to'
p7308
S'play'
p7309
S'at'
p7310
tp7311
F0.00017853954650955185
s(g1871
g1872
S'against'
p7312
tp7313
F0.00017853954650955185
s(g4505
g4506
S'[[num]]'
p7314
tp7315
F0.00017853954650955185
s(S'[[adj]]'
p7316
S'debut'
p7317
S'against'
p7318
tp7319
F0.00017853954650955185
s(S'later'
p7320
S'served'
p7321
S'with'
p7322
tp7323
F0.00017853954650955185
s(S'instead'
p7324
S'joined'
p7325
S'[[det]]'
p7326
tp7327
F0.00017853954650955185
s(g4308
g4309
S'contract'
p7328
tp7329
F0.00017853954650955185
s(g5574
g5575
S'for'
p7330
tp7331
F0.0005356186395286556
s(S'died'
p7332
S'[[num]]'
p7333
S'[[det]]'
p7334
tp7335
F0.0005356186395286556
s(S'[[det]]'
p7336
g1022
g1023
tp7337
F0.0008926977325477593
s(S'[[mod]]'
p7338
S'join'
p7339
S'at'
p7340
tp7341
F0.00017853954650955185
s(g169
g4782
g4783
tp7342
F0.0005356186395286556
s(S'football'
p7343
S'currently'
p7344
S'playing'
p7345
tp7346
F0.00017853954650955185
s(S'[[adj]]'
p7347
S'head'
p7348
S'at'
p7349
tp7350
F0.00017853954650955185
s(g169
S'team'
p7351
S'in'
p7352
tp7353
F0.00017853954650955185
s(S'[[adj]]'
p7354
S'played'
p7355
S'as'
p7356
tp7357
F0.00017853954650955185
s(S'[[adj]]'
p7358
S'football'
p7359
S'player'
p7360
tp7361
F0.005713265488305659
s(S'head'
p7362
g4702
g2721
tp7363
F0.0003570790930191037
s(S'signed'
p7364
S'[[adj]]'
p7365
S'contract'
p7366
tp7367
F0.00017853954650955185
s(g1821
g2904
S'of'
p7368
tp7369
F0.00017853954650955185
s(S'became'
p7370
S'head'
p7371
S'of'
p7372
tp7373
F0.00017853954650955185
s(g4872
g4873
g6153
tp7374
F0.0010712372790573112
s(S'[[adj]]'
p7375
S'transferred'
p7376
S'to'
p7377
tp7378
F0.00017853954650955185
s(S'[[det]]'
p7379
S'right'
p7380
S'back'
p7381
tp7382
F0.00017853954650955185
s(S'born'
p7383
g4764
g4765
tp7384
F0.0003570790930191037
s(S'had'
p7385
S'signed'
p7386
S'for'
p7387
tp7388
F0.00017853954650955185
s(S'[[con]]'
p7389
S'transferred'
p7390
S'to'
p7391
tp7392
F0.00017853954650955185
s(g409
g410
S'[[num]]'
p7393
tp7394
F0.00017853954650955185
s(S'also'
p7395
S'started'
p7396
S'against'
p7397
tp7398
F0.00017853954650955185
s(S'still'
p7399
S'plays'
p7400
S'for'
p7401
tp7402
F0.00017853954650955185
s(S'[[con]]'
p7403
S'appointed'
p7404
S'as'
p7405
tp7406
F0.00017853954650955185
s(S'[[adj]]'
p7407
S'seasons'
p7408
S'[[det]]'
p7409
tp7410
F0.00017853954650955185
s(S'[[prp]]'
p7411
S'career'
p7412
S'by'
p7413
tp7414
F0.00017853954650955185
s(g7097
g3086
g3087
tp7415
F0.00017853954650955185
s(S'been'
p7416
S'involved'
p7417
S'at'
p7418
tp7419
F0.00017853954650955185
s(S'then'
p7420
S'attended'
p7421
S'at'
p7422
tp7423
F0.00017853954650955185
s(S'been'
p7424
S'playing'
p7425
S'with'
p7426
tp7427
F0.00017853954650955185
s(g560
g561
g4841
tp7428
F0.0003570790930191037
s(g7280
g683
g684
tp7429
F0.0008926977325477593
s(S'where'
p7430
S'joined'
p7431
S'[[det]]'
p7432
tp7433
F0.00017853954650955185
s(S'[[prp]]'
p7434
S'football'
p7435
S'for'
p7436
tp7437
F0.00017853954650955185
s(S'to'
p7438
S'sign'
p7439
S'for'
p7440
tp7441
F0.00017853954650955185
s(S'football'
p7442
g245
g246
tp7443
F0.00017853954650955185
s(S'has'
p7444
S'signed'
p7445
S'with'
p7446
tp7447
F0.00017853954650955185
s(S'who'
p7448
S'served'
p7449
S'[[con]]'
p7450
tp7451
F0.00017853954650955185
s(g5866
S'[[num]]'
p7452
S'goals'
p7453
tp7454
F0.001249776825566863
s(S'was'
p7455
S'member'
p7456
S'at'
p7457
tp7458
F0.00017853954650955185
s(S'in'
p7459
S'playing'
p7460
S'for'
p7461
tp7462
F0.00017853954650955185
s(g876
g877
S'in'
p7463
tp7464
F0.00017853954650955185
s(S'[[det]]'
p7465
S'player'
p7466
S'on'
p7467
tp7468
F0.00017853954650955185
s(S'then'
p7469
S'played'
p7470
g2707
tp7471
F0.0003570790930191037
s(S'was'
p7472
S'playing'
p7473
S'as'
p7474
tp7475
F0.00017853954650955185
s(S'[[adj]]'
p7476
S'member'
p7477
S'of'
p7478
tp7479
F0.0005356186395286556
s(S'[[adj]]'
p7480
S'members'
p7481
S'of'
p7482
tp7483
F0.00017853954650955185
s(S'was'
p7484
S'picked'
p7485
S'to'
p7486
tp7487
F0.00017853954650955185
s(S'also'
p7488
S'played'
p7489
S'of'
p7490
tp7491
F0.00017853954650955185
s(S'[[con]]'
p7492
S'later'
p7493
S'played'
p7494
tp7495
F0.0003570790930191037
s(S'were'
p7496
S'transferred'
p7497
S'to'
p7498
tp7499
F0.00017853954650955185
s(S'to'
p7500
S'play'
p7501
S'until'
p7502
tp7503
F0.00017853954650955185
s(S'later'
p7504
S'joined'
p7505
S'at'
p7506
tp7507
F0.00017853954650955185
s(S'had'
p7508
S'attended'
p7509
S'[[det]]'
p7510
tp7511
F0.00017853954650955185
s(S'played'
p7512
g1287
g1288
tp7513
F0.00017853954650955185
s(g6959
g6960
S'with'
p7514
tp7515
F0.00017853954650955185
s(g2272
g2273
g5373
tp7516
F0.0032137118371719335
s(g4482
g7195
S'of'
p7517
tp7518
F0.00017853954650955185
s(S'had'
p7519
S'served'
p7520
S'with'
p7521
tp7522
F0.00017853954650955185
s(S'[[det]]'
p7523
S'member'
p7524
g169
tp7525
F0.00017853954650955185
s(g1335
g2265
S'for'
p7526
tp7527
F0.0033922513836814857
s(S'played'
p7528
S'before'
p7529
g1220
tp7530
F0.00017853954650955185
s(S'then'
p7531
S'playing'
p7532
S'in'
p7533
tp7534
F0.00017853954650955185
s(S'made'
p7535
S'head'
p7536
S'at'
p7537
tp7538
F0.00017853954650955185
s(S'became'
p7539
S'member'
p7540
S'[[det]]'
p7541
tp7542
F0.00017853954650955185
s(S'then'
p7543
S'served'
p7544
S'with'
p7545
tp7546
F0.00017853954650955185
s(S'in'
p7547
S'[[adj]]'
p7548
S'match'
p7549
tp7550
F0.0003570790930191037
s(S'[[num]]'
p7551
S'transferred'
p7552
S'to'
p7553
tp7554
F0.00017853954650955185
s(S'at'
p7555
S'[[con]]'
p7556
S'professionally'
p7557
tp7558
F0.00017853954650955185
s(S'also'
p7559
S'played'
p7560
S'college'
p7561
tp7562
F0.00017853954650955185
s(g4810
g4811
S'for'
p7563
tp7564
F0.00017853954650955185
s(S'[[det]]'
p7565
S'player'
p7566
S'[[con]]'
p7567
tp7568
F0.00017853954650955185
s(S'[[det]]'
p7569
S'[[adj]]'
p7570
S'season'
p7571
tp7572
F0.0007141581860382074
s(g7017
g6211
g1987
tp7573
F0.0014283163720764148
s(S'had'
p7574
S'stints'
p7575
S'at'
p7576
tp7577
F0.00017853954650955185
s(S'was'
p7578
S'selected'
p7579
S'with'
p7580
tp7581
F0.00017853954650955185
s(S'first'
p7582
S'played'
p7583
S'for'
p7584
tp7585
F0.00017853954650955185
s(S'who'
p7586
g1609
g1610
tp7587
F0.0003570790930191037
s(S'to'
p7588
S'coach'
p7589
S'[[con]]'
p7590
tp7591
F0.00017853954650955185
s(S'also'
p7592
S'represented'
p7593
S'on'
p7594
tp7595
F0.00017853954650955185
s(S'later'
p7596
S'played'
p7597
S'at'
p7598
tp7599
F0.00017853954650955185
s(S'as'
p7600
S'[[adj]]'
p7601
S'football'
p7602
tp7603
F0.00017853954650955185
s(S'who'
p7604
S'won'
p7605
S'with'
p7606
tp7607
F0.00017853954650955185
s(S'[[mod]]'
p7608
S'play'
p7609
S'[[det]]'
p7610
tp7611
F0.00017853954650955185
s(S'who'
p7612
g7279
g7280
tp7613
F0.0017853954650955187
s(S'[[det]]'
p7614
S'award'
p7615
S'by'
p7616
tp7617
F0.00017853954650955185
s(S'had'
p7618
S'signed'
p7619
S'up'
p7620
tp7621
F0.00017853954650955185
s(S'be'
p7622
S'named'
p7623
S'[[det]]'
p7624
tp7625
F0.00017853954650955185
s(S'played'
p7626
g1727
g1728
tp7627
F0.0017853954650955187
s(S'receiver'
p7628
S'who'
p7629
S'played'
p7630
tp7631
F0.0005356186395286556
s(S'be'
p7632
S'selected'
p7633
S'for'
p7634
tp7635
F0.00017853954650955185
s(S'also'
p7636
S'played'
p7637
S'[[num]]'
p7638
tp7639
F0.003035172290662382
s(S'had'
p7640
S'played'
p7641
S'[[num]]'
p7642
tp7643
F0.0003570790930191037
s(S'in'
p7644
S'[[num]]'
p7645
S'match'
p7646
tp7647
F0.0003570790930191037
s(S'born'
p7648
g7128
g4995
tp7649
F0.0005356186395286556
s(S'college'
p7650
S'football'
p7651
S'where'
p7652
tp7653
F0.00017853954650955185
s(S'later'
p7654
S'coached'
p7655
S'[[con]]'
p7656
tp7657
F0.00017853954650955185
s(S'on'
p7658
g2637
g2638
tp7659
F0.00017853954650955185
s(g2514
g2515
S'coach'
p7660
tp7661
F0.001249776825566863
s(g7529
g1220
g1221
tp7662
F0.00017853954650955185
s(S'spent'
p7663
g7569
g7570
tp7664
F0.0007141581860382074
s(S'[[num]]'
p7665
S'games'
p7666
S'[[det]]'
p7667
tp7668
F0.0005356186395286556
s(S'has'
p7669
S'represented'
p7670
S'[[con]]'
p7671
tp7672
F0.00017853954650955185
s(S'then'
p7673
S'returned'
p7674
S'with'
p7675
tp7676
F0.00017853954650955185
s(S'had'
p7677
S'led'
p7678
S'[[det]]'
p7679
tp7680
F0.00017853954650955185
s(g1189
g1190
S'[[det]]'
p7681
tp7682
F0.00017853954650955185
s(S'then'
p7683
S'signed'
p7684
S'on'
p7685
tp7686
F0.00017853954650955185
s(S'played'
p7687
S'football'
p7688
S'at'
p7689
tp7690
F0.0005356186395286556
s(S'[[det]]'
p7691
S'returned'
p7692
S'to'
p7693
tp7694
F0.00017853954650955185
s(S'was'
p7695
S'acquired'
p7696
S'from'
p7697
tp7698
F0.00017853954650955185
s(S'named'
p7699
g7658
g2637
tp7700
F0.00017853954650955185
s(S'had'
p7701
S'resigned'
p7702
S'as'
p7703
tp7704
F0.00017853954650955185
s(S'then'
p7705
S'earned'
p7706
S'at'
p7707
tp7708
F0.00017853954650955185
s(S'played'
p7709
g1068
g1069
tp7710
F0.002321014104624174
s(S'played'
p7711
g3993
g719
tp7712
F0.00017853954650955185
s(S'signed'
p7713
g4191
g4192
tp7714
F0.00017853954650955185
s(g3296
g3297
g3503
tp7715
F0.00017853954650955185
s(S'then'
p7716
S'moved'
p7717
S'[[num]]'
p7718
tp7719
F0.00017853954650955185
s(S'[[num]]'
p7720
g7290
g5468
tp7721
F0.00017853954650955185
s(S'[[num]]'
p7722
S'year'
p7723
S'at'
p7724
tp7725
F0.00017853954650955185
s(S'been'
p7726
S'appointed'
p7727
S'to'
p7728
tp7729
F0.00017853954650955185
s(S'is'
p7730
S'signed'
p7731
S'to'
p7732
tp7733
F0.00017853954650955185
s(g3703
g3704
S'[[adj]]'
p7734
tp7735
F0.00017853954650955185
s(S'then'
p7736
S'selected'
p7737
S'by'
p7738
tp7739
F0.00017853954650955185
s(S'basketball'
p7740
S'player'
p7741
S'for'
p7742
tp7743
F0.00017853954650955185
s(S'[[adj]]'
p7744
S'head'
p7745
S'[[con]]'
p7746
tp7747
F0.00017853954650955185
s(S'be'
p7748
S'appointed'
p7749
S'of'
p7750
tp7751
F0.00017853954650955185
s(S'also'
p7752
S'named'
p7753
S'[[det]]'
p7754
tp7755
F0.00017853954650955185
s(S'also'
p7756
S'appointed'
p7757
S'[[det]]'
p7758
tp7759
F0.00017853954650955185
s(S'[[prp]]'
p7760
S'debut'
p7761
S'away'
p7762
tp7763
F0.00017853954650955185
s(S'[[con]]'
p7764
S'play'
p7765
S'for'
p7766
tp7767
F0.00017853954650955185
s(S'[[con]]'
p7768
S'joined'
p7769
S'of'
p7770
tp7771
F0.00017853954650955185
s(S'just'
p7772
S'[[num]]'
p7773
S'games'
p7774
tp7775
F0.00017853954650955185
s(S'also'
p7776
S'represented'
p7777
S'to'
p7778
tp7779
F0.00017853954650955185
s(g7099
g396
g397
tp7780
F0.0008926977325477593
s(S'spent'
p7781
S'[[num]]'
p7782
S'more'
p7783
tp7784
F0.0007141581860382074
s(S'now'
p7785
S'playing'
p7786
S'in'
p7787
tp7788
F0.00017853954650955185
s(g3731
g3732
S'for'
p7789
tp7790
F0.0005356186395286556
s(S'also'
p7791
S'played'
p7792
S'twice'
p7793
tp7794
F0.00017853954650955185
s(S'[[num]]'
p7795
S'member'
p7796
S'of'
p7797
tp7798
F0.00017853954650955185
s(S'had'
p7799
S'served'
p7800
S'[[det]]'
p7801
tp7802
F0.00017853954650955185
s(g3772
g3773
S'player'
p7803
tp7804
F0.0010712372790573112
s(S'[[pro]]'
p7805
S'signed'
p7806
S'with'
p7807
tp7808
F0.00017853954650955185
s(S'then'
p7809
S'played'
p7810
S'also'
p7811
tp7812
F0.00017853954650955185
s(S'[[det]]'
p7813
S'team'
p7814
S'after'
p7815
tp7816
F0.00017853954650955185
s(S'then'
p7817
S'joined'
p7818
S'[[con]]'
p7819
tp7820
F0.00017853954650955185
s(S'also'
p7821
S'spent'
p7822
S'[[det]]'
p7823
tp7824
F0.0003570790930191037
s(S'until'
p7825
S'returned'
p7826
S'to'
p7827
tp7828
F0.00017853954650955185
s(g3523
g3524
S'season'
p7829
tp7830
F0.00017853954650955185
s(S'[[adj]]'
p7831
S'career'
p7832
S'by'
p7833
tp7834
F0.00017853954650955185
s(g182
g183
g7222
tp7835
F0.00017853954650955185
s(S'[[num]]'
p7836
S'games'
p7837
S'from'
p7838
tp7839
F0.00017853954650955185
s(g4591
g4592
S'played'
p7840
tp7841
F0.0005356186395286556
s(g1989
S'professionally'
p7842
S'in'
p7843
tp7844
F0.001249776825566863
s(S'signed'
p7845
g2451
g2452
tp7846
F0.0017853954650955187
s(g1301
S'[[det]]'
p7847
S'head'
p7848
tp7849
F0.00017853954650955185
s(S'[[det]]'
p7850
S'signed'
p7851
S'with'
p7852
tp7853
F0.00017853954650955185
s(S'currently'
p7854
S'plays'
p7855
S'[[con]]'
p7856
tp7857
F0.00017853954650955185
s(S'[[adj]]'
p7858
S'career'
p7859
S'[[con]]'
p7860
tp7861
F0.0003570790930191037
s(S'then'
p7862
S'selected'
p7863
S'as'
p7864
tp7865
F0.00017853954650955185
s(S'[[con]]'
p7866
S'served'
p7867
S'on'
p7868
tp7869
F0.00017853954650955185
s(S'played'
p7870
g7004
g7005
tp7871
F0.004463488662738797
s(g3167
g3168
S'board'
p7872
tp7873
F0.00017853954650955185
s(S'board'
p7874
S'member'
p7875
S'at'
p7876
tp7877
F0.0003570790930191037
s(S'signed'
p7878
g5872
g5873
tp7879
F0.0007141581860382074
s(S'in'
p7880
S'[[det]]'
p7881
S'team'
p7882
tp7883
F0.00017853954650955185
s(S'[[det]]'
p7884
g249
g250
tp7885
F0.0010712372790573112
s(S'born'
p7886
g7065
g6300
tp7887
F0.0003570790930191037
s(g6777
g6778
S'games'
p7888
tp7889
F0.00017853954650955185
s(S'has'
p7890
S'signed'
p7891
S'for'
p7892
tp7893
F0.00017853954650955185
s(S'then'
p7894
S'played'
p7895
S'college'
p7896
tp7897
F0.0003570790930191037
s(S'later'
p7898
S'signed'
p7899
S'by'
p7900
tp7901
F0.00017853954650955185
s(S'which'
p7902
S'debuted'
p7903
S'on'
p7904
tp7905
F0.00017853954650955185
s(S'[[det]]'
p7906
S'games'
p7907
S'against'
p7908
tp7909
F0.00017853954650955185
s(S'also'
p7910
S'represented'
p7911
S'[[con]]'
p7912
tp7913
F0.00017853954650955185
s(S'that'
p7914
S'led'
p7915
S'[[det]]'
p7916
tp7917
F0.00017853954650955185
s(S'head'
p7918
g3961
g3962
tp7919
F0.0010712372790573112
s(S'[[num]]'
p7920
g7358
g7359
tp7921
F0.0019639350116050706
s(S'later'
p7922
S'appointed'
p7923
S'of'
p7924
tp7925
F0.00017853954650955185
s(S'football'
p7926
S'coach'
p7927
S'from'
p7928
tp7929
F0.00017853954650955185
s(g2961
g4942
S'manager'
p7930
tp7931
F0.00017853954650955185
s(g7226
g7227
g101
tp7932
F0.0003570790930191037
s(S'is'
p7933
S'returned'
p7934
S'to'
p7935
tp7936
F0.00017853954650955185
s(S'[[prp]]'
p7937
S'[[adj]]'
p7938
S'match'
p7939
tp7940
F0.0010712372790573112
s(S'formerly'
p7941
S'served'
p7942
S'for'
p7943
tp7944
F0.00017853954650955185
s(S'[[adj]]'
p7945
S'quarterback'
p7946
S'at'
p7947
tp7948
F0.00017853954650955185
s(S'[[adj]]'
p7949
S'member'
p7950
S'[[adj]]'
p7951
tp7952
F0.00017853954650955185
s(S'was'
p7953
S'coached'
p7954
S'at'
p7955
tp7956
F0.00017853954650955185
s(g1732
g1733
S'at'
p7957
tp7958
F0.00017853954650955185
s(S'later'
p7959
S'named'
p7960
S'of'
p7961
tp7962
F0.00017853954650955185
s(g5991
g5992
S'with'
p7963
tp7964
F0.0007141581860382074
s(g6179
g6180
S'debut'
p7965
tp7966
F0.0003570790930191037
s(S'then'
p7967
S'coached'
p7968
S'at'
p7969
tp7970
F0.00017853954650955185
s(S'was'
p7971
S'appointed'
p7972
S'[[adj]]'
p7973
tp7974
F0.0008926977325477593
s(S'[[adj]]'
p7975
S'coach'
p7976
S'including'
p7977
tp7978
F0.00017853954650955185
s(g1752
g1753
S'against'
p7979
tp7980
F0.0003570790930191037
s(S'[[adj]]'
p7981
g6907
g6908
tp7982
F0.00017853954650955185
s(S'never'
p7983
S'played'
p7984
S'with'
p7985
tp7986
F0.00017853954650955185
s(S'that'
p7987
S'involved'
p7988
S'[[det]]'
p7989
tp7990
F0.00017853954650955185
s(S'basketball'
p7991
g6324
g6325
tp7992
F0.00017853954650955185
s(S'spent'
p7993
g3621
g3622
tp7994
F0.0003570790930191037
s(S'as'
p7995
S'head'
p7996
S'football'
p7997
tp7998
F0.0003570790930191037
s(S'only'
p7999
S'played'
p8000
S'for'
p8001
tp8002
F0.00017853954650955185
s(S'was'
p8003
S'captain'
p8004
S'of'
p8005
tp8006
F0.00017853954650955185
s(S'who'
p8007
S'served'
p8008
S'in'
p8009
tp8010
F0.00017853954650955185
s(g2099
g984
g985
tp8011
F0.00017853954650955185
s(S'graduated'
p8012
S'[[con]]'
p8013
S'was'
p8014
tp8015
F0.0003570790930191037
s(S'born'
p8016
S'was'
p8017
S'[[adj]]'
p8018
tp8019
F0.0003570790930191037
s(S'[[det]]'
p8020
S'team'
p8021
S'against'
p8022
tp8023
F0.00017853954650955185
s(S'played'
p8024
g1440
g1441
tp8025
F0.0017853954650955187
s(S'[[num]]'
p8026
S'[[adj]]'
p8027
S'rules'
p8028
tp8029
F0.0021424745581146223
s(S'was'
p8030
S'involved'
p8031
S'by'
p8032
tp8033
F0.00017853954650955185
s(S'has'
p8034
S'attended'
p8035
S'[[det]]'
p8036
tp8037
F0.00017853954650955185
s(S'as'
p8038
S'head'
p8039
S'of'
p8040
tp8041
F0.00017853954650955185
s(S'with'
p8042
S'joined'
p8043
S'[[det]]'
p8044
tp8045
F0.00017853954650955185
s(g2857
g6436
g6437
tp8046
F0.00017853954650955185
s(S'played'
p8047
S'[[con]]'
p8048
S'coached'
p8049
tp8050
F0.00017853954650955185
s(S'has'
p8051
S'played'
p8052
S'during'
p8053
tp8054
F0.00017853954650955185
s(g4172
g4173
S'football'
p8055
tp8056
F0.00017853954650955185
s(S'then'
p8057
S'acquired'
p8058
S'by'
p8059
tp8060
F0.00017853954650955185
s(S'[[num]]'
p8061
S'game'
p8062
S'[[num]]'
p8063
tp8064
F0.00017853954650955185
s(S'when'
p8065
S'played'
p8066
S'against'
p8067
tp8068
F0.00017853954650955185
s(g4309
g7328
S'with'
p8069
tp8070
F0.00017853954650955185
s(g1450
g3730
g3731
tp8071
F0.00017853954650955185
s(g3883
g7061
S'from'
p8072
tp8073
F0.00017853954650955185
s(S'[[adj]]'
p8074
S'played'
p8075
S'against'
p8076
tp8077
F0.00017853954650955185
s(S'[[num]]'
p8078
S'goals'
p8079
S'against'
p8080
tp8081
F0.00017853954650955185
s(S'later'
p8082
S'played'
p8083
S'college'
p8084
tp8085
F0.00017853954650955185
s(S'has'
p8086
S'played'
p8087
S'mainly'
p8088
tp8089
F0.00017853954650955185
s(S'being'
p8090
S'named'
p8091
S'of'
p8092
tp8093
F0.00017853954650955185
s(S'played'
p8094
g336
g337
tp8095
F0.00017853954650955185
s(S'as'
p8096
g7379
g7380
tp8097
F0.00017853954650955185
s(g6180
g7965
S'for'
p8098
tp8099
F0.00017853954650955185
s(S'be'
p8100
S'involved'
p8101
S'in'
p8102
tp8103
F0.00017853954650955185
s(S'that'
p8104
S'led'
p8105
S'at'
p8106
tp8107
F0.00017853954650955185
s(S'[[adj]]'
p8108
S'appointed'
p8109
S'to'
p8110
tp8111
F0.00017853954650955185
s(g781
g2641
g1696
tp8112
F0.0008926977325477593
s(S'rules'
p8113
g6692
g910
tp8114
F0.0005356186395286556
s(g34
g35
S'played'
p8115
tp8116
F0.00017853954650955185
s(S'player'
p8117
S'who'
p8118
S'[[adj]]'
p8119
tp8120
F0.0003570790930191037
s(S'returned'
p8121
g6806
g6807
tp8122
F0.00017853954650955185
s(S'to'
p8123
S'join'
p8124
S'[[det]]'
p8125
tp8126
F0.00017853954650955185
s(S'then'
p8127
S'recruited'
p8128
S'to'
p8129
tp8130
F0.00017853954650955185
s(g950
g7134
S'professionally'
p8131
tp8132
F0.0005356186395286556
s(S'football'
p8133
S'quarterback'
p8134
S'in'
p8135
tp8136
F0.00017853954650955185
s(S'[[adj]]'
p8137
S'served'
p8138
S'on'
p8139
tp8140
F0.00017853954650955185
s(S'more'
p8141
S'seasons'
p8142
S'for'
p8143
tp8144
F0.00017853954650955185
s(S'for'
p8145
S'leading'
p8146
S'[[det]]'
p8147
tp8148
F0.00017853954650955185
s(g5929
g3125
g3126
tp8149
F0.0003570790930191037
s(S'also'
p8150
S'started'
p8151
S'to'
p8152
tp8153
F0.00017853954650955185
s(S'when'
p8154
S'played'
p8155
S'[[det]]'
p8156
tp8157
F0.00017853954650955185
s(S'was'
p8158
S'signed'
p8159
S'at'
p8160
tp8161
F0.00017853954650955185
s(S'later'
p8162
S'coached'
p8163
S'[[det]]'
p8164
tp8165
F0.00017853954650955185
s(S'first'
p8166
S'joined'
p8167
S'[[con]]'
p8168
tp8169
F0.00017853954650955185
s(S'was'
p8170
S'captain'
p8171
S'in'
p8172
tp8173
F0.00017853954650955185
s(g1249
g1250
S'season'
p8174
tp8175
F0.0003570790930191037
s(S'[[con]]'
p8176
S'appointed'
p8177
S'[[pro]]'
p8178
tp8179
F0.00017853954650955185
s(S'was'
p8180
S'playing'
p8181
S'in'
p8182
tp8183
F0.00017853954650955185
s(S'nominated'
p8184
S'to'
p8185
g221
tp8186
F0.00017853954650955185
s(S'was'
p8187
S'retired'
p8188
S'from'
p8189
tp8190
F0.00017853954650955185
s(S'was'
p8191
S'hired'
p8192
S'from'
p8193
tp8194
F0.00017853954650955185
s(S'also'
p8195
S'member'
p8196
S'[[det]]'
p8197
tp8198
F0.00017853954650955185
s(S'also'
p8199
S'played'
p8200
S'as'
p8201
tp8202
F0.00017853954650955185
s(S'after'
p8203
S'played'
p8204
S'with'
p8205
tp8206
F0.00017853954650955185
s(S'[[num]]'
p8207
S'season'
p8208
S'as'
p8209
tp8210
F0.00017853954650955185
s(g4064
g4065
g169
tp8211
F0.0005356186395286556
s(S'born'
p8212
g6013
g6014
tp8213
F0.00017853954650955185
s(S'also'
p8214
S'attended'
p8215
S'at'
p8216
tp8217
F0.00017853954650955185
s(S'is'
p8218
S'[[adj]]'
p8219
S'running'
p8220
tp8221
F0.00017853954650955185
s(g7556
g7557
S'in'
p8222
tp8223
F0.0003570790930191037
s(S'later'
p8224
S'appointed'
p8225
S'[[det]]'
p8226
tp8227
F0.00017853954650955185
s(g5960
g5961
S'for'
p8228
tp8229
F0.00017853954650955185
s(S'was'
p8230
S'chosen'
p8231
S'for'
p8232
tp8233
F0.00017853954650955185
s(S'[[num]]'
p8234
g763
g764
tp8235
F0.0003570790930191037
s(S'[[adj]]'
p8236
S'served'
p8237
S'at'
p8238
tp8239
F0.00017853954650955185
s(S'to'
p8240
S'represent'
p8241
S'[[num]]'
p8242
tp8243
F0.00017853954650955185
s(S'[[det]]'
p8244
S'team'
p8245
S'of'
p8246
tp8247
F0.00017853954650955185
s(S'also'
p8248
S'served'
p8249
S'[[num]]'
p8250
tp8251
F0.00017853954650955185
s(S'born'
p8252
g1084
g269
tp8253
F0.015532940546331012
s(S'played'
p8254
S'professionally'
p8255
S'with'
p8256
tp8257
F0.0003570790930191037
s(S'[[det]]'
p8258
S'play'
p8259
S'for'
p8260
tp8261
F0.00017853954650955185
s(S'[[det]]'
p8262
g7109
g4730
tp8263
F0.0003570790930191037
s(S'[[num]]'
p8264
S'years'
p8265
S'[[num]]'
p8266
tp8267
F0.00017853954650955185
s(S'became'
p8268
S'coach'
p8269
S'of'
p8270
tp8271
F0.00017853954650955185
s(S'[[det]]'
p8272
S'member'
p8273
S'[[adj]]'
p8274
tp8275
F0.00017853954650955185
s(S'who'
p8276
S'plays'
p8277
S'at'
p8278
tp8279
F0.0003570790930191037
s(g410
g7393
S'goals'
p8280
tp8281
F0.00017853954650955185
s(S'died'
p8282
S'[[num]]'
p8283
S'[[adj]]'
p8284
tp8285
F0.0005356186395286556
s(g169
S'team'
p8286
S'at'
p8287
tp8288
F0.00017853954650955185
s(S'[[det]]'
p8289
S'player'
p8290
S'of'
p8291
tp8292
F0.00017853954650955185
s(g1300
g1301
g7847
tp8293
F0.00017853954650955185
s(S'[[prp]]'
p8294
S'debut'
p8295
S'against'
p8296
tp8297
F0.00017853954650955185
s(S'who'
p8298
S'currently'
p8299
S'playing'
p8300
tp8301
F0.0003570790930191037
s(S'basketball'
p8302
S'player'
p8303
S'in'
p8304
tp8305
F0.00017853954650955185
s(S'as'
p8306
S'[[adj]]'
p8307
S'men'
p8308
tp8309
F0.00017853954650955185
s(S'[[num]]'
p8310
S'seasons'
p8311
S'before'
p8312
tp8313
F0.00017853954650955185
s(S'then'
p8314
S'attended'
p8315
S'of'
p8316
tp8317
F0.00017853954650955185
s(S'then'
p8318
S'playing'
p8319
S'for'
p8320
tp8321
F0.00017853954650955185
s(S'currently'
p8322
S'signed'
p8323
S'with'
p8324
tp8325
F0.00017853954650955185
s(S'[[det]]'
p8326
S'football'
p8327
S'quarterback'
p8328
tp8329
F0.00017853954650955185
s(S'who'
p8330
S'played'
p8331
S'[[adj]]'
p8332
tp8333
F0.0003570790930191037
s(g7094
g5626
g5627
tp8334
F0.00017853954650955185
s(S'been'
p8335
S'selected'
p8336
S'as'
p8337
tp8338
F0.00017853954650955185
s(S'[[con]]'
p8339
S'joined'
p8340
S'[[adj]]'
p8341
tp8342
F0.00017853954650955185
s(g8185
g221
g222
tp8343
F0.00017853954650955185
s(S'drafted'
p8344
g7492
g7493
tp8345
F0.00017853954650955185
s(S'football'
p8346
g7555
g7556
tp8347
F0.00017853954650955185
s(S'have'
p8348
S'attended'
p8349
S'[[det]]'
p8350
tp8351
F0.00017853954650955185
s(S'then'
p8352
S'moved'
p8353
S'with'
p8354
tp8355
F0.00017853954650955185
s(S'member'
p8356
g4860
g4861
tp8357
F0.0003570790930191037
s(S'member'
p8358
S'of'
p8359
S'team'
p8360
tp8361
F0.0003570790930191037
s(g6114
g6115
S'goals'
p8362
tp8363
F0.00017853954650955185
s(S'been'
p8364
S'involved'
p8365
S'with'
p8366
tp8367
F0.00017853954650955185
s(S'has'
p8368
S'moved'
p8369
S'on'
p8370
tp8371
F0.00017853954650955185
s(g4024
g4025
S'against'
p8372
tp8373
F0.00017853954650955185
s(g5227
g5228
S'goals'
p8374
tp8375
F0.0010712372790573112
s(S'was'
p8376
S'head'
p8377
S'to'
p8378
tp8379
F0.00017853954650955185
s(S'football'
p8380
g515
g516
tp8381
F0.00017853954650955185
s(S'[[num]]'
p8382
S'joined'
p8383
S'[[det]]'
p8384
tp8385
F0.00017853954650955185
s(S'that'
p8386
S'won'
p8387
S'[[num]]'
p8388
tp8389
F0.00017853954650955185
s(S'[[adj]]'
p8390
S'player'
p8391
S'at'
p8392
tp8393
F0.00017853954650955185
s(S'later'
p8394
S'attended'
p8395
S'of'
p8396
tp8397
F0.00017853954650955185
s(g5279
g1258
g233
tp8398
F0.00017853954650955185
s(S'[[con]]'
p8399
S'signed'
p8400
S'[[det]]'
p8401
tp8402
F0.00017853954650955185
s(S'[[adj]]'
p8403
S'season'
p8404
S'at'
p8405
tp8406
F0.0005356186395286556
s(S'was'
p8407
S'member'
p8408
S'in'
p8409
tp8410
F0.00017853954650955185
s(S'began'
p8411
S'[[prp]]'
p8412
S'career'
p8413
tp8414
F0.0019639350116050706
s(S'then'
p8415
g3241
g3242
tp8416
F0.00017853954650955185
s(S'played'
p8417
g6776
g6777
tp8418
F0.00017853954650955185
s(S'[[adj]]'
p8419
g7628
g7629
tp8420
F0.0005356186395286556
s(S'[[prp]]'
p8421
S'coach'
p8422
S'at'
p8423
tp8424
F0.00017853954650955185
s(S'was'
p8425
S'given'
p8426
S'at'
p8427
tp8428
F0.00017853954650955185
s(g198
g199
S'selected'
p8429
tp8430
F0.0003570790930191037
s(g4244
g4245
g3337
tp8431
F0.004642028209248348
s(S'later'
p8432
S'earned'
p8433
S'from'
p8434
tp8435
F0.00017853954650955185
s(S'[[num]]'
p8436
g2141
g2142
tp8437
F0.001249776825566863
s(S'has'
p8438
S'served'
p8439
S'to'
p8440
tp8441
F0.00017853954650955185
s(g5046
g5047
S'match'
p8442
tp8443
F0.00017853954650955185
s(S'nominated'
p8444
g1549
g1550
tp8445
F0.00017853954650955185
s(S'was'
p8446
S'selected'
p8447
S'[[num]]'
p8448
tp8449
F0.00017853954650955185
s(S'played'
p8450
g2776
g2777
tp8451
F0.00017853954650955185
s(S'has'
p8452
S'earned'
p8453
S'from'
p8454
tp8455
F0.00017853954650955185
s(S'born'
p8456
S'died'
p8457
S'[[num]]'
p8458
tp8459
F0.00017853954650955185
s(g7174
g4714
g4715
tp8460
F0.0005356186395286556
s(S'was'
p8461
S'resigned'
p8462
S'by'
p8463
tp8464
F0.00017853954650955185
s(g222
g223
g4263
tp8465
F0.00017853954650955185
s(S'first'
p8466
S'represented'
p8467
S'[[det]]'
p8468
tp8469
F0.00017853954650955185
s(S'back'
p8470
S'playing'
p8471
S'for'
p8472
tp8473
F0.00017853954650955185
s(g4297
g1769
g1770
tp8474
F0.00017853954650955185
s(S'was'
p8475
S'named'
p8476
S'with'
p8477
tp8478
F0.00017853954650955185
s(S'[[adj]]'
p8479
S'selected'
p8480
S'for'
p8481
tp8482
F0.00017853954650955185
s(S'was'
p8483
S'recruited'
p8484
S'into'
p8485
tp8486
F0.00017853954650955185
s(S'[[det]]'
p8487
S'college'
p8488
S'football'
p8489
tp8490
F0.0003570790930191037
s(S'first'
p8491
S'joined'
p8492
S'[[det]]'
p8493
tp8494
F0.00017853954650955185
s(S'up'
p8495
S'playing'
p8496
S'for'
p8497
tp8498
F0.00017853954650955185
s(S'played'
p8499
S'in'
p8500
S'team'
p8501
tp8502
F0.00017853954650955185
s(g3300
g3301
S'in'
p8503
tp8504
F0.002678093197643278
s(S'was'
p8505
g6545
g6546
tp8506
F0.0003570790930191037
s(S'then'
p8507
S'served'
p8508
S'at'
p8509
tp8510
F0.00017853954650955185
s(S'has'
p8511
S'served'
p8512
S'on'
p8513
tp8514
F0.00017853954650955185
s(S'later'
p8515
S'hired'
p8516
S'at'
p8517
tp8518
F0.00017853954650955185
s(S'[[det]]'
p8519
S'season'
p8520
S'[[det]]'
p8521
tp8522
F0.0003570790930191037
s(g2098
g2099
g984
tp8523
F0.00017853954650955185
s(S'[[adj]]'
p8524
g2015
g2016
tp8525
F0.0007141581860382074
s(g2049
g1110
g1111
tp8526
F0.00017853954650955185
s(S'[[num]]'
p8527
S'seasons'
p8528
S'between'
p8529
tp8530
F0.0003570790930191037
s(S'as'
p8531
g177
g178
tp8532
F0.00017853954650955185
s(S'after'
p8533
S'playing'
p8534
S'at'
p8535
tp8536
F0.00017853954650955185
s(S'[[det]]'
p8537
g5738
g5739
tp8538
F0.00017853954650955185
s(S'games'
p8539
g5226
g5227
tp8540
F0.0008926977325477593
s(S'was'
p8541
S'playing'
p8542
S'with'
p8543
tp8544
F0.00017853954650955185
s(S'was'
p8545
S'appointed'
p8546
S'before'
p8547
tp8548
F0.00017853954650955185
s(S'was'
p8549
S'transferred'
p8550
S'for'
p8551
tp8552
F0.00017853954650955185
s(g3163
g3164
S'team'
p8553
tp8554
F0.00017853954650955185
s(S'again'
p8555
S'named'
p8556
S'[[det]]'
p8557
tp8558
F0.00017853954650955185
s(S'then'
p8559
S'moved'
p8560
S'[[det]]'
p8561
tp8562
F0.00017853954650955185
s(S'was'
p8563
S'played'
p8564
S'for'
p8565
tp8566
F0.00017853954650955185
s(g973
g974
g1904
tp8567
F0.0035707909301910374
s(g2260
g2261
g2363
tp8568
F0.005534725941796108
s(S'first'
p8569
S'came'
p8570
S'at'
p8571
tp8572
F0.00017853954650955185
s(S'once'
p8573
S'played'
p8574
S'with'
p8575
tp8576
F0.00017853954650955185
s(S'games'
p8577
S'[[con]]'
p8578
S'has'
p8579
tp8580
F0.00017853954650955185
s(g6609
g6610
S'head'
p8581
tp8582
F0.00017853954650955185
s(S'were'
p8583
S'signed'
p8584
S'from'
p8585
tp8586
F0.00017853954650955185
s(S'already'
p8587
S'played'
p8588
S'in'
p8589
tp8590
F0.00017853954650955185
s(g1944
g1945
S'for'
p8591
tp8592
F0.00017853954650955185
s(S'also'
p8593
S'signed'
p8594
S'with'
p8595
tp8596
F0.00017853954650955185
s(g599
g5141
S'in'
p8597
tp8598
F0.0028566327441528296
s(g2610
g2611
S'played'
p8599
tp8600
F0.00017853954650955185
s(g2732
g2733
S'career'
p8601
tp8602
F0.0005356186395286556
s(S'played'
p8603
g2647
g2648
tp8604
F0.0010712372790573112
s(S'later'
p8605
S'served'
p8606
S'in'
p8607
tp8608
F0.00017853954650955185
s(S'[[adj]]'
p8609
g1975
g1976
tp8610
F0.0003570790930191037
s(S'was'
p8611
g125
g126
tp8612
F0.00017853954650955185
s(g7393
g8280
S'with'
p8613
tp8614
F0.00017853954650955185
s(S'[[adj]]'
p8615
S'end'
p8616
S'in'
p8617
tp8618
F0.0003570790930191037
s(S'joined'
p8619
g7480
g7481
tp8620
F0.00017853954650955185
s(S'started'
p8621
g5878
g3763
tp8622
F0.0003570790930191037
s(S'being'
p8623
S'recruited'
p8624
S'to'
p8625
tp8626
F0.00017853954650955185
s(g4402
g3544
g3545
tp8627
F0.00017853954650955185
s(g6159
g6160
S'with'
p8628
tp8629
F0.0003570790930191037
s.