(dp0
(S'had'
p1
S'appointed'
p2
S'as'
p3
tp4
F0.004310344827586207
s(S'[[num]]'
p5
S'ahead'
p6
S'of'
p7
tp8
F0.004310344827586207
s(S'also'
p9
S'appointed'
p10
S'[[adj]]'
p11
tp12
F0.004310344827586207
s(S'was'
p13
S'replaced'
p14
S'from'
p15
tp16
F0.004310344827586207
s(S'is'
p17
S'appointed'
p18
S'as'
p19
tp20
F0.004310344827586207
s(S'by'
p21
S'winning'
p22
S'[[det]]'
p23
tp24
F0.004310344827586207
s(S'being'
p25
S'appointed'
p26
S'to'
p27
tp28
F0.004310344827586207
s(S'have'
p29
S'succeeded'
p30
S'as'
p31
tp32
F0.004310344827586207
s(S'[[det]]'
p33
S'county'
p34
S'margin'
p35
tp36
F0.004310344827586207
s(S'was'
p37
S'appointed'
p38
S'when'
p39
tp40
F0.004310344827586207
s(S'later'
p41
S'appointed'
p42
S'as'
p43
tp44
F0.004310344827586207
s(S'then'
p45
S'appointed'
p46
S'by'
p47
tp48
F0.004310344827586207
s(S'first'
p49
S'met'
p50
S'at'
p51
tp52
F0.004310344827586207
s(S'[[pro]]'
p53
S'replaced'
p54
S'by'
p55
tp56
F0.004310344827586207
s(S'was'
p57
S'replaced'
p58
S'as'
p59
tp60
F0.004310344827586207
s(S'is'
p61
S'succeeded'
p62
S'by'
p63
tp64
F0.004310344827586207
s(S'then'
p65
S'replaced'
p66
S'with'
p67
tp68
F0.004310344827586207
s(S'where'
p69
S'met'
p70
S'with'
p71
tp72
F0.004310344827586207
s(S'had'
p73
S'appointed'
p74
S'in'
p75
tp76
F0.004310344827586207
s(S'had'
p77
S'succeeded'
p78
S'in'
p79
tp80
F0.004310344827586207
s(S'was'
p81
S'declared'
p82
S'to'
p83
tp84
F0.004310344827586207
s(S'is'
p85
S'replaced'
p86
S'as'
p87
tp88
F0.004310344827586207
s(S'is'
p89
S'appointed'
p90
S'after'
p91
tp92
F0.004310344827586207
s(S'be'
p93
S'led'
p94
S'by'
p95
tp96
F0.004310344827586207
s(S'has'
p97
S'explained'
p98
S'that'
p99
tp100
F0.004310344827586207
s(S'being'
p101
S'appointed'
p102
S'[[det]]'
p103
tp104
F0.004310344827586207
s(S'later'
p105
S'appointed'
p106
S'[[con]]'
p107
tp108
F0.004310344827586207
s(S'had'
p109
S'met'
p110
S'with'
p111
tp112
F0.004310344827586207
s(S'was'
p113
S'leader'
p114
S'[[con]]'
p115
tp116
F0.004310344827586207
s(S'[[det]]'
p117
S'lead'
p118
S'with'
p119
tp120
F0.004310344827586207
s(S'[[con]]'
p121
S'replaced'
p122
S'[[pro]]'
p123
tp124
F0.004310344827586207
s(S'was'
p125
S'succeeded'
p126
S'on'
p127
tp128
F0.004310344827586207
s(S'also'
p129
S'met'
p130
S'from'
p131
tp132
F0.004310344827586207
s(S'[[adj]]'
p133
S'successor'
p134
S'as'
p135
tp136
F0.004310344827586207
s(S'elected'
p137
S'leader'
p138
S'[[con]]'
p139
tp140
F0.004310344827586207
s(S'was'
p141
S'appointed'
p142
S'with'
p143
tp144
F0.004310344827586207
s(S'also'
p145
S'replaced'
p146
S'by'
p147
tp148
F0.004310344827586207
s(S'has'
p149
S'met'
p150
S'with'
p151
tp152
F0.004310344827586207
s(S'had'
p153
S'met'
p154
S'[[det]]'
p155
tp156
F0.004310344827586207
s(S'[[adj]]'
p157
S'leader'
p158
S'[[con]]'
p159
tp160
F0.004310344827586207
s(S'then'
p161
S'succeeded'
p162
S'by'
p163
tp164
F0.004310344827586207
s(S'now'
p165
S'led'
p166
S'from'
p167
tp168
F0.004310344827586207
s(S'[[adj]]'
p169
S'successor'
p170
S'of'
p171
tp172
F0.004310344827586207
s(S'[[con]]'
p173
S'appointed'
p174
S'[[pro]]'
p175
tp176
F0.004310344827586207
s(S'then'
p177
S'appointed'
p178
S'to'
p179
tp180
F0.004310344827586207
s(S'was'
p181
S'replaced'
p182
S'while'
p183
tp184
F0.004310344827586207
s(S'was'
p185
S'succeeded'
p186
S'in'
p187
tp188
F0.004310344827586207
s(S'had'
p189
S'met'
p190
S'when'
p191
tp192
F0.004310344827586207
s(S'had'
p193
S'declared'
p194
S'[[pro]]'
p195
tp196
F0.004310344827586207
s(S'[[prp]]'
p197
S'leader'
p198
S'when'
p199
tp200
F0.004310344827586207
s(S'was'
p201
S'replaced'
p202
S'after'
p203
tp204
F0.004310344827586207
s(S'[[num]]'
p205
S'led'
p206
S'by'
p207
tp208
F0.004310344827586207
s(S'being'
p209
S'appointed'
p210
S'by'
p211
tp212
F0.004310344827586207
s(S'was'
p213
S'replaced'
p214
S'with'
p215
tp216
F0.004310344827586207
s(S'[[con]]'
p217
S'met'
p218
S'with'
p219
tp220
F0.004310344827586207
s(S'being'
p221
S'replaced'
p222
S'by'
p223
tp224
F0.004310344827586207
s(S'[[con]]'
p225
S'declared'
p226
S'[[adj]]'
p227
tp228
F0.004310344827586207
s(S'been'
p229
S'appointed'
p230
S'as'
p231
tp232
F0.004310344827586207
s(S'been'
p233
S'appointed'
p234
S'by'
p235
tp236
F0.004310344827586207
s(S'who'
p237
S'led'
p238
S'for'
p239
tp240
F0.004310344827586207
s(S'[[con]]'
p241
S'successor'
p242
S'of'
p243
tp244
F0.004310344827586207
s(S'were'
p245
S'replaced'
p246
S'with'
p247
tp248
F0.004310344827586207
s(S'[[det]]'
p249
S'successor'
p250
S'of'
p251
tp252
F0.004310344827586207
s(g34
g35
S'over'
p253
tp254
F0.004310344827586207
s(S'where'
p255
S'met'
p256
S'[[det]]'
p257
tp258
F0.004310344827586207
s(S's'
p259
S'successor'
p260
S'in'
p261
tp262
F0.004310344827586207
s(S'[[con]]'
p263
S'met'
p264
S'[[con]]'
p265
tp266
F0.004310344827586207
s(S'was'
p267
g137
g138
tp268
F0.008620689655172414
s(S'[[con]]'
p269
S'met'
p270
S'[[det]]'
p271
tp272
F0.004310344827586207
s(S'had'
p273
S'appointed'
p274
S'to'
p275
tp276
F0.004310344827586207
s(S'is'
p277
S'appointed'
p278
S'[[det]]'
p279
tp280
F0.004310344827586207
s(S'championship'
p281
g21
g22
tp282
F0.004310344827586207
s(S'[[con]]'
p283
S'met'
p284
S'[[adj]]'
p285
tp286
F0.004310344827586207
s(S'was'
p287
S'replaced'
p288
S'[[con]]'
p289
tp290
F0.004310344827586207
s(S'also'
p291
S'succeeded'
p292
S'as'
p293
tp294
F0.004310344827586207
s(S'where'
p295
S'met'
p296
S'[[adj]]'
p297
tp298
F0.004310344827586207
s(S'is'
p299
S'replaced'
p300
S'by'
p301
tp302
F0.004310344827586207
s(S'is'
p303
S'succeeded'
p304
S'as'
p305
tp306
F0.004310344827586207
s(S'[[prp]]'
p307
S'successor'
p308
S'in'
p309
tp310
F0.004310344827586207
s(S'was'
p311
S'appointed'
p312
S'under'
p313
tp314
F0.004310344827586207
s(S'later'
p315
S'succeeded'
p316
S'as'
p317
tp318
F0.004310344827586207
s(S'be'
p319
S'replaced'
p320
S'by'
p321
tp322
F0.004310344827586207
s(S'was'
p323
S'followed'
p324
S'by'
p325
tp326
F0.004310344827586207
s(S'then'
p327
S'succeeded'
p328
S'as'
p329
tp330
F0.004310344827586207
s(S'who'
p331
S'appointed'
p332
S'[[det]]'
p333
tp334
F0.004310344827586207
s(S'[[con]]'
p335
S'met'
p336
S'up'
p337
tp338
F0.004310344827586207
s(S'was'
p339
S'appointed'
p340
S'as'
p341
tp342
F0.004310344827586207
s(S'also'
p343
S'appointed'
p344
S'[[con]]'
p345
tp346
F0.004310344827586207
s(S'were'
p347
S'appointed'
p348
S'by'
p349
tp350
F0.004310344827586207
s(S'also'
p351
S'met'
p352
S'[[prp]]'
p353
tp354
F0.004310344827586207
s(S'also'
p355
S'replaced'
p356
S'as'
p357
tp358
F0.004310344827586207
s(S'as'
p359
S'successor'
p360
S'of'
p361
tp362
F0.004310344827586207
s(S'[[con]]'
p363
S'appointed'
p364
S'as'
p365
tp366
F0.004310344827586207
s(S'first'
p367
S'met'
p368
S'[[con]]'
p369
tp370
F0.004310344827586207
s(S'[[det]]'
p371
S'leader'
p372
S'as'
p373
tp374
F0.004310344827586207
s(S'[[det]]'
p375
S'leader'
p376
S'is'
p377
tp378
F0.004310344827586207
s(S'later'
p379
S'replaced'
p380
S'with'
p381
tp382
F0.004310344827586207
s(S'became'
p383
S'leader'
p384
S'[[con]]'
p385
tp386
F0.004310344827586207
s(S'be'
p387
S'succeeded'
p388
S'by'
p389
tp390
F0.004310344827586207
s(S'passed'
p391
S'[[con]]'
p392
S'set'
p393
tp394
F0.004310344827586207
s(S'be'
p395
S'appointed'
p396
S'to'
p397
tp398
F0.004310344827586207
s(S'later'
p399
S'met'
p400
S'with'
p401
tp402
F0.004310344827586207
s(S'later'
p403
S'appointed'
p404
S'[[det]]'
p405
tp406
F0.004310344827586207
s(g392
g393
S'off'
p407
tp408
F0.004310344827586207
s(S'was'
p409
S'replaced'
p410
S'by'
p411
tp412
F0.004310344827586207
s(S'was'
p413
S'met'
p414
S'by'
p415
tp416
F0.004310344827586207
s(S'also'
p417
S'appointed'
p418
S'by'
p419
tp420
F0.004310344827586207
s(S'getting'
p421
S'ahead'
p422
S'of'
p423
tp424
F0.004310344827586207
s(S'was'
p425
S'succeeded'
p426
S'[[pro]]'
p427
tp428
F0.004310344827586207
s(S'later'
p429
S'appointed'
p430
S'by'
p431
tp432
F0.004310344827586207
s(S'then'
p433
S'appointed'
p434
S'[[con]]'
p435
tp436
F0.004310344827586207
s(S'[[det]]'
p437
S'leader'
p438
S'to'
p439
tp440
F0.004310344827586207
s(S'first'
p441
S'appointed'
p442
S'by'
p443
tp444
F0.004310344827586207
s(S'[[adj]]'
p445
S'leader'
p446
S'with'
p447
tp448
F0.004310344827586207
s(S'had'
p449
S'replaced'
p450
S'with'
p451
tp452
F0.004310344827586207
s(S'lead'
p453
S'ahead'
p454
S'of'
p455
tp456
F0.004310344827586207
s(S'been'
p457
S'appointed'
p458
S'to'
p459
tp460
F0.004310344827586207
s(S'were'
p461
S'replaced'
p462
S'by'
p463
tp464
F0.004310344827586207
s(S'then'
p465
S'appointed'
p466
S'[[det]]'
p467
tp468
F0.004310344827586207
s(S'later'
p469
S'appointed'
p470
S'of'
p471
tp472
F0.004310344827586207
s(S'[[con]]'
p473
S'replaced'
p474
S'[[adj]]'
p475
tp476
F0.004310344827586207
s(S'was'
p477
S'appointed'
p478
S'by'
p479
tp480
F0.004310344827586207
s(S'had'
p481
S'succeeded'
p482
S'as'
p483
tp484
F0.004310344827586207
s(S'[[det]]'
p485
S'appointed'
p486
S'[[con]]'
p487
tp488
F0.004310344827586207
s(S'also'
p489
S'met'
p490
S'[[con]]'
p491
tp492
F0.004310344827586207
s(g119
g421
g422
tp493
F0.004310344827586207
s(S'was'
p494
S'declared'
p495
S'[[det]]'
p496
tp497
F0.004310344827586207
s(S'being'
p498
S'succeeded'
p499
S'by'
p500
tp501
F0.004310344827586207
s(S'[[con]]'
p502
S'replaced'
p503
S'[[con]]'
p504
tp505
F0.004310344827586207
s(S'had'
p506
S'replaced'
p507
S'[[det]]'
p508
tp509
F0.004310344827586207
s(S'just'
p510
S'ahead'
p511
S'of'
p512
tp513
F0.004310344827586207
s(S'also'
p514
S'led'
p515
S'[[con]]'
p516
tp517
F0.004310344827586207
s(S'[[det]]'
p518
S'successor'
p519
S'[[con]]'
p520
tp521
F0.004310344827586207
s(S'also'
p522
S'appointed'
p523
S'as'
p524
tp525
F0.004310344827586207
s(S'had'
p526
S'replaced'
p527
S'[[pro]]'
p528
tp529
F0.004310344827586207
s(S'which'
p530
S'replaced'
p531
S'[[det]]'
p532
tp533
F0.004310344827586207
s(S'was'
p534
S'appointed'
p535
S'[[adj]]'
p536
tp537
F0.004310344827586207
s(S'soon'
p538
S'met'
p539
S'[[con]]'
p540
tp541
F0.004310344827586207
s(S'was'
p542
S'declared'
p543
S'by'
p544
tp545
F0.004310344827586207
s(S'[[det]]'
p546
S'leader'
p547
S'[[con]]'
p548
tp549
F0.004310344827586207
s(S'[[adj]]'
p550
S'ahead'
p551
S'of'
p552
tp553
F0.004310344827586207
s(S'be'
p554
S'replaced'
p555
S'as'
p556
tp557
F0.004310344827586207
s(S'then'
p558
S'replaced'
p559
S'by'
p560
tp561
F0.004310344827586207
s(S'[[det]]'
p562
g281
g21
tp563
F0.004310344827586207
s(S'later'
p564
S'explained'
p565
S'that'
p566
tp567
F0.004310344827586207
s(S'[[det]]'
p568
S'appointed'
p569
S'by'
p570
tp571
F0.004310344827586207
s(S'who'
p572
S'led'
p573
S'[[det]]'
p574
tp575
F0.004310344827586207
s(g259
S'successor'
p576
S'[[con]]'
p577
tp578
F0.004310344827586207
s(S'[[adj]]'
p579
S'appointed'
p580
S'by'
p581
tp582
F0.004310344827586207
s(S'have'
p583
S'met'
p584
S'with'
p585
tp586
F0.004310344827586207
s(S'of'
p587
S'led'
p588
S'by'
p589
tp590
F0.004310344827586207
s(S'be'
p591
S'appointed'
p592
S'as'
p593
tp594
F0.004310344827586207
s(S'also'
p595
S'met'
p596
S'with'
p597
tp598
F0.004310344827586207
s(S'later'
p599
S'replaced'
p600
S'by'
p601
tp602
F0.004310344827586207
s(S'been'
p603
S'replaced'
p604
S'by'
p605
tp606
F0.004310344827586207
s(S'regained'
p607
g562
g281
tp608
F0.004310344827586207
s(S'was'
p609
S'succeeded'
p610
S'as'
p611
tp612
F0.004310344827586207
s(g259
S'successor'
p613
S'as'
p614
tp615
F0.004310344827586207
s(S'again'
p616
S'appointed'
p617
S'[[det]]'
p618
tp619
F0.004310344827586207
s(S'[[con]]'
p620
S'replaced'
p621
S'by'
p622
tp623
F0.004310344827586207
s(S'was'
p624
S'appointed'
p625
S'first'
p626
tp627
F0.004310344827586207
s(S'was'
p628
S'succeeded'
p629
S'by'
p630
tp631
F0.004310344827586207
s(S'was'
p632
S'declared'
p633
S'[[adj]]'
p634
tp635
F0.004310344827586207
s(S'be'
p636
S'appointed'
p637
S'[[con]]'
p638
tp639
F0.004310344827586207
s(S'later'
p640
S'replaced'
p641
S'as'
p642
tp643
F0.004310344827586207
s(S'also'
p644
S'met'
p645
S'[[det]]'
p646
tp647
F0.004310344827586207
s(S'[[det]]'
p648
S'leader'
p649
S'was'
p650
tp651
F0.004310344827586207
s(S'[[con]]'
p652
S'ahead'
p653
S'of'
p654
tp655
F0.004310344827586207
s(S'carried'
p656
g33
g34
tp657
F0.004310344827586207
s(S'[[con]]'
p658
S'succeeded'
p659
S'as'
p660
tp661
F0.004310344827586207
s(S'took'
p662
S'[[det]]'
p663
g453
tp664
F0.008620689655172414
s(S'had'
p665
S'succeeded'
p666
S'[[pro]]'
p667
tp668
F0.004310344827586207
s(S'won'
p669
S'in'
p670
g323
tp671
F0.004310344827586207
s(S'has'
p672
S'met'
p673
S'[[con]]'
p674
tp675
F0.004310344827586207
s(S'then'
p676
S'met'
p677
S'with'
p678
tp679
F0.004310344827586207
s(S'which'
p680
S'led'
p681
S'to'
p682
tp683
F0.004310344827586207
s(S'[[adj]]'
p684
S'met'
p685
S'while'
p686
tp687
F0.004310344827586207
s(S'was'
p688
S'appointed'
p689
S'before'
p690
tp691
F0.004310344827586207
s(g670
g323
g324
tp692
F0.004310344827586207
s(S'also'
p693
S'appointed'
p694
S'[[det]]'
p695
tp696
F0.004310344827586207
s(S'[[num]]'
p697
S'appointed'
p698
S'by'
p699
tp700
F0.004310344827586207
s(S'was'
p701
S'appointed'
p702
S'[[prp]]'
p703
tp704
F0.004310344827586207
s(S'was'
p705
S'appointed'
p706
S'[[det]]'
p707
tp708
F0.004310344827586207
s(S'[[det]]'
p709
S'successor'
p710
S'to'
p711
tp712
F0.004310344827586207
s(S'had'
p713
S'met'
p714
S'while'
p715
tp716
F0.004310344827586207
s(S'be'
p717
S'appointed'
p718
S'by'
p719
tp720
F0.004310344827586207
s(S'where'
p721
S'met'
p722
S'[[con]]'
p723
tp724
F0.004310344827586207
s(S'[[adj]]'
p725
S'led'
p726
S'by'
p727
tp728
F0.004310344827586207
s(S'was'
p729
S'appointed'
p730
S'after'
p731
tp732
F0.004310344827586207
s(S'was'
p733
S'appointed'
p734
S'[[con]]'
p735
tp736
F0.004310344827586207
s(S'also'
p737
S'met'
p738
S'[[adj]]'
p739
tp740
F0.004310344827586207
s(S'is'
p741
S'led'
p742
S'to'
p743
tp744
F0.004310344827586207
s(S'first'
p745
S'met'
p746
S'with'
p747
tp748
F0.004310344827586207
s(S'had'
p749
S'appointed'
p750
S'[[det]]'
p751
tp752
F0.004310344827586207
s(S'had'
p753
S'met'
p754
S'through'
p755
tp756
F0.004310344827586207
s(g663
g453
g454
tp757
F0.004310344827586207
s(S'first'
p758
S'appointed'
p759
S'in'
p760
tp761
F0.004310344827586207
s(S'first'
p762
S'appointed'
p763
S'when'
p764
tp765
F0.004310344827586207
s(g118
g119
g421
tp766
F0.004310344827586207
s(S'again'
p767
S'appointed'
p768
S'as'
p769
tp770
F0.004310344827586207
s(S'was'
p771
S'succeeded'
p772
S'[[con]]'
p773
tp774
F0.004310344827586207
s(S'[[adj]]'
p775
S'met'
p776
S'[[det]]'
p777
tp778
F0.004310344827586207
s(S'then'
p779
S'replaced'
p780
S'as'
p781
tp782
F0.004310344827586207
s(S'first'
p783
S'met'
p784
S'[[det]]'
p785
tp786
F0.004310344827586207
s(S'is'
p787
S'appointed'
p788
S'to'
p789
tp790
F0.004310344827586207
s(S'is'
p791
S'appointed'
p792
S'by'
p793
tp794
F0.004310344827586207
s(S'[[con]]'
p795
S'declared'
p796
S'that'
p797
tp798
F0.004310344827586207
s(S'first'
p799
S'met'
p800
S'when'
p801
tp802
F0.004310344827586207
s(g22
g23
S'match'
p803
tp804
F0.004310344827586207
s(S'then'
p805
S'appointed'
p806
S'as'
p807
tp808
F0.004310344827586207
s(S'[[prp]]'
p809
S'successor'
p810
S'as'
p811
tp812
F0.004310344827586207
s(S'was'
p813
S'appointed'
p814
S'where'
p815
tp816
F0.004310344827586207
s(S'[[con]]'
p817
S'replaced'
p818
S'with'
p819
tp820
F0.004310344827586207
s(S'is'
p821
S'met'
p822
S'by'
p823
tp824
F0.004310344827586207
s(S'being'
p825
S'appointed'
p826
S'as'
p827
tp828
F0.004310344827586207
s(S'was'
p829
S'replaced'
p830
S'in'
p831
tp832
F0.004310344827586207
s(S'soon'
p833
S'replaced'
p834
S'by'
p835
tp836
F0.004310344827586207
s(S'be'
p837
S'appointed'
p838
S'[[det]]'
p839
tp840
F0.004310344827586207
s(S'[[con]]'
p841
S'appointed'
p842
S'[[det]]'
p843
tp844
F0.004310344827586207
s(S'was'
p845
S'succeeded'
p846
S'to'
p847
tp848
F0.004310344827586207
s(S'instead'
p849
S'appointed'
p850
S'as'
p851
tp852
F0.004310344827586207
s(S'is'
p853
S'appointed'
p854
S'[[con]]'
p855
tp856
F0.004310344827586207
s(S'was'
p857
S'succeeded'
p858
S'who'
p859
tp860
F0.004310344827586207
s(S'[[prp]]'
p861
S'successor'
p862
S'[[con]]'
p863
tp864
F0.004310344827586207
s(S'[[adj]]'
p865
S'successor'
p866
S'to'
p867
tp868
F0.004310344827586207
s(S'[[det]]'
p869
S'led'
p870
S'by'
p871
tp872
F0.004310344827586207
s(S'being'
p873
S'replaced'
p874
S'with'
p875
tp876
F0.004310344827586207
s(S'have'
p877
S'met'
p878
S'[[con]]'
p879
tp880
F0.004310344827586207
s(g23
g803
S'at'
p881
tp882
F0.004310344827586207
s(S'had'
p883
S'met'
p884
S'[[con]]'
p885
tp886
F0.004310344827586207
s.