(dp0
(S'was'
p1
S'designed'
p2
S'to'
p3
tp4
F0.09090909090909091
s(S'was'
p5
S'designed'
p6
S'by'
p7
tp8
F0.09090909090909091
s(S'were'
p9
S'designed'
p10
S'by'
p11
tp12
F0.09090909090909091
s(S'[[adj]]'
p13
S'designed'
p14
S'by'
p15
tp16
F0.09090909090909091
s(S'was'
p17
S'designed'
p18
S'[[con]]'
p19
tp20
F0.09090909090909091
s(S'been'
p21
S'designed'
p22
S'by'
p23
tp24
F0.09090909090909091
s(S'was'
p25
S'designed'
p26
S'for'
p27
tp28
F0.09090909090909091
s(S'is'
p29
S'designed'
p30
S'by'
p31
tp32
F0.09090909090909091
s(S'[[num]]'
p33
S'designed'
p34
S'by'
p35
tp36
F0.09090909090909091
s(S'was'
p37
S'designed'
p38
S'with'
p39
tp40
F0.09090909090909091
s(S'[[det]]'
p41
S'designed'
p42
S'by'
p43
tp44
F0.09090909090909091
s.