(dp0
(S'[[adj]]'
p1
S'service'
p2
S'from'
p3
tp4
F0.041666666666666664
s(S's'
p5
S'service'
p6
S'between'
p7
tp8
F0.041666666666666664
s(S'[[det]]'
p9
S'following'
p10
S'[[adj]]'
p11
tp12
F0.041666666666666664
s(S'with'
p13
S'service'
p14
S'to'
p15
tp16
F0.041666666666666664
s(S'system'
p17
S'operating'
p18
S'[[prp]]'
p19
tp20
F0.041666666666666664
s(S'scheduled'
p21
S'services'
p22
S'to'
p23
tp24
F0.041666666666666664
s(g10
g11
S'scheduled'
p25
tp26
F0.041666666666666664
s(S'[[adj]]'
p27
S'service'
p28
S'of'
p29
tp30
F0.041666666666666664
s(S'[[det]]'
p31
S'service'
p32
S'to'
p33
tp34
F0.041666666666666664
s(g19
S'daily'
p35
S'in'
p36
tp37
F0.041666666666666664
s(g5
S'service'
p38
S'to'
p39
tp40
F0.041666666666666664
s(S'passenger'
p41
S'rail'
p42
g17
tp43
F0.041666666666666664
s(S'operated'
p44
g21
g22
tp45
F0.041666666666666664
s(S'to'
p46
g9
g10
tp47
F0.041666666666666664
s(g35
g36
S'[[det]]'
p48
tp49
F0.041666666666666664
s(g36
g48
S'direction'
p50
tp51
F0.041666666666666664
s(g18
g19
g35
tp52
F0.041666666666666664
s(S'services'
p53
g46
g9
tp54
F0.041666666666666664
s(S'provides'
p55
S'service'
p56
S'to'
p57
tp58
F0.041666666666666664
s(g42
g17
g18
tp59
F0.041666666666666664
s(S'operated'
p60
g53
g46
tp61
F0.041666666666666664
s(S'[[adj]]'
p62
S'service'
p63
S'between'
p64
tp65
F0.041666666666666664
s(S'[[det]]'
p66
S'trains'
p67
S'between'
p68
tp69
F0.041666666666666664
s(S'[[adj]]'
p70
g41
g42
tp71
F0.041666666666666664
s.