(dp0
(S'video'
p1
S'game'
p2
S'that'
p3
tp4
F0.005277044854881266
s(S'[[det]]'
p5
S'game'
p6
S'by'
p7
tp8
F0.002638522427440633
s(S'[[con]]'
p9
S'published'
p10
S'in'
p11
tp12
F0.002638522427440633
s(S'[[adj]]'
p13
S'game'
p14
S'show'
p15
tp16
F0.002638522427440633
s(S'[[con]]'
p17
S'was'
p18
S'released'
p19
tp20
F0.002638522427440633
s(S'published'
p21
S'[[con]]'
p22
S'developed'
p23
tp24
F0.002638522427440633
s(S'[[det]]'
p25
S'action'
p26
S'video'
p27
tp28
F0.002638522427440633
s(S'[[adj]]'
p29
S'game'
p30
S'that'
p31
tp32
F0.002638522427440633
s(S'[[con]]'
p33
S'was'
p34
S'published'
p35
tp36
F0.002638522427440633
s(S'[[pro]]'
p37
S'released'
p38
S'by'
p39
tp40
F0.002638522427440633
s(S'run'
p41
S'[[con]]'
p42
S'video'
p43
tp44
F0.002638522427440633
s(S'series'
p45
S'developed'
p46
S'by'
p47
tp48
F0.002638522427440633
s(S'is'
p49
S'developed'
p50
S'[[con]]'
p51
tp52
F0.002638522427440633
s(S'was'
p53
S'created'
p54
S'by'
p55
tp56
F0.002638522427440633
s(S'computer'
p57
S'game'
p58
S'published'
p59
tp60
F0.002638522427440633
s(S'[[det]]'
p61
S'developed'
p62
S'[[con]]'
p63
tp64
F0.002638522427440633
s(S'action'
p65
S'game'
p66
S'developed'
p67
tp68
F0.002638522427440633
s(S'is'
p69
S'[[det]]'
p70
S'video'
p71
tp72
F0.005277044854881266
s(S'sports'
p73
S'video'
p74
S'game'
p75
tp76
F0.002638522427440633
s(S'is'
p77
S'played'
p78
S'between'
p79
tp80
F0.002638522427440633
s(S'been'
p81
S'developed'
p82
S'by'
p83
tp84
F0.002638522427440633
s(S'[[adj]]'
p85
S'game'
p86
S'between'
p87
tp88
F0.002638522427440633
s(S'puzzle'
p89
S'video'
p90
S'game'
p91
tp92
F0.005277044854881266
s(S'puzzle'
p93
S'game'
p94
S'developed'
p95
tp96
F0.002638522427440633
s(g26
g27
S'game'
p97
tp98
F0.002638522427440633
s(S'were'
p99
S'released'
p100
S'by'
p101
tp102
F0.002638522427440633
s(S'actionadventure'
p103
S'video'
p104
S'game'
p105
tp106
F0.010554089709762533
s(S'racing'
p107
S'game'
p108
S'developed'
p109
tp110
F0.002638522427440633
s(S'is'
p111
S'played'
p112
S'in'
p113
tp114
F0.002638522427440633
s(S'is'
p115
S'released'
p116
S'by'
p117
tp118
F0.002638522427440633
s(S'adventure'
p119
S'video'
p120
S'game'
p121
tp122
F0.002638522427440633
s(S'[[det]]'
p123
g93
g94
tp124
F0.002638522427440633
s(S'was'
p125
S'released'
p126
S'by'
p127
tp128
F0.0079155672823219
s(S'created'
p129
S'[[con]]'
p130
S'released'
p131
tp132
F0.002638522427440633
s(S'[[con]]'
p133
S'released'
p134
S'by'
p135
tp136
F0.010554089709762533
s(S'was'
p137
S'contested'
p138
S'by'
p139
tp140
F0.002638522427440633
s(S'for'
p141
S'[[det]]'
p142
S'released'
p143
tp144
F0.002638522427440633
s(S'later'
p145
S'published'
p146
S'by'
p147
tp148
F0.002638522427440633
s(S'[[det]]'
p149
g103
g104
tp150
F0.005277044854881266
s(S'was'
p151
S'played'
p152
S'with'
p153
tp154
F0.002638522427440633
s(S'[[adj]]'
p155
S'developed'
p156
S'[[con]]'
p157
tp158
F0.002638522427440633
s(S'[[det]]'
p159
S'action'
p160
S'[[adj]]'
p161
tp162
F0.005277044854881266
s(S'[[adj]]'
p163
S'strategy'
p164
S'game'
p165
tp166
F0.005277044854881266
s(S'game'
p167
S'produced'
p168
S'by'
p169
tp170
F0.005277044854881266
s(S'[[adj]]'
p171
g119
g120
tp172
F0.002638522427440633
s(S'[[pro]]'
p173
S'[[adj]]'
p174
S'game'
p175
tp176
F0.002638522427440633
s(S'[[adj]]'
p177
S'shooter'
p178
S'video'
p179
tp180
F0.005277044854881266
s(S'is'
p181
S'created'
p182
S'by'
p183
tp184
F0.002638522427440633
s(S'that'
p185
S'was'
p186
S'developed'
p187
tp188
F0.002638522427440633
s(g138
g139
S'[[det]]'
p189
tp190
F0.002638522427440633
s(S'racing'
p191
S'video'
p192
S'game'
p193
tp194
F0.0079155672823219
s(S'[[num]]'
p195
S'played'
p196
S'between'
p197
tp198
F0.002638522427440633
s(S'console'
p199
S'[[adj]]'
p200
S'game'
p201
tp202
F0.005277044854881266
s(S'firstperson'
p203
S'shooter'
p204
S'video'
p205
tp206
F0.0079155672823219
s(S'[[adj]]'
p207
S'developed'
p208
S'by'
p209
tp210
F0.002638522427440633
s(S'was'
p211
S'released'
p212
S'[[con]]'
p213
tp214
F0.002638522427440633
s(S'being'
p215
S'developed'
p216
S'by'
p217
tp218
F0.002638522427440633
s(S'[[adj]]'
p219
S'created'
p220
S'by'
p221
tp222
F0.002638522427440633
s(S'game'
p223
S'developed'
p224
S'[[con]]'
p225
tp226
F0.06596306068601583
s(S'was'
p227
S'played'
p228
S'on'
p229
tp230
F0.002638522427440633
s(S'later'
p231
S'released'
p232
S'in'
p233
tp234
F0.002638522427440633
s(S'[[adj]]'
p235
S'strategy'
p236
S'computer'
p237
tp238
F0.005277044854881266
s(S'[[det]]'
p239
S'game'
p240
S'released'
p241
tp242
F0.002638522427440633
s(S'[[adj]]'
p243
S'game'
p244
S'by'
p245
tp246
F0.002638522427440633
s(S'[[det]]'
p247
g191
g192
tp248
F0.0079155672823219
s(S'arcade'
p249
S'game'
p250
S'created'
p251
tp252
F0.002638522427440633
s(S'[[adj]]'
p253
S'series'
p254
S'between'
p255
tp256
F0.002638522427440633
s(g139
g189
S'defending'
p257
tp258
F0.002638522427440633
s(S'shoot'
p259
g37
g38
tp260
F0.002638522427440633
s(S'video'
p261
S'game'
p262
g141
tp263
F0.002638522427440633
s(g189
g257
S'champion'
p264
tp265
F0.002638522427440633
s(g262
g141
g142
tp266
F0.002638522427440633
s(g200
g201
S'developed'
p267
tp268
F0.021108179419525065
s(S'[[det]]'
p269
g65
g66
tp270
F0.002638522427440633
s(S'developed'
p271
g33
g34
tp272
F0.005277044854881266
s(g225
S'published'
p273
S'by'
p274
tp275
F0.079155672823219
s(S'developed'
p276
g133
g134
tp277
F0.005277044854881266
s(S'video'
p278
S'game'
p279
S'developed'
p280
tp281
F0.0712401055408971
s(g193
S'released'
p282
S'by'
p283
tp284
F0.0158311345646438
s(S'was'
p285
S'played'
p286
S'between'
p287
tp288
F0.002638522427440633
s(S'game'
p289
S'developed'
p290
S'by'
p291
tp292
F0.07387862796833773
s(S'[[det]]'
p293
g203
g204
tp294
F0.0079155672823219
s(S'known'
p295
g69
g70
tp296
F0.005277044854881266
s(S'been'
p297
S'played'
p298
S'at'
p299
tp300
F0.002638522427440633
s(S'[[det]]'
p301
g73
g74
tp302
F0.002638522427440633
s(g160
g161
S'game'
p303
tp304
F0.005277044854881266
s(S'were'
p305
S'published'
p306
S'by'
p307
tp308
F0.002638522427440633
s(S'strategy'
p309
S'video'
p310
S'game'
p311
tp312
F0.002638522427440633
s(S'[[det]]'
p313
S'video'
p314
S'game'
p315
tp316
F0.0316622691292876
s(S'was'
p317
S'developed'
p318
S'[[con]]'
p319
tp320
F0.0158311345646438
s(S'[[det]]'
p321
S'adventure'
p322
S'game'
p323
tp324
F0.002638522427440633
s(S'[[adj]]'
p325
g107
g108
tp326
F0.002638522427440633
s(g212
g213
S'developed'
p327
tp328
F0.002638522427440633
s(S'[[det]]'
p329
S'sports'
p330
S'game'
p331
tp332
F0.005277044854881266
s(g330
g331
S'developed'
p333
tp334
F0.005277044854881266
s(S'[[det]]'
p335
S'game'
p336
S'that'
p337
tp338
F0.002638522427440633
s(S'video'
p339
S'game'
p340
S'by'
p341
tp342
F0.0079155672823219
s(S'computer'
p343
g223
g224
tp344
F0.0158311345646438
s(S'was'
p345
S'developed'
p346
S'by'
p347
tp348
F0.005277044854881266
s(g22
g23
S'by'
p349
tp350
F0.005277044854881266
s(S'video'
p351
g167
g168
tp352
F0.005277044854881266
s(g42
g43
S'game'
p353
tp354
F0.002638522427440633
s(g142
g143
S'by'
p355
tp356
F0.002638522427440633
s(g224
g225
g273
tp357
F0.079155672823219
s(g236
g237
S'game'
p358
tp359
F0.005277044854881266
s(S'was'
p360
S'published'
p361
S'from'
p362
tp363
F0.002638522427440633
s(S'was'
p364
S'announced'
p365
S'by'
p366
tp367
F0.002638522427440633
s(S'[[adj]]'
p368
S'game'
p369
S'released'
p370
tp371
F0.002638522427440633
s(S'[[adj]]'
p372
S'video'
p373
S'game'
p374
tp375
F0.010554089709762533
s(g250
g251
S'by'
p376
tp377
F0.002638522427440633
s(S'television'
p378
g45
g46
tp379
F0.002638522427440633
s(S'shoot'
p380
g173
g174
tp381
F0.002638522427440633
s(S'were'
p382
S'created'
p383
S'by'
p384
tp385
F0.002638522427440633
s(S'[[det]]'
p386
S'sciencefiction'
p387
S'[[adj]]'
p388
tp389
F0.002638522427440633
s(S'wrestling'
p390
S'video'
p391
S'game'
p392
tp393
F0.002638522427440633
s(S'still'
p394
S'played'
p395
S'in'
p396
tp397
F0.002638522427440633
s(g3
g125
g126
tp398
F0.005277044854881266
s(g192
g193
g282
tp399
F0.010554089709762533
s(S'[[adj]]'
p400
S'played'
p401
S'at'
p402
tp403
F0.002638522427440633
s(S'[[adj]]'
p404
g390
g391
tp405
F0.002638522427440633
s(S'was'
p406
S'created'
p407
S'with'
p408
tp409
F0.002638522427440633
s(S'was'
p410
S'developed'
p411
S'published'
p412
tp413
F0.002638522427440633
s(g34
g35
S'by'
p414
tp415
F0.005277044854881266
s(g411
g412
S'by'
p416
tp417
F0.002638522427440633
s(S'was'
p418
S'played'
p419
S'against'
p420
tp421
F0.002638522427440633
s(S'[[det]]'
p422
g343
g223
tp423
F0.0079155672823219
s(g164
g165
S'developed'
p424
tp425
F0.005277044854881266
s(S'[[det]]'
p426
g378
g45
tp427
F0.002638522427440633
s(S'[[adj]]'
p428
g309
g310
tp429
F0.002638522427440633
s(S'[[adj]]'
p430
g41
g42
tp431
F0.002638522427440633
s(g387
g388
S'game'
p432
tp433
F0.002638522427440633
s(S'[[det]]'
p434
S'game'
p435
S'developed'
p436
tp437
F0.005277044854881266
s(S'was'
p438
g129
g130
tp439
F0.002638522427440633
s(S'be'
p440
S'released'
p441
S'by'
p442
tp443
F0.002638522427440633
s(S'also'
p444
S'released'
p445
S'by'
p446
tp447
F0.002638522427440633
s(S'[[det]]'
p448
g89
g90
tp449
F0.005277044854881266
s(S'later'
p450
S'released'
p451
S'by'
p452
tp453
F0.002638522427440633
s(S'was'
p454
g21
g22
tp455
F0.005277044854881266
s(S'was'
p456
S'played'
p457
S'at'
p458
tp459
F0.002638522427440633
s(g322
g323
S'developed'
p460
tp461
F0.002638522427440633
s(g314
g315
S'published'
p462
tp463
F0.002638522427440633
s(S'[[det]]'
p464
g199
g200
tp465
F0.005277044854881266
s(S'[[num]]'
p466
S'video'
p467
S'game'
p468
tp469
F0.002638522427440633
s(g315
g462
S'by'
p470
tp471
F0.005277044854881266
s(S'is'
p472
S'developed'
p473
S'by'
p474
tp475
F0.002638522427440633
s(S'[[det]]'
p476
S'game'
p477
S'show'
p478
tp479
F0.002638522427440633
s(g178
g179
g289
tp480
F0.0158311345646438
s(g2
g3
g125
tp481
F0.0079155672823219
s(S'[[num]]'
p482
S'computer'
p483
S'game'
p484
tp485
F0.005277044854881266
s.