(dp0
(S'[[con]]'
p1
S'is'
p2
S'distributed'
p3
tp4
F0.125
s(S'was'
p5
S'distributed'
p6
S'through'
p7
tp8
F0.125
s(S'was'
p9
S'distributed'
p10
S'by'
p11
tp12
F0.125
s(S'operates'
p13
g1
g2
tp14
F0.125
s(S'is'
p15
S'distributed'
p16
S'through'
p17
tp18
F0.125
s(g2
g3
S'by'
p19
tp20
F0.25
s(S'be'
p21
S'distributed'
p22
S'by'
p23
tp24
F0.125
s.