(dp0
(S'also'
p1
S'studied'
p2
S'[[con]]'
p3
tp4
F0.0026455026455026454
s(S'had'
p5
S'shared'
p6
S'[[num]]'
p7
tp8
F0.0026455026455026454
s(S'[[con]]'
p9
S'worked'
p10
S'later'
p11
tp12
F0.0026455026455026454
s(S'was'
p13
S'influenced'
p14
S'as'
p15
tp16
F0.0026455026455026454
s(S'mainly'
p17
S'worked'
p18
S'under'
p19
tp20
F0.0026455026455026454
s(S'later'
p21
S'worked'
p22
S'to'
p23
tp24
F0.0026455026455026454
s(S'also'
p25
S'shared'
p26
S'with'
p27
tp28
F0.0026455026455026454
s(S'that'
p29
S'worked'
p30
S'with'
p31
tp32
F0.0026455026455026454
s(S'had'
p33
S'shared'
p34
S'with'
p35
tp36
F0.0026455026455026454
s(S'have'
p37
S'influenced'
p38
S'in'
p39
tp40
F0.0026455026455026454
s(S'to'
p41
S'study'
p42
S'with'
p43
tp44
F0.0026455026455026454
s(S'had'
p45
S'met'
p46
S'when'
p47
tp48
F0.0026455026455026454
s(S'received'
p49
S'[[prp]]'
p50
S'doctorate'
p51
tp52
F0.0026455026455026454
s(S'where'
p53
S'worked'
p54
S'for'
p55
tp56
F0.0026455026455026454
s(S'to'
p57
S'work'
p58
S'under'
p59
tp60
F0.0026455026455026454
s(S'then'
p61
S'worked'
p62
S'before'
p63
tp64
F0.0026455026455026454
s(S'where'
p65
S'worked'
p66
S'under'
p67
tp68
F0.0026455026455026454
s(S'often'
p69
S'worked'
p70
S'with'
p71
tp72
F0.0026455026455026454
s(S'[[num]]'
p73
S'worked'
p74
S'with'
p75
tp76
F0.0026455026455026454
s(S'then'
p77
S'studied'
p78
S'under'
p79
tp80
F0.0026455026455026454
s(S'also'
p81
S'worked'
p82
S'[[adj]]'
p83
tp84
F0.0026455026455026454
s(S'since'
p85
S'worked'
p86
S'with'
p87
tp88
F0.0026455026455026454
s(S'has'
p89
S'shared'
p90
S'[[det]]'
p91
tp92
F0.0026455026455026454
s(S'had'
p93
S'studied'
p94
S'under'
p95
tp96
F0.0026455026455026454
s(S'[[prp]]'
p97
S'work'
p98
S'with'
p99
tp100
F0.0026455026455026454
s(S'[[pro]]'
p101
S'[[det]]'
p102
S'opportunity'
p103
tp104
F0.0026455026455026454
s(S'[[adj]]'
p105
S'met'
p106
S'[[det]]'
p107
tp108
F0.0026455026455026454
s(S'[[con]]'
p109
S'met'
p110
S'[[adj]]'
p111
tp112
F0.0026455026455026454
s(S'[[adj]]'
p113
S'direction'
p114
S'of'
p115
tp116
F0.0026455026455026454
s(S'has'
p117
S'worked'
p118
S'among'
p119
tp120
F0.0026455026455026454
s(S'[[adj]]'
p121
S'assistant'
p122
S'for'
p123
tp124
F0.0026455026455026454
s(S'later'
p125
S'worked'
p126
S'as'
p127
tp128
F0.0026455026455026454
s(S'then'
p129
S'received'
p130
S'[[det]]'
p131
tp132
F0.0026455026455026454
s(S'again'
p133
S'worked'
p134
S'with'
p135
tp136
F0.0026455026455026454
s(S'to'
p137
S'[[det]]'
p138
S'winter'
p139
tp140
F0.0026455026455026454
s(S'[[prp]]'
p141
S'work'
p142
S'on'
p143
tp144
F0.0026455026455026454
s(S'first'
p145
S'met'
p146
S'[[con]]'
p147
tp148
F0.0026455026455026454
s(S'then'
p149
S'worked'
p150
S'[[adj]]'
p151
tp152
F0.0026455026455026454
s(S'under'
p153
S'[[det]]'
p154
S'supervision'
p155
tp156
F0.007936507936507936
s(S'[[det]]'
p157
S'study'
p158
S'of'
p159
tp160
F0.0026455026455026454
s(S'where'
p161
S'studied'
p162
S'under'
p163
tp164
F0.005291005291005291
s(S'[[det]]'
p165
S'assistant'
p166
S'of'
p167
tp168
F0.0026455026455026454
s(S'[[prp]]'
p169
S'work'
p170
S'as'
p171
tp172
F0.0026455026455026454
s(S'[[adj]]'
p173
S'chemistry'
p174
S'[[con]]'
p175
tp176
F0.0026455026455026454
s(S'then'
p177
S'worked'
p178
S'to'
p179
tp180
F0.0026455026455026454
s(S'had'
p181
S'received'
p182
S'from'
p183
tp184
F0.0026455026455026454
s(S'was'
p185
S'studying'
p186
S'under'
p187
tp188
F0.0026455026455026454
s(S'[[con]]'
p189
S'met'
p190
S'[[con]]'
p191
tp192
F0.0026455026455026454
s(S'joined'
p193
S'[[det]]'
p194
S'[[adj]]'
p195
tp196
F0.007936507936507936
s(S'[[prp]]'
p197
S'work'
p198
S'[[con]]'
p199
tp200
F0.0026455026455026454
s(S'as'
p201
S'taught'
p202
S'by'
p203
tp204
F0.0026455026455026454
s(S's'
p205
S'work'
p206
S'with'
p207
tp208
F0.0026455026455026454
s(S'[[con]]'
p209
S'studied'
p210
S'under'
p211
tp212
F0.0026455026455026454
s(g195
S'group'
p213
S'with'
p214
tp215
F0.0026455026455026454
s(S'be'
p216
S'influenced'
p217
S'by'
p218
tp219
F0.0026455026455026454
s(S'[[adj]]'
p220
S'influenced'
p221
S'by'
p222
tp223
F0.0026455026455026454
s(S'studied'
p224
g173
g174
tp225
F0.0026455026455026454
s(S'had'
p226
S'studied'
p227
S'with'
p228
tp229
F0.0026455026455026454
s(S'also'
p230
S'studied'
p231
S'under'
p232
tp233
F0.0026455026455026454
s(S'has'
p234
S'studied'
p235
S'with'
p236
tp237
F0.0026455026455026454
s(S'also'
p238
S'met'
p239
S'[[prp]]'
p240
tp241
F0.0026455026455026454
s(S'then'
p242
S'studied'
p243
S'with'
p244
tp245
F0.0026455026455026454
s(S'[[adj]]'
p246
S'study'
p247
S'of'
p248
tp249
F0.0026455026455026454
s(S'[[con]]'
p250
S'worked'
p251
S'as'
p252
tp253
F0.0026455026455026454
s(S'where'
p254
S'worked'
p255
S'with'
p256
tp257
F0.007936507936507936
s(S'studied'
p258
S'with'
p259
S'[[det]]'
p260
tp261
F0.0026455026455026454
s(S'awards'
p262
S'that'
p263
S'gave'
p264
tp265
F0.0026455026455026454
s(S'where'
p266
S'received'
p267
S'[[det]]'
p268
tp269
F0.0026455026455026454
s(S'[[det]]'
p270
S'work'
p271
S'on'
p272
tp273
F0.0026455026455026454
s(S'[[det]]'
p274
S'guidance'
p275
S'of'
p276
tp277
F0.0026455026455026454
s(S'[[con]]'
p278
S'worked'
p279
S'mainly'
p280
tp281
F0.0026455026455026454
s(S'became'
p282
S'assistant'
p283
S'to'
p284
tp285
F0.0026455026455026454
s(S'first'
p286
S'worked'
p287
S'with'
p288
tp289
F0.0026455026455026454
s(S'also'
p290
S'met'
p291
S'[[adj]]'
p292
tp293
F0.0026455026455026454
s(S'also'
p294
S'worked'
p295
S'under'
p296
tp297
F0.0026455026455026454
s(S'were'
p298
S'influenced'
p299
S'by'
p300
tp301
F0.0026455026455026454
s(S'worked'
p302
S'as'
p303
S'[[det]]'
p304
tp305
F0.0026455026455026454
s(S'earned'
p306
S'[[prp]]'
p307
S'wordnetphuedue'
p308
tp309
F0.0026455026455026454
s(g205
S'work'
p310
S'[[adj]]'
p311
tp312
F0.0026455026455026454
s(g102
g103
S'to'
p313
tp314
F0.0026455026455026454
s(S'in'
p315
S'[[det]]'
p316
S'laboratory'
p317
tp318
F0.0026455026455026454
s(S'where'
p319
S'met'
p320
S'[[det]]'
p321
tp322
F0.0026455026455026454
s(S'[[det]]'
p323
S'work'
p324
S'of'
p325
tp326
F0.0026455026455026454
s(S'assistant'
p327
g137
g138
tp328
F0.0026455026455026454
s(S'where'
p329
S'[[det]]'
p330
S'student'
p331
tp332
F0.0026455026455026454
s(S'under'
p333
S'direction'
p334
S'of'
p335
tp336
F0.0026455026455026454
s(S'later'
p337
S'worked'
p338
S'with'
p339
tp340
F0.0026455026455026454
s(S'also'
p341
S'worked'
p342
S'as'
p343
tp344
F0.0026455026455026454
s(S'[[det]]'
p345
S'assistant'
p346
S'[[con]]'
p347
tp348
F0.0026455026455026454
s(S'studied'
p349
g329
g330
tp350
F0.0026455026455026454
s(S'also'
p351
S'studied'
p352
S'as'
p353
tp354
F0.0026455026455026454
s(S'[[det]]'
p355
S'group'
p356
S'[[adj]]'
p357
tp358
F0.0026455026455026454
s(S'[[prp]]'
p359
S'work'
p360
S'in'
p361
tp362
F0.0026455026455026454
s(S'was'
p363
S'taught'
p364
S'by'
p365
tp366
F0.0026455026455026454
s(S'where'
p367
S'studied'
p368
S'with'
p369
tp370
F0.0026455026455026454
s(S'also'
p371
S'influenced'
p372
S'by'
p373
tp374
F0.0026455026455026454
s(S'done'
p375
S'work'
p376
S'[[adj]]'
p377
tp378
F0.0026455026455026454
s(S'is'
p379
S'influenced'
p380
S'by'
p381
tp382
F0.0026455026455026454
s(S'where'
p383
S'studied'
p384
S'[[det]]'
p385
tp386
F0.0026455026455026454
s(S'is'
p387
S'influenced'
p388
S'as'
p389
tp390
F0.0026455026455026454
s(S'well'
p391
S'received'
p392
S'by'
p393
tp394
F0.0026455026455026454
s(S'[[adj]]'
p395
S'associate'
p396
S'of'
p397
tp398
F0.0026455026455026454
s(S'later'
p399
S'worked'
p400
S'under'
p401
tp402
F0.0026455026455026454
s(S'then'
p403
S'received'
p404
S'[[prp]]'
p405
tp406
F0.0026455026455026454
s(g205
S'worked'
p407
S'as'
p408
tp409
F0.0026455026455026454
s(S'[[det]]'
p410
S'work'
p411
S'to'
p412
tp413
F0.0026455026455026454
s(S'has'
p414
S'worked'
p415
S'by'
p416
tp417
F0.0026455026455026454
s(S'have'
p418
S'worked'
p419
S'as'
p420
tp421
F0.0026455026455026454
s(S'has'
p422
S'met'
p423
S'with'
p424
tp425
F0.0026455026455026454
s(S'is'
p426
S'studying'
p427
S'with'
p428
tp429
F0.0026455026455026454
s(S'had'
p430
S'met'
p431
S'[[det]]'
p432
tp433
F0.0026455026455026454
s(S'received'
p434
S'under'
p435
S'supervision'
p436
tp437
F0.0026455026455026454
s(S'formerly'
p438
S'worked'
p439
S'as'
p440
tp441
F0.0026455026455026454
s(S'later'
p442
S'received'
p443
S'under'
p444
tp445
F0.0026455026455026454
s(S'also'
p446
S'worked'
p447
S'with'
p448
tp449
F0.0026455026455026454
s(S'also'
p450
S'studied'
p451
S'with'
p452
tp453
F0.0026455026455026454
s(S'first'
p454
S'studied'
p455
S'with'
p456
tp457
F0.0026455026455026454
s(S'[[con]]'
p458
S'met'
p459
S'with'
p460
tp461
F0.0026455026455026454
s(S'[[det]]'
p462
S'tutor'
p463
S'of'
p464
tp465
F0.0026455026455026454
s(S'career'
p466
S'where'
p467
S'worked'
p468
tp469
F0.0026455026455026454
s(S'studied'
p470
S'as'
p471
S'[[det]]'
p472
tp473
F0.0026455026455026454
s(S'was'
p474
S'tutor'
p475
S'to'
p476
tp477
F0.0026455026455026454
s(S'later'
p478
S'worked'
p479
S'[[con]]'
p480
tp481
F0.0026455026455026454
s(S'found'
p482
S'work'
p483
S'for'
p484
tp485
F0.0026455026455026454
s(S'[[con]]'
p486
S'studied'
p487
S'with'
p488
tp489
F0.0026455026455026454
s(S'[[con]]'
p490
S'met'
p491
S'[[det]]'
p492
tp493
F0.0026455026455026454
s(S'has'
p494
S'studied'
p495
S'under'
p496
tp497
F0.0026455026455026454
s(S'to'
p498
S'work'
p499
S'again'
p500
tp501
F0.0026455026455026454
s(S'[[num]]'
p502
S'work'
p503
S'of'
p504
tp505
F0.0026455026455026454
s(g194
g195
g213
tp506
F0.007936507936507936
s(S'[[con]]'
p507
S'met'
p508
S'up'
p509
tp510
F0.0026455026455026454
s(S'[[det]]'
p511
S'dissertation'
p512
S'on'
p513
tp514
F0.0026455026455026454
s(S'[[con]]'
p515
S'shared'
p516
S'with'
p517
tp518
F0.0026455026455026454
s(S'to'
p519
S'study'
p520
S'under'
p521
tp522
F0.0026455026455026454
s(S'singing'
p523
S'[[con]]'
p524
S'followed'
p525
tp526
F0.0026455026455026454
s(S'also'
p527
S'worked'
p528
S'along'
p529
tp530
F0.0026455026455026454
s(S'completed'
p531
S'[[prp]]'
p532
S'doctorate'
p533
tp534
F0.0026455026455026454
s(S'later'
p535
S'met'
p536
S'with'
p537
tp538
F0.0026455026455026454
s(S'[[adj]]'
p539
S'friends'
p540
S'with'
p541
tp542
F0.0026455026455026454
s(S'to'
p543
S'work'
p544
S'as'
p545
tp546
F0.0026455026455026454
s(g205
S'worked'
p547
S'on'
p548
tp549
F0.0026455026455026454
s(S'[[prp]]'
p550
S'wordnetphuedue'
p551
S'[[det]]'
p552
tp553
F0.0026455026455026454
s(S'was'
p554
S'received'
p555
S'[[con]]'
p556
tp557
F0.0026455026455026454
s(S'also'
p558
S'received'
p559
S'[[prp]]'
p560
tp561
F0.0026455026455026454
s(S'[[con]]'
p562
S'tutor'
p563
S'to'
p564
tp565
F0.0026455026455026454
s(g316
g317
S'of'
p566
tp567
F0.0026455026455026454
s(S'[[adj]]'
p568
S'worked'
p569
S'as'
p570
tp571
F0.0026455026455026454
s(S'earned'
p572
S'[[prp]]'
p573
S'doctorate'
p574
tp575
F0.0026455026455026454
s(S'[[adj]]'
p576
S'tutor'
p577
S'to'
p578
tp579
F0.0026455026455026454
s(S'where'
p580
S'worked'
p581
S'along'
p582
tp583
F0.0026455026455026454
s(S'also'
p584
S'received'
p585
S'[[adj]]'
p586
tp587
F0.0026455026455026454
s(S'received'
p588
g550
g551
tp589
F0.005291005291005291
s(S'[[det]]'
p590
S'group'
p591
S'[[con]]'
p592
tp593
F0.0026455026455026454
s(S'worked'
p594
S'under'
p595
S'[[det]]'
p596
tp597
F0.007936507936507936
s(S'where'
p598
S'studied'
p599
S'physics'
p600
tp601
F0.0026455026455026454
s(S'been'
p602
S'influenced'
p603
S'by'
p604
tp605
F0.0026455026455026454
s(S'found'
p606
S'work'
p607
S'with'
p608
tp609
F0.0026455026455026454
s(S'[[det]]'
p610
S'student'
p611
S'[[con]]'
p612
tp613
F0.0026455026455026454
s(S'[[adj]]'
p614
S'work'
p615
S'to'
p616
tp617
F0.0026455026455026454
s(S'[[con]]'
p618
S'worked'
p619
S'with'
p620
tp621
F0.0026455026455026454
s(S'began'
p622
g523
g524
tp623
F0.0026455026455026454
s(S'worked'
p624
g315
g316
tp625
F0.0026455026455026454
s(S'later'
p626
S'worked'
p627
S'on'
p628
tp629
F0.0026455026455026454
s(S'soon'
p630
S'met'
p631
S'[[con]]'
p632
tp633
F0.0026455026455026454
s(S'also'
p634
S'worked'
p635
S'to'
p636
tp637
F0.0026455026455026454
s(S'continue'
p638
S'[[prp]]'
p639
S'studies'
p640
tp641
F0.0026455026455026454
s(S'have'
p642
S'received'
p643
S'from'
p644
tp645
F0.0026455026455026454
s(S'to'
p646
S'work'
p647
S'together'
p648
tp649
F0.0026455026455026454
s(g524
g525
S'[[det]]'
p650
tp651
F0.0026455026455026454
s(S'then'
p652
S'worked'
p653
S'as'
p654
tp655
F0.0026455026455026454
s(S'first'
p656
S'met'
p657
S'with'
p658
tp659
F0.0026455026455026454
s(S'which'
p660
S'received'
p661
S'[[det]]'
p662
tp663
F0.0026455026455026454
s(S'has'
p664
S'worked'
p665
S'as'
p666
tp667
F0.0026455026455026454
s(S'was'
p668
S'studying'
p669
S'with'
p670
tp671
F0.0026455026455026454
s(S'also'
p672
S'received'
p673
S'as'
p674
tp675
F0.0026455026455026454
s(g303
g304
g327
tp676
F0.0026455026455026454
s(S'first'
p677
S'met'
p678
S'[[det]]'
p679
tp680
F0.0026455026455026454
s(S'who'
p681
S'studied'
p682
S'with'
p683
tp684
F0.0026455026455026454
s(S'later'
p685
S'received'
p686
S'[[con]]'
p687
tp688
F0.0026455026455026454
s(S'also'
p689
S'worked'
p690
S'[[con]]'
p691
tp692
F0.0026455026455026454
s(S'has'
p693
S'worked'
p694
S'with'
p695
tp696
F0.0026455026455026454
s(S'then'
p697
S'worked'
p698
S'where'
p699
tp700
F0.0026455026455026454
s(S'have'
p701
S'met'
p702
S'with'
p703
tp704
F0.0026455026455026454
s(S'under'
p705
S'supervision'
p706
S'of'
p707
tp708
F0.005291005291005291
s(S'also'
p709
S'taught'
p710
S'by'
p711
tp712
F0.0026455026455026454
s(S'studied'
p713
S'mathematics'
p714
S'[[con]]'
p715
tp716
F0.0026455026455026454
s(S'[[det]]'
p717
S'assistant'
p718
S'for'
p719
tp720
F0.0026455026455026454
s(S'also'
p721
S'influenced'
p722
S'as'
p723
tp724
F0.0026455026455026454
s(S'who'
p725
S'worked'
p726
S'with'
p727
tp728
F0.0026455026455026454
s(S'then'
p729
S'worked'
p730
S'with'
p731
tp732
F0.0026455026455026454
s(S'to'
p733
S'work'
p734
S'among'
p735
tp736
F0.0026455026455026454
s(S'first'
p737
S'met'
p738
S'at'
p739
tp740
F0.0026455026455026454
s(S'[[con]]'
p741
S'work'
p742
S'on'
p743
tp744
F0.0026455026455026454
s(g525
g650
S'stage'
p745
tp746
F0.0026455026455026454
s(S'also'
p747
S'received'
p748
S'of'
p749
tp750
F0.0026455026455026454
s(g259
g260
S'student'
p751
tp752
F0.0026455026455026454
s(g205
S'study'
p753
S'of'
p754
tp755
F0.0026455026455026454
s(S'[[det]]'
p756
S'supervision'
p757
S'of'
p758
tp759
F0.010582010582010581
s(S'was'
p760
S'influenced'
p761
S'[[con]]'
p762
tp763
F0.0026455026455026454
s(S'[[det]]'
p764
S'student'
p765
S'[[det]]'
p766
tp767
F0.0026455026455026454
s(S'also'
p768
S'studied'
p769
S'[[det]]'
p770
tp771
F0.0026455026455026454
s(S'[[det]]'
p772
S'student'
p773
S'of'
p774
tp775
F0.013227513227513227
s(S'later'
p776
S'studied'
p777
S'with'
p778
tp779
F0.0026455026455026454
s(S'studied'
p780
S'[[adj]]'
p781
S'physics'
p782
tp783
F0.0026455026455026454
s(S'has'
p784
S'studied'
p785
S'[[con]]'
p786
tp787
F0.0026455026455026454
s(g540
g541
S'[[adj]]'
p788
tp789
F0.0026455026455026454
s(g205
S'work'
p790
S'as'
p791
tp792
F0.0026455026455026454
s(S'also'
p793
S'worked'
p794
S'where'
p795
tp796
F0.0026455026455026454
s(S'was'
p797
S'received'
p798
S'to'
p799
tp800
F0.0026455026455026454
s(S'have'
p801
S'received'
p802
S'[[det]]'
p803
tp804
F0.0026455026455026454
s(g745
g466
g467
tp805
F0.0026455026455026454
s(S'[[con]]'
p806
S'worked'
p807
S'[[prp]]'
p808
tp809
F0.0026455026455026454
s(S'[[mod]]'
p810
S'study'
p811
S'with'
p812
tp813
F0.0026455026455026454
s(S'under'
p814
S'[[det]]'
p815
S'direction'
p816
tp817
F0.0026455026455026454
s(S'was'
p818
S'met'
p819
S'by'
p820
tp821
F0.0026455026455026454
s(S'joined'
p822
g590
g591
tp823
F0.013227513227513227
s(S'under'
p824
g274
g275
tp825
F0.0026455026455026454
s(S'to'
p826
S'work'
p827
S'[[num]]'
p828
tp829
F0.0026455026455026454
s(S'wrote'
p830
S'[[prp]]'
p831
S'dissertation'
p832
tp833
F0.005291005291005291
s(S'[[adj]]'
p834
S'student'
p835
S'[[con]]'
p836
tp837
F0.0026455026455026454
s(S'had'
p838
S'worked'
p839
S'with'
p840
tp841
F0.0026455026455026454
s(S'student'
p842
S'where'
p843
S'studied'
p844
tp845
F0.0026455026455026454
s(S'has'
p846
S'worked'
p847
S'along'
p848
tp849
F0.0026455026455026454
s(S'[[det]]'
p850
S'associate'
p851
S'in'
p852
tp853
F0.0026455026455026454
s(g205
S'work'
p854
S'which'
p855
tp856
F0.0026455026455026454
s(S'where'
p857
S'worked'
p858
S'as'
p859
tp860
F0.0026455026455026454
s(S'also'
p861
S'received'
p862
S'by'
p863
tp864
F0.0026455026455026454
s(S'[[det]]'
p865
S'work'
p866
S'by'
p867
tp868
F0.0026455026455026454
s(g639
g640
S'in'
p869
tp870
F0.0026455026455026454
s(S'who'
p871
S'received'
p872
S'[[det]]'
p873
tp874
F0.0026455026455026454
s(S'also'
p875
S'met'
p876
S'with'
p877
tp878
F0.0026455026455026454
s(g313
g638
g639
tp879
F0.0026455026455026454
s(S'then'
p880
S'worked'
p881
S'from'
p882
tp883
F0.0026455026455026454
s(S'also'
p884
S'met'
p885
S'[[det]]'
p886
tp887
F0.0026455026455026454
s(S'[[det]]'
p888
S'tutor'
p889
S'to'
p890
tp891
F0.0026455026455026454
s(S'to'
p892
S'work'
p893
S'after'
p894
tp895
F0.0026455026455026454
s(S'[[adj]]'
p896
S'assistant'
p897
S'of'
p898
tp899
F0.0026455026455026454
s(S'has'
p900
S'met'
p901
S'[[con]]'
p902
tp903
F0.0026455026455026454
s(S'have'
p904
S'studied'
p905
S'under'
p906
tp907
F0.0026455026455026454
s(S'had'
p908
S'received'
p909
S'[[adj]]'
p910
tp911
F0.0026455026455026454
s(S'to'
p912
S'work'
p913
S'where'
p914
tp915
F0.0026455026455026454
s(S'[[adj]]'
p916
S'met'
p917
S'while'
p918
tp919
F0.0026455026455026454
s(S'have'
p920
S'worked'
p921
S'under'
p922
tp923
F0.0026455026455026454
s(S'[[prp]]'
p924
S'dissertation'
p925
S'on'
p926
tp927
F0.0026455026455026454
s(S'became'
p928
S'assistant'
p929
S'[[con]]'
p930
tp931
F0.0026455026455026454
s(S'[[adj]]'
p932
S'group'
p933
S'along'
p934
tp935
F0.0026455026455026454
s(S'had'
p936
S'studied'
p937
S'[[adj]]'
p938
tp939
F0.0026455026455026454
s(S'to'
p940
S'work'
p941
S'[[adj]]'
p942
tp943
F0.0026455026455026454
s(S'[[con]]'
p944
S'[[det]]'
p945
S'student'
p946
tp947
F0.0026455026455026454
s(S'later'
p948
S'received'
p949
S'[[det]]'
p950
tp951
F0.0026455026455026454
s(S'had'
p952
S'worked'
p953
S'under'
p954
tp955
F0.0026455026455026454
s(S'has'
p956
S'worked'
p957
S'together'
p958
tp959
F0.0026455026455026454
s(S'to'
p960
S'work'
p961
S'with'
p962
tp963
F0.0026455026455026454
s(S'first'
p964
S'met'
p965
S'when'
p966
tp967
F0.0026455026455026454
s(g650
g745
g466
tp968
F0.0026455026455026454
s(S'[[adj]]'
p969
S'work'
p970
S'[[con]]'
p971
tp972
F0.0026455026455026454
s(g138
g139
S'[[con]]'
p973
tp974
F0.0026455026455026454
s(S'is'
p975
S'met'
p976
S'by'
p977
tp978
F0.0026455026455026454
s(S'has'
p979
S'coauthored'
p980
S'with'
p981
tp982
F0.0026455026455026454
s(g640
g869
g254
tp983
F0.0026455026455026454
s(S'[[mod]]'
p984
S'study'
p985
S'under'
p986
tp987
F0.0026455026455026454
s(S'have'
p988
S'met'
p989
S'[[con]]'
p990
tp991
F0.0026455026455026454
s(S'had'
p992
S'met'
p993
S'[[con]]'
p994
tp995
F0.0026455026455026454
s(g103
g313
g638
tp996
F0.0026455026455026454
s(S'has'
p997
S'worked'
p998
S'[[con]]'
p999
tp1000
F0.0026455026455026454
s(S'wrote'
p1001
g511
g512
tp1002
F0.005291005291005291
s(S'have'
p1003
S'worked'
p1004
S'with'
p1005
tp1006
F0.0026455026455026454
s(S'was'
p1007
S'taught'
p1008
S'[[con]]'
p1009
tp1010
F0.0026455026455026454
s(S'where'
p1011
S'met'
p1012
S'with'
p1013
tp1014
F0.0026455026455026454
s(S'[[det]]'
p1015
S'worked'
p1016
S'for'
p1017
tp1018
F0.0026455026455026454
s(S'[[adj]]'
p1019
S'student'
p1020
S'of'
p1021
tp1022
F0.0026455026455026454
s(S'had'
p1023
S'met'
p1024
S'with'
p1025
tp1026
F0.0026455026455026454
s(S'[[adj]]'
p1027
S'work'
p1028
S'on'
p1029
tp1030
F0.0026455026455026454
s(S'[[det]]'
p1031
S'associate'
p1032
S'with'
p1033
tp1034
F0.0026455026455026454
s(S'also'
p1035
S'met'
p1036
S'from'
p1037
tp1038
F0.0026455026455026454
s(S'which'
p1039
S'shared'
p1040
S'with'
p1041
tp1042
F0.0026455026455026454
s(S'has'
p1043
S'worked'
p1044
S'again'
p1045
tp1046
F0.0026455026455026454
s(g869
g254
g255
tp1047
F0.0026455026455026454
s(S'[[det]]'
p1048
S'associate'
p1049
S'of'
p1050
tp1051
F0.0026455026455026454
s(S'[[det]]'
p1052
S'group'
p1053
S'of'
p1054
tp1055
F0.0026455026455026454
s(S'has'
p1056
S'worked'
p1057
S'under'
p1058
tp1059
F0.0026455026455026454
s(S'[[con]]'
p1060
S'work'
p1061
S'with'
p1062
tp1063
F0.0026455026455026454
s(S'well'
p1064
S'received'
p1065
S'[[con]]'
p1066
tp1067
F0.0026455026455026454
s(S'[[adj]]'
p1068
S'assistant'
p1069
S'to'
p1070
tp1071
F0.0026455026455026454
s(S'[[det]]'
p1072
S'student'
p1073
S'where'
p1074
tp1075
F0.005291005291005291
s(S'have'
p1076
S'studied'
p1077
S'with'
p1078
tp1079
F0.0026455026455026454
s(S'then'
p1080
S'worked'
p1081
S'along'
p1082
tp1083
F0.0026455026455026454
s(S'[[adj]]'
p1084
S'work'
p1085
S'with'
p1086
tp1087
F0.0026455026455026454
s(g205
S'work'
p1088
S'[[con]]'
p1089
tp1090
F0.0026455026455026454
s(g551
g552
S'supervision'
p1091
tp1092
F0.0026455026455026454
s(S'[[adj]]'
p1093
S'work'
p1094
S'of'
p1095
tp1096
F0.0026455026455026454
s(S'been'
p1097
S'studying'
p1098
S'with'
p1099
tp1100
F0.0026455026455026454
s(S'was'
p1101
S'influenced'
p1102
S'[[prp]]'
p1103
tp1104
F0.0026455026455026454
s(g471
g472
S'student'
p1105
tp1106
F0.0026455026455026454
s(S'also'
p1107
S'worked'
p1108
S'together'
p1109
tp1110
F0.0026455026455026454
s(S'received'
p1111
g814
g815
tp1112
F0.005291005291005291
s(S'was'
p1113
S'received'
p1114
S'by'
p1115
tp1116
F0.0026455026455026454
s(S'[[adj]]'
p1117
S'assistant'
p1118
S'[[con]]'
p1119
tp1120
F0.0026455026455026454
s(S'where'
p1121
S'met'
p1122
S'[[adj]]'
p1123
tp1124
F0.0026455026455026454
s(S'later'
p1125
S'studied'
p1126
S'under'
p1127
tp1128
F0.0026455026455026454
s(S'to'
p1129
S'work'
p1130
S'while'
p1131
tp1132
F0.0026455026455026454
s(S'received'
p1133
g333
g334
tp1134
F0.0026455026455026454
s(S'has'
p1135
S'worked'
p1136
S'from'
p1137
tp1138
F0.0026455026455026454
s(S'to'
p1139
S'work'
p1140
S'by'
p1141
tp1142
F0.0026455026455026454
s(S'was'
p1143
S'taught'
p1144
S'in'
p1145
tp1146
F0.0026455026455026454
s(S'also'
p1147
S'worked'
p1148
S'among'
p1149
tp1150
F0.0026455026455026454
s(S'where'
p1151
S'met'
p1152
S'[[con]]'
p1153
tp1154
F0.0026455026455026454
s(S'found'
p1155
S'work'
p1156
S'as'
p1157
tp1158
F0.0026455026455026454
s(S'was'
p1159
S'taught'
p1160
S'from'
p1161
tp1162
F0.0026455026455026454
s(S'was'
p1163
S'influenced'
p1164
S'in'
p1165
tp1166
F0.0026455026455026454
s(S'completed'
p1167
S'[[det]]'
p1168
S'doctorate'
p1169
tp1170
F0.0026455026455026454
s(S'to'
p1171
S'work'
p1172
S'[[con]]'
p1173
tp1174
F0.0026455026455026454
s(S'then'
p1175
S'worked'
p1176
S'under'
p1177
tp1178
F0.0026455026455026454
s(S'also'
p1179
S'met'
p1180
S'[[con]]'
p1181
tp1182
F0.0026455026455026454
s(S'who'
p1183
S'worked'
p1184
S'under'
p1185
tp1186
F0.0026455026455026454
s(S'[[det]]'
p1187
S'group'
p1188
S'with'
p1189
tp1190
F0.0026455026455026454
s(S'[[mod]]'
p1191
S'work'
p1192
S'with'
p1193
tp1194
F0.0026455026455026454
s(S'[[det]]'
p1195
S'work'
p1196
S'[[adj]]'
p1197
tp1198
F0.0026455026455026454
s(g541
g788
S'members'
p1199
tp1200
F0.0026455026455026454
s(S'[[adj]]'
p1201
S'group'
p1202
S'of'
p1203
tp1204
F0.0026455026455026454
s(S'since'
p1205
S'worked'
p1206
S'[[con]]'
p1207
tp1208
F0.0026455026455026454
s(S'[[det]]'
p1209
S'student'
p1210
S'to'
p1211
tp1212
F0.0026455026455026454
s(S'first'
p1213
S'worked'
p1214
S'to'
p1215
tp1216
F0.0026455026455026454
s(S'received'
p1217
g262
g263
tp1218
F0.0026455026455026454
s(S'then'
p1219
S'worked'
p1220
S'[[con]]'
p1221
tp1222
F0.0026455026455026454
s(S'had'
p1223
S'met'
p1224
S'while'
p1225
tp1226
F0.0026455026455026454
s(S'[[prp]]'
p1227
S'study'
p1228
S'of'
p1229
tp1230
F0.0026455026455026454
s(S'[[adj]]'
p1231
S'worked'
p1232
S'for'
p1233
tp1234
F0.0026455026455026454
s(S'then'
p1235
S'met'
p1236
S'with'
p1237
tp1238
F0.0026455026455026454
s(S'first'
p1239
S'studied'
p1240
S'under'
p1241
tp1242
F0.0026455026455026454
s(S'also'
p1243
S'coauthored'
p1244
S'with'
p1245
tp1246
F0.0026455026455026454
s(S'also'
p1247
S'worked'
p1248
S'by'
p1249
tp1250
F0.0026455026455026454
s(S'[[adj]]'
p1251
S'associate'
p1252
S'[[con]]'
p1253
tp1254
F0.0026455026455026454
s(g263
g264
g101
tp1255
F0.0026455026455026454
s(S'had'
p1256
S'met'
p1257
S'through'
p1258
tp1259
F0.0026455026455026454
s(S'has'
p1260
S'worked'
p1261
S'until'
p1262
tp1263
F0.0026455026455026454
s(S'to'
p1264
S'study'
p1265
S'[[con]]'
p1266
tp1267
F0.0026455026455026454
s(S'studied'
p1268
g944
g945
tp1269
F0.0026455026455026454
s(S'had'
p1270
S'worked'
p1271
S'before'
p1272
tp1273
F0.0026455026455026454
s(S'when'
p1274
S'received'
p1275
S'[[det]]'
p1276
tp1277
F0.0026455026455026454
s(S'that'
p1278
S'worked'
p1279
S'along'
p1280
tp1281
F0.0026455026455026454
s(g264
g101
g102
tp1282
F0.0026455026455026454
s(S'had'
p1283
S'worked'
p1284
S'to'
p1285
tp1286
F0.0026455026455026454
s(S'was'
p1287
S'assistant'
p1288
S'of'
p1289
tp1290
F0.0026455026455026454
s(S'[[det]]'
p1291
S'associate'
p1292
S'[[con]]'
p1293
tp1294
F0.0026455026455026454
s(S'was'
p1295
S'influenced'
p1296
S'by'
p1297
tp1298
F0.0026455026455026454
s(g815
g816
S'of'
p1299
tp1300
F0.005291005291005291
s(S'[[det]]'
p1301
S'assistant'
p1302
S'to'
p1303
tp1304
F0.005291005291005291
s.