(dp0
(S'[[mod]]'
p1
S'play'
p2
S'with'
p3
tp4
F0.00024277737314882253
s(S'only'
p5
S'played'
p6
S'twice'
p7
tp8
F0.00024277737314882253
s(S'then'
p9
S'played'
p10
S'with'
p11
tp12
F0.00024277737314882253
s(S'again'
p13
S'played'
p14
S'against'
p15
tp16
F0.00024277737314882253
s(S'played'
p17
S'[[num]]'
p18
S'of'
p19
tp20
F0.00024277737314882253
s(S'additionally'
p21
S'played'
p22
S'for'
p23
tp24
F0.00024277737314882253
s(S'was'
p25
S'won'
p26
S'for'
p27
tp28
F0.00024277737314882253
s(S'[[pro]]'
p29
S'played'
p30
S'professionally'
p31
tp32
F0.00024277737314882253
s(S'most'
p33
S'notably'
p34
S'[[con]]'
p35
tp36
F0.00024277737314882253
s(S'to'
p37
S'play'
p38
S'when'
p39
tp40
F0.00024277737314882253
s(S'drafted'
p41
S'[[adj]]'
p42
S'[[con]]'
p43
tp44
F0.00048555474629764507
s(S'football'
p45
S'coach'
p46
S'of'
p47
tp48
F0.00048555474629764507
s(S'[[adj]]'
p49
S'debut'
p50
S'in'
p51
tp52
F0.00024277737314882253
s(S'[[num]]'
p53
S'round'
p54
S'[[adj]]'
p55
tp56
F0.00024277737314882253
s(S'football'
p57
S'[[con]]'
p58
S'[[det]]'
p59
tp60
F0.00048555474629764507
s(S'born'
p61
S'[[num]]'
p62
S'played'
p63
tp64
F0.00048555474629764507
s(S'seasons'
p65
S'playing'
p66
S'for'
p67
tp68
F0.0014566642388929353
s(S'soccer'
p69
S'midfielder'
p70
S'playing'
p71
tp72
F0.00024277737314882253
s(S'began'
p73
S'[[det]]'
p74
S'[[adj]]'
p75
tp76
F0.00048555474629764507
s(S'football'
p77
S'striker'
p78
S'for'
p79
tp80
F0.00024277737314882253
s(S'basketball'
p81
S'[[con]]'
p82
S'thereafter'
p83
tp84
F0.00024277737314882253
s(S'had'
p85
S'signed'
p86
S'from'
p87
tp88
F0.00024277737314882253
s(S'was'
p89
S'picked'
p90
S'for'
p91
tp92
F0.00024277737314882253
s(S'later'
p93
S'join'
p94
S'[[det]]'
p95
tp96
F0.00024277737314882253
s(S'before'
p97
S'being'
p98
S'selected'
p99
tp100
F0.00024277737314882253
s(S'basketball'
p101
S'[[con]]'
p102
S'[[adj]]'
p103
tp104
F0.00048555474629764507
s(S'[[adj]]'
p105
S'game'
p106
S'on'
p107
tp108
F0.00024277737314882253
s(S'[[adj]]'
p109
S'team'
p110
S'at'
p111
tp112
F0.00024277737314882253
s(S'was'
p113
S'head'
p114
S'[[con]]'
p115
tp116
F0.00024277737314882253
s(S'then'
p117
S'spent'
p118
S'most'
p119
tp120
F0.00024277737314882253
s(S'drafted'
p121
S'where'
p122
S'played'
p123
tp124
F0.00024277737314882253
s(S'[[adj]]'
p125
S'round'
p126
S'[[det]]'
p127
tp128
F0.00024277737314882253
s(S'as'
p129
S'[[adj]]'
p130
S'head'
p131
tp132
F0.0009711094925952901
s(S'has'
p133
S'played'
p134
S'to'
p135
tp136
F0.00024277737314882253
s(S'[[det]]'
p137
S'[[adj]]'
p138
S'seasons'
p139
tp140
F0.0012138868657441126
s(S'[[adj]]'
p141
S'game'
p142
S'with'
p143
tp144
F0.00024277737314882253
s(S'was'
p145
S'called'
p146
S'up'
p147
tp148
F0.00024277737314882253
s(S'had'
p149
S'represented'
p150
S'in'
p151
tp152
F0.00024277737314882253
s(S'has'
p153
S'played'
p154
S'for'
p155
tp156
F0.0009711094925952901
s(S'then'
p157
S'left'
p158
S'to'
p159
tp160
F0.00024277737314882253
s(S'attended'
p161
S'[[con]]'
p162
S'was'
p163
tp164
F0.00048555474629764507
s(S'[[det]]'
p165
S'quarterback'
p166
S'at'
p167
tp168
F0.00024277737314882253
s(S'[[num]]'
p169
S'games'
p170
S'[[con]]'
p171
tp172
F0.0007283321194464676
s(S'is'
p173
S'[[det]]'
p174
S'soccer'
p175
tp176
F0.0007283321194464676
s(S'currently'
p177
S'plays'
p178
S'as'
p179
tp180
F0.00024277737314882253
s(S'player'
p181
S'who'
p182
S'was'
p183
tp184
F0.00048555474629764507
s(S'originally'
p185
S'drafted'
p186
S'in'
p187
tp188
F0.00024277737314882253
s(S'defender'
p189
S'who'
p190
S'plays'
p191
tp192
F0.00024277737314882253
s(S'was'
p193
S'member'
p194
S'for'
p195
tp196
F0.00024277737314882253
s(S'debut'
p197
S'with'
p198
S'affiliate'
p199
tp200
F0.00024277737314882253
s(S'was'
p201
S'called'
p202
S'at'
p203
tp204
F0.00024277737314882253
s(S'league'
p205
S'appearances'
p206
S'for'
p207
tp208
F0.00024277737314882253
s(S'then'
p209
S'joined'
p210
S'to'
p211
tp212
F0.00024277737314882253
s(S'over'
p213
S'[[num]]'
p214
S'games'
p215
tp216
F0.00048555474629764507
s(S'[[con]]'
p217
S'professionally'
p218
S'for'
p219
tp220
F0.00024277737314882253
s(S'been'
p221
S'featured'
p222
S'for'
p223
tp224
F0.00024277737314882253
s(S'in'
p225
S'[[adj]]'
p226
S'games'
p227
tp228
F0.00024277737314882253
s(S'for'
p229
S'[[det]]'
p230
S'located'
p231
tp232
F0.0009711094925952901
s(S's'
p233
S'won'
p234
S'[[det]]'
p235
tp236
F0.00024277737314882253
s(S'[[mod]]'
p237
S'join'
p238
S'[[det]]'
p239
tp240
F0.00024277737314882253
s(S'which'
p241
S'lead'
p242
S'to'
p243
tp244
F0.00024277737314882253
s(S'[[num]]'
p245
S'debut'
p246
S'against'
p247
tp248
F0.00024277737314882253
s(S'[[adj]]'
p249
S'leader'
p250
S'for'
p251
tp252
F0.00024277737314882253
s(S'[[adj]]'
p253
S'head'
p254
S'football'
p255
tp256
F0.0021849963583394027
s(S'became'
p257
S'head'
p258
S'at'
p259
tp260
F0.00024277737314882253
s(S'[[num]]'
p261
S'points'
p262
S'[[num]]'
p263
tp264
F0.00024277737314882253
s(S'[[adj]]'
p265
S'played'
p266
S'with'
p267
tp268
F0.00024277737314882253
s(S'had'
p269
S'won'
p270
S'[[pro]]'
p271
tp272
F0.00024277737314882253
s(S'[[det]]'
p273
S'games'
p274
S'for'
p275
tp276
F0.00024277737314882253
s(S'round'
p277
S'draft'
p278
S'pick'
p279
tp280
F0.0012138868657441126
s(S'who'
p281
S'began'
p282
S'as'
p283
tp284
F0.00024277737314882253
s(S'[[det]]'
p285
S'number'
p286
S'in'
p287
tp288
F0.00024277737314882253
s(S'at'
p289
S'professionally'
p290
S'for'
p291
tp292
F0.00024277737314882253
s(S'[[num]]'
p293
S'times'
p294
S'[[det]]'
p295
tp296
F0.00024277737314882253
s(S'[[prp]]'
p297
S'time'
p298
S'at'
p299
tp300
F0.00024277737314882253
s(S'then'
p301
S'joined'
p302
S'side'
p303
tp304
F0.00024277737314882253
s(S'who'
p305
S'played'
p306
g233
tp307
F0.00024277737314882253
s(S'basketball'
p308
S'player'
p309
S'currently'
p310
tp311
F0.00048555474629764507
s(S'[[det]]'
p312
S'member'
p313
S'[[con]]'
p314
tp315
F0.0009711094925952901
s(S'when'
p316
S'joined'
p317
S'[[det]]'
p318
tp319
F0.00024277737314882253
s(S'has'
p320
S'signed'
p321
S'[[det]]'
p322
tp323
F0.00048555474629764507
s(S'has'
p324
S'played'
p325
S'[[det]]'
p326
tp327
F0.00024277737314882253
s(S'from'
p328
S'playing'
p329
S'in'
p330
tp331
F0.00024277737314882253
s(S'center'
p332
S'forward'
p333
S'who'
p334
tp335
F0.00024277737314882253
s(S'[[det]]'
p336
S'head'
p337
S'men'
p338
tp339
F0.00024277737314882253
s(S'to'
p340
S'played'
p341
S'for'
p342
tp343
F0.00024277737314882253
s(S'for'
p344
S'[[det]]'
p345
S'held'
p346
tp347
F0.00024277737314882253
s(S'later'
p348
S'played'
p349
S'[[num]]'
p350
tp351
F0.00048555474629764507
s(S'[[det]]'
p352
S'years'
p353
S'in'
p354
tp355
F0.00024277737314882253
s(S'when'
p356
S'won'
p357
S'[[det]]'
p358
tp359
F0.00024277737314882253
s(S'played'
p360
S'[[num]]'
p361
S'more'
p362
tp363
F0.0012138868657441126
s(S'in'
p364
g53
g54
tp365
F0.00024277737314882253
s(S'which'
p366
S'won'
p367
S'in'
p368
tp369
F0.00024277737314882253
s(S'to'
p370
S'play'
p371
S'for'
p372
tp373
F0.00024277737314882253
s(S'where'
p374
S'played'
p375
S'for'
p376
tp377
F0.00048555474629764507
s(S'was'
p378
S'chosen'
p379
S'[[adj]]'
p380
tp381
F0.00024277737314882253
s(S'made'
p382
S'debut'
p383
S'for'
p384
tp385
F0.00024277737314882253
s(S'football'
p386
S'as'
p387
S'[[det]]'
p388
tp389
F0.00048555474629764507
s(S'had'
p390
S'played'
p391
S'in'
p392
tp393
F0.00024277737314882253
s(S'[[num]]'
p394
S'game'
p395
S'against'
p396
tp397
F0.00048555474629764507
s(S'[[det]]'
p398
S'football'
p399
S'striker'
p400
tp401
F0.0009711094925952901
s(S'member'
p402
S'[[con]]'
p403
S'later'
p404
tp405
F0.00024277737314882253
s(S'basketball'
p406
S'[[con]]'
p407
S'ndash'
p408
tp409
F0.00024277737314882253
s(S'[[prp]]'
p410
S'[[adj]]'
p411
S'years'
p412
tp413
F0.00024277737314882253
s(S'[[num]]'
p414
S'games'
p415
S'[[num]]'
p416
tp417
F0.00024277737314882253
s(S'born'
p418
S'was'
p419
S'[[det]]'
p420
tp421
F0.0007283321194464676
s(S'has'
p422
S'played'
p423
S'with'
p424
tp425
F0.00024277737314882253
s(S'was'
p426
S'playing'
p427
S'for'
p428
tp429
F0.00024277737314882253
s(S'is'
p430
S'football'
p431
S'player'
p432
tp433
F0.00024277737314882253
s(S'just'
p434
S'[[num]]'
p435
S'seasons'
p436
tp437
F0.00024277737314882253
s(S'more'
p438
S'seasons'
p439
S'[[num]]'
p440
tp441
F0.00024277737314882253
s(S'coach'
p442
S'then'
p443
S'known'
p444
tp445
F0.00024277737314882253
s(S'[[adj]]'
p446
S'member'
p447
S'as'
p448
tp449
F0.00024277737314882253
s(S'[[adj]]'
p450
S'member'
p451
S'from'
p452
tp453
F0.00024277737314882253
s(S'had'
p454
S'played'
p455
S'[[det]]'
p456
tp457
F0.00024277737314882253
s(S'[[det]]'
p458
S'draft'
p459
S'[[det]]'
p460
tp461
F0.00024277737314882253
s(S'had'
p462
S'joined'
p463
S'[[det]]'
p464
tp465
F0.00024277737314882253
s(S'had'
p466
S'left'
p467
S'for'
p468
tp469
F0.00024277737314882253
s(S'[[adj]]'
p470
S'playing'
p471
S'for'
p472
tp473
F0.00024277737314882253
s(S'been'
p474
S'called'
p475
S'up'
p476
tp477
F0.00024277737314882253
s(S'previously'
p478
S'served'
p479
S'as'
p480
tp481
F0.0014566642388929353
s(S'who'
p482
S'play'
p483
S'in'
p484
tp485
F0.00024277737314882253
s(g233
S'debut'
p486
S'for'
p487
tp488
F0.00024277737314882253
s(S'seasons'
p489
S'playing'
p490
S'with'
p491
tp492
F0.00048555474629764507
s(S'[[con]]'
p493
S'played'
p494
S'for'
p495
tp496
F0.0016994416120417577
s(S'[[con]]'
p497
S'played'
p498
S'[[num]]'
p499
tp500
F0.0012138868657441126
s(S'when'
p501
S'won'
p502
S'in'
p503
tp504
F0.00024277737314882253
s(S'[[prp]]'
p505
S'career'
p506
S'at'
p507
tp508
F0.00024277737314882253
s(S'ndash'
p509
S'[[num]]'
p510
S'competing'
p511
tp512
F0.00024277737314882253
s(S'[[adj]]'
p513
S'stints'
p514
S'with'
p515
tp516
F0.00048555474629764507
s(S'later'
p517
S'joined'
p518
S'[[con]]'
p519
tp520
F0.00024277737314882253
s(S'won'
p521
S'[[det]]'
p522
S'award'
p523
tp524
F0.00024277737314882253
s(S'drafted'
p525
S'[[adj]]'
p526
S'never'
p527
tp528
F0.00024277737314882253
s(S'has'
p529
S'signed'
p530
S'with'
p531
tp532
F0.00024277737314882253
s(S'[[det]]'
p533
S'number'
p534
S'[[num]]'
p535
tp536
F0.00024277737314882253
s(S'played'
p537
S'[[adj]]'
p538
S'lineman'
p539
tp540
F0.00024277737314882253
s(S'[[adj]]'
p541
S'pick'
p542
S'selected'
p543
tp544
F0.00024277737314882253
s(S'has'
p545
S'played'
p546
S'in'
p547
tp548
F0.0007283321194464676
s(S'been'
p549
S'signed'
p550
S'by'
p551
tp552
F0.00024277737314882253
s(S'twice'
p553
S'won'
p554
S'[[det]]'
p555
tp556
F0.00024277737314882253
s(S'striker'
p557
S'who'
p558
S'plays'
p559
tp560
F0.00024277737314882253
s(S'[[adj]]'
p561
S'member'
p562
S'during'
p563
tp564
F0.00024277737314882253
s(S'attended'
p565
g97
g98
tp566
F0.00048555474629764507
s(S'been'
p567
S'playing'
p568
S'for'
p569
tp570
F0.00024277737314882253
s(S'[[num]]'
p571
S'won'
p572
S'[[det]]'
p573
tp574
F0.00024277737314882253
s(S'also'
p575
S'played'
p576
S'[[con]]'
p577
tp578
F0.00048555474629764507
s(S'scored'
p579
S'[[num]]'
p580
S'points'
p581
tp582
F0.0016994416120417577
s(S'[[det]]'
p583
S'member'
p584
S'from'
p585
tp586
F0.00024277737314882253
s(S'had'
p587
S'played'
p588
S'[[con]]'
p589
tp590
F0.00024277737314882253
s(S'was'
p591
S'picked'
p592
S'up'
p593
tp594
F0.00024277737314882253
s(S'was'
p595
S'signed'
p596
S'to'
p597
tp598
F0.0009711094925952901
s(S'was'
p599
S'leader'
p600
S'[[con]]'
p601
tp602
F0.00024277737314882253
s(S'[[num]]'
p603
S'game'
p604
S'with'
p605
tp606
F0.0007283321194464676
s(S'as'
p607
S'coach'
p608
S'of'
p609
tp610
F0.00024277737314882253
s(S'forward'
p611
S'[[con]]'
p612
S'center'
p613
tp614
F0.00048555474629764507
s(S'[[prp]]'
p615
S'[[adj]]'
p616
S'hockey'
p617
tp618
F0.00024277737314882253
s(S'was'
p619
S'drafted'
p620
S'into'
p621
tp622
F0.00024277737314882253
s(S'[[prp]]'
p623
S'predecessor'
p624
S'playing'
p625
tp626
F0.00024277737314882253
s(S'[[adj]]'
p627
S'signed'
p628
S'with'
p629
tp630
F0.00024277737314882253
s(S'[[con]]'
p631
S'played'
p632
S'together'
p633
tp634
F0.00024277737314882253
s(S'before'
p635
S'returned'
p636
S'to'
p637
tp638
F0.00024277737314882253
s(S'member'
p639
S'[[con]]'
p640
S'also'
p641
tp642
F0.00024277737314882253
s(S'to'
p643
S'play'
p644
S'professionally'
p645
tp646
F0.0007283321194464676
s(S'spent'
p647
S'[[num]]'
p648
S'seasons'
p649
tp650
F0.006312211701869385
s(S'[[det]]'
p651
S'rugby'
p652
S'union'
p653
tp654
F0.00048555474629764507
s(S'became'
p655
S'head'
p656
S'[[det]]'
p657
tp658
F0.00024277737314882253
s(S'[[adj]]'
p659
S'debut'
p660
S'for'
p661
tp662
F0.00024277737314882253
s(S'football'
p663
S'[[con]]'
p664
S'graduated'
p665
tp666
F0.00024277737314882253
s(S'since'
p667
S'returned'
p668
S'to'
p669
tp670
F0.00024277737314882253
s(S'[[mod]]'
p671
S'sign'
p672
S'with'
p673
tp674
F0.00024277737314882253
s(S'[[adj]]'
p675
S'coach'
p676
S'for'
p677
tp678
F0.0007283321194464676
s(S'was'
p679
S'picked'
p680
S'to'
p681
tp682
F0.00024277737314882253
s(S'before'
p683
S'playing'
p684
S'[[det]]'
p685
tp686
F0.00024277737314882253
s(S'member'
p687
S'[[con]]'
p688
S'played'
p689
tp690
F0.00024277737314882253
s(S'seasons'
p691
S'in'
p692
S'playing'
p693
tp694
F0.00048555474629764507
s(S'then'
p695
S'played'
p696
S'[[con]]'
p697
tp698
F0.00024277737314882253
s(S'[[num]]'
p699
S'points'
p700
S'for'
p701
tp702
F0.00048555474629764507
s(S'where'
p703
S'played'
p704
S'with'
p705
tp706
F0.00024277737314882253
s(S'only'
p707
S'played'
p708
S'with'
p709
tp710
F0.00024277737314882253
s(S'[[adj]]'
p711
S'player'
p712
S'[[con]]'
p713
tp714
F0.00024277737314882253
s(S'later'
p715
S'played'
p716
S'against'
p717
tp718
F0.00024277737314882253
s(S'later'
p719
S'signed'
p720
S'[[det]]'
p721
tp722
F0.00024277737314882253
s(S'been'
p723
S'featured'
p724
S'as'
p725
tp726
F0.00024277737314882253
s(S'also'
p727
S'playing'
p728
S'with'
p729
tp730
F0.00024277737314882253
s(S'had'
p731
S'left'
p732
S'[[det]]'
p733
tp734
F0.00024277737314882253
s(S'also'
p735
S'represented'
p736
S'against'
p737
tp738
F0.00024277737314882253
s(S'[[num]]'
p739
S'seasons'
p740
S'[[det]]'
p741
tp742
F0.0007283321194464676
s(S'[[con]]'
p743
S'center'
p744
S'positions'
p745
tp746
F0.00024277737314882253
s(S'had'
p747
S'joined'
p748
S'side'
p749
tp750
F0.00024277737314882253
s(S'[[adj]]'
p751
S'game'
p752
S'by'
p753
tp754
F0.00024277737314882253
s(S'played'
p755
S'[[det]]'
p756
S'game'
p757
tp758
F0.0012138868657441126
s(S'instead'
p759
S'signed'
p760
S'for'
p761
tp762
F0.00024277737314882253
s(g18
g19
S'games'
p763
tp764
F0.00024277737314882253
s(g400
S'who'
p765
S'currently'
p766
tp767
F0.00048555474629764507
s(S'[[adj]]'
p768
S'football'
p769
S'running'
p770
tp771
F0.0007283321194464676
s(S'became'
p772
S'coach'
p773
S'at'
p774
tp775
F0.00024277737314882253
s(S'[[adj]]'
p776
S'games'
p777
S'in'
p778
tp779
F0.0007283321194464676
s(S'played'
p780
S'just'
p781
S'[[num]]'
p782
tp783
F0.0012138868657441126
s(S'school'
p784
S'[[con]]'
p785
S'played'
p786
tp787
F0.00024277737314882253
s(g74
g75
S'career'
p788
tp789
F0.00048555474629764507
s(S'as'
p790
S'[[det]]'
p791
S'member'
p792
tp793
F0.0009711094925952901
s(S'served'
p794
S'as'
p795
S'head'
p796
tp797
F0.0029133284777858705
s(S'is'
p798
S'head'
p799
S'at'
p800
tp801
F0.00024277737314882253
s(S'to'
p802
S'join'
p803
S'[[adj]]'
p804
tp805
F0.00024277737314882253
s(S'also'
p806
S'played'
p807
S'from'
p808
tp809
F0.00024277737314882253
s(S'football'
p810
S'[[con]]'
p811
S'has'
p812
tp813
F0.00048555474629764507
s(S'also'
p814
S'play'
p815
S'with'
p816
tp817
F0.00024277737314882253
s(S'draft'
p818
S'pick'
p819
S'[[con]]'
p820
tp821
F0.00024277737314882253
s(S'[[adj]]'
p822
S'hockey'
p823
S'in'
p824
tp825
F0.00024277737314882253
s(S'then'
p826
S'signed'
p827
S'for'
p828
tp829
F0.00024277737314882253
s(S'[[adj]]'
p830
S'play'
p831
S'against'
p832
tp833
F0.00024277737314882253
s(S'served'
p834
S'as'
p835
S'[[det]]'
p836
tp837
F0.004612770089827628
s(S'had'
p838
S'represented'
p839
S'[[det]]'
p840
tp841
F0.00024277737314882253
s(S'[[adj]]'
p842
S'tackle'
p843
S'for'
p844
tp845
F0.00048555474629764507
s(S'was'
p846
S'head'
p847
S'at'
p848
tp849
F0.00024277737314882253
s(S'[[mod]]'
p850
S'play'
p851
S'in'
p852
tp853
F0.00024277737314882253
s(S'was'
p854
S'represented'
p855
S'for'
p856
tp857
F0.00024277737314882253
s(S'for'
p858
S'[[det]]'
p859
S'affiliate'
p860
tp861
F0.0009711094925952901
s(g745
S'[[con]]'
p862
S'played'
p863
tp864
F0.00024277737314882253
s(S'after'
p865
S'won'
p866
S'[[det]]'
p867
tp868
F0.00024277737314882253
s(S'was'
p869
S'member'
p870
S'of'
p871
tp872
F0.00024277737314882253
s(S'who'
p873
S'won'
p874
S'for'
p875
tp876
F0.00024277737314882253
s(S'[[adj]]'
p877
S'player'
p878
S'from'
p879
tp880
F0.00024277737314882253
s(S'[[det]]'
p881
S'member'
p882
g233
tp883
F0.00024277737314882253
s(S'also'
p884
S'picked'
p885
S'up'
p886
tp887
F0.00024277737314882253
s(S'head'
p888
S'basketball'
p889
S'coach'
p890
tp891
F0.0014566642388929353
s(S'hockey'
p892
S'player'
p893
S'currently'
p894
tp895
F0.00048555474629764507
s(S'was'
p896
S'head'
p897
S'[[det]]'
p898
tp899
F0.00024277737314882253
s(S'have'
p900
S'left'
p901
S'[[det]]'
p902
tp903
F0.00024277737314882253
s(S'player'
p904
S'who'
p905
S'currently'
p906
tp907
F0.0029133284777858705
s(S'also'
p908
S'won'
p909
S'of'
p910
tp911
F0.00024277737314882253
s(S'coach'
p912
S'at'
p913
S'[[con]]'
p914
tp915
F0.00024277737314882253
s(S'[[adj]]'
p916
S'debut'
p917
S'[[det]]'
p918
tp919
F0.00024277737314882253
s(S'was'
p920
S'ranked'
p921
S'[[num]]'
p922
tp923
F0.00048555474629764507
s(S'[[num]]'
p924
S'[[adj]]'
p925
S'games'
p926
tp927
F0.00048555474629764507
s(S'served'
p928
S'head'
p929
S'coach'
p930
tp931
F0.00024277737314882253
s(S'was'
p932
S'chosen'
p933
S'at'
p934
tp935
F0.00024277737314882253
s(S'also'
p936
S'played'
p937
S'[[num]]'
p938
tp939
F0.0033988832240835153
s(S'[[det]]'
p940
S'[[con]]'
p941
S'parts'
p942
tp943
F0.00024277737314882253
s(S'[[adj]]'
p944
S'pick'
p945
S'of'
p946
tp947
F0.00024277737314882253
s(S'is'
p948
S'featured'
p949
S'for'
p950
tp951
F0.00024277737314882253
s(S'born'
p952
S'is'
p953
S'player'
p954
tp955
F0.00024277737314882253
s(S'hockey'
p956
S'defenceman'
p957
S'currently'
p958
tp959
F0.00024277737314882253
s(S'college'
p960
S'for'
p961
S'[[det]]'
p962
tp963
F0.00024277737314882253
s(S'just'
p964
S'[[num]]'
p965
S'game'
p966
tp967
F0.0007283321194464676
s(g399
g400
g765
tp968
F0.0007283321194464676
s(S'previously'
p969
S'played'
p970
S'[[adj]]'
p971
tp972
F0.00048555474629764507
s(S'not'
p973
S'played'
p974
S'for'
p975
tp976
F0.00024277737314882253
s(S'is'
p977
S'[[adj]]'
p978
S'football'
p979
tp980
F0.005098324836125273
s(S'[[det]]'
p981
S'head'
p982
S'of'
p983
tp984
F0.00024277737314882253
s(S'rated'
p985
S'[[det]]'
p986
S'[[adj]]'
p987
tp988
F0.00024277737314882253
s(S'[[adj]]'
p989
S'player'
p990
S'with'
p991
tp992
F0.00024277737314882253
s(S'spent'
p993
S'time'
p994
S'at'
p995
tp996
F0.00024277737314882253
s(S'played'
p997
S'professionally'
p998
S'[[con]]'
p999
tp1000
F0.0007283321194464676
s(S'which'
p1001
S'won'
p1002
S'[[con]]'
p1003
tp1004
F0.00024277737314882253
s(S'was'
p1005
S'joined'
p1006
S'at'
p1007
tp1008
F0.00024277737314882253
s(S'best'
p1009
S'known'
p1010
S'as'
p1011
tp1012
F0.00024277737314882253
s(S'after'
p1013
S'playing'
p1014
S'for'
p1015
tp1016
F0.00024277737314882253
s(S'[[con]]'
p1017
S'won'
p1018
S'with'
p1019
tp1020
F0.00024277737314882253
s(g70
g71
S'as'
p1021
tp1022
F0.00024277737314882253
s(S'football'
p1023
S'[[det]]'
p1024
S'member'
p1025
tp1026
F0.00024277737314882253
s(S'being'
p1027
S'drafted'
p1028
S'by'
p1029
tp1030
F0.00048555474629764507
s(S'also'
p1031
S'signed'
p1032
S'by'
p1033
tp1034
F0.00024277737314882253
s(S'that'
p1035
S'played'
p1036
S'in'
p1037
tp1038
F0.00024277737314882253
s(g233
S'time'
p1039
S'at'
p1040
tp1041
F0.00024277737314882253
s(S'[[con]]'
p1042
S'played'
p1043
S'football'
p1044
tp1045
F0.00048555474629764507
s(g986
g987
S'player'
p1046
tp1047
F0.00024277737314882253
s(S'[[adj]]'
p1048
g205
g206
tp1049
F0.00024277737314882253
s(S'[[con]]'
p1050
S'also'
p1051
S'played'
p1052
tp1053
F0.0014566642388929353
s(S'previously'
p1054
S'played'
p1055
S'[[con]]'
p1056
tp1057
F0.00048555474629764507
s(S'[[det]]'
p1058
S'head'
p1059
S'at'
p1060
tp1061
F0.00024277737314882253
s(S'[[adj]]'
p1062
S'seasons'
p1063
S'with'
p1064
tp1065
F0.0014566642388929353
s(S'[[con]]'
p1066
S'served'
p1067
S'as'
p1068
tp1069
F0.00024277737314882253
s(S'in'
p1070
S'playing'
p1071
S'for'
p1072
tp1073
F0.0009711094925952901
s(S'played'
p1074
S'[[adj]]'
p1075
S'football'
p1076
tp1077
F0.00048555474629764507
s(g890
S'[[num]]'
p1078
S'[[con]]'
p1079
tp1080
F0.0007283321194464676
s(S'[[prp]]'
p1081
S'debut'
p1082
S'to'
p1083
tp1084
F0.00024277737314882253
s(S'previously'
p1085
S'been'
p1086
S'[[det]]'
p1087
tp1088
F0.00024277737314882253
s(S'now'
p1089
S'called'
p1090
S'[[det]]'
p1091
tp1092
F0.00024277737314882253
s(S'[[adj]]'
p1093
S'games'
p1094
S'for'
p1095
tp1096
F0.0014566642388929353
s(S'to'
p1097
S'coach'
p1098
S'at'
p1099
tp1100
F0.00024277737314882253
s(S'played'
p1101
S'for'
p1102
S'[[num]]'
p1103
tp1104
F0.0014566642388929353
s(S'never'
p1105
S'played'
p1106
S'for'
p1107
tp1108
F0.00024277737314882253
s(S'[[num]]'
p1109
S'playing'
p1110
S'for'
p1111
tp1112
F0.0007283321194464676
s(S'also'
p1113
S'played'
p1114
S'for'
p1115
tp1116
F0.0016994416120417577
s(S'[[con]]'
p1117
S'head'
p1118
S'of'
p1119
tp1120
F0.00024277737314882253
s(S'[[adj]]'
p1121
S'stint'
p1122
S'in'
p1123
tp1124
F0.00024277737314882253
s(S'football'
p1125
S'coach'
p1126
S'[[num]]'
p1127
tp1128
F0.00048555474629764507
s(S'pick'
p1129
g703
g704
tp1130
F0.00024277737314882253
s(S'signed'
p1131
S'[[det]]'
p1132
S'contract'
p1133
tp1134
F0.0024277737314882253
s(S'was'
p1135
S'initially'
p1136
S'drafted'
p1137
tp1138
F0.00024277737314882253
s(S'[[num]]'
p1139
S'games'
p1140
S'as'
p1141
tp1142
F0.00024277737314882253
s(S'had'
p1143
S'joined'
p1144
S'from'
p1145
tp1146
F0.00024277737314882253
s(S'has'
p1147
S'won'
p1148
S'[[num]]'
p1149
tp1150
F0.00048555474629764507
s(S'[[con]]'
p1151
g29
g30
tp1152
F0.00024277737314882253
s(S'who'
p1153
S'signed'
p1154
S'[[det]]'
p1155
tp1156
F0.00024277737314882253
s(S'player'
p1157
S'[[det]]'
p1158
S'running'
p1159
tp1160
F0.00024277737314882253
s(S'[[adj]]'
p1161
S'seasons'
p1162
S'as'
p1163
tp1164
F0.00024277737314882253
s(S'[[adj]]'
p1165
S'player'
p1166
S'of'
p1167
tp1168
F0.00024277737314882253
s(S'[[prp]]'
p1169
S'time'
p1170
S'in'
p1171
tp1172
F0.00024277737314882253
s(S'again'
p1173
S'led'
p1174
S'[[det]]'
p1175
tp1176
F0.00024277737314882253
s(S'in'
p1177
S'[[num]]'
p1178
S'seasons'
p1179
tp1180
F0.00024277737314882253
s(S'[[num]]'
p1181
S'years'
p1182
S'[[num]]'
p1183
tp1184
F0.00024277737314882253
s(S'not'
p1185
S'selected'
p1186
S'for'
p1187
tp1188
F0.00024277737314882253
s(S'midfielder'
p1189
S'who'
p1190
S'plays'
p1191
tp1192
F0.00024277737314882253
s(S'[[det]]'
p1193
S'[[adj]]'
p1194
S'contract'
p1195
tp1196
F0.0021849963583394027
s(S'to'
p1197
S'play'
p1198
S'[[num]]'
p1199
tp1200
F0.00024277737314882253
s(S'was'
p1201
S'named'
p1202
S'head'
p1203
tp1204
F0.0014566642388929353
s(S'has'
p1205
S'played'
p1206
S'[[num]]'
p1207
tp1208
F0.0014566642388929353
s(S'to'
p1209
S'play'
p1210
S'again'
p1211
tp1212
F0.00024277737314882253
s(S'back'
p1213
S'playing'
p1214
S'for'
p1215
tp1216
F0.00024277737314882253
s(S'as'
p1217
S'played'
p1218
S'for'
p1219
tp1220
F0.00024277737314882253
s(S'then'
p1221
S'joined'
p1222
S'of'
p1223
tp1224
F0.00024277737314882253
s(S'played'
p1225
g1093
g1094
tp1226
F0.0014566642388929353
s(S'[[con]]'
p1227
S'played'
p1228
S'college'
p1229
tp1230
F0.0014566642388929353
s(S'[[con]]'
p1231
S'never'
p1232
S'played'
p1233
tp1234
F0.00024277737314882253
s(S'drafted'
p1235
g364
g53
tp1236
F0.00024277737314882253
s(S'graduated'
p1237
g1227
g1228
tp1238
F0.00024277737314882253
s(S'be'
p1239
S'picked'
p1240
S'for'
p1241
tp1242
F0.00024277737314882253
s(S'[[det]]'
p1243
S'majority'
p1244
S'in'
p1245
tp1246
F0.00024277737314882253
s(S'[[det]]'
p1247
S'team'
p1248
S'[[con]]'
p1249
tp1250
F0.00024277737314882253
s(S'[[num]]'
p1251
S'seasons'
p1252
S'[[num]]'
p1253
tp1254
F0.0033988832240835153
s(S'traded'
p1255
S'along'
p1256
S'[[adj]]'
p1257
tp1258
F0.00048555474629764507
s(S'[[con]]'
p1259
S'returned'
p1260
S'at'
p1261
tp1262
F0.00024277737314882253
s(S'[[det]]'
p1263
S'linebacker'
p1264
S'for'
p1265
tp1266
F0.00024277737314882253
s(S'since'
p1267
S'played'
p1268
S'[[adj]]'
p1269
tp1270
F0.00024277737314882253
s(S'originally'
p1271
S'drafted'
p1272
S'by'
p1273
tp1274
F0.00024277737314882253
s(S'college'
p1275
S'football'
p1276
S'in'
p1277
tp1278
F0.00024277737314882253
s(S'before'
p1279
S'transferring'
p1280
S'to'
p1281
tp1282
F0.00048555474629764507
s(S'which'
p1283
S'won'
p1284
S'[[det]]'
p1285
tp1286
F0.00024277737314882253
s(S'also'
p1287
S'selected'
p1288
S'by'
p1289
tp1290
F0.00024277737314882253
s(S'then'
p1291
S'played'
p1292
S'then'
p1293
tp1294
F0.00024277737314882253
s(S'football'
p1295
g1151
g29
tp1296
F0.00024277737314882253
s(S'was'
p1297
S'featured'
p1298
S'of'
p1299
tp1300
F0.00024277737314882253
s(S'is'
p1301
S'member'
p1302
S'[[det]]'
p1303
tp1304
F0.00024277737314882253
s(S'then'
p1305
S'joined'
p1306
S'then'
p1307
tp1308
F0.00024277737314882253
s(S'basketball'
p1309
S'player'
p1310
S'with'
p1311
tp1312
F0.00048555474629764507
s(S'to'
p1313
S'play'
p1314
S'of'
p1315
tp1316
F0.00024277737314882253
s(S'attended'
p1317
S'[[adj]]'
p1318
g784
tp1319
F0.00024277737314882253
s(S'originally'
p1320
S'drafted'
p1321
S'out'
p1322
tp1323
F0.00024277737314882253
s(S'when'
p1324
S'led'
p1325
S'[[det]]'
p1326
tp1327
F0.00024277737314882253
s(S'[[adj]]'
p1328
S'time'
p1329
S'with'
p1330
tp1331
F0.00024277737314882253
s(S'then'
p1332
S'joined'
p1333
S'[[det]]'
p1334
tp1335
F0.00024277737314882253
s(S'was'
p1336
S'member'
p1337
S'[[num]]'
p1338
tp1339
F0.00024277737314882253
s(S'now'
p1340
S'plays'
p1341
S'in'
p1342
tp1343
F0.00024277737314882253
s(S'as'
p1344
S'[[det]]'
p1345
S'defender'
p1346
tp1347
F0.00024277737314882253
s(S'best'
p1348
S'known'
p1349
S'for'
p1350
tp1351
F0.00024277737314882253
s(S'when'
p1352
S'playing'
p1353
S'for'
p1354
tp1355
F0.00024277737314882253
s(S'running'
p1356
S'back'
p1357
S'who'
p1358
tp1359
F0.0009711094925952901
s(S'football'
p1360
S'[[con]]'
p1361
S'thereafter'
p1362
tp1363
F0.00024277737314882253
s(S'[[adj]]'
p1364
S'round'
p1365
S'pick'
p1366
tp1367
F0.0012138868657441126
s(S'[[det]]'
p1368
S'[[num]]'
p1369
S'seasons'
p1370
tp1371
F0.004127215343529983
s(S'football'
p1372
S'[[con]]'
p1373
S'basketball'
p1374
tp1375
F0.00048555474629764507
s(S'was'
p1376
S'recalled'
p1377
S'by'
p1378
tp1379
F0.00024277737314882253
s(S'[[det]]'
p1380
S'draft'
p1381
S'pick'
p1382
tp1383
F0.00048555474629764507
s(S'played'
p1384
g940
g941
tp1385
F0.00024277737314882253
s(S'later'
p1386
S'selected'
p1387
S'by'
p1388
tp1389
F0.00024277737314882253
s(S'also'
p1390
S'played'
p1391
S'twice'
p1392
tp1393
F0.00024277737314882253
s(S'[[prp]]'
p1394
S'[[adj]]'
p1395
S'game'
p1396
tp1397
F0.0024277737314882253
s(S'was'
p1398
S'chosen'
p1399
S'because'
p1400
tp1401
F0.00024277737314882253
s(g1361
g1362
S'played'
p1402
tp1403
F0.00048555474629764507
s(S'[[pro]]'
p1404
S'basketball'
p1405
S'player'
p1406
tp1407
F0.00024277737314882253
s(S'has'
p1408
S'previously'
p1409
S'served'
p1410
tp1411
F0.00024277737314882253
s(S'became'
p1412
S'coach'
p1413
S'for'
p1414
tp1415
F0.00024277737314882253
s(S'hockey'
p1416
S'forward'
p1417
S'who'
p1418
tp1419
F0.00024277737314882253
s(S'[[det]]'
p1420
S'player'
p1421
S'for'
p1422
tp1423
F0.00048555474629764507
s(S'college'
p1424
S'football'
p1425
S'for'
p1426
tp1427
F0.0009711094925952901
s(S'then'
p1428
S'called'
p1429
S'up'
p1430
tp1431
F0.00024277737314882253
s(S'[[con]]'
p1432
S'joined'
p1433
S'at'
p1434
tp1435
F0.00024277737314882253
s(S'[[det]]'
p1436
S'team'
p1437
S'that'
p1438
tp1439
F0.00024277737314882253
s(S'[[con]]'
p1440
S'spent'
p1441
S'[[num]]'
p1442
tp1443
F0.0009711094925952901
s(S'[[adj]]'
p1444
S'pick'
p1445
S'by'
p1446
tp1447
F0.00024277737314882253
s(S'was'
p1448
S'recruited'
p1449
S'by'
p1450
tp1451
F0.00024277737314882253
s(S'to'
p1452
S'[[adj]]'
p1453
S'contract'
p1454
tp1455
F0.0007283321194464676
s(S'[[adj]]'
p1456
S'team'
p1457
S'[[det]]'
p1458
tp1459
F0.00024277737314882253
s(S'not'
p1460
S'play'
p1461
S'for'
p1462
tp1463
F0.00024277737314882253
s(S'[[prp]]'
p1464
S'career'
p1465
S'with'
p1466
tp1467
F0.00024277737314882253
s(S'[[num]]'
p1468
S'[[adj]]'
p1469
S'seasons'
p1470
tp1471
F0.0021849963583394027
s(S'[[det]]'
p1472
S'of'
p1473
S'games'
p1474
tp1475
F0.00024277737314882253
s(S'[[adj]]'
p1476
g1217
g1218
tp1477
F0.00024277737314882253
s(S'[[det]]'
p1478
S'career'
p1479
S'in'
p1480
tp1481
F0.00024277737314882253
s(S'[[prp]]'
p1482
S'[[adj]]'
p1483
S'games'
p1484
tp1485
F0.00024277737314882253
s(S'part'
p1486
S'time'
p1487
S'at'
p1488
tp1489
F0.00024277737314882253
s(g836
S'head'
p1490
S'coach'
p1491
tp1492
F0.006797766448167031
s(S'coach'
p1493
S'[[con]]'
p1494
S'[[adj]]'
p1495
tp1496
F0.0012138868657441126
s(S'then'
p1497
S'signed'
p1498
S'in'
p1499
tp1500
F0.00024277737314882253
s(S'played'
p1501
S'football'
p1502
S'before'
p1503
tp1504
F0.00024277737314882253
s(S'has'
p1505
S'won'
p1506
S'on'
p1507
tp1508
F0.00024277737314882253
s(S'[[det]]'
p1509
S'time'
p1510
S'at'
p1511
tp1512
F0.00024277737314882253
s(g1405
g1406
S'who'
p1513
tp1514
F0.0019422189851905803
s(S'that'
p1515
S'won'
p1516
S'for'
p1517
tp1518
F0.00024277737314882253
s(S'[[num]]'
p1519
S'points'
p1520
S'against'
p1521
tp1522
F0.00048555474629764507
s(S'born'
p1523
S'[[num]]'
p1524
S'player'
p1525
tp1526
F0.00048555474629764507
s(S'split'
p1527
S'time'
p1528
S'between'
p1529
tp1530
F0.00024277737314882253
s(g941
g942
S'for'
p1531
tp1532
F0.00024277737314882253
s(g1406
g1513
S'playing'
p1533
tp1534
F0.00024277737314882253
s(S'also'
p1535
S'played'
p1536
S'hockey'
p1537
tp1538
F0.00024277737314882253
s(S'manager'
p1539
S'who'
p1540
S'played'
p1541
tp1542
F0.00024277737314882253
s(g859
g860
S'[[det]]'
p1543
tp1544
F0.00024277737314882253
s(S'again'
p1545
S'selected'
p1546
S'for'
p1547
tp1548
F0.00024277737314882253
s(S'[[adj]]'
p1549
S'number'
p1550
S'[[con]]'
p1551
tp1552
F0.00024277737314882253
s(S'[[det]]'
p1553
S'selected'
p1554
S'to'
p1555
tp1556
F0.00024277737314882253
s(S'be'
p1557
S'playing'
p1558
S'for'
p1559
tp1560
F0.00024277737314882253
s(S'[[det]]'
p1561
S'center'
p1562
S'forward'
p1563
tp1564
F0.00048555474629764507
s(S'is'
p1565
S'[[det]]'
p1566
S'head'
p1567
tp1568
F0.00024277737314882253
s(S'seasons'
p1569
S'playing'
p1570
S'in'
p1571
tp1572
F0.0007283321194464676
s(S'[[con]]'
p1573
S'was'
p1574
S'drafted'
p1575
tp1576
F0.0016994416120417577
s(S'was'
p1577
S'head'
p1578
S'of'
p1579
tp1580
F0.00024277737314882253
s(S'football'
p1581
S'safety'
p1582
S'in'
p1583
tp1584
F0.00024277737314882253
s(S'[[adj]]'
p1585
S'team'
p1586
S'[[con]]'
p1587
tp1588
F0.00024277737314882253
s(S'formerly'
p1589
S'played'
p1590
S'with'
p1591
tp1592
F0.00024277737314882253
s(S'been'
p1593
S'featured'
p1594
S'on'
p1595
tp1596
F0.00024277737314882253
s(S'[[num]]'
p1597
S'[[con]]'
p1598
S'played'
p1599
tp1600
F0.00048555474629764507
s(S'was'
p1601
S'selected'
p1602
S'as'
p1603
tp1604
F0.00048555474629764507
s(S'once'
p1605
S'played'
p1606
S'for'
p1607
tp1608
F0.00024277737314882253
s(g1362
g1402
S'professionally'
p1609
tp1610
F0.0007283321194464676
s(S'also'
p1611
S'playing'
p1612
S'for'
p1613
tp1614
F0.00024277737314882253
s(S'played'
p1615
S'in'
p1616
S'game'
p1617
tp1618
F0.00024277737314882253
s(S'[[con]]'
p1619
S'signed'
p1620
S'by'
p1621
tp1622
F0.00024277737314882253
s(S'football'
p1623
g1279
g1280
tp1624
F0.00048555474629764507
s(S'was'
p1625
S'signed'
p1626
S'by'
p1627
tp1628
F0.0007283321194464676
s(S'previously'
p1629
S'played'
p1630
S'in'
p1631
tp1632
F0.0007283321194464676
s(S'[[num]]'
p1633
S'[[adj]]'
p1634
S'association'
p1635
tp1636
F0.0007283321194464676
s(g174
g175
S'player'
p1637
tp1638
F0.0012138868657441126
s(S'collegiately'
p1639
S'was'
p1640
S'selected'
p1641
tp1642
F0.00024277737314882253
s(S'named'
p1643
S'head'
p1644
S'basketball'
p1645
tp1646
F0.00024277737314882253
s(S'[[num]]'
p1647
S'career'
p1648
S'games'
p1649
tp1650
F0.0007283321194464676
s(S'[[con]]'
p1651
S'left'
p1652
S'to'
p1653
tp1654
F0.00024277737314882253
s(S'to'
p1655
S'play'
p1656
S'[[con]]'
p1657
tp1658
F0.00024277737314882253
s(S'played'
p1659
S'more'
p1660
S'[[num]]'
p1661
tp1662
F0.00048555474629764507
s(S'played'
p1663
S'football'
p1664
S'at'
p1665
tp1666
F0.00024277737314882253
s(S'[[prp]]'
p1667
S'debut'
p1668
S'for'
p1669
tp1670
F0.00024277737314882253
s(S'now'
p1671
S'plays'
p1672
S'with'
p1673
tp1674
F0.00024277737314882253
s(S'[[adj]]'
p1675
S'play'
p1676
S'in'
p1677
tp1678
F0.00024277737314882253
s(S'[[pro]]'
p1679
S'led'
p1680
S'[[det]]'
p1681
tp1682
F0.00024277737314882253
s(S'football'
p1683
S'player'
p1684
S'[[det]]'
p1685
tp1686
F0.0007283321194464676
s(S'[[adj]]'
p1687
S'union'
p1688
S'player'
p1689
tp1690
F0.0007283321194464676
s(S'[[num]]'
p1691
S'seasons'
p1692
S'at'
p1693
tp1694
F0.0012138868657441126
s(S'played'
p1695
S'with'
p1696
S'affiliate'
p1697
tp1698
F0.00024277737314882253
s(S'[[adj]]'
p1699
S'football'
p1700
S'soccer'
p1701
tp1702
F0.0009711094925952901
s(S'later'
p1703
S'signed'
p1704
S'for'
p1705
tp1706
F0.00024277737314882253
s(S'was'
p1707
S'member'
p1708
S'[[det]]'
p1709
tp1710
F0.00024277737314882253
s(S'again'
p1711
S'selected'
p1712
S'in'
p1713
tp1714
F0.00024277737314882253
s(S'was'
p1715
S'previously'
p1716
S'[[det]]'
p1717
tp1718
F0.0007283321194464676
s(S'[[det]]'
p1719
S'wing'
p1720
S'who'
p1721
tp1722
F0.00024277737314882253
s(S'not'
p1723
S'selected'
p1724
S'by'
p1725
tp1726
F0.00024277737314882253
s(S'pitcher'
p1727
g281
g282
tp1728
F0.00024277737314882253
s(g1043
g1044
S'for'
p1729
tp1730
F0.00024277737314882253
s(g75
g788
S'at'
p1731
tp1732
F0.00048555474629764507
s(S'draft'
p1733
S'pick'
p1734
S'by'
p1735
tp1736
F0.00048555474629764507
s(S'[[det]]'
p1737
S'member'
p1738
S'for'
p1739
tp1740
F0.00024277737314882253
s(S'was'
p1741
S'leader'
p1742
S'of'
p1743
tp1744
F0.00024277737314882253
s(S'is'
p1745
S'[[adj]]'
p1746
S'head'
p1747
tp1748
F0.00048555474629764507
s(S'also'
p1749
S'represented'
p1750
S'[[det]]'
p1751
tp1752
F0.00024277737314882253
s(S'played'
p1753
S'[[con]]'
p1754
S'was'
p1755
tp1756
F0.0012138868657441126
s(S'defenceman'
p1757
S'who'
p1758
S'played'
p1759
tp1760
F0.0024277737314882253
s(S'while'
p1761
S'joined'
p1762
S'[[det]]'
p1763
tp1764
F0.00024277737314882253
s(S'became'
p1765
S'member'
p1766
S'of'
p1767
tp1768
F0.00024277737314882253
s(S'later'
p1769
S'played'
p1770
S'in'
p1771
tp1772
F0.00024277737314882253
s(S'first'
p1773
S'played'
p1774
S'with'
p1775
tp1776
F0.00024277737314882253
s(g522
g523
g293
tp1777
F0.00024277737314882253
s(S'was'
p1778
S'coach'
p1779
S'of'
p1780
tp1781
F0.00024277737314882253
s(S'during'
p1782
S'[[num]]'
p1783
S'seasons'
p1784
tp1785
F0.00024277737314882253
s(S'later'
p1786
S'left'
p1787
S'for'
p1788
tp1789
F0.00024277737314882253
s(S'hockey'
p1790
S'defenseman'
p1791
S'currently'
p1792
tp1793
F0.00024277737314882253
s(g961
g962
S'football'
p1794
tp1795
F0.00024277737314882253
s(S'played'
p1796
S'only'
p1797
S'[[num]]'
p1798
tp1799
F0.0007283321194464676
s(g795
g796
S'coach'
p1800
tp1801
F0.002670551104637048
s(S'until'
p1802
S'joined'
p1803
S'[[det]]'
p1804
tp1805
F0.00024277737314882253
s(S'played'
p1806
S'[[num]]'
p1807
S'game'
p1808
tp1809
F0.0024277737314882253
s(S'football'
p1810
S'player'
p1811
S'who'
p1812
tp1813
F0.008497208060208788
s(S'for'
p1814
S'affiliate'
p1815
S'[[det]]'
p1816
tp1817
F0.00024277737314882253
s(S'college'
p1818
g1623
g1279
tp1819
F0.00024277737314882253
s(S'[[adj]]'
p1820
S'football'
p1821
S'head'
p1822
tp1823
F0.00024277737314882253
s(g580
g581
S'at'
p1824
tp1825
F0.00048555474629764507
s(S'originally'
p1826
S'selected'
p1827
S'by'
p1828
tp1829
F0.00024277737314882253
s(S'[[det]]'
p1830
S'time'
p1831
S'[[pro]]'
p1832
tp1833
F0.00024277737314882253
s(S'[[prp]]'
p1834
S'[[adj]]'
p1835
g65
tp1836
F0.00024277737314882253
s(S'was'
p1837
S'selected'
p1838
S'from'
p1839
tp1840
F0.00024277737314882253
s(S'also'
p1841
S'played'
p1842
S'to'
p1843
tp1844
F0.00024277737314882253
s(S'who'
p1845
S'has'
p1846
S'played'
p1847
tp1848
F0.0007283321194464676
s(S'[[det]]'
p1849
S'[[adj]]'
p1850
S'game'
p1851
tp1852
F0.00048555474629764507
s(g138
g139
S'in'
p1853
tp1854
F0.0016994416120417577
s(S'football'
p1855
S'after'
p1856
S'graduating'
p1857
tp1858
F0.00024277737314882253
s(g538
g539
S'for'
p1859
tp1860
F0.00024277737314882253
s(S'with'
p1861
S'[[con]]'
p1862
S'ndash'
p1863
tp1864
F0.00024277737314882253
s(S'[[det]]'
p1865
S'head'
p1866
S'football'
p1867
tp1868
F0.004612770089827628
s(S'born'
p1869
S'[[con]]'
p1870
S'played'
p1871
tp1872
F0.0012138868657441126
s(S'[[det]]'
p1873
S'[[adj]]'
p1874
S'years'
p1875
tp1876
F0.00024277737314882253
s(S'previously'
p1877
S'played'
p1878
S'from'
p1879
tp1880
F0.00024277737314882253
s(g1812
S'played'
p1881
S'college'
p1882
tp1883
F0.00024277737314882253
s(S'[[adj]]'
p1884
S'played'
p1885
S'professionally'
p1886
tp1887
F0.00048555474629764507
s(S'[[adj]]'
p1888
S'team'
p1889
S'of'
p1890
tp1891
F0.00024277737314882253
s(S'prevent'
p1892
S'[[det]]'
p1893
S'issue'
p1894
tp1895
F0.00024277737314882253
s(S'drafted'
p1896
g1476
g1217
tp1897
F0.00024277737314882253
s(S'was'
p1898
S'called'
p1899
S'back'
p1900
tp1901
F0.00024277737314882253
s(S'scored'
p1902
S'[[prp]]'
p1903
S'[[adj]]'
p1904
tp1905
F0.00024277737314882253
s(S'played'
p1906
S'[[prp]]'
p1907
S'college'
p1908
tp1909
F0.0007283321194464676
s(S'also'
p1910
S'featured'
p1911
S'as'
p1912
tp1913
F0.00024277737314882253
s(S'coach'
p1914
S'located'
p1915
S'in'
p1916
tp1917
F0.00024277737314882253
s(S'was'
p1918
S'signed'
p1919
S'under'
p1920
tp1921
F0.00024277737314882253
s(S'then'
p1922
S'called'
p1923
S'[[det]]'
p1924
tp1925
F0.00024277737314882253
s(S'[[num]]'
p1926
S'debut'
p1927
S'for'
p1928
tp1929
F0.00024277737314882253
s(S'football'
p1930
S'coach'
p1931
S'with'
p1932
tp1933
F0.00024277737314882253
s(S'later'
p1934
S'signed'
p1935
S'with'
p1936
tp1937
F0.00024277737314882253
s(S'[[det]]'
p1938
S'member'
p1939
S'until'
p1940
tp1941
F0.00024277737314882253
s(g1132
g1133
S'[[con]]'
p1942
tp1943
F0.00024277737314882253
s(S'spent'
p1944
g352
g353
tp1945
F0.00024277737314882253
s(S'mainly'
p1946
S'played'
p1947
S'for'
p1948
tp1949
F0.00024277737314882253
s(g1349
g1350
S'[[det]]'
p1950
tp1951
F0.00024277737314882253
s(S'[[adj]]'
p1952
S'games'
p1953
S'against'
p1954
tp1955
F0.00048555474629764507
s(g644
g645
S'in'
p1956
tp1957
F0.00048555474629764507
s(S'is'
p1958
S'member'
p1959
S'[[con]]'
p1960
tp1961
F0.00024277737314882253
s(S'began'
p1962
g1478
g1479
tp1963
F0.0009711094925952901
s(S'contract'
p1964
S'was'
p1965
S'signed'
p1966
tp1967
F0.00024277737314882253
s(S'[[con]]'
p1968
S'leader'
p1969
S'of'
p1970
tp1971
F0.00024277737314882253
s(S'[[det]]'
p1972
S'player'
p1973
S'in'
p1974
tp1975
F0.00024277737314882253
s(S'[[prp]]'
p1976
S'debut'
p1977
S'[[det]]'
p1978
tp1979
F0.00024277737314882253
s(S'[[num]]'
p1980
S'[[adj]]'
p1981
S'head'
p1982
tp1983
F0.00024277737314882253
s(S'became'
p1984
S'head'
p1985
S'football'
p1986
tp1987
F0.00024277737314882253
s(S'won'
p1988
S'[[det]]'
p1989
S'championships'
p1990
tp1991
F0.00024277737314882253
s(S'then'
p1992
S'joined'
p1993
S'[[adj]]'
p1994
tp1995
F0.00024277737314882253
s(g362
S'games'
p1996
S'for'
p1997
tp1998
F0.00024277737314882253
s(S'to'
p1999
S'join'
p2000
S'at'
p2001
tp2002
F0.00024277737314882253
s(S'with'
p2003
S'won'
p2004
S'[[det]]'
p2005
tp2006
F0.00024277737314882253
s(S'[[adj]]'
p2007
S'team'
p2008
S'[[num]]'
p2009
tp2010
F0.00024277737314882253
s(S'formerly'
p2011
S'played'
p2012
S'for'
p2013
tp2014
F0.00024277737314882253
s(S'years'
p2015
S'playing'
p2016
S'with'
p2017
tp2018
F0.00048555474629764507
s(S'only'
p2019
S'played'
p2020
S'against'
p2021
tp2022
F0.00024277737314882253
s(S'where'
p2023
S'played'
p2024
S'against'
p2025
tp2026
F0.00024277737314882253
s(S'made'
p2027
S'debut'
p2028
S'against'
p2029
tp2030
F0.00024277737314882253
s(S'playing'
p2031
g513
g514
tp2032
F0.00024277737314882253
s(S'ever'
p2033
S'play'
p2034
S'for'
p2035
tp2036
F0.00024277737314882253
s(S'football'
p2037
S'player'
p2038
S'[[con]]'
p2039
tp2040
F0.0007283321194464676
s(S'while'
p2041
S'playing'
p2042
S'for'
p2043
tp2044
F0.00024277737314882253
s(S'was'
p2045
S'selected'
p2046
S'by'
p2047
tp2048
F0.0021849963583394027
s(S'[[adj]]'
p2049
S'player'
p2050
S'to'
p2051
tp2052
F0.00024277737314882253
s(S'first'
p2053
S'played'
p2054
S'in'
p2055
tp2056
F0.00024277737314882253
s(S'born'
p2057
S'in'
p2058
S'[[adj]]'
p2059
tp2060
F0.00024277737314882253
s(g1821
g1822
S'coach'
p2061
tp2062
F0.00024277737314882253
s(S'now'
p2063
S'signed'
p2064
S'with'
p2065
tp2066
F0.00024277737314882253
s(S'was'
p2067
S'chosen'
p2068
S'[[num]]'
p2069
tp2070
F0.00024277737314882253
s(S'have'
p2071
S'won'
p2072
S'with'
p2073
tp2074
F0.00024277737314882253
s(S'drafted'
p2075
S'[[con]]'
p2076
S'played'
p2077
tp2078
F0.0007283321194464676
s(S'is'
p2079
S'[[det]]'
p2080
S'football'
p2081
tp2082
F0.0016994416120417577
s(S'seasons'
p2083
S'as'
p2084
S'[[det]]'
p2085
tp2086
F0.00048555474629764507
s(S'in'
p2087
S'[[det]]'
p2088
S'games'
p2089
tp2090
F0.00024277737314882253
s(S'also'
p2091
S'played'
p2092
S'against'
p2093
tp2094
F0.00024277737314882253
s(S'played'
p2095
S'[[num]]'
p2096
S'[[det]]'
p2097
tp2098
F0.00024277737314882253
s(S'selected'
p2099
g1440
g1441
tp2100
F0.00024277737314882253
s(S'then'
p2101
S'returned'
p2102
S'at'
p2103
tp2104
F0.00024277737314882253
s(S'[[con]]'
p2105
S'played'
p2106
S'against'
p2107
tp2108
F0.0009711094925952901
s(S'to'
p2109
S'[[det]]'
p2110
S'contract'
p2111
tp2112
F0.00024277737314882253
s(S'has'
p2113
S'spent'
p2114
S'most'
p2115
tp2116
F0.00024277737314882253
s(S'later'
p2117
S'led'
p2118
S'[[det]]'
p2119
tp2120
F0.00024277737314882253
s(g102
g103
S'head'
p2121
tp2122
F0.00048555474629764507
s(S'including'
p2123
S'[[det]]'
p2124
S'winning'
p2125
tp2126
F0.00024277737314882253
s(S'who'
p2127
S'played'
p2128
g1344
tp2129
F0.00024277737314882253
s(S'ice'
p2130
S'hockey'
p2131
S'currently'
p2132
tp2133
F0.00024277737314882253
s(S'[[det]]'
p2134
S'[[adj]]'
p2135
S'majority'
p2136
tp2137
F0.00024277737314882253
s(S'which'
p2138
S'returned'
p2139
S'to'
p2140
tp2141
F0.00024277737314882253
s(S'is'
p2142
S'[[adj]]'
p2143
S'player'
p2144
tp2145
F0.00048555474629764507
s(S'[[num]]'
p2146
S'time'
p2147
S'to'
p2148
tp2149
F0.00024277737314882253
s(S'more'
p2150
S'seasons'
p2151
S'in'
p2152
tp2153
F0.00048555474629764507
s(S'only'
p2154
S'[[num]]'
p2155
S'game'
p2156
tp2157
F0.00024277737314882253
s(S'formerly'
p2158
S'played'
p2159
S'in'
p2160
tp2161
F0.00024277737314882253
s(S'[[prp]]'
p2162
S'game'
p2163
S'for'
p2164
tp2165
F0.00024277737314882253
s(S'had'
p2166
S'won'
p2167
S'[[con]]'
p2168
tp2169
F0.00024277737314882253
s(S'drafted'
p2170
g1231
g1232
tp2171
F0.00024277737314882253
s(S'was'
p2172
S'selected'
p2173
S'[[det]]'
p2174
tp2175
F0.00024277737314882253
s(S'in'
p2176
S'[[num]]'
p2177
S'games'
p2178
tp2179
F0.0012138868657441126
s(S'has'
p2180
S'played'
p2181
g615
tp2182
F0.00024277737314882253
s(S'was'
p2183
S'[[adj]]'
p2184
S'head'
p2185
tp2186
F0.00024277737314882253
s(S'[[det]]'
p2187
S'player'
p2188
S'with'
p2189
tp2190
F0.00024277737314882253
s(S'[[adj]]'
p2191
g1930
g1931
tp2192
F0.0007283321194464676
s(S'hockey'
p2193
g1757
g1758
tp2194
F0.002670551104637048
s(S'[[mod]]'
p2195
S'sign'
p2196
S'for'
p2197
tp2198
F0.00024277737314882253
s(S'to'
p2199
S'head'
p2200
S'[[det]]'
p2201
tp2202
F0.00024277737314882253
s(S'[[det]]'
p2203
S'football'
p2204
S'linebacker'
p2205
tp2206
F0.00024277737314882253
s(S'[[con]]'
p2207
S'won'
p2208
S'for'
p2209
tp2210
F0.00024277737314882253
s(g443
g444
S'as'
p2211
tp2212
F0.00024277737314882253
s(S'has'
p2213
S'featured'
p2214
S'for'
p2215
tp2216
F0.00024277737314882253
s(S'[[adj]]'
p2217
S'games'
p2218
S'[[num]]'
p2219
tp2220
F0.00024277737314882253
s(g353
g354
S'playing'
p2221
tp2222
F0.00024277737314882253
s(S'to'
p2223
S'sign'
p2224
S'[[pro]]'
p2225
tp2226
F0.00024277737314882253
s(S'goaltender'
p2227
S'currently'
p2228
S'playing'
p2229
tp2230
F0.00048555474629764507
s(S'player'
p2231
S'[[adj]]'
p2232
S'pick'
p2233
tp2234
F0.00024277737314882253
s(S'became'
p2235
S'leader'
p2236
S'of'
p2237
tp2238
F0.00024277737314882253
s(g338
g233
S'basketball'
p2239
tp2240
F0.0021849963583394027
s(S'then'
p2241
S'joined'
p2242
S'[[num]]'
p2243
tp2244
F0.00024277737314882253
s(S'was'
p2245
S'[[adj]]'
p2246
S'ice'
p2247
tp2248
F0.00024277737314882253
s(S'also'
p2249
S'taken'
p2250
S'part'
p2251
tp2252
F0.00024277737314882253
s(S'was'
p2253
S'called'
p2254
S'for'
p2255
tp2256
F0.00024277737314882253
s(S'draft'
p2257
S'[[con]]'
p2258
S'was'
p2259
tp2260
F0.00024277737314882253
s(S'[[prp]]'
p2261
S'career'
p2262
S'[[con]]'
p2263
tp2264
F0.00024277737314882253
s(g1373
g1374
S'at'
p2265
tp2266
F0.00048555474629764507
s(S'while'
p2267
S'played'
p2268
S'for'
p2269
tp2270
F0.00024277737314882253
s(S'college'
p2271
S'basketball'
p2272
g1448
tp2273
F0.00024277737314882253
s(S'in'
p2274
g125
g126
tp2275
F0.0007283321194464676
s(S'[[num]]'
p2276
S'seasons'
p2277
S'of'
p2278
tp2279
F0.00024277737314882253
s(S'[[det]]'
p2280
S'member'
p2281
S'which'
p2282
tp2283
F0.00024277737314882253
s(S'by'
p2284
S'[[det]]'
p2285
S'round'
p2286
tp2287
F0.00024277737314882253
s(S'football'
p2288
g1189
g1190
tp2289
F0.00048555474629764507
s(S'grew'
p2290
S'up'
p2291
S'[[con]]'
p2292
tp2293
F0.00024277737314882253
s(S'men'
p2294
g233
S'head'
p2295
tp2296
F0.00024277737314882253
s(g1203
S'coach'
p2297
S'in'
p2298
tp2299
F0.00024277737314882253
s(S'[[num]]'
p2300
S'contract'
p2301
S'with'
p2302
tp2303
F0.00024277737314882253
s(S'have'
p2304
S'won'
p2305
S'championships'
p2306
tp2307
F0.00024277737314882253
s(g1700
g1701
S'player'
p2308
tp2309
F0.0012138868657441126
s(S'also'
p2310
S'picked'
p2311
S'by'
p2312
tp2313
F0.00024277737314882253
s(S'was'
p2314
S'drafted'
p2315
g2274
tp2316
F0.0009711094925952901
s(S'football'
p2317
S'coach'
p2318
S'in'
p2319
tp2320
F0.00024277737314882253
s(S'was'
p2321
S'chosen'
p2322
S'for'
p2323
tp2324
F0.00024277737314882253
s(S'later'
p2325
S'played'
p2326
S'[[con]]'
p2327
tp2328
F0.00024277737314882253
s(S'[[adj]]'
p2329
S'coach'
p2330
S'with'
p2331
tp2332
F0.00024277737314882253
s(S'[[con]]'
p2333
S'won'
p2334
S'[[prp]]'
p2335
tp2336
F0.00024277737314882253
s(S'[[con]]'
p2337
S'led'
p2338
S'to'
p2339
tp2340
F0.00024277737314882253
s(S'was'
p2341
S'signed'
p2342
S'for'
p2343
tp2344
F0.00024277737314882253
s(S'ever'
p2345
S'play'
p2346
S'in'
p2347
tp2348
F0.00024277737314882253
s(S'was'
p2349
S'coach'
p2350
S'for'
p2351
tp2352
F0.00024277737314882253
s(S'[[adj]]'
p2353
S'player'
p2354
S'at'
p2355
tp2356
F0.00024277737314882253
s(g791
g792
S'of'
p2357
tp2358
F0.0029133284777858705
s(S'had'
p2359
S'won'
p2360
S'[[num]]'
p2361
tp2362
F0.00024277737314882253
s(S'also'
p2363
S'selected'
p2364
S'[[det]]'
p2365
tp2366
F0.00024277737314882253
s(S'[[prp]]'
p2367
S'college'
p2368
S'basketball'
p2369
tp2370
F0.00024277737314882253
s(S'draft'
p2371
S'pick'
p2372
S'to'
p2373
tp2374
F0.0007283321194464676
s(S'born'
p2375
S'played'
p2376
S'for'
p2377
tp2378
F0.00024277737314882253
s(S'[[adj]]'
p2379
g2371
g2372
tp2380
F0.0009711094925952901
s(S'[[num]]'
p2381
S'game'
p2382
S'[[det]]'
p2383
tp2384
F0.00024277737314882253
s(g2128
g1344
g1345
tp2385
F0.0007283321194464676
s(S'[[adj]]'
p2386
S'head'
p2387
S'of'
p2388
tp2389
F0.00024277737314882253
s(S'formerly'
p2390
S'played'
p2391
S'as'
p2392
tp2393
F0.00024277737314882253
s(S'college'
p2394
g386
g387
tp2395
F0.0007283321194464676
s(S'later'
p2396
S'played'
p2397
S'with'
p2398
tp2399
F0.00024277737314882253
s(S'hockey'
p2400
S'[[con]]'
p2401
S'was'
p2402
tp2403
F0.00024277737314882253
s(S'played'
p2404
g1372
g1373
tp2405
F0.00048555474629764507
s(g387
g388
S'tackle'
p2406
tp2407
F0.00024277737314882253
s(S'goalkeeper'
p2408
S'currently'
p2409
S'playing'
p2410
tp2411
F0.00024277737314882253
s(S'become'
p2412
S'head'
p2413
S'at'
p2414
tp2415
F0.00024277737314882253
s(S'has'
p2416
S'taken'
p2417
S'over'
p2418
tp2419
F0.00024277737314882253
s(S'[[adj]]'
p2420
g1727
g281
tp2421
F0.00024277737314882253
s(S'[[con]]'
p2422
S'signed'
p2423
S'for'
p2424
tp2425
F0.00024277737314882253
s(S'won'
p2426
S'[[num]]'
p2427
S'[[adj]]'
p2428
tp2429
F0.00024277737314882253
s(S'[[num]]'
p2430
S'led'
p2431
S'[[det]]'
p2432
tp2433
F0.00024277737314882253
s(S'[[det]]'
p2434
S'time'
p2435
S'was'
p2436
tp2437
F0.00024277737314882253
s(g906
S'playing'
p2438
S'in'
p2439
tp2440
F0.00048555474629764507
s(S'just'
p2441
S'left'
p2442
S'for'
p2443
tp2444
F0.00024277737314882253
s(S'[[det]]'
p2445
S'coach'
p2446
S'in'
p2447
tp2448
F0.00024277737314882253
s(S'[[pro]]'
p2449
S'joined'
p2450
S'[[det]]'
p2451
tp2452
F0.00024277737314882253
s(S'[[adj]]'
p2453
S'coach'
p2454
S'of'
p2455
tp2456
F0.00024277737314882253
s(S'also'
p2457
S'play'
p2458
S'professionally'
p2459
tp2460
F0.00048555474629764507
s(S'be'
p2461
S'called'
p2462
S'[[det]]'
p2463
tp2464
F0.00024277737314882253
s(S'was'
p2465
S'recalled'
p2466
S'from'
p2467
tp2468
F0.00024277737314882253
s(S'was'
p2469
S'chosen'
p2470
S'[[con]]'
p2471
tp2472
F0.00024277737314882253
s(S'[[adj]]'
p2473
S'men'
p2474
g233
tp2475
F0.0007283321194464676
s(S'ice'
p2476
S'hockey'
p2477
S'player'
p2478
tp2479
F0.0038844379703811605
s(S'also'
p2480
S'spent'
p2481
S'[[num]]'
p2482
tp2483
F0.0016994416120417577
s(S'[[det]]'
p2484
S'matter'
p2485
S'to'
p2486
tp2487
F0.00024277737314882253
s(g1381
g1382
S'of'
p2488
tp2489
F0.0007283321194464676
s(S'played'
p2490
g1639
g1640
tp2491
F0.00024277737314882253
s(S'born'
p2492
S'[[num]]'
p2493
S'[[det]]'
p2494
tp2495
F0.005098324836125273
s(S'played'
p2496
S'[[adj]]'
p2497
S'wing'
p2498
tp2499
F0.00024277737314882253
s(S'played'
p2500
S'[[det]]'
p2501
S'power'
p2502
tp2503
F0.00024277737314882253
s(S'football'
p2504
S'currently'
p2505
S'plays'
p2506
tp2507
F0.00024277737314882253
s(S'had'
p2508
S'spent'
p2509
S'[[det]]'
p2510
tp2511
F0.00024277737314882253
s(S'years'
p2512
S'playing'
p2513
S'for'
p2514
tp2515
F0.0012138868657441126
s(S'later'
p2516
S'represented'
p2517
S'in'
p2518
tp2519
F0.00024277737314882253
s(g2081
g1493
g1494
tp2520
F0.0014566642388929353
s(S'was'
p2521
S'joined'
p2522
S'on'
p2523
tp2524
F0.00024277737314882253
s(S'[[num]]'
p2525
S'won'
p2526
S'[[num]]'
p2527
tp2528
F0.00024277737314882253
s(S'was'
p2529
S'chosen'
p2530
S'by'
p2531
tp2532
F0.00024277737314882253
s(S'now'
p2533
S'called'
p2534
S'in'
p2535
tp2536
F0.00024277737314882253
s(g361
g362
g1996
tp2537
F0.00024277737314882253
s(S'hockey'
p2538
S'[[adj]]'
p2539
S'winger'
p2540
tp2541
F0.0007283321194464676
s(S'began'
p2542
S'to'
p2543
S'playing'
p2544
tp2545
F0.00024277737314882253
s(S'has'
p2546
S'won'
p2547
S'[[con]]'
p2548
tp2549
F0.00024277737314882253
s(g526
g527
S'played'
p2550
tp2551
F0.00024277737314882253
s(S'put'
p2552
S'forward'
p2553
S'by'
p2554
tp2555
F0.00024277737314882253
s(S'who'
p2556
S'played'
p2557
S'center'
p2558
tp2559
F0.00024277737314882253
s(S'to'
p2560
S'sign'
p2561
S'[[det]]'
p2562
tp2563
F0.00024277737314882253
s(S'seasons'
p2564
S'[[num]]'
p2565
S'playing'
p2566
tp2567
F0.00048555474629764507
s(S'played'
p2568
S'[[adj]]'
p2569
S'school'
p2570
tp2571
F0.0009711094925952901
s(S'has'
p2572
S'returned'
p2573
S'to'
p2574
tp2575
F0.00024277737314882253
s(S'[[det]]'
p2576
S'tenth'
p2577
S'head'
p2578
tp2579
F0.00024277737314882253
s(S'originally'
p2580
S'drafted'
p2581
S'from'
p2582
tp2583
F0.00024277737314882253
s(S'[[prp]]'
p2584
S'position'
p2585
S'as'
p2586
tp2587
F0.00024277737314882253
s(S'by'
p2588
S'[[det]]'
p2589
S'pick'
p2590
tp2591
F0.00048555474629764507
s(S'never'
p2592
S'played'
p2593
S'[[det]]'
p2594
tp2595
F0.0009711094925952901
s(S'has'
p2596
S'led'
p2597
S'[[det]]'
p2598
tp2599
F0.00024277737314882253
s(S'in'
p2600
S'[[adj]]'
p2601
S'football'
p2602
tp2603
F0.00024277737314882253
s(S'played'
p2604
S'[[num]]'
p2605
S'seasons'
p2606
tp2607
F0.008011653313911144
s(S'[[det]]'
p2608
S'coach'
p2609
S'for'
p2610
tp2611
F0.00024277737314882253
s(S'[[pro]]'
p2612
S'won'
p2613
S'[[det]]'
p2614
tp2615
F0.00024277737314882253
s(S'[[adj]]'
p2616
S'team'
p2617
S'with'
p2618
tp2619
F0.00024277737314882253
s(g2543
g2544
S'against'
p2620
tp2621
F0.00024277737314882253
s(S'appearing'
p2622
g790
g791
tp2623
F0.00024277737314882253
s(S'also'
p2624
S'play'
p2625
S'[[det]]'
p2626
tp2627
F0.00024277737314882253
s(S'who'
p2628
S'[[adj]]'
p2629
S'played'
p2630
tp2631
F0.00024277737314882253
s(S'winger'
p2632
S'currently'
p2633
S'playing'
p2634
tp2635
F0.0007283321194464676
s(S'[[con]]'
p2636
S'claimed'
p2637
S'by'
p2638
tp2639
F0.00024277737314882253
s(S'was'
p2640
S'signed'
p2641
S'with'
p2642
tp2643
F0.00024277737314882253
s(S'[[num]]'
p2644
S'[[det]]'
p2645
S'member'
p2646
tp2647
F0.00048555474629764507
s(S'[[num]]'
p2648
S'games'
p2649
S'with'
p2650
tp2651
F0.002670551104637048
s(S'where'
p2652
S'signed'
p2653
S'for'
p2654
tp2655
F0.00024277737314882253
s(g1136
g1137
S'by'
p2656
tp2657
F0.00024277737314882253
s(S'has'
p2658
g928
g929
tp2659
F0.00024277737314882253
s(S'also'
p2660
S'played'
p2661
S'once'
p2662
tp2663
F0.00024277737314882253
s(S'years'
p2664
S'playing'
p2665
S'in'
p2666
tp2667
F0.0007283321194464676
s(S'[[adj]]'
p2668
S'head'
p2669
S'at'
p2670
tp2671
F0.00024277737314882253
s(S'drafted'
p2672
S'[[con]]'
p2673
S'also'
p2674
tp2675
F0.00048555474629764507
s(S'[[adj]]'
p2676
S'signed'
p2677
S'by'
p2678
tp2679
F0.00024277737314882253
s(S'is'
p2680
S'head'
p2681
S'[[det]]'
p2682
tp2683
F0.00024277737314882253
s(S'when'
p2684
S'won'
p2685
S'[[prp]]'
p2686
tp2687
F0.00024277737314882253
s(S'later'
p2688
S'left'
p2689
S'[[det]]'
p2690
tp2691
F0.00024277737314882253
s(S'[[prp]]'
p2692
S'debut'
p2693
S'[[num]]'
p2694
tp2695
F0.00024277737314882253
s(S'[[con]]'
p2696
S'was'
p2697
S'selected'
p2698
tp2699
F0.0016994416120417577
s(S'head'
p2700
S'college'
p2701
S'football'
p2702
tp2703
F0.0012138868657441126
s(S'[[num]]'
p2704
S'pick'
p2705
S'by'
p2706
tp2707
F0.00024277737314882253
s(S'[[con]]'
p2708
S'member'
p2709
S'of'
p2710
tp2711
F0.00024277737314882253
s(S'[[adj]]'
p2712
S'member'
p2713
S'for'
p2714
tp2715
F0.00024277737314882253
s(S'[[num]]'
p2716
S'died'
p2717
S'[[num]]'
p2718
tp2719
F0.00024277737314882253
s(S'has'
p2720
S'won'
p2721
S'in'
p2722
tp2723
F0.00024277737314882253
s(g175
g1637
S'who'
p2724
tp2725
F0.002670551104637048
s(S'football'
p2726
g69
g70
tp2727
F0.00024277737314882253
s(S'born'
p2728
S'is'
p2729
S'[[adj]]'
p2730
tp2731
F0.015537751881524642
s(S'that'
p2732
S'won'
p2733
S'[[det]]'
p2734
tp2735
F0.00024277737314882253
s(S'[[adj]]'
p2736
S'team'
p2737
S'against'
p2738
tp2739
F0.00024277737314882253
s(S'was'
p2740
g2057
g2058
tp2741
F0.00024277737314882253
s(S'[[prp]]'
p2742
S'time'
p2743
S'as'
p2744
tp2745
F0.00024277737314882253
s(S'also'
p2746
S'featured'
p2747
S'for'
p2748
tp2749
F0.00024277737314882253
s(S'that'
p2750
S'won'
p2751
S'at'
p2752
tp2753
F0.00024277737314882253
s(S'[[prp]]'
p2754
S'career'
p2755
S'where'
p2756
tp2757
F0.00024277737314882253
s(g2602
S'games'
p2758
S'with'
p2759
tp2760
F0.00024277737314882253
s(S'was'
p2761
S'called'
p2762
S'in'
p2763
tp2764
F0.00024277737314882253
s(S'who'
p2765
S'won'
p2766
S'with'
p2767
tp2768
F0.00024277737314882253
s(S'was'
p2769
S'member'
p2770
S'[[con]]'
p2771
tp2772
F0.00024277737314882253
s(S'previously'
p2773
S'played'
p2774
S'as'
p2775
tp2776
F0.00024277737314882253
s(S'which'
p2777
S'played'
p2778
S'[[con]]'
p2779
tp2780
F0.00024277737314882253
s(S'signed'
p2781
g2109
g2110
tp2782
F0.00024277737314882253
s(S'had'
p2783
S'previously'
p2784
S'served'
p2785
tp2786
F0.0007283321194464676
s(S'signed'
p2787
g1193
g1194
tp2788
F0.0021849963583394027
s(S'while'
p2789
S'won'
p2790
S'[[det]]'
p2791
tp2792
F0.00024277737314882253
s(S'again'
p2793
S'represented'
p2794
S'[[det]]'
p2795
tp2796
F0.00024277737314882253
s(S'[[con]]'
p2797
S'played'
p2798
S'on'
p2799
tp2800
F0.00024277737314882253
s(S'[[det]]'
p2801
g2504
g2505
tp2802
F0.00048555474629764507
s(S'also'
p2803
S'drafted'
p2804
g2284
tp2805
F0.00024277737314882253
s(S'[[num]]'
p2806
g2150
g2151
tp2807
F0.0014566642388929353
s(S'also'
p2808
S'represented'
p2809
S'while'
p2810
tp2811
F0.00024277737314882253
s(S'[[det]]'
p2812
S'head'
p2813
S'in'
p2814
tp2815
F0.00024277737314882253
s(S'[[con]]'
p2816
S'represented'
p2817
S'[[det]]'
p2818
tp2819
F0.00024277737314882253
s(S'[[det]]'
p2820
S'playing'
p2821
S'for'
p2822
tp2823
F0.00024277737314882253
s(S'to'
p2824
S'coach'
p2825
S'in'
p2826
tp2827
F0.00024277737314882253
s(S'was'
p2828
S'drafted'
p2829
S'[[adj]]'
p2830
tp2831
F0.0016994416120417577
s(S'played'
p2832
S'college'
p2833
S'[[con]]'
p2834
tp2835
F0.00024277737314882253
s(S'then'
p2836
S'led'
p2837
S'[[det]]'
p2838
tp2839
F0.00024277737314882253
s(S'[[det]]'
p2840
S'player'
p2841
S'at'
p2842
tp2843
F0.00024277737314882253
s(g1904
S'points'
p2844
S'for'
p2845
tp2846
F0.00024277737314882253
s(S'head'
p2847
S'coach'
p2848
S'for'
p2849
tp2850
F0.0016994416120417577
s(S'to'
p2851
S'play'
p2852
S'during'
p2853
tp2854
F0.00024277737314882253
s(S'played'
p2855
S'on'
p2856
S'loan'
p2857
tp2858
F0.00024277737314882253
s(S'[[det]]'
p2859
S'[[num]]'
p2860
S'games'
p2861
tp2862
F0.00024277737314882253
s(S'notably'
p2863
S'played'
p2864
S'in'
p2865
tp2866
F0.00024277737314882253
s(S'named'
p2867
S'[[det]]'
p2868
S'head'
p2869
tp2870
F0.0012138868657441126
s(g2570
S'football'
p2871
S'for'
p2872
tp2873
F0.00024277737314882253
s(S'[[det]]'
p2874
S'member'
p2875
S'[[num]]'
p2876
tp2877
F0.00024277737314882253
s(S'[[con]]'
p2878
S'played'
p2879
S'professionally'
p2880
tp2881
F0.0012138868657441126
s(S'to'
p2882
S'play'
p2883
S'against'
p2884
tp2885
F0.00024277737314882253
s(g893
g894
S'playing'
p2886
tp2887
F0.0019422189851905803
s(g233
g2295
S'coach'
p2888
tp2889
F0.00024277737314882253
s(S'draft'
p2890
S'choice'
p2891
S'of'
p2892
tp2893
F0.00024277737314882253
s(S'was'
p2894
S'named'
p2895
S'[[con]]'
p2896
tp2897
F0.00024277737314882253
s(S'as'
p2898
S'member'
p2899
S'of'
p2900
tp2901
F0.00024277737314882253
s(S'played'
p2902
g225
g226
tp2903
F0.0009711094925952901
s(S'who'
p2904
S'[[adj]]'
p2905
S'tackle'
p2906
tp2907
F0.00024277737314882253
s(S'was'
p2908
S'suspended'
p2909
S'from'
p2910
tp2911
F0.00024277737314882253
s(g523
g293
g294
tp2912
F0.00024277737314882253
s(S'football'
p2913
g2696
g2697
tp2914
F0.0009711094925952901
s(S'not'
p2915
S'selected'
p2916
S'against'
p2917
tp2918
F0.00024277737314882253
s(S'was'
p2919
g2375
g2376
tp2920
F0.00024277737314882253
s(S'[[adj]]'
p2921
g277
g278
tp2922
F0.0012138868657441126
s(S'[[adj]]'
p2923
S'coach'
p2924
S'[[num]]'
p2925
tp2926
F0.00024277737314882253
s(S'[[adj]]'
p2927
S'rules'
p2928
S'football'
p2929
tp2930
F0.0014566642388929353
s(S'[[adj]]'
p2931
S'player'
p2932
S'on'
p2933
tp2934
F0.00024277737314882253
s(g1182
g1183
S'playing'
p2935
tp2936
F0.00024277737314882253
s(S'football'
p2937
S'thereafter'
p2938
S'played'
p2939
tp2940
F0.00024277737314882253
s(S'football'
p2941
S'goalkeeper'
p2942
S'who'
p2943
tp2944
F0.00024277737314882253
s(S'[[con]]'
p2945
S'spent'
p2946
S'[[adj]]'
p2947
tp2948
F0.00024277737314882253
s(S'[[adj]]'
p2949
S'team'
p2950
S'for'
p2951
tp2952
F0.00024277737314882253
s(S'also'
p2953
S'spent'
p2954
S'part'
p2955
tp2956
F0.00024277737314882253
s(S'currently'
p2957
S'plays'
p2958
S'with'
p2959
tp2960
F0.00024277737314882253
s(g1688
g1689
S'who'
p2961
tp2962
F0.0007283321194464676
s(S'has'
p2963
S'additionally'
p2964
S'played'
p2965
tp2966
F0.00048555474629764507
s(S'[[adj]]'
p2967
S'contract'
p2968
S'at'
p2969
tp2970
F0.00048555474629764507
s(S'[[con]]'
p2971
S'played'
p2972
S'in'
p2973
tp2974
F0.0012138868657441126
s(S'[[con]]'
p2975
g993
g994
tp2976
F0.00024277737314882253
s(S'basketball'
p2977
g2231
g2232
tp2978
F0.00024277737314882253
s(S'[[adj]]'
p2979
S'playing'
p2980
S'with'
p2981
tp2982
F0.00024277737314882253
s(S'was'
p2983
S'picked'
p2984
S'by'
p2985
tp2986
F0.00024277737314882253
s(S'also'
p2987
S'won'
p2988
S'with'
p2989
tp2990
F0.00024277737314882253
s(S'before'
p2991
S'playing'
p2992
S'for'
p2993
tp2994
F0.00024277737314882253
s(S'had'
p2995
S'played'
p2996
S'at'
p2997
tp2998
F0.00024277737314882253
s(S'then'
p2999
S'played'
p3000
S'at'
p3001
tp3002
F0.00024277737314882253
s(S'has'
p3003
S'played'
p3004
S'[[adj]]'
p3005
tp3006
F0.00024277737314882253
s(S'[[adj]]'
p3007
g308
g309
tp3008
F0.0031561058509346927
s(S'formerly'
p3009
S'played'
p3010
S'at'
p3011
tp3012
F0.00024277737314882253
s(S'[[adj]]'
p3013
S'stints'
p3014
S'at'
p3015
tp3016
F0.00024277737314882253
s(S'spent'
p3017
S'almost'
p3018
S'[[num]]'
p3019
tp3020
F0.00024277737314882253
s(S'be'
p3021
S'signed'
p3022
S'by'
p3023
tp3024
F0.00024277737314882253
s(S'midfielder'
p3025
S'currently'
p3026
S'playing'
p3027
tp3028
F0.00024277737314882253
s(S'[[adj]]'
p3029
S'stint'
p3030
S'with'
p3031
tp3032
F0.00024277737314882253
s(S'have'
p3033
S'played'
p3034
S'in'
p3035
tp3036
F0.00024277737314882253
s(S'in'
p3037
S'of'
p3038
S'games'
p3039
tp3040
F0.00024277737314882253
s(S'hockey'
p3041
S'player'
p3042
S'for'
p3043
tp3044
F0.00048555474629764507
s(g1365
g1366
S'to'
p3045
tp3046
F0.00024277737314882253
s(S'[[adj]]'
p3047
S'coach'
p3048
S'at'
p3049
tp3050
F0.0007283321194464676
s(S'played'
p3051
S'professionally'
p3052
S'with'
p3053
tp3054
F0.00048555474629764507
s(S'ice'
p3055
S'hockey'
p3056
S'with'
p3057
tp3058
F0.00024277737314882253
s(S'coach'
p3059
S'[[con]]'
p3060
S'ndash'
p3061
tp3062
F0.0007283321194464676
s(S'has'
p3063
S'represented'
p3064
S'[[det]]'
p3065
tp3066
F0.00024277737314882253
s(S'[[con]]'
p3067
S'resigned'
p3068
S'from'
p3069
tp3070
F0.00024277737314882253
s(S'also'
p3071
S'won'
p3072
S'at'
p3073
tp3074
F0.00024277737314882253
s(g1907
g1908
S'football'
p3075
tp3076
F0.0007283321194464676
s(S'be'
p3077
S'selected'
p3078
S'to'
p3079
tp3080
F0.00024277737314882253
s(S'was'
p3081
S'signed'
p3082
S'from'
p3083
tp3084
F0.00024277737314882253
s(S'was'
p3085
S'featured'
p3086
S'on'
p3087
tp3088
F0.00024277737314882253
s(S'hockey'
p3089
S'player'
p3090
S'[[con]]'
p3091
tp3092
F0.00024277737314882253
s(S'when'
p3093
g619
g620
tp3094
F0.00024277737314882253
s(S'then'
p3095
S'joined'
p3096
S'on'
p3097
tp3098
F0.00024277737314882253
s(g2315
g2274
g125
tp3099
F0.0007283321194464676
s(S'spent'
p3100
S'[[prp]]'
p3101
S'[[num]]'
p3102
tp3103
F0.00048555474629764507
s(S'football'
p3104
S'coach'
p3105
S'at'
p3106
tp3107
F0.0031561058509346927
s(S'was'
p3108
S'selected'
p3109
S'at'
p3110
tp3111
F0.00024277737314882253
s(g2510
S'majority'
p3112
S'with'
p3113
tp3114
F0.0007283321194464676
s(S'[[adj]]'
p3115
S'football'
p3116
S'linebacker'
p3117
tp3118
F0.00048555474629764507
s(S'was'
p3119
S'called'
p3120
S'with'
p3121
tp3122
F0.00024277737314882253
s(S'was'
p3123
S'playing'
p3124
S'on'
p3125
tp3126
F0.00024277737314882253
s(S'[[con]]'
p3127
S'won'
p3128
S'at'
p3129
tp3130
F0.00024277737314882253
s(S'[[num]]'
p3131
S'games'
p3132
S'at'
p3133
tp3134
F0.00024277737314882253
s(S'[[con]]'
p3135
S'[[det]]'
p3136
S'men'
p3137
tp3138
F0.00024277737314882253
s(S'basketball'
p3139
g3135
g3136
tp3140
F0.00024277737314882253
s(S'[[adj]]'
p3141
S'game'
p3142
S'in'
p3143
tp3144
F0.00024277737314882253
s(S'again'
p3145
S'won'
p3146
S'[[det]]'
p3147
tp3148
F0.00024277737314882253
s(S'[[adj]]'
p3149
S'member'
p3150
S'in'
p3151
tp3152
F0.00024277737314882253
s(S'reentered'
p3153
S'[[det]]'
p3154
g2257
tp3155
F0.00024277737314882253
s(S'already'
p3156
S'won'
p3157
S'[[det]]'
p3158
tp3159
F0.00024277737314882253
s(S'has'
p3160
S'won'
p3161
S'[[adj]]'
p3162
tp3163
F0.00024277737314882253
s(S'also'
p3164
S'member'
p3165
S'of'
p3166
tp3167
F0.00024277737314882253
s(S'[[num]]'
p3168
S'[[det]]'
p3169
S'soccer'
p3170
tp3171
F0.00024277737314882253
s(S'who'
p3172
S'joined'
p3173
S'[[det]]'
p3174
tp3175
F0.00024277737314882253
s(g2368
g2369
S'at'
p3176
tp3177
F0.0009711094925952901
s(S'football'
p3178
g2878
g2879
tp3179
F0.0016994416120417577
s(S'[[det]]'
p3180
S'ice'
p3181
S'hockey'
p3182
tp3183
F0.0009711094925952901
s(S'[[num]]'
p3184
S'championships'
p3185
S'[[num]]'
p3186
tp3187
F0.00048555474629764507
s(S'[[num]]'
p3188
S'seasons'
p3189
S'[[con]]'
p3190
tp3191
F0.0012138868657441126
s(S'[[det]]'
p3192
S'[[adj]]'
p3193
S'head'
p3194
tp3195
F0.0007283321194464676
s(S'[[con]]'
p3196
S'member'
p3197
S'[[det]]'
p3198
tp3199
F0.00024277737314882253
s(S'as'
p3200
S'led'
p3201
S'[[det]]'
p3202
tp3203
F0.00024277737314882253
s(g1441
g1442
g2512
tp3204
F0.0016994416120417577
s(S'to'
p3205
S'play'
p3206
S'as'
p3207
tp3208
F0.00024277737314882253
s(S'teams'
p3209
S'[[num]]'
p3210
S'head'
p3211
tp3212
F0.00024277737314882253
s(S'has'
p3213
S'left'
p3214
S'[[con]]'
p3215
tp3216
F0.00024277737314882253
s(g1158
g1159
S'back'
p3217
tp3218
F0.00024277737314882253
s(S'has'
p3219
S'taken'
p3220
S'[[con]]'
p3221
tp3222
F0.00024277737314882253
s(S'soon'
p3223
S'left'
p3224
S'[[det]]'
p3225
tp3226
F0.00024277737314882253
s(g2493
g2494
S'association'
p3227
tp3228
F0.0007283321194464676
s(S'have'
p3229
S'won'
p3230
S'[[det]]'
p3231
tp3232
F0.00024277737314882253
s(S'where'
p3233
S'won'
p3234
S'[[con]]'
p3235
tp3236
F0.00024277737314882253
s(S'college'
p3237
g1855
g1856
tp3238
F0.00024277737314882253
s(S'later'
p3239
S'returned'
p3240
S'to'
p3241
tp3242
F0.00024277737314882253
s(S'[[adj]]'
p3243
S'joined'
p3244
S'[[det]]'
p3245
tp3246
F0.00024277737314882253
s(S'[[con]]'
p3247
S'member'
p3248
S'[[con]]'
p3249
tp3250
F0.00024277737314882253
s(S'[[adj]]'
p3251
S'career'
p3252
S'for'
p3253
tp3254
F0.00024277737314882253
s(S'[[num]]'
p3255
g2664
g2665
tp3256
F0.0016994416120417577
s(S'currently'
p3257
S'playing'
p3258
S'with'
p3259
tp3260
F0.00048555474629764507
s(S'[[num]]'
p3261
S'points'
p3262
S'as'
p3263
tp3264
F0.00024277737314882253
s(S'[[num]]'
p3265
S'seasons'
p3266
S'for'
p3267
tp3268
F0.002670551104637048
s(S'[[con]]'
p3269
g1539
g1540
tp3270
F0.00024277737314882253
s(S'had'
p3271
S'signed'
p3272
S'[[det]]'
p3273
tp3274
F0.00048555474629764507
s(S'football'
p3275
g189
g190
tp3276
F0.00024277737314882253
s(S'seasons'
p3277
S'[[num]]'
p3278
g2622
tp3279
F0.00024277737314882253
s(S'[[adj]]'
p3280
S'member'
p3281
S'[[con]]'
p3282
tp3283
F0.00024277737314882253
s(S'[[adj]]'
p3284
S'played'
p3285
S'on'
p3286
tp3287
F0.00024277737314882253
s(S'[[det]]'
p3288
S'contract'
p3289
S'at'
p3290
tp3291
F0.00024277737314882253
s(S'[[con]]'
p3292
S'later'
p3293
S'played'
p3294
tp3295
F0.00048555474629764507
s(S'played'
p3296
S'[[det]]'
p3297
S'member'
p3298
tp3299
F0.00024277737314882253
s(S'[[num]]'
p3300
S'[[adj]]'
p3301
S'women'
p3302
tp3303
F0.00024277737314882253
s(S'[[num]]'
p3304
S'points'
p3305
S'[[con]]'
p3306
tp3307
F0.00024277737314882253
s(S'has'
p3308
S'played'
p3309
S'[[con]]'
p3310
tp3311
F0.00024277737314882253
s(S'signed'
p3312
S'[[det]]'
p3313
g2300
tp3314
F0.00024277737314882253
s(g2729
g2730
S'ice'
p3315
tp3316
F0.006797766448167031
s(S'played'
p3317
S'[[adj]]'
p3318
g3055
tp3319
F0.00024277737314882253
s(S'[[num]]'
p3320
S'football'
p3321
S'player'
p3322
tp3323
F0.00024277737314882253
s(S'[[num]]'
p3324
S'[[adj]]'
p3325
S'game'
p3326
tp3327
F0.00024277737314882253
s(S'[[con]]'
p3328
S'played'
p3329
S'twice'
p3330
tp3331
F0.00024277737314882253
s(S'later'
p3332
S'won'
p3333
S'for'
p3334
tp3335
F0.00024277737314882253
s(S'basketball'
p3336
S'[[con]]'
p3337
S'was'
p3338
tp3339
F0.00048555474629764507
s(S'player'
p3340
g1845
g1846
tp3341
F0.0007283321194464676
s(S'also'
p3342
S'played'
p3343
S'in'
p3344
tp3345
F0.0007283321194464676
s(S'then'
p3346
S'coach'
p3347
S'of'
p3348
tp3349
F0.00024277737314882253
s(g3091
S'coach'
p3350
S'who'
p3351
tp3352
F0.00024277737314882253
s(S'currently'
p3353
S'plays'
p3354
S'in'
p3355
tp3356
F0.00024277737314882253
s(S'football'
p3357
S'player'
p3358
S'currently'
p3359
tp3360
F0.0012138868657441126
s(S'[[adj]]'
p3361
S'career'
p3362
S'in'
p3363
tp3364
F0.00024277737314882253
s(S'seasons'
p3365
S'[[num]]'
p3366
S'[[det]]'
p3367
tp3368
F0.00024277737314882253
s(S'seasons'
p3369
g1861
g1862
tp3370
F0.00024277737314882253
s(S'by'
p3371
S'playing'
p3372
S'for'
p3373
tp3374
F0.00024277737314882253
s(S'be'
p3375
S'returned'
p3376
S'to'
p3377
tp3378
F0.00024277737314882253
s(S'head'
p3379
S'football'
p3380
S'[[con]]'
p3381
tp3382
F0.00024277737314882253
s(S'[[num]]'
p3383
S'represented'
p3384
S'in'
p3385
tp3386
F0.00024277737314882253
s(S'[[det]]'
p3387
S'head'
p3388
S'[[det]]'
p3389
tp3390
F0.00024277737314882253
s(S'was'
p3391
S'chosen'
p3392
S'[[det]]'
p3393
tp3394
F0.00024277737314882253
s(S'formerly'
p3395
S'played'
p3396
S'[[num]]'
p3397
tp3398
F0.00024277737314882253
s(S'again'
p3399
S'joined'
p3400
S'[[det]]'
p3401
tp3402
F0.00024277737314882253
s(S'later'
p3403
S'play'
p3404
S'with'
p3405
tp3406
F0.00024277737314882253
s(S'previously'
p3407
S'played'
p3408
S'[[num]]'
p3409
tp3410
F0.00048555474629764507
s(g3301
g3302
g1404
tp3411
F0.00024277737314882253
s(S'play'
p3412
S'professionally'
p3413
S'for'
p3414
tp3415
F0.00024277737314882253
s(S'later'
p3416
S'signed'
p3417
S'to'
p3418
tp3419
F0.00024277737314882253
s(S'was'
p3420
g1255
g1256
tp3421
F0.00048555474629764507
s(S'has'
p3422
S'won'
p3423
S'twice'
p3424
tp3425
F0.00024277737314882253
s(S'played'
p3426
S'most'
p3427
S'notably'
p3428
tp3429
F0.00024277737314882253
s(g333
g334
S'played'
p3430
tp3431
F0.00024277737314882253
s(S'born'
p3432
g3320
g3321
tp3433
F0.00024277737314882253
s(S'football'
p3434
S'player'
p3435
S'with'
p3436
tp3437
F0.00024277737314882253
s(S'[[adj]]'
p3438
g2700
g2701
tp3439
F0.0009711094925952901
s(S'become'
p3440
S'leader'
p3441
S'of'
p3442
tp3443
F0.00024277737314882253
s(S'[[det]]'
p3444
S'leader'
p3445
S'at'
p3446
tp3447
F0.00024277737314882253
s(S'had'
p3448
S'stints'
p3449
S'with'
p3450
tp3451
F0.00024277737314882253
s(S'seasons'
p3452
S'playing'
p3453
S'[[det]]'
p3454
tp3455
F0.00024277737314882253
s(S'was'
p3456
S'head'
p3457
S'for'
p3458
tp3459
F0.00024277737314882253
s(g2785
S'as'
p3460
g3047
tp3461
F0.0024277737314882253
s(S'[[adj]]'
p3462
S'head'
p3463
S'[[det]]'
p3464
tp3465
F0.00024277737314882253
s(S'[[con]]'
p3466
S'previously'
p3467
S'played'
p3468
tp3469
F0.00024277737314882253
s(S'played'
p3470
S'parts'
p3471
S'in'
p3472
tp3473
F0.00024277737314882253
s(S'then'
p3474
S'returned'
p3475
S'where'
p3476
tp3477
F0.00024277737314882253
s(S'[[mod]]'
p3478
S'join'
p3479
S'[[adj]]'
p3480
tp3481
F0.00024277737314882253
s(S'[[det]]'
p3482
S'member'
p3483
S'at'
p3484
tp3485
F0.00024277737314882253
s(S'[[adj]]'
p3486
S'seasons'
p3487
S'at'
p3488
tp3489
F0.00024277737314882253
s(S'rules'
p3490
S'football'
p3491
S'for'
p3492
tp3493
F0.00048555474629764507
s(S'[[num]]'
p3494
S'games'
p3495
S'before'
p3496
tp3497
F0.00024277737314882253
s(S'at'
p3498
S'then'
p3499
S'played'
p3500
tp3501
F0.00024277737314882253
s(S'began'
p3502
S'[[prp]]'
p3503
S'[[adj]]'
p3504
tp3505
F0.0019422189851905803
s(S'later'
p3506
S'played'
p3507
S'twice'
p3508
tp3509
F0.00024277737314882253
s(S'has'
p3510
S'spent'
p3511
S'[[det]]'
p3512
tp3513
F0.00048555474629764507
s(S'first'
p3514
S'played'
p3515
S'at'
p3516
tp3517
F0.00024277737314882253
s(S'was'
p3518
S'joined'
p3519
S'in'
p3520
tp3521
F0.00024277737314882253
s(S'draft'
p3522
g1129
g703
tp3523
F0.00024277737314882253
s(g2860
g2861
S'for'
p3524
tp3525
F0.004369992716678805
s(g2204
g2205
S'for'
p3526
tp3527
F0.00048555474629764507
s(g2232
g2233
S'played'
p3528
tp3529
F0.00024277737314882253
s(S'[[adj]]'
p3530
S'team'
p3531
S'[[adj]]'
p3532
tp3533
F0.00024277737314882253
s(S'who'
p3534
S'played'
p3535
S'with'
p3536
tp3537
F0.0016994416120417577
s(S'[[adj]]'
p3538
S'member'
p3539
S'[[det]]'
p3540
tp3541
F0.00024277737314882253
s(S'was'
p3542
S'called'
p3543
S'into'
p3544
tp3545
F0.00024277737314882253
s(S'was'
p3546
S'playing'
p3547
S'[[adj]]'
p3548
tp3549
F0.00024277737314882253
s(S'[[adj]]'
p3550
S'playing'
p3551
S'in'
p3552
tp3553
F0.00024277737314882253
s(S'was'
p3554
S'selected'
p3555
S'against'
p3556
tp3557
F0.00024277737314882253
s(S'[[det]]'
p3558
S'game'
p3559
S'for'
p3560
tp3561
F0.0007283321194464676
s(S'[[det]]'
p3562
S'coach'
p3563
S'with'
p3564
tp3565
F0.00024277737314882253
s(S'then'
p3566
S'selected'
p3567
S'to'
p3568
tp3569
F0.00024277737314882253
s(S'split'
p3570
g2742
g2743
tp3571
F0.0007283321194464676
s(S'also'
p3572
S'chosen'
p3573
S'by'
p3574
tp3575
F0.00024277737314882253
s(S'was'
p3576
S'returned'
p3577
S'by'
p3578
tp3579
F0.00024277737314882253
s(S'born'
p3580
S'is'
p3581
g3180
tp3582
F0.004127215343529983
s(S'[[con]]'
p3583
S'joined'
p3584
S'[[det]]'
p3585
tp3586
F0.00024277737314882253
s(S'[[prp]]'
p3587
S'career'
p3588
S'on'
p3589
tp3590
F0.00024277737314882253
s(g1345
g1346
S'for'
p3591
tp3592
F0.00024277737314882253
s(S'[[det]]'
p3593
g1810
g1811
tp3594
F0.002670551104637048
s(S'coach'
p3595
g2123
g2124
tp3596
F0.0007283321194464676
s(g2272
g1448
g1449
tp3597
F0.00024277737314882253
s(S'football'
p3598
S'running'
p3599
S'back'
p3600
tp3601
F0.0016994416120417577
s(S'in'
p3602
S'[[adj]]'
p3603
S'game'
p3604
tp3605
F0.00048555474629764507
s(S'also'
p3606
S'spent'
p3607
S'[[adj]]'
p3608
tp3609
F0.00024277737314882253
s(g2292
S'played'
p3610
S'[[adj]]'
p3611
tp3612
F0.00048555474629764507
s(g233
S'team'
p3613
S'[[det]]'
p3614
tp3615
F0.00024277737314882253
s(S'hockey'
p3616
S'player'
p3617
S'in'
p3618
tp3619
F0.00024277737314882253
s(S'[[mod]]'
p3620
S'play'
p3621
S'[[con]]'
p3622
tp3623
F0.00024277737314882253
s(S'[[adj]]'
p3624
S'stint'
p3625
S'on'
p3626
tp3627
F0.00024277737314882253
s(S'was'
p3628
S'returned'
p3629
S'[[con]]'
p3630
tp3631
F0.00024277737314882253
s(S'been'
p3632
S'playing'
p3633
S'in'
p3634
tp3635
F0.00024277737314882253
s(S'is'
p3636
S'football'
p3637
g1356
tp3638
F0.00024277737314882253
s(g1893
g1894
g2584
tp3639
F0.00024277737314882253
s(S'which'
p3640
S'led'
p3641
S'at'
p3642
tp3643
F0.00024277737314882253
s(S'played'
p3644
g213
g214
tp3645
F0.00048555474629764507
s(S'[[adj]]'
p3646
S'soccer'
p3647
S'player'
p3648
tp3649
F0.00048555474629764507
s(S'basketball'
p3650
S'head'
p3651
S'coach'
p3652
tp3653
F0.0007283321194464676
s(S'signed'
p3654
g1452
g1453
tp3655
F0.0007283321194464676
s(g1856
g1857
S'from'
p3656
tp3657
F0.00024277737314882253
s(S'who'
p3658
S'played'
p3659
S'linebacker'
p3660
tp3661
F0.00024277737314882253
s(S'basketball'
p3662
S'coach'
p3663
S'[[con]]'
p3664
tp3665
F0.00048555474629764507
s(S'[[det]]'
p3666
S'time'
p3667
S'to'
p3668
tp3669
F0.00024277737314882253
s(S'[[det]]'
p3670
S'player'
p3671
S'of'
p3672
tp3673
F0.00024277737314882253
s(g1797
g1798
S'games'
p3674
tp3675
F0.00048555474629764507
s(S'on'
p3676
S'playing'
p3677
S'for'
p3678
tp3679
F0.00024277737314882253
s(S'also'
p3680
S'selected'
p3681
S'in'
p3682
tp3683
F0.00024277737314882253
s(S'as'
p3684
S'leader'
p3685
S'of'
p3686
tp3687
F0.00024277737314882253
s(S'in'
p3688
S'who'
p3689
S'played'
p3690
tp3691
F0.00024277737314882253
s(S'[[adj]]'
p3692
S'association'
p3693
S'football'
p3694
tp3695
F0.0009711094925952901
s(S'ever'
p3696
S'played'
p3697
S'for'
p3698
tp3699
F0.00024277737314882253
s(S'played'
p3700
S'for'
p3701
S'[[prp]]'
p3702
tp3703
F0.00024277737314882253
s(S'to'
p3704
S'play'
p3705
S'[[det]]'
p3706
tp3707
F0.00024277737314882253
s(S'only'
p3708
S'played'
p3709
S'[[num]]'
p3710
tp3711
F0.0007283321194464676
s(S'was'
p3712
S'suspended'
p3713
S'by'
p3714
tp3715
F0.00024277737314882253
s(S'when'
p3716
S'signed'
p3717
S'for'
p3718
tp3719
F0.00024277737314882253
s(g2834
S'[[adj]]'
p3720
S'school'
p3721
tp3722
F0.00024277737314882253
s(S'back'
p3723
S'playing'
p3724
S'[[det]]'
p3725
tp3726
F0.00024277737314882253
s(S'[[adj]]'
p3727
S'game'
p3728
S'as'
p3729
tp3730
F0.00024277737314882253
s(g2039
S'coach'
p3731
S'in'
p3732
tp3733
F0.0007283321194464676
s(S'head'
p3734
S'coach'
p3735
S'[[det]]'
p3736
tp3737
F0.0012138868657441126
s(S'then'
p3738
S'returned'
p3739
S'in'
p3740
tp3741
F0.00024277737314882253
s(S'[[det]]'
p3742
S'player'
p3743
S'that'
p3744
tp3745
F0.00024277737314882253
s(S'had'
p3746
S'won'
p3747
S'as'
p3748
tp3749
F0.00024277737314882253
s(S'also'
p3750
g794
g795
tp3751
F0.0007283321194464676
s(S'since'
p3752
S'played'
p3753
S'with'
p3754
tp3755
F0.00024277737314882253
s(S'had'
p3756
S'played'
p3757
S'with'
p3758
tp3759
F0.00024277737314882253
s(S'also'
p3760
S'played'
p3761
S'with'
p3762
tp3763
F0.00048555474629764507
s(S'since'
p3764
S'won'
p3765
S'[[det]]'
p3766
tp3767
F0.00024277737314882253
s(S'was'
p3768
S'taken'
p3769
S'out'
p3770
tp3771
F0.00024277737314882253
s(S'was'
p3772
S'signed'
p3773
S'on'
p3774
tp3775
F0.00024277737314882253
s(g987
g1046
S'by'
p3776
tp3777
F0.00024277737314882253
s(S'[[adj]]'
p3778
S'[[con]]'
p3779
S'spent'
p3780
tp3781
F0.00024277737314882253
s(S'[[pro]]'
p3782
S'played'
p3783
S'together'
p3784
tp3785
F0.00024277737314882253
s(g1701
g2308
g3269
tp3786
F0.00024277737314882253
s(S'[[adj]]'
p3787
S'games'
p3788
S'with'
p3789
tp3790
F0.0007283321194464676
s(S'was'
p3791
S'left'
p3792
S'out'
p3793
tp3794
F0.00024277737314882253
s(S'also'
p3795
S'played'
p3796
S'before'
p3797
tp3798
F0.00024277737314882253
s(S'college'
p3799
S'football'
p3800
g3498
tp3801
F0.0029133284777858705
s(S'had'
p3802
S'signed'
p3803
S'to'
p3804
tp3805
F0.00024277737314882253
s(S'[[mod]]'
p3806
S'play'
p3807
S'[[num]]'
p3808
tp3809
F0.00024277737314882253
s(S'[[adj]]'
p3810
S'coach'
p3811
S'in'
p3812
tp3813
F0.00024277737314882253
s(g913
g914
S'ndash'
p3814
tp3815
F0.00024277737314882253
s(g2477
g2478
S'who'
p3816
tp3817
F0.0024277737314882253
s(S'now'
p3818
S'playing'
p3819
S'for'
p3820
tp3821
F0.00024277737314882253
s(S'with'
p3822
S'played'
p3823
S'for'
p3824
tp3825
F0.00048555474629764507
s(S'[[prp]]'
p3826
S'debut'
p3827
S'on'
p3828
tp3829
F0.00024277737314882253
s(S'[[num]]'
p3830
S'[[adj]]'
p3831
S'ice'
p3832
tp3833
F0.00048555474629764507
s(S'also'
p3834
S'selected'
p3835
S'for'
p3836
tp3837
F0.00024277737314882253
s(S'football'
p3838
S'linebacker'
p3839
S'in'
p3840
tp3841
F0.00024277737314882253
s(S'only'
p3842
S'played'
p3843
S'in'
p3844
tp3845
F0.00024277737314882253
s(g953
g954
S'from'
p3846
tp3847
F0.00024277737314882253
s(S'has'
p3848
S'previously'
p3849
S'played'
p3850
tp3851
F0.0009711094925952901
s(S'been'
p3852
S'called'
p3853
S'[[num]]'
p3854
tp3855
F0.00024277737314882253
s(S'notably'
p3856
S'played'
p3857
S'as'
p3858
tp3859
F0.00024277737314882253
s(g744
g745
g862
tp3860
F0.00024277737314882253
s(S'[[num]]'
p3861
S'[[det]]'
p3862
S'football'
p3863
tp3864
F0.0033988832240835153
s(S'[[pro]]'
p3865
S'won'
p3866
S'[[con]]'
p3867
tp3868
F0.00024277737314882253
s(S'have'
p3869
S'played'
p3870
S'[[det]]'
p3871
tp3872
F0.00024277737314882253
s(g624
g625
S'for'
p3873
tp3874
F0.00024277737314882253
s(S'[[con]]'
p3875
S'plays'
p3876
S'for'
p3877
tp3878
F0.00024277737314882253
s(S'fell'
p3879
S'out'
p3880
g2975
tp3881
F0.00024277737314882253
s(S'draft'
p3882
S'pick'
p3883
S'for'
p3884
tp3885
F0.00024277737314882253
s(S'then'
p3886
S'returned'
p3887
S'for'
p3888
tp3889
F0.00024277737314882253
s(S'then'
p3890
S'signed'
p3891
S'by'
p3892
tp3893
F0.00024277737314882253
s(g3453
g3454
S'systems'
p3894
tp3895
F0.00024277737314882253
s(S'nearly'
p3896
S'[[adj]]'
p3897
g3452
tp3898
F0.00024277737314882253
s(S'[[adj]]'
p3899
S'coach'
p3900
S'[[det]]'
p3901
tp3902
F0.00024277737314882253
s(S'then'
p3903
S'played'
p3904
S'for'
p3905
tp3906
F0.00024277737314882253
s(S'[[con]]'
p3907
S'joined'
p3908
S'from'
p3909
tp3910
F0.00024277737314882253
s(g58
g59
S'member'
p3911
tp3912
F0.0007283321194464676
s(S'played'
p3913
S'for'
p3914
S'[[det]]'
p3915
tp3916
F0.0012138868657441126
s(S'[[det]]'
p3917
S'contract'
p3918
S'with'
p3919
tp3920
F0.0016994416120417577
s(S'[[num]]'
p3921
S'won'
p3922
S'by'
p3923
tp3924
F0.00024277737314882253
s(S'to'
p3925
S'coach'
p3926
S'[[det]]'
p3927
tp3928
F0.00024277737314882253
s(g2869
S'coach'
p3929
S'at'
p3930
tp3931
F0.0024277737314882253
s(S'that'
p3932
S'won'
p3933
S'against'
p3934
tp3935
F0.00024277737314882253
s(S'had'
p3936
S'taken'
p3937
S'[[num]]'
p3938
tp3939
F0.00024277737314882253
s(S'been'
p3940
S'selected'
p3941
S'for'
p3942
tp3943
F0.00024277737314882253
s(g921
g922
S'[[adj]]'
p3944
tp3945
F0.00024277737314882253
s(S'who'
p3946
S'played'
p3947
S'in'
p3948
tp3949
F0.0019422189851905803
s(S'played'
p3950
S'[[num]]'
p3951
S'games'
p3952
tp3953
F0.008982762806506433
s(g1402
g1609
S'for'
p3954
tp3955
F0.002670551104637048
s(S'[[con]]'
p3956
S'debut'
p3957
S'against'
p3958
tp3959
F0.00024277737314882253
s(S'been'
p3960
S'selected'
p3961
S'by'
p3962
tp3963
F0.00024277737314882253
s(S'midfielder'
p3964
S'who'
p3965
S'currently'
p3966
tp3967
F0.00024277737314882253
s(g233
S'coach'
p3968
S'with'
p3969
tp3970
F0.00024277737314882253
s(g1867
S'coach'
p3971
S'for'
p3972
tp3973
F0.0031561058509346927
s(S'was'
p3974
S'left'
p3975
S'with'
p3976
tp3977
F0.00024277737314882253
s(S'has'
p3978
S'served'
p3979
S'as'
p3980
tp3981
F0.0014566642388929353
s(S'played'
p3982
S'parts'
p3983
S'for'
p3984
tp3985
F0.00024277737314882253
s(S'[[det]]'
p3986
S'head'
p3987
S'college'
p3988
tp3989
F0.00024277737314882253
s(S'[[det]]'
p3990
S'member'
p3991
S'[[det]]'
p3992
tp3993
F0.00024277737314882253
s(S'not'
p3994
S'selected'
p3995
S'at'
p3996
tp3997
F0.00024277737314882253
s(S'[[num]]'
p3998
g2083
g2084
tp3999
F0.00048555474629764507
s(g616
g617
S'at'
p4000
tp4001
F0.00048555474629764507
s(S'[[num]]'
p4002
S'[[adj]]'
p4003
S'player'
p4004
tp4005
F0.00048555474629764507
s(S'football'
p4006
g289
g290
tp4007
F0.00024277737314882253
s(S'is'
p4008
S'playing'
p4009
S'in'
p4010
tp4011
F0.00024277737314882253
s(S'played'
p4012
g273
g274
tp4013
F0.00024277737314882253
s(S'[[det]]'
p4014
S'played'
p4015
S'for'
p4016
tp4017
F0.00024277737314882253
s(g2557
g2558
S'for'
p4018
tp4019
F0.00024277737314882253
s(g3504
S'career'
p4020
S'as'
p4021
tp4022
F0.00024277737314882253
s(S'[[con]]'
p4023
S'picked'
p4024
S'up'
p4025
tp4026
F0.00024277737314882253
s(S'had'
p4027
S'played'
p4028
S'for'
p4029
tp4030
F0.00024277737314882253
s(S'selected'
p4031
S'[[con]]'
p4032
S'played'
p4033
tp4034
F0.0012138868657441126
s(g1524
g1525
S'for'
p4035
tp4036
F0.00024277737314882253
s(S'selected'
p4037
S'[[con]]'
p4038
S'since'
p4039
tp4040
F0.00024277737314882253
s(S'where'
p4041
S'played'
p4042
S'in'
p4043
tp4044
F0.00024277737314882253
s(S'where'
p4045
S'won'
p4046
S'[[det]]'
p4047
tp4048
F0.00024277737314882253
s(S'was'
p4049
S'chosen'
p4050
S'of'
p4051
tp4052
F0.00024277737314882253
s(S'[[con]]'
p4053
S'was'
p4054
S'signed'
p4055
tp4056
F0.00024277737314882253
s(S'twice'
p4057
S'won'
p4058
S'for'
p4059
tp4060
F0.00024277737314882253
s(S'[[det]]'
p4061
S'member'
p4062
S'on'
p4063
tp4064
F0.00024277737314882253
s(g2131
g2132
S'playing'
p4065
tp4066
F0.00024277737314882253
s(S'had'
p4067
S'won'
p4068
S'[[det]]'
p4069
tp4070
F0.00024277737314882253
s(S'has'
p4071
S'left'
p4072
S'[[det]]'
p4073
tp4074
F0.00024277737314882253
s(S'currently'
p4075
S'plays'
p4076
S'[[det]]'
p4077
tp4078
F0.00024277737314882253
s(S'[[mod]]'
p4079
S'split'
p4080
g1048
tp4081
F0.00024277737314882253
s(S'[[con]]'
p4082
S'won'
p4083
S'twice'
p4084
tp4085
F0.00024277737314882253
s(g62
g63
S'in'
p4086
tp4087
F0.00024277737314882253
s(S'[[adj]]'
p4088
S'won'
p4089
S'[[det]]'
p4090
tp4091
F0.00024277737314882253
s(S'[[num]]'
p4092
S'years'
p4093
S'[[con]]'
p4094
tp4095
F0.00024277737314882253
s(S'seasons'
p4096
S'[[num]]'
p4097
S'[[con]]'
p4098
tp4099
F0.0012138868657441126
s(S'[[adj]]'
p4100
S'debut'
p4101
S'[[con]]'
p4102
tp4103
F0.00024277737314882253
s(S'played'
p4104
S'college'
p4105
S'football'
p4106
tp4107
F0.007768875940762321
s(S'have'
p4108
S'joined'
p4109
S'[[det]]'
p4110
tp4111
F0.00024277737314882253
s(g233
g2239
S'coach'
p4112
tp4113
F0.0014566642388929353
s(S'[[adj]]'
p4114
S'member'
p4115
S'on'
p4116
tp4117
F0.00024277737314882253
s(S'[[adj]]'
p4118
S'seasons'
p4119
S'[[num]]'
p4120
tp4121
F0.0012138868657441126
s(S'[[det]]'
p4122
S'member'
p4123
S'as'
p4124
tp4125
F0.00024277737314882253
s(g2143
g2144
S'who'
p4126
tp4127
F0.00024277737314882253
s(g4038
g4039
S'played'
p4128
tp4129
F0.00024277737314882253
s(S'[[num]]'
p4130
S'seasons'
p4131
S'with'
p4132
tp4133
F0.0038844379703811605
s(S'player'
p4134
g1263
g1264
tp4135
F0.00024277737314882253
s(S'player'
p4136
S'for'
p4137
S'[[det]]'
p4138
tp4139
F0.00024277737314882253
s(S'had'
p4140
S'called'
p4141
S'[[det]]'
p4142
tp4143
F0.00024277737314882253
s(S'spent'
p4144
S'[[num]]'
p4145
S'[[adj]]'
p4146
tp4147
F0.0007283321194464676
s(g1358
S'played'
p4148
S'[[con]]'
p4149
tp4150
F0.00048555474629764507
s(S'is'
p4151
S'selected'
p4152
S'by'
p4153
tp4154
F0.00024277737314882253
s(S'[[num]]'
p4155
S'championships'
p4156
S'with'
p4157
tp4158
F0.00024277737314882253
s(S'[[adj]]'
p4159
S'career'
p4160
S'with'
p4161
tp4162
F0.00048555474629764507
s(g2502
g611
g612
tp4163
F0.00048555474629764507
s(S'[[adj]]'
p4164
S'seasons'
p4165
g2031
tp4166
F0.0009711094925952901
s(g2829
g2830
S'round'
p4167
tp4168
F0.00024277737314882253
s(S'[[det]]'
p4169
S'leader'
p4170
S'to'
p4171
tp4172
F0.00024277737314882253
s(S'to'
p4173
S'sign'
p4174
S'with'
p4175
tp4176
F0.00024277737314882253
s(S'attended'
p4177
g1042
g1043
tp4178
F0.0012138868657441126
s(S'previously'
p4179
S'played'
p4180
S'at'
p4181
tp4182
F0.00024277737314882253
s(g2494
g3227
S'football'
p4183
tp4184
F0.0012138868657441126
s(S'[[det]]'
p4185
g3275
g189
tp4186
F0.00024277737314882253
s(S'ice'
p4187
g2538
g2539
tp4188
F0.0007283321194464676
s(S'already'
p4189
S'played'
p4190
S'for'
p4191
tp4192
F0.00024277737314882253
s(S'never'
p4193
S'played'
p4194
S'in'
p4195
tp4196
F0.0007283321194464676
s(S'left'
p4197
S'winger'
p4198
S'currently'
p4199
tp4200
F0.00024277737314882253
s(S'born'
p4201
S'[[num]]'
p4202
S'[[con]]'
p4203
tp4204
F0.00024277737314882253
s(S'[[adj]]'
p4205
S'debut'
p4206
S'on'
p4207
tp4208
F0.00024277737314882253
s(S'[[adj]]'
p4209
S'director'
p4210
S'at'
p4211
tp4212
F0.0007283321194464676
s(S'is'
p4213
S'head'
p4214
S'of'
p4215
tp4216
F0.00024277737314882253
s(S'then'
p4217
S'picked'
p4218
S'up'
p4219
tp4220
F0.00024277737314882253
s(S'that'
p4221
S'won'
p4222
S'[[prp]]'
p4223
tp4224
F0.00024277737314882253
s(S'rugby'
p4225
S'union'
p4226
S'player'
p4227
tp4228
F0.0007283321194464676
s(S'where'
p4229
S'played'
p4230
S'[[con]]'
p4231
tp4232
F0.00024277737314882253
s(S'who'
p4233
S'left'
p4234
S'[[det]]'
p4235
tp4236
F0.00024277737314882253
s(S'also'
p4237
S'featured'
p4238
S'[[num]]'
p4239
tp4240
F0.00024277737314882253
s(S'played'
p4241
S'parts'
p4242
S'with'
p4243
tp4244
F0.00024277737314882253
s(S'played'
p4245
S'[[con]]'
p4246
S'[[det]]'
p4247
tp4248
F0.00024277737314882253
s(S'had'
p4249
S'stints'
p4250
S'in'
p4251
tp4252
F0.00024277737314882253
s(S'mainly'
p4253
S'played'
p4254
S'with'
p4255
tp4256
F0.00024277737314882253
s(S'[[pro]]'
p4257
S'playing'
p4258
S'for'
p4259
tp4260
F0.00024277737314882253
s(S'also'
p4261
S'played'
p4262
S'[[det]]'
p4263
tp4264
F0.00048555474629764507
s(S'never'
p4265
S'won'
p4266
S'[[det]]'
p4267
tp4268
F0.00024277737314882253
s(S'is'
p4269
S'member'
p4270
S'of'
p4271
tp4272
F0.00024277737314882253
s(S'[[prp]]'
p4273
S'time'
p4274
S'with'
p4275
tp4276
F0.00048555474629764507
s(g3090
g3091
g3350
tp4277
F0.0009711094925952901
s(S'[[adj]]'
p4278
S'time'
p4279
S'[[det]]'
p4280
tp4281
F0.00024277737314882253
s(S'who'
p4282
S'joined'
p4283
S'from'
p4284
tp4285
F0.00024277737314882253
s(S'[[num]]'
p4286
S'returned'
p4287
S'to'
p4288
tp4289
F0.00024277737314882253
s(g3350
g3351
S'played'
p4290
tp4291
F0.00024277737314882253
s(S'had'
p4292
S'left'
p4293
S'[[con]]'
p4294
tp4295
F0.00024277737314882253
s(S'become'
p4296
S'head'
p4297
S'coach'
p4298
tp4299
F0.00024277737314882253
s(S'[[pro]]'
p4300
S'won'
p4301
S'[[num]]'
p4302
tp4303
F0.00024277737314882253
s(S'[[det]]'
p4304
S'career'
p4305
S'on'
p4306
tp4307
F0.00024277737314882253
s(g1194
g1195
S'with'
p4308
tp4309
F0.0021849963583394027
s(g4094
g623
g624
tp4310
F0.00024277737314882253
s(S'ice'
p4311
S'hockey'
p4312
S'goaltender'
p4313
tp4314
F0.0014566642388929353
s(S'[[mod]]'
p4315
S'play'
p4316
S'for'
p4317
tp4318
F0.00024277737314882253
s(S'[[det]]'
p4319
S'basketball'
p4320
S'player'
p4321
tp4322
F0.00024277737314882253
s(S'[[adj]]'
p4323
S'player'
p4324
S'[[det]]'
p4325
tp4326
F0.00024277737314882253
s(S'scored'
p4327
S'[[det]]'
p4328
S'[[num]]'
p4329
tp4330
F0.0007283321194464676
s(S'was'
p4331
S'fined'
p4332
S'[[num]]'
p4333
tp4334
F0.00024277737314882253
s(S'[[adj]]'
p4335
S'time'
p4336
S'[[adj]]'
p4337
tp4338
F0.00024277737314882253
s(S'also'
p4339
S'called'
p4340
S'up'
p4341
tp4342
F0.00024277737314882253
s(S'[[det]]'
p4343
S'coach'
p4344
S'[[num]]'
p4345
tp4346
F0.00024277737314882253
s(S'first'
p4347
S'called'
p4348
S'up'
p4349
tp4350
F0.00024277737314882253
s(S'[[mod]]'
p4351
S'play'
p4352
S'again'
p4353
tp4354
F0.00024277737314882253
s(S'rules'
p4355
S'football'
p4356
S'with'
p4357
tp4358
F0.00024277737314882253
s(S'[[adj]]'
p4359
g2400
g2401
tp4360
F0.00048555474629764507
s(g4003
g4004
S'for'
p4361
tp4362
F0.00048555474629764507
s(S'[[con]]'
p4363
S'has'
p4364
S'served'
p4365
tp4366
F0.00024277737314882253
s(S'was'
p4367
g2867
g2868
tp4368
F0.0019422189851905803
s(g2239
g4112
S'at'
p4369
tp4370
F0.0019422189851905803
s(S'played'
p4371
g4118
g4119
tp4372
F0.0024277737314882253
s(S'goaltender'
p4373
S'who'
p4374
S'currently'
p4375
tp4376
F0.00024277737314882253
s(S'ndash'
p4377
g2644
g2645
tp4378
F0.00024277737314882253
s(S'then'
p4379
S'joined'
p4380
S'with'
p4381
tp4382
F0.00024277737314882253
s(S'as'
p4383
S'won'
p4384
S'[[det]]'
p4385
tp4386
F0.00024277737314882253
s(S'made'
p4387
S'head'
p4388
S'of'
p4389
tp4390
F0.00024277737314882253
s(S'[[det]]'
p4391
S'coach'
p4392
S'[[det]]'
p4393
tp4394
F0.00024277737314882253
s(g3227
g4183
S'player'
p4395
tp4396
F0.0019422189851905803
s(S'also'
p4397
S'signed'
p4398
S'to'
p4399
tp4400
F0.00024277737314882253
s(S'has'
p4401
S'played'
p4402
S'most'
p4403
tp4404
F0.00024277737314882253
s(S'[[det]]'
p4405
S'member'
p4406
S'who'
p4407
tp4408
F0.00024277737314882253
s(S'[[con]]'
p4409
S'played'
p4410
S'with'
p4411
tp4412
F0.0007283321194464676
s(S'soon'
p4413
S'signed'
p4414
S'with'
p4415
tp4416
F0.00024277737314882253
s(g233
S'debut'
p4417
S'in'
p4418
tp4419
F0.00024277737314882253
s(S'was'
p4420
S'selected'
p4421
S'for'
p4422
tp4423
F0.00024277737314882253
s(S'later'
p4424
S'play'
p4425
S'for'
p4426
tp4427
F0.00024277737314882253
s(S'[[det]]'
p4428
S'game'
p4429
S'against'
p4430
tp4431
F0.00024277737314882253
s(S'currently'
p4432
S'plays'
p4433
S'from'
p4434
tp4435
F0.00024277737314882253
s(S'[[adj]]'
p4436
S'coach'
p4437
S'[[con]]'
p4438
tp4439
F0.00024277737314882253
s(g922
g3944
S'list'
p4440
tp4441
F0.00024277737314882253
s(S'football'
p4442
S'safety'
p4443
S'for'
p4444
tp4445
F0.00024277737314882253
s(g1866
g1867
g3971
tp4446
F0.008011653313911144
s(S'was'
p4447
g1420
g1421
tp4448
F0.00024277737314882253
s(S'born'
p4449
S'[[num]]'
p4450
S'head'
p4451
tp4452
F0.00024277737314882253
s(S'before'
p4453
S'playing'
p4454
S'with'
p4455
tp4456
F0.00024277737314882253
s(g2804
g2284
g2285
tp4457
F0.00048555474629764507
s(g2080
g2081
g1493
tp4458
F0.00024277737314882253
s(S'now'
p4459
S'plays'
p4460
S'for'
p4461
tp4462
F0.00024277737314882253
s(S'also'
p4463
S'won'
p4464
S'for'
p4465
tp4466
F0.00024277737314882253
s(S'then'
p4467
S'signed'
p4468
S'with'
p4469
tp4470
F0.00024277737314882253
s(S'while'
p4471
S'returned'
p4472
S'to'
p4473
tp4474
F0.00024277737314882253
s(S'had'
p4475
S'left'
p4476
S'[[adj]]'
p4477
tp4478
F0.00024277737314882253
s(S'was'
p4479
S'featured'
p4480
S'from'
p4481
tp4482
F0.00024277737314882253
s(S'[[adj]]'
p4483
S'hockey'
p4484
S'for'
p4485
tp4486
F0.00048555474629764507
s(g2501
g2502
g611
tp4487
F0.00048555474629764507
s(S'[[adj]]'
p4488
S'debut'
p4489
S'away'
p4490
tp4491
F0.00024277737314882253
s(S'selected'
p4492
g2588
g2589
tp4493
F0.00024277737314882253
s(S'[[con]]'
p4494
S'left'
p4495
S'[[det]]'
p4496
tp4497
F0.00024277737314882253
s(S'then'
p4498
S'signed'
p4499
S'on'
p4500
tp4501
F0.00024277737314882253
s(S'then'
p4502
S'selected'
p4503
S'against'
p4504
tp4505
F0.00024277737314882253
s(S'become'
p4506
S'head'
p4507
S'of'
p4508
tp4509
F0.00024277737314882253
s(S'made'
p4510
S'debut'
p4511
S'with'
p4512
tp4513
F0.00024277737314882253
s(S'to'
p4514
S'lead'
p4515
S'[[con]]'
p4516
tp4517
F0.00024277737314882253
s(S'[[con]]'
p4518
S'returned'
p4519
S'on'
p4520
tp4521
F0.00024277737314882253
s(S'in'
p4522
g4428
g4429
tp4523
F0.0007283321194464676
s(S'[[adj]]'
p4524
S'time'
p4525
S'at'
p4526
tp4527
F0.00024277737314882253
s(S'who'
p4528
S'played'
p4529
S'[[num]]'
p4530
tp4531
F0.002670551104637048
s(S'college'
p4532
S'basketball'
p4533
S'for'
p4534
tp4535
F0.00024277737314882253
s(S'[[num]]'
p4536
S'stints'
p4537
S'with'
p4538
tp4539
F0.00024277737314882253
s(S'again'
p4540
S'returned'
p4541
S'to'
p4542
tp4543
F0.00024277737314882253
s(S'later'
p4544
S'play'
p4545
S'professionally'
p4546
tp4547
F0.00024277737314882253
s(S'is'
p4548
S'signed'
p4549
S'with'
p4550
tp4551
F0.00024277737314882253
s(S'had'
p4552
S'resigned'
p4553
S'from'
p4554
tp4555
F0.00024277737314882253
s(S'[[det]]'
p4556
S'number'
p4557
S'at'
p4558
tp4559
F0.00024277737314882253
s(S'is'
p4560
S'playing'
p4561
S'for'
p4562
tp4563
F0.00024277737314882253
s(S'[[det]]'
p4564
S'career'
p4565
S'with'
p4566
tp4567
F0.00024277737314882253
s(g2947
g2015
g2016
tp4568
F0.0007283321194464676
s(S'[[adj]]'
p4569
S'debut'
p4570
S'[[num]]'
p4571
tp4572
F0.00024277737314882253
s(S'[[num]]'
p4573
S'[[adj]]'
p4574
S'round'
p4575
tp4576
F0.00024277737314882253
s(S'[[prp]]'
p4577
S'[[adj]]'
p4578
S'contract'
p4579
tp4580
F0.0009711094925952901
s(g1350
g1950
S'head'
p4581
tp4582
F0.00024277737314882253
s(S'ranked'
p4583
S'[[num]]'
p4584
S'in'
p4585
tp4586
F0.00024277737314882253
s(g4312
g4313
S'who'
p4587
tp4588
F0.0007283321194464676
s(S'born'
p4589
g2716
g2717
tp4590
F0.00024277737314882253
s(S'then'
p4591
S'head'
p4592
S'of'
p4593
tp4594
F0.00024277737314882253
s(g2730
g3315
g2193
tp4595
F0.009468317552804079
s(S'which'
p4596
S'won'
p4597
S'at'
p4598
tp4599
F0.00024277737314882253
s(S'became'
p4600
S'head'
p4601
S'for'
p4602
tp4603
F0.00024277737314882253
s(S'played'
p4604
g1472
g1473
tp4605
F0.00024277737314882253
s(S'[[det]]'
p4606
S'member'
p4607
S'has'
p4608
tp4609
F0.00024277737314882253
s(S'[[con]]'
p4610
g4209
g4210
tp4611
F0.0007283321194464676
s(S'was'
p4612
S'selected'
p4613
S'[[adj]]'
p4614
tp4615
F0.0007283321194464676
s(S'[[con]]'
p4616
S'led'
p4617
S'[[det]]'
p4618
tp4619
F0.00024277737314882253
s(S'[[con]]'
p4620
S'signed'
p4621
S'with'
p4622
tp4623
F0.00024277737314882253
s(S'[[adj]]'
p4624
S'career'
p4625
S'[[num]]'
p4626
tp4627
F0.00024277737314882253
s(S'being'
p4628
S'signed'
p4629
S'by'
p4630
tp4631
F0.00024277737314882253
s(S'then'
p4632
S'played'
p4633
S'in'
p4634
tp4635
F0.00048555474629764507
s(g3701
g3702
S'affiliate'
p4636
tp4637
F0.00024277737314882253
s(S'[[prp]]'
p4638
S'debut'
p4639
S'with'
p4640
tp4641
F0.00024277737314882253
s(S'also'
p4642
S'previously'
p4643
S'played'
p4644
tp4645
F0.0007283321194464676
s(g819
g820
S'also'
p4646
tp4647
F0.00024277737314882253
s(S'[[det]]'
p4648
S'member'
p4649
S'to'
p4650
tp4651
F0.00024277737314882253
s(S'[[det]]'
p4652
S'game'
p4653
S'with'
p4654
tp4655
F0.00024277737314882253
s(S'split'
p4656
S'time'
p4657
S'of'
p4658
tp4659
F0.00024277737314882253
s(S'[[con]]'
p4660
S'[[adj]]'
p4661
S'played'
p4662
tp4663
F0.00024277737314882253
s(S'also'
p4664
S'plays'
p4665
S'with'
p4666
tp4667
F0.00024277737314882253
s(S'[[adj]]'
p4668
S'played'
p4669
S'in'
p4670
tp4671
F0.00024277737314882253
s(S'[[adj]]'
p4672
S'time'
p4673
S'against'
p4674
tp4675
F0.00024277737314882253
s(S'[[adj]]'
p4676
S'stints'
p4677
S'in'
p4678
tp4679
F0.00024277737314882253
s(S'[[adj]]'
p4680
S'game'
p4681
S'to'
p4682
tp4683
F0.00024277737314882253
s(S'who'
p4684
S'played'
p4685
S'for'
p4686
tp4687
F0.006797766448167031
s(S'college'
p4688
S'football'
p4689
S'with'
p4690
tp4691
F0.00024277737314882253
s(g3380
g3381
g2783
tp4692
F0.00024277737314882253
s(S'first'
p4693
S'won'
p4694
S'[[det]]'
p4695
tp4696
F0.00024277737314882253
s(S'played'
p4697
S'quarterback'
p4698
S'for'
p4699
tp4700
F0.00024277737314882253
s(g3325
g3326
S'for'
p4701
tp4702
F0.0012138868657441126
s(S'also'
p4703
S'won'
p4704
S'on'
p4705
tp4706
F0.00024277737314882253
s(S'to'
p4707
S'play'
p4708
S'in'
p4709
tp4710
F0.00024277737314882253
s(g4226
g4227
S'for'
p4711
tp4712
F0.0007283321194464676
s(S'also'
p4713
S'selected'
p4714
S'to'
p4715
tp4716
F0.00024277737314882253
s(g4093
g4094
g623
tp4717
F0.00024277737314882253
s(g3880
g2975
g993
tp4718
F0.00024277737314882253
s(g2485
g2486
g1892
tp4719
F0.00024277737314882253
s(S'where'
p4720
S'led'
p4721
S'[[det]]'
p4722
tp4723
F0.00024277737314882253
s(S'then'
p4724
S'played'
p4725
S'[[det]]'
p4726
tp4727
F0.00024277737314882253
s(S'has'
p4728
S'played'
p4729
S'at'
p4730
tp4731
F0.00024277737314882253
s(S'was'
p4732
S'called'
p4733
S'out'
p4734
tp4735
F0.00024277737314882253
s(S'was'
p4736
S'selected'
p4737
S'in'
p4738
tp4739
F0.00024277737314882253
s(S'was'
p4740
S'originally'
p4741
S'drafted'
p4742
tp4743
F0.0012138868657441126
s(S'college'
p4744
g1023
g1024
tp4745
F0.00024277737314882253
s(S'never'
p4746
S'played'
p4747
S'[[con]]'
p4748
tp4749
F0.00024277737314882253
s(S'[[con]]'
p4750
S'[[adj]]'
p4751
S'coordinator'
p4752
tp4753
F0.00024277737314882253
s(S'[[prp]]'
p4754
g3265
g3266
tp4755
F0.0012138868657441126
s(g4751
g4752
S'for'
p4756
tp4757
F0.00024277737314882253
s(S'[[adj]]'
p4758
S'contract'
p4759
S'for'
p4760
tp4761
F0.00048555474629764507
s(S'[[prp]]'
p4762
S'career'
p4763
S'from'
p4764
tp4765
F0.00024277737314882253
s(g3721
S'football'
p4766
S'at'
p4767
tp4768
F0.0012138868657441126
s(S'played'
p4769
g1782
g1783
tp4770
F0.00024277737314882253
s(S'played'
p4771
g1814
g1815
tp4772
F0.00024277737314882253
s(g1513
g1533
S'for'
p4773
tp4774
F0.00024277737314882253
s(S'when'
p4775
S'played'
p4776
S'for'
p4777
tp4778
F0.00024277737314882253
s(S'returned'
p4779
S'as'
p4780
S'head'
p4781
tp4782
F0.00024277737314882253
s(g1469
g1470
S'between'
p4783
tp4784
F0.00024277737314882253
s(S'[[prp]]'
p4785
S'debut'
p4786
S'[[con]]'
p4787
tp4788
F0.0007283321194464676
s(S'which'
p4789
S'led'
p4790
S'[[det]]'
p4791
tp4792
F0.00024277737314882253
s(S'[[adj]]'
p4793
S'played'
p4794
S'for'
p4795
tp4796
F0.0012138868657441126
s(S'[[det]]'
p4797
g2288
g1189
tp4798
F0.0007283321194464676
s(S'association'
p4799
S'football'
p4800
S'who'
p4801
tp4802
F0.00024277737314882253
s(S'[[det]]'
p4803
g2726
g69
tp4804
F0.00048555474629764507
s(S'had'
p4805
S'won'
p4806
S'[[prp]]'
p4807
tp4808
F0.00024277737314882253
s(g1648
g1649
S'with'
p4809
tp4810
F0.00048555474629764507
s(g408
g1597
g1598
tp4811
F0.00024277737314882253
s(S'[[adj]]'
p4812
S'member'
p4813
S'[[num]]'
p4814
tp4815
F0.00024277737314882253
s(S'[[adj]]'
p4816
S'member'
p4817
S'at'
p4818
tp4819
F0.00024277737314882253
s(S'never'
p4820
S'left'
p4821
S'[[det]]'
p4822
tp4823
F0.00024277737314882253
s(S'[[adj]]'
p4824
g2632
g2633
tp4825
F0.00048555474629764507
s(g337
g338
g233
tp4826
F0.0009711094925952901
s(g2895
g2896
S'spent'
p4827
tp4828
F0.00024277737314882253
s(S'spent'
p4829
g3896
g3897
tp4830
F0.00024277737314882253
s(S'was'
p4831
S'selected'
p4832
S'to'
p4833
tp4834
F0.00024277737314882253
s(S'has'
p4835
S'won'
p4836
S'with'
p4837
tp4838
F0.00024277737314882253
s(S'to'
p4839
S'coach'
p4840
S'[[num]]'
p4841
tp4842
F0.00024277737314882253
s(S'who'
p4843
S'won'
p4844
S'[[det]]'
p4845
tp4846
F0.00024277737314882253
s(g1495
S'player'
p4847
S'in'
p4848
tp4849
F0.0007283321194464676
s(S'had'
p4850
g1085
g1086
tp4851
F0.00024277737314882253
s(S'football'
p4852
g3025
g3026
tp4853
F0.00024277737314882253
s(S'[[det]]'
p4854
S'affiliate'
p4855
S'of'
p4856
tp4857
F0.00048555474629764507
s(g4313
g4587
S'played'
p4858
tp4859
F0.00048555474629764507
s(g1894
g2584
g2585
tp4860
F0.00024277737314882253
s(S'has'
p4861
S'joined'
p4862
S'[[det]]'
p4863
tp4864
F0.00024277737314882253
s(g255
g1914
g1915
tp4865
F0.00024277737314882253
s(S'round'
p4866
S'pick'
p4867
S'[[adj]]'
p4868
tp4869
F0.00024277737314882253
s(S'then'
p4870
S'played'
p4871
S'professionally'
p4872
tp4873
F0.00048555474629764507
s(S'was'
p4874
S'signed'
p4875
S'as'
p4876
tp4877
F0.00024277737314882253
s(S'basketball'
p4878
S'player'
p4879
S'at'
p4880
tp4881
F0.00024277737314882253
s(S'previously'
p4882
S'played'
p4883
S'for'
p4884
tp4885
F0.0012138868657441126
s(g1051
g1052
S'professionally'
p4886
tp4887
F0.0007283321194464676
s(S'[[num]]'
p4888
S'played'
p4889
S'at'
p4890
tp4891
F0.00024277737314882253
s(g4097
g4098
S'ndash'
p4892
tp4893
F0.0019422189851905803
s(S'to'
p4894
S'play'
p4895
S'with'
p4896
tp4897
F0.00024277737314882253
s(S'player'
p4898
S'playing'
p4899
S'in'
p4900
tp4901
F0.00024277737314882253
s(S'played'
p4902
S'[[det]]'
p4903
g3787
tp4904
F0.0016994416120417577
s(S'later'
p4905
S'joined'
p4906
S'[[det]]'
p4907
tp4908
F0.00024277737314882253
s(S'played'
p4909
g4754
g3265
tp4910
F0.0007283321194464676
s(S'also'
p4911
S'played'
p4912
S'rules'
p4913
tp4914
F0.00024277737314882253
s(S'in'
p4915
S'won'
p4916
S'[[det]]'
p4917
tp4918
F0.00024277737314882253
s(S'[[con]]'
p4919
S'signed'
p4920
S'up'
p4921
tp4922
F0.00024277737314882253
s(S'played'
p4923
S'in'
p4924
S'games'
p4925
tp4926
F0.00024277737314882253
s(S'player'
p4927
S'who'
p4928
S'plays'
p4929
tp4930
F0.0021849963583394027
s(g2096
g2097
S'games'
p4931
tp4932
F0.00024277737314882253
s(S'was'
p4933
g1826
g1827
tp4934
F0.00024277737314882253
s(S'[[prp]]'
p4935
S'time'
p4936
S'between'
p4937
tp4938
F0.00024277737314882253
s(S'[[det]]'
p4939
S'coach'
p4940
S'at'
p4941
tp4942
F0.00024277737314882253
s(S'was'
p4943
g985
g986
tp4944
F0.00024277737314882253
s(g2291
g2292
g3610
tp4945
F0.00024277737314882253
s(S'[[adj]]'
p4946
S'won'
p4947
S'for'
p4948
tp4949
F0.00024277737314882253
s(S'was'
p4950
S'number'
p4951
S'[[num]]'
p4952
tp4953
F0.00024277737314882253
s(S'is'
p4954
g4319
g4320
tp4955
F0.00024277737314882253
s(S'was'
p4956
g121
g122
tp4957
F0.00024277737314882253
s(S'head'
p4958
S'coach'
p4959
S'[[num]]'
p4960
tp4961
F0.00048555474629764507
s(S'later'
p4962
S'won'
p4963
S'[[det]]'
p4964
tp4965
F0.00024277737314882253
s(g889
g890
g1078
tp4966
F0.00048555474629764507
s(S'also'
p4967
S'played'
p4968
S'over'
p4969
tp4970
F0.00024277737314882253
s(g2565
g2566
S'as'
p4971
tp4972
F0.00024277737314882253
s(S'was'
p4973
S'signed'
p4974
S'[[con]]'
p4975
tp4976
F0.00024277737314882253
s(S'played'
p4977
g3037
g3038
tp4978
F0.00024277737314882253
s(S'later'
p4979
S'played'
p4980
S'[[det]]'
p4981
tp4982
F0.00024277737314882253
s(S'played'
p4983
g1647
g1648
tp4984
F0.0007283321194464676
s(S'spent'
p4985
S'[[adj]]'
p4986
S'seasons'
p4987
tp4988
F0.0012138868657441126
s(S'while'
p4989
S'playing'
p4990
S'with'
p4991
tp4992
F0.00024277737314882253
s(S'became'
p4993
S'member'
p4994
S'for'
p4995
tp4996
F0.00024277737314882253
s(S'also'
p4997
S'led'
p4998
S'[[con]]'
p4999
tp5000
F0.00024277737314882253
s(S'[[adj]]'
p5001
S'time'
p5002
S'to'
p5003
tp5004
F0.00024277737314882253
s(S'been'
p5005
S'signed'
p5006
S'from'
p5007
tp5008
F0.00024277737314882253
s(S'was'
p5009
S'head'
p5010
g3104
tp5011
F0.00024277737314882253
s(S'first'
p5012
S'represented'
p5013
S'for'
p5014
tp5015
F0.00024277737314882253
s(S'[[det]]'
p5016
S'leader'
p5017
S'[[con]]'
p5018
tp5019
F0.00024277737314882253
s(S'has'
p5020
S'taken'
p5021
S'[[det]]'
p5022
tp5023
F0.00024277737314882253
s(S'left'
p5024
S'to'
p5025
g4296
tp5026
F0.00024277737314882253
s(g2942
g2943
S'currently'
p5027
tp5028
F0.00024277737314882253
s(g1086
g1087
S'head'
p5029
tp5030
F0.00024277737314882253
s(S'later'
p5031
S'played'
p5032
S'for'
p5033
tp5034
F0.0007283321194464676
s(S'coach'
p5035
g3688
g3689
tp5036
F0.00024277737314882253
s(S'also'
p5037
S'play'
p5038
S'in'
p5039
tp5040
F0.00024277737314882253
s(g2577
g2578
S'football'
p5041
tp5042
F0.00024277737314882253
s(g1574
g1575
S'by'
p5043
tp5044
F0.0016994416120417577
s(S'also'
p5045
S'signed'
p5046
S'[[det]]'
p5047
tp5048
F0.00024277737314882253
s(S'then'
p5049
S'played'
p5050
S'[[num]]'
p5051
tp5052
F0.0012138868657441126
s(g510
g511
S'for'
p5053
tp5054
F0.00024277737314882253
s(S'being'
p5055
S'selected'
p5056
S'by'
p5057
tp5058
F0.00048555474629764507
s(S'not'
p5059
S'played'
p5060
S'in'
p5061
tp5062
F0.00024277737314882253
s(S'[[det]]'
p5063
S'time'
p5064
S'as'
p5065
tp5066
F0.00024277737314882253
s(S'first'
p5067
S'played'
p5068
S'against'
p5069
tp5070
F0.00024277737314882253
s(S'named'
p5071
S'as'
p5072
S'[[adj]]'
p5073
tp5074
F0.00024277737314882253
s(S'[[adj]]'
p5075
S'forward'
p5076
S'for'
p5077
tp5078
F0.00024277737314882253
s(S'be'
p5079
S'called'
p5080
S'up'
p5081
tp5082
F0.00024277737314882253
s(S'also'
p5083
S'plays'
p5084
S'in'
p5085
tp5086
F0.00024277737314882253
s(g2946
g2947
g2015
tp5087
F0.00024277737314882253
s(S'[[adj]]'
p5088
S'seasons'
p5089
S'for'
p5090
tp5091
F0.0012138868657441126
s(S'was'
p5092
S'selected'
p5093
S'after'
p5094
tp5095
F0.00024277737314882253
s(S'was'
p5096
g2170
g1231
tp5097
F0.0014566642388929353
s(S'was'
p5098
S'joined'
p5099
S'[[det]]'
p5100
tp5101
F0.00024277737314882253
s(S'[[num]]'
p5102
S'games'
p5103
S'against'
p5104
tp5105
F0.0009711094925952901
s(S'had'
p5106
S'joined'
p5107
S'of'
p5108
tp5109
F0.00024277737314882253
s(g664
g665
S'from'
p5110
tp5111
F0.00024277737314882253
s(S'was'
p5112
S'signed'
p5113
S'in'
p5114
tp5115
F0.00024277737314882253
s(S'was'
p5116
S'named'
p5117
S'[[adj]]'
p5118
tp5119
F0.00024277737314882253
s(g1791
g1792
S'playing'
p5120
tp5121
F0.00024277737314882253
s(S'has'
p5122
S'won'
p5123
S'at'
p5124
tp5125
F0.00024277737314882253
s(S'spent'
p5126
S'[[det]]'
p5127
S'[[num]]'
p5128
tp5129
F0.0021849963583394027
s(g1357
g1358
g4148
tp5130
F0.0009711094925952901
s(g2964
g2965
S'with'
p5131
tp5132
F0.00024277737314882253
s(S'who'
p5133
S'plays'
p5134
S'for'
p5135
tp5136
F0.0024277737314882253
s(g4903
g3787
g3788
tp5137
F0.00048555474629764507
s(S'was'
p5138
S'coach'
p5139
S'at'
p5140
tp5141
F0.00024277737314882253
s(g1102
g1103
S'seasons'
p5142
tp5143
F0.0014566642388929353
s(S'[[mod]]'
p5144
S'play'
p5145
S'against'
p5146
tp5147
F0.00024277737314882253
s(S'football'
p5148
g1050
g1051
tp5149
F0.00024277737314882253
s(S'[[det]]'
p5150
S'contract'
p5151
S'for'
p5152
tp5153
F0.00024277737314882253
s(S'drafted'
p5154
S'[[adj]]'
p5155
S'with'
p5156
tp5157
F0.00024277737314882253
s(S'again'
p5158
S'played'
p5159
S'for'
p5160
tp5161
F0.00024277737314882253
s(S'best'
p5162
S'player'
p5163
S'in'
p5164
tp5165
F0.00024277737314882253
s(g4928
g4929
S'with'
p5166
tp5167
F0.00024277737314882253
s(S'[[prp]]'
p5168
S'career'
p5169
S'as'
p5170
tp5171
F0.00024277737314882253
s(g1494
g1495
g4847
tp5172
F0.00024277737314882253
s(S'also'
p5173
S'won'
p5174
S'from'
p5175
tp5176
F0.00024277737314882253
s(S'also'
p5177
S'played'
p5178
S'[[adj]]'
p5179
tp5180
F0.0009711094925952901
s(S'left'
p5181
S'to'
p5182
S'[[det]]'
p5183
tp5184
F0.0009711094925952901
s(g1720
g1721
S'played'
p5185
tp5186
F0.00024277737314882253
s(S'[[det]]'
p5187
S'stint'
p5188
S'at'
p5189
tp5190
F0.00024277737314882253
s(S'also'
p5191
S'signed'
p5192
S'for'
p5193
tp5194
F0.00024277737314882253
s(S'be'
p5195
S'selected'
p5196
S'by'
p5197
tp5198
F0.00024277737314882253
s(S'more'
p5199
S'seasons'
p5200
S'with'
p5201
tp5202
F0.00048555474629764507
s(S'to'
p5203
S'join'
p5204
S'up'
p5205
tp5206
F0.00024277737314882253
s(S'[[mod]]'
p5207
S'lead'
p5208
S'[[det]]'
p5209
tp5210
F0.00024277737314882253
s(S'also'
p5211
S'selected'
p5212
S'as'
p5213
tp5214
F0.00024277737314882253
s(S'[[adj]]'
p5215
g2890
g2891
tp5216
F0.00024277737314882253
s(g1915
g1916
S'held'
p5217
tp5218
F0.00048555474629764507
s(S'was'
p5219
S'featured'
p5220
S'by'
p5221
tp5222
F0.00024277737314882253
s(S'also'
p5223
S'led'
p5224
S'[[det]]'
p5225
tp5226
F0.00024277737314882253
s(g4105
g4106
S'[[con]]'
p5227
tp5228
F0.005098324836125273
s(S'[[prp]]'
p5229
S'debut'
p5230
S'when'
p5231
tp5232
F0.00024277737314882253
s(S'to'
p5233
S'join'
p5234
S'[[num]]'
p5235
tp5236
F0.00024277737314882253
s(S'named'
p5237
g3192
g3193
tp5238
F0.0007283321194464676
s(S'had'
p5239
S'won'
p5240
S'at'
p5241
tp5242
F0.00024277737314882253
s(S'also'
p5243
S'playing'
p5244
S'in'
p5245
tp5246
F0.00024277737314882253
s(g1660
g1661
S'games'
p5247
tp5248
F0.00048555474629764507
s(S'[[det]]'
p5249
S'member'
p5250
S'when'
p5251
tp5252
F0.00024277737314882253
s(S'[[adj]]'
p5253
S'debut'
p5254
S'to'
p5255
tp5256
F0.00024277737314882253
s(S'[[det]]'
p5257
S'stint'
p5258
S'with'
p5259
tp5260
F0.00024277737314882253
s(g3460
g3047
g3048
tp5261
F0.0012138868657441126
s(S'since'
p5262
S'played'
p5263
S'for'
p5264
tp5265
F0.00048555474629764507
s(S'football'
p5266
S'coach'
p5267
S'[[det]]'
p5268
tp5269
F0.00024277737314882253
s(S'also'
p5270
S'won'
p5271
S'[[con]]'
p5272
tp5273
F0.00024277737314882253
s(S'was'
p5274
S'drafted'
p5275
g4573
tp5276
F0.00024277737314882253
s(S'[[adj]]'
p5277
S'games'
p5278
S'over'
p5279
tp5280
F0.00024277737314882253
s(g5182
g5183
g3734
tp5281
F0.0009711094925952901
s(g2486
g1892
g1893
tp5282
F0.00024277737314882253
s(g1716
g1717
S'head'
p5283
tp5284
F0.0007283321194464676
s(S'later'
p5285
S'represented'
p5286
S'[[det]]'
p5287
tp5288
F0.00024277737314882253
s(S'when'
p5289
S'was'
p5290
S'named'
p5291
tp5292
F0.00024277737314882253
s(g4137
g4138
S'born'
p5293
tp5294
F0.00024277737314882253
s(g3944
g4440
S'of'
p5295
tp5296
F0.00024277737314882253
s(S'[[det]]'
p5297
S'coach'
p5298
S'of'
p5299
tp5300
F0.00024277737314882253
s(g2233
g3528
S'with'
p5301
tp5302
F0.00024277737314882253
s(g5025
g4296
g4297
tp5303
F0.00024277737314882253
s(S'again'
p5304
S'returned'
p5305
S'[[con]]'
p5306
tp5307
F0.00024277737314882253
s(S'was'
p5308
S'selected'
p5309
S'[[con]]'
p5310
tp5311
F0.0016994416120417577
s(S'[[num]]'
p5312
S'played'
p5313
S'for'
p5314
tp5315
F0.00048555474629764507
s(S'became'
p5316
S'coach'
p5317
S'[[det]]'
p5318
tp5319
F0.00024277737314882253
s(g5155
g5156
S'played'
p5320
tp5321
F0.00024277737314882253
s(S'formerly'
p5322
S'played'
p5323
S'[[con]]'
p5324
tp5325
F0.00024277737314882253
s(S'also'
p5326
S'play'
p5327
S'for'
p5328
tp5329
F0.00024277737314882253
s(S'played'
p5330
g4355
g4356
tp5331
F0.0007283321194464676
s(S'when'
p5332
S'signed'
p5333
S'with'
p5334
tp5335
F0.00024277737314882253
s(S'been'
p5336
S'chosen'
p5337
S'at'
p5338
tp5339
F0.00024277737314882253
s(S'[[con]]'
p5340
S'won'
p5341
S'[[con]]'
p5342
tp5343
F0.00024277737314882253
s(g957
g958
S'playing'
p5344
tp5345
F0.00024277737314882253
s(S'instead'
p5346
S'signed'
p5347
S'with'
p5348
tp5349
F0.00024277737314882253
s(S'played'
p5350
S'[[con]]'
p5351
S'professionally'
p5352
tp5353
F0.00024277737314882253
s(S'also'
p5354
S'won'
p5355
S'as'
p5356
tp5357
F0.00024277737314882253
s(S'[[prp]]'
p5358
S'debut'
p5359
S'in'
p5360
tp5361
F0.00024277737314882253
s(g3914
g3915
S'games'
p5362
tp5363
F0.00024277737314882253
s(S'was'
p5364
S'taken'
p5365
S'on'
p5366
tp5367
F0.00024277737314882253
s(S'then'
p5368
S'returned'
p5369
S'to'
p5370
tp5371
F0.00024277737314882253
s(S'football'
p5372
S'safety'
p5373
S'player'
p5374
tp5375
F0.00024277737314882253
s(S'[[det]]'
p5376
S'team'
p5377
g233
tp5378
F0.00024277737314882253
s(S'[[num]]'
p5379
S'time'
p5380
S'of'
p5381
tp5382
F0.00024277737314882253
s(S'[[det]]'
p5383
g3255
g2664
tp5384
F0.00024277737314882253
s(S'is'
p5385
S'selected'
p5386
S'as'
p5387
tp5388
F0.00024277737314882253
s(S'when'
p5389
S'signed'
p5390
S'up'
p5391
tp5392
F0.00024277737314882253
s(S'[[num]]'
p5393
S'game'
p5394
S'in'
p5395
tp5396
F0.0007283321194464676
s(S'[[adj]]'
p5397
g1964
g1965
tp5398
F0.00024277737314882253
s(S'college'
p5399
g3336
g3337
tp5400
F0.0019422189851905803
s(S'to'
p5401
S'head'
p5402
S'at'
p5403
tp5404
F0.00024277737314882253
s(g1490
g1491
S'of'
p5405
tp5406
F0.006312211701869385
s(S'also'
p5407
S'played'
p5408
S'where'
p5409
tp5410
F0.00024277737314882253
s(S'then'
p5411
S'signed'
p5412
S'to'
p5413
tp5414
F0.00024277737314882253
s(S'was'
p5415
S'signed'
p5416
S'up'
p5417
tp5418
F0.00024277737314882253
s(S'[[det]]'
p5419
S'located'
p5420
S'in'
p5421
tp5422
F0.00048555474629764507
s(g4800
g4801
S'played'
p5423
tp5424
F0.00024277737314882253
s(S'[[adj]]'
p5425
S'contract'
p5426
S'in'
p5427
tp5428
F0.00048555474629764507
s(S'with'
p5429
S'won'
p5430
S'in'
p5431
tp5432
F0.00024277737314882253
s(S'in'
p5433
g394
g395
tp5434
F0.00048555474629764507
s(S'then'
p5435
S'spent'
p5436
S'[[num]]'
p5437
tp5438
F0.0009711094925952901
s(S'[[det]]'
p5439
S'forward'
p5440
S'with'
p5441
tp5442
F0.00024277737314882253
s(S'was'
p5443
S'taken'
p5444
S'by'
p5445
tp5446
F0.00024277737314882253
s(S'[[prp]]'
p5447
S'[[adj]]'
p5448
S'school'
p5449
tp5450
F0.00024277737314882253
s(S'currently'
p5451
S'signed'
p5452
S'to'
p5453
tp5454
F0.00024277737314882253
s(S'was'
p5455
S'playing'
p5456
S'against'
p5457
tp5458
F0.00024277737314882253
s(S'still'
p5459
S'playing'
p5460
S'for'
p5461
tp5462
F0.00024277737314882253
s(S'were'
p5463
S'signed'
p5464
S'by'
p5465
tp5466
F0.00024277737314882253
s(S'college'
p5467
g2937
g2938
tp5468
F0.00024277737314882253
s(S'was'
p5469
S'suspended'
p5470
S'after'
p5471
tp5472
F0.00024277737314882253
s(S'also'
p5473
S'selected'
p5474
S'[[adj]]'
p5475
tp5476
F0.00024277737314882253
s(S'[[prp]]'
p5477
S'career'
p5478
S'in'
p5479
tp5480
F0.00024277737314882253
s(g1417
g1418
g3257
tp5481
F0.00024277737314882253
s(g4450
g4451
S'coach'
p5482
tp5483
F0.00024277737314882253
s(S'[[adj]]'
p5484
S'debut'
p5485
S'with'
p5486
tp5487
F0.0007283321194464676
s(S'then'
p5488
S'selected'
p5489
S'in'
p5490
tp5491
F0.00024277737314882253
s(S'is'
p5492
g3007
g308
tp5493
F0.002670551104637048
s(S'[[num]]'
p5494
g4878
g4879
tp5495
F0.00048555474629764507
s(S'[[det]]'
p5496
S'football'
p5497
g2408
tp5498
F0.00024277737314882253
s(S'who'
p5499
S'played'
p5500
S'professionally'
p5501
tp5502
F0.00048555474629764507
s(S'had'
p5503
g4882
g4883
tp5504
F0.0007283321194464676
s(S'played'
p5505
g4532
g4533
tp5506
F0.0024277737314882253
s(S'[[det]]'
p5507
S'head'
p5508
g4363
tp5509
F0.00048555474629764507
s(g2701
g2702
S'coach'
p5510
tp5511
F0.0016994416120417577
s(S'also'
p5512
S'won'
p5513
S'[[det]]'
p5514
tp5515
F0.00024277737314882253
s(S'also'
p5516
S'won'
p5517
S'[[num]]'
p5518
tp5519
F0.00024277737314882253
s(g3800
g3498
g3499
tp5520
F0.00024277737314882253
s(g103
g2121
S'men'
p5521
tp5522
F0.0007283321194464676
s(S'began'
p5523
S'[[prp]]'
p5524
S'career'
p5525
tp5526
F0.002670551104637048
s(g1807
g1808
S'for'
p5527
tp5528
F0.0014566642388929353
s(g1562
g1563
S'for'
p5529
tp5530
F0.00024277737314882253
s(S'[[num]]'
p5531
S'who'
p5532
S'played'
p5533
tp5534
F0.00048555474629764507
s(S'soon'
p5535
S'joined'
p5536
S'[[det]]'
p5537
tp5538
F0.00024277737314882253
s(S'[[con]]'
p5539
S'has'
p5540
S'played'
p5541
tp5542
F0.0007283321194464676
s(S'played'
p5543
S'before'
p5544
g1027
tp5545
F0.00024277737314882253
s(g1536
g1537
S'for'
p5546
tp5547
F0.00024277737314882253
s(g3018
g3019
S'years'
p5548
tp5549
F0.00024277737314882253
s(S'who'
p5550
g4697
g4698
tp5551
F0.00024277737314882253
s(S'[[adj]]'
p5552
g2941
g2942
tp5553
F0.00024277737314882253
s(g419
g420
g3598
tp5554
F0.00048555474629764507
s(g2833
g2834
g3720
tp5555
F0.00024277737314882253
s(S'soon'
p5556
S'left'
p5557
S'to'
p5558
tp5559
F0.00024277737314882253
s(S'[[pro]]'
p5560
S'time'
p5561
S'in'
p5562
tp5563
F0.00024277737314882253
s(S'[[det]]'
p5564
S'coach'
p5565
S'[[con]]'
p5566
tp5567
F0.00024277737314882253
s(g233
S'debut'
p5568
S'against'
p5569
tp5570
F0.00024277737314882253
s(S'[[det]]'
p5571
S'left'
p5572
S'of'
p5573
tp5574
F0.00024277737314882253
s(g5373
g5374
S'for'
p5575
tp5576
F0.00024277737314882253
s(S'then'
p5577
S'played'
p5578
S'against'
p5579
tp5580
F0.00024277737314882253
s(S'football'
p5581
S'player'
p5582
S'for'
p5583
tp5584
F0.0007283321194464676
s(g171
S'played'
p5585
S'mostly'
p5586
tp5587
F0.00024277737314882253
s(S'is'
p5588
S'[[det]]'
p5589
S'college'
p5590
tp5591
F0.00024277737314882253
s(S'had'
p5592
S'played'
p5593
S'against'
p5594
tp5595
F0.00024277737314882253
s(S'also'
p5596
S'plays'
p5597
S'for'
p5598
tp5599
F0.00024277737314882253
s(S'also'
p5600
S'member'
p5601
S'[[con]]'
p5602
tp5603
F0.00024277737314882253
s(g42
g43
S'played'
p5604
tp5605
F0.00024277737314882253
s(S'[[adj]]'
p5606
S'play'
p5607
S'with'
p5608
tp5609
F0.00024277737314882253
s(S'[[adj]]'
p5610
g4225
g4226
tp5611
F0.00024277737314882253
s(S'has'
p5612
S'won'
p5613
S'[[det]]'
p5614
tp5615
F0.00024277737314882253
s(S'was'
p5616
S'called'
p5617
S'before'
p5618
tp5619
F0.00024277737314882253
s(S'not'
p5620
S'selected'
p5621
S'in'
p5622
tp5623
F0.00024277737314882253
s(S'to'
p5624
S'play'
p5625
S'at'
p5626
tp5627
F0.00024277737314882253
s(S'then'
p5628
S'left'
p5629
S'for'
p5630
tp5631
F0.00024277737314882253
s(S'[[adj]]'
p5632
S'debut'
p5633
S'against'
p5634
tp5635
F0.00024277737314882253
s(S'instead'
p5636
S'joined'
p5637
S'[[det]]'
p5638
tp5639
F0.00024277737314882253
s(g3313
g2300
g2301
tp5640
F0.00024277737314882253
s(g34
g35
S'also'
p5641
tp5642
F0.00024277737314882253
s(g4374
g4375
S'plays'
p5643
tp5644
F0.0038844379703811605
s(S'[[det]]'
p5645
g888
g889
tp5646
F0.0012138868657441126
s(S'[[mod]]'
p5647
S'join'
p5648
S'at'
p5649
tp5650
F0.00024277737314882253
s(S'[[num]]'
p5651
g489
g490
tp5652
F0.0021849963583394027
s(S'round'
p5653
S'pick'
p5654
S'of'
p5655
tp5656
F0.00024277737314882253
s(S'was'
p5657
S'playing'
p5658
S'with'
p5659
tp5660
F0.00024277737314882253
s(S'which'
p5661
S'won'
p5662
S'[[pro]]'
p5663
tp5664
F0.00024277737314882253
s(g233
S'team'
p5665
S'in'
p5666
tp5667
F0.00024277737314882253
s(S'with'
p5668
S'[[det]]'
p5669
S'affiliate'
p5670
tp5671
F0.00024277737314882253
s(S'[[adj]]'
p5672
S'played'
p5673
S'as'
p5674
tp5675
F0.00024277737314882253
s(S'[[adj]]'
p5676
S'football'
p5677
S'player'
p5678
tp5679
F0.006797766448167031
s(S'head'
p5680
g3595
g2123
tp5681
F0.00048555474629764507
s(S'signed'
p5682
S'[[adj]]'
p5683
S'contract'
p5684
tp5685
F0.00024277737314882253
s(g4574
g4575
S'of'
p5686
tp5687
F0.00024277737314882253
s(S'became'
p5688
S'head'
p5689
S'of'
p5690
tp5691
F0.00024277737314882253
s(g3720
g3721
g4766
tp5692
F0.0014566642388929353
s(g1318
g784
g785
tp5693
F0.00024277737314882253
s(S'[[con]]'
p5694
S'won'
p5695
S'[[num]]'
p5696
tp5697
F0.00024277737314882253
s(S'born'
p5698
g3636
g3637
tp5699
F0.00048555474629764507
s(S'had'
p5700
S'signed'
p5701
S'for'
p5702
tp5703
F0.00024277737314882253
s(S'still'
p5704
S'plays'
p5705
S'for'
p5706
tp5707
F0.00024277737314882253
s(g4328
g4329
S'points'
p5708
tp5709
F0.0007283321194464676
s(S'[[adj]]'
p5710
S'seasons'
p5711
S'[[det]]'
p5712
tp5713
F0.00024277737314882253
s(S'[[prp]]'
p5714
S'career'
p5715
S'by'
p5716
tp5717
F0.00024277737314882253
s(g5497
g2408
g2409
tp5718
F0.00024277737314882253
s(S'been'
p5719
S'playing'
p5720
S'with'
p5721
tp5722
F0.00024277737314882253
s(S'where'
p5723
S'joined'
p5724
S'[[det]]'
p5725
tp5726
F0.00024277737314882253
s(S'then'
p5727
S'won'
p5728
S'[[det]]'
p5729
tp5730
F0.00024277737314882253
s(S'to'
p5731
S'sign'
p5732
S'for'
p5733
tp5734
F0.00024277737314882253
s(S'football'
p5735
g217
g218
tp5736
F0.00024277737314882253
s(g4375
g5643
S'for'
p5737
tp5738
F0.004369992716678805
s(S'had'
p5739
S'won'
p5740
S'for'
p5741
tp5742
F0.00024277737314882253
s(S'was'
p5743
S'member'
p5744
S'at'
p5745
tp5746
F0.00024277737314882253
s(g756
g757
S'in'
p5747
tp5748
F0.00024277737314882253
s(S'[[det]]'
p5749
S'player'
p5750
S'on'
p5751
tp5752
F0.00024277737314882253
s(S'was'
p5753
S'playing'
p5754
S'as'
p5755
tp5756
F0.00024277737314882253
s(S'[[adj]]'
p5757
S'member'
p5758
S'of'
p5759
tp5760
F0.00024277737314882253
s(S'[[prp]]'
p5761
S'time'
p5762
S'to'
p5763
tp5764
F0.00024277737314882253
s(g1202
g1203
g2297
tp5765
F0.0012138868657441126
s(S'[[num]]'
p5766
S'time'
p5767
S'[[adj]]'
p5768
tp5769
F0.00024277737314882253
s(S'also'
p5770
S'played'
p5771
S'of'
p5772
tp5773
F0.00024277737314882253
s(S'previously'
p5774
S'played'
p5775
S'college'
p5776
tp5777
F0.00024277737314882253
s(S'to'
p5778
S'play'
p5779
S'until'
p5780
tp5781
F0.00024277737314882253
s(S'again'
p5782
S'called'
p5783
S'up'
p5784
tp5785
F0.00024277737314882253
s(S'later'
p5786
S'joined'
p5787
S'at'
p5788
tp5789
F0.00024277737314882253
s(g4165
g2031
g513
tp5790
F0.00024277737314882253
s(g1696
g1697
S'[[det]]'
p5791
tp5792
F0.00048555474629764507
s(S'played'
p5793
g1066
g1067
tp5794
F0.00024277737314882253
s(g3503
g3504
g4020
tp5795
F0.0019422189851905803
s(S'[[con]]'
p5796
S'won'
p5797
S'[[det]]'
p5798
tp5799
F0.00024277737314882253
s(S'[[det]]'
p5800
S'leader'
p5801
S'for'
p5802
tp5803
F0.00024277737314882253
s(S'also'
p5804
S'joined'
p5805
S'[[det]]'
p5806
tp5807
F0.00024277737314882253
s(g958
g5344
S'for'
p5808
tp5809
F0.005098324836125273
s(g3511
g3512
S'majority'
p5810
tp5811
F0.0014566642388929353
s(g2427
g2428
S'championships'
p5812
tp5813
F0.00024277737314882253
s(S'then'
p5814
S'playing'
p5815
S'in'
p5816
tp5817
F0.00024277737314882253
s(S'made'
p5818
S'head'
p5819
S'at'
p5820
tp5821
F0.00024277737314882253
s(S'became'
p5822
S'member'
p5823
S'[[det]]'
p5824
tp5825
F0.00024277737314882253
s(S'had'
p5826
S'signed'
p5827
S'with'
p5828
tp5829
F0.00024277737314882253
s(S'again'
p5830
S'selected'
p5831
S'by'
p5832
tp5833
F0.00024277737314882253
s(S'to'
p5834
S'lead'
p5835
S'[[det]]'
p5836
tp5837
F0.00024277737314882253
s(S'at'
p5838
S'[[con]]'
p5839
S'professionally'
p5840
tp5841
F0.00024277737314882253
s(S'also'
p5842
S'played'
p5843
S'college'
p5844
tp5845
F0.00024277737314882253
s(g3659
g3660
S'for'
p5846
tp5847
F0.00024277737314882253
s(S'was'
p5848
S'called'
p5849
S'from'
p5850
tp5851
F0.00024277737314882253
s(S'[[det]]'
p5852
S'player'
p5853
S'[[con]]'
p5854
tp5855
F0.00024277737314882253
s(g4098
g4892
S'[[num]]'
p5856
tp5857
F0.0033988832240835153
s(S'had'
p5858
S'stints'
p5859
S'at'
p5860
tp5861
F0.00024277737314882253
s(S'was'
p5862
S'selected'
p5863
S'with'
p5864
tp5865
F0.00024277737314882253
s(S'played'
p5866
g4359
g2400
tp5867
F0.0019422189851905803
s(S'first'
p5868
S'played'
p5869
S'for'
p5870
tp5871
F0.00024277737314882253
s(S'to'
p5872
S'coach'
p5873
S'[[con]]'
p5874
tp5875
F0.00024277737314882253
s(S'also'
p5876
S'represented'
p5877
S'on'
p5878
tp5879
F0.00024277737314882253
s(S'later'
p5880
S'played'
p5881
S'at'
p5882
tp5883
F0.00024277737314882253
s(S'as'
p5884
S'[[adj]]'
p5885
S'football'
p5886
tp5887
F0.00024277737314882253
s(S'[[mod]]'
p5888
S'play'
p5889
S'[[det]]'
p5890
tp5891
F0.00024277737314882253
s(S'had'
p5892
S'signed'
p5893
S'up'
p5894
tp5895
F0.00024277737314882253
s(g4584
g4585
S'list'
p5896
tp5897
F0.00024277737314882253
s(S'was'
p5898
S'chosen'
p5899
S'in'
p5900
tp5901
F0.00024277737314882253
s(S'played'
p5902
g2859
g2860
tp5903
F0.0024277737314882253
s(S'be'
p5904
S'selected'
p5905
S'for'
p5906
tp5907
F0.00024277737314882253
s(S'football'
p5908
S'player'
p5909
S'in'
p5910
tp5911
F0.0009711094925952901
s(g3427
g3428
S'for'
p5912
tp5913
F0.00024277737314882253
s(S'had'
p5914
g3950
g3951
tp5915
F0.00048555474629764507
s(S'born'
p5916
g5531
g5532
tp5917
F0.00048555474629764507
s(S'college'
p5918
S'football'
p5919
S'where'
p5920
tp5921
F0.00024277737314882253
s(S'career'
p5922
S'games'
p5923
S'for'
p5924
tp5925
F0.00024277737314882253
s(g1981
g1982
S'coach'
p5926
tp5927
F0.0016994416120417577
s(S'[[det]]'
p5928
S'time'
p5929
S'[[det]]'
p5930
tp5931
F0.00024277737314882253
s(g5544
g1027
g1028
tp5932
F0.00048555474629764507
s(S'spent'
p5933
g1873
g1874
tp5934
F0.0009711094925952901
s(S'[[num]]'
p5935
S'games'
p5936
S'[[det]]'
p5937
tp5938
F0.00024277737314882253
s(S'has'
p5939
S'represented'
p5940
S'[[con]]'
p5941
tp5942
F0.00024277737314882253
s(S'[[num]]'
p5943
S'[[det]]'
p5944
S'player'
p5945
tp5946
F0.00024277737314882253
s(S'then'
p5947
S'returned'
p5948
S'with'
p5949
tp5950
F0.00024277737314882253
s(S'had'
p5951
S'led'
p5952
S'[[det]]'
p5953
tp5954
F0.00024277737314882253
s(g1010
g1011
S'[[det]]'
p5955
tp5956
F0.00024277737314882253
s(S'then'
p5957
S'left'
p5958
S'[[con]]'
p5959
tp5960
F0.00024277737314882253
s(S'[[mod]]'
p5961
S'join'
p5962
S'up'
p5963
tp5964
F0.00024277737314882253
s(g459
g460
S'pick'
p5965
tp5966
F0.00024277737314882253
s(g3278
g2622
g790
tp5967
F0.00024277737314882253
s(S'split'
p5968
S'time'
p5969
S'in'
p5970
tp5971
F0.00024277737314882253
s(S'[[det]]'
p5972
S'returned'
p5973
S'to'
p5974
tp5975
F0.00024277737314882253
s(S'as'
p5976
g1561
g1562
tp5977
F0.00024277737314882253
s(g2856
g2857
S'[[con]]'
p5978
tp5979
F0.00024277737314882253
s(S'had'
p5980
S'resigned'
p5981
S'as'
p5982
tp5983
F0.00024277737314882253
s(S'[[det]]'
p5984
S'stint'
p5985
S'in'
p5986
tp5987
F0.00024277737314882253
s(S'played'
p5988
g924
g925
tp5989
F0.0021849963583394027
s(S'played'
p5990
g3093
g619
tp5991
F0.00024277737314882253
s(S'signed'
p5992
S'[[prp]]'
p5993
S'contract'
p5994
tp5995
F0.00024277737314882253
s(g2601
g2602
g2758
tp5996
F0.00024277737314882253
s(S'ice'
p5997
S'hockey'
p5998
g4197
tp5999
F0.00024277737314882253
s(S'[[num]]'
p6000
g5610
g4225
tp6001
F0.00024277737314882253
s(S'taken'
p6002
g458
g459
tp6003
F0.00024277737314882253
s(S'is'
p6004
S'signed'
p6005
S'to'
p6006
tp6007
F0.00024277737314882253
s(S'[[adj]]'
p6008
S'round'
p6009
S'[[adj]]'
p6010
tp6011
F0.00024277737314882253
s(S'then'
p6012
S'selected'
p6013
S'by'
p6014
tp6015
F0.00024277737314882253
s(S'basketball'
p6016
S'player'
p6017
S'for'
p6018
tp6019
F0.00024277737314882253
s(S'[[adj]]'
p6020
S'head'
p6021
S'[[con]]'
p6022
tp6023
F0.00024277737314882253
s(g3702
g4636
S'[[det]]'
p6024
tp6025
F0.00024277737314882253
s(S'[[prp]]'
p6026
S'debut'
p6027
S'away'
p6028
tp6029
F0.00024277737314882253
s(S'[[con]]'
p6030
S'play'
p6031
S'for'
p6032
tp6033
F0.00024277737314882253
s(S'[[con]]'
p6034
S'joined'
p6035
S'of'
p6036
tp6037
F0.00024277737314882253
s(g781
g782
S'games'
p6038
tp6039
F0.00024277737314882253
s(S'also'
p6040
S'represented'
p6041
S'to'
p6042
tp6043
F0.00024277737314882253
s(g5510
g344
g345
tp6044
F0.0012138868657441126
s(S'spent'
p6045
S'[[num]]'
p6046
S'more'
p6047
tp6048
F0.00048555474629764507
s(g2305
g2306
S'[[num]]'
p6049
tp6050
F0.00024277737314882253
s(S'now'
p6051
S'playing'
p6052
S'in'
p6053
tp6054
F0.00024277737314882253
s(S'[[mod]]'
p6055
S'play'
p6056
S'from'
p6057
tp6058
F0.00024277737314882253
s(S'[[num]]'
p6059
S'member'
p6060
S'of'
p6061
tp6062
F0.00024277737314882253
s(S'then'
p6063
S'signed'
p6064
S'[[det]]'
p6065
tp6066
F0.00048555474629764507
s(g2928
g2929
S'player'
p6067
tp6068
F0.0014566642388929353
s(S'[[pro]]'
p6069
S'signed'
p6070
S'with'
p6071
tp6072
F0.00024277737314882253
s(S'then'
p6073
S'played'
p6074
S'also'
p6075
tp6076
F0.00024277737314882253
s(S'[[det]]'
p6077
S'team'
p6078
S'after'
p6079
tp6080
F0.00024277737314882253
s(S'then'
p6081
S'joined'
p6082
S'[[con]]'
p6083
tp6084
F0.00024277737314882253
s(g5998
g4197
g4198
tp6085
F0.00024277737314882253
s(S'ice'
p6086
g1416
g1417
tp6087
F0.00024277737314882253
s(S'until'
p6088
S'returned'
p6089
S'to'
p6090
tp6091
F0.00024277737314882253
s(g2428
g5812
S'with'
p6092
tp6093
F0.00024277737314882253
s(S'[[adj]]'
p6094
S'career'
p6095
S'by'
p6096
tp6097
F0.00024277737314882253
s(S'[[det]]'
p6098
S'leader'
p6099
S'of'
p6100
tp6101
F0.00024277737314882253
s(g170
g171
g5585
tp6102
F0.00024277737314882253
s(S'[[num]]'
p6103
S'games'
p6104
S'from'
p6105
tp6106
F0.00024277737314882253
s(S'was'
p6107
g1869
g1870
tp6108
F0.0014566642388929353
s(g1599
S'professionally'
p6109
S'in'
p6110
tp6111
F0.0016994416120417577
s(S'[[adj]]'
p6112
S'stint'
p6113
S'at'
p6114
tp6115
F0.00024277737314882253
s(S'[[det]]'
p6116
S'debut'
p6117
S'at'
p6118
tp6119
F0.00024277737314882253
s(g1076
S'[[det]]'
p6120
S'head'
p6121
tp6122
F0.00024277737314882253
s(S'[[det]]'
p6123
S'signed'
p6124
S'with'
p6125
tp6126
F0.00024277737314882253
s(S'currently'
p6127
S'plays'
p6128
S'[[con]]'
p6129
tp6130
F0.00024277737314882253
s(g3581
g3180
g3181
tp6131
F0.0009711094925952901
s(S'then'
p6132
S'selected'
p6133
S'as'
p6134
tp6135
F0.00024277737314882253
s(S'[[adj]]'
p6136
S'game'
p6137
S'[[num]]'
p6138
tp6139
F0.00024277737314882253
s(S'played'
p6140
g1482
g1483
tp6141
F0.0031561058509346927
s(S'[[det]]'
p6142
S'stint'
p6143
S'before'
p6144
tp6145
F0.00024277737314882253
s(S'signed'
p6146
g4577
g4578
tp6147
F0.0009711094925952901
s(S'also'
p6148
S'won'
p6149
S'in'
p6150
tp6151
F0.00024277737314882253
s(S'born'
p6152
g5494
g4878
tp6153
F0.00048555474629764507
s(S'has'
p6154
S'signed'
p6155
S'for'
p6156
tp6157
F0.00024277737314882253
s(S'as'
p6158
g165
g166
tp6159
F0.00024277737314882253
s(S'later'
p6160
S'signed'
p6161
S'by'
p6162
tp6163
F0.00024277737314882253
s(S'[[det]]'
p6164
S'games'
p6165
S'against'
p6166
tp6167
F0.00024277737314882253
s(S'also'
p6168
S'represented'
p6169
S'[[con]]'
p6170
tp6171
F0.00024277737314882253
s(S'that'
p6172
S'led'
p6173
S'[[det]]'
p6174
tp6175
F0.00024277737314882253
s(S'head'
p6176
g3059
g3060
tp6177
F0.0014566642388929353
s(S'[[num]]'
p6178
g5676
g5677
tp6179
F0.0024277737314882253
s(S'debut'
p6180
g5668
g5669
tp6181
F0.00024277737314882253
s(S'was'
p6182
S'taken'
p6183
S'[[adj]]'
p6184
tp6185
F0.00024277737314882253
s(S'football'
p6186
S'coach'
p6187
S'from'
p6188
tp6189
F0.00024277737314882253
s(g2308
g3269
g1539
tp6190
F0.00024277737314882253
s(g5589
g5590
g101
tp6191
F0.00048555474629764507
s(S'is'
p6192
S'returned'
p6193
S'to'
p6194
tp6195
F0.00024277737314882253
s(S'[[adj]]'
p6196
S'leader'
p6197
S'[[det]]'
p6198
tp6199
F0.00024277737314882253
s(g5993
g5994
S'with'
p6200
tp6201
F0.00024277737314882253
s(S'[[adj]]'
p6202
S'member'
p6203
S'[[adj]]'
p6204
tp6205
F0.00024277737314882253
s(g4643
g4644
S'with'
p6206
tp6207
F0.0009711094925952901
s(g4786
g4787
S'debut'
p6208
tp6209
F0.00048555474629764507
s(S'[[adj]]'
p6210
S'coach'
p6211
S'including'
p6212
tp6213
F0.00024277737314882253
s(S'played'
p6214
S'parts'
p6215
S'[[con]]'
p6216
tp6217
F0.00024277737314882253
s(S'[[det]]'
p6218
S'leader'
p6219
S'in'
p6220
tp6221
F0.00024277737314882253
s(g1395
g1396
S'against'
p6222
tp6223
F0.00048555474629764507
s(S'never'
p6224
S'played'
p6225
S'with'
p6226
tp6227
F0.00024277737314882253
s(S'basketball'
p6228
g4898
g4899
tp6229
F0.00024277737314882253
s(S'spent'
p6230
g410
g411
tp6231
F0.00048555474629764507
s(S'as'
p6232
S'head'
p6233
S'football'
p6234
tp6235
F0.00048555474629764507
s(S'only'
p6236
S'played'
p6237
S'for'
p6238
tp6239
F0.00024277737314882253
s(g1685
g842
g843
tp6240
F0.00024277737314882253
s(S'born'
p6241
g2245
g2246
tp6242
F0.00048555474629764507
s(S'played'
p6243
g2176
g2177
tp6244
F0.0019422189851905803
s(S'[[num]]'
p6245
g2927
g2928
tp6246
F0.0007283321194464676
s(S'[[det]]'
p6247
S'time'
p6248
S'from'
p6249
tp6250
F0.00024277737314882253
s(S'never'
p6251
S'won'
p6252
S'on'
p6253
tp6254
F0.00024277737314882253
s(S'as'
p6255
S'head'
p6256
S'of'
p6257
tp6258
F0.00024277737314882253
s(S'with'
p6259
S'joined'
p6260
S'[[det]]'
p6261
tp6262
F0.00024277737314882253
s(g612
g613
S'for'
p6263
tp6264
F0.00024277737314882253
s(S'[[adj]]'
p6265
S'leader'
p6266
S'in'
p6267
tp6268
F0.00024277737314882253
s(g3210
g3211
S'football'
p6269
tp6270
F0.00024277737314882253
s(S'[[det]]'
p6271
S'won'
p6272
S'[[det]]'
p6273
tp6274
F0.00024277737314882253
s(S'[[num]]'
p6275
S'game'
p6276
S'[[num]]'
p6277
tp6278
F0.00024277737314882253
s(S'[[det]]'
p6279
S'number'
p6280
S'for'
p6281
tp6282
F0.00024277737314882253
s(S'when'
p6283
S'played'
p6284
S'against'
p6285
tp6286
F0.00024277737314882253
s(S'have'
p6287
S'played'
p6288
S'for'
p6289
tp6290
F0.00024277737314882253
s(S'defenceman'
p6291
S'who'
p6292
S'currently'
p6293
tp6294
F0.00024277737314882253
s(S'[[adj]]'
p6295
S'played'
p6296
S'against'
p6297
tp6298
F0.00024277737314882253
s(S'games'
p6299
g5539
g5540
tp6300
F0.00024277737314882253
s(S'has'
p6301
S'played'
p6302
S'mainly'
p6303
tp6304
F0.00024277737314882253
s(S'then'
p6305
S'left'
p6306
S'[[det]]'
p6307
tp6308
F0.00024277737314882253
s(g4787
g6208
S'for'
p6309
tp6310
F0.00024277737314882253
s(S'that'
p6311
S'led'
p6312
S'at'
p6313
tp6314
F0.00024277737314882253
s(g3154
g2257
g2258
tp6315
F0.00024277737314882253
s(S'player'
p6316
g2628
g2629
tp6317
F0.00048555474629764507
s(S'returned'
p6318
g5289
g5290
tp6319
F0.00024277737314882253
s(S'[[adj]]'
p6320
S'leader'
p6321
S'of'
p6322
tp6323
F0.00024277737314882253
s(S'to'
p6324
S'join'
p6325
S'[[det]]'
p6326
tp6327
F0.00024277737314882253
s(g812
S'played'
p6328
S'professionally'
p6329
tp6330
F0.0007283321194464676
s(S'more'
p6331
S'seasons'
p6332
S'for'
p6333
tp6334
F0.00024277737314882253
s(S'then'
p6335
S'drafted'
p6336
S'[[adj]]'
p6337
tp6338
F0.00024277737314882253
s(S'notably'
p6339
S'played'
p6340
S'for'
p6341
tp6342
F0.00048555474629764507
s(S'when'
p6343
S'played'
p6344
S'[[det]]'
p6345
tp6346
F0.00024277737314882253
s(S'was'
p6347
S'signed'
p6348
S'at'
p6349
tp6350
F0.00024277737314882253
s(S'first'
p6351
S'joined'
p6352
S'[[con]]'
p6353
tp6354
F0.00024277737314882253
s(S'was'
p6355
S'playing'
p6356
S'in'
p6357
tp6358
F0.00024277737314882253
s(g2458
g2459
S'with'
p6359
tp6360
F0.0007283321194464676
s(S'also'
p6361
S'played'
p6362
S'as'
p6363
tp6364
F0.00024277737314882253
s(S'after'
p6365
S'played'
p6366
S'with'
p6367
tp6368
F0.00024277737314882253
s(g3136
g3137
g233
tp6369
F0.0007283321194464676
s(S'born'
p6370
g4660
g4661
tp6371
F0.00024277737314882253
s(g5839
g5840
S'in'
p6372
tp6373
F0.00048555474629764507
s(S'was'
p6374
S'claimed'
p6375
S'by'
p6376
tp6377
F0.00024277737314882253
s(S'[[num]]'
p6378
g651
g652
tp6379
F0.00048555474629764507
s(S'born'
p6380
g3830
g3831
tp6381
F0.006069434328720563
s(S'[[det]]'
p6382
S'play'
p6383
S'for'
p6384
tp6385
F0.00024277737314882253
s(S'been'
p6386
S'featured'
p6387
S'to'
p6388
tp6389
F0.00024277737314882253
s(S'became'
p6390
S'coach'
p6391
S'of'
p6392
tp6393
F0.00024277737314882253
s(S'[[det]]'
p6394
S'member'
p6395
S'[[adj]]'
p6396
tp6397
F0.00024277737314882253
s(S'who'
p6398
S'plays'
p6399
S'at'
p6400
tp6401
F0.00024277737314882253
s(g1903
g1904
g2844
tp6402
F0.00024277737314882253
s(g2717
g2718
S'[[adj]]'
p6403
tp6404
F0.00024277737314882253
s(g233
S'team'
p6405
S'at'
p6406
tp6407
F0.00024277737314882253
s(g1075
g1076
g6120
tp6408
F0.00024277737314882253
s(S'[[prp]]'
p6409
S'debut'
p6410
S'against'
p6411
tp6412
F0.00024277737314882253
s(g1418
g3257
g3258
tp6413
F0.0007283321194464676
s(S'basketball'
p6414
S'player'
p6415
S'in'
p6416
tp6417
F0.00024277737314882253
s(S'as'
p6418
S'[[adj]]'
p6419
S'men'
p6420
tp6421
F0.00024277737314882253
s(S'[[num]]'
p6422
S'seasons'
p6423
S'before'
p6424
tp6425
F0.00024277737314882253
s(S'then'
p6426
S'playing'
p6427
S'for'
p6428
tp6429
F0.00024277737314882253
s(S'currently'
p6430
S'signed'
p6431
S'with'
p6432
tp6433
F0.00024277737314882253
s(S'who'
p6434
S'played'
p6435
S'[[adj]]'
p6436
tp6437
F0.00048555474629764507
s(S'been'
p6438
S'featured'
p6439
S'from'
p6440
tp6441
F0.00024277737314882253
s(S'left'
p6442
g2945
g2946
tp6443
F0.00024277737314882253
s(g5508
g4363
g4364
tp6444
F0.00024277737314882253
s(S'been'
p6445
S'selected'
p6446
S'as'
p6447
tp6448
F0.00024277737314882253
s(S'[[con]]'
p6449
S'joined'
p6450
S'[[adj]]'
p6451
tp6452
F0.00024277737314882253
s(S'drafted'
p6453
g3292
g3293
tp6454
F0.00024277737314882253
s(S'football'
p6455
g5838
g5839
tp6456
F0.00024277737314882253
s(S'was'
p6457
S'called'
p6458
S'of'
p6459
tp6460
F0.00024277737314882253
s(S'which'
p6461
S'won'
p6462
S'for'
p6463
tp6464
F0.00024277737314882253
s(S'[[det]]'
p6465
S'forward'
p6466
S'for'
p6467
tp6468
F0.00024277737314882253
s(S'most'
p6469
g6339
g6340
tp6470
F0.00024277737314882253
s(S'ice'
p6471
g1790
g1791
tp6472
F0.00024277737314882253
s(S'been'
p6473
g6002
g458
tp6474
F0.00024277737314882253
s(S'was'
p6475
S'head'
p6476
S'to'
p6477
tp6478
F0.00024277737314882253
s(S'round'
p6479
S'pick'
p6480
S'by'
p6481
tp6482
F0.00024277737314882253
s(S'football'
p6483
g442
g443
tp6484
F0.00024277737314882253
s(S'[[num]]'
p6485
S'joined'
p6486
S'[[det]]'
p6487
tp6488
F0.00024277737314882253
s(S'that'
p6489
S'won'
p6490
S'[[num]]'
p6491
tp6492
F0.00024277737314882253
s(g5524
g5525
S'for'
p6493
tp6494
F0.00024277737314882253
s(g4080
g1048
g205
tp6495
F0.00024277737314882253
s(S'[[con]]'
p6496
S'signed'
p6497
S'[[det]]'
p6498
tp6499
F0.00024277737314882253
s(S'was'
p6500
S'member'
p6501
S'in'
p6502
tp6503
F0.00024277737314882253
s(S'hockey'
p6504
g2227
g2228
tp6505
F0.00048555474629764507
s(S'then'
p6506
g2542
g2543
tp6507
F0.00024277737314882253
s(S'[[prp]]'
p6508
S'coach'
p6509
S'at'
p6510
tp6511
F0.00024277737314882253
s(g182
g183
S'selected'
p6512
tp6513
F0.00048555474629764507
s(S'[[num]]'
p6514
g1687
g1688
tp6515
F0.0007283321194464676
s(S'was'
p6516
S'selected'
p6517
S'[[num]]'
p6518
tp6519
F0.00024277737314882253
s(S'[[num]]'
p6520
S'stints'
p6521
S'at'
p6522
tp6523
F0.00024277737314882253
s(S'played'
p6524
g2162
g2163
tp6525
F0.00024277737314882253
s(g420
g3598
g3599
tp6526
F0.0007283321194464676
s(S'was'
p6527
S'resigned'
p6528
S'by'
p6529
tp6530
F0.00024277737314882253
s(S'first'
p6531
S'represented'
p6532
S'[[det]]'
p6533
tp6534
F0.00024277737314882253
s(g3302
g1404
g1405
tp6535
F0.00024277737314882253
s(g5275
g4573
g4574
tp6536
F0.00024277737314882253
s(S'[[adj]]'
p6537
S'selected'
p6538
S'for'
p6539
tp6540
F0.00024277737314882253
s(S'[[adj]]'
p6541
S'hockey'
p6542
S'with'
p6543
tp6544
F0.00024277737314882253
s(S'[[det]]'
p6545
S'college'
p6546
S'football'
p6547
tp6548
F0.00048555474629764507
s(g1256
g1257
S'round'
p6549
tp6550
F0.00048555474629764507
s(S'first'
p6551
S'joined'
p6552
S'[[det]]'
p6553
tp6554
F0.00024277737314882253
s(S'then'
p6555
S'won'
p6556
S'at'
p6557
tp6558
F0.00024277737314882253
s(S'up'
p6559
S'playing'
p6560
S'for'
p6561
tp6562
F0.00024277737314882253
s(S'when'
p6563
S'left'
p6564
S'[[det]]'
p6565
tp6566
F0.00024277737314882253
s(S'won'
p6567
g4155
g4156
tp6568
F0.0012138868657441126
s(g2605
g2606
S'in'
p6569
tp6570
F0.003641660597232338
s(S'was'
p6571
g5071
g5072
tp6572
F0.00024277737314882253
s(g1684
g1685
g842
tp6573
F0.00024277737314882253
s(g233
g3650
g3651
tp6574
F0.0007283321194464676
s(S'[[num]]'
p6575
S'seasons'
p6576
S'between'
p6577
tp6578
F0.00048555474629764507
s(S'then'
p6579
S'played'
p6580
S'college'
p6581
tp6582
F0.00048555474629764507
s(S'after'
p6583
S'playing'
p6584
S'at'
p6585
tp6586
F0.00024277737314882253
s(S'[[det]]'
p6587
g4442
g4443
tp6588
F0.00024277737314882253
s(S'football'
p6589
S'currently'
p6590
S'playing'
p6591
tp6592
F0.00024277737314882253
s(S'also'
p6593
S'featured'
p6594
S'on'
p6595
tp6596
F0.00024277737314882253
s(S'[[num]]'
p6597
S'championships'
p6598
S'[[con]]'
p6599
tp6600
F0.00024277737314882253
s(g233
S'time'
p6601
S'with'
p6602
tp6603
F0.00024277737314882253
s(S'since'
p6604
S'left'
p6605
S'[[det]]'
p6606
tp6607
F0.00024277737314882253
s(S'was'
p6608
S'played'
p6609
S'for'
p6610
tp6611
F0.00024277737314882253
s(g835
g836
g1490
tp6612
F0.004855547462976451
s(g1811
g1812
g1881
tp6613
F0.009468317552804079
s(S'has'
p6614
S'won'
p6615
S'for'
p6616
tp6617
F0.00024277737314882253
s(S'once'
p6618
S'played'
p6619
S'with'
p6620
tp6621
F0.00024277737314882253
s(g2857
g5978
S'clubs'
p6622
tp6623
F0.00024277737314882253
s(S'later'
p6624
S'played'
p6625
S'college'
p6626
tp6627
F0.00024277737314882253
s(g5117
g5118
S'head'
p6628
tp6629
F0.00024277737314882253
s(S'were'
p6630
S'signed'
p6631
S'from'
p6632
tp6633
F0.00024277737314882253
s(S'already'
p6634
S'played'
p6635
S'in'
p6636
tp6637
F0.00024277737314882253
s(S'also'
p6638
S'signed'
p6639
S'with'
p6640
tp6641
F0.00024277737314882253
s(S'[[num]]'
p6642
S'games'
p6643
S'in'
p6644
tp6645
F0.002670551104637048
s(g3315
g2193
g1757
tp6646
F0.0031561058509346927
s(g2058
g2059
S'played'
p6647
tp6648
F0.00024277737314882253
s(S'played'
p6649
g2087
g2088
tp6650
F0.0009711094925952901
s(S'[[adj]]'
p6651
g1581
g1582
tp6652
F0.00048555474629764507
s(S'also'
p6653
S'won'
p6654
S'[[prp]]'
p6655
tp6656
F0.00024277737314882253
s(g542
g543
S'by'
p6657
tp6658
F0.00024277737314882253
s(S'played'
p6659
g960
g961
tp6660
F0.00024277737314882253
s(g3381
g2783
g2784
tp6661
F0.00024277737314882253
s.