(dp0
(S'comedy'
p1
S'film'
p2
S'produced'
p3
tp4
F0.0010095911155981827
s(S'also'
p5
S'known'
p6
S'as'
p7
tp8
F0.0005047955577990914
s(S'road'
p9
S'movie'
p10
S'directed'
p11
tp12
F0.0010095911155981827
s(S'released'
p13
S'in'
p14
S'[[num]]'
p15
tp16
F0.0005047955577990914
s(S'[[num]]'
p17
S'film'
p18
S'made'
p19
tp20
F0.0005047955577990914
s(S'thriller'
p21
S'film'
p22
S'starring'
p23
tp24
F0.005047955577990914
s(S'[[num]]'
p25
S'crime'
p26
S'film'
p27
tp28
F0.006562342251388188
s(S'television'
p29
S'drama'
p30
S'film'
p31
tp32
F0.0005047955577990914
s(S'horror'
p33
S'film'
p34
S'starring'
p35
tp36
F0.0035335689045936395
s(S'by'
p37
S'produced'
p38
S'[[con]]'
p39
tp40
F0.0005047955577990914
s(S'directed'
p41
S'starring'
p42
S'[[con]]'
p43
tp44
F0.005047955577990914
s(S'thriller'
p45
S'film'
p46
S'directed'
p47
tp48
F0.01110550227158001
s(S'is'
p49
S'[[num]]'
p50
g29
tp51
F0.0005047955577990914
s(S'comedy'
p52
S'film'
p53
S'featuring'
p54
tp55
F0.001514386673397274
s(S'mystery'
p56
S'film'
p57
S'starring'
p58
tp59
F0.0005047955577990914
s(S'feature'
p60
S'film'
p61
S'starring'
p62
tp63
F0.0035335689045936395
s(S'[[num]]'
p64
S'film'
p65
S'[[adj]]'
p66
tp67
F0.0005047955577990914
s(S'film'
p68
S'directed'
p69
S'written'
p70
tp71
F0.005047955577990914
s(S'gentleman'
p72
S'[[num]]'
p73
S'movie'
p74
tp75
F0.0005047955577990914
s(S'produced'
p76
S'by'
p77
S'starring'
p78
tp79
F0.0005047955577990914
s(S'[[adj]]'
p80
S'arts'
p81
S'film'
p82
tp83
F0.001514386673397274
s(S'[[det]]'
p84
S'feature'
p85
S'film'
p86
tp87
F0.0020191822311963654
s(S'film'
p88
S'directed'
p89
S'by'
p90
tp91
F0.06309944472488642
s(S'was'
p92
S'directed'
p93
S'produced'
p94
tp95
F0.0005047955577990914
s(S'is'
p96
S'[[adj]]'
p97
S'arts'
p98
tp99
F0.0005047955577990914
s(S'adapted'
p100
S'[[num]]'
p101
S'movie'
p102
tp103
F0.0005047955577990914
s(g65
g66
S'[[con]]'
p104
tp105
F0.0010095911155981827
s(S'action'
p106
S'film'
p107
S'[[con]]'
p108
tp109
F0.0005047955577990914
s(S'crime'
p110
S'film'
p111
S'starring'
p112
tp113
F0.0020191822311963654
s(S'directed'
p114
g37
g38
tp115
F0.0005047955577990914
s(S'film'
p116
S'from'
p117
S'directed'
p118
tp119
F0.0010095911155981827
s(g14
g15
S'starring'
p120
tp121
F0.0010095911155981827
s(S'[[con]]'
p122
S'action'
p123
S'film'
p124
tp125
F0.0005047955577990914
s(S'directed'
p126
S'with'
p127
S'[[det]]'
p128
tp129
F0.001514386673397274
s(S'[[num]]'
p130
S'film'
p131
S'starring'
p132
tp133
F0.001514386673397274
s(S'[[det]]'
p134
S'thriller'
p135
S'directed'
p136
tp137
F0.0005047955577990914
s(S'[[num]]'
p138
S'film'
p139
S'that'
p140
tp141
F0.0010095911155981827
s(S'by'
p142
S'starring'
p143
S'[[con]]'
p144
tp145
F0.004038364462392731
s(S'is'
p146
S'written'
p147
S'[[con]]'
p148
tp149
F0.0005047955577990914
s(S'is'
p150
S'[[num]]'
p151
S'thriller'
p152
tp153
F0.0005047955577990914
s(S'[[num]]'
p154
S'fantasy'
p155
S'film'
p156
tp157
F0.001514386673397274
s(S'[[num]]'
p158
S'movie'
p159
S'produced'
p160
tp161
F0.0005047955577990914
s(S'directed'
p162
S'starring'
p163
S'as'
p164
tp165
F0.0005047955577990914
s(S'[[num]]'
p166
S'detective'
p167
S'film'
p168
tp169
F0.0010095911155981827
s(S'into'
p170
S'[[det]]'
p171
S'film'
p172
tp173
F0.0005047955577990914
s(S'[[con]]'
p174
S'based'
p175
S'by'
p176
tp177
F0.0005047955577990914
s(S'film'
p178
S'starring'
p179
S'directed'
p180
tp181
F0.0010095911155981827
s(S'[[num]]'
p182
S'drama'
p183
S'film'
p184
tp185
F0.015648662291771833
s(S'created'
p186
S'[[con]]'
p187
S'written'
p188
tp189
F0.0005047955577990914
s(S'[[adj]]'
p190
S'movie'
p191
S'directed'
p192
tp193
F0.0005047955577990914
s(S'[[adj]]'
p194
g33
g34
tp195
F0.002523977788995457
s(S'documentary'
p196
S'directed'
p197
S'[[con]]'
p198
tp199
F0.0010095911155981827
s(S'directed'
p200
S'starring'
p201
S'[[det]]'
p202
tp203
F0.0005047955577990914
s(S'[[num]]'
p204
S'film'
p205
S'directed'
p206
tp207
F0.01817264008076729
s(S'television'
p208
S'film'
p209
S'starring'
p210
tp211
F0.0010095911155981827
s(S'[[con]]'
p212
S'directed'
p213
S'by'
p214
tp215
F0.027763755678950026
s(S'[[num]]'
p216
S'film'
p217
S'produced'
p218
tp219
F0.0010095911155981827
s(g140
S'was'
p220
S'directed'
p221
tp222
F0.0005047955577990914
s(S'was'
p223
S'directed'
p224
S'with'
p225
tp226
F0.0005047955577990914
s(S'[[adj]]'
p227
S'written'
p228
S'[[con]]'
p229
tp230
F0.001514386673397274
s(S'documentary'
p231
S'film'
p232
S'produced'
p233
tp234
F0.0005047955577990914
s(S'adventure'
p235
g13
g14
tp236
F0.0005047955577990914
s(S'comedy'
p237
S'family'
p238
S'film'
p239
tp240
F0.0005047955577990914
s(g19
S'directed'
p241
S'by'
p242
tp243
F0.0005047955577990914
s(S'action'
p244
S'comedy'
p245
S'film'
p246
tp247
F0.002523977788995457
s(S'[[num]]'
p248
S'directed'
p249
S'by'
p250
tp251
F0.0005047955577990914
s(S'adventure'
p252
S'film'
p253
S'directed'
p254
tp255
F0.002523977788995457
s(S'horror'
p256
S'film'
p257
S'written'
p258
tp259
F0.003028773346794548
s(S'[[con]]'
p260
S'directed'
p261
S'[[con]]'
p262
tp263
F0.01060070671378092
s(S'directed'
p264
S'produced'
p265
S'[[con]]'
p266
tp267
F0.0010095911155981827
s(g73
g74
S'directed'
p268
tp269
F0.0020191822311963654
s(S'was'
p270
g100
g101
tp271
F0.0005047955577990914
s(S'cult'
p272
S'[[num]]'
p273
S'drama'
p274
tp275
F0.0005047955577990914
s(S'[[adj]]'
p276
S'action'
p277
S'film'
p278
tp279
F0.0020191822311963654
s(S'[[con]]'
p280
S'starring'
p281
S'as'
p282
tp283
F0.0010095911155981827
s(g127
g128
S'screenplay'
p284
tp285
F0.0010095911155981827
s(g18
g19
g241
tp286
F0.0005047955577990914
s(S'family'
p287
S'comedy'
p288
S'film'
p289
tp290
F0.0010095911155981827
s(S'crime'
p291
S'film'
p292
S'directed'
p293
tp294
F0.00757193336698637
s(S'titled'
p295
S'is'
p296
S'[[num]]'
p297
tp298
F0.0005047955577990914
s(S'[[det]]'
p299
S'mystery'
p300
S'film'
p301
tp302
F0.0005047955577990914
s(S'of'
p303
S'directed'
p304
S'[[con]]'
p305
tp306
F0.0005047955577990914
s(S'directed'
p307
S'produced'
p308
S'by'
p309
tp310
F0.0010095911155981827
s(S'[[num]]'
p311
S'film'
p312
S'noir'
p313
tp314
F0.001514386673397274
s(g6
g7
S'[[num]]'
p315
tp316
F0.0005047955577990914
s(S'[[num]]'
p317
S'drama'
p318
S'directed'
p319
tp320
F0.0005047955577990914
s(S'drama'
p321
S'directed'
p322
S'[[con]]'
p323
tp324
F0.001514386673397274
s(S'[[adj]]'
p325
S'drama'
p326
S'[[adj]]'
p327
tp328
F0.0005047955577990914
s(S'[[num]]'
p329
g287
g288
tp330
F0.0010095911155981827
s(S'comedy'
p331
S'horror'
p332
S'film'
p333
tp334
F0.0005047955577990914
s(S'television'
p335
S'film'
p336
S'written'
p337
tp338
F0.0005047955577990914
s(S'noir'
p339
S'directed'
p340
S'[[con]]'
p341
tp342
F0.0005047955577990914
s(S'drama'
p343
S'film'
p344
S'based'
p345
tp346
F0.0005047955577990914
s(S'released'
p347
S'is'
p348
S'[[num]]'
p349
tp350
F0.0005047955577990914
s(S'[[num]]'
p351
S'fantasy'
p352
S'adventure'
p353
tp354
F0.0005047955577990914
s(g69
g70
S'[[con]]'
p355
tp356
F0.0035335689045936395
s(g81
g82
S'directed'
p357
tp358
F0.001514386673397274
s(S'action'
p359
S'written'
p360
S'[[con]]'
p361
tp362
F0.0010095911155981827
s(S'[[num]]'
p363
S'action'
p364
S'thriller'
p365
tp366
F0.0020191822311963654
s(S'produced'
p367
S'with'
p368
S'[[det]]'
p369
tp370
F0.0005047955577990914
s(S'movie'
p371
S'directed'
p372
S'[[con]]'
p373
tp374
F0.0020191822311963654
s(S'[[con]]'
p375
g367
g368
tp376
F0.0005047955577990914
s(S'drama'
p377
S'directed'
p378
S'by'
p379
tp380
F0.0005047955577990914
s(S'film'
p381
g377
g378
tp382
F0.0005047955577990914
s(S'starring'
p383
S'[[con]]'
p384
S'featuring'
p385
tp386
F0.0020191822311963654
s(S'[[adj]]'
p387
S'feature'
p388
S'film'
p389
tp390
F0.0010095911155981827
s(S'[[num]]'
p391
S'language'
p392
S'film'
p393
tp394
F0.0020191822311963654
s(S'[[num]]'
p395
S'comedy'
p396
S'directed'
p397
tp398
F0.0010095911155981827
s(g262
S'written'
p399
S'by'
p400
tp401
F0.010095911155981827
s(S'color'
p402
S'film'
p403
S'was'
p404
tp405
F0.0005047955577990914
s(S'screenplay'
p406
S'written'
p407
S'by'
p408
tp409
F0.0005047955577990914
s(S'[[adj]]'
p410
S'drama'
p411
S'film'
p412
tp413
F0.010095911155981827
s(S'[[adj]]'
p414
S'comedy'
p415
S'drama'
p416
tp417
F0.0005047955577990914
s(S'[[con]]'
p418
g162
g163
tp419
F0.004038364462392731
s(S'comedy'
p420
S'film'
p421
S'from'
p422
tp423
F0.0005047955577990914
s(S'[[num]]'
p424
S'movie'
p425
S'[[con]]'
p426
tp427
F0.0005047955577990914
s(g26
g27
S'based'
p428
tp429
F0.0005047955577990914
s(S'as'
p430
S'[[det]]'
p431
S'film'
p432
tp433
F0.0005047955577990914
s(S'comedy'
p434
S'film'
p435
S'written'
p436
tp437
F0.00757193336698637
s(S'[[det]]'
p438
S'drama'
p439
S'thriller'
p440
tp441
F0.0005047955577990914
s(S'[[adj]]'
p442
S'drama'
p443
S'directed'
p444
tp445
F0.0005047955577990914
s(S'fantasy'
p446
S'action'
p447
S'film'
p448
tp449
F0.0005047955577990914
s(S'[[adj]]'
p450
g331
g332
tp451
F0.0005047955577990914
s(S'aka'
p452
g96
g97
tp453
F0.0005047955577990914
s(S'[[con]]'
p454
S'directed'
p455
S'with'
p456
tp457
F0.0010095911155981827
s(S'[[num]]'
p458
S'horror'
p459
S'film'
p460
tp461
F0.006562342251388188
s(g403
g404
S'released'
p462
tp463
F0.0005047955577990914
s(S'[[det]]'
p464
S'film'
p465
S'written'
p466
tp467
F0.0005047955577990914
s(S'adapted'
p468
g170
g171
tp469
F0.0005047955577990914
s(S'thriller'
p470
S'written'
p471
S'[[con]]'
p472
tp473
F0.0005047955577990914
s(g447
g448
S'starring'
p474
tp475
F0.002523977788995457
s(S'comedy'
p476
S'crime'
p477
S'film'
p478
tp479
F0.0005047955577990914
s(S'written'
p480
S'directed'
p481
S'by'
p482
tp483
F0.0010095911155981827
s(S'adapted'
p484
S'into'
p485
S'[[num]]'
p486
tp487
F0.0005047955577990914
s(S'[[adj]]'
p488
S'film'
p489
S'produced'
p490
tp491
F0.0005047955577990914
s(S'[[con]]'
p492
S'directed'
p493
S'gt'
p494
tp495
F0.0005047955577990914
s(S'edited'
p496
S'[[con]]'
p497
S'starring'
p498
tp499
F0.0005047955577990914
s(S'thriller'
p500
S'film'
p501
S'written'
p502
tp503
F0.0010095911155981827
s(S'film'
p504
S'made'
p505
S'by'
p506
tp507
F0.0005047955577990914
s(S'was'
p508
S'written'
p509
S'directed'
p510
tp511
F0.0010095911155981827
s(S'[[num]]'
p512
g252
g253
tp513
F0.0035335689045936395
s(S'about'
p514
S'directed'
p515
S'[[con]]'
p516
tp517
F0.0010095911155981827
s(S'[[det]]'
p518
g235
g13
tp519
F0.0005047955577990914
s(S'comedy'
p520
S'film'
p521
S'starring'
p522
tp523
F0.006057546693589096
s(S'was'
p524
S'directed'
p525
S'written'
p526
tp527
F0.0005047955577990914
s(g509
g510
S'[[con]]'
p528
tp529
F0.001514386673397274
s(g135
g136
S'[[con]]'
p530
tp531
F0.0010095911155981827
s(S'was'
p532
S'adapted'
p533
g430
tp534
F0.0005047955577990914
s(g179
g180
S'by'
p535
tp536
F0.0010095911155981827
s(g485
g486
S'film'
p537
tp538
F0.0005047955577990914
s(S'written'
p539
S'[[con]]'
p540
S'starring'
p541
tp542
F0.006057546693589096
s(g108
S'crime'
p543
g321
tp544
F0.0005047955577990914
s(S'action'
p545
S'film'
p546
S'about'
p547
tp548
F0.0005047955577990914
s(g421
g422
S'written'
p549
tp550
F0.0005047955577990914
s(S'drama'
p551
S'film'
p552
S'produced'
p553
tp554
F0.001514386673397274
s(S'documentary'
p555
S'film'
p556
S'by'
p557
tp558
F0.0010095911155981827
s(g313
S'starring'
p559
S'[[con]]'
p560
tp561
F0.0005047955577990914
s(S'[[num]]'
p562
S'crime'
p563
S'drama'
p564
tp565
F0.004038364462392731
s(S'comedydrama'
p566
S'film'
p567
S'directed'
p568
tp569
F0.002523977788995457
s(S'documentary'
p570
S'film'
p571
S'about'
p572
tp573
F0.0005047955577990914
s(g415
g416
S'film'
p574
tp575
F0.001514386673397274
s(S'film'
p576
S'written'
p577
S'by'
p578
tp579
F0.003028773346794548
s(S'film'
p580
g41
g42
tp581
F0.012115093387178193
s(S'directed'
p582
S'by'
p583
S'[[con]]'
p584
tp585
F0.024734982332155476
s(S'drama'
p586
S'film'
p587
S'featuring'
p588
tp589
F0.0005047955577990914
s(S'[[con]]'
p590
S'starring'
p591
S'[[con]]'
p592
tp593
F0.01514386673397274
s(S'crime'
p594
S'thriller'
p595
S'film'
p596
tp597
F0.0020191822311963654
s(S'[[det]]'
p598
S'horror'
p599
S'film'
p600
tp601
F0.001514386673397274
s(g2
g3
S'[[con]]'
p602
tp603
F0.0035335689045936395
s(S'thriller'
p604
S'film'
p605
S'released'
p606
tp607
F0.0005047955577990914
s(S'[[det]]'
p608
S'language'
p609
S'film'
p610
tp611
F0.0010095911155981827
s(S'is'
p612
S'directed'
p613
S'by'
p614
tp615
F0.0005047955577990914
s(S'[[adj]]'
p616
S'comedy'
p617
S'starring'
p618
tp619
F0.0005047955577990914
s(S'[[num]]'
p620
S'family'
p621
S'film'
p622
tp623
F0.0010095911155981827
s(g50
g29
g30
tp624
F0.0005047955577990914
s(g431
g432
S'in'
p625
tp626
F0.0005047955577990914
s(S'film'
p627
S'[[adj]]'
p628
S'starring'
p629
tp630
F0.0005047955577990914
s(S'written'
p631
S'by'
p632
S'[[con]]'
p633
tp634
F0.0005047955577990914
s(S'[[num]]'
p635
S'documentary'
p636
S'film'
p637
tp638
F0.004543160020191822
s(S'[[det]]'
p639
S'directed'
p640
S'by'
p641
tp642
F0.0005047955577990914
s(S'film'
p643
S'[[con]]'
p644
S'[[adj]]'
p645
tp646
F0.0005047955577990914
s(g563
g564
S'film'
p647
tp648
F0.003028773346794548
s(S'comedy'
p649
S'film'
p650
S'released'
p651
tp652
F0.0005047955577990914
s(g261
g262
g399
tp653
F0.012115093387178193
s(S'[[det]]'
p654
S'documentary'
p655
S'film'
p656
tp657
F0.0010095911155981827
s(S'[[num]]'
p658
S'romance'
p659
S'film'
p660
tp661
F0.002523977788995457
s(S'directed'
p662
S'[[con]]'
p663
S'starred'
p664
tp665
F0.0005047955577990914
s(S'film'
p666
g49
g50
tp667
F0.0005047955577990914
s(S'[[det]]'
p668
g272
g273
tp669
F0.0005047955577990914
s(S'[[num]]'
p670
S'mystery'
p671
S'thriller'
p672
tp673
F0.0005047955577990914
s(S'film'
p674
S'starring'
p675
g260
tp676
F0.017163048965169108
s(S'cast'
p677
S'comedydrama'
p678
S'film'
p679
tp680
F0.0005047955577990914
s(S'war'
p681
S'film'
p682
S'directed'
p683
tp684
F0.0020191822311963654
s(S'horror'
p685
S'film'
p686
S'directed'
p687
tp688
F0.006057546693589096
s(S'movie'
p689
S'directed'
p690
S'starring'
p691
tp692
F0.0005047955577990914
s(S'assassination'
p693
g122
g123
tp694
F0.0005047955577990914
s(S'[[det]]'
p695
S'drama'
p696
S'film'
p697
tp698
F0.0010095911155981827
s(S'film'
p699
g307
g308
tp700
F0.001514386673397274
s(S'[[num]]'
p701
S'thriller'
p702
S'film'
p703
tp704
F0.008581524482584554
s(S'[[num]]'
p705
S'written'
p706
S'[[con]]'
p707
tp708
F0.0005047955577990914
s(S'[[det]]'
p709
S'film'
p710
S'directed'
p711
tp712
F0.004543160020191822
s(S'[[num]]'
p713
g244
g245
tp714
F0.002523977788995457
s(g645
S'comedy'
p715
S'written'
p716
tp717
F0.0005047955577990914
s(S'[[det]]'
p718
S'thriller'
p719
S'film'
p720
tp721
F0.0010095911155981827
s(S'film'
p722
S'directed'
p723
S'as'
p724
tp725
F0.0010095911155981827
s(S'[[det]]'
p726
g693
g122
tp727
F0.0005047955577990914
s(S'known'
p728
S'is'
p729
S'[[adj]]'
p730
tp731
F0.0005047955577990914
s(S'drama'
p732
S'film'
p733
S'[[adj]]'
p734
tp735
F0.0010095911155981827
s(S'by'
p736
S'film'
p737
S'stars'
p738
tp739
F0.0005047955577990914
s(g650
g651
S'starring'
p740
tp741
F0.001514386673397274
s(S'crime'
p742
S'drama'
p743
S'starring'
p744
tp745
F0.0005047955577990914
s(S'[[con]]'
p746
S'was'
p747
S'directed'
p748
tp749
F0.0005047955577990914
s(S'[[num]]'
p750
S'action'
p751
S'film'
p752
tp753
F0.006562342251388188
s(S'comedy'
p754
S'directed'
p755
g539
tp756
F0.0005047955577990914
s(S'film'
p757
S'[[adj]]'
p758
S'directed'
p759
tp760
F0.0010095911155981827
s(S'directed'
p761
g590
g591
tp762
F0.041898031297324584
s(S'film'
p763
S'directed'
p764
S'that'
p765
tp766
F0.0005047955577990914
s(g422
g549
S'[[con]]'
p767
tp768
F0.0005047955577990914
s(g265
g266
S'starring'
p769
tp770
F0.0010095911155981827
s(S'film'
p771
S'directed'
p772
S'[[con]]'
p773
tp774
F0.043917213528520946
s(S'[[num]]'
p775
g681
g682
tp776
F0.002523977788995457
s(S'directed'
p777
S'by'
p778
S'starring'
p779
tp780
F0.015648662291771833
s(S'by'
p781
S'starring'
p782
S'[[det]]'
p783
tp784
F0.0005047955577990914
s(S'[[num]]'
p785
g60
g61
tp786
F0.0035335689045936395
s(S'adventure'
p787
S'film'
p788
S'starring'
p789
tp790
F0.0020191822311963654
s(g675
g260
g261
tp791
F0.004038364462392731
s(S'[[adj]]'
p792
S'comedy'
p793
S'film'
p794
tp795
F0.01060070671378092
s(g621
g622
S'directed'
p796
tp797
F0.001514386673397274
s(S'[[con]]'
p798
S'directed'
p799
S'which'
p800
tp801
F0.0005047955577990914
s(S'is'
p802
S'directed'
p803
S'[[con]]'
p804
tp805
F0.0005047955577990914
s(S'[[det]]'
p806
S'war'
p807
S'film'
p808
tp809
F0.0005047955577990914
s(g494
S'[[con]]'
p810
S'starring'
p811
tp812
F0.0005047955577990914
s(S'[[det]]'
p813
S'film'
p814
S'comedy'
p815
tp816
F0.0005047955577990914
s(S'[[num]]'
p817
g381
g377
tp818
F0.0005047955577990914
s(S'written'
p819
S'by'
p820
S'starring'
p821
tp822
F0.0005047955577990914
s(S'[[num]]'
p823
g520
g521
tp824
F0.013629480060575468
s(g220
g221
S'by'
p825
tp826
F0.0020191822311963654
s(S'was'
p827
S'written'
p828
S'produced'
p829
tp830
F0.0005047955577990914
s(g184
S'directed'
p831
S'based'
p832
tp833
F0.0010095911155981827
s(S'produced'
p834
S'directed'
p835
S'by'
p836
tp837
F0.001514386673397274
s(g139
g140
g220
tp838
F0.0010095911155981827
s(g618
S'[[con]]'
p839
S'written'
p840
tp841
F0.0005047955577990914
s(S'was'
p842
S'directed'
p843
S'[[con]]'
p844
tp845
F0.0010095911155981827
s(g799
g800
S'starred'
p846
tp847
F0.0005047955577990914
s(S'[[adj]]'
p848
S'documentary'
p849
S'film'
p850
tp851
F0.0005047955577990914
s(S'[[num]]'
p852
S'mystery'
p853
S'crime'
p854
tp855
F0.0005047955577990914
s(g183
g184
g831
tp856
F0.020191822311963654
s(g392
g393
S'starring'
p857
tp858
F0.001514386673397274
s(S'feature'
p859
S'film'
p860
S'directed'
p861
tp862
F0.004038364462392731
s(g352
g353
S'film'
p863
tp864
F0.0005047955577990914
s(g853
g854
S'film'
p865
tp866
F0.0005047955577990914
s(g543
g321
g322
tp867
F0.0005047955577990914
s(S'film'
p868
g303
g304
tp869
F0.0005047955577990914
s(S'directed'
p870
S'[[con]]'
p871
S'stars'
p872
tp873
F0.002523977788995457
s(S'[[det]]'
p874
S'crime'
p875
S'film'
p876
tp877
F0.0005047955577990914
s(S'written'
p878
g746
g747
tp879
F0.0005047955577990914
s(S'[[adj]]'
p880
S'mystery'
p881
S'film'
p882
tp883
F0.0005047955577990914
s(g296
g297
S'drama'
p884
tp885
F0.0005047955577990914
s(S'directed'
p886
S'by'
p887
S'film'
p888
tp889
F0.0010095911155981827
s(S'[[adj]]'
p890
g771
g772
tp891
F0.01110550227158001
s(S'[[num]]'
p892
S'produced'
p893
S'[[con]]'
p894
tp895
F0.0005047955577990914
s(S'known'
p896
S'is'
p897
S'film'
p898
tp899
F0.0005047955577990914
s(g3
g602
S'directed'
p900
tp901
F0.005552751135790005
s(S'crime'
p902
S'drama'
p903
S'written'
p904
tp905
F0.0005047955577990914
s(S'[[det]]'
p906
g72
g73
tp907
F0.0005047955577990914
s(S'[[num]]'
p908
g237
g238
tp909
F0.0005047955577990914
s(g159
g160
S'[[con]]'
p910
tp911
F0.0005047955577990914
s(g312
g313
g559
tp912
F0.0005047955577990914
s(S'language'
p913
S'film'
p914
S'written'
p915
tp916
F0.0005047955577990914
s(S'[[num]]'
p917
S'drama'
p918
S'[[adj]]'
p919
tp920
F0.0005047955577990914
s(S'by'
p921
S'[[con]]'
p922
S'featuring'
p923
tp924
F0.0005047955577990914
s(S'[[adj]]'
p925
S'comedy'
p926
S'[[adj]]'
p927
tp928
F0.0010095911155981827
s(S'[[adj]]'
p929
S'romance'
p930
S'film'
p931
tp932
F0.0005047955577990914
s(g94
S'[[con]]'
p933
S'written'
p934
tp935
F0.0005047955577990914
s(g404
g462
S'starring'
p936
tp937
F0.0005047955577990914
s(g533
g430
g431
tp938
F0.0005047955577990914
s(g432
g625
S'[[num]]'
p939
tp940
F0.0005047955577990914
s(g903
g904
S'[[con]]'
p941
tp942
F0.0005047955577990914
s(S'[[det]]'
p943
S'written'
p944
S'produced'
p945
tp946
F0.0005047955577990914
s(S'directed'
p947
S'written'
p948
S'by'
p949
tp950
F0.002523977788995457
s(S'[[det]]'
p951
S'film'
p952
S'released'
p953
tp954
F0.0005047955577990914
s(g659
g660
S'directed'
p955
tp956
F0.0020191822311963654
s(S'romance'
p957
S'film'
p958
S'starring'
p959
tp960
F0.0010095911155981827
s(S'[[det]]'
p961
g868
g303
tp962
F0.0005047955577990914
s(S'film'
p963
g514
g515
tp964
F0.0010095911155981827
s(S'[[adj]]'
p965
S'fantasy'
p966
S'film'
p967
tp968
F0.0005047955577990914
s(g764
g765
S'starred'
p969
tp970
F0.0005047955577990914
s(g663
g664
S'by'
p971
tp972
F0.0005047955577990914
s(g636
g637
S'directed'
p973
tp974
F0.002523977788995457
s(S'also'
p975
g728
g729
tp976
F0.004038364462392731
s(S'film'
p977
S'written'
p978
S'directed'
p979
tp980
F0.001514386673397274
s(S'[[num]]'
p981
g359
g360
tp982
F0.0010095911155981827
s(S's'
p983
S'written'
p984
S'[[con]]'
p985
tp986
F0.0005047955577990914
s(S'was'
p987
S'written'
p988
S'[[con]]'
p989
tp990
F0.0020191822311963654
s(S'[[adj]]'
p991
g291
g292
tp992
F0.002523977788995457
s(S'action'
p993
g757
g758
tp994
F0.0005047955577990914
s(S'[[num]]'
p995
g594
g595
tp996
F0.0020191822311963654
s(g828
g829
S'[[con]]'
p997
tp998
F0.0010095911155981827
s(g979
S'[[con]]'
p999
g496
tp1000
F0.0010095911155981827
s(g426
g834
g835
tp1001
F0.0005047955577990914
s(S'war'
p1002
S'film'
p1003
S'starring'
p1004
tp1005
F0.001514386673397274
s(S'[[det]]'
p1006
S'color'
p1007
S'film'
p1008
tp1009
F0.0010095911155981827
s(S'[[adj]]'
p1010
g470
g471
tp1011
F0.0005047955577990914
s(S'comedy'
p1012
g627
g628
tp1013
F0.0005047955577990914
s(g348
g349
S'adventure'
p1014
tp1015
F0.0005047955577990914
s(S'is'
p1016
S'directed'
p1017
S'at'
p1018
tp1019
F0.0005047955577990914
s(S'[[num]]'
p1020
S'mystery'
p1021
S'film'
p1022
tp1023
F0.002523977788995457
s(g493
g494
g810
tp1024
F0.0005047955577990914
s(S'known'
p1025
S'is'
p1026
g130
tp1027
F0.004038364462392731
s(S'documentary'
p1028
S'film'
p1029
S'starring'
p1030
tp1031
F0.0005047955577990914
s(S'[[num]]'
p1032
S'comedy'
p1033
S'drama'
p1034
tp1035
F0.0010095911155981827
s(g117
g118
S'by'
p1036
tp1037
F0.0010095911155981827
s(g505
g506
S'starring'
p1038
tp1039
F0.0005047955577990914
s(S'[[adj]]'
p1040
g45
g46
tp1041
F0.003028773346794548
s(S'[[det]]'
p1042
g406
g407
tp1043
F0.0005047955577990914
s(g66
g104
S'directed'
p1044
tp1045
F0.0010095911155981827
s(g793
g794
g761
tp1046
F0.016153457849570924
s(g715
g716
S'[[con]]'
p1047
tp1048
F0.0005047955577990914
s(S'[[adj]]'
p1049
S'comedy'
p1050
S'directed'
p1051
tp1052
F0.0010095911155981827
s(S'[[adj]]'
p1053
g476
g477
tp1054
F0.0005047955577990914
s(g27
g428
S'directed'
p1055
tp1056
F0.0005047955577990914
s(g831
g832
S'by'
p1057
tp1058
F0.0010095911155981827
s(S'[[con]]'
p1059
S'written'
p1060
S'[[con]]'
p1061
tp1062
F0.002523977788995457
s(S'[[det]]'
p1063
S'comedy'
p1064
S'action'
p1065
tp1066
F0.0005047955577990914
s(g489
g490
S'directed'
p1067
tp1068
F0.0010095911155981827
s(S'[[num]]'
p1069
g9
g10
tp1070
F0.0010095911155981827
s(S'[[adj]]'
p1071
g674
g675
tp1072
F0.003028773346794548
s(g758
g759
S'by'
p1073
tp1074
F0.001514386673397274
s(S'comedydrama'
p1075
S'film'
p1076
S'starring'
p1077
tp1078
F0.002523977788995457
s(g871
g872
S'[[con]]'
p1079
tp1080
F0.0010095911155981827
s(g617
g618
g839
tp1081
F0.0005047955577990914
s(g1064
g1065
S'film'
p1082
tp1083
F0.0005047955577990914
s(g552
g553
S'by'
p1084
tp1085
F0.0005047955577990914
s(g425
g426
g834
tp1086
F0.0005047955577990914
s(g528
S'produced'
p1087
S'by'
p1088
tp1089
F0.006057546693589096
s(g751
g752
S'directed'
p1090
tp1091
F0.005047955577990914
s(g729
g730
S'film'
p1092
tp1093
F0.0005047955577990914
s(S'is'
p1094
S'[[num]]'
p1095
S'film'
p1096
tp1097
F0.0035335689045936395
s(g53
g54
S'[[con]]'
p1098
tp1099
F0.0005047955577990914
s(S'[[adj]]'
p1100
S'thriller'
p1101
S'directed'
p1102
tp1103
F0.0005047955577990914
s(S'documentary'
p1104
S'film'
p1105
S'written'
p1106
tp1107
F0.0005047955577990914
s(S'directed'
p1108
g174
g175
tp1109
F0.0005047955577990914
s(S'[[det]]'
p1110
g649
g650
tp1111
F0.0020191822311963654
s(S'film'
p1112
g339
g340
tp1113
F0.001514386673397274
s(g644
g645
g715
tp1114
F0.0005047955577990914
s(S'sports'
p1115
S'drama'
p1116
S'film'
p1117
tp1118
F0.0005047955577990914
s(S'article'
p1119
g1094
g1095
tp1120
F0.0005047955577990914
s(g396
g397
S'[[con]]'
p1121
tp1122
F0.001514386673397274
s(S'[[adj]]'
p1123
g504
g505
tp1124
F0.0005047955577990914
s(S'[[num]]'
p1125
S'thriller'
p1126
S'directed'
p1127
tp1128
F0.0005047955577990914
s(S'[[adj]]'
p1129
g677
g678
tp1130
F0.0005047955577990914
s(S'language'
p1131
S'film'
p1132
S'directed'
p1133
tp1134
F0.0010095911155981827
s(g428
g1055
S'[[con]]'
p1135
tp1136
F0.0005047955577990914
s(S'was'
p1137
g484
g485
tp1138
F0.0010095911155981827
s(g564
g647
S'starring'
p1139
tp1140
F0.004038364462392731
s(S'[[num]]'
p1141
S'comedy'
p1142
S'[[adj]]'
p1143
tp1144
F0.0010095911155981827
s(g671
g672
S'film'
p1145
tp1146
F0.0005047955577990914
s(g364
g365
S'film'
p1147
tp1148
F0.0020191822311963654
s(S'comedy'
p1149
g1071
g674
tp1150
F0.002523977788995457
s(S'film'
p1151
g126
g127
tp1152
F0.0010095911155981827
s(S'directed'
p1153
S'[[con]]'
p1154
S'featuring'
p1155
tp1156
F0.001514386673397274
s(S'comedydrama'
p1157
g576
g577
tp1158
F0.002523977788995457
s(S'[[det]]'
p1159
g196
g197
tp1160
F0.0010095911155981827
s(S'[[num]]'
p1161
S'family'
p1162
S'adventure'
p1163
tp1164
F0.0005047955577990914
s(g368
g369
S'starring'
p1165
tp1166
F0.0005047955577990914
s(g1162
g1163
S'film'
p1167
tp1168
F0.0005047955577990914
s(g1021
g1022
S'directed'
p1169
tp1170
F0.003028773346794548
s(S'written'
p1171
g418
g162
tp1172
F0.03382130237253912
s(S'[[num]]'
p1173
g446
g447
tp1174
F0.0005047955577990914
s(S'action'
p1175
S'film'
p1176
S'written'
p1177
tp1178
F0.0010095911155981827
s(S'noir'
p1179
S'directed'
p1180
S'by'
p1181
tp1182
F0.0010095911155981827
s(g70
g355
S'produced'
p1183
tp1184
F0.0005047955577990914
s(g10
g11
S'by'
p1185
tp1186
F0.001514386673397274
s(S'[[adj]]'
p1187
S'film'
p1188
S'written'
p1189
tp1190
F0.001514386673397274
s(g167
g168
S'directed'
p1191
tp1192
F0.0010095911155981827
s(g1101
g1102
S'by'
p1193
tp1194
F0.0005047955577990914
s(S'[[con]]'
p1195
S'edited'
p1196
S'by'
p1197
tp1198
F0.0005047955577990914
s(S'[[num]]'
p1199
g335
g336
tp1200
F0.001514386673397274
s(g107
g108
g543
tp1201
F0.0005047955577990914
s(S'[[adj]]'
p1202
S'adventure'
p1203
S'film'
p1204
tp1205
F0.0010095911155981827
s(S'[[det]]'
p1206
S'film'
p1207
g1179
tp1208
F0.0005047955577990914
s(S'[[num]]'
p1209
g666
g49
tp1210
F0.0005047955577990914
s(g459
g460
S'from'
p1211
tp1212
F0.0005047955577990914
s(g897
g898
S'starring'
p1213
tp1214
F0.0005047955577990914
s(S'crime'
p1215
S'film'
p1216
S'written'
p1217
tp1218
F0.0005047955577990914
s(g155
g156
S'directed'
p1219
tp1220
F0.0020191822311963654
s(S'that'
p1221
g987
g988
tp1222
F0.0005047955577990914
s(g999
g496
g497
tp1223
F0.0005047955577990914
s(S'directed'
p1224
S'starring'
p1225
S'with'
p1226
tp1227
F0.0010095911155981827
s(g7
g315
S'comedy'
p1228
tp1229
F0.0005047955577990914
s(S'[[adj]]'
p1230
g643
g644
tp1231
F0.0005047955577990914
s(g510
g528
g1087
tp1232
F0.006057546693589096
s(S'film'
p1233
g1171
g418
tp1234
F0.02624936900555275
s(S'[[det]]'
p1235
g1115
g1116
tp1236
F0.0005047955577990914
s(g326
g327
S'film'
p1237
tp1238
F0.0010095911155981827
s(S'is'
p1239
S'[[num]]'
p1240
S'mystery'
p1241
tp1242
F0.0005047955577990914
s(g814
g815
S'starring'
p1243
tp1244
F0.0005047955577990914
s(S'[[num]]'
p1245
g566
g567
tp1246
F0.004543160020191822
s(S'aka'
p1247
S'is'
p1248
S'[[num]]'
p1249
tp1250
F0.0010095911155981827
s(S'drama'
p1251
S'film'
p1252
S'written'
p1253
tp1254
F0.005047955577990914
s(S'is'
p1255
S'[[num]]'
p1256
S'crime'
p1257
tp1258
F0.0010095911155981827
s(S'adventure'
p1259
S'film'
p1260
S'written'
p1261
tp1262
F0.0010095911155981827
s(S'[[num]]'
p1263
S'film'
p1264
S'written'
p1265
tp1266
F0.004038364462392731
s(S'with'
p1267
S'[[det]]'
p1268
S'script'
p1269
tp1270
F0.0005047955577990914
s(g439
g440
S'film'
p1271
tp1272
F0.0005047955577990914
s(g583
g584
S'starring'
p1273
tp1274
F0.024734982332155476
s(S'[[det]]'
p1275
g1149
g1071
tp1276
F0.0005047955577990914
s(g1007
g1008
S'starring'
p1277
tp1278
F0.0005047955577990914
s.