(dp0
(S'[[num]]'
p1
S'edited'
p2
S'by'
p3
tp4
F0.25
s(S'was'
p5
S'edited'
p6
S'by'
p7
tp8
F0.25
s(S'[[adj]]'
p9
S'editorial'
p10
S'board'
p11
tp12
F0.25
s(S'[[con]]'
p13
S'edited'
p14
S'by'
p15
tp16
F0.25
s.