(dp0
(S'was'
p1
S'created'
p2
S'by'
p3
tp4
F0.125
s(S'[[adj]]'
p5
S'created'
p6
S'by'
p7
tp8
F0.125
s(S'television'
p9
S'series'
p10
S'developed'
p11
tp12
F0.125
s(S'were'
p13
S'created'
p14
S'by'
p15
tp16
F0.125
s(g10
g11
S'by'
p17
tp18
F0.125
s(S'was'
p19
S'created'
p20
S'with'
p21
tp22
F0.125
s(S'is'
p23
S'created'
p24
S'by'
p25
tp26
F0.125
s(S'[[det]]'
p27
g9
g10
tp28
F0.125
s.