(dp0
(S'had'
p1
S'replaced'
p2
S'[[det]]'
p3
tp4
F0.013513513513513514
s(S'[[det]]'
p5
S'duo'
p6
S'of'
p7
tp8
F0.013513513513513514
s(S'were'
p9
S'replaced'
p10
S'by'
p11
tp12
F0.013513513513513514
s(S'was'
p13
S'replaced'
p14
S'as'
p15
tp16
F0.013513513513513514
s(S'also'
p17
S'formed'
p18
S'with'
p19
tp20
F0.013513513513513514
s(S'were'
p21
S'formed'
p22
S'by'
p23
tp24
F0.02702702702702703
s(S'[[det]]'
p25
S'year'
p26
S'with'
p27
tp28
F0.013513513513513514
s(S'when'
p29
S'performed'
p30
S'with'
p31
tp32
F0.013513513513513514
s(S'[[con]]'
p33
S'replaced'
p34
S'by'
p35
tp36
F0.013513513513513514
s(S'rock'
p37
S'band'
p38
S'formed'
p39
tp40
F0.02702702702702703
s(S'[[adj]]'
p41
S'duo'
p42
S'of'
p43
tp44
F0.013513513513513514
s(S'group'
p45
S'founded'
p46
S'by'
p47
tp48
F0.013513513513513514
s(S'was'
p49
S'noticed'
p50
S'by'
p51
tp52
F0.013513513513513514
s(S'[[pro]]'
p53
S'replaced'
p54
S'by'
p55
tp56
F0.013513513513513514
s(S'[[adj]]'
p57
g45
g46
tp58
F0.013513513513513514
s(S'tours'
p59
g25
g26
tp60
F0.013513513513513514
s(S'band'
p61
S'founded'
p62
S'by'
p63
tp64
F0.013513513513513514
s(S'had'
p65
S'replaced'
p66
S'[[pro]]'
p67
tp68
F0.013513513513513514
s(S'is'
p69
S'replaced'
p70
S'by'
p71
tp72
F0.013513513513513514
s(S'is'
p73
S'replaced'
p74
S'as'
p75
tp76
F0.013513513513513514
s(S'formed'
p77
S'by'
p78
S'singer'
p79
tp80
F0.013513513513513514
s(S'also'
p81
S'formed'
p82
S'[[con]]'
p83
tp84
F0.013513513513513514
s(S'[[con]]'
p85
S'replaced'
p86
S'[[con]]'
p87
tp88
F0.013513513513513514
s(S'which'
p89
S'replaced'
p90
S'[[det]]'
p91
tp92
F0.013513513513513514
s(S'then'
p93
S'replaced'
p94
S'with'
p95
tp96
F0.013513513513513514
s(S'[[con]]'
p97
S'formed'
p98
S'with'
p99
tp100
F0.013513513513513514
s(S'have'
p101
S'formed'
p102
S'at'
p103
tp104
F0.013513513513513514
s(S'then'
p105
S'replaced'
p106
S'as'
p107
tp108
F0.013513513513513514
s(S'be'
p109
S'replaced'
p110
S'by'
p111
tp112
F0.013513513513513514
s(S'[[con]]'
p113
S'replaced'
p114
S'[[pro]]'
p115
tp116
F0.013513513513513514
s(S'being'
p117
S'replaced'
p118
S'by'
p119
tp120
F0.013513513513513514
s(S'then'
p121
S'formed'
p122
S'in'
p123
tp124
F0.013513513513513514
s(S'was'
p125
S'formed'
p126
S'by'
p127
tp128
F0.013513513513513514
s(S'[[con]]'
p129
S'replaced'
p130
S'[[adj]]'
p131
tp132
F0.013513513513513514
s(g38
g39
S'by'
p133
tp134
F0.02702702702702703
s(S'[[det]]'
p135
S'song'
p136
S'by'
p137
tp138
F0.013513513513513514
s(S'be'
p139
S'replaced'
p140
S'as'
p141
tp142
F0.013513513513513514
s(S'also'
p143
S'replaced'
p144
S'as'
p145
tp146
F0.013513513513513514
s(g79
S'[[con]]'
p147
S'guitarist'
p148
tp149
F0.013513513513513514
s(S'was'
p150
S'replaced'
p151
S'from'
p152
tp153
F0.013513513513513514
s(S'recorded'
p154
g135
g136
tp155
F0.013513513513513514
s(S'then'
p156
S'replaced'
p157
S'by'
p158
tp159
F0.013513513513513514
s(S'was'
p160
S'replaced'
p161
S'in'
p162
tp163
F0.013513513513513514
s(S'[[det]]'
p164
S'rock'
p165
S'band'
p166
tp167
F0.013513513513513514
s(S'had'
p168
S'formed'
p169
S'with'
p170
tp171
F0.013513513513513514
s(S'later'
p172
S'replaced'
p173
S'with'
p174
tp175
F0.013513513513513514
s(S'indie'
p176
g37
g38
tp177
F0.013513513513513514
s(S's'
p178
S'lead'
p179
S'singer'
p180
tp181
F0.013513513513513514
s(S'then'
p182
S'formed'
p183
S'with'
p184
tp185
F0.013513513513513514
s(S'was'
p186
S'formed'
p187
S'with'
p188
tp189
F0.013513513513513514
s(S'later'
p190
S'replaced'
p191
S'by'
p192
tp193
F0.013513513513513514
s(S'been'
p194
S'replaced'
p195
S'by'
p196
tp197
F0.013513513513513514
s(S'[[con]]'
p198
S'replaced'
p199
S'with'
p200
tp201
F0.013513513513513514
s(g78
g79
g147
tp202
F0.013513513513513514
s(S'were'
p203
S'formed'
p204
S'[[con]]'
p205
tp206
F0.013513513513513514
s(S'is'
p207
S'formed'
p208
S'with'
p209
tp210
F0.013513513513513514
s(S'soon'
p211
S'replaced'
p212
S'by'
p213
tp214
F0.013513513513513514
s(S'was'
p215
S'replaced'
p216
S'while'
p217
tp218
F0.013513513513513514
s(S'was'
p219
S'replaced'
p220
S'after'
p221
tp222
F0.013513513513513514
s(S'was'
p223
S'replaced'
p224
S'by'
p225
tp226
F0.013513513513513514
s(S'is'
p227
S'formed'
p228
S'by'
p229
tp230
F0.013513513513513514
s(S'also'
p231
S'replaced'
p232
S'by'
p233
tp234
F0.013513513513513514
s(S'[[adj]]'
p235
S'lead'
p236
S'singer'
p237
tp238
F0.013513513513513514
s(S'[[det]]'
p239
g176
g37
tp240
F0.013513513513513514
s(S'was'
p241
S'replaced'
p242
S'with'
p243
tp244
F0.013513513513513514
s(S'later'
p245
S'replaced'
p246
S'as'
p247
tp248
F0.013513513513513514
s(S'was'
p249
S'replaced'
p250
S'[[con]]'
p251
tp252
F0.013513513513513514
s(S'being'
p253
S'replaced'
p254
S'with'
p255
tp256
F0.013513513513513514
s(S'was'
p257
S'formed'
p258
S'after'
p259
tp260
F0.013513513513513514
s(S'were'
p261
S'replaced'
p262
S'with'
p263
tp264
F0.013513513513513514
s(S'had'
p265
S'replaced'
p266
S'with'
p267
tp268
F0.013513513513513514
s.