(dp0
(S'[[adj]]'
p1
S'affiliate'
p2
S'of'
p3
tp4
F0.009523809523809525
s(S'[[adj]]'
p5
S'affiliation'
p6
S'to'
p7
tp8
F0.009523809523809525
s(S'[[con]]'
p9
S'switched'
p10
S'to'
p11
tp12
F0.009523809523809525
s(S'been'
p13
S'affiliated'
p14
S'with'
p15
tp16
F0.009523809523809525
s(S'then'
p17
S'sold'
p18
S'[[pro]]'
p19
tp20
F0.009523809523809525
s(S'be'
p21
S'sold'
p22
S'to'
p23
tp24
F0.009523809523809525
s(S'be'
p25
S'sold'
p26
S'in'
p27
tp28
F0.009523809523809525
s(S'is'
p29
S'sold'
p30
S'to'
p31
tp32
F0.009523809523809525
s(S'was'
p33
S'sold'
p34
S'by'
p35
tp36
F0.009523809523809525
s(S'from'
p37
S'[[det]]'
p38
S'time'
p39
tp40
F0.009523809523809525
s(S'was'
p41
S'picked'
p42
S'up'
p43
tp44
F0.009523809523809525
s(S'affiliated'
p45
S'with'
p46
S'[[adj]]'
p47
tp48
F0.009523809523809525
s(S'later'
p49
S'sold'
p50
S'to'
p51
tp52
F0.009523809523809525
s(S'was'
p53
S'picked'
p54
S'for'
p55
tp56
F0.009523809523809525
s(S'was'
p57
S'dropped'
p58
S'from'
p59
tp60
F0.009523809523809525
s(S'until'
p61
S'sold'
p62
S'[[pro]]'
p63
tp64
F0.009523809523809525
s(S'was'
p65
S'dropped'
p66
S'in'
p67
tp68
F0.009523809523809525
s(S'be'
p69
S'sold'
p70
S'by'
p71
tp72
F0.009523809523809525
s(S'[[det]]'
p73
S'station'
p74
S'programs'
p75
tp76
F0.009523809523809525
s(S'also'
p77
S'picked'
p78
S'by'
p79
tp80
F0.009523809523809525
s(g46
g47
S'networks'
p81
tp82
F0.009523809523809525
s(S'was'
p83
S'affiliated'
p84
S'to'
p85
tp86
F0.009523809523809525
s(S'was'
p87
S'sold'
p88
S'off'
p89
tp90
F0.009523809523809525
s(S'is'
p91
S'sold'
p92
S'by'
p93
tp94
F0.009523809523809525
s(S'[[prp]]'
p95
g5
g6
tp96
F0.009523809523809525
s(S'was'
p97
S'sold'
p98
S'on'
p99
tp100
F0.009523809523809525
s(S'was'
p101
S'owned'
p102
S'by'
p103
tp104
F0.009523809523809525
s(S'also'
p105
S'sold'
p106
S'to'
p107
tp108
F0.009523809523809525
s(S'also'
p109
S'affiliated'
p110
S'with'
p111
tp112
F0.009523809523809525
s(S'[[det]]'
p113
S'affiliate'
p114
S'of'
p115
tp116
F0.009523809523809525
s(S'also'
p117
S'owned'
p118
S'by'
p119
tp120
F0.009523809523809525
s(S'[[det]]'
p121
S'affiliation'
p122
S'with'
p123
tp124
F0.009523809523809525
s(S'[[con]]'
p125
S'picked'
p126
S'up'
p127
tp128
F0.009523809523809525
s(S'been'
p129
S'sold'
p130
S'in'
p131
tp132
F0.009523809523809525
s(S'[[con]]'
p133
S'owned'
p134
S'by'
p135
tp136
F0.009523809523809525
s(S'then'
p137
S'dropped'
p138
S'down'
p139
tp140
F0.009523809523809525
s(S'now'
p141
S'owned'
p142
S'by'
p143
tp144
F0.009523809523809525
s(S'were'
p145
S'sold'
p146
S'to'
p147
tp148
F0.009523809523809525
s(S'formerly'
p149
S'owned'
p150
S'by'
p151
tp152
F0.009523809523809525
s(S'is'
p153
S'owned'
p154
S'[[num]]'
p155
tp156
F0.009523809523809525
s(S'also'
p157
S'carried'
p158
S'[[adj]]'
p159
tp160
F0.009523809523809525
s(S'[[det]]'
p161
S'affiliate'
p162
g73
tp163
F0.009523809523809525
s(S'then'
p164
S'sold'
p165
S'to'
p166
tp167
F0.009523809523809525
s(S'been'
p168
S'owned'
p169
S'by'
p170
tp171
F0.009523809523809525
s(g159
S'affiliations'
p172
S'with'
p173
tp174
F0.009523809523809525
s(S'was'
p175
S'sold'
p176
S'[[con]]'
p177
tp178
F0.009523809523809525
s(S'been'
p179
S'dropped'
p180
S'by'
p181
tp182
F0.009523809523809525
s(S'were'
p183
S'sold'
p184
S'off'
p185
tp186
F0.009523809523809525
s(S'had'
p187
S'sold'
p188
S'[[prp]]'
p189
tp190
F0.009523809523809525
s(S'are'
p191
S'owned'
p192
S'by'
p193
tp194
F0.009523809523809525
s(S'[[adj]]'
p195
S'affiliation'
p196
S'with'
p197
tp198
F0.009523809523809525
s(S'was'
p199
S'dropped'
p200
S'[[con]]'
p201
tp202
F0.009523809523809525
s(S'[[adj]]'
p203
S'affiliate'
p204
S'for'
p205
tp206
F0.009523809523809525
s(S'been'
p207
S'affiliated'
p208
S'to'
p209
tp210
F0.009523809523809525
s(S'not'
p211
S'owned'
p212
S'by'
p213
tp214
F0.009523809523809525
s(S's'
p215
S'programming'
p216
S'from'
p217
tp218
F0.009523809523809525
s(S'[[det]]'
p219
S'switch'
p220
S'to'
p221
tp222
F0.009523809523809525
s(S'was'
p223
S'picked'
p224
S'to'
p225
tp226
F0.009523809523809525
s(S'[[adj]]'
p227
S'sold'
p228
S'in'
p229
tp230
F0.009523809523809525
s(S'[[con]]'
p231
S'sold'
p232
S'to'
p233
tp234
F0.009523809523809525
s(S'was'
p235
S'sold'
p236
S'to'
p237
tp238
F0.009523809523809525
s(S'had'
p239
S'switched'
p240
S'to'
p241
tp242
F0.009523809523809525
s(S'[[prp]]'
p243
S'affiliation'
p244
S'with'
p245
tp246
F0.009523809523809525
s(S'had'
p247
S'sold'
p248
S'to'
p249
tp250
F0.009523809523809525
s(S'was'
p251
S'sold'
p252
S'for'
p253
tp254
F0.009523809523809525
s(S'been'
p255
S'sold'
p256
S'to'
p257
tp258
F0.009523809523809525
s(S'switched'
p259
g95
g5
tp260
F0.009523809523809525
s(S'charter'
p261
S'affiliate'
p262
S'of'
p263
tp264
F0.009523809523809525
s(S'be'
p265
S'picked'
p266
S'for'
p267
tp268
F0.009523809523809525
s(S'then'
p269
S'picked'
p270
S'up'
p271
tp272
F0.009523809523809525
s(S'was'
p273
S'picked'
p274
S'by'
p275
tp276
F0.009523809523809525
s(S'to'
p277
S'affiliate'
p278
S'[[det]]'
p279
tp280
F0.009523809523809525
s(S'had'
p281
S'dropped'
p282
S'out'
p283
tp284
F0.009523809523809525
s(g74
g75
S'from'
p285
tp286
F0.009523809523809525
s(S'became'
p287
S'affiliated'
p288
S'with'
p289
tp290
F0.009523809523809525
s(S'also'
p291
S'sold'
p292
S'[[adj]]'
p293
tp294
F0.009523809523809525
s(S'[[adj]]'
p295
S'programming'
p296
S'from'
p297
tp298
F0.009523809523809525
s(S'then'
p299
S'switched'
p300
S'to'
p301
tp302
F0.009523809523809525
s(S'[[det]]'
p303
S'affiliate'
p304
S'for'
p305
tp306
F0.009523809523809525
s(S'was'
p307
S'sold'
p308
S'back'
p309
tp310
F0.009523809523809525
s(S'still'
p311
S'owned'
p312
S'by'
p313
tp314
F0.009523809523809525
s(S'is'
p315
S'owned'
p316
S'[[con]]'
p317
tp318
F0.009523809523809525
s(S'[[det]]'
p319
S'owned'
p320
S'by'
p321
tp322
F0.009523809523809525
s(S'also'
p323
S'picked'
p324
S'up'
p325
tp326
F0.009523809523809525
s(S'was'
p327
S'affiliated'
p328
S'with'
p329
tp330
F0.01904761904761905
s(S'then'
p331
S'dropped'
p332
S'out'
p333
tp334
F0.009523809523809525
s(S'being'
p335
S'sold'
p336
S'in'
p337
tp338
F0.009523809523809525
s(S'[[prp]]'
p339
S'affiliation'
p340
S'to'
p341
tp342
F0.009523809523809525
s(S'programming'
p343
g37
g38
tp344
F0.009523809523809525
s(S'had'
p345
S'switched'
p346
S'from'
p347
tp348
F0.009523809523809525
s(S'was'
p349
S'dropped'
p350
S'to'
p351
tp352
F0.009523809523809525
s(S'is'
p353
S'owned'
p354
S'by'
p355
tp356
F0.009523809523809525
s(S'[[det]]'
p357
g261
g262
tp358
F0.009523809523809525
s(g158
g159
g172
tp359
F0.009523809523809525
s(S'was'
p360
S'dropped'
p361
S'for'
p362
tp363
F0.009523809523809525
s(S'being'
p364
S'sold'
p365
S'to'
p366
tp367
F0.009523809523809525
s(S'currently'
p368
S'owned'
p369
S'by'
p370
tp371
F0.009523809523809525
s(S'was'
p372
S'sold'
p373
S'[[det]]'
p374
tp375
F0.009523809523809525
s(S'[[mod]]'
p376
S'switch'
p377
S'to'
p378
tp379
F0.009523809523809525
s(S'switched'
p380
S'[[prp]]'
p381
S'affiliation'
p382
tp383
F0.01904761904761905
s(S'was'
p384
S'affiliated'
p385
S'[[con]]'
p386
tp387
F0.009523809523809525
s(S'also'
p388
S'sold'
p389
S'by'
p390
tp391
F0.009523809523809525
s(g162
g73
g74
tp392
F0.009523809523809525
s.