(dp0
(S'[[det]]'
p1
S'states'
p2
S'as'
p3
tp4
F0.006024096385542169
s(S'now'
p5
S'located'
p6
S'in'
p7
tp8
F0.006024096385542169
s(S'founded'
p9
S'[[con]]'
p10
S'currently'
p11
tp12
F0.006024096385542169
s(S'[[adj]]'
p13
S'factory'
p14
S'in'
p15
tp16
F0.006024096385542169
s(S'became'
p17
S'[[adj]]'
p18
S'producer'
p19
tp20
F0.006024096385542169
s(S'had'
p21
S'merged'
p22
S'with'
p23
tp24
F0.006024096385542169
s(S'were'
p25
S'founded'
p26
S'in'
p27
tp28
F0.006024096385542169
s(S'later'
p29
S'merged'
p30
S'with'
p31
tp32
F0.006024096385542169
s(S'[[det]]'
p33
S'largest'
p34
S'[[con]]'
p35
tp36
F0.006024096385542169
s(S'was'
p37
S'merged'
p38
S'into'
p39
tp40
F0.006024096385542169
s(S'[[adj]]'
p41
S'based'
p42
S'in'
p43
tp44
F0.006024096385542169
s(S'[[det]]'
p45
S'[[adj]]'
p46
S'miles'
p47
tp48
F0.012048192771084338
s(S'had'
p49
S'added'
p50
g45
tp51
F0.012048192771084338
s(S'[[prp]]'
p52
S'headquarters'
p53
S'at'
p54
tp55
F0.006024096385542169
s(S'were'
p56
S'based'
p57
S'in'
p58
tp59
F0.006024096385542169
s(g47
S'including'
p60
S'what'
p61
tp62
F0.012048192771084338
s(S'contained'
p63
S'[[num]]'
p64
S'states'
p65
tp66
F0.006024096385542169
s(S'is'
p67
S'located'
p68
S'of'
p69
tp70
F0.006024096385542169
s(S'[[prp]]'
p71
S'headquarters'
p72
S'in'
p73
tp74
F0.012048192771084338
s(S'[[prp]]'
p75
S'headquarters'
p76
S'from'
p77
tp78
F0.012048192771084338
s(S'has'
p79
S'offices'
p80
S'[[con]]'
p81
tp82
F0.006024096385542169
s(g50
g45
g46
tp83
F0.012048192771084338
s(S'later'
p84
S'merged'
p85
S'[[con]]'
p86
tp87
F0.006024096385542169
s(S'then'
p88
S'merged'
p89
S'with'
p90
tp91
F0.006024096385542169
s(S'[[adj]]'
p92
S'located'
p93
S'at'
p94
tp95
F0.006024096385542169
s(S'[[adj]]'
p96
S'offices'
p97
S'in'
p98
tp99
F0.006024096385542169
s(S'known'
p100
S'[[det]]'
p101
S'frontier'
p102
tp103
F0.006024096385542169
s(S'which'
p104
S'merged'
p105
S'with'
p106
tp107
F0.006024096385542169
s(S'been'
p108
S'founded'
p109
S'in'
p110
tp111
F0.006024096385542169
s(S'[[num]]'
p112
S'located'
p113
S'in'
p114
tp115
F0.006024096385542169
s(S'currently'
p116
S'located'
p117
S'in'
p118
tp119
F0.006024096385542169
s(S'[[adj]]'
p120
S'largest'
p121
S'[[adj]]'
p122
tp123
F0.006024096385542169
s(S'was'
p124
S'founded'
p125
S'from'
p126
tp127
F0.006024096385542169
s(S'was'
p128
S'founded'
p129
S'as'
p130
tp131
F0.006024096385542169
s(S'was'
p132
S'merged'
p133
S'to'
p134
tp135
F0.006024096385542169
s(S'[[adj]]'
p136
S'located'
p137
S'in'
p138
tp139
F0.006024096385542169
s(S'[[adj]]'
p140
S'company'
p141
S'based'
p142
tp143
F0.006024096385542169
s(S'moved'
p144
S'[[prp]]'
p145
S'[[adj]]'
p146
tp147
F0.012048192771084338
s(S'is'
p148
S'based'
p149
S'in'
p150
tp151
F0.006024096385542169
s(S'[[num]]'
p152
S'based'
p153
S'in'
p154
tp155
F0.006024096385542169
s(S'was'
p156
S'founded'
p157
S'on'
p158
tp159
F0.006024096385542169
s(S'was'
p160
S'founded'
p161
S'when'
p162
tp163
F0.006024096385542169
s(S'[[det]]'
p164
S'founded'
p165
S'in'
p166
tp167
F0.006024096385542169
s(g65
S'[[con]]'
p168
S'[[adj]]'
p169
tp170
F0.006024096385542169
s(S'[[adj]]'
p171
S'headquarters'
p172
S'from'
p173
tp174
F0.012048192771084338
s(S'is'
p175
S'founded'
p176
S'as'
p177
tp178
F0.006024096385542169
s(S'[[prp]]'
p179
S'headquarters'
p180
S'[[det]]'
p181
tp182
F0.006024096385542169
s(S's'
p183
S'located'
p184
S'near'
p185
tp186
F0.006024096385542169
s(S'had'
p187
S'offices'
p188
S'in'
p189
tp190
F0.006024096385542169
s(S'currently'
p191
S'operates'
p192
S'in'
p193
tp194
F0.006024096385542169
s(S'founded'
p195
S'[[con]]'
p196
S'is'
p197
tp198
F0.006024096385542169
s(S'[[adj]]'
p199
S'factories'
p200
S'in'
p201
tp202
F0.006024096385542169
s(S'[[det]]'
p203
S'number'
p204
S'[[det]]'
p205
tp206
F0.006024096385542169
s(S'[[adj]]'
p207
S'headquarters'
p208
S'in'
p209
tp210
F0.006024096385542169
s(S'company'
p211
S'based'
p212
S'in'
p213
tp214
F0.018072289156626505
s(S'founded'
p215
S'[[con]]'
p216
S'headquartered'
p217
tp218
F0.006024096385542169
s(g205
S'rest'
p219
S'to'
p220
tp221
F0.006024096385542169
s(S'was'
p222
S'founded'
p223
S'[[det]]'
p224
tp225
F0.006024096385542169
s(S'quickly'
p226
g17
g18
tp227
F0.006024096385542169
s(S'was'
p228
g9
g10
tp229
F0.024096385542168676
s(S'currently'
p230
S'headquartered'
p231
S'in'
p232
tp233
F0.012048192771084338
s(S'be'
p234
S'merged'
p235
S'with'
p236
tp237
F0.006024096385542169
s(g2
g3
S'portions'
p238
tp239
F0.006024096385542169
s(S'is'
p240
S'headquartered'
p241
S'[[con]]'
p242
tp243
F0.006024096385542169
s(S'was'
p244
S'founded'
p245
S'for'
p246
tp247
F0.006024096385542169
s(S'[[adj]]'
p248
S'election'
p249
S'in'
p250
tp251
F0.006024096385542169
s(g64
g65
g168
tp252
F0.006024096385542169
s(S'[[adj]]'
p253
S'founded'
p254
S'in'
p255
tp256
F0.006024096385542169
s(S'also'
p257
S'operates'
p258
S'from'
p259
tp260
F0.006024096385542169
s(g183
S'based'
p261
S'in'
p262
tp263
F0.006024096385542169
s(S'is'
p264
S'typically'
p265
S'[[adj]]'
p266
tp267
F0.006024096385542169
s(S'is'
p268
S'based'
p269
S'near'
p270
tp271
F0.006024096385542169
s(S'has'
p272
S'offices'
p273
S'in'
p274
tp275
F0.006024096385542169
s(S'was'
p276
S'based'
p277
S'in'
p278
tp279
F0.006024096385542169
s(S'was'
p280
S'headquartered'
p281
S'[[con]]'
p282
tp283
F0.006024096385542169
s(S'is'
p284
S'founded'
p285
S'at'
p286
tp287
F0.006024096385542169
s(S'also'
p288
S'operates'
p289
S'in'
p290
tp291
F0.006024096385542169
s(g145
g146
S'headquarters'
p292
tp293
F0.012048192771084338
s(S'now'
p294
S'operates'
p295
S'in'
p296
tp297
F0.006024096385542169
s(S'[[con]]'
p298
S'merged'
p299
S'with'
p300
tp301
F0.006024096385542169
s(S'is'
p302
S'headquartered'
p303
S'with'
p304
tp305
F0.006024096385542169
s(S'[[det]]'
p306
S'largest'
p307
S'of'
p308
tp309
F0.006024096385542169
s(g196
g197
S'headquartered'
p310
tp311
F0.006024096385542169
s(S'[[det]]'
p312
g211
g212
tp313
F0.006024096385542169
s(S'has'
p314
S'headquarters'
p315
S'in'
p316
tp317
F0.006024096385542169
s(S'was'
p318
S'founded'
p319
S'with'
p320
tp321
F0.006024096385542169
s(S'moved'
p322
S'[[prp]]'
p323
S'headquarters'
p324
tp325
F0.024096385542168676
s(g146
g292
S'to'
p326
tp327
F0.006024096385542169
s(S'with'
p328
S'headquarters'
p329
S'in'
p330
tp331
F0.006024096385542169
s(S'be'
p332
S'based'
p333
S'in'
p334
tp335
F0.006024096385542169
s(S'was'
p336
S'located'
p337
S'in'
p338
tp339
F0.006024096385542169
s(S'[[det]]'
p340
S'largest'
p341
S'in'
p342
tp343
F0.006024096385542169
s(S'[[det]]'
p344
S'states'
p345
S'of'
p346
tp347
F0.006024096385542169
s(g46
g47
g60
tp348
F0.012048192771084338
s(S'been'
p349
S'located'
p350
S'in'
p351
tp352
F0.006024096385542169
s(g168
g169
S'territories'
p353
tp354
F0.006024096385542169
s(S'was'
p355
S'founded'
p356
S'[[num]]'
p357
tp358
F0.006024096385542169
s(S'also'
p359
S'located'
p360
S'in'
p361
tp362
F0.006024096385542169
s(S'later'
p363
S'merged'
p364
S'into'
p365
tp366
F0.006024096385542169
s(S'is'
p367
S'located'
p368
S'in'
p369
tp370
F0.006024096385542169
s(S'was'
p371
S'merged'
p372
S'with'
p373
tp374
F0.006024096385542169
s(S'is'
p375
S'founded'
p376
S'in'
p377
tp378
F0.006024096385542169
s(S'also'
p379
S'based'
p380
S'in'
p381
tp382
F0.006024096385542169
s(S'with'
p383
S'offices'
p384
S'in'
p385
tp386
F0.006024096385542169
s(g204
g205
g219
tp387
F0.006024096385542169
s(g61
S'today'
p388
g1
tp389
F0.012048192771084338
s(S'when'
p390
S'merged'
p391
S'with'
p392
tp393
F0.006024096385542169
s(S'[[det]]'
p394
S'located'
p395
S'in'
p396
tp397
F0.006024096385542169
s(g3
g238
S'of'
p398
tp399
F0.006024096385542169
s(S'[[prp]]'
p400
S'offices'
p401
S'in'
p402
tp403
F0.006024096385542169
s(S'was'
p404
S'founded'
p405
S'in'
p406
tp407
F0.006024096385542169
s(S'[[det]]'
p408
S'largest'
p409
S'[[adj]]'
p410
tp411
F0.006024096385542169
s(g265
g266
S'states'
p412
tp413
F0.006024096385542169
s(S'is'
p414
S'headquartered'
p415
S'in'
p416
tp417
F0.012048192771084338
s(g183
S'headquarters'
p418
S'in'
p419
tp420
F0.006024096385542169
s(S'[[adj]]'
p421
g100
g101
tp422
F0.006024096385542169
s(S'[[con]]'
p423
S'merged'
p424
S'into'
p425
tp426
F0.006024096385542169
s(g388
g1
g2
tp427
F0.012048192771084338
s(S'be'
p428
S'merged'
p429
S'into'
p430
tp431
F0.006024096385542169
s(S'is'
p432
S'located'
p433
S'[[det]]'
p434
tp435
F0.006024096385542169
s(S'[[prp]]'
p436
S'headquarters'
p437
S'to'
p438
tp439
F0.012048192771084338
s(g60
g61
g388
tp440
F0.012048192771084338
s(g216
g217
S'in'
p441
tp442
F0.012048192771084338
s(S'is'
p443
S'based'
p444
S'out'
p445
tp446
F0.006024096385542169
s(S'[[con]]'
p447
S'located'
p448
S'in'
p449
tp450
F0.006024096385542169
s(S'were'
p451
S'merged'
p452
S'into'
p453
tp454
F0.006024096385542169
s(S'was'
p455
S'merged'
p456
S'[[con]]'
p457
tp458
F0.006024096385542169
s(S'had'
p459
S'merged'
p460
S'into'
p461
tp462
F0.006024096385542169
s(S'are'
p463
S'based'
p464
S'in'
p465
tp466
F0.006024096385542169
s(S'was'
p467
S'founded'
p468
S'at'
p469
tp470
F0.006024096385542169
s(S'was'
p471
S'headquartered'
p472
S'in'
p473
tp474
F0.006024096385542169
s(g10
g11
S'headquartered'
p475
tp476
F0.006024096385542169
s(g183
S'factory'
p477
S'in'
p478
tp479
F0.006024096385542169
s(S'[[adj]]'
p480
S'outlets'
p481
S'in'
p482
tp483
F0.006024096385542169
s(S'was'
p484
S'founded'
p485
S'to'
p486
tp487
F0.006024096385542169
s(S'[[con]]'
p488
S'offices'
p489
S'in'
p490
tp491
F0.006024096385542169
s(g183
S'located'
p492
S'in'
p493
tp494
F0.006024096385542169
s(S'was'
p495
S'founded'
p496
S'after'
p497
tp498
F0.006024096385542169
s(S'was'
p499
S'founded'
p500
S'under'
p501
tp502
F0.006024096385542169
s(S'[[con]]'
p503
S'merged'
p504
S'to'
p505
tp506
F0.006024096385542169
s(g18
g19
S'with'
p507
tp508
F0.006024096385542169
s.