(dp0
(S'[[num]]'
p1
S'based'
p2
S'at'
p3
tp4
F0.012195121951219513
s(S'to'
p5
S'[[det]]'
p6
S'stationed'
p7
tp8
F0.012195121951219513
s(S'[[prp]]'
p9
S'headquarters'
p10
S'[[con]]'
p11
tp12
F0.012195121951219513
s(S'[[det]]'
p13
S'stationed'
p14
S'at'
p15
tp16
F0.024390243902439025
s(S'to'
p17
S'[[num]]'
p18
S'stationed'
p19
tp20
F0.012195121951219513
s(S'[[adj]]'
p21
S'assigned'
p22
S'to'
p23
tp24
F0.04878048780487805
s(S'[[con]]'
p25
S'based'
p26
S'at'
p27
tp28
F0.012195121951219513
s(S'[[adj]]'
p29
S'located'
p30
S'at'
p31
tp32
F0.012195121951219513
s(S'been'
p33
S'based'
p34
S'at'
p35
tp36
F0.012195121951219513
s(S'to'
p37
S'being'
p38
S'stationed'
p39
tp40
F0.012195121951219513
s(S'is'
p41
S'headquartered'
p42
S'at'
p43
tp44
F0.012195121951219513
s(S'was'
p45
S'headquartered'
p46
S'[[con]]'
p47
tp48
F0.012195121951219513
s(S'assigned'
p49
S'stationed'
p50
S'at'
p51
tp52
F0.012195121951219513
s(S'[[det]]'
p53
S'based'
p54
S'at'
p55
tp56
F0.012195121951219513
s(S'to'
p57
S'stationed'
p58
S'at'
p59
tp60
F0.012195121951219513
s(S'while'
p61
S'moved'
p62
S'to'
p63
tp64
F0.012195121951219513
s(S'is'
p65
S'headquartered'
p66
S'in'
p67
tp68
F0.012195121951219513
s(S'is'
p69
S'headquartered'
p70
S'with'
p71
tp72
F0.012195121951219513
s(S'was'
p73
S'activated'
p74
S'at'
p75
tp76
F0.012195121951219513
s(S'[[adj]]'
p77
S'stationed'
p78
S'at'
p79
tp80
F0.036585365853658534
s(S'was'
p81
S'reactivated'
p82
S'at'
p83
tp84
F0.012195121951219513
s(S'were'
p85
S'based'
p86
S'at'
p87
tp88
F0.012195121951219513
s(S'is'
p89
S'based'
p90
S'around'
p91
tp92
F0.012195121951219513
s(g18
g19
S'at'
p93
tp94
F0.012195121951219513
s(S's'
p95
S'headquarters'
p96
S'at'
p97
tp98
F0.012195121951219513
s(S'[[adj]]'
p99
S'based'
p100
S'at'
p101
tp102
F0.012195121951219513
s(S'with'
p103
S'headquarters'
p104
S'at'
p105
tp106
F0.012195121951219513
s(S'[[prp]]'
p107
S'headquarters'
p108
S'at'
p109
tp110
F0.012195121951219513
s(S'is'
p111
S'stationed'
p112
S'at'
p113
tp114
F0.012195121951219513
s(S'[[adj]]'
p115
g49
g50
tp116
F0.012195121951219513
s(S'also'
p117
S'located'
p118
S'on'
p119
tp120
F0.012195121951219513
s(S'[[con]]'
p121
S'stationed'
p122
S'at'
p123
tp124
F0.024390243902439025
s(S'was'
p125
S'moved'
p126
S'[[con]]'
p127
tp128
F0.012195121951219513
s(S'is'
p129
S'assigned'
p130
S'[[con]]'
p131
tp132
F0.012195121951219513
s(S'was'
p133
S'based'
p134
S'at'
p135
tp136
F0.012195121951219513
s(S'[[adj]]'
p137
S'assigned'
p138
g121
tp139
F0.012195121951219513
s(S'[[con]]'
p140
S'headquartered'
p141
S'in'
p142
tp143
F0.012195121951219513
s(S'assigned'
p144
g57
g58
tp145
F0.012195121951219513
s(g23
S'[[adj]]'
p146
S'stationed'
p147
tp148
F0.024390243902439025
s(S'assigned'
p149
S'being'
p150
S'stationed'
p151
tp152
F0.012195121951219513
s(S'[[adj]]'
p153
S'headquarters'
p154
S'at'
p155
tp156
F0.012195121951219513
s(g95
S'located'
p157
S'on'
p158
tp159
F0.012195121951219513
s(S'is'
p160
S'based'
p161
S'[[con]]'
p162
tp163
F0.012195121951219513
s(S'assigned'
p164
g37
g38
tp165
F0.012195121951219513
s(S'assigned'
p166
g5
g6
tp167
F0.012195121951219513
s(S'being'
p168
S'stationed'
p169
S'in'
p170
tp171
F0.012195121951219513
s(S'[[det]]'
p172
S'located'
p173
S'within'
p174
tp175
F0.012195121951219513
s(S'are'
p176
S'based'
p177
S'in'
p178
tp179
F0.012195121951219513
s(S'currently'
p180
S'headquartered'
p181
S'in'
p182
tp183
F0.012195121951219513
s(S'had'
p184
S'moved'
p185
S'at'
p186
tp187
F0.012195121951219513
s(S'was'
p188
S'headquartered'
p189
S'in'
p190
tp191
F0.012195121951219513
s(S'[[adj]]'
p192
g149
g150
tp193
F0.012195121951219513
s(g138
g121
g122
tp194
F0.024390243902439025
s(S'currently'
p195
S'based'
p196
S'at'
p197
tp198
F0.012195121951219513
s(S'are'
p199
S'based'
p200
S'at'
p201
tp202
F0.012195121951219513
s(S'was'
p203
S'located'
p204
S'[[adj]]'
p205
tp206
F0.012195121951219513
s(S'been'
p207
S'moved'
p208
S'to'
p209
tp210
F0.012195121951219513
s(S'was'
p211
S'headquartered'
p212
S'at'
p213
tp214
F0.012195121951219513
s(S'is'
p215
S'assigned'
p216
S'to'
p217
tp218
F0.024390243902439025
s(g95
S'located'
p219
S'in'
p220
tp221
F0.012195121951219513
s(S'been'
p222
S'located'
p223
S'at'
p224
tp225
F0.012195121951219513
s(g150
g151
S'at'
p226
tp227
F0.024390243902439025
s(S'[[con]]'
p228
S'activated'
p229
S'at'
p230
tp231
F0.012195121951219513
s(S'assigned'
p232
g17
g18
tp233
F0.012195121951219513
s(S'is'
p234
S'based'
p235
S'[[adj]]'
p236
tp237
F0.012195121951219513
s(g22
g23
g146
tp238
F0.024390243902439025
s(S'is'
p239
S'located'
p240
S'by'
p241
tp242
F0.012195121951219513
s(S'is'
p243
S'stationed'
p244
S'in'
p245
tp246
F0.012195121951219513
s(S'is'
p247
S'based'
p248
S'at'
p249
tp250
F0.012195121951219513
s(g95
S'located'
p251
S'at'
p252
tp253
F0.012195121951219513
s.