(dp0
(S'also'
p1
S'appointed'
p2
S'[[det]]'
p3
tp4
F0.006369426751592357
s(S'be'
p5
S'appointed'
p6
S'[[det]]'
p7
tp8
F0.006369426751592357
s(S'is'
p9
S'appointed'
p10
S'as'
p11
tp12
F0.006369426751592357
s(S'[[con]]'
p13
S'served'
p14
S'with'
p15
tp16
F0.006369426751592357
s(S'being'
p17
S'appointed'
p18
S'to'
p19
tp20
F0.006369426751592357
s(S'was'
p21
S'appointed'
p22
S'[[con]]'
p23
tp24
F0.006369426751592357
s(S'to'
p25
S'meet'
p26
S'up'
p27
tp28
F0.006369426751592357
s(S'later'
p29
S'appointed'
p30
S'as'
p31
tp32
F0.006369426751592357
s(S'then'
p33
S'appointed'
p34
S'by'
p35
tp36
F0.006369426751592357
s(S'also'
p37
S'served'
p38
S'under'
p39
tp40
F0.006369426751592357
s(S'were'
p41
S'appointed'
p42
S'by'
p43
tp44
F0.006369426751592357
s(S'had'
p45
S'appointed'
p46
S'in'
p47
tp48
F0.006369426751592357
s(S'[[det]]'
p49
S'appeal'
p50
S'[[det]]'
p51
tp52
F0.006369426751592357
s(S'is'
p53
S'appointed'
p54
S'after'
p55
tp56
F0.006369426751592357
s(S'[[con]]'
p57
S'served'
p58
S'where'
p59
tp60
F0.006369426751592357
s(S'was'
p61
S'served'
p62
S'as'
p63
tp64
F0.006369426751592357
s(S'drawn'
p65
S'[[con]]'
p66
S'signed'
p67
tp68
F0.006369426751592357
s(S'later'
p69
S'appointed'
p70
S'[[con]]'
p71
tp72
F0.006369426751592357
s(S'also'
p73
S'served'
p74
S'when'
p75
tp76
F0.006369426751592357
s(S'again'
p77
S'served'
p78
S'as'
p79
tp80
F0.006369426751592357
s(S'when'
p81
S'served'
p82
S'as'
p83
tp84
F0.006369426751592357
s(S'was'
p85
S'appointed'
p86
S'by'
p87
tp88
F0.006369426751592357
s(S'[[con]]'
p89
S'served'
p90
S'[[num]]'
p91
tp92
F0.006369426751592357
s(S'to'
p93
S'succeed'
p94
S'as'
p95
tp96
F0.006369426751592357
s(S'then'
p97
S'served'
p98
S'as'
p99
tp100
F0.006369426751592357
s(S'had'
p101
S'appointed'
p102
S'to'
p103
tp104
F0.006369426751592357
s(S'later'
p105
S'appointed'
p106
S'[[det]]'
p107
tp108
F0.006369426751592357
s(S'[[con]]'
p109
S'appointed'
p110
S'[[pro]]'
p111
tp112
F0.006369426751592357
s(S'then'
p113
S'appointed'
p114
S'to'
p115
tp116
F0.006369426751592357
s(S'also'
p117
S'served'
p118
S'along'
p119
tp120
F0.006369426751592357
s(S'has'
p121
S'served'
p122
S'by'
p123
tp124
F0.006369426751592357
s(S'have'
p125
S'served'
p126
S'with'
p127
tp128
F0.006369426751592357
s(S'have'
p129
S'served'
p130
S'in'
p131
tp132
F0.006369426751592357
s(S'first'
p133
S'served'
p134
S'[[con]]'
p135
tp136
F0.006369426751592357
s(S'also'
p137
S'served'
p138
S'[[num]]'
p139
tp140
F0.006369426751592357
s(S'[[adj]]'
p141
S'served'
p142
S'for'
p143
tp144
F0.006369426751592357
s(S'where'
p145
S'served'
p146
S'as'
p147
tp148
F0.006369426751592357
s(S'has'
p149
S'served'
p150
S'as'
p151
tp152
F0.006369426751592357
s(S'to'
p153
S'succeed'
p154
S'[[con]]'
p155
tp156
F0.006369426751592357
s(S'was'
p157
S'appointed'
p158
S'under'
p159
tp160
F0.006369426751592357
s(S'later'
p161
S'appointed'
p162
S'by'
p163
tp164
F0.006369426751592357
s(S'been'
p165
S'appointed'
p166
S'as'
p167
tp168
F0.006369426751592357
s(S'been'
p169
S'appointed'
p170
S'by'
p171
tp172
F0.006369426751592357
s(S'to'
p173
S'meet'
p174
S'[[adj]]'
p175
tp176
F0.006369426751592357
s(S'has'
p177
S'served'
p178
S'[[con]]'
p179
tp180
F0.006369426751592357
s(S'to'
p181
S'meet'
p182
S'[[con]]'
p183
tp184
F0.006369426751592357
s(S'while'
p185
S'served'
p186
S'as'
p187
tp188
F0.006369426751592357
s(S'to'
p189
S'meet'
p190
S'with'
p191
tp192
F0.006369426751592357
s(S'first'
p193
S'served'
p194
S'as'
p195
tp196
F0.006369426751592357
s(S'is'
p197
S'appointed'
p198
S'[[det]]'
p199
tp200
F0.006369426751592357
s(S'had'
p201
S'served'
p202
S'on'
p203
tp204
F0.006369426751592357
s(S'case'
p205
S'involving'
p206
S'[[det]]'
p207
tp208
F0.006369426751592357
s(S'being'
p209
S'appointed'
p210
S'[[det]]'
p211
tp212
F0.006369426751592357
s(S'[[mod]]'
p213
S'meet'
p214
S'up'
p215
tp216
F0.006369426751592357
s(S'who'
p217
S'appointed'
p218
S'[[det]]'
p219
tp220
F0.006369426751592357
s(S'also'
p221
S'appointed'
p222
S'[[con]]'
p223
tp224
F0.006369426751592357
s(g51
g205
g206
tp225
F0.006369426751592357
s(S'[[con]]'
p226
S'appointed'
p227
S'as'
p228
tp229
F0.006369426751592357
s(S'to'
p230
S'meet'
p231
S'[[det]]'
p232
tp233
F0.006369426751592357
s(S'[[mod]]'
p234
S'meet'
p235
S'[[adj]]'
p236
tp237
F0.006369426751592357
s(S'drop'
p238
g49
g50
tp239
F0.006369426751592357
s(S'be'
p240
S'appointed'
p241
S'to'
p242
tp243
F0.006369426751592357
s(S'[[adj]]'
p244
S'appointed'
p245
S'by'
p246
tp247
F0.006369426751592357
s(S'has'
p248
S'served'
p249
S'under'
p250
tp251
F0.006369426751592357
s(S'[[adj]]'
p252
S'challenge'
p253
S'to'
p254
tp255
F0.006369426751592357
s(S'then'
p256
S'served'
p257
S'until'
p258
tp259
F0.006369426751592357
s(S'first'
p260
S'appointed'
p261
S'by'
p262
tp263
F0.006369426751592357
s(g254
g65
g66
tp264
F0.006369426751592357
s(S'later'
p265
S'served'
p266
S'as'
p267
tp268
F0.006369426751592357
s(S'[[pro]]'
p269
S'served'
p270
S'as'
p271
tp272
F0.006369426751592357
s(S'had'
p273
S'appointed'
p274
S'as'
p275
tp276
F0.006369426751592357
s(S'been'
p277
S'appointed'
p278
S'to'
p279
tp280
F0.006369426751592357
s(S'later'
p281
S'appointed'
p282
S'of'
p283
tp284
F0.006369426751592357
s(S'also'
p285
S'served'
p286
S'where'
p287
tp288
F0.006369426751592357
s(S'[[con]]'
p289
S'served'
p290
S'to'
p291
tp292
F0.006369426751592357
s(S'[[det]]'
p293
S'appointed'
p294
S'[[con]]'
p295
tp296
F0.006369426751592357
s(S'has'
p297
S'served'
p298
S'to'
p299
tp300
F0.006369426751592357
s(g50
g51
g205
tp301
F0.006369426751592357
s(S'later'
p302
S'served'
p303
S'[[con]]'
p304
tp305
F0.006369426751592357
s(S'[[con]]'
p306
S'served'
p307
S'under'
p308
tp309
F0.006369426751592357
s(S'also'
p310
S'appointed'
p311
S'as'
p312
tp313
F0.006369426751592357
s(S'then'
p314
S'served'
p315
S'before'
p316
tp317
F0.006369426751592357
s(S'twice'
p318
S'served'
p319
S'as'
p320
tp321
F0.006369426751592357
s(S'also'
p322
S'served'
p323
S'against'
p324
tp325
F0.006369426751592357
s(S'[[det]]'
p326
S'served'
p327
S'as'
p328
tp329
F0.006369426751592357
s(S'was'
p330
S'appointed'
p331
S'[[adj]]'
p332
tp333
F0.006369426751592357
s(S'to'
p334
S'succeed'
p335
S'in'
p336
tp337
F0.006369426751592357
s(S'following'
p338
S'[[det]]'
p339
S'resignation'
p340
tp341
F0.006369426751592357
s(S'not'
p342
S'meet'
p343
S'[[det]]'
p344
tp345
F0.006369426751592357
s(S'also'
p346
S'served'
p347
S'[[con]]'
p348
tp349
F0.006369426751592357
s(S'[[det]]'
p350
S'appointed'
p351
S'by'
p352
tp353
F0.006369426751592357
s(S'have'
p354
S'served'
p355
S'as'
p356
tp357
F0.006369426751592357
s(S'was'
p358
S'appointed'
p359
S'before'
p360
tp361
F0.006369426751592357
s(S'had'
p362
S'served'
p363
S'under'
p364
tp365
F0.006369426751592357
s(S'[[adj]]'
p366
S'served'
p367
S'as'
p368
tp369
F0.006369426751592357
s(S'formerly'
p370
S'served'
p371
S'as'
p372
tp373
F0.006369426751592357
s(S'be'
p374
S'appointed'
p375
S'as'
p376
tp377
F0.006369426751592357
s(S'has'
p378
S'served'
p379
S'twice'
p380
tp381
F0.006369426751592357
s(S'[[con]]'
p382
S'appointed'
p383
S'[[det]]'
p384
tp385
F0.006369426751592357
s(S'being'
p386
S'appointed'
p387
S'by'
p388
tp389
F0.006369426751592357
s(S'[[con]]'
p390
S'served'
p391
S'when'
p392
tp393
F0.006369426751592357
s(S'who'
p394
S'served'
p395
S'as'
p396
tp397
F0.006369426751592357
s(S'again'
p398
S'appointed'
p399
S'[[det]]'
p400
tp401
F0.006369426751592357
s(g206
g207
g252
tp402
F0.006369426751592357
s(S'also'
p403
S'served'
p404
S'as'
p405
tp406
F0.006369426751592357
s(S'[[con]]'
p407
S'served'
p408
S'as'
p409
tp410
F0.006369426751592357
s(S'was'
p411
S'appointed'
p412
S'first'
p413
tp414
F0.006369426751592357
s(S'be'
p415
S'appointed'
p416
S'[[con]]'
p417
tp418
F0.006369426751592357
s(g253
g254
g65
tp419
F0.006369426751592357
s(S'being'
p420
S'appointed'
p421
S'as'
p422
tp423
F0.006369426751592357
s(S'to'
p424
S'meet'
p425
S'[[pro]]'
p426
tp427
F0.006369426751592357
s(S'later'
p428
S'served'
p429
S'under'
p430
tp431
F0.006369426751592357
s(S'also'
p432
S'appointed'
p433
S'by'
p434
tp435
F0.006369426751592357
s(S'then'
p436
S'appointed'
p437
S'[[det]]'
p438
tp439
F0.006369426751592357
s(S'also'
p440
S'appointed'
p441
S'[[adj]]'
p442
tp443
F0.006369426751592357
s(S'was'
p444
S'appointed'
p445
S'when'
p446
tp447
F0.006369426751592357
s(g207
g252
g253
tp448
F0.006369426751592357
s(S'[[mod]]'
p449
S'succeed'
p450
S'as'
p451
tp452
F0.006369426751592357
s(S'once'
p453
S'served'
p454
S'as'
p455
tp456
F0.006369426751592357
s(S'[[num]]'
p457
S'appointed'
p458
S'by'
p459
tp460
F0.006369426751592357
s(S'was'
p461
S'appointed'
p462
S'[[prp]]'
p463
tp464
F0.006369426751592357
s(S'was'
p465
S'appointed'
p466
S'[[det]]'
p467
tp468
F0.006369426751592357
s(S'who'
p469
S'served'
p470
S'under'
p471
tp472
F0.006369426751592357
s(S'be'
p473
S'appointed'
p474
S'by'
p475
tp476
F0.006369426751592357
s(S'was'
p477
S'appointed'
p478
S'after'
p479
tp480
F0.006369426751592357
s(S'then'
p481
S'served'
p482
S'to'
p483
tp484
F0.006369426751592357
s(S'had'
p485
S'appointed'
p486
S'[[det]]'
p487
tp488
F0.006369426751592357
s(g339
g340
S'of'
p489
tp490
F0.006369426751592357
s(S'also'
p491
S'served'
p492
S'to'
p493
tp494
F0.006369426751592357
s(S'first'
p495
S'appointed'
p496
S'when'
p497
tp498
F0.006369426751592357
s(S'was'
p499
S'appointed'
p500
S'as'
p501
tp502
F0.006369426751592357
s(S'also'
p503
S'served'
p504
S'twice'
p505
tp506
F0.006369426751592357
s(S'was'
p507
S'appointed'
p508
S'with'
p509
tp510
F0.006369426751592357
s(S'where'
p511
S'served'
p512
S'under'
p513
tp514
F0.006369426751592357
s(S'then'
p515
S'served'
p516
S'[[num]]'
p517
tp518
F0.006369426751592357
s(S'had'
p519
S'served'
p520
S'as'
p521
tp522
F0.006369426751592357
s(S'is'
p523
S'appointed'
p524
S'to'
p525
tp526
F0.006369426751592357
s(S'is'
p527
S'appointed'
p528
S'by'
p529
tp530
F0.006369426751592357
s(S'where'
p531
S'served'
p532
S'to'
p533
tp534
F0.006369426751592357
s(S'then'
p535
S'served'
p536
S'under'
p537
tp538
F0.006369426751592357
s(S'then'
p539
S'appointed'
p540
S'as'
p541
tp542
F0.006369426751592357
s(S'was'
p543
S'appointed'
p544
S'where'
p545
tp546
F0.006369426751592357
s(g66
g67
S'by'
p547
tp548
F0.006369426751592357
s(S'to'
p549
S'succeed'
p550
S'[[det]]'
p551
tp552
F0.006369426751592357
s(S'to'
p553
S'succeed'
p554
S'[[pro]]'
p555
tp556
F0.006369426751592357
s(S'had'
p557
S'served'
p558
S'[[con]]'
p559
tp560
F0.006369426751592357
s(S'also'
p561
S'served'
p562
S'after'
p563
tp564
F0.006369426751592357
s(S'[[mod]]'
p565
S'meet'
p566
S'with'
p567
tp568
F0.006369426751592357
s(S'instead'
p569
S'appointed'
p570
S'as'
p571
tp572
F0.006369426751592357
s(S'again'
p573
S'served'
p574
S'under'
p575
tp576
F0.006369426751592357
s(S'is'
p577
S'appointed'
p578
S'[[con]]'
p579
tp580
F0.006369426751592357
s(S'then'
p581
S'appointed'
p582
S'[[con]]'
p583
tp584
F0.006369426751592357
s(S'first'
p585
S'appointed'
p586
S'in'
p587
tp588
F0.006369426751592357
s(S'again'
p589
S'appointed'
p590
S'as'
p591
tp592
F0.006369426751592357
s(S'[[num]]'
p593
S'served'
p594
S'on'
p595
tp596
F0.006369426751592357
s(S'[[mod]]'
p597
S'succeed'
p598
S'[[pro]]'
p599
tp600
F0.006369426751592357
s(S'later'
p601
S'served'
p602
S'from'
p603
tp604
F0.006369426751592357
s.