(dp0
(S'operates'
p1
S'services'
p2
S'in'
p3
tp4
F0.004405286343612335
s(S'is'
p5
S'established'
p6
S'in'
p7
tp8
F0.004405286343612335
s(S'provides'
p9
S'service'
p10
S'from'
p11
tp12
F0.004405286343612335
s(S'airline'
p13
S'headquartered'
p14
S'in'
p15
tp16
F0.00881057268722467
s(S'were'
p17
S'founded'
p18
S'in'
p19
tp20
F0.004405286343612335
s(S'charter'
p21
S'[[con]]'
p22
S'cargo'
p23
tp24
F0.004405286343612335
s(S'[[det]]'
p25
S'operated'
p26
S'out'
p27
tp28
F0.004405286343612335
s(S'is'
p29
S'established'
p30
S'at'
p31
tp32
F0.004405286343612335
s(S'was'
p33
S'founded'
p34
S'on'
p35
tp36
F0.004405286343612335
s(S'[[prp]]'
p37
S'headquarters'
p38
S'[[con]]'
p39
tp40
F0.004405286343612335
s(S'scheduled'
p41
S'[[adj]]'
p42
S'services'
p43
tp44
F0.00881057268722467
s(S'began'
p45
S'[[det]]'
p46
S'[[adj]]'
p47
tp48
F0.004405286343612335
s(S'[[det]]'
p49
S'airline'
p50
S'based'
p51
tp52
F0.00881057268722467
s(S'[[det]]'
p53
S'service'
p54
S'to'
p55
tp56
F0.004405286343612335
s(S's'
p57
S'service'
p58
S'to'
p59
tp60
F0.004405286343612335
s(S'[[det]]'
p61
S'language'
p62
S'supported'
p63
tp64
F0.004405286343612335
s(S'operated'
p65
S'scheduled'
p66
S'services'
p67
tp68
F0.00881057268722467
s(S'operated'
p69
S'flights'
p70
S'from'
p71
tp72
F0.004405286343612335
s(S'[[prp]]'
p73
S'headquarters'
p74
S'at'
p75
tp76
F0.004405286343612335
s(S'were'
p77
S'based'
p78
S'in'
p79
tp80
F0.004405286343612335
s(S'in'
p81
S'[[det]]'
p82
S'direction'
p83
tp84
F0.004405286343612335
s(S'[[adj]]'
p85
S'law'
p86
S'firm'
p87
tp88
F0.004405286343612335
s(S'[[prp]]'
p89
S'headquarters'
p90
S'in'
p91
tp92
F0.00881057268722467
s(S'that'
p93
S'operated'
p94
S'in'
p95
tp96
F0.004405286343612335
s(g63
S'by'
p97
S'studios'
p98
tp99
F0.004405286343612335
s(S'[[adj]]'
p100
S'airline'
p101
S'based'
p102
tp103
F0.004405286343612335
s(S'[[prp]]'
p104
S'headquarters'
p105
S'from'
p106
tp107
F0.00881057268722467
s(S'[[det]]'
p108
S'airline'
p109
S'headquartered'
p110
tp111
F0.004405286343612335
s(S'has'
p112
S'offices'
p113
S'[[con]]'
p114
tp115
F0.004405286343612335
s(S'firm'
p116
S'based'
p117
S'in'
p118
tp119
F0.004405286343612335
s(S'charter'
p120
S'airline'
p121
S'based'
p122
tp123
F0.004405286343612335
s(S'[[det]]'
p124
S'party'
p125
S'in'
p126
tp127
F0.004405286343612335
s(S'provides'
p128
S'service'
p129
S'to'
p130
tp131
F0.004405286343612335
s(S'has'
p132
S'offices'
p133
S'in'
p134
tp135
F0.004405286343612335
s(S'daily'
p136
g81
g82
tp137
F0.004405286343612335
s(S'[[prp]]'
p138
S'head'
p139
S'office'
p140
tp141
F0.022026431718061675
s(S'[[prp]]'
p142
S'[[adj]]'
p143
S'headquarters'
p144
tp145
F0.00881057268722467
s(S'been'
p146
S'founded'
p147
S'in'
p148
tp149
F0.004405286343612335
s(g50
g51
S'out'
p150
tp151
F0.004405286343612335
s(S'began'
p152
S'service'
p153
S'from'
p154
tp155
F0.004405286343612335
s(g23
S'airline'
p156
S'based'
p157
tp158
F0.00881057268722467
s(S'has'
p159
S'operated'
p160
S'between'
p161
tp162
F0.004405286343612335
s(S'[[det]]'
p163
g21
g22
tp164
F0.004405286343612335
s(S'was'
p165
S'founded'
p166
S'from'
p167
tp168
F0.004405286343612335
s(S'[[adj]]'
p169
S'party'
p170
S'for'
p171
tp172
F0.004405286343612335
s(S'[[det]]'
p173
S'trains'
p174
S'between'
p175
tp176
F0.004405286343612335
s(S'[[adj]]'
p177
S'service'
p178
S'from'
p179
tp180
F0.004405286343612335
s(S'operates'
p181
S'scheduled'
p182
S'[[con]]'
p183
tp184
F0.00881057268722467
s(g139
g140
S'on'
p185
tp186
F0.00881057268722467
s(S'with'
p187
S'service'
p188
S'to'
p189
tp190
F0.004405286343612335
s(S'system'
p191
S'operating'
p192
S'[[prp]]'
p193
tp194
F0.004405286343612335
s(S'is'
p195
S'based'
p196
S'in'
p197
tp198
F0.004405286343612335
s(S'to'
p199
S'destinations'
p200
S'in'
p201
tp202
F0.004405286343612335
s(S'[[adj]]'
p203
S'airline'
p204
S'in'
p205
tp206
F0.004405286343612335
s(S'[[adj]]'
p207
S'association'
p208
S'in'
p209
tp210
F0.004405286343612335
s(S'[[det]]'
p211
S'founded'
p212
S'in'
p213
tp214
F0.004405286343612335
s(S'in'
p215
S'association'
p216
S'with'
p217
tp218
F0.004405286343612335
s(S'to'
p219
S'cities'
p220
S'in'
p221
tp222
F0.004405286343612335
s(S'[[adj]]'
p223
S'headquarters'
p224
S'from'
p225
tp226
F0.00881057268722467
s(S'[[adj]]'
p227
S'flights'
p228
S'between'
p229
tp230
F0.00881057268722467
s(S'[[prp]]'
p231
S'headquarters'
p232
S'[[det]]'
p233
tp234
F0.004405286343612335
s(g193
g136
g81
tp235
F0.004405286343612335
s(S'scheduled'
p236
S'[[adj]]'
p237
S'passenger'
p238
tp239
F0.004405286343612335
s(S'[[num]]'
p240
S'flights'
p241
S'between'
p242
tp243
F0.004405286343612335
s(S'airline'
p244
S'with'
p245
S'[[prp]]'
p246
tp247
F0.004405286343612335
s(S'[[det]]'
p248
S'law'
p249
g116
tp250
F0.004405286343612335
s(S'had'
p251
S'offices'
p252
S'in'
p253
tp254
F0.004405286343612335
s(S'operates'
p255
g236
g237
tp256
F0.004405286343612335
s(S'[[adj]]'
p257
S'routes'
p258
S'from'
p259
tp260
F0.004405286343612335
s(g192
g193
g136
tp261
F0.004405286343612335
s(S'operates'
p262
S'scheduled'
p263
S'services'
p264
tp265
F0.00881057268722467
s(S'[[adj]]'
p266
S'headquarters'
p267
S'in'
p268
tp269
F0.004405286343612335
s(S'[[adj]]'
p270
S'services'
p271
S'between'
p272
tp273
F0.004405286343612335
s(S'[[adj]]'
p274
S'office'
p275
S'in'
p276
tp277
F0.004405286343612335
s(S'head'
p278
S'office'
p279
S'in'
p280
tp281
F0.004405286343612335
s(S'was'
p282
S'founded'
p283
S'[[det]]'
p284
tp285
F0.004405286343612335
s(S'been'
p286
S'established'
p287
S'in'
p288
tp289
F0.004405286343612335
s(S'is'
p290
S'based'
p291
S'near'
p292
tp293
F0.004405286343612335
s(S'operates'
p294
S'[[adj]]'
p295
S'flights'
p296
tp297
F0.00881057268722467
s(S'head'
p298
S'office'
p299
S'at'
p300
tp301
F0.004405286343612335
s(S'also'
p302
S'operated'
p303
S'[[num]]'
p304
tp305
F0.004405286343612335
s(S'is'
p306
S'headquartered'
p307
S'[[con]]'
p308
tp309
F0.004405286343612335
s(S'[[adj]]'
p310
S'based'
p311
S'in'
p312
tp313
F0.004405286343612335
s(S'[[adj]]'
p314
S'association'
p315
S'of'
p316
tp317
F0.004405286343612335
s(S'began'
p318
S'[[adj]]'
p319
S'service'
p320
tp321
F0.013215859030837005
s(S'also'
p322
g1
g2
tp323
F0.004405286343612335
s(S'scheduled'
p324
S'services'
p325
S'between'
p326
tp327
F0.004405286343612335
s(S'began'
p328
S'service'
p329
S'between'
p330
tp331
F0.004405286343612335
s(S'was'
p332
S'founded'
p333
S'[[num]]'
p334
tp335
F0.004405286343612335
s(S'moved'
p336
S'[[prp]]'
p337
S'headquarters'
p338
tp339
F0.01762114537444934
s(S'began'
p340
S'service'
p341
S'to'
p342
tp343
F0.004405286343612335
s(S'be'
p344
S'established'
p345
S'in'
p346
tp347
F0.004405286343612335
s(S'[[adj]]'
p348
S'flights'
p349
S'to'
p350
tp351
F0.004405286343612335
s(g238
S'[[con]]'
p352
S'[[adj]]'
p353
tp354
F0.004405286343612335
s(S'[[adj]]'
p355
S'founded'
p356
S'in'
p357
tp358
F0.004405286343612335
s(g57
S'based'
p359
S'in'
p360
tp361
F0.004405286343612335
s(g319
g320
S'to'
p362
tp363
F0.00881057268722467
s(S'[[det]]'
p364
S'association'
p365
S'of'
p366
tp367
F0.004405286343612335
s(S'currently'
p368
S'headquartered'
p369
S'in'
p370
tp371
F0.004405286343612335
s(S'with'
p372
S'offices'
p373
S'in'
p374
tp375
F0.004405286343612335
s(g352
g353
S'services'
p376
tp377
F0.004405286343612335
s(g263
g264
S'from'
p378
tp379
F0.00881057268722467
s(S'[[det]]'
p380
S'cargo'
p381
S'airline'
p382
tp383
F0.004405286343612335
s(S'was'
p384
S'based'
p385
S'in'
p386
tp387
F0.004405286343612335
s(g87
S'headquartered'
p388
S'in'
p389
tp390
F0.004405286343612335
s(S'was'
p391
S'headquartered'
p392
S'[[con]]'
p393
tp394
F0.004405286343612335
s(S'[[adj]]'
p395
S'service'
p396
S'of'
p397
tp398
F0.004405286343612335
s(S'[[det]]'
p399
S'grounds'
p400
S'of'
p401
tp402
F0.00881057268722467
s(g185
g399
g400
tp403
F0.00881057268722467
s(S'is'
p404
S'headquartered'
p405
S'with'
p406
tp407
F0.004405286343612335
s(S'[[adj]]'
p408
S'party'
p409
S'with'
p410
tp411
F0.004405286343612335
s(g140
g185
g399
tp412
F0.00881057268722467
s(S'has'
p413
S'headquarters'
p414
S'in'
p415
tp416
F0.004405286343612335
s(S'[[adj]]'
p417
S'party'
p418
S'in'
p419
tp420
F0.004405286343612335
s(S'to'
p421
S'fly'
p422
S'from'
p423
tp424
F0.004405286343612335
s(g101
g102
S'in'
p425
tp426
F0.01762114537444934
s(S'moved'
p427
g142
g143
tp428
F0.00881057268722467
s(S'was'
p429
S'established'
p430
S'[[con]]'
p431
tp432
F0.004405286343612335
s(S'provides'
p433
S'services'
p434
S'to'
p435
tp436
F0.004405286343612335
s(g156
g157
S'at'
p437
tp438
F0.004405286343612335
s(g143
g144
S'to'
p439
tp440
F0.004405286343612335
s(g182
g183
S'charter'
p441
tp442
F0.00881057268722467
s(S'[[det]]'
p443
g120
g121
tp444
F0.004405286343612335
s(S'services'
p445
g199
g200
tp446
F0.004405286343612335
s(S'operated'
p447
S'flights'
p448
S'between'
p449
tp450
F0.004405286343612335
s(S'[[adj]]'
p451
S'party'
p452
S'of'
p453
tp454
F0.004405286343612335
s(S'commenced'
p455
S'operations'
p456
S'to'
p457
tp458
F0.004405286343612335
s(S'[[adj]]'
p459
S'service'
p460
S'in'
p461
tp462
F0.004405286343612335
s(S'was'
p463
S'established'
p464
S'[[num]]'
p465
tp466
F0.004405286343612335
s(S'[[num]]'
p467
S'based'
p468
S'in'
p469
tp470
F0.004405286343612335
s(S'[[det]]'
p471
g244
g245
tp472
F0.004405286343612335
s(g237
g238
g352
tp473
F0.004405286343612335
s(S'also'
p474
S'operates'
p475
g348
tp476
F0.004405286343612335
s(S'charter'
p477
S'flights'
p478
S'to'
p479
tp480
F0.004405286343612335
s(S'services'
p481
g219
g220
tp482
F0.004405286343612335
s(S'currently'
p483
S'operates'
p484
S'out'
p485
tp486
F0.004405286343612335
s(S'is'
p487
S'founded'
p488
S'at'
p489
tp490
F0.004405286343612335
s(S'had'
p491
S'operated'
p492
S'from'
p493
tp494
F0.004405286343612335
s(g353
g376
S'to'
p495
tp496
F0.00881057268722467
s(S'[[adj]]'
p497
S'offices'
p498
S'in'
p499
tp500
F0.004405286343612335
s(S'[[adj]]'
p501
S'service'
p502
S'between'
p503
tp504
F0.013215859030837005
s(S'operated'
p505
g41
g42
tp506
F0.00881057268722467
s(g183
g441
S'services'
p507
tp508
F0.00881057268722467
s(S'[[adj]]'
p509
S'passenger'
p510
S'rail'
p511
tp512
F0.004405286343612335
s(S'is'
p513
S'founded'
p514
S'in'
p515
tp516
F0.004405286343612335
s(S'also'
p517
S'based'
p518
S'in'
p519
tp520
F0.004405286343612335
s(g57
S'service'
p521
S'between'
p522
tp523
F0.004405286343612335
s(S'is'
p524
S'headquartered'
p525
S'at'
p526
tp527
F0.004405286343612335
s(S'[[adj]]'
p528
S'service'
p529
S'for'
p530
tp531
F0.004405286343612335
s(S'was'
p532
S'established'
p533
S'[[det]]'
p534
tp535
F0.004405286343612335
s(S'with'
p536
S'headquarters'
p537
S'in'
p538
tp539
F0.004405286343612335
s(S'scheduled'
p540
g445
g199
tp541
F0.013215859030837005
s(S'[[prp]]'
p542
S'offices'
p543
S'in'
p544
tp545
F0.004405286343612335
s(S'was'
p546
S'founded'
p547
S'in'
p548
tp549
F0.004405286343612335
s(S'airline'
p550
S'company'
p551
S'based'
p552
tp553
F0.004405286343612335
s(g46
g47
S'service'
p554
tp555
F0.004405286343612335
s(g86
g87
g388
tp556
F0.004405286343612335
s(S'[[num]]'
p557
S'established'
p558
S'in'
p559
tp560
F0.004405286343612335
s(S'is'
p561
S'headquartered'
p562
S'in'
p563
tp564
F0.004405286343612335
s(g57
S'headquarters'
p565
S'in'
p566
tp567
F0.004405286343612335
s(S'operates'
p568
S'[[adj]]'
p569
S'services'
p570
tp571
F0.004405286343612335
s(g245
g246
S'head'
p572
tp573
F0.004405286343612335
s(g510
g511
g191
tp574
F0.004405286343612335
s(g441
g507
S'in'
p575
tp576
F0.004405286343612335
s(S'commenced'
p577
S'operations'
p578
S'from'
p579
tp580
F0.004405286343612335
s(S'[[prp]]'
p581
S'headquarters'
p582
S'to'
p583
tp584
F0.00881057268722467
s(S'was'
p585
S'established'
p586
S'on'
p587
tp588
F0.004405286343612335
s(g97
g98
S'in'
p589
tp590
F0.004405286343612335
s(S'[[det]]'
p591
g550
g551
tp592
F0.004405286343612335
s(S'[[con]]'
p593
S'headquartered'
p594
S'in'
p595
tp596
F0.004405286343612335
s(S'is'
p597
S'based'
p598
S'out'
p599
tp600
F0.004405286343612335
s(g551
g552
S'in'
p601
tp602
F0.004405286343612335
s(g22
g23
g156
tp603
F0.004405286343612335
s(S'are'
p604
S'based'
p605
S'in'
p606
tp607
F0.004405286343612335
s(S'was'
p608
S'headquartered'
p609
S'in'
p610
tp611
F0.004405286343612335
s(S'[[adj]]'
p612
S'established'
p613
S'in'
p614
tp615
F0.004405286343612335
s(g511
g191
g192
tp616
F0.004405286343612335
s(S'be'
p617
S'based'
p618
S'in'
p619
tp620
F0.004405286343612335
s(S'was'
p621
S'headquartered'
p622
S'at'
p623
tp624
F0.004405286343612335
s(S'[[con]]'
p625
S'offices'
p626
S'in'
p627
tp628
F0.004405286343612335
s(S'was'
p629
S'established'
p630
S'at'
p631
tp632
F0.004405286343612335
s(S'[[adj]]'
p633
g13
g14
tp634
F0.004405286343612335
s(g249
g116
g117
tp635
F0.004405286343612335
s(S'charter'
p636
S'flights'
p637
S'from'
p638
tp639
F0.004405286343612335
s(g62
g63
g97
tp640
F0.004405286343612335
s(S'was'
p641
S'established'
p642
S'in'
p643
tp644
F0.004405286343612335
s.