(dp0
(S'was'
p1
S'originally'
p2
S'published'
p3
tp4
F0.021739130434782608
s(g2
g3
S'in'
p5
tp6
F0.021739130434782608
s(S'[[det]]'
p7
S'building'
p8
S'on'
p9
tp10
F0.021739130434782608
s(S'newspaper'
p11
S'published'
p12
S'in'
p13
tp14
F0.06521739130434782
s(S'[[adj]]'
p15
S'largest'
p16
S'newspaper'
p17
tp18
F0.021739130434782608
s(S'largest'
p19
S'[[adj]]'
p20
S'newspaper'
p21
tp22
F0.021739130434782608
s(S'[[adj]]'
p23
S'newspaper'
p24
S'based'
p25
tp26
F0.021739130434782608
s(S'[[adj]]'
p27
S'building'
p28
S'in'
p29
tp30
F0.021739130434782608
s(S'[[det]]'
p31
g19
g20
tp32
F0.021739130434782608
s(S'was'
p33
S'published'
p34
S'in'
p35
tp36
F0.021739130434782608
s(S'is'
p37
S'published'
p38
S'in'
p39
tp40
F0.021739130434782608
s(S'[[det]]'
p41
S'building'
p42
S'in'
p43
tp44
F0.021739130434782608
s(S'[[adj]]'
p45
S'newspaper'
p46
S'published'
p47
tp48
F0.043478260869565216
s(S'[[adj]]'
p49
S'newspaper'
p50
S'of'
p51
tp52
F0.021739130434782608
s(S'[[det]]'
p53
S'student'
p54
S'newspaper'
p55
tp56
F0.043478260869565216
s(S'[[det]]'
p57
S'largest'
p58
S'newspaper'
p59
tp60
F0.021739130434782608
s(S'[[adj]]'
p61
S'published'
p62
S'in'
p63
tp64
F0.021739130434782608
s(S'[[adj]]'
p65
S'newspaper'
p66
S'be'
p67
tp68
F0.021739130434782608
s(S'[[adj]]'
p69
S'student'
p70
S'newspaper'
p71
tp72
F0.043478260869565216
s(S'being'
p73
S'published'
p74
S'at'
p75
tp76
F0.021739130434782608
s(S'[[adj]]'
p77
S'newspaper'
p78
S'in'
p79
tp80
F0.043478260869565216
s(S'[[det]]'
p81
S'newspaper'
p82
S'based'
p83
tp84
F0.021739130434782608
s(g67
S'published'
p85
S'in'
p86
tp87
F0.021739130434782608
s(S'[[det]]'
p88
g11
g12
tp89
F0.06521739130434782
s(g66
g67
g85
tp90
F0.021739130434782608
s(S'has'
p91
S'published'
p92
S'[[con]]'
p93
tp94
F0.021739130434782608
s(S'[[adj]]'
p95
S'newspapers'
p96
S'in'
p97
tp98
F0.021739130434782608
s(S'student'
p99
S'newspaper'
p100
S'of'
p101
tp102
F0.043478260869565216
s(g24
g25
S'in'
p103
tp104
F0.043478260869565216
s(S'[[adj]]'
p105
S'newspaper'
p106
S'which'
p107
tp108
F0.021739130434782608
s(S'[[det]]'
p109
S'newspaper'
p110
S'in'
p111
tp112
F0.021739130434782608
s(g58
g59
S'in'
p113
tp114
F0.043478260869565216
s(S'[[num]]'
p115
S'editions'
p116
S'in'
p117
tp118
F0.021739130434782608
s(S'newspaper'
p119
S'published'
p120
S'[[adj]]'
p121
tp122
F0.021739130434782608
s(S'is'
p123
S'published'
p124
S'from'
p125
tp126
F0.021739130434782608
s.