(dp0
(S'[[num]]'
p1
S'based'
p2
S'at'
p3
tp4
F0.016666666666666666
s(S'[[adj]]'
p5
S'service'
p6
S'to'
p7
tp8
F0.03333333333333333
s(S'[[adj]]'
p9
S'service'
p10
S'from'
p11
tp12
F0.016666666666666666
s(S'with'
p13
S'service'
p14
S'to'
p15
tp16
F0.016666666666666666
s(S'provides'
p17
S'service'
p18
S'from'
p19
tp20
F0.016666666666666666
s(S'[[con]]'
p21
S'based'
p22
S'at'
p23
tp24
F0.016666666666666666
s(S'[[adj]]'
p25
S'service'
p26
S'for'
p27
tp28
F0.016666666666666666
s(S'been'
p29
S'based'
p30
S'at'
p31
tp32
F0.016666666666666666
s(S'to'
p33
S'operate'
p34
S'[[det]]'
p35
tp36
F0.016666666666666666
s(S'[[det]]'
p37
S'hub'
p38
S'in'
p39
tp40
F0.016666666666666666
s(S'is'
p41
S'headquartered'
p42
S'at'
p43
tp44
F0.016666666666666666
s(S'[[pro]]'
p45
S'[[mod]]'
p46
S'begin'
p47
tp48
F0.016666666666666666
s(S'was'
p49
S'headquartered'
p50
S'[[con]]'
p51
tp52
F0.016666666666666666
s(S'[[det]]'
p53
S'grounds'
p54
S'of'
p55
tp56
F0.016666666666666666
s(S'[[det]]'
p57
S'based'
p58
S'at'
p59
tp60
F0.016666666666666666
s(S'on'
p61
g53
g54
tp62
F0.016666666666666666
s(S'is'
p63
S'headquartered'
p64
S'with'
p65
tp66
F0.016666666666666666
s(S'[[det]]'
p67
S'airline'
p68
S'based'
p69
tp70
F0.016666666666666666
s(S'[[det]]'
p71
S'service'
p72
S'to'
p73
tp74
F0.016666666666666666
s(S'office'
p75
g61
g53
tp76
F0.016666666666666666
s(S'were'
p77
S'based'
p78
S'at'
p79
tp80
F0.016666666666666666
s(S'is'
p81
S'based'
p82
S'around'
p83
tp84
F0.016666666666666666
s(S'[[adj]]'
p85
S'based'
p86
S'at'
p87
tp88
F0.016666666666666666
s(S'also'
p89
S'operate'
p90
S'[[det]]'
p91
tp92
F0.016666666666666666
s(S'began'
p93
S'service'
p94
S'to'
p95
tp96
F0.016666666666666666
s(S'announced'
p97
g45
g46
tp98
F0.016666666666666666
s(S'also'
p99
S'operates'
p100
S'[[det]]'
p101
tp102
F0.016666666666666666
s(S'was'
p103
S'based'
p104
S'at'
p105
tp106
F0.016666666666666666
s(S'airline'
p107
S'based'
p108
S'at'
p109
tp110
F0.03333333333333333
s(S'[[adj]]'
p111
g107
g108
tp112
F0.016666666666666666
s(S'began'
p113
S'[[det]]'
p114
S'service'
p115
tp116
F0.016666666666666666
s(S'is'
p117
S'based'
p118
S'[[con]]'
p119
tp120
F0.016666666666666666
s(S'currently'
p121
S'operates'
p122
S'[[num]]'
p123
tp124
F0.016666666666666666
s(g114
g115
S'between'
p125
tp126
F0.016666666666666666
s(S'are'
p127
S'based'
p128
S'in'
p129
tp130
F0.016666666666666666
s(S'provides'
p131
S'service'
p132
S'to'
p133
tp134
F0.016666666666666666
s(g46
g47
S'service'
p135
tp136
F0.016666666666666666
s(S'[[prp]]'
p137
S'head'
p138
g75
tp139
F0.016666666666666666
s(S'currently'
p140
S'based'
p141
S'at'
p142
tp143
F0.016666666666666666
s(S'are'
p144
S'based'
p145
S'at'
p146
tp147
F0.016666666666666666
s(S'also'
p148
S'operates'
p149
S'on'
p150
tp151
F0.016666666666666666
s(S'began'
p152
S'[[adj]]'
p153
S'service'
p154
tp155
F0.03333333333333333
s(S'was'
p156
S'headquartered'
p157
S'at'
p158
tp159
F0.016666666666666666
s(S'began'
p160
S'service'
p161
S'in'
p162
tp163
F0.016666666666666666
s(g138
g75
g61
tp164
F0.016666666666666666
s(S'began'
p165
S'service'
p166
S'from'
p167
tp168
F0.016666666666666666
s(S'charter'
p169
S'flights'
p170
S'to'
p171
tp172
F0.016666666666666666
s(S'[[adj]]'
p173
S'services'
p174
S'to'
p175
tp176
F0.016666666666666666
s(S'currently'
p177
S'operates'
p178
S'[[det]]'
p179
tp180
F0.016666666666666666
s(g47
g135
S'from'
p181
tp182
F0.016666666666666666
s(S'[[adj]]'
p183
S'service'
p184
S'between'
p185
tp186
F0.016666666666666666
s(S'is'
p187
S'based'
p188
S'[[adj]]'
p189
tp190
F0.016666666666666666
s(S'charter'
p191
S'flights'
p192
S'from'
p193
tp194
F0.016666666666666666
s(S'also'
p195
g93
g94
tp196
F0.016666666666666666
s(S'also'
p197
S'operates'
p198
S'[[num]]'
p199
tp200
F0.016666666666666666
s(S'is'
p201
S'based'
p202
S'at'
p203
tp204
F0.016666666666666666
s(S'provides'
p205
S'services'
p206
S'from'
p207
tp208
F0.016666666666666666
s.