(dp0
(S'book'
p1
S'written'
p2
S'by'
p3
tp4
F0.07692307692307693
s(S'book'
p5
S'written'
p6
S'[[con]]'
p7
tp8
F0.07692307692307693
s(g7
S'illustrated'
p9
S'by'
p10
tp11
F0.07692307692307693
s(g6
g7
g9
tp12
F0.07692307692307693
s(S'children'
p13
S's'
p14
g1
tp15
F0.11538461538461539
s(S'children'
p16
g14
S'picture'
p17
tp18
F0.038461538461538464
s(S'[[num]]'
p19
S'book'
p20
S'by'
p21
tp22
F0.038461538461538464
s(g14
g17
S'book'
p23
tp24
F0.038461538461538464
s(S'[[det]]'
p25
g13
g14
tp26
F0.11538461538461539
s(S'[[adj]]'
p27
S'book'
p28
S'by'
p29
tp30
F0.038461538461538464
s(g14
g1
g2
tp31
F0.11538461538461539
s(S'[[det]]'
p32
S'book'
p33
g14
tp34
F0.038461538461538464
s(S'[[det]]'
p35
S'book'
p36
S'by'
p37
tp38
F0.038461538461538464
s(S'[[num]]'
p39
S'children'
p40
g14
tp41
F0.038461538461538464
s(S'[[adj]]'
p42
S'book'
p43
S'in'
p44
tp45
F0.038461538461538464
s(g17
g23
S'written'
p46
tp47
F0.038461538461538464
s.