(dp0
(S'is'
p1
S'defeated'
p2
S'[[con]]'
p3
tp4
F0.03571428571428571
s(S'was'
p5
S'defeated'
p6
S'by'
p7
tp8
F0.03571428571428571
s(S'then'
p9
S'defeated'
p10
S'[[con]]'
p11
tp12
F0.03571428571428571
s(S'was'
p13
S'defeated'
p14
S'[[num]]'
p15
tp16
F0.03571428571428571
s(S'later'
p17
S'defeated'
p18
S'by'
p19
tp20
F0.03571428571428571
s(S'was'
p21
S'defeated'
p22
S'for'
p23
tp24
F0.03571428571428571
s(S'[[con]]'
p25
S'defeated'
p26
S'[[det]]'
p27
tp28
F0.03571428571428571
s(S'were'
p29
S'defeated'
p30
S'by'
p31
tp32
F0.03571428571428571
s(S'[[con]]'
p33
S'defeated'
p34
S'after'
p35
tp36
F0.03571428571428571
s(S'again'
p37
S'defeated'
p38
S'[[con]]'
p39
tp40
F0.03571428571428571
s(S'been'
p41
S'defeated'
p42
S'by'
p43
tp44
F0.03571428571428571
s(S'then'
p45
S'defeated'
p46
S'by'
p47
tp48
F0.03571428571428571
s(S'[[con]]'
p49
S'defeated'
p50
S'with'
p51
tp52
F0.03571428571428571
s(S'[[con]]'
p53
S'defeated'
p54
S'in'
p55
tp56
F0.03571428571428571
s(S'[[pro]]'
p57
S'defeated'
p58
S'[[con]]'
p59
tp60
F0.03571428571428571
s(S'also'
p61
S'defeated'
p62
S'[[num]]'
p63
tp64
F0.03571428571428571
s(S'then'
p65
S'defeated'
p66
S'[[adj]]'
p67
tp68
F0.03571428571428571
s(S'being'
p69
S'defeated'
p70
S'by'
p71
tp72
F0.03571428571428571
s(S'is'
p73
S'defeated'
p74
S'by'
p75
tp76
F0.03571428571428571
s(S'[[con]]'
p77
S'defeated'
p78
S'[[adj]]'
p79
tp80
F0.03571428571428571
s(S'again'
p81
S'defeated'
p82
S'by'
p83
tp84
F0.03571428571428571
s(S'was'
p85
S'defeated'
p86
S'to'
p87
tp88
F0.03571428571428571
s(S'was'
p89
S'defeated'
p90
S'[[con]]'
p91
tp92
F0.03571428571428571
s(S's'
p93
S'defeated'
p94
S'[[num]]'
p95
tp96
F0.03571428571428571
s(S'was'
p97
S'defeated'
p98
S'while'
p99
tp100
F0.03571428571428571
s(S'be'
p101
S'defeated'
p102
S'by'
p103
tp104
F0.03571428571428571
s(S'[[con]]'
p105
S'defeated'
p106
S'[[con]]'
p107
tp108
F0.03571428571428571
s(S'had'
p109
S'defeated'
p110
S'[[adj]]'
p111
tp112
F0.03571428571428571
s.