(dp0
(S'[[con]]'
p1
S'collaborated'
p2
S'with'
p3
tp4
F0.0017123287671232876
s(S's'
p5
S'book'
p6
S'about'
p7
tp8
F0.0017123287671232876
s(S'being'
p9
S'considered'
p10
S'as'
p11
tp12
F0.0017123287671232876
s(S'[[prp]]'
p13
S'son'
p14
S'who'
p15
tp16
F0.0017123287671232876
s(S'[[adj]]'
p17
S'book'
p18
S'about'
p19
tp20
F0.0017123287671232876
s(S'[[det]]'
p21
S'influence'
p22
S'on'
p23
tp24
F0.0017123287671232876
s(S'[[det]]'
p25
S'teacher'
p26
S'[[det]]'
p27
tp28
F0.0017123287671232876
s(S'[[pro]]'
p29
S'son'
p30
S'of'
p31
tp32
F0.0017123287671232876
s(S'had'
p33
S'succeeded'
p34
S'in'
p35
tp36
F0.0017123287671232876
s(S'later'
p37
S'wrote'
p38
S'that'
p39
tp40
F0.0017123287671232876
s(S'[[num]]'
p41
S'book'
p42
S'to'
p43
tp44
F0.0017123287671232876
s(S'which'
p45
S'wrote'
p46
S'with'
p47
tp48
F0.0017123287671232876
s(S'[[det]]'
p49
S'son'
p50
S'with'
p51
tp52
F0.0017123287671232876
s(S'also'
p53
S'wrote'
p54
S'at'
p55
tp56
F0.0017123287671232876
s(S'[[prp]]'
p57
S'daughter'
p58
S'was'
p59
tp60
F0.0017123287671232876
s(S'friend'
p61
S'of'
p62
S'[[det]]'
p63
tp64
F0.003424657534246575
s(S'have'
p65
S'influenced'
p66
S'in'
p67
tp68
F0.0017123287671232876
s(S'[[adj]]'
p69
S'son'
p70
S'[[det]]'
p71
tp72
F0.0017123287671232876
s(S'[[adj]]'
p73
S'wife'
p74
S'of'
p75
tp76
F0.0017123287671232876
s(S'[[det]]'
p77
S'edited'
p78
S'by'
p79
tp80
F0.0017123287671232876
s(S'friend'
p81
S'[[con]]'
p82
S'[[adj]]'
p83
tp84
F0.0017123287671232876
s(S'be'
p85
S'considered'
p86
S'[[num]]'
p87
tp88
F0.0017123287671232876
s(S'had'
p89
S'met'
p90
S'when'
p91
tp92
F0.0017123287671232876
s(S'[[det]]'
p93
S'son'
p94
S'by'
p95
tp96
F0.0017123287671232876
s(S'[[det]]'
p97
S'attack'
p98
S'[[con]]'
p99
tp100
F0.0017123287671232876
s(S'had'
p101
S'seen'
p102
S'[[prp]]'
p103
tp104
F0.0017123287671232876
s(S'to'
p105
S'work'
p106
S'under'
p107
tp108
F0.0017123287671232876
s(S'then'
p109
S'succeeded'
p110
S'as'
p111
tp112
F0.0017123287671232876
s(S'[[con]]'
p113
S'remained'
p114
S'[[det]]'
p115
tp116
F0.0017123287671232876
s(S'was'
p117
S'influenced'
p118
S'as'
p119
tp120
F0.0017123287671232876
s(S'has'
p121
S'worked'
p122
S'closely'
p123
tp124
F0.003424657534246575
s(S'[[det]]'
p125
S'friend'
p126
S'to'
p127
tp128
F0.0017123287671232876
s(S'[[prp]]'
p129
S'son'
p130
S'by'
p131
tp132
F0.0017123287671232876
s(S'is'
p133
S'considered'
p134
S'[[adj]]'
p135
tp136
F0.0017123287671232876
s(S'when'
p137
S'wrote'
p138
S'to'
p139
tp140
F0.0017123287671232876
s(S'[[prp]]'
p141
S'work'
p142
S'with'
p143
tp144
F0.0017123287671232876
s(S'[[adj]]'
p145
S'book'
p146
S'in'
p147
tp148
F0.0017123287671232876
s(S'[[adj]]'
p149
S'met'
p150
S'[[det]]'
p151
tp152
F0.0017123287671232876
s(S'[[con]]'
p153
S'met'
p154
S'[[adj]]'
p155
tp156
F0.0017123287671232876
s(S'[[num]]'
p157
S'followed'
p158
S'at'
p159
tp160
F0.0017123287671232876
s(S'later'
p161
S'followed'
p162
S'[[det]]'
p163
tp164
F0.0017123287671232876
s(S'also'
p165
S'edited'
p166
S'[[con]]'
p167
tp168
F0.0017123287671232876
s(S'also'
p169
S'seen'
p170
S'[[adj]]'
p171
tp172
F0.0017123287671232876
s(S'[[prp]]'
p173
S'book'
p174
S'[[con]]'
p175
tp176
F0.0017123287671232876
s(S'also'
p177
S'received'
p178
S'of'
p179
tp180
F0.0017123287671232876
s(S'[[con]]'
p181
S'followed'
p182
S'by'
p183
tp184
F0.0017123287671232876
s(S'to'
p185
S'[[det]]'
p186
S'winter'
p187
tp188
F0.0017123287671232876
s(S'[[prp]]'
p189
S'work'
p190
S'on'
p191
tp192
F0.0017123287671232876
s(S'[[num]]'
p193
S'book'
p194
S'[[con]]'
p195
tp196
F0.0017123287671232876
s(S'then'
p197
S'traveled'
p198
S'with'
p199
tp200
F0.0017123287671232876
s(g5
S'daughter'
p201
S'by'
p202
tp203
F0.0017123287671232876
s(S'[[adj]]'
p204
S'wife'
p205
S'[[adj]]'
p206
tp207
F0.0017123287671232876
s(S'had'
p208
S'seen'
p209
S'in'
p210
tp211
F0.0017123287671232876
s(S'be'
p212
S'seen'
p213
S'[[con]]'
p214
tp215
F0.0017123287671232876
s(S'first'
p216
S'met'
p217
S'[[con]]'
p218
tp219
F0.0017123287671232876
s(S'[[adj]]'
p220
S'friend'
p221
S'as'
p222
tp223
F0.0017123287671232876
s(S'[[adj]]'
p224
S'son'
p225
S'in'
p226
tp227
F0.0017123287671232876
s(S'then'
p228
S'traveled'
p229
S'where'
p230
tp231
F0.0017123287671232876
s(S'[[prp]]'
p232
S'work'
p233
S'as'
p234
tp235
F0.0017123287671232876
s(S'had'
p236
S'received'
p237
S'from'
p238
tp239
F0.0017123287671232876
s(S'also'
p240
S'wrote'
p241
S'[[num]]'
p242
tp243
F0.0017123287671232876
s(S'to'
p244
S'attack'
p245
S'[[det]]'
p246
tp247
F0.0017123287671232876
s(S'[[adj]]'
p248
S'son'
p249
S'[[pro]]'
p250
tp251
F0.0017123287671232876
s(S'be'
p252
S'seen'
p253
S'by'
p254
tp255
F0.0017123287671232876
s(g5
S'friend'
p256
S'[[det]]'
p257
tp258
F0.0017123287671232876
s(S'[[con]]'
p259
S'wife'
p260
S'of'
p261
tp262
F0.0017123287671232876
s(g5
S'daughter'
p263
S'[[con]]'
p264
tp265
F0.0017123287671232876
s(S'is'
p266
S'considered'
p267
S'as'
p268
tp269
F0.0017123287671232876
s(S'[[det]]'
p270
S'friend'
p271
S'in'
p272
tp273
F0.0017123287671232876
s(S'[[det]]'
p274
S'son'
p275
S'was'
p276
tp277
F0.0017123287671232876
s(S'[[con]]'
p278
S'met'
p279
S'[[con]]'
p280
tp281
F0.0017123287671232876
s(S'had'
p282
S'collaborated'
p283
S'with'
p284
tp285
F0.0017123287671232876
s(S'also'
p286
S'wrote'
p287
S'with'
p288
tp289
F0.0017123287671232876
s(S'later'
p290
S'wrote'
p291
S'[[adj]]'
p292
tp293
F0.0017123287671232876
s(S'was'
p294
S'considered'
p295
S'[[con]]'
p296
tp297
F0.0017123287671232876
s(g5
S'son'
p298
S'as'
p299
tp300
F0.0017123287671232876
s(S'[[det]]'
p301
S'teacher'
p302
S'of'
p303
tp304
F0.0017123287671232876
s(S'[[prp]]'
p305
S'work'
p306
S'[[con]]'
p307
tp308
F0.0017123287671232876
s(g5
S'work'
p309
S'with'
p310
tp311
F0.0017123287671232876
s(S'[[con]]'
p312
S'friend'
p313
S'of'
p314
tp315
F0.0017123287671232876
s(S'had'
p316
S'read'
p317
S'[[con]]'
p318
tp319
F0.0017123287671232876
s(S'[[pro]]'
p320
S'son'
p321
S'as'
p322
tp323
F0.0017123287671232876
s(S'became'
p324
S'friends'
p325
S'with'
p326
tp327
F0.0017123287671232876
s(S'also'
p328
S'read'
p329
S'by'
p330
tp331
F0.0017123287671232876
s(S'[[prp]]'
p332
S'son'
p333
S'is'
p334
tp335
F0.0017123287671232876
s(S'be'
p336
S'influenced'
p337
S'by'
p338
tp339
F0.0017123287671232876
s(S'[[det]]'
p340
S'son'
p341
S'of'
p342
tp343
F0.003424657534246575
s(S'[[adj]]'
p344
S'influenced'
p345
S'by'
p346
tp347
F0.0017123287671232876
s(S'is'
p348
S'son'
p349
S'of'
p350
tp351
F0.0017123287671232876
s(S'was'
p352
S'considered'
p353
S'as'
p354
tp355
F0.0017123287671232876
s(S'was'
p356
S'considered'
p357
S'[[det]]'
p358
tp359
F0.0017123287671232876
s(S'once'
p360
S'wrote'
p361
S'that'
p362
tp363
F0.0017123287671232876
s(S'[[det]]'
p364
S'friend'
p365
S'of'
p366
tp367
F0.003424657534246575
s(S'[[con]]'
p368
S'daughter'
p369
S'of'
p370
tp371
F0.0017123287671232876
s(S'in'
p372
S'[[det]]'
p373
S'letter'
p374
tp375
F0.0017123287671232876
s(S'also'
p376
S'edited'
p377
S'of'
p378
tp379
F0.0017123287671232876
s(S'[[det]]'
p380
S'work'
p381
S'on'
p382
tp383
F0.0017123287671232876
s(S'was'
p384
S'considered'
p385
S'by'
p386
tp387
F0.0017123287671232876
s(S'also'
p388
S'met'
p389
S'[[prp]]'
p390
tp391
F0.0017123287671232876
s(S'later'
p392
S'wrote'
p393
S'[[num]]'
p394
tp395
F0.0017123287671232876
s(S'[[det]]'
p396
S'daughter'
p397
S'with'
p398
tp399
F0.0017123287671232876
s(g5
S'wife'
p400
S'[[con]]'
p401
tp402
F0.0017123287671232876
s(S'[[con]]'
p403
S'wrote'
p404
S'[[det]]'
p405
tp406
F0.0017123287671232876
s(S'where'
p407
S'received'
p408
S'[[det]]'
p409
tp410
F0.0017123287671232876
s(S'[[det]]'
p411
S'teacher'
p412
S'[[con]]'
p413
tp414
F0.0017123287671232876
s(S'[[num]]'
p415
S'son'
p416
S'who'
p417
tp418
F0.0017123287671232876
s(S'of'
p419
S'authors'
p420
S'[[adj]]'
p421
tp422
F0.0017123287671232876
s(S'had'
p423
S'remained'
p424
S'[[adj]]'
p425
tp426
F0.0017123287671232876
s(S'[[det]]'
p427
S'influence'
p428
S'in'
p429
tp430
F0.0017123287671232876
s(S'was'
p431
S'succeeded'
p432
S'[[pro]]'
p433
tp434
F0.0017123287671232876
s(g5
S'son'
p435
S'[[pro]]'
p436
tp437
F0.0017123287671232876
s(S'also'
p438
S'met'
p439
S'[[adj]]'
p440
tp441
F0.0017123287671232876
s(S'to'
p442
S'attack'
p443
S'[[con]]'
p444
tp445
F0.0017123287671232876
s(S'also'
p446
S'wrote'
p447
S'under'
p448
tp449
F0.0017123287671232876
s(S'also'
p450
S'collaborated'
p451
S'with'
p452
tp453
F0.0017123287671232876
s(S'worked'
p454
S'as'
p455
S'[[det]]'
p456
tp457
F0.0017123287671232876
s(g5
S'work'
p458
S'[[adj]]'
p459
tp460
F0.0017123287671232876
s(S'called'
p461
S'[[con]]'
p462
S'was'
p463
tp464
F0.0017123287671232876
s(g5
S'book'
p465
S'at'
p466
tp467
F0.0017123287671232876
s(S'[[det]]'
p468
S'daughter'
p469
S'[[adj]]'
p470
tp471
F0.0017123287671232876
s(S'[[adj]]'
p472
S'wife'
p473
S'to'
p474
tp475
F0.0017123287671232876
s(S'also'
p476
S'wrote'
p477
S'[[adj]]'
p478
tp479
F0.0017123287671232876
s(S'[[adj]]'
p480
S'influence'
p481
S'over'
p482
tp483
F0.0017123287671232876
s(S'where'
p484
S'met'
p485
S'[[det]]'
p486
tp487
F0.0017123287671232876
s(S'was'
p488
S'son'
p489
S'to'
p490
tp491
F0.0017123287671232876
s(g5
S'son'
p492
S'whom'
p493
tp494
F0.0017123287671232876
s(S'with'
p495
S'[[adj]]'
p496
S'writers'
p497
tp498
F0.0017123287671232876
s(S'[[det]]'
p499
S'work'
p500
S'of'
p501
tp502
F0.0017123287671232876
s(S'[[det]]'
p503
S'friend'
p504
S'[[con]]'
p505
tp506
F0.0017123287671232876
s(S'assistant'
p507
g185
g186
tp508
F0.0017123287671232876
s(g5
S'book'
p509
S'[[det]]'
p510
tp511
F0.0017123287671232876
s(S'[[det]]'
p512
S'book'
p513
S'on'
p514
tp515
F0.0017123287671232876
s(S'[[adj]]'
p516
S'wife'
p517
S'[[num]]'
p518
tp519
F0.0017123287671232876
s(S'[[det]]'
p520
S'book'
p521
S'about'
p522
tp523
F0.0017123287671232876
s(S'is'
p524
S'seen'
p525
S'by'
p526
tp527
F0.0017123287671232876
s(S'was'
p528
S'succeeded'
p529
S'to'
p530
tp531
F0.0017123287671232876
s(S'[[prp]]'
p532
S'work'
p533
S'in'
p534
tp535
F0.0017123287671232876
s(S'also'
p536
S'influenced'
p537
S'by'
p538
tp539
F0.0017123287671232876
s(S'done'
p540
S'work'
p541
S'[[adj]]'
p542
tp543
F0.0017123287671232876
s(S'[[prp]]'
p544
S'son'
p545
S'to'
p546
tp547
F0.0017123287671232876
s(S'is'
p548
S'influenced'
p549
S'by'
p550
tp551
F0.0017123287671232876
s(S'be'
p552
S'considered'
p553
S'[[adj]]'
p554
tp555
F0.0017123287671232876
s(S'have'
p556
S'succeeded'
p557
S'as'
p558
tp559
F0.0017123287671232876
s(S'[[num]]'
p560
S'wrote'
p561
S'on'
p562
tp563
F0.0017123287671232876
s(g5
S'son'
p564
S'[[det]]'
p565
tp566
F0.0017123287671232876
s(S'wrote'
p567
S'[[det]]'
p568
S'[[adj]]'
p569
tp570
F0.005136986301369863
s(S'is'
p571
S'influenced'
p572
S'as'
p573
tp574
F0.0017123287671232876
s(S'is'
p575
S'succeeded'
p576
S'by'
p577
tp578
F0.0017123287671232876
s(S'[[adj]]'
p579
S'friend'
p580
S'in'
p581
tp582
F0.0017123287671232876
s(S'had'
p583
S'traveled'
p584
S'with'
p585
tp586
F0.0017123287671232876
s(S'also'
p587
S'befriended'
p588
S'by'
p589
tp590
F0.0017123287671232876
s(g5
S'book'
p591
S'for'
p592
tp593
F0.0017123287671232876
s(S'well'
p594
S'received'
p595
S'by'
p596
tp597
F0.0017123287671232876
s(S'[[adj]]'
p598
S'attack'
p599
S'on'
p600
tp601
F0.0017123287671232876
s(S'also'
p602
S'traveled'
p603
S'with'
p604
tp605
F0.0017123287671232876
s(S'then'
p606
S'received'
p607
S'[[prp]]'
p608
tp609
F0.0017123287671232876
s(S'was'
p610
S'succeeded'
p611
S'on'
p612
tp613
F0.0017123287671232876
s(S'[[con]]'
p614
S'remained'
p615
S'as'
p616
tp617
F0.0017123287671232876
s(S'[[det]]'
p618
S'son'
p619
S'later'
p620
tp621
F0.0017123287671232876
s(S'[[det]]'
p622
S'work'
p623
S'to'
p624
tp625
F0.0017123287671232876
s(S'[[mod]]'
p626
S'read'
p627
S'[[con]]'
p628
tp629
F0.0017123287671232876
s(S'worked'
p630
S'closely'
p631
S'[[con]]'
p632
tp633
F0.003424657534246575
s(S'has'
p634
S'met'
p635
S'with'
p636
tp637
F0.0017123287671232876
s(S'had'
p638
S'met'
p639
S'[[det]]'
p640
tp641
F0.0017123287671232876
s(S'[[adj]]'
p642
S'son'
p643
S'with'
p644
tp645
F0.0017123287671232876
s(S'then'
p646
S'succeeded'
p647
S'by'
p648
tp649
F0.0017123287671232876
s(S'[[prp]]'
p650
S'son'
p651
S'with'
p652
tp653
F0.0017123287671232876
s(g5
S'influence'
p654
S'with'
p655
tp656
F0.0017123287671232876
s(S'has'
p657
S'edited'
p658
S'[[det]]'
p659
tp660
F0.0017123287671232876
s(S'later'
p661
S'received'
p662
S'under'
p663
tp664
F0.0017123287671232876
s(S'[[prp]]'
p665
S'daughter'
p666
S'[[con]]'
p667
tp668
F0.0017123287671232876
s(S'as'
p669
S'seen'
p670
S'when'
p671
tp672
F0.0017123287671232876
s(S'was'
p673
S'friend'
p674
S'of'
p675
tp676
F0.0017123287671232876
s(S'has'
p677
S'remained'
p678
S'[[adj]]'
p679
tp680
F0.0017123287671232876
s(S'[[con]]'
p681
S'met'
p682
S'with'
p683
tp684
F0.0017123287671232876
s(g5
S'book'
p685
g5
tp686
F0.0017123287671232876
s(S'[[det]]'
p687
S'son'
p688
S'[[con]]'
p689
tp690
F0.0017123287671232876
s(S'[[adj]]'
p691
S'son'
p692
S'who'
p693
tp694
F0.0017123287671232876
s(S'[[adj]]'
p695
S'daughter'
p696
S'by'
p697
tp698
F0.0017123287671232876
s(S'was'
p699
S'friend'
p700
S'with'
p701
tp702
F0.0017123287671232876
s(S'to'
p703
S'read'
p704
S'[[con]]'
p705
tp706
F0.0017123287671232876
s(S'found'
p707
S'work'
p708
S'for'
p709
tp710
F0.0017123287671232876
s(S'had'
p711
S'seen'
p712
S'since'
p713
tp714
F0.0017123287671232876
s(S'[[con]]'
p715
S'met'
p716
S'[[det]]'
p717
tp718
F0.0017123287671232876
s(S'called'
p719
S'[[con]]'
p720
S'admired'
p721
tp722
F0.0017123287671232876
s(g5
S'friend'
p723
S'from'
p724
tp725
F0.0017123287671232876
s(S'[[con]]'
p726
S'remained'
p727
S'[[adj]]'
p728
tp729
F0.0017123287671232876
s(S'[[con]]'
p730
S'worked'
p731
S'closely'
p732
tp733
F0.0017123287671232876
s(S'is'
p734
S'seen'
p735
S'[[adj]]'
p736
tp737
F0.0017123287671232876
s(S'[[adj]]'
p738
S'daughter'
p739
S'[[con]]'
p740
tp741
F0.0017123287671232876
s(S'[[num]]'
p742
S'work'
p743
S'of'
p744
tp745
F0.0017123287671232876
s(S'[[adj]]'
p746
S'son'
p747
S'of'
p748
tp749
F0.0017123287671232876
s(S'has'
p750
S'collaborated'
p751
S'for'
p752
tp753
F0.0017123287671232876
s(S'later'
p754
S'succeeded'
p755
S'as'
p756
tp757
F0.0017123287671232876
s(S'was'
p758
S'followed'
p759
S'by'
p760
tp761
F0.0017123287671232876
s(S'was'
p762
S'succeeded'
p763
S'in'
p764
tp765
F0.0017123287671232876
s(S'[[con]]'
p766
S'met'
p767
S'up'
p768
tp769
F0.0017123287671232876
s(S'[[adj]]'
p770
S'seen'
p771
S'by'
p772
tp773
F0.0017123287671232876
s(g5
S'wife'
p774
S'[[det]]'
p775
tp776
F0.0017123287671232876
s(S'be'
p777
S'followed'
p778
S'by'
p779
tp780
F0.0017123287671232876
s(S'[[adj]]'
p781
S'book'
p782
S'[[det]]'
p783
tp784
F0.0017123287671232876
s(S'been'
p785
S'seen'
p786
S'with'
p787
tp788
F0.0017123287671232876
s(g5
S'influence'
p789
S'on'
p790
tp791
F0.0017123287671232876
s(S'be'
p792
S'seen'
p793
S'[[adj]]'
p794
tp795
F0.0017123287671232876
s(S'[[det]]'
p796
S'daughter'
p797
S'by'
p798
tp799
F0.0017123287671232876
s(S'be'
p800
S'succeeded'
p801
S'by'
p802
tp803
F0.0017123287671232876
s(S'[[adj]]'
p804
S'followed'
p805
S'by'
p806
tp807
F0.0017123287671232876
s(S'later'
p808
S'met'
p809
S'with'
p810
tp811
F0.0017123287671232876
s(S'has'
p812
S'read'
p813
S'as'
p814
tp815
F0.0017123287671232876
s(S'wrote'
p816
g372
g373
tp817
F0.0017123287671232876
s(S'also'
p818
S'edited'
p819
S'with'
p820
tp821
F0.0017123287671232876
s(S'[[adj]]'
p822
S'book'
p823
S'of'
p824
tp825
F0.0017123287671232876
s(S'[[adj]]'
p826
S'friends'
p827
g495
tp828
F0.003424657534246575
s(S'to'
p829
S'work'
p830
S'as'
p831
tp832
F0.0017123287671232876
s(S'[[det]]'
p833
S'research'
p834
S'of'
p835
tp836
F0.0017123287671232876
s(S'only'
p837
S'daughter'
p838
S'of'
p839
tp840
F0.0017123287671232876
s(S'[[con]]'
p841
S'friend'
p842
S'to'
p843
tp844
F0.0017123287671232876
s(S'is'
p845
S'considered'
p846
S'[[num]]'
p847
tp848
F0.0017123287671232876
s(S'was'
p849
S'received'
p850
S'[[con]]'
p851
tp852
F0.0017123287671232876
s(S'also'
p853
S'received'
p854
S'[[prp]]'
p855
tp856
F0.0017123287671232876
s(g5
S'attack'
p857
S'on'
p858
tp859
F0.0017123287671232876
s(S'[[adj]]'
p860
S'teacher'
p861
S'of'
p862
tp863
F0.0017123287671232876
s(S'was'
p864
S'seen'
p865
S'[[adj]]'
p866
tp867
F0.0017123287671232876
s(S'[[adj]]'
p868
S'daughter'
p869
S'[[adj]]'
p870
tp871
F0.0017123287671232876
s(S'being'
p872
S'succeeded'
p873
S'by'
p874
tp875
F0.0017123287671232876
s(S'[[det]]'
p876
S'son'
p877
S'who'
p878
tp879
F0.0017123287671232876
s(S'later'
p880
S'wrote'
p881
S'to'
p882
tp883
F0.0017123287671232876
s(S'has'
p884
S'collaborated'
p885
S'from'
p886
tp887
F0.0017123287671232876
s(S'[[adj]]'
p888
S'wife'
p889
S'in'
p890
tp891
F0.0017123287671232876
s(S'also'
p892
S'considered'
p893
S'by'
p894
tp895
F0.0017123287671232876
s(S'[[adj]]'
p896
S'book'
p897
S'[[con]]'
p898
tp899
F0.0017123287671232876
s(S'also'
p900
S'received'
p901
S'[[adj]]'
p902
tp903
F0.0017123287671232876
s(S'had'
p904
S'seen'
p905
S'to'
p906
tp907
F0.0017123287671232876
s(S'[[adj]]'
p908
S'teacher'
p909
S'[[con]]'
p910
tp911
F0.0017123287671232876
s(S'[[mod]]'
p912
S'work'
p913
S'with'
p914
tp915
F0.0017123287671232876
s(S'[[prp]]'
p916
S'daughter'
p917
S'[[det]]'
p918
tp919
F0.0017123287671232876
s(g5
S'book'
p920
S'[[adj]]'
p921
tp922
F0.0017123287671232876
s(S'also'
p923
S'collaborated'
p924
S'[[con]]'
p925
tp926
F0.0017123287671232876
s(S'been'
p927
S'influenced'
p928
S'by'
p929
tp930
F0.0017123287671232876
s(S'found'
p931
S'work'
p932
S'with'
p933
tp934
F0.0017123287671232876
s(S'[[adj]]'
p935
S'work'
p936
S'to'
p937
tp938
F0.0017123287671232876
s(S'made'
p939
S'friends'
p940
S'with'
p941
tp942
F0.0017123287671232876
s(S'[[adj]]'
p943
S'influence'
p944
S'of'
p945
tp946
F0.0017123287671232876
s(g5
S'book'
p947
S'[[num]]'
p948
tp949
F0.0017123287671232876
s(S'[[adj]]'
p950
S'book'
p951
S'from'
p952
tp953
F0.0017123287671232876
s(S'was'
p954
S'son'
p955
S'[[con]]'
p956
tp957
F0.0017123287671232876
s(S'was'
p958
S'wife'
p959
S'of'
p960
tp961
F0.0017123287671232876
s(S'soon'
p962
S'met'
p963
S'[[con]]'
p964
tp965
F0.0017123287671232876
s(S'[[adj]]'
p966
S'influence'
p967
S'as'
p968
tp969
F0.0017123287671232876
s(S'often'
p970
S'seen'
p971
S'as'
p972
tp973
F0.0017123287671232876
s(S'[[det]]'
p974
S'friend'
p975
S'with'
p976
tp977
F0.0017123287671232876
s(S'have'
p978
S'received'
p979
S'from'
p980
tp981
F0.0017123287671232876
s(S'best'
p982
S'friend'
p983
S'[[con]]'
p984
tp985
F0.0017123287671232876
s(S'[[prp]]'
p986
S'book'
p987
S'of'
p988
tp989
F0.0017123287671232876
s(S'to'
p990
S'work'
p991
S'together'
p992
tp993
F0.0017123287671232876
s(S'[[con]]'
p994
S'followed'
p995
S'[[det]]'
p996
tp997
F0.0017123287671232876
s(S'have'
p998
S'remained'
p999
S'with'
p1000
tp1001
F0.0017123287671232876
s(g5
S'son'
p1002
S'[[con]]'
p1003
tp1004
F0.003424657534246575
s(S'[[adj]]'
p1005
S'son'
p1006
S'[[con]]'
p1007
tp1008
F0.0017123287671232876
s(S'first'
p1009
S'met'
p1010
S'with'
p1011
tp1012
F0.0017123287671232876
s(S'which'
p1013
S'received'
p1014
S'[[det]]'
p1015
tp1016
F0.0017123287671232876
s(S'[[adj]]'
p1017
S'son'
p1018
S'later'
p1019
tp1020
F0.0017123287671232876
s(S'[[det]]'
p1021
S'son'
p1022
S'[[num]]'
p1023
tp1024
F0.0017123287671232876
s(S'worked'
p1025
S'closely'
p1026
S'with'
p1027
tp1028
F0.008561643835616438
s(g5
S'wife'
p1029
S'in'
p1030
tp1031
F0.0017123287671232876
s(g568
g569
S'letter'
p1032
tp1033
F0.005136986301369863
s(S'also'
p1034
S'received'
p1035
S'as'
p1036
tp1037
F0.0017123287671232876
s(S'[[pro]]'
p1038
S'wrote'
p1039
S'to'
p1040
tp1041
F0.0017123287671232876
s(S'also'
p1042
S'wrote'
p1043
S'to'
p1044
tp1045
F0.0017123287671232876
s(g455
g456
g507
tp1046
F0.0017123287671232876
s(S'first'
p1047
S'met'
p1048
S'[[det]]'
p1049
tp1050
F0.0017123287671232876
s(g5
S'son'
p1051
S'by'
p1052
tp1053
F0.0017123287671232876
s(S'[[adj]]'
p1054
S'authors'
p1055
S'[[adj]]'
p1056
tp1057
F0.0017123287671232876
s(S'is'
p1058
S'son'
p1059
S'to'
p1060
tp1061
F0.0017123287671232876
s(S'later'
p1062
S'received'
p1063
S'[[con]]'
p1064
tp1065
F0.0017123287671232876
s(S'[[adj]]'
p1066
S'authors'
p1067
S'[[con]]'
p1068
tp1069
F0.0017123287671232876
s(S'[[det]]'
p1070
S'work'
p1071
S'[[adj]]'
p1072
tp1073
F0.0017123287671232876
s(S'[[det]]'
p1074
S'attack'
p1075
S'of'
p1076
tp1077
F0.0017123287671232876
s(S'was'
p1078
S'befriended'
p1079
S'by'
p1080
tp1081
F0.0017123287671232876
s(S'[[adj]]'
p1082
S'wife'
p1083
S'[[pro]]'
p1084
tp1085
F0.0017123287671232876
s(S'was'
p1086
S'daughter'
p1087
S'of'
p1088
tp1089
F0.0017123287671232876
s(g496
g497
S'[[con]]'
p1090
tp1091
F0.0017123287671232876
s(S'son'
p1092
S'of'
p1093
S'son'
p1094
tp1095
F0.0017123287671232876
s(S'is'
p1096
S'seen'
p1097
S'as'
p1098
tp1099
F0.0017123287671232876
s(S'also'
p1100
S'influenced'
p1101
S'as'
p1102
tp1103
F0.0017123287671232876
s(S'[[adj]]'
p1104
S'wife'
p1105
S'[[con]]'
p1106
tp1107
F0.0017123287671232876
s(S'[[det]]'
p1108
S'friend'
p1109
S'as'
p1110
tp1111
F0.0017123287671232876
s(S'[[adj]]'
p1112
S'son'
p1113
S'de'
p1114
tp1115
F0.0017123287671232876
s(S'was'
p1116
S'considered'
p1117
S'to'
p1118
tp1119
F0.0017123287671232876
s(S'also'
p1120
S'wrote'
p1121
S'on'
p1122
tp1123
F0.0017123287671232876
s(S'[[adj]]'
p1124
S'seen'
p1125
S'when'
p1126
tp1127
F0.0017123287671232876
s(g5
S'wife'
p1128
S'who'
p1129
tp1130
F0.0017123287671232876
s(S'also'
p1131
S'collaborated'
p1132
S'in'
p1133
tp1134
F0.0017123287671232876
s(S'is'
p1135
S'succeeded'
p1136
S'as'
p1137
tp1138
F0.0017123287671232876
s(S'also'
p1139
S'edited'
p1140
S'[[adj]]'
p1141
tp1142
F0.0017123287671232876
s(S'[[det]]'
p1143
S'son'
p1144
S'[[det]]'
p1145
tp1146
F0.0017123287671232876
s(S'was'
p1147
S'considered'
p1148
S'[[adj]]'
p1149
tp1150
F0.0017123287671232876
s(S'to'
p1151
S'work'
p1152
S'among'
p1153
tp1154
F0.0017123287671232876
s(S'first'
p1155
S'met'
p1156
S'at'
p1157
tp1158
F0.0017123287671232876
s(S'[[con]]'
p1159
S'work'
p1160
S'on'
p1161
tp1162
F0.0017123287671232876
s(S'[[adj]]'
p1163
S'authors'
p1164
S'of'
p1165
tp1166
F0.0017123287671232876
s(g82
g83
S'poet'
p1167
tp1168
F0.0017123287671232876
s(S'has'
p1169
S'traveled'
p1170
S'with'
p1171
tp1172
F0.0017123287671232876
s(S'then'
p1173
S'followed'
p1174
S'up'
p1175
tp1176
F0.0017123287671232876
s(S'[[det]]'
p1177
S'wife'
p1178
S'to'
p1179
tp1180
F0.0017123287671232876
s(S'also'
p1181
S'wrote'
p1182
S'of'
p1183
tp1184
F0.0017123287671232876
s(S'was'
p1185
S'influenced'
p1186
S'[[con]]'
p1187
tp1188
F0.0017123287671232876
s(S'[[det]]'
p1189
S'thought'
p1190
S'of'
p1191
tp1192
F0.0017123287671232876
s(S'[[prp]]'
p1193
S'son'
p1194
S'[[con]]'
p1195
tp1196
F0.0017123287671232876
s(g5
S'daughter'
p1197
S'with'
p1198
tp1199
F0.0017123287671232876
s(S'is'
p1200
S'considered'
p1201
S'[[det]]'
p1202
tp1203
F0.0017123287671232876
s(S'also'
p1204
S'seen'
p1205
S'with'
p1206
tp1207
F0.0017123287671232876
s(g5
S'son'
p1208
S'in'
p1209
tp1210
F0.0017123287671232876
s(S'[[prp]]'
p1211
S'wife'
p1212
S'had'
p1213
tp1214
F0.0017123287671232876
s(S'[[det]]'
p1215
S'influence'
p1216
S'[[con]]'
p1217
tp1218
F0.0017123287671232876
s(S'is'
p1219
S'seen'
p1220
S'with'
p1221
tp1222
F0.0017123287671232876
s(S'later'
p1223
S'traveled'
p1224
S'with'
p1225
tp1226
F0.0017123287671232876
s(S'as'
p1227
S'wrote'
p1228
S'to'
p1229
tp1230
F0.0017123287671232876
s(g827
g495
g496
tp1231
F0.003424657534246575
s(g5
S'work'
p1232
S'as'
p1233
tp1234
F0.0017123287671232876
s(S'only'
p1235
S'son'
p1236
S'of'
p1237
tp1238
F0.0017123287671232876
s(g5
S'research'
p1239
S'[[con]]'
p1240
tp1241
F0.0017123287671232876
s(S'[[adj]]'
p1242
S'authors'
p1243
S'as'
p1244
tp1245
F0.0017123287671232876
s(S'[[adj]]'
p1246
S'book'
p1247
S'[[num]]'
p1248
tp1249
F0.0017123287671232876
s(S'be'
p1250
S'seen'
p1251
S'with'
p1252
tp1253
F0.0017123287671232876
s(S'[[prp]]'
p1254
S'wife'
p1255
S'[[num]]'
p1256
tp1257
F0.0017123287671232876
s(S'[[adj]]'
p1258
S'friend'
p1259
S'[[det]]'
p1260
tp1261
F0.0017123287671232876
s(S'later'
p1262
S'followed'
p1263
S'by'
p1264
tp1265
F0.0017123287671232876
s(S'[[prp]]'
p1266
S'wife'
p1267
S'as'
p1268
tp1269
F0.0017123287671232876
s(S'thought'
p1270
S'was'
p1271
S'[[adj]]'
p1272
tp1273
F0.0017123287671232876
s(g5
S'son'
p1274
S'de'
p1275
tp1276
F0.0017123287671232876
s(S'[[adj]]'
p1277
S'friend'
p1278
S'with'
p1279
tp1280
F0.0017123287671232876
s(S'also'
p1281
S'succeeded'
p1282
S'as'
p1283
tp1284
F0.0017123287671232876
s(g5
S'daughter'
p1285
S'[[det]]'
p1286
tp1287
F0.0017123287671232876
s(S'[[det]]'
p1288
S'attack'
p1289
S'with'
p1290
tp1291
F0.0017123287671232876
s(S'[[det]]'
p1292
S'son'
p1293
S'to'
p1294
tp1295
F0.0017123287671232876
s(S'[[adj]]'
p1296
S'son'
p1297
S'[[adj]]'
p1298
tp1299
F0.0017123287671232876
s(S'was'
p1300
S'received'
p1301
S'to'
p1302
tp1303
F0.0017123287671232876
s(g5
S'son'
p1304
S'[[adj]]'
p1305
tp1306
F0.0017123287671232876
s(g5
S'followed'
p1307
S'by'
p1308
tp1309
F0.0017123287671232876
s(S'have'
p1310
S'received'
p1311
S'[[det]]'
p1312
tp1313
F0.0017123287671232876
s(g5
S'daughter'
p1314
S'who'
p1315
tp1316
F0.0017123287671232876
s(S'[[det]]'
p1317
S'book'
p1318
S'of'
p1319
tp1320
F0.0017123287671232876
s(S'[[adj]]'
p1321
S'friend'
p1322
S'of'
p1323
tp1324
F0.005136986301369863
s(S'[[pro]]'
p1325
S'book'
p1326
S'at'
p1327
tp1328
F0.0017123287671232876
s(S'[[det]]'
p1329
S'teacher'
p1330
S'to'
p1331
tp1332
F0.0017123287671232876
s(S'to'
p1333
S'read'
p1334
S'as'
p1335
tp1336
F0.0017123287671232876
s(S'later'
p1337
S'wrote'
p1338
S'while'
p1339
tp1340
F0.0017123287671232876
s(S'[[det]]'
p1341
S'attack'
p1342
S'against'
p1343
tp1344
F0.0017123287671232876
s(S'influence'
p1345
S'on'
p1346
g1189
tp1347
F0.0017123287671232876
s(S'[[con]]'
p1348
S'edited'
p1349
S'with'
p1350
tp1351
F0.0017123287671232876
s(S'was'
p1352
S'met'
p1353
S'by'
p1354
tp1355
F0.0017123287671232876
s(S'also'
p1356
S'collaborated'
p1357
S'as'
p1358
tp1359
F0.0017123287671232876
s(S'[[con]]'
p1360
S'remained'
p1361
S'so'
p1362
tp1363
F0.0017123287671232876
s(S'with'
p1364
S'son'
p1365
S'of'
p1366
tp1367
F0.0017123287671232876
s(S'[[adj]]'
p1368
S'friend'
p1369
S'[[con]]'
p1370
tp1371
F0.0017123287671232876
s(S'be'
p1372
S'seen'
p1373
S'as'
p1374
tp1375
F0.0017123287671232876
s(g5
S'influence'
p1376
S'over'
p1377
tp1378
F0.0017123287671232876
s(S'to'
p1379
S'work'
p1380
S'[[num]]'
p1381
tp1382
F0.0017123287671232876
s(S'is'
p1383
S'son'
p1384
S'[[con]]'
p1385
tp1386
F0.0017123287671232876
s(S'also'
p1387
S'wrote'
p1388
S'about'
p1389
tp1390
F0.0017123287671232876
s(S'[[adj]]'
p1391
S'daughter'
p1392
S'of'
p1393
tp1394
F0.0017123287671232876
s(S'[[con]]'
p1395
S'work'
p1396
S'with'
p1397
tp1398
F0.0017123287671232876
s(S'[[num]]'
p1399
S'book'
p1400
S'[[det]]'
p1401
tp1402
F0.0017123287671232876
s(g5
S'wife'
p1403
S'with'
p1404
tp1405
F0.0017123287671232876
s(S'been'
p1406
S'considered'
p1407
S'as'
p1408
tp1409
F0.0017123287671232876
s(S'to'
p1410
S'read'
p1411
S'[[det]]'
p1412
tp1413
F0.0017123287671232876
s(S'was'
p1414
S'considered'
p1415
S'for'
p1416
tp1417
F0.0017123287671232876
s(S'where'
p1418
S'remained'
p1419
S'until'
p1420
tp1421
F0.0017123287671232876
s(S'has'
p1422
S'followed'
p1423
S'[[det]]'
p1424
tp1425
F0.0017123287671232876
s(g5
S'work'
p1426
S'which'
p1427
tp1428
F0.0017123287671232876
s(S'[[adj]]'
p1429
S'wife'
p1430
S'[[det]]'
p1431
tp1432
F0.0017123287671232876
s(S'also'
p1433
S'received'
p1434
S'by'
p1435
tp1436
F0.0017123287671232876
s(S'[[det]]'
p1437
S'work'
p1438
S'by'
p1439
tp1440
F0.0017123287671232876
s(S'[[adj]]'
p1441
S'seen'
p1442
S'at'
p1443
tp1444
F0.0017123287671232876
s(S'[[adj]]'
p1445
S'work'
p1446
S'on'
p1447
tp1448
F0.0017123287671232876
s(S'[[adj]]'
p1449
S'influence'
p1450
S'[[con]]'
p1451
tp1452
F0.0017123287671232876
s(S'who'
p1453
S'received'
p1454
S'[[det]]'
p1455
tp1456
F0.0017123287671232876
s(S'be'
p1457
S'considered'
p1458
S'[[det]]'
p1459
tp1460
F0.0017123287671232876
s(S'also'
p1461
S'met'
p1462
S'with'
p1463
tp1464
F0.0017123287671232876
s(g373
g374
S'to'
p1465
tp1466
F0.005136986301369863
s(S'also'
p1467
S'wrote'
p1468
S'as'
p1469
tp1470
F0.0017123287671232876
s(S'has'
p1471
S'collaborated'
p1472
S'with'
p1473
tp1474
F0.0017123287671232876
s(S'was'
p1475
S'seen'
p1476
S'by'
p1477
tp1478
F0.0017123287671232876
s(S'[[num]]'
p1479
S'son'
p1480
S'of'
p1481
tp1482
F0.0017123287671232876
s(S'has'
p1483
S'collaborated'
p1484
S'in'
p1485
tp1486
F0.0017123287671232876
s(S'was'
p1487
g719
g720
tp1488
F0.003424657534246575
s(S'also'
p1489
S'met'
p1490
S'[[det]]'
p1491
tp1492
F0.0017123287671232876
s(S'[[det]]'
p1493
S'son'
p1494
S'became'
p1495
tp1496
F0.0017123287671232876
s(S'to'
p1497
S'work'
p1498
S'after'
p1499
tp1500
F0.0017123287671232876
s(S'[[adj]]'
p1501
S'friend'
p1502
S'was'
p1503
tp1504
F0.0017123287671232876
s(S'has'
p1505
S'met'
p1506
S'[[con]]'
p1507
tp1508
F0.0017123287671232876
s(S'had'
p1509
S'received'
p1510
S'[[adj]]'
p1511
tp1512
F0.0017123287671232876
s(S'to'
p1513
S'work'
p1514
S'where'
p1515
tp1516
F0.0017123287671232876
s(S'[[adj]]'
p1517
S'met'
p1518
S'while'
p1519
tp1520
F0.0017123287671232876
s(S'also'
p1521
S'traveled'
p1522
S'as'
p1523
tp1524
F0.0017123287671232876
s(S'is'
p1525
S'seen'
p1526
S'to'
p1527
tp1528
F0.0017123287671232876
s(S'were'
p1529
S'influenced'
p1530
S'by'
p1531
tp1532
F0.0017123287671232876
s(S'wrote'
p1533
S'[[det]]'
p1534
S'letter'
p1535
tp1536
F0.005136986301369863
s(S'[[num]]'
p1537
S'son'
p1538
S'[[det]]'
p1539
tp1540
F0.0017123287671232876
s(S'[[prp]]'
p1541
S'friend'
p1542
S'[[con]]'
p1543
tp1544
F0.0017123287671232876
s(S'[[det]]'
p1545
S'daughter'
p1546
S'of'
p1547
tp1548
F0.0017123287671232876
s(S'to'
p1549
S'work'
p1550
S'[[adj]]'
p1551
tp1552
F0.0017123287671232876
s(g5
S'influence'
p1553
S'[[con]]'
p1554
tp1555
F0.0017123287671232876
s(S'later'
p1556
S'received'
p1557
S'[[det]]'
p1558
tp1559
F0.0017123287671232876
s(S'[[adj]]'
p1560
S'influence'
p1561
S'on'
p1562
tp1563
F0.005136986301369863
s(g5
S'book'
p1564
S'in'
p1565
tp1566
F0.0017123287671232876
s(S'[[det]]'
p1567
S'daughter'
p1568
S'[[num]]'
p1569
tp1570
F0.0017123287671232876
s(g325
g326
S'writers'
p1571
tp1572
F0.003424657534246575
s(g5
S'wife'
p1573
S'[[adj]]'
p1574
tp1575
F0.0017123287671232876
s(S'first'
p1576
S'met'
p1577
S'when'
p1578
tp1579
F0.0017123287671232876
s(g1271
g1272
S'influence'
p1580
tp1581
F0.0017123287671232876
s(S'[[adj]]'
p1582
S'work'
p1583
S'[[con]]'
p1584
tp1585
F0.0017123287671232876
s(S'[[con]]'
p1586
S'son'
p1587
S'of'
p1588
tp1589
F0.0017123287671232876
s(g186
g187
S'[[con]]'
p1590
tp1591
F0.0017123287671232876
s(S'[[det]]'
p1592
S'friend'
p1593
S'[[det]]'
p1594
tp1595
F0.0017123287671232876
s(S'is'
p1596
S'met'
p1597
S'by'
p1598
tp1599
F0.0017123287671232876
s(S'[[prp]]'
p1600
S'daughter'
p1601
S'[[adj]]'
p1602
tp1603
F0.0017123287671232876
s(S'[[adj]]'
p1604
S'daughter'
p1605
S'[[det]]'
p1606
tp1607
F0.0017123287671232876
s(S'then'
p1608
S'wrote'
p1609
S'to'
p1610
tp1611
F0.0017123287671232876
s(S'[[adj]]'
p1612
S'book'
p1613
S'for'
p1614
tp1615
F0.0017123287671232876
s(S'being'
p1616
S'considered'
p1617
S'by'
p1618
tp1619
F0.0017123287671232876
s(S'[[con]]'
p1620
S'succeeded'
p1621
S'as'
p1622
tp1623
F0.0017123287671232876
s(S'also'
p1624
S'seen'
p1625
S'[[det]]'
p1626
tp1627
F0.0017123287671232876
s(S'[[prp]]'
p1628
S'book'
p1629
S'in'
p1630
tp1631
F0.0017123287671232876
s(S'have'
p1632
S'met'
p1633
S'[[con]]'
p1634
tp1635
F0.0017123287671232876
s(S'had'
p1636
S'met'
p1637
S'[[con]]'
p1638
tp1639
F0.0017123287671232876
s(S'first'
p1640
S'seen'
p1641
S'in'
p1642
tp1643
F0.0017123287671232876
s(S'had'
p1644
S'seen'
p1645
S'[[con]]'
p1646
tp1647
F0.0017123287671232876
s(S'be'
p1648
S'seen'
p1649
S'in'
p1650
tp1651
F0.0017123287671232876
s(S'[[num]]'
p1652
S'daughter'
p1653
S'[[con]]'
p1654
tp1655
F0.0017123287671232876
s(S'[[adj]]'
p1656
S'wrote'
p1657
S'to'
p1658
tp1659
F0.0017123287671232876
s(S'where'
p1660
S'met'
p1661
S'with'
p1662
tp1663
F0.0017123287671232876
s(S'has'
p1664
S'collaborated'
p1665
S'[[con]]'
p1666
tp1667
F0.0017123287671232876
s(S'[[con]]'
p1668
S'wrote'
p1669
S'for'
p1670
tp1671
F0.0017123287671232876
s(S'[[prp]]'
p1672
S'son'
p1673
S'was'
p1674
tp1675
F0.0017123287671232876
s(S'had'
p1676
S'met'
p1677
S'with'
p1678
tp1679
F0.0017123287671232876
s(g5
S'son'
p1680
S'with'
p1681
tp1682
F0.0017123287671232876
s(S'[[con]]'
p1683
S'wrote'
p1684
S'to'
p1685
tp1686
F0.0017123287671232876
s(g5
S'friend'
p1687
S'[[adj]]'
p1688
tp1689
F0.0017123287671232876
s(S'also'
p1690
S'met'
p1691
S'from'
p1692
tp1693
F0.0017123287671232876
s(S'[[adj]]'
p1694
S'book'
p1695
S'to'
p1696
tp1697
F0.0017123287671232876
s(S'to'
p1698
S'daughter'
p1699
S'of'
p1700
tp1701
F0.0017123287671232876
s(g5
S'daughter'
p1702
S'in'
p1703
tp1704
F0.0017123287671232876
s(S'has'
p1705
S'collaborated'
p1706
S'as'
p1707
tp1708
F0.0017123287671232876
s(S'had'
p1709
S'seen'
p1710
S'[[det]]'
p1711
tp1712
F0.0017123287671232876
s(S'[[det]]'
p1713
S'wife'
p1714
S'[[con]]'
p1715
tp1716
F0.0017123287671232876
s(S'was'
p1717
S'son'
p1718
S'of'
p1719
tp1720
F0.0017123287671232876
s(S'was'
p1721
S'followed'
p1722
S'as'
p1723
tp1724
F0.0017123287671232876
s(S'where'
p1725
S'worked'
p1726
S'closely'
p1727
tp1728
F0.0017123287671232876
s(S'was'
p1729
S'considered'
p1730
S'[[num]]'
p1731
tp1732
F0.0017123287671232876
s(S'was'
p1733
S'son'
p1734
S'by'
p1735
tp1736
F0.0017123287671232876
s(S'well'
p1737
S'received'
p1738
S'[[con]]'
p1739
tp1740
F0.0017123287671232876
s(g5
S'friend'
p1741
S'[[con]]'
p1742
tp1743
F0.003424657534246575
s(g5
S'book'
p1744
S'[[con]]'
p1745
tp1746
F0.0017123287671232876
s(S'[[pro]]'
p1747
S'book'
p1748
S'on'
p1749
tp1750
F0.0017123287671232876
s(S'[[det]]'
p1751
S'daughter'
p1752
S'[[con]]'
p1753
tp1754
F0.0017123287671232876
s(S'[[adj]]'
p1755
S'work'
p1756
S'with'
p1757
tp1758
F0.0017123287671232876
s(g5
S'work'
p1759
S'[[con]]'
p1760
tp1761
F0.0017123287671232876
s(g463
S'admired'
p1762
S'by'
p1763
tp1764
F0.0017123287671232876
s(S'[[adj]]'
p1765
S'work'
p1766
S'of'
p1767
tp1768
F0.0017123287671232876
s(g720
g721
S'by'
p1769
tp1770
F0.0017123287671232876
s(g5
S'son'
p1771
S'[[num]]'
p1772
tp1773
F0.0017123287671232876
s(S'was'
p1774
S'influenced'
p1775
S'[[prp]]'
p1776
tp1777
F0.0017123287671232876
s(S'[[det]]'
p1778
S'son'
p1779
S'whom'
p1780
tp1781
F0.0017123287671232876
s(S'[[adj]]'
p1782
S'friend'
p1783
S'who'
p1784
tp1785
F0.0017123287671232876
s(S'was'
p1786
S'received'
p1787
S'by'
p1788
tp1789
F0.0017123287671232876
s(g5
S'wife'
p1790
S'as'
p1791
tp1792
F0.0017123287671232876
s(g5
S'son'
p1793
S'who'
p1794
tp1795
F0.0017123287671232876
s(g5
S'book'
p1796
S'of'
p1797
tp1798
F0.0017123287671232876
s(S'where'
p1799
S'met'
p1800
S'[[adj]]'
p1801
tp1802
F0.0017123287671232876
s(S'also'
p1803
S'wrote'
p1804
S'[[det]]'
p1805
tp1806
F0.005136986301369863
s(S'[[det]]'
p1807
S'wife'
p1808
S'of'
p1809
tp1810
F0.0017123287671232876
s(S'to'
p1811
S'work'
p1812
S'while'
p1813
tp1814
F0.0017123287671232876
s(S'[[det]]'
p1815
S'son'
p1816
S'[[adj]]'
p1817
tp1818
F0.0017123287671232876
s(S'to'
p1819
S'work'
p1820
S'again'
p1821
tp1822
F0.0017123287671232876
s(S'[[adj]]'
p1823
S'book'
p1824
S'[[adj]]'
p1825
tp1826
F0.0017123287671232876
s(S'was'
p1827
S'seen'
p1828
S'to'
p1829
tp1830
F0.0017123287671232876
s(S'to'
p1831
S'work'
p1832
S'by'
p1833
tp1834
F0.0017123287671232876
s(S'[[prp]]'
p1835
S'friend'
p1836
S'[[det]]'
p1837
tp1838
F0.0017123287671232876
s(S'where'
p1839
S'met'
p1840
S'[[con]]'
p1841
tp1842
F0.0017123287671232876
s(S'found'
p1843
S'work'
p1844
S'as'
p1845
tp1846
F0.0017123287671232876
s(g5
S'book'
p1847
S'on'
p1848
tp1849
F0.0017123287671232876
s(S'was'
p1850
S'influenced'
p1851
S'in'
p1852
tp1853
F0.0017123287671232876
s(S'[[num]]'
p1854
S'book'
p1855
S'of'
p1856
tp1857
F0.0017123287671232876
s(S'to'
p1858
S'work'
p1859
S'[[con]]'
p1860
tp1861
F0.0017123287671232876
s(g1346
g1189
g1190
tp1862
F0.0017123287671232876
s(S'had'
p1863
S'succeeded'
p1864
S'as'
p1865
tp1866
F0.0017123287671232876
s(S'also'
p1867
S'met'
p1868
S'[[con]]'
p1869
tp1870
F0.0017123287671232876
s(S'[[adj]]'
p1871
S'influence'
p1872
S'with'
p1873
tp1874
F0.0017123287671232876
s(S'[[det]]'
p1875
S'daughter'
p1876
S'[[pro]]'
p1877
tp1878
F0.0017123287671232876
s(S'is'
p1879
S'daughter'
p1880
S'of'
p1881
tp1882
F0.0017123287671232876
s(S'later'
p1883
S'wrote'
p1884
S'of'
p1885
tp1886
F0.0017123287671232876
s(g5
S'book'
p1887
S'to'
p1888
tp1889
F0.0017123287671232876
s(S'[[prp]]'
p1890
S'son'
p1891
S'[[det]]'
p1892
tp1893
F0.0017123287671232876
s(S'friend'
p1894
S'of'
p1895
S'poet'
p1896
tp1897
F0.0017123287671232876
s(g5
S'son'
p1898
S'of'
p1899
tp1900
F0.0017123287671232876
s(S'son'
p1901
S'[[con]]'
p1902
S'son'
p1903
tp1904
F0.0017123287671232876
s(S'[[num]]'
p1905
S'daughter'
p1906
S'of'
p1907
tp1908
F0.0017123287671232876
s(S'[[adj]]'
p1909
S'seen'
p1910
S'with'
p1911
tp1912
F0.0017123287671232876
s(S'also'
p1913
g1025
g1026
tp1914
F0.003424657534246575
s(S'also'
p1915
S'edited'
p1916
S'[[num]]'
p1917
tp1918
F0.0017123287671232876
s(S'have'
p1919
S'met'
p1920
S'with'
p1921
tp1922
F0.0017123287671232876
s(S'with'
p1923
S'[[adj]]'
p1924
S'members'
p1925
tp1926
F0.0017123287671232876
s(S'has'
p1927
S'collaborated'
p1928
S'on'
p1929
tp1930
F0.0017123287671232876
s(S'have'
p1931
S'remained'
p1932
S'[[adj]]'
p1933
tp1934
F0.0017123287671232876
s(g62
g63
S'poet'
p1935
tp1936
F0.003424657534246575
s(S'[[adj]]'
p1937
S'friend'
p1938
S'to'
p1939
tp1940
F0.0017123287671232876
s(S'was'
p1941
S'succeeded'
p1942
S'as'
p1943
tp1944
F0.0017123287671232876
s(S'worked'
p1945
S'closely'
p1946
S'[[adj]]'
p1947
tp1948
F0.0017123287671232876
s(S'was'
p1949
S'succeeded'
p1950
S'by'
p1951
tp1952
F0.0017123287671232876
s(S'to'
p1953
S'work'
p1954
S'with'
p1955
tp1956
F0.0017123287671232876
s(S'had'
p1957
S'met'
p1958
S'while'
p1959
tp1960
F0.0017123287671232876
s(S'[[det]]'
p1961
S'daughter'
p1962
S'who'
p1963
tp1964
F0.0017123287671232876
s(S'had'
p1965
S'succeeded'
p1966
S'[[pro]]'
p1967
tp1968
F0.0017123287671232876
s(S'be'
p1969
S'seen'
p1970
S'to'
p1971
tp1972
F0.0017123287671232876
s(S'then'
p1973
S'met'
p1974
S'with'
p1975
tp1976
F0.0017123287671232876
s(S'[[prp]]'
p1977
S'son'
p1978
S'[[num]]'
p1979
tp1980
F0.0017123287671232876
s(S'also'
p1981
S'wrote'
p1982
S'[[con]]'
p1983
tp1984
F0.0017123287671232876
s(S'[[prp]]'
p1985
S'wife'
p1986
S'[[con]]'
p1987
tp1988
F0.0017123287671232876
s(S'was'
p1989
S'seen'
p1990
S'as'
p1991
tp1992
F0.0017123287671232876
s(S'[[adj]]'
p1993
S'influence'
p1994
S'from'
p1995
tp1996
F0.0017123287671232876
s(S'is'
p1997
S'considered'
p1998
S'to'
p1999
tp2000
F0.0017123287671232876
s(S'also'
p2001
S'wrote'
p2002
S'that'
p2003
tp2004
F0.0017123287671232876
s(g5
S'influence'
p2005
S'that'
p2006
tp2007
F0.0017123287671232876
s(S'[[det]]'
p2008
S'son'
p2009
S'[[pro]]'
p2010
tp2011
F0.0017123287671232876
s(S'[[adj]]'
p2012
S'son'
p2013
S'to'
p2014
tp2015
F0.0017123287671232876
s(S'[[det]]'
p2016
S'daughter'
p2017
S'to'
p2018
tp2019
F0.0017123287671232876
s(S'had'
p2020
S'met'
p2021
S'through'
p2022
tp2023
F0.0017123287671232876
s(S'also'
p2024
S'collaborated'
p2025
S'on'
p2026
tp2027
F0.0017123287671232876
s(S'best'
p2028
S'friend'
p2029
S'of'
p2030
tp2031
F0.0017123287671232876
s(S'also'
p2032
S'wrote'
p2033
S'by'
p2034
tp2035
F0.0017123287671232876
s(S'was'
p2036
S'succeeded'
p2037
S'[[con]]'
p2038
tp2039
F0.0017123287671232876
s(g569
g1032
S'to'
p2040
tp2041
F0.003424657534246575
s(S'[[adj]]'
p2042
S'son'
p2043
S'was'
p2044
tp2045
F0.0017123287671232876
s(g462
g463
g1762
tp2046
F0.0017123287671232876
s(g5
S'daughter'
p2047
S'to'
p2048
tp2049
F0.0017123287671232876
s(S'[[det]]'
p2050
S'daughter'
p2051
S'[[det]]'
p2052
tp2053
F0.0017123287671232876
s(S'then'
p2054
S'received'
p2055
S'[[det]]'
p2056
tp2057
F0.0017123287671232876
s(S'when'
p2058
S'received'
p2059
S'[[det]]'
p2060
tp2061
F0.0017123287671232876
s(S'[[num]]'
p2062
S'son'
p2063
S'[[con]]'
p2064
tp2065
F0.0017123287671232876
s(S'which'
p2066
S'wrote'
p2067
S'that'
p2068
tp2069
F0.0017123287671232876
s(g5
S'wife'
p2070
S'of'
p2071
tp2072
F0.0017123287671232876
s(S'was'
p2073
S'seen'
p2074
S'with'
p2075
tp2076
F0.0017123287671232876
s(S'[[adj]]'
p2077
S'son'
p2078
S'[[num]]'
p2079
tp2080
F0.0017123287671232876
s(S'[[det]]'
p2081
S'influence'
p2082
S'of'
p2083
tp2084
F0.0017123287671232876
s(S'[[adj]]'
p2085
S'son'
p2086
S'by'
p2087
tp2088
F0.0017123287671232876
s(S'was'
p2089
S'succeeded'
p2090
S'who'
p2091
tp2092
F0.0017123287671232876
s(S'[[prp]]'
p2093
S'daughter'
p2094
S'to'
p2095
tp2096
F0.0017123287671232876
s(S'was'
p2097
S'influenced'
p2098
S'by'
p2099
tp2100
F0.0017123287671232876
s(S'[[num]]'
p2101
S'son'
p2102
S'by'
p2103
tp2104
F0.0017123287671232876
s(g456
g507
g185
tp2105
F0.0017123287671232876
s.