(dp0
(S'had'
p1
S'used'
p2
S'in'
p3
tp4
F0.004329004329004329
s(S'was'
p5
S'played'
p6
S'by'
p7
tp8
F0.004329004329004329
s(S'later'
p9
S'played'
p10
S'on'
p11
tp12
F0.004329004329004329
s(S'also'
p13
S'studied'
p14
S'[[con]]'
p15
tp16
F0.004329004329004329
s(S'had'
p17
S'played'
p18
S'during'
p19
tp20
F0.004329004329004329
s(S'currently'
p21
S'playing'
p22
S'[[con]]'
p23
tp24
F0.004329004329004329
s(S'was'
p25
S'used'
p26
S'when'
p27
tp28
F0.004329004329004329
s(S'is'
p29
S'recorded'
p30
S'as'
p31
tp32
F0.004329004329004329
s(S'then'
p33
S'played'
p34
S'with'
p35
tp36
F0.004329004329004329
s(S'[[adj]]'
p37
S'play'
p38
S'[[con]]'
p39
tp40
F0.004329004329004329
s(S'also'
p41
S'played'
p42
S'[[con]]'
p43
tp44
F0.004329004329004329
s(S'where'
p45
S'studied'
p46
S'[[det]]'
p47
tp48
F0.004329004329004329
s(S'then'
p49
S'studied'
p50
S'[[con]]'
p51
tp52
F0.004329004329004329
s(S'had'
p53
S'played'
p54
S'[[con]]'
p55
tp56
F0.004329004329004329
s(S'first'
p57
S'played'
p58
S'at'
p59
tp60
F0.004329004329004329
s(S'later'
p61
S'studied'
p62
S'under'
p63
tp64
F0.004329004329004329
s(S'was'
p65
S'playing'
p66
S'at'
p67
tp68
F0.004329004329004329
s(S'[[adj]]'
p69
S'played'
p70
S'by'
p71
tp72
F0.004329004329004329
s(S'often'
p73
S'used'
p74
S'[[det]]'
p75
tp76
F0.004329004329004329
s(S'first'
p77
S'played'
p78
S'in'
p79
tp80
F0.004329004329004329
s(S'was'
p81
S'played'
p82
S'[[con]]'
p83
tp84
F0.004329004329004329
s(S'had'
p85
S'used'
p86
S'[[det]]'
p87
tp88
F0.004329004329004329
s(S'also'
p89
S'recorded'
p90
S'[[con]]'
p91
tp92
F0.004329004329004329
s(S'where'
p93
S'studied'
p94
S'[[con]]'
p95
tp96
F0.004329004329004329
s(S'also'
p97
S'designed'
p98
S'[[adj]]'
p99
tp100
F0.004329004329004329
s(S'[[con]]'
p101
S'played'
p102
S'as'
p103
tp104
F0.004329004329004329
s(S'[[mod]]'
p105
S'use'
p106
S'[[det]]'
p107
tp108
F0.004329004329004329
s(S'has'
p109
S'released'
p110
S'[[adj]]'
p111
tp112
F0.004329004329004329
s(S's'
p113
S'recorded'
p114
S'by'
p115
tp116
F0.004329004329004329
s(S'also'
p117
S'studied'
p118
S'[[det]]'
p119
tp120
F0.004329004329004329
s(S'still'
p121
S'played'
p122
S'for'
p123
tp124
F0.004329004329004329
s(S'who'
p125
S'used'
p126
S'[[adj]]'
p127
tp128
F0.004329004329004329
s(S'was'
p129
S'playing'
p130
S'[[adj]]'
p131
tp132
F0.004329004329004329
s(S'[[con]]'
p133
S'played'
p134
S'with'
p135
tp136
F0.004329004329004329
s(S'also'
p137
S'played'
p138
S'at'
p139
tp140
F0.004329004329004329
s(S'[[con]]'
p141
S'played'
p142
S'on'
p143
tp144
F0.004329004329004329
s(S'is'
p145
S'played'
p146
S'in'
p147
tp148
F0.004329004329004329
s(S'later'
p149
S'studied'
p150
S'with'
p151
tp152
F0.004329004329004329
s(S'to'
p153
S'use'
p154
S'with'
p155
tp156
F0.004329004329004329
s(S'also'
p157
S'playing'
p158
S'in'
p159
tp160
F0.004329004329004329
s(S'be'
p161
S'playing'
p162
S'[[det]]'
p163
tp164
F0.004329004329004329
s(S'made'
p165
S'use'
p166
S'with'
p167
tp168
F0.004329004329004329
s(S'as'
p169
S'played'
p170
S'by'
p171
tp172
F0.004329004329004329
s(S'[[adj]]'
p173
S'plays'
p174
S'[[con]]'
p175
tp176
F0.004329004329004329
s(S'also'
p177
S'studied'
p178
S'with'
p179
tp180
F0.004329004329004329
s(S'also'
p181
S'recorded'
p182
S'[[det]]'
p183
tp184
F0.004329004329004329
s(S'[[con]]'
p185
S'played'
p186
S'[[adj]]'
p187
tp188
F0.004329004329004329
s(S'also'
p189
S'recorded'
p190
S'[[prp]]'
p191
tp192
F0.004329004329004329
s(S'has'
p193
S'designed'
p194
S'for'
p195
tp196
F0.004329004329004329
s(S'has'
p197
S'released'
p198
S'[[det]]'
p199
tp200
F0.004329004329004329
s(S'is'
p201
S'playing'
p202
S'[[det]]'
p203
tp204
F0.004329004329004329
s(S'is'
p205
S'listed'
p206
S'as'
p207
tp208
F0.004329004329004329
s(S'had'
p209
S'used'
p210
S'[[adj]]'
p211
tp212
F0.004329004329004329
s(S'has'
p213
S'used'
p214
S'[[det]]'
p215
tp216
F0.004329004329004329
s(S'first'
p217
S'studied'
p218
S'with'
p219
tp220
F0.004329004329004329
s(S'[[con]]'
p221
S'played'
p222
S'[[con]]'
p223
tp224
F0.004329004329004329
s(S'then'
p225
S'studied'
p226
S'under'
p227
tp228
F0.004329004329004329
s(S'much'
p229
S'like'
p230
S'[[det]]'
p231
tp232
F0.004329004329004329
s(S'then'
p233
S'played'
p234
S'by'
p235
tp236
F0.004329004329004329
s(S'is'
p237
S'played'
p238
S'by'
p239
tp240
F0.004329004329004329
s(S'to'
p241
S'use'
p242
S'[[det]]'
p243
tp244
F0.004329004329004329
s(S'[[adj]]'
p245
S'used'
p246
S'to'
p247
tp248
F0.004329004329004329
s(S'also'
p249
S'used'
p250
S'[[con]]'
p251
tp252
F0.004329004329004329
s(S'also'
p253
S'recorded'
p254
S'on'
p255
tp256
F0.004329004329004329
s(S'have'
p257
S'studied'
p258
S'with'
p259
tp260
F0.004329004329004329
s(S'had'
p261
S'played'
p262
S'with'
p263
tp264
F0.004329004329004329
s(S'to'
p265
S'use'
p266
S'[[adj]]'
p267
tp268
F0.004329004329004329
s(S'to'
p269
S'use'
p270
S'[[prp]]'
p271
tp272
F0.004329004329004329
s(S'is'
p273
S'released'
p274
S'from'
p275
tp276
F0.004329004329004329
s(S'been'
p277
S'played'
p278
S'by'
p279
tp280
F0.004329004329004329
s(S'been'
p281
S'playing'
p282
S'[[det]]'
p283
tp284
F0.004329004329004329
s(g113
S'play'
p285
S'in'
p286
tp287
F0.004329004329004329
s(S'has'
p288
S'played'
p289
S'[[det]]'
p290
tp291
F0.004329004329004329
s(S'[[pro]]'
p292
S'like'
p293
S'[[pro]]'
p294
tp295
F0.004329004329004329
s(S'has'
p296
S'studied'
p297
S'under'
p298
tp299
F0.004329004329004329
s(S'already'
p300
S'played'
p301
S'with'
p302
tp303
F0.004329004329004329
s(S'has'
p304
S'played'
p305
S'as'
p306
tp307
F0.004329004329004329
s(g113
S'play'
p308
S'at'
p309
tp310
F0.004329004329004329
s(S'where'
p311
S'played'
p312
S'[[det]]'
p313
tp314
F0.004329004329004329
s(S'also'
p315
S'designed'
p316
S'at'
p317
tp318
F0.004329004329004329
s(S'who'
p319
S'played'
p320
S'[[adj]]'
p321
tp322
F0.004329004329004329
s(S'also'
p323
S'played'
p324
S'[[pro]]'
p325
tp326
F0.004329004329004329
s(S'also'
p327
S'played'
p328
S'with'
p329
tp330
F0.004329004329004329
s(S'first'
p331
S'recorded'
p332
S'with'
p333
tp334
F0.004329004329004329
s(S'also'
p335
S'played'
p336
S'under'
p337
tp338
F0.004329004329004329
s(S'[[num]]'
p339
S'played'
p340
S'with'
p341
tp342
F0.004329004329004329
s(S'[[num]]'
p343
S'played'
p344
S'at'
p345
tp346
F0.004329004329004329
s(S'where'
p347
S'played'
p348
S'with'
p349
tp350
F0.004329004329004329
s(S'is'
p351
S'recorded'
p352
S'by'
p353
tp354
F0.004329004329004329
s(S'later'
p355
S'released'
p356
S'[[det]]'
p357
tp358
F0.004329004329004329
s(S'as'
p359
S'played'
p360
S'with'
p361
tp362
F0.004329004329004329
s(S'also'
p363
S'played'
p364
S'of'
p365
tp366
F0.004329004329004329
s(S'only'
p367
S'played'
p368
S'in'
p369
tp370
F0.004329004329004329
s(g42
g43
S'played'
p371
tp372
F0.004329004329004329
s(S'has'
p373
S'recorded'
p374
S'[[con]]'
p375
tp376
F0.004329004329004329
s(S'also'
p377
S'recorded'
p378
S'with'
p379
tp380
F0.004329004329004329
s(S'also'
p381
S'played'
p382
S'along'
p383
tp384
F0.004329004329004329
s(S'[[con]]'
p385
S'studied'
p386
S'with'
p387
tp388
F0.004329004329004329
s(S'later'
p389
S'played'
p390
S'[[det]]'
p391
tp392
F0.004329004329004329
s(S'also'
p393
S'used'
p394
S'[[pro]]'
p395
tp396
F0.004329004329004329
s(S'for'
p397
S'playing'
p398
S'in'
p399
tp400
F0.004329004329004329
s(S'then'
p401
S'used'
p402
S'by'
p403
tp404
F0.004329004329004329
s(S'also'
p405
S'designed'
p406
S'[[det]]'
p407
tp408
F0.004329004329004329
s(S'which'
p409
S'played'
p410
S'at'
p411
tp412
F0.004329004329004329
s(S'when'
p413
S'played'
p414
S'in'
p415
tp416
F0.004329004329004329
s(S'also'
p417
S'recorded'
p418
S'as'
p419
tp420
F0.004329004329004329
s(g113
S'play'
p421
S'of'
p422
tp423
F0.004329004329004329
s(S'[[con]]'
p424
S'recorded'
p425
S'with'
p426
tp427
F0.004329004329004329
s(S'when'
p428
S'played'
p429
S'at'
p430
tp431
F0.004329004329004329
s(S'first'
p432
S'played'
p433
S'[[con]]'
p434
tp435
F0.004329004329004329
s(S'had'
p436
S'designed'
p437
S'[[det]]'
p438
tp439
F0.004329004329004329
s(S'also'
p440
S'used'
p441
S'[[det]]'
p442
tp443
F0.004329004329004329
s(S'has'
p444
S'recorded'
p445
S'by'
p446
tp447
F0.004329004329004329
s(S'has'
p448
S'played'
p449
S'by'
p450
tp451
F0.004329004329004329
s(S'also'
p452
S'endorsed'
p453
S'by'
p454
tp455
F0.004329004329004329
s(S'be'
p456
S'played'
p457
S'by'
p458
tp459
F0.004329004329004329
s(S'which'
p460
S'played'
p461
S'in'
p462
tp463
F0.004329004329004329
s(S'has'
p464
S'recorded'
p465
S'[[num]]'
p466
tp467
F0.004329004329004329
s(S'is'
p468
S'like'
p469
S'[[det]]'
p470
tp471
F0.004329004329004329
s(g113
S'played'
p472
S'by'
p473
tp474
F0.004329004329004329
s(S'then'
p475
S'played'
p476
S'under'
p477
tp478
F0.004329004329004329
s(S'[[det]]'
p479
S'played'
p480
S'by'
p481
tp482
F0.004329004329004329
s(S'be'
p483
S'used'
p484
S'for'
p485
tp486
F0.004329004329004329
s(S'then'
p487
S'played'
p488
S'[[adj]]'
p489
tp490
F0.004329004329004329
s(S'[[det]]'
p491
S'use'
p492
S'[[con]]'
p493
tp494
F0.004329004329004329
s(S'where'
p495
S'studied'
p496
S'under'
p497
tp498
F0.004329004329004329
s(S'then'
p499
S'recorded'
p500
S'with'
p501
tp502
F0.004329004329004329
s(S'[[con]]'
p503
S'used'
p504
S'[[det]]'
p505
tp506
F0.004329004329004329
s(S'also'
p507
S'designed'
p508
S'for'
p509
tp510
F0.004329004329004329
s(S'has'
p511
S'recorded'
p512
S'as'
p513
tp514
F0.004329004329004329
s(S'later'
p515
S'play'
p516
S'in'
p517
tp518
F0.004329004329004329
s(S'to'
p519
S'play'
p520
S'[[det]]'
p521
tp522
F0.004329004329004329
s(S'made'
p523
S'use'
p524
S'of'
p525
tp526
F0.004329004329004329
s(S'was'
p527
S'endorsed'
p528
S'by'
p529
tp530
F0.004329004329004329
s(S'to'
p531
S'use'
p532
S'[[con]]'
p533
tp534
F0.004329004329004329
s(S'[[pro]]'
p535
S'played'
p536
S'[[det]]'
p537
tp538
F0.004329004329004329
s(S'[[con]]'
p539
S'designed'
p540
S'[[det]]'
p541
tp542
F0.004329004329004329
s(S'also'
p543
S'plays'
p544
S'[[det]]'
p545
tp546
F0.004329004329004329
s(S'[[adj]]'
p547
S'use'
p548
S'[[con]]'
p549
tp550
F0.004329004329004329
s(S'also'
p551
S'played'
p552
S'together'
p553
tp554
F0.004329004329004329
s(S'had'
p555
S'studied'
p556
S'under'
p557
tp558
F0.004329004329004329
s(S'have'
p559
S'played'
p560
S'along'
p561
tp562
F0.004329004329004329
s(S'has'
p563
S'studied'
p564
S'[[con]]'
p565
tp566
F0.004329004329004329
s(g113
S'use'
p567
S'of'
p568
tp569
F0.004329004329004329
s(S'has'
p570
S'released'
p571
S'[[num]]'
p572
tp573
F0.004329004329004329
s(S'also'
p574
S'played'
p575
g113
tp576
F0.004329004329004329
s(S'also'
p577
S'recorded'
p578
S'[[num]]'
p579
tp580
F0.004329004329004329
s(S'also'
p581
S'recorded'
p582
S'[[pro]]'
p583
tp584
F0.004329004329004329
s(S'also'
p585
S'released'
p586
S'[[num]]'
p587
tp588
F0.004329004329004329
s(S'with'
p589
S'played'
p590
S'by'
p591
tp592
F0.004329004329004329
s(S'[[con]]'
p593
S'played'
p594
S'in'
p595
tp596
F0.004329004329004329
s(S'have'
p597
S'played'
p598
S'[[adj]]'
p599
tp600
F0.004329004329004329
s(S'has'
p601
S'studied'
p602
S'with'
p603
tp604
F0.004329004329004329
s(S'also'
p605
S'played'
p606
S'on'
p607
tp608
F0.004329004329004329
s(S'later'
p609
S'recorded'
p610
S'with'
p611
tp612
F0.004329004329004329
s(S'had'
p613
S'played'
p614
S'in'
p615
tp616
F0.004329004329004329
s(S'[[det]]'
p617
S'use'
p618
S'of'
p619
tp620
F0.004329004329004329
s(S'has'
p621
S'designed'
p622
S'[[adj]]'
p623
tp624
F0.004329004329004329
s(S'[[con]]'
p625
S'played'
p626
S'at'
p627
tp628
F0.004329004329004329
s(S'where'
p629
S'played'
p630
S'[[con]]'
p631
tp632
F0.004329004329004329
s(S'had'
p633
S'studied'
p634
S'with'
p635
tp636
F0.004329004329004329
s(S'never'
p637
S'played'
p638
S'[[det]]'
p639
tp640
F0.004329004329004329
s(S'has'
p641
S'recorded'
p642
S'with'
p643
tp644
F0.004329004329004329
s(S'mainly'
p645
S'used'
p646
S'to'
p647
tp648
F0.004329004329004329
s(S'been'
p649
S'using'
p650
S'[[det]]'
p651
tp652
F0.004329004329004329
s(S'were'
p653
S'recorded'
p654
S'by'
p655
tp656
F0.004329004329004329
s(S'[[con]]'
p657
S'played'
p658
S'[[det]]'
p659
tp660
F0.008658008658008658
s(S'has'
p661
S'played'
p662
S'from'
p663
tp664
F0.004329004329004329
s(S'then'
p665
S'played'
p666
S'at'
p667
tp668
F0.004329004329004329
s(S'then'
p669
S'studied'
p670
S'with'
p671
tp672
F0.004329004329004329
s(S'also'
p673
S'designed'
p674
S'[[con]]'
p675
tp676
F0.004329004329004329
s(S'has'
p677
S'played'
p678
S'with'
p679
tp680
F0.004329004329004329
s(S'[[det]]'
p681
S'play'
p682
S'at'
p683
tp684
F0.004329004329004329
s(S'has'
p685
S'recorded'
p686
S'[[adj]]'
p687
tp688
F0.004329004329004329
s(S'also'
p689
S'played'
p690
S'during'
p691
tp692
F0.004329004329004329
s(S'[[con]]'
p693
S'studied'
p694
S'under'
p695
tp696
F0.004329004329004329
s(S'have'
p697
S'studied'
p698
S'under'
p699
tp700
F0.004329004329004329
s(S'again'
p701
S'played'
p702
S'in'
p703
tp704
F0.004329004329004329
s(S'had'
p705
S'recorded'
p706
S'with'
p707
tp708
F0.004329004329004329
s(S'first'
p709
S'studied'
p710
S'under'
p711
tp712
F0.004329004329004329
s(S'has'
p713
S'recorded'
p714
S'[[det]]'
p715
tp716
F0.004329004329004329
s(S'had'
p717
S'used'
p718
S'to'
p719
tp720
F0.004329004329004329
s(S'had'
p721
S'played'
p722
S'[[det]]'
p723
tp724
F0.004329004329004329
s(S'[[det]]'
p725
S'played'
p726
S'in'
p727
tp728
F0.004329004329004329
s(S'[[adj]]'
p729
S'played'
p730
S'in'
p731
tp732
F0.004329004329004329
s(S'have'
p733
S'played'
p734
S'with'
p735
tp736
F0.004329004329004329
s(S'also'
p737
S'played'
p738
S'[[det]]'
p739
tp740
F0.004329004329004329
s(S'had'
p741
S'played'
p742
S'[[adj]]'
p743
tp744
F0.004329004329004329
s(S'had'
p745
S'studied'
p746
S'[[adj]]'
p747
tp748
F0.004329004329004329
s(S'was'
p749
S'recorded'
p750
S'as'
p751
tp752
F0.004329004329004329
s(S'also'
p753
S'played'
p754
S'before'
p755
tp756
F0.004329004329004329
s(S'also'
p757
S'played'
p758
S'[[adj]]'
p759
tp760
F0.004329004329004329
s(S'[[adj]]'
p761
S'like'
p762
S'[[det]]'
p763
tp764
F0.004329004329004329
s(S'continue'
p765
S'designing'
p766
S'[[det]]'
p767
tp768
F0.004329004329004329
s(S'[[adj]]'
p769
S'play'
p770
S'at'
p771
tp772
F0.004329004329004329
s(S'often'
p773
S'played'
p774
S'with'
p775
tp776
F0.004329004329004329
s(S'[[con]]'
p777
S'played'
p778
S'by'
p779
tp780
F0.004329004329004329
s(S'were'
p781
S'played'
p782
S'by'
p783
tp784
F0.004329004329004329
s(S'had'
p785
S'played'
p786
S'by'
p787
tp788
F0.004329004329004329
s(S'to'
p789
S'use'
p790
S'for'
p791
tp792
F0.004329004329004329
s(S'[[det]]'
p793
S'play'
p794
S'on'
p795
tp796
F0.004329004329004329
s(S'to'
p797
S'use'
p798
S'[[pro]]'
p799
tp800
F0.004329004329004329
s(S'have'
p801
S'played'
p802
S'in'
p803
tp804
F0.004329004329004329
s(S'to'
p805
S'play'
p806
S'at'
p807
tp808
F0.004329004329004329
s(S'also'
p809
S'uses'
p810
S'[[det]]'
p811
tp812
F0.004329004329004329
s(S'be'
p813
S'playing'
p814
S'at'
p815
tp816
F0.004329004329004329
s(S'is'
p817
S'playing'
p818
S'with'
p819
tp820
F0.004329004329004329
s(S'to'
p821
S'use'
p822
S'to'
p823
tp824
F0.004329004329004329
s(S'also'
p825
S'recorded'
p826
S'in'
p827
tp828
F0.004329004329004329
s(S'[[adj]]'
p829
S'play'
p830
S'for'
p831
tp832
F0.004329004329004329
s(S'not'
p833
S'played'
p834
S'in'
p835
tp836
F0.004329004329004329
s(S'have'
p837
S'used'
p838
S'[[det]]'
p839
tp840
F0.004329004329004329
s(g113
S'play'
p841
S'[[det]]'
p842
tp843
F0.004329004329004329
s(S'who'
p844
S'studied'
p845
S'with'
p846
tp847
F0.004329004329004329
s(S'has'
p848
S'played'
p849
S'on'
p850
tp851
F0.004329004329004329
s(S'who'
p852
S'played'
p853
S'on'
p854
tp855
F0.004329004329004329
s(g206
g207
S'playing'
p856
tp857
F0.004329004329004329
s(S'then'
p858
S'played'
p859
S'[[det]]'
p860
tp861
F0.004329004329004329
s(S'[[mod]]'
p862
S'use'
p863
S'as'
p864
tp865
F0.004329004329004329
s(S'then'
p866
S'played'
p867
S'as'
p868
tp869
F0.004329004329004329
s(S'[[mod]]'
p870
g765
g766
tp871
F0.004329004329004329
s(S'has'
p872
S'played'
p873
S'at'
p874
tp875
F0.004329004329004329
s(S'also'
p876
S'played'
p877
S'by'
p878
tp879
F0.004329004329004329
s(S'also'
p880
S'studied'
p881
S'as'
p882
tp883
F0.004329004329004329
s(S'[[pro]]'
p884
S'use'
p885
S'of'
p886
tp887
F0.004329004329004329
s(S'have'
p888
S'played'
p889
S'[[det]]'
p890
tp891
F0.004329004329004329
s(S'have'
p892
S'played'
p893
S'[[num]]'
p894
tp895
F0.004329004329004329
s(S'also'
p896
S'released'
p897
S'[[det]]'
p898
tp899
F0.004329004329004329
s(S'where'
p900
S'studied'
p901
S'with'
p902
tp903
F0.004329004329004329
s(S'also'
p904
S'studied'
p905
S'under'
p906
tp907
F0.004329004329004329
s.