(dp0
(S'[[det]]'
p1
S'states'
p2
S'as'
p3
tp4
F0.006369426751592357
s(S'now'
p5
S'located'
p6
S'in'
p7
tp8
F0.006369426751592357
s(S'[[det]]'
p9
S'city'
p10
S'of'
p11
tp12
F0.012738853503184714
s(S'[[det]]'
p13
S'area'
p14
S'within'
p15
tp16
F0.006369426751592357
s(S'became'
p17
S'[[adj]]'
p18
S'producer'
p19
tp20
F0.006369426751592357
s(S'now'
p21
S'located'
p22
S'at'
p23
tp24
F0.006369426751592357
s(S'alternative'
p25
S'[[adj]]'
p26
S'school'
p27
tp28
F0.006369426751592357
s(S'is'
p29
S'located'
p30
S'[[det]]'
p31
tp32
F0.006369426751592357
s(S'[[det]]'
p33
S'largest'
p34
S'[[con]]'
p35
tp36
F0.006369426751592357
s(S'[[det]]'
p37
S'largest'
p38
S'city'
p39
tp40
F0.025477707006369428
s(S'related'
p41
S'to'
p42
g9
tp43
F0.006369426751592357
s(S'[[det]]'
p44
S'capital'
p45
S'of'
p46
tp47
F0.012738853503184714
s(S'[[det]]'
p48
S'[[adj]]'
p49
S'miles'
p50
tp51
F0.012738853503184714
s(S'[[det]]'
p52
S'capital'
p53
S'in'
p54
tp55
F0.006369426751592357
s(S'had'
p56
S'added'
p57
g48
tp58
F0.012738853503184714
s(g50
S'including'
p59
S'what'
p60
tp61
F0.012738853503184714
s(S'contained'
p62
S'[[num]]'
p63
S'states'
p64
tp65
F0.006369426751592357
s(S'[[adj]]'
p66
S'cities'
p67
S'of'
p68
tp69
F0.006369426751592357
s(S'[[adj]]'
p70
S'capital'
p71
S'[[con]]'
p72
tp73
F0.006369426751592357
s(S'[[det]]'
p74
S'area'
p75
S'in'
p76
tp77
F0.006369426751592357
s(S'[[det]]'
p78
S'state'
p79
S'of'
p80
tp81
F0.03184713375796178
s(g42
g9
g10
tp82
F0.006369426751592357
s(g57
g48
g49
tp83
F0.012738853503184714
s(S'[[det]]'
p84
S'municipality'
p85
S'located'
p86
tp87
F0.006369426751592357
s(S'[[adj]]'
p88
S'located'
p89
S'at'
p90
tp91
F0.006369426751592357
s(S'town'
p92
S'[[con]]'
p93
S'municipality'
p94
tp95
F0.006369426751592357
s(S'village'
p96
S'on'
p97
S'[[det]]'
p98
tp99
F0.006369426751592357
s(S'known'
p100
S'[[det]]'
p101
S'frontier'
p102
tp103
F0.006369426751592357
s(S'[[adj]]'
p104
S'located'
p105
S'in'
p106
tp107
F0.006369426751592357
s(S'currently'
p108
S'located'
p109
S'in'
p110
tp111
F0.006369426751592357
s(g59
g60
S'today'
p112
tp113
F0.012738853503184714
s(S'[[det]]'
p114
S'city'
p115
S'in'
p116
tp117
F0.006369426751592357
s(S'is'
p118
S'typically'
p119
S'[[adj]]'
p120
tp121
F0.006369426751592357
s(S'in'
p122
S'[[det]]'
p123
S'area'
p124
tp125
F0.006369426751592357
s(S'under'
p126
S'[[adj]]'
p127
S'laws'
p128
tp129
F0.012738853503184714
s(S'[[det]]'
p130
S'capital'
p131
S'[[det]]'
p132
tp133
F0.006369426751592357
s(S'was'
p134
S'located'
p135
S'in'
p136
tp137
F0.006369426751592357
s(S'village'
p138
S'development'
p139
S'committee'
p140
tp141
F0.006369426751592357
s(S'[[adj]]'
p142
S'area'
p143
S'of'
p144
tp145
F0.006369426751592357
s(S'number'
p146
S'[[det]]'
p147
S'rest'
p148
tp149
F0.006369426751592357
s(S'[[adj]]'
p150
S'article'
p151
S'is'
p152
tp153
F0.006369426751592357
s(S'was'
p154
S'incorporated'
p155
g126
tp156
F0.012738853503184714
s(S'[[det]]'
p157
g146
g147
tp158
F0.006369426751592357
s(S's'
p159
S'located'
p160
S'near'
p161
tp162
F0.006369426751592357
s(S'[[adj]]'
p163
S'business'
p164
S'district'
p165
tp166
F0.006369426751592357
s(g38
g39
S'of'
p167
tp168
F0.012738853503184714
s(S'[[det]]'
p169
S'neighborhood'
p170
S'in'
p171
tp172
F0.012738853503184714
s(S'also'
p173
S'located'
p174
S'in'
p175
tp176
F0.006369426751592357
s(S'[[det]]'
p177
S'location'
p178
S'[[det]]'
p179
tp180
F0.006369426751592357
s(S'[[det]]'
p181
g96
g97
tp182
F0.006369426751592357
s(S'[[det]]'
p183
S'neighborhood'
p184
S'of'
p185
tp186
F0.006369426751592357
s(S'[[adj]]'
p187
S'neighborhood'
p188
S'in'
p189
tp190
F0.006369426751592357
s(S'[[det]]'
p191
S'suburb'
p192
S'on'
p193
tp194
F0.006369426751592357
s(g147
g148
S'to'
p195
tp196
F0.006369426751592357
s(S'quickly'
p197
g17
g18
tp198
F0.006369426751592357
s(S'[[num]]'
p199
S'cities'
p200
S'in'
p201
tp202
F0.006369426751592357
s(g2
g3
S'portions'
p203
tp204
F0.006369426751592357
s(g179
S'headquarters'
p205
S'of'
p206
tp207
F0.006369426751592357
s(g178
g179
g205
tp208
F0.006369426751592357
s(S'was'
p209
S'located'
p210
S'[[adj]]'
p211
tp212
F0.006369426751592357
s(S'largest'
p213
S'city'
p214
S'on'
p215
tp216
F0.006369426751592357
s(S'[[adj]]'
p217
S'election'
p218
S'in'
p219
tp220
F0.006369426751592357
s(S'[[adj]]'
p221
S'area'
p222
S'in'
p223
tp224
F0.006369426751592357
s(S'[[det]]'
p225
g25
g26
tp226
F0.006369426751592357
s(g63
g64
S'[[con]]'
p227
tp228
F0.006369426751592357
s(g35
S'[[adj]]'
p229
S'city'
p230
tp231
F0.006369426751592357
s(g93
g94
S'in'
p232
tp233
F0.006369426751592357
s(S'is'
p234
S'located'
p235
S'of'
p236
tp237
F0.006369426751592357
s(S'in'
p238
S'[[adj]]'
p239
S'community'
p240
tp241
F0.006369426751592357
s(S'[[num]]'
p242
S'located'
p243
S'in'
p244
tp245
F0.006369426751592357
s(S'city'
p246
S'[[con]]'
p247
S'[[det]]'
p248
tp249
F0.006369426751592357
s(S'[[det]]'
p250
S'district'
p251
S'[[det]]'
p252
tp253
F0.012738853503184714
s(S'[[det]]'
p254
S'capital'
p255
S'[[con]]'
p256
tp257
F0.006369426751592357
s(S'[[adj]]'
p258
S'district'
p259
S'of'
p260
tp261
F0.006369426751592357
s(g94
g232
S'[[det]]'
p262
tp263
F0.006369426751592357
s(g86
g238
g239
tp264
F0.006369426751592357
s(g247
g248
S'state'
p265
tp266
F0.006369426751592357
s(S'neighborhood'
p267
g122
g123
tp268
F0.006369426751592357
s(g239
g240
S'of'
p269
tp270
F0.006369426751592357
s(g123
g124
S'of'
p271
tp272
F0.006369426751592357
s(g85
g86
g238
tp273
F0.006369426751592357
s(g251
g252
S'capital'
p274
tp275
F0.006369426751592357
s(S'[[adj]]'
p276
S'cities'
p277
S'in'
p278
tp279
F0.006369426751592357
s(S'[[adj]]'
p280
S'suburb'
p281
S'in'
p282
tp283
F0.006369426751592357
s(S'[[adj]]'
p284
S'district'
p285
S'in'
p286
tp287
F0.006369426751592357
s(g229
g230
S'in'
p288
tp289
F0.012738853503184714
s(S'district'
p290
S'[[det]]'
p291
S'city'
p292
tp293
F0.006369426751592357
s(S'[[det]]'
p294
S'states'
p295
S'of'
p296
tp297
F0.006369426751592357
s(g49
g50
g59
tp298
F0.012738853503184714
s(S'been'
p299
S'located'
p300
S'in'
p301
tp302
F0.006369426751592357
s(g139
g140
S'in'
p303
tp304
F0.006369426751592357
s(g227
S'[[adj]]'
p305
S'territories'
p306
tp307
F0.006369426751592357
s(g116
g78
g79
tp308
F0.025477707006369428
s(S'[[det]]'
p309
S'district'
p310
S'[[con]]'
p311
tp312
F0.006369426751592357
s(S'was'
p313
S'located'
p314
S'just'
p315
tp316
F0.006369426751592357
s(S'is'
p317
S'located'
p318
S'in'
p319
tp320
F0.006369426751592357
s(g98
S'island'
p321
S'of'
p322
tp323
F0.006369426751592357
s(S'[[adj]]'
p324
S'capital'
p325
S'of'
p326
tp327
F0.006369426751592357
s(g155
g126
g127
tp328
F0.012738853503184714
s(g60
g112
g1
tp329
F0.012738853503184714
s(S'[[det]]'
p330
S'located'
p331
S'in'
p332
tp333
F0.006369426751592357
s(g3
g203
S'of'
p334
tp335
F0.006369426751592357
s(S'[[det]]'
p336
S'county'
p337
S'in'
p338
tp339
F0.006369426751592357
s(S'[[det]]'
p340
g138
g139
tp341
F0.006369426751592357
s(g119
g120
S'states'
p342
tp343
F0.006369426751592357
s(g164
g165
S'of'
p344
tp345
F0.006369426751592357
s(S'[[adj]]'
p346
g100
g101
tp347
F0.006369426751592357
s(g112
g1
g2
tp348
F0.012738853503184714
s(g34
g35
g229
tp349
F0.006369426751592357
s(g26
g27
S'in'
p350
tp351
F0.006369426751592357
s(g97
g98
g321
tp352
F0.006369426751592357
s(S'[[det]]'
p353
g246
g247
tp354
F0.006369426751592357
s(S'[[det]]'
p355
S'district'
p356
S'of'
p357
tp358
F0.006369426751592357
s(g64
g227
g305
tp359
F0.006369426751592357
s(S'largest'
p360
S'city'
p361
S'in'
p362
tp363
F0.025477707006369428
s(g115
g116
g78
tp364
F0.01910828025477707
s(S'[[det]]'
p365
S'county'
p366
S'of'
p367
tp368
F0.006369426751592357
s(S'[[adj]]'
p369
S'largest'
p370
S'city'
p371
tp372
F0.012738853503184714
s(S'[[det]]'
p373
g92
g93
tp374
F0.006369426751592357
s(S'formerly'
p375
S'located'
p376
S'in'
p377
tp378
F0.006369426751592357
s(g159
S'located'
p379
S'in'
p380
tp381
F0.006369426751592357
s(S'[[con]]'
p382
S'located'
p383
S'in'
p384
tp385
F0.006369426751592357
s(g18
g19
S'with'
p386
tp387
F0.006369426751592357
s(g127
g128
S'of'
p388
tp389
F0.006369426751592357
s.