(dp0
(S'also'
p1
S'appointed'
p2
S'in'
p3
tp4
F0.0004697040864255519
s(S'[[mod]]'
p5
S'play'
p6
S'with'
p7
tp8
F0.0004697040864255519
s(S'is'
p9
S'claimed'
p10
S'that'
p11
tp12
F0.0004697040864255519
s(S'when'
p13
S'served'
p14
S'with'
p15
tp16
F0.0004697040864255519
s(S'was'
p17
S'professor'
p18
S'for'
p19
tp20
F0.0004697040864255519
s(S'[[con]]'
p21
S'worked'
p22
S'later'
p23
tp24
F0.0004697040864255519
s(S'to'
p25
S'play'
p26
S'when'
p27
tp28
F0.0004697040864255519
s(S'also'
p29
S'known'
p30
S'as'
p31
tp32
F0.0004697040864255519
s(S'was'
p33
S'owner'
p34
S'of'
p35
tp36
F0.0004697040864255519
s(S'[[det]]'
p37
S'member'
p38
S'at'
p39
tp40
F0.0004697040864255519
s(S'later'
p41
S'worked'
p42
S'to'
p43
tp44
F0.0004697040864255519
s(S'[[num]]'
p45
S'working'
p46
S'first'
p47
tp48
F0.0004697040864255519
s(S'also'
p49
S'known'
p50
S'with'
p51
tp52
F0.0004697040864255519
s(S'that'
p53
S'worked'
p54
S'with'
p55
tp56
F0.0004697040864255519
s(S'later'
p57
S'join'
p58
S'[[det]]'
p59
tp60
F0.0004697040864255519
s(S'[[con]]'
p61
S'served'
p62
S'[[num]]'
p63
tp64
F0.0004697040864255519
s(S'was'
p65
S'introduced'
p66
S'to'
p67
tp68
F0.0004697040864255519
s(S'been'
p69
S'introduced'
p70
S'to'
p71
tp72
F0.0004697040864255519
s(S'[[num]]'
p73
S'years'
p74
S'of'
p75
tp76
F0.0004697040864255519
s(S'where'
p77
S'worked'
p78
S'for'
p79
tp80
F0.0004697040864255519
s(S'also'
p81
S'involved'
p82
S'by'
p83
tp84
F0.0004697040864255519
s(S'been'
p85
S'appointed'
p86
S'by'
p87
tp88
F0.0004697040864255519
s(S'mainly'
p89
S'known'
p90
S'as'
p91
tp92
F0.0004697040864255519
s(S'is'
p93
S'known'
p94
S'only'
p95
tp96
F0.0004697040864255519
s(S'[[num]]'
p97
S'years'
p98
S'with'
p99
tp100
F0.0004697040864255519
s(S'also'
p101
S'worked'
p102
S'[[adj]]'
p103
tp104
F0.0004697040864255519
s(S'was'
p105
S'member'
p106
S'for'
p107
tp108
F0.0004697040864255519
s(S'ref'
p109
S'name'
p110
S'lt'
p111
tp112
F0.0004697040864255519
s(S'serve'
p113
S'as'
p114
S'[[det]]'
p115
tp116
F0.0004697040864255519
s(S'is'
p117
S'arrested'
p118
S'for'
p119
tp120
F0.0004697040864255519
s(S'was'
p121
S'founder'
p122
S'of'
p123
tp124
F0.0004697040864255519
s(S'[[det]]'
p125
S'officer'
p126
S'[[con]]'
p127
tp128
F0.0004697040864255519
s(S'then'
p129
S'joined'
p130
S'to'
p131
tp132
F0.0004697040864255519
s(S'ref'
p133
S'gt'
p134
S'is'
p135
tp136
F0.0014091122592766556
s(S'also'
p137
S'appointed'
p138
S'[[con]]'
p139
tp140
F0.0004697040864255519
s(S'[[adj]]'
p141
S'owner'
p142
S'of'
p143
tp144
F0.0004697040864255519
s(S'had'
p145
S'joined'
p146
S'from'
p147
tp148
F0.0004697040864255519
s(S'became'
p149
S'director'
p150
S'of'
p151
tp152
F0.0004697040864255519
s(S'currently'
p153
S'professor'
p154
S'at'
p155
tp156
F0.0004697040864255519
s(S'[[det]]'
p157
S'editor'
p158
S'of'
p159
tp160
F0.0004697040864255519
s(S'[[det]]'
p161
S'professor'
p162
S'[[con]]'
p163
tp164
F0.0004697040864255519
s(S'became'
p165
S'head'
p166
S'at'
p167
tp168
F0.0004697040864255519
s(S'was'
p169
S'editor'
p170
S'[[con]]'
p171
tp172
F0.0004697040864255519
s(S's'
p173
S'working'
p174
S'with'
p175
tp176
F0.0004697040864255519
s(S'on'
p177
S'lt'
p178
S'ref'
p179
tp180
F0.0004697040864255519
s(S'then'
p181
S'joined'
p182
S'side'
p183
tp184
F0.0004697040864255519
s(S'then'
p185
S'founded'
p186
S'[[det]]'
p187
tp188
F0.0004697040864255519
s(S'be'
p189
S'working'
p190
S'with'
p191
tp192
F0.0004697040864255519
s(S'when'
p193
S'joined'
p194
S'[[det]]'
p195
tp196
F0.0004697040864255519
s(S'[[con]]'
p197
S'founder'
p198
S'of'
p199
tp200
F0.0004697040864255519
s(S'again'
p201
S'named'
p202
S'as'
p203
tp204
F0.0004697040864255519
s(S'so'
p205
S'returned'
p206
S'to'
p207
tp208
F0.0004697040864255519
s(g173
S'film'
p209
S'of'
p210
tp211
F0.0004697040864255519
s(S'was'
p212
S'known'
p213
S'with'
p214
tp215
F0.0004697040864255519
s(S'currently'
p216
S'working'
p217
S'with'
p218
tp219
F0.0004697040864255519
s(S'[[det]]'
p220
S'member'
p221
S'to'
p222
tp223
F0.0004697040864255519
s(S'became'
p224
S'involved'
p225
S'[[con]]'
p226
tp227
F0.0004697040864255519
s(S'[[adj]]'
p228
S'host'
p229
S'for'
p230
tp231
F0.0004697040864255519
s(S'ref'
p232
S'gt'
p233
S'attended'
p234
tp235
F0.0004697040864255519
s(S'also'
p236
S'appointed'
p237
S'on'
p238
tp239
F0.0004697040864255519
s(S'[[adj]]'
p240
S'awarded'
p241
S'by'
p242
tp243
F0.0004697040864255519
s(S'also'
p244
S'established'
p245
S'[[con]]'
p246
tp247
F0.0004697040864255519
s(S'hit'
p248
S'lt'
p249
S'ref'
p250
tp251
F0.0004697040864255519
s(S'was'
p252
S'awarded'
p253
S'[[prp]]'
p254
tp255
F0.0004697040864255519
s(S'to'
p256
S'play'
p257
S'for'
p258
tp259
F0.0004697040864255519
s(S'[[det]]'
p260
S'director'
p261
S'on'
p262
tp263
F0.0004697040864255519
s(S'[[con]]'
p264
S'served'
p265
S'when'
p266
tp267
F0.0004697040864255519
s(S'as'
p268
S'professor'
p269
S'in'
p270
tp271
F0.0004697040864255519
s(S'[[num]]'
p272
S'[[adj]]'
p273
S'ref'
p274
tp275
F0.004227336777829967
s(S'been'
p276
S'named'
p277
S'at'
p278
tp279
F0.0004697040864255519
s(S'[[det]]'
p280
S'professor'
p281
S'at'
p282
tp283
F0.0004697040864255519
s(S'[[adj]]'
p284
S'appeared'
p285
S'[[num]]'
p286
tp287
F0.0004697040864255519
s(S'gt'
p288
S'list'
p289
S'[[con]]'
p290
tp291
F0.0004697040864255519
s(S'[[det]]'
p292
S'professor'
p293
S'[[det]]'
p294
tp295
F0.0004697040864255519
s(S'[[det]]'
p296
S'chairman'
p297
S'for'
p298
tp299
F0.0004697040864255519
s(S'also'
p300
S'met'
p301
S'[[prp]]'
p302
tp303
F0.0004697040864255519
s(S'later'
p304
S'appointed'
p305
S'at'
p306
tp307
F0.0004697040864255519
s(S'has'
p308
S'served'
p309
S'to'
p310
tp311
F0.0004697040864255519
s(S'then'
p312
S'appointed'
p313
S'[[det]]'
p314
tp315
F0.0004697040864255519
s(S'[[adj]]'
p316
S'member'
p317
S'as'
p318
tp319
F0.0004697040864255519
s(S'[[adj]]'
p320
S'member'
p321
S'from'
p322
tp323
F0.0004697040864255519
s(S'[[det]]'
p324
S'known'
p325
S'as'
p326
tp327
F0.0004697040864255519
s(S'never'
p328
S'appeared'
p329
S'in'
p330
tp331
F0.0004697040864255519
s(S'had'
p332
S'joined'
p333
S'[[det]]'
p334
tp335
F0.0004697040864255519
s(S'to'
p336
S'head'
p337
S'[[det]]'
p338
tp339
F0.0004697040864255519
s(S'[[det]]'
p340
S'professor'
p341
S'in'
p342
tp343
F0.0004697040864255519
s(S'also'
p344
S'met'
p345
S'[[adj]]'
p346
tp347
F0.0004697040864255519
s(S'also'
p348
S'worked'
p349
S'under'
p350
tp351
F0.0004697040864255519
s(S'best'
p352
S'known'
p353
S'to'
p354
tp355
F0.0004697040864255519
s(S'worked'
p356
S'as'
p357
S'[[det]]'
p358
tp359
F0.0004697040864255519
s(S'was'
p360
S'known'
p361
S'at'
p362
tp363
F0.0004697040864255519
s(S'when'
p364
S'died'
p365
S'at'
p366
tp367
F0.0004697040864255519
s(g173
S'book'
p368
S'at'
p369
tp370
F0.0004697040864255519
s(S'who'
p371
S'play'
p372
S'in'
p373
tp374
F0.0004697040864255519
s(S'was'
p375
S'recalled'
p376
S'[[con]]'
p377
tp378
F0.0004697040864255519
s(S'also'
p379
S'appeared'
p380
S'[[con]]'
p381
tp382
F0.0004697040864255519
s(S'wrote'
p383
S'lt'
p384
S'ref'
p385
tp386
F0.0004697040864255519
s(S'[[adj]]'
p387
S'book'
p388
S'[[det]]'
p389
tp390
F0.0004697040864255519
s(S'now'
p391
S'known'
p392
S'as'
p393
tp394
F0.0004697040864255519
s(S'election'
p395
S'[[num]]'
p396
S'lt'
p397
tp398
F0.0004697040864255519
s(g173
S'book'
p399
S'[[det]]'
p400
tp401
F0.0004697040864255519
s(S'ref'
p402
S'gt'
p403
S'has'
p404
tp405
F0.0004697040864255519
s(S'later'
p406
S'joined'
p407
S'[[con]]'
p408
tp409
F0.0004697040864255519
s(S'name'
p410
S'gt'
p411
S'[[adj]]'
p412
tp413
F0.0004697040864255519
s(S'served'
p414
S'as'
p415
S'[[con]]'
p416
tp417
F0.0004697040864255519
s(S'has'
p418
S'appeared'
p419
S'twice'
p420
tp421
F0.0004697040864255519
s(S'[[adj]]'
p422
S'member'
p423
S'during'
p424
tp425
F0.0004697040864255519
s(S'[[det]]'
p426
S'professor'
p427
S'for'
p428
tp429
F0.0004697040864255519
s(S'was'
p430
S'awarded'
p431
S'from'
p432
tp433
F0.0004697040864255519
s(S'[[det]]'
p434
S'member'
p435
S'from'
p436
tp437
F0.0004697040864255519
s(S'became'
p438
S'known'
p439
S'[[con]]'
p440
tp441
F0.0004697040864255519
s(S'not'
p442
S'known'
p443
S'to'
p444
tp445
F0.0004697040864255519
s(S'had'
p446
S'died'
p447
S'at'
p448
tp449
F0.0004697040864255519
s(S'mostly'
p450
S'known'
p451
S'for'
p452
tp453
F0.0004697040864255519
s(S'later'
p454
S'worked'
p455
S'under'
p456
tp457
F0.0004697040864255519
s(S'first'
p458
S'worked'
p459
S'for'
p460
tp461
F0.0004697040864255519
s(S'was'
p462
S'working'
p463
S'with'
p464
tp465
F0.0004697040864255519
s(S'also'
p466
S'named'
p467
S'in'
p468
tp469
F0.0004697040864255519
s(S'have'
p470
S'worked'
p471
S'as'
p472
tp473
F0.0004697040864255519
s(S'has'
p474
S'met'
p475
S'with'
p476
tp477
F0.0004697040864255519
s(S'gt'
p478
S'lt'
p479
S'ref'
p480
tp481
F0.013151714419915453
s(S'also'
p482
S'served'
p483
S'when'
p484
tp485
F0.0004697040864255519
s(S'have'
p486
S'served'
p487
S'in'
p488
tp489
F0.0004697040864255519
s(S'who'
p490
S'joined'
p491
S'[[det]]'
p492
tp493
F0.0004697040864255519
s(S'also'
p494
S'known'
p495
S'from'
p496
tp497
F0.0004697040864255519
s(S'ref'
p498
S'gt'
p499
S'along'
p500
tp501
F0.0004697040864255519
s(S'[[con]]'
p502
S'met'
p503
S'with'
p504
tp505
F0.0004697040864255519
s(S'became'
p506
S'head'
p507
S'[[det]]'
p508
tp509
F0.0004697040864255519
s(S'career'
p510
S'where'
p511
S'worked'
p512
tp513
F0.0004697040864255519
s(S'king'
p514
S'lt'
p515
S'ref'
p516
tp517
F0.0004697040864255519
s(S'become'
p518
S'director'
p519
S'of'
p520
tp521
F0.0004697040864255519
s(S'as'
p522
S'host'
p523
S'of'
p524
tp525
F0.0004697040864255519
s(S'became'
p526
S'director'
p527
S'at'
p528
tp529
F0.0004697040864255519
s(S'[[adj]]'
p530
S'veteran'
p531
S'[[num]]'
p532
tp533
F0.0004697040864255519
s(S'[[det]]'
p534
S'director'
p535
S'for'
p536
tp537
F0.0004697040864255519
s(S'have'
p538
S'known'
p539
S'among'
p540
tp541
F0.0004697040864255519
s(S'was'
p542
S'cofounder'
p543
S'of'
p544
tp545
F0.0004697040864255519
s(S'[[con]]'
p546
S'worked'
p547
S'at'
p548
tp549
F0.0004697040864255519
s(S'is'
p550
S'reported'
p551
S'in'
p552
tp553
F0.0004697040864255519
s(S'had'
p554
S'joined'
p555
S'side'
p556
tp557
F0.0004697040864255519
s(S'was'
p558
S'arrested'
p559
S'along'
p560
tp561
F0.0004697040864255519
s(S'[[det]]'
p562
S'host'
p563
S'of'
p564
tp565
F0.0004697040864255519
s(S'was'
p566
S'president'
p567
S'[[con]]'
p568
tp569
F0.0004697040864255519
s(S'has'
p570
S'created'
p571
S'[[det]]'
p572
tp573
F0.0004697040864255519
s(S'gt'
p574
S'[[con]]'
p575
S'joined'
p576
tp577
F0.0004697040864255519
s(S'where'
p578
S'worked'
p579
S'along'
p580
tp581
F0.0004697040864255519
s(S'is'
p582
S'head'
p583
S'at'
p584
tp585
F0.0004697040864255519
s(S'also'
p586
S'known'
p587
S'in'
p588
tp589
F0.0004697040864255519
s(S'where'
p590
S'served'
p591
S'with'
p592
tp593
F0.0004697040864255519
s(S'where'
p594
S'led'
p595
S'[[det]]'
p596
tp597
F0.0004697040864255519
s(S'also'
p598
S'play'
p599
S'with'
p600
tp601
F0.0004697040864255519
s(S'[[adj]]'
p602
S'play'
p603
S'against'
p604
tp605
F0.0004697040864255519
s(S'served'
p606
S'as'
p607
S'[[det]]'
p608
tp609
F0.0032879286049788633
s(S'was'
p610
S'head'
p611
S'at'
p612
tp613
F0.0004697040864255519
s(S'was'
p614
S'arrested'
p615
S'during'
p616
tp617
F0.0004697040864255519
s(S'while'
p618
S'working'
p619
S'with'
p620
tp621
F0.0004697040864255519
s(S'[[mod]]'
p622
S'play'
p623
S'in'
p624
tp625
F0.0004697040864255519
s(S'[[adj]]'
p626
S'book'
p627
S'from'
p628
tp629
F0.0004697040864255519
s(S'later'
p630
S'served'
p631
S'at'
p632
tp633
F0.0004697040864255519
s(S'soon'
p634
S'met'
p635
S'[[con]]'
p636
tp637
F0.0004697040864255519
s(S'been'
p638
S'awarded'
p639
S'[[con]]'
p640
tp641
F0.0004697040864255519
s(S'was'
p642
S'member'
p643
S'of'
p644
tp645
F0.0004697040864255519
s(S'[[det]]'
p646
S'member'
p647
g173
tp648
F0.0004697040864255519
s(S'[[con]]'
p649
S'followed'
p650
S'[[det]]'
p651
tp652
F0.0004697040864255519
s(S'then'
p653
S'worked'
p654
S'as'
p655
tp656
F0.0004697040864255519
s(S'has'
p657
S'served'
p658
S'before'
p659
tp660
F0.0004697040864255519
s(S'ref'
p661
S'gt'
p662
S'joined'
p663
tp664
F0.0014091122592766556
s(S'is'
p665
S'named'
p666
S'of'
p667
tp668
F0.0004697040864255519
s(S'was'
p669
S'head'
p670
S'[[det]]'
p671
tp672
F0.0004697040864255519
s(S'be'
p673
S'appointed'
p674
S'by'
p675
tp676
F0.0004697040864255519
s(S'has'
p677
S'worked'
p678
S'as'
p679
tp680
F0.0004697040864255519
s(S'often'
p681
S'known'
p682
S'as'
p683
tp684
F0.0004697040864255519
s(g173
S'film'
p685
S'for'
p686
tp687
F0.0004697040864255519
s(S'was'
p688
S'awarded'
p689
S'[[det]]'
p690
tp691
F0.0004697040864255519
s(S'again'
p692
S'served'
p693
S'to'
p694
tp695
F0.0004697040864255519
s(S'first'
p696
S'appeared'
p697
S'as'
p698
tp699
F0.0004697040864255519
s(S'later'
p700
S'joined'
p701
S'[[det]]'
p702
tp703
F0.0004697040864255519
s(S'better'
p704
S'known'
p705
S'[[det]]'
p706
tp707
F0.0004697040864255519
s(S'also'
p708
S'known'
p709
S'for'
p710
tp711
F0.0004697040864255519
s(S'[[adj]]'
p712
S'parish'
p713
S'lt'
p714
tp715
F0.0004697040864255519
s(S'served'
p716
S'as'
p717
S'officer'
p718
tp719
F0.0009394081728511038
s(S'mostly'
p720
S'known'
p721
S'as'
p722
tp723
F0.0004697040864255519
s(S'also'
p724
S'served'
p725
S'after'
p726
tp727
F0.0004697040864255519
s(S'was'
p728
S'known'
p729
S'after'
p730
tp731
F0.0004697040864255519
s(S'[[adj]]'
p732
S'history'
p733
S'for'
p734
tp735
F0.0004697040864255519
s(S'also'
p736
S'served'
p737
S'to'
p738
tp739
F0.0004697040864255519
s(S'[[num]]'
p740
S'served'
p741
S'on'
p742
tp743
F0.0004697040864255519
s(S'[[con]]'
p744
S'created'
p745
S'[[adj]]'
p746
tp747
F0.0004697040864255519
s(S'also'
p748
S'wrote'
p749
S'on'
p750
tp751
F0.0004697040864255519
s(S'has'
p752
S'appeared'
p753
S'on'
p754
tp755
F0.0004697040864255519
s(S'[[num]]'
p756
S'issue'
p757
S'page'
p758
tp759
F0.0004697040864255519
s(S'also'
p760
S'known'
p761
S'[[det]]'
p762
tp763
F0.0004697040864255519
s(S'was'
p764
S'joined'
p765
S'at'
p766
tp767
F0.0004697040864255519
s(S'[[det]]'
p768
S'director'
p769
S'[[con]]'
p770
tp771
F0.0004697040864255519
s(S'been'
p772
S'named'
p773
S'of'
p774
tp775
F0.0004697040864255519
s(S'[[adj]]'
p776
S'worked'
p777
S'at'
p778
tp779
F0.0004697040864255519
s(S'best'
p780
S'known'
p781
S'as'
p782
tp783
F0.0004697040864255519
s(S'[[con]]'
p784
S'worked'
p785
S'again'
p786
tp787
F0.0004697040864255519
s(S'been'
p788
S'named'
p789
S'to'
p790
tp791
F0.0004697040864255519
s(S'awarded'
p792
S'lt'
p793
S'ref'
p794
tp795
F0.0004697040864255519
s(S'again'
p796
S'named'
p797
S'in'
p798
tp799
F0.0004697040864255519
s(S'then'
p800
S'appointed'
p801
S'[[pro]]'
p802
tp803
F0.0004697040864255519
s(S'[[det]]'
p804
S'student'
p805
S'[[det]]'
p806
tp807
F0.0004697040864255519
s(S'well'
p808
S'known'
p809
S'throughout'
p810
tp811
F0.0004697040864255519
s(S'al'
p812
S'p'
p813
S'[[num]]'
p814
tp815
F0.0004697040864255519
s(S'best'
p816
S'known'
p817
S'where'
p818
tp819
F0.0004697040864255519
s(S'had'
p820
S'appointed'
p821
S'to'
p822
tp823
F0.0004697040864255519
s(S'[[det]]'
p824
S'professor'
p825
S'[[adj]]'
p826
tp827
F0.0004697040864255519
s(S'was'
p828
S'director'
p829
S'at'
p830
tp831
F0.0004697040864255519
s(S'[[adj]]'
p832
S'owner'
p833
S'[[con]]'
p834
tp835
F0.0004697040864255519
s(S'[[num]]'
p836
S'ref'
p837
S'gt'
p838
tp839
F0.01456082667919211
s(S'was'
p840
S'created'
p841
S'of'
p842
tp843
F0.0004697040864255519
s(S'[[det]]'
p844
S'host'
p845
S'show'
p846
tp847
F0.0004697040864255519
s(S'had'
p848
S'claimed'
p849
S'that'
p850
tp851
F0.0004697040864255519
s(S'also'
p852
S'named'
p853
S'to'
p854
tp855
F0.0004697040864255519
s(S'also'
p856
S'awarded'
p857
S'[[det]]'
p858
tp859
F0.0004697040864255519
s(S'was'
p860
S'known'
p861
S'as'
p862
tp863
F0.0004697040864255519
s(S'[[adj]]'
p864
S'known'
p865
S'as'
p866
tp867
F0.0004697040864255519
s(S'most'
p868
S'known'
p869
S'in'
p870
tp871
F0.0004697040864255519
s(S'was'
p872
S'involved'
p873
S'when'
p874
tp875
F0.0004697040864255519
s(S'was'
p876
S'awarded'
p877
S'of'
p878
tp879
F0.0004697040864255519
s(S'also'
p880
S'cofounder'
p881
S'of'
p882
tp883
F0.0004697040864255519
s(S'then'
p884
S'appointed'
p885
S'at'
p886
tp887
F0.0004697040864255519
s(S'also'
p888
S'founded'
p889
S'[[det]]'
p890
tp891
F0.0004697040864255519
s(S'ref'
p892
S'gt'
p893
S'moved'
p894
tp895
F0.0014091122592766556
s(S'[[con]]'
p896
S'head'
p897
S'of'
p898
tp899
F0.0004697040864255519
s(S'[[adj]]'
p900
S'film'
p901
S'[[adj]]'
p902
tp903
F0.0004697040864255519
s(S'also'
p904
S'started'
p905
S'in'
p906
tp907
F0.0004697040864255519
s(S'gt'
p908
S'[[adj]]'
p909
S'works'
p910
tp911
F0.0004697040864255519
s(S'had'
p912
S'worked'
p913
S'for'
p914
tp915
F0.0004697040864255519
s(S'later'
p916
S'awarded'
p917
S'from'
p918
tp919
F0.0004697040864255519
s(S'is'
p920
S'editor'
p921
S'of'
p922
tp923
F0.0004697040864255519
s(S'ref'
p924
S'gt'
p925
S'wrote'
p926
tp927
F0.0018788163457022077
s(S'also'
p928
S'worked'
p929
S'at'
p930
tp931
F0.0004697040864255519
s(S'is'
p932
S'known'
p933
S'in'
p934
tp935
F0.0004697040864255519
s(S'again'
p936
S'led'
p937
S'[[det]]'
p938
tp939
F0.0004697040864255519
s(S'childhood'
p940
S'friend'
p941
S'of'
p942
tp943
F0.0009394081728511038
s(S'since'
p944
S'worked'
p945
S'with'
p946
tp947
F0.0004697040864255519
s(S'[[num]]'
p948
S'book'
p949
S'[[det]]'
p950
tp951
F0.0004697040864255519
s(S'then'
p952
S'founded'
p953
S'for'
p954
tp955
F0.0004697040864255519
s(S'to'
p956
S'play'
p957
S'[[num]]'
p958
tp959
F0.0009394081728511038
s(S'to'
p960
S'play'
p961
S'again'
p962
tp963
F0.0004697040864255519
s(S'also'
p964
S'served'
p965
S'for'
p966
tp967
F0.0004697040864255519
s(S'then'
p968
S'joined'
p969
S'of'
p970
tp971
F0.0004697040864255519
s(S'was'
p972
S'named'
p973
S'of'
p974
tp975
F0.0004697040864255519
s(S'ref'
p976
S'name'
p977
S'[[num]]'
p978
tp979
F0.0023485204321277596
s(S'later'
p980
S'wrote'
p981
S'in'
p982
tp983
F0.0004697040864255519
s(S'been'
p984
S'named'
p985
S'in'
p986
tp987
F0.0004697040864255519
s(S'been'
p988
S'involved'
p989
S'by'
p990
tp991
F0.0004697040864255519
s(S'is'
p992
S'cofounder'
p993
S'[[con]]'
p994
tp995
F0.0004697040864255519
s(S'[[num]]'
p996
S'years'
p997
S'for'
p998
tp999
F0.0004697040864255519
s(S'[[adj]]'
p1000
S'productions'
p1001
S'that'
p1002
tp1003
F0.0004697040864255519
s(S'also'
p1004
S'met'
p1005
S'[[det]]'
p1006
tp1007
F0.0004697040864255519
s(S'been'
p1008
S'working'
p1009
S'with'
p1010
tp1011
F0.0004697040864255519
s(g532
S'lt'
p1012
S'ref'
p1013
tp1014
F0.012212306247064349
s(S'became'
p1015
S'known'
p1016
S'[[det]]'
p1017
tp1018
F0.0004697040864255519
s(S'also'
p1019
S'appeared'
p1020
S'of'
p1021
tp1022
F0.0004697040864255519
s(S'have'
p1023
S'worked'
p1024
S'under'
p1025
tp1026
F0.0004697040864255519
s(S'been'
p1027
S'involved'
p1028
S'[[con]]'
p1029
tp1030
F0.0004697040864255519
s(S'[[num]]'
p1031
S'appointed'
p1032
S'by'
p1033
tp1034
F0.0004697040864255519
s(S'ref'
p1035
S'gt'
p1036
S'given'
p1037
tp1038
F0.0004697040864255519
s(g173
S'film'
p1039
S'[[con]]'
p1040
tp1041
F0.0004697040864255519
s(S'ref'
p1042
S'gt'
p1043
S'also'
p1044
tp1045
F0.0004697040864255519
s(S'also'
p1046
S'started'
p1047
S'[[det]]'
p1048
tp1049
F0.0004697040864255519
s(S'is'
p1050
S'member'
p1051
S'[[det]]'
p1052
tp1053
F0.0004697040864255519
s(S'then'
p1054
S'joined'
p1055
S'then'
p1056
tp1057
F0.0004697040864255519
s(S'to'
p1058
S'play'
p1059
S'of'
p1060
tp1061
F0.0004697040864255519
s(S'also'
p1062
S'appeared'
p1063
S'before'
p1064
tp1065
F0.0004697040864255519
s(S'then'
p1066
S'appointed'
p1067
S'of'
p1068
tp1069
F0.0004697040864255519
s(S'also'
p1070
S'known'
p1071
S'[[num]]'
p1072
tp1073
F0.0004697040864255519
s(S'when'
p1074
S'led'
p1075
S'[[det]]'
p1076
tp1077
F0.0004697040864255519
s(S'then'
p1078
S'joined'
p1079
S'[[det]]'
p1080
tp1081
F0.0004697040864255519
s(S'was'
p1082
S'member'
p1083
S'[[num]]'
p1084
tp1085
F0.0004697040864255519
s(S'reports'
p1086
S'that'
p1087
S'lt'
p1088
tp1089
F0.0004697040864255519
s(S'[[adj]]'
p1090
S'book'
p1091
S'[[con]]'
p1092
tp1093
F0.0004697040864255519
s(S'[[con]]'
p1094
S'established'
p1095
S'[[det]]'
p1096
tp1097
F0.0004697040864255519
s(g173
S'childhood'
p1098
S'friend'
p1099
tp1100
F0.0004697040864255519
s(S'[[adj]]'
p1101
g940
g941
tp1102
F0.0004697040864255519
s(S'best'
p1103
S'known'
p1104
S'for'
p1105
tp1106
F0.0004697040864255519
s(S'studies'
p1107
S'in'
p1108
S'where'
p1109
tp1110
F0.0004697040864255519
s(S'was'
p1111
S'with'
p1112
S'include'
p1113
tp1114
F0.0004697040864255519
s(S'was'
p1115
S'involved'
p1116
S'by'
p1117
tp1118
F0.0004697040864255519
s(S'to'
p1119
S'establish'
p1120
S'[[pro]]'
p1121
tp1122
F0.0004697040864255519
s(S'had'
p1123
S'met'
p1124
S'[[con]]'
p1125
tp1126
F0.0004697040864255519
s(S'later'
p1127
S'wrote'
p1128
S'for'
p1129
tp1130
F0.0004697040864255519
s(S'was'
p1131
S'recalled'
p1132
S'by'
p1133
tp1134
F0.0004697040864255519
s(S'later'
p1135
S'recalled'
p1136
S'that'
p1137
tp1138
F0.0004697040864255519
s(S'[[con]]'
p1139
S'president'
p1140
S'of'
p1141
tp1142
F0.0004697040864255519
s(S'become'
p1143
S'director'
p1144
S'at'
p1145
tp1146
F0.0004697040864255519
s(S'[[det]]'
p1147
S'awarded'
p1148
S'by'
p1149
tp1150
F0.0004697040864255519
s(S'in'
p1151
S'working'
p1152
S'with'
p1153
tp1154
F0.0004697040864255519
s(S'accessed'
p1155
S'[[num]]'
p1156
S'ref'
p1157
tp1158
F0.0004697040864255519
s(S'lt'
p1159
S'gt'
p1160
S'while'
p1161
tp1162
F0.0004697040864255519
s(S'was'
p1163
S'joined'
p1164
S'on'
p1165
tp1166
F0.0004697040864255519
s(S'had'
p1167
S'met'
p1168
S'with'
p1169
tp1170
F0.0004697040864255519
s(S'ref'
p1171
S'gt'
p1172
S'of'
p1173
tp1174
F0.0009394081728511038
s(S'also'
p1175
S'met'
p1176
S'from'
p1177
tp1178
F0.0004697040864255519
s(S'also'
p1179
S'working'
p1180
S'with'
p1181
tp1182
F0.0004697040864255519
s(S'have'
p1183
S'worked'
p1184
S'with'
p1185
tp1186
F0.0004697040864255519
s(S'[[con]]'
p1187
S'joined'
p1188
S'at'
p1189
tp1190
F0.0004697040864255519
s(S'died'
p1191
S'at'
p1192
S'[[adj]]'
p1193
tp1194
F0.0004697040864255519
s(S'ref'
p1195
S'gt'
p1196
S'had'
p1197
tp1198
F0.0009394081728511038
s(S'then'
p1199
S'served'
p1200
S'as'
p1201
tp1202
F0.0004697040864255519
s(S'also'
p1203
S'set'
p1204
S'up'
p1205
tp1206
F0.0004697040864255519
s(S'[[det]]'
p1207
S'release'
p1208
S'[[det]]'
p1209
tp1210
F0.0004697040864255519
s(S'not'
p1211
S'play'
p1212
S'for'
p1213
tp1214
F0.0004697040864255519
s(S'[[con]]'
p1215
S'met'
p1216
S'[[con]]'
p1217
tp1218
F0.0004697040864255519
s(S'became'
p1219
S'president'
p1220
S'of'
p1221
tp1222
F0.0004697040864255519
s(S'[[det]]'
p1223
S'film'
p1224
S'as'
p1225
tp1226
F0.0004697040864255519
s(S'been'
p1227
S'professor'
p1228
S'at'
p1229
tp1230
F0.0004697040864255519
s(S'is'
p1231
S'known'
p1232
S'except'
p1233
tp1234
F0.0004697040864255519
s(S'were'
p1235
S'named'
p1236
S'as'
p1237
tp1238
F0.0004697040864255519
s(S'had'
p1239
S'served'
p1240
S'in'
p1241
tp1242
F0.0004697040864255519
s(S'have'
p1243
S'known'
p1244
S'that'
p1245
tp1246
F0.0004697040864255519
s(S'later'
p1247
S'recalled'
p1248
S'to'
p1249
tp1250
F0.0004697040864255519
s(S'had'
p1251
S'known'
p1252
S'[[con]]'
p1253
tp1254
F0.0004697040864255519
s(S'also'
p1255
S'introduced'
p1256
S'[[con]]'
p1257
tp1258
F0.0004697040864255519
s(S'where'
p1259
S'met'
p1260
S'[[adj]]'
p1261
tp1262
F0.0004697040864255519
s(S'had'
p1263
S'retired'
p1264
S'from'
p1265
tp1266
F0.0004697040864255519
s(S'ref'
p1267
S'gt'
p1268
S'became'
p1269
tp1270
F0.0004697040864255519
s(S'been'
p1271
S'professor'
p1272
S'of'
p1273
tp1274
F0.0004697040864255519
s(S'[[adj]]'
p1275
S'book'
p1276
S'to'
p1277
tp1278
F0.0004697040864255519
s(S'then'
p1279
S'served'
p1280
S'until'
p1281
tp1282
F0.0004697040864255519
s(S'was'
p1283
S'head'
p1284
S'of'
p1285
tp1286
F0.0004697040864255519
s(S'is'
p1287
S'president'
p1288
S'in'
p1289
tp1290
F0.0004697040864255519
s(S'[[det]]'
p1291
S'appointed'
p1292
S'[[con]]'
p1293
tp1294
F0.0004697040864255519
s(S'who'
p1295
S'worked'
p1296
S'under'
p1297
tp1298
F0.0004697040864255519
s(S'pp'
p1299
S'[[num]]'
p1300
S'lt'
p1301
tp1302
F0.0009394081728511038
s(S'becomes'
p1303
S'involved'
p1304
S'with'
p1305
tp1306
F0.0004697040864255519
s(S'have'
p1307
S'appeared'
p1308
S'on'
p1309
tp1310
F0.0004697040864255519
s(S'had'
p1311
S'introduced'
p1312
S'to'
p1313
tp1314
F0.0004697040864255519
s(S'was'
p1315
S'working'
p1316
S'when'
p1317
tp1318
F0.0004697040864255519
s(S'ref'
p1319
S'gt'
p1320
S'son'
p1321
tp1322
F0.0004697040864255519
s(S'[[det]]'
p1323
S'appointed'
p1324
S'by'
p1325
tp1326
F0.0004697040864255519
s(S'that'
p1327
S'lt'
p1328
S'ref'
p1329
tp1330
F0.0009394081728511038
s(S'ref'
p1331
S'gt'
p1332
S'scored'
p1333
tp1334
F0.0004697040864255519
s(S'started'
p1335
S'out'
p1336
S'lt'
p1337
tp1338
F0.0004697040864255519
s(S'born'
p1339
S'[[num]]'
p1340
S'lt'
p1341
tp1342
F0.0004697040864255519
s(S'[[pro]]'
p1343
S'book'
p1344
S'on'
p1345
tp1346
F0.0004697040864255519
s(S'was'
p1347
g792
g793
tp1348
F0.0004697040864255519
s(S'[[adj]]'
p1349
S'play'
p1350
S'in'
p1351
tp1352
F0.0004697040864255519
s(S'then'
p1353
S'appointed'
p1354
S'[[adj]]'
p1355
tp1356
F0.0004697040864255519
s(S'has'
p1357
S'served'
p1358
S'at'
p1359
tp1360
F0.0004697040864255519
s(S'was'
p1361
S'chairman'
p1362
S'of'
p1363
tp1364
F0.0004697040864255519
s(S'first'
p1365
S'worked'
p1366
S'to'
p1367
tp1368
F0.0004697040864255519
s(S'was'
p1369
S'member'
p1370
S'[[det]]'
p1371
tp1372
F0.0004697040864255519
s(S'who'
p1373
S'worked'
p1374
S'in'
p1375
tp1376
F0.0004697040864255519
s(S'was'
p1377
S'appointed'
p1378
S'on'
p1379
tp1380
F0.0004697040864255519
s(S'is'
p1381
S'director'
p1382
S'[[con]]'
p1383
tp1384
F0.0004697040864255519
s(S'[[det]]'
p1385
S'member'
p1386
S'for'
p1387
tp1388
F0.0004697040864255519
s(S'[[adj]]'
p1389
S'film'
p1390
S'[[con]]'
p1391
tp1392
F0.0004697040864255519
s(S'issue'
p1393
S'[[prp]]'
p1394
S'position'
p1395
tp1396
F0.0004697040864255519
s(S'[[adj]]'
p1397
S'editor'
p1398
S'for'
p1399
tp1400
F0.0004697040864255519
s(S'[[num]]'
p1401
S'worked'
p1402
S'for'
p1403
tp1404
F0.0004697040864255519
s(S'lived'
p1405
S'in'
p1406
S'lt'
p1407
tp1408
F0.0004697040864255519
s(S'became'
p1409
S'member'
p1410
S'of'
p1411
tp1412
F0.0004697040864255519
s(S'best'
p1413
S'known'
p1414
S'[[num]]'
p1415
tp1416
F0.0004697040864255519
s(S'where'
p1417
S'served'
p1418
S'under'
p1419
tp1420
F0.0004697040864255519
s(S'later'
p1421
S'died'
p1422
S'in'
p1423
tp1424
F0.0004697040864255519
s(S'became'
p1425
S'professor'
p1426
S'at'
p1427
tp1428
F0.0004697040864255519
s(S'had'
p1429
S'served'
p1430
S'as'
p1431
tp1432
F0.0009394081728511038
s(S'[[det]]'
p1433
S'editor'
p1434
S'[[det]]'
p1435
tp1436
F0.0004697040864255519
s(S'is'
p1437
S'appointed'
p1438
S'to'
p1439
tp1440
F0.0004697040864255519
s(S'[[det]]'
p1441
S'cofounder'
p1442
S'of'
p1443
tp1444
F0.0004697040864255519
s(S'until'
p1445
S'joined'
p1446
S'[[det]]'
p1447
tp1448
F0.0004697040864255519
s(S'also'
p1449
S'appeared'
p1450
S'[[num]]'
p1451
tp1452
F0.0004697040864255519
s(S'[[det]]'
p1453
S'professor'
p1454
S'of'
p1455
tp1456
F0.0004697040864255519
s(S'[[adj]]'
p1457
S'working'
p1458
S'with'
p1459
tp1460
F0.0004697040864255519
s(S'also'
p1461
S'appeared'
p1462
S'as'
p1463
tp1464
F0.0004697040864255519
s(S'later'
p1465
S'worked'
p1466
S'at'
p1467
tp1468
F0.0004697040864255519
s(S'[[con]]'
p1469
S'appointed'
p1470
S'[[det]]'
p1471
tp1472
F0.0004697040864255519
s(S'gt'
p1473
S'according'
p1474
S'to'
p1475
tp1476
F0.0004697040864255519
s(g717
g718
S'in'
p1477
tp1478
F0.0004697040864255519
s(S'ref'
p1479
S'name'
p1480
S'[[det]]'
p1481
tp1482
F0.0004697040864255519
s(S'again'
p1483
S'joined'
p1484
S'[[det]]'
p1485
tp1486
F0.0004697040864255519
s(S'first'
p1487
S'appointed'
p1488
S'in'
p1489
tp1490
F0.0004697040864255519
s(S'then'
p1491
S'worked'
p1492
S'for'
p1493
tp1494
F0.0004697040864255519
s(S'well'
p1495
S'known'
p1496
S'that'
p1497
tp1498
F0.0004697040864255519
s(S'currently'
p1499
S'professor'
p1500
S'[[con]]'
p1501
tp1502
F0.0004697040864255519
s(S'[[con]]'
p1503
S'served'
p1504
S'with'
p1505
tp1506
F0.0004697040864255519
s(S'had'
p1507
S'worked'
p1508
S'out'
p1509
tp1510
F0.0004697040864255519
s(S'then'
p1511
S'created'
p1512
S'[[det]]'
p1513
tp1514
F0.0004697040864255519
s(S'ref'
p1515
S'gt'
p1516
S'said'
p1517
tp1518
F0.0009394081728511038
s(S'been'
p1519
S'introduced'
p1520
S'by'
p1521
tp1522
F0.0004697040864255519
s(S'later'
p1523
S'claimed'
p1524
S'that'
p1525
tp1526
F0.0004697040864255519
s(S'became'
p1527
S'director'
p1528
S'[[det]]'
p1529
tp1530
F0.0004697040864255519
s(S'part'
p1531
S'owner'
p1532
S'of'
p1533
tp1534
F0.0004697040864255519
s(g608
S'chairman'
p1535
S'[[det]]'
p1536
tp1537
F0.0004697040864255519
s(S'best'
p1538
S'known'
p1539
S'of'
p1540
tp1541
F0.0004697040864255519
s(S'prevent'
p1542
S'[[det]]'
p1543
g1393
tp1544
F0.0004697040864255519
s(S'assistant'
p1545
S'to'
p1546
S'[[det]]'
p1547
tp1548
F0.0004697040864255519
s(g173
S'film'
p1549
S'in'
p1550
tp1551
F0.0004697040864255519
s(S'lt'
p1552
S'lt'
p1553
S'ref'
p1554
tp1555
F0.0004697040864255519
s(S'have'
p1556
S'served'
p1557
S'with'
p1558
tp1559
F0.0004697040864255519
s(S'of'
p1560
S'known'
p1561
S'as'
p1562
tp1563
F0.0004697040864255519
s(S'[[det]]'
p1564
S'member'
p1565
S'until'
p1566
tp1567
F0.0004697040864255519
s(S'been'
p1568
S'named'
p1569
S'by'
p1570
tp1571
F0.0004697040864255519
s(S'often'
p1572
S'worked'
p1573
S'with'
p1574
tp1575
F0.0004697040864255519
s(S'was'
p1576
S'working'
p1577
S'[[con]]'
p1578
tp1579
F0.0004697040864255519
s(S'[[mod]]'
p1580
S'leave'
p1581
S'gt'
p1582
tp1583
F0.0004697040864255519
s(S'[[adj]]'
p1584
S'director'
p1585
S'[[con]]'
p1586
tp1587
F0.0004697040864255519
s(g274
S'gt'
p1588
S'[[num]]'
p1589
tp1590
F0.004227336777829967
s(g713
g714
S'ref'
p1591
tp1592
F0.0004697040864255519
s(S'[[con]]'
p1593
S'served'
p1594
S'at'
p1595
tp1596
F0.0004697040864255519
s(S'formerly'
p1597
S'worked'
p1598
S'for'
p1599
tp1600
F0.0004697040864255519
s(S'also'
p1601
S'named'
p1602
S'for'
p1603
tp1604
F0.0004697040864255519
s(S'[[con]]'
p1605
S'director'
p1606
S'of'
p1607
tp1608
F0.0004697040864255519
s(S'[[adj]]'
p1609
S'book'
p1610
S'in'
p1611
tp1612
F0.0004697040864255519
s(S'[[adj]]'
p1613
S'met'
p1614
S'[[det]]'
p1615
tp1616
F0.0004697040864255519
s(S'[[num]]'
p1617
S'professor'
p1618
S'of'
p1619
tp1620
F0.0004697040864255519
s(S'is'
p1621
S'member'
p1622
S'[[con]]'
p1623
tp1624
F0.0004697040864255519
s(S'is'
p1625
S'given'
p1626
S'as'
p1627
tp1628
F0.0004697040864255519
s(S'was'
p1629
S'purchased'
p1630
S'from'
p1631
tp1632
F0.0004697040864255519
s(S'gt'
p1633
S'where'
p1634
S'played'
p1635
tp1636
F0.0004697040864255519
s(S'then'
p1637
S'joined'
p1638
S'[[adj]]'
p1639
tp1640
F0.0004697040864255519
s(S'first'
p1641
S'met'
p1642
S'[[con]]'
p1643
tp1644
F0.0004697040864255519
s(S'to'
p1645
S'join'
p1646
S'at'
p1647
tp1648
F0.0004697040864255519
s(S'is'
p1649
S'director'
p1650
S'[[det]]'
p1651
tp1652
F0.0004697040864255519
s(S'then'
p1653
S'worked'
p1654
S'[[adj]]'
p1655
tp1656
F0.0004697040864255519
s(S'been'
p1657
S'appointed'
p1658
S'of'
p1659
tp1660
F0.0004697040864255519
s(S'[[con]]'
p1661
S'created'
p1662
S'[[det]]'
p1663
tp1664
F0.0004697040864255519
s(S'been'
p1665
S'working'
p1666
S'as'
p1667
tp1668
F0.0004697040864255519
s(S'ref'
p1669
S'gt'
p1670
S'made'
p1671
tp1672
F0.0004697040864255519
s(S'[[adj]]'
p1673
S'appointed'
p1674
S'by'
p1675
tp1676
F0.0004697040864255519
s(S'usually'
p1677
S'known'
p1678
S'as'
p1679
tp1680
F0.0004697040864255519
s(S'is'
p1681
S'known'
p1682
S'at'
p1683
tp1684
F0.0004697040864255519
s(S'ever'
p1685
S'play'
p1686
S'for'
p1687
tp1688
F0.0004697040864255519
s(S'said'
p1689
S'lt'
p1690
S'[[adj]]'
p1691
tp1692
F0.0004697040864255519
s(S'was'
p1693
S'known'
p1694
S'for'
p1695
tp1696
F0.0004697040864255519
s(S'also'
p1697
S'created'
p1698
S'in'
p1699
tp1700
F0.0004697040864255519
s(g173
S'working'
p1701
S'for'
p1702
tp1703
F0.0004697040864255519
s(g650
g651
S'stage'
p1704
tp1705
F0.0004697040864255519
s(S'been'
p1706
S'appointed'
p1707
S'to'
p1708
tp1709
F0.0004697040864255519
s(S'was'
p1710
S'involved'
p1711
S'in'
p1712
tp1713
F0.0004697040864255519
s(S'as'
p1714
S'president'
p1715
S'of'
p1716
tp1717
F0.0004697040864255519
s(S'[[con]]'
p1718
S'served'
p1719
S'to'
p1720
tp1721
F0.0004697040864255519
s(S'[[det]]'
p1722
S'editor'
p1723
S'on'
p1724
tp1725
F0.0004697040864255519
s(S'has'
p1726
S'appeared'
p1727
S'as'
p1728
tp1729
F0.0004697040864255519
s(S'[[num]]'
p1730
g478
g479
tp1731
F0.0032879286049788633
s(S'[[num]]'
p1732
S'years'
p1733
S'as'
p1734
tp1735
F0.0004697040864255519
s(S'best'
p1736
S'known'
p1737
S'in'
p1738
tp1739
F0.0004697040864255519
s(S'then'
p1740
S'appeared'
p1741
S'on'
p1742
tp1743
F0.0004697040864255519
s(S'again'
p1744
S'served'
p1745
S'with'
p1746
tp1747
F0.0004697040864255519
s(S'had'
p1748
S'worked'
p1749
S'as'
p1750
tp1751
F0.0004697040864255519
s(S'[[con]]'
p1752
S'professor'
p1753
S'at'
p1754
tp1755
F0.0009394081728511038
s(S'served'
p1756
S'[[con]]'
p1757
g1361
tp1758
F0.0004697040864255519
s(S'[[det]]'
p1759
S'son'
p1760
S'of'
p1761
tp1762
F0.0004697040864255519
s(S'has'
p1763
S'served'
p1764
S'twice'
p1765
tp1766
F0.0004697040864255519
s(S'was'
p1767
S'arrested'
p1768
S'with'
p1769
tp1770
F0.0004697040864255519
s(S'has'
p1771
S'introduced'
p1772
S'[[det]]'
p1773
tp1774
F0.0004697040864255519
s(S'became'
p1775
S'known'
p1776
S'with'
p1777
tp1778
F0.0004697040864255519
s(S'later'
p1779
S'led'
p1780
S'[[det]]'
p1781
tp1782
F0.0004697040864255519
s(S'gt'
p1783
S'name'
p1784
g1625
tp1785
F0.0004697040864255519
s(S'also'
p1786
S'appointed'
p1787
S'of'
p1788
tp1789
F0.0004697040864255519
s(S'also'
p1790
S'named'
p1791
S'of'
p1792
tp1793
F0.0004697040864255519
s(S'which'
p1794
S'returned'
p1795
S'to'
p1796
tp1797
F0.0004697040864255519
s(S'[[con]]'
p1798
S'worked'
p1799
S'as'
p1800
tp1801
F0.0004697040864255519
s(g1109
S'worked'
p1802
S'with'
p1803
tp1804
F0.0014091122592766556
s(S'[[adj]]'
p1805
S'editor'
p1806
S'at'
p1807
tp1808
F0.0004697040864255519
s(S'also'
p1809
S'known'
p1810
S'along'
p1811
tp1812
F0.0004697040864255519
s(S'awards'
p1813
S'that'
p1814
S'gave'
p1815
tp1816
F0.0004697040864255519
s(S'best'
p1817
S'known'
p1818
S'especially'
p1819
tp1820
F0.0004697040864255519
s(S'also'
p1821
S'director'
p1822
S'of'
p1823
tp1824
F0.0004697040864255519
s(S'[[con]]'
p1825
S'worked'
p1826
S'mainly'
p1827
tp1828
F0.0004697040864255519
s(S'become'
p1829
S'known'
p1830
S'as'
p1831
tp1832
F0.0004697040864255519
s(S'[[adj]]'
p1833
S'director'
p1834
S'[[det]]'
p1835
tp1836
F0.0004697040864255519
s(S'was'
p1837
S'appointed'
p1838
S'during'
p1839
tp1840
F0.0004697040864255519
s(S'people'
p1841
S'who'
p1842
S'confirmed'
p1843
tp1844
F0.0004697040864255519
s(S'first'
p1845
S'served'
p1846
S'in'
p1847
tp1848
F0.0004697040864255519
s(S'[[det]]'
p1849
S'opportunity'
p1850
S'to'
p1851
tp1852
F0.0004697040864255519
s(S'is'
p1853
S'professor'
p1854
S'of'
p1855
tp1856
F0.0004697040864255519
s(S'then'
p1857
S'known'
p1858
S'as'
p1859
tp1860
F0.0004697040864255519
s(S'name'
p1861
S'that'
p1862
S'loved'
p1863
tp1864
F0.0004697040864255519
s(S'where'
p1865
S'served'
p1866
S'to'
p1867
tp1868
F0.0004697040864255519
s(S'was'
p1869
S'involved'
p1870
S'[[con]]'
p1871
tp1872
F0.0004697040864255519
s(S'[[adj]]'
p1873
S'league'
p1874
S'lt'
p1875
tp1876
F0.0004697040864255519
s(S'[[adj]]'
p1877
S'film'
p1878
S'[[det]]'
p1879
tp1880
F0.0004697040864255519
s(S'then'
p1881
S'joined'
p1882
S'[[num]]'
p1883
tp1884
F0.0004697040864255519
s(S'again'
p1885
S'served'
p1886
S'under'
p1887
tp1888
F0.0004697040864255519
s(S'with'
p1889
S'established'
p1890
S'[[det]]'
p1891
tp1892
F0.0004697040864255519
s(S'most'
p1893
S'known'
p1894
S'for'
p1895
tp1896
F0.0004697040864255519
s(S'be'
p1897
S'awarded'
p1898
S'[[det]]'
p1899
tp1900
F0.0004697040864255519
s(S'received'
p1901
S'for'
p1902
S'[[prp]]'
p1903
tp1904
F0.0004697040864255519
s(S'then'
p1905
S'appeared'
p1906
S'in'
p1907
tp1908
F0.0004697040864255519
s(S'also'
p1909
S'president'
p1910
S'in'
p1911
tp1912
F0.0004697040864255519
s(S'[[det]]'
p1913
S'member'
p1914
S'which'
p1915
tp1916
F0.0004697040864255519
s(S'ref'
p1917
S'gt'
p1918
S'[[adj]]'
p1919
tp1920
F0.0023485204321277596
s(S'being'
p1921
S'appointed'
p1922
S'of'
p1923
tp1924
F0.0004697040864255519
s(S'[[adj]]'
p1925
S'introduced'
p1926
S'by'
p1927
tp1928
F0.0004697040864255519
s(S'was'
p1929
S'served'
p1930
S'as'
p1931
tp1932
F0.0004697040864255519
s(S'as'
p1933
S'director'
p1934
S'of'
p1935
tp1936
F0.0004697040864255519
s(S'who'
p1937
S'served'
p1938
S'in'
p1939
tp1940
F0.0004697040864255519
s(S'later'
p1941
S'appeared'
p1942
S'for'
p1943
tp1944
F0.0004697040864255519
s(S'again'
p1945
S'appointed'
p1946
S'to'
p1947
tp1948
F0.0004697040864255519
s(S'well'
p1949
S'known'
p1950
S'to'
p1951
tp1952
F0.0004697040864255519
s(g1757
g1361
g1362
tp1953
F0.0004697040864255519
s(S'ref'
p1954
S'gt'
p1955
S'while'
p1956
tp1957
F0.0004697040864255519
s(S'has'
p1958
S'worked'
p1959
S'by'
p1960
tp1961
F0.0004697040864255519
s(S'[[con]]'
p1962
S'known'
p1963
S'as'
p1964
tp1965
F0.0004697040864255519
s(S'is'
p1966
S'appointed'
p1967
S'of'
p1968
tp1969
F0.0004697040864255519
s(S'[[con]]'
p1970
S'appointed'
p1971
S'[[pro]]'
p1972
tp1973
F0.0004697040864255519
s(S'name'
p1974
S'gt'
p1975
S'[[con]]'
p1976
tp1977
F0.0004697040864255519
s(S'first'
p1978
S'served'
p1979
S'[[con]]'
p1980
tp1981
F0.0004697040864255519
s(S'[[adj]]'
p1982
S'student'
p1983
S'[[det]]'
p1984
tp1985
F0.0004697040864255519
s(S'also'
p1986
S'served'
p1987
S'at'
p1988
tp1989
F0.0004697040864255519
s(S'[[adj]]'
p1990
S'president'
p1991
S'of'
p1992
tp1993
F0.0004697040864255519
s(S'later'
p1994
S'appointed'
p1995
S'by'
p1996
tp1997
F0.0004697040864255519
s(S'ever'
p1998
S'play'
p1999
S'in'
p2000
tp2001
F0.0004697040864255519
s(S'[[det]]'
p2002
S'member'
p2003
S'of'
p2004
tp2005
F0.0004697040864255519
s(S'formerly'
p2006
S'served'
p2007
S'at'
p2008
tp2009
F0.0004697040864255519
s(S'ref'
p2010
g288
g289
tp2011
F0.0004697040864255519
s(S'been'
p2012
S'professor'
p2013
S'in'
p2014
tp2015
F0.0004697040864255519
s(S'accessed'
p2016
g272
g273
tp2017
F0.0014091122592766556
s(S'best'
p2018
S'known'
p2019
S'[[prp]]'
p2020
tp2021
F0.0004697040864255519
s(S'had'
p2022
S'served'
p2023
S'at'
p2024
tp2025
F0.0004697040864255519
s(S'became'
p2026
S'known'
p2027
S'to'
p2028
tp2029
F0.0004697040864255519
s(S'[[adj]]'
p2030
S'head'
p2031
S'of'
p2032
tp2033
F0.0004697040864255519
s(S'was'
p2034
S'known'
p2035
S'by'
p2036
tp2037
F0.0004697040864255519
s(S'served'
p2038
S'as'
p2039
S'chairman'
p2040
tp2041
F0.0037576326914044154
s(S'[[adj]]'
p2042
S'gt'
p2043
S'was'
p2044
tp2045
F0.0004697040864255519
s(S'is'
p2046
S'known'
p2047
S'after'
p2048
tp2049
F0.0004697040864255519
s(S'was'
p2050
S'named'
p2051
S'for'
p2052
tp2053
F0.0004697040864255519
s(S'become'
p2054
S'head'
p2055
S'at'
p2056
tp2057
F0.0004697040864255519
s(S'was'
p2058
S'head'
p2059
S'[[con]]'
p2060
tp2061
F0.0004697040864255519
s(S'best'
p2062
S'known'
p2063
S'[[adj]]'
p2064
tp2065
F0.0004697040864255519
s(S'[[num]]'
p2066
S'led'
p2067
S'[[det]]'
p2068
tp2069
F0.0004697040864255519
s(S'[[mod]]'
p2070
S'join'
p2071
S'[[det]]'
p2072
tp2073
F0.0004697040864255519
s(S'[[adj]]'
p2074
S'president'
p2075
S'[[con]]'
p2076
tp2077
F0.0004697040864255519
s(S'[[pro]]'
p2078
S'joined'
p2079
S'[[det]]'
p2080
tp2081
F0.0004697040864255519
s(S'also'
p2082
S'worked'
p2083
S'along'
p2084
tp2085
F0.0004697040864255519
s(S'has'
p2086
S'joined'
p2087
S'[[det]]'
p2088
tp2089
F0.0004697040864255519
s(S'is'
p2090
S'known'
p2091
S'of'
p2092
tp2093
F0.0004697040864255519
s(S'been'
p2094
S'created'
p2095
S'[[con]]'
p2096
tp2097
F0.0004697040864255519
s(S'ref'
p2098
S'lt'
p2099
S'ref'
p2100
tp2101
F0.0037576326914044154
s(S'name'
p2102
g1633
g1634
tp2103
F0.0004697040864255519
s(S'[[adj]]'
p2104
S'officer'
p2105
S'in'
p2106
tp2107
F0.0004697040864255519
s(S'later'
p2108
S'appeared'
p2109
S'[[adj]]'
p2110
tp2111
F0.0004697040864255519
s(S'[[adj]]'
p2112
S'worked'
p2113
S'as'
p2114
tp2115
F0.0004697040864255519
s(S'[[con]]'
p2116
S'served'
p2117
S'under'
p2118
tp2119
F0.0004697040864255519
s(S'[[det]]'
p2120
S'host'
p2121
S'on'
p2122
tp2123
F0.0004697040864255519
s(S'[[num]]'
p2124
g1841
g1842
tp2125
F0.0004697040864255519
s(S'[[det]]'
p2126
S'member'
p2127
S'[[con]]'
p2128
tp2129
F0.0004697040864255519
s(S'of'
p2130
S'lt'
p2131
S'ref'
p2132
tp2133
F0.0014091122592766556
s(S'became'
p2134
S'known'
p2135
S'after'
p2136
tp2137
F0.0004697040864255519
s(S'has'
p2138
S'served'
p2139
S'in'
p2140
tp2141
F0.0004697040864255519
s(S'[[con]]'
p2142
S'professor'
p2143
S'of'
p2144
tp2145
F0.0004697040864255519
s(S'has'
p2146
S'created'
p2147
S'for'
p2148
tp2149
F0.0004697040864255519
s(S'been'
p2150
S'working'
p2151
S'on'
p2152
tp2153
F0.0004697040864255519
s(S'[[adj]]'
p2154
S'appeared'
p2155
S'in'
p2156
tp2157
F0.0004697040864255519
s(S'has'
p2158
S'appeared'
p2159
S'from'
p2160
tp2161
F0.0004697040864255519
s(S'[[pro]]'
p2162
S'returned'
p2163
S'to'
p2164
tp2165
F0.0004697040864255519
s(S'[[adj]]'
p2166
S'lt'
p2167
S'ref'
p2168
tp2169
F0.0028182245185533112
s(S'[[con]]'
p2170
S'served'
p2171
S'as'
p2172
tp2173
F0.0009394081728511038
s(S'was'
p2174
S'known'
p2175
S'[[adj]]'
p2176
tp2177
F0.0004697040864255519
s(S'has'
p2178
S'led'
p2179
S'[[det]]'
p2180
tp2181
F0.0004697040864255519
s(S'[[adj]]'
p2182
S'film'
p2183
S'as'
p2184
tp2185
F0.0004697040864255519
s(S'later'
p2186
S'worked'
p2187
S'on'
p2188
tp2189
F0.0004697040864255519
s(S'that'
p2190
S'worked'
p2191
S'along'
p2192
tp2193
F0.0004697040864255519
s(S'[[det]]'
p2194
S'president'
p2195
S'[[det]]'
p2196
tp2197
F0.0004697040864255519
s(S'also'
p2198
S'appointed'
p2199
S'[[adj]]'
p2200
tp2201
F0.0004697040864255519
s(S'was'
p2202
S'appointed'
p2203
S'when'
p2204
tp2205
F0.0004697040864255519
s(g1851
S'continue'
p2206
S'[[prp]]'
p2207
tp2208
F0.0004697040864255519
s(S'ref'
p2209
S'gt'
p2210
S'[[con]]'
p2211
tp2212
F0.0056364490371066224
s(S'[[det]]'
p2213
S'professor'
p2214
S'[[num]]'
p2215
tp2216
F0.0004697040864255519
s(S'currently'
p2217
S'working'
p2218
S'on'
p2219
tp2220
F0.0004697040864255519
s(S'then'
p2221
S'president'
p2222
S'[[det]]'
p2223
tp2224
F0.0004697040864255519
s(S'also'
p2225
S'play'
p2226
S'[[det]]'
p2227
tp2228
F0.0004697040864255519
s(S'also'
p2229
S'served'
p2230
S'until'
p2231
tp2232
F0.0004697040864255519
s(S'then'
p2233
S'president'
p2234
S'of'
p2235
tp2236
F0.0004697040864255519
s(g357
g358
g1545
tp2237
F0.0004697040864255519
s(S'first'
p2238
S'met'
p2239
S'[[det]]'
p2240
tp2241
F0.0004697040864255519
s(S'well'
p2242
S'known'
p2243
S'at'
p2244
tp2245
F0.0004697040864255519
s(S'died'
p2246
S'in'
p2247
S'[[adj]]'
p2248
tp2249
F0.0004697040864255519
s(S'currently'
p2250
S'professor'
p2251
S'of'
p2252
tp2253
F0.0004697040864255519
s(S'first'
p2254
S'served'
p2255
S'with'
p2256
tp2257
F0.0004697040864255519
s(S'is'
p2258
S'professor'
p2259
S'at'
p2260
tp2261
F0.0004697040864255519
s(S'[[adj]]'
p2262
S'head'
p2263
S'at'
p2264
tp2265
F0.0004697040864255519
s(S'is'
p2266
S'head'
p2267
S'[[det]]'
p2268
tp2269
F0.0004697040864255519
s(S'[[con]]'
p2270
S'moved'
p2271
S'to'
p2272
tp2273
F0.0004697040864255519
s(S'to'
p2274
S'set'
p2275
S'up'
p2276
tp2277
F0.0004697040864255519
s(S'as'
p2278
S'[[adj]]'
p2279
S'chairman'
p2280
tp2281
F0.0004697040864255519
s(g1842
g1843
S'by'
p2282
tp2283
F0.0004697040864255519
s(S'[[con]]'
p2284
S'member'
p2285
S'of'
p2286
tp2287
F0.0004697040864255519
s(S'[[adj]]'
p2288
S'member'
p2289
S'for'
p2290
tp2291
F0.0004697040864255519
s(S'became'
p2292
S'director'
p2293
S'for'
p2294
tp2295
F0.0004697040864255519
s(S'is'
p2296
S'arrested'
p2297
S'by'
p2298
tp2299
F0.0004697040864255519
s(S'[[pro]]'
p2300
S'led'
p2301
S'[[det]]'
p2302
tp2303
F0.0004697040864255519
s(S'has'
p2304
S'served'
p2305
S'for'
p2306
tp2307
F0.0004697040864255519
s(S'[[adj]]'
p2308
S'student'
p2309
S'from'
p2310
tp2311
F0.0004697040864255519
s(S'was'
p2312
S'appointed'
p2313
S'[[con]]'
p2314
tp2315
F0.0004697040864255519
s(S'[[det]]'
p2316
S'served'
p2317
S'in'
p2318
tp2319
F0.0004697040864255519
s(S'[[num]]'
p2320
S'president'
p2321
S'of'
p2322
tp2323
F0.0004697040864255519
s(S'became'
p2324
S'editor'
p2325
S'[[con]]'
p2326
tp2327
F0.0004697040864255519
s(S'was'
p2328
S'awarded'
p2329
S'at'
p2330
tp2331
F0.0004697040864255519
s(S'being'
p2332
S'appointed'
p2333
S'[[det]]'
p2334
tp2335
F0.0004697040864255519
s(S'then'
p2336
S'appointed'
p2337
S'[[num]]'
p2338
tp2339
F0.0004697040864255519
s(S'best'
p2340
S'known'
p2341
S'with'
p2342
tp2343
F0.0004697040864255519
s(S'was'
p2344
S'member'
p2345
S'[[con]]'
p2346
tp2347
F0.0004697040864255519
s(S'was'
p2348
S'named'
p2349
S'in'
p2350
tp2351
F0.0004697040864255519
s(S'when'
p2352
S'served'
p2353
S'as'
p2354
tp2355
F0.0004697040864255519
s(S'also'
p2356
S'wrote'
p2357
S'of'
p2358
tp2359
F0.0004697040864255519
s(S'for'
p2360
S'lt'
p2361
S'ref'
p2362
tp2363
F0.0004697040864255519
s(S'has'
p2364
S'appeared'
p2365
S'of'
p2366
tp2367
F0.0004697040864255519
s(S'has'
p2368
S'created'
p2369
S'[[num]]'
p2370
tp2371
F0.0004697040864255519
s(S'was'
p2372
S'introduced'
p2373
S'by'
p2374
tp2375
F0.0004697040864255519
s(S'[[con]]'
p2376
S'retired'
p2377
S'from'
p2378
tp2379
F0.0004697040864255519
s(S'was'
p2380
S'purchased'
p2381
S'by'
p2382
tp2383
F0.0004697040864255519
s(S'accessed'
p2384
S'[[num]]'
p2385
S'lt'
p2386
tp2387
F0.0009394081728511038
s(S'[[det]]'
p2388
S'head'
p2389
S'in'
p2390
tp2391
F0.0004697040864255519
s(S'been'
p2392
S'named'
p2393
S'as'
p2394
tp2395
F0.0004697040864255519
s(S'[[con]]'
p2396
S'served'
p2397
S'in'
p2398
tp2399
F0.0009394081728511038
s(S'then'
p2400
S'served'
p2401
S'in'
p2402
tp2403
F0.0004697040864255519
s(S'was'
p2404
S'founder'
p2405
S'[[con]]'
p2406
tp2407
F0.0004697040864255519
s(S'also'
p2408
S'appeared'
p2409
S'to'
p2410
tp2411
F0.0004697040864255519
s(S'then'
p2412
S'led'
p2413
S'[[det]]'
p2414
tp2415
F0.0004697040864255519
s(S'been'
p2416
S'appointed'
p2417
S'[[con]]'
p2418
tp2419
F0.0004697040864255519
s(S'ref'
p2420
S'gt'
p2421
S'to'
p2422
tp2423
F0.0018788163457022077
s(S'to'
p2424
S'play'
p2425
S'during'
p2426
tp2427
F0.0004697040864255519
s(S'ref'
p2428
S'gt'
p2429
S'returned'
p2430
tp2431
F0.0009394081728511038
s(S'who'
p2432
S'introduced'
p2433
S'to'
p2434
tp2435
F0.0004697040864255519
s(S'then'
p2436
S'worked'
p2437
S'[[con]]'
p2438
tp2439
F0.0004697040864255519
s(S'to'
p2440
S'host'
p2441
S'[[adj]]'
p2442
tp2443
F0.0004697040864255519
s(S'also'
p2444
S'claimed'
p2445
S'that'
p2446
tp2447
F0.0004697040864255519
s(S'[[det]]'
p2448
S'member'
p2449
S'[[num]]'
p2450
tp2451
F0.0004697040864255519
s(S'was'
p2452
S'appointed'
p2453
S'in'
p2454
tp2455
F0.0004697040864255519
s(S'up'
p2456
S'in'
p2457
S'lt'
p2458
tp2459
F0.0004697040864255519
s(S'had'
p2460
S'worked'
p2461
S'before'
p2462
tp2463
F0.0004697040864255519
s(S'to'
p2464
S'play'
p2465
S'against'
p2466
tp2467
F0.0004697040864255519
s(S'is'
p2468
S'known'
p2469
S'from'
p2470
tp2471
F0.0004697040864255519
s(S'name'
p2472
S'gt'
p2473
S'lt'
p2474
tp2475
F0.0014091122592766556
s(S'grew'
p2476
g2456
g2457
tp2477
F0.0004697040864255519
s(S'first'
p2478
S'appointed'
p2479
S'by'
p2480
tp2481
F0.0004697040864255519
s(S'[[con]]'
p2482
S'returned'
p2483
S'to'
p2484
tp2485
F0.0004697040864255519
s(S'[[adj]]'
p2486
S'founder'
p2487
S'of'
p2488
tp2489
F0.0004697040864255519
s(S'was'
p2490
S'professor'
p2491
S'of'
p2492
tp2493
F0.0004697040864255519
s(g1013
S'gt'
p2494
S'lt'
p2495
tp2496
F0.007045561296383279
s(S'[[adj]]'
p2497
S'appointed'
p2498
S'as'
p2499
tp2500
F0.0004697040864255519
s(S'[[num]]'
p2501
S'served'
p2502
S'for'
p2503
tp2504
F0.0004697040864255519
s(S'ref'
p2505
S'name'
p2506
S'[[adj]]'
p2507
tp2508
F0.0004697040864255519
s(S'then'
p2509
S'met'
p2510
S'with'
p2511
tp2512
F0.0004697040864255519
s(S'[[det]]'
p2513
S'served'
p2514
S'as'
p2515
tp2516
F0.0004697040864255519
s(S'is'
p2517
S'introduced'
p2518
S'by'
p2519
tp2520
F0.0004697040864255519
s(S'is'
p2521
S'appointed'
p2522
S'at'
p2523
tp2524
F0.0004697040864255519
s(S'name'
p2525
S'gt'
p2526
g1759
tp2527
F0.0004697040864255519
s(S'be'
p2528
S'appointed'
p2529
S'as'
p2530
tp2531
F0.0004697040864255519
s(S'[[adj]]'
p2532
S'working'
p2533
S'on'
p2534
tp2535
F0.0004697040864255519
s(S'who'
p2536
S'served'
p2537
S'as'
p2538
tp2539
F0.0004697040864255519
s(S'also'
p2540
S'established'
p2541
S'[[pro]]'
p2542
tp2543
F0.0004697040864255519
s(S'lt'
p2544
S'gt'
p2545
S'lt'
p2546
tp2547
F0.0014091122592766556
s(S'became'
p2548
S'known'
p2549
S'when'
p2550
tp2551
F0.0004697040864255519
s(S'took'
p2552
S'[[prp]]'
p2553
g1000
tp2554
F0.0004697040864255519
s(S'[[con]]'
p2555
S'returned'
p2556
S'in'
p2557
tp2558
F0.0004697040864255519
s(S'was'
p2559
S'named'
p2560
S'on'
p2561
tp2562
F0.0004697040864255519
s(S'be'
p2563
S'named'
p2564
S'of'
p2565
tp2566
F0.0004697040864255519
s(g1001
g1002
S'starred'
p2567
tp2568
F0.0004697040864255519
s(S'be'
p2569
S'known'
p2570
S'that'
p2571
tp2572
F0.0004697040864255519
s(S'has'
p2573
S'met'
p2574
S'[[con]]'
p2575
tp2576
F0.0004697040864255519
s(S'has'
p2577
S'appeared'
p2578
S'[[con]]'
p2579
tp2580
F0.0004697040864255519
s(S'had'
p2581
S'started'
p2582
S'at'
p2583
tp2584
F0.0004697040864255519
s(S'well'
p2585
S'known'
p2586
S'on'
p2587
tp2588
F0.0004697040864255519
s(S'[[det]]'
p2589
S'founder'
p2590
S'[[con]]'
p2591
tp2592
F0.0004697040864255519
s(S'also'
p2593
S'working'
p2594
S'for'
p2595
tp2596
F0.0004697040864255519
s(S'been'
p2597
S'awarded'
p2598
S'from'
p2599
tp2600
F0.0004697040864255519
s(S'first'
p2601
S'worked'
p2602
S'at'
p2603
tp2604
F0.0004697040864255519
s(S'was'
p2605
S'president'
p2606
S'at'
p2607
tp2608
F0.0004697040864255519
s(S'also'
p2609
S'worked'
p2610
S'for'
p2611
tp2612
F0.0004697040864255519
s(S'[[num]]'
p2613
S'served'
p2614
S'in'
p2615
tp2616
F0.0004697040864255519
s(S'ref'
p2617
S'gt'
p2618
S'reported'
p2619
tp2620
F0.0004697040864255519
s(S'first'
p2621
S'met'
p2622
S'when'
p2623
tp2624
F0.0004697040864255519
s(S'was'
p2625
S'named'
p2626
S'[[con]]'
p2627
tp2628
F0.0004697040864255519
s(S'gt'
p2629
g1111
g1112
tp2630
F0.0004697040864255519
s(S'[[det]]'
p2631
S'film'
p2632
S'to'
p2633
tp2634
F0.0004697040864255519
s(S'became'
p2635
S'known'
p2636
S'by'
p2637
tp2638
F0.0004697040864255519
s(S'[[det]]'
p2639
S'officer'
p2640
S'in'
p2641
tp2642
F0.0004697040864255519
s(S'was'
p2643
S'host'
p2644
S'of'
p2645
tp2646
F0.0004697040864255519
s(S'then'
p2647
S'joined'
p2648
S'on'
p2649
tp2650
F0.0004697040864255519
s(S'[[adj]]'
p2651
S'president'
p2652
S'at'
p2653
tp2654
F0.0004697040864255519
s(S'has'
p2655
S'served'
p2656
S'where'
p2657
tp2658
F0.0004697040864255519
s(S'[[con]]'
p2659
S'served'
p2660
S'for'
p2661
tp2662
F0.0004697040864255519
s(S'[[det]]'
p2663
S'chairman'
p2664
S'of'
p2665
tp2666
F0.0009394081728511038
s(S'was'
p2667
S'attended'
p2668
S'by'
p2669
tp2670
F0.0004697040864255519
s(S'is'
p2671
S'introduced'
p2672
S'to'
p2673
tp2674
F0.0004697040864255519
s(S'is'
p2675
S'director'
p2676
S'at'
p2677
tp2678
F0.0004697040864255519
s(S'later'
p2679
S'worked'
p2680
S'for'
p2681
tp2682
F0.0004697040864255519
s(S'[[con]]'
p2683
S'director'
p2684
S'[[det]]'
p2685
tp2686
F0.0004697040864255519
s(S'become'
p2687
S'known'
p2688
S'for'
p2689
tp2690
F0.0004697040864255519
s(S'gt'
p2691
g2667
g2668
tp2692
F0.0004697040864255519
s(S'ref'
p2693
S'gt'
p2694
S'in'
p2695
tp2696
F0.0004697040864255519
s(S'[[adj]]'
p2697
S'appeared'
p2698
S'on'
p2699
tp2700
F0.0004697040864255519
s(S'was'
p2701
S'appointed'
p2702
S'for'
p2703
tp2704
F0.0004697040864255519
s(S'well'
p2705
S'known'
p2706
S'for'
p2707
tp2708
F0.0004697040864255519
s(S'[[adj]]'
p2709
S'member'
p2710
S'in'
p2711
tp2712
F0.0004697040864255519
s(S'well'
p2713
S'known'
p2714
S'with'
p2715
tp2716
F0.0004697040864255519
s(S'is'
p2717
S'named'
p2718
S'by'
p2719
tp2720
F0.0004697040864255519
s(S'ref'
p2721
S'gt'
p2722
S'on'
p2723
tp2724
F0.0004697040864255519
s(S'formerly'
p2725
S'served'
p2726
S'in'
p2727
tp2728
F0.0004697040864255519
s(S'also'
p2729
S'member'
p2730
S'of'
p2731
tp2732
F0.0004697040864255519
s(S'first'
p2733
S'appointed'
p2734
S'to'
p2735
tp2736
F0.0004697040864255519
s(S'[[adj]]'
p2737
S'appeared'
p2738
S'as'
p2739
tp2740
F0.0004697040864255519
s(S'[[con]]'
p2741
S'owner'
p2742
S'of'
p2743
tp2744
F0.0004697040864255519
s(S'became'
p2745
S'professor'
p2746
S'[[con]]'
p2747
tp2748
F0.0004697040864255519
s(S'then'
p2749
S'working'
p2750
S'with'
p2751
tp2752
F0.0004697040864255519
s(S'well'
p2753
S'known'
p2754
S'as'
p2755
tp2756
F0.0004697040864255519
s(S'later'
p2757
S'served'
p2758
S'[[adj]]'
p2759
tp2760
F0.0004697040864255519
s(S'part'
p2761
S'owner'
p2762
S'[[det]]'
p2763
tp2764
F0.0004697040864255519
s(S'[[con]]'
p2765
S'member'
p2766
S'[[det]]'
p2767
tp2768
F0.0004697040864255519
s(S'then'
p2769
S'worked'
p2770
S'at'
p2771
tp2772
F0.0004697040864255519
s(S'was'
p2773
S'named'
p2774
S'to'
p2775
tp2776
F0.0004697040864255519
s(S'to'
p2777
S'play'
p2778
S'as'
p2779
tp2780
F0.0004697040864255519
s(S'said'
p2781
S'lt'
p2782
S'ref'
p2783
tp2784
F0.0004697040864255519
s(S'wrote'
p2785
S'lt'
p2786
g2042
tp2787
F0.0014091122592766556
s(S'actress'
p2788
S'in'
p2789
S'by'
p2790
tp2791
F0.0004697040864255519
s(g2567
S'[[prp]]'
p2792
S'father'
p2793
tp2794
F0.0004697040864255519
s(S'to'
p2795
g1542
g1543
tp2796
F0.0004697040864255519
s(S'also'
p2797
S'wrote'
p2798
S'[[det]]'
p2799
tp2800
F0.0004697040864255519
s(S'was'
p2801
S'president'
p2802
S'of'
p2803
tp2804
F0.0004697040864255519
s(S'[[det]]'
p2805
S'appeared'
p2806
S'in'
p2807
tp2808
F0.0004697040864255519
s(S'[[con]]'
p2809
S'member'
p2810
S'[[con]]'
p2811
tp2812
F0.0004697040864255519
s(S'been'
p2813
S'appointed'
p2814
S'[[det]]'
p2815
tp2816
F0.0004697040864255519
s(S'[[adj]]'
p2817
S'film'
p2818
S'[[num]]'
p2819
tp2820
F0.0004697040864255519
s(S'has'
p2821
S'worked'
p2822
S'from'
p2823
tp2824
F0.0004697040864255519
s(S'with'
p2825
S'lt'
p2826
S'ref'
p2827
tp2828
F0.0004697040864255519
s(S'where'
p2829
S'met'
p2830
S'[[con]]'
p2831
tp2832
F0.0004697040864255519
s(S'also'
p2833
S'named'
p2834
S'at'
p2835
tp2836
F0.0004697040864255519
s(S'[[pro]]'
p2837
S'served'
p2838
S'as'
p2839
tp2840
F0.0004697040864255519
s(S'ref'
p2841
S'gt'
p2842
S'where'
p2843
tp2844
F0.0004697040864255519
s(S'was'
p2845
S'recalled'
p2846
S'in'
p2847
tp2848
F0.0004697040864255519
s(S'also'
p2849
S'appeared'
p2850
S'in'
p2851
tp2852
F0.0004697040864255519
s(S'first'
p2853
S'appointed'
p2854
S'as'
p2855
tp2856
F0.0004697040864255519
s(S'later'
p2857
S'served'
p2858
S'[[con]]'
p2859
tp2860
F0.0004697040864255519
s(S'was'
p2861
S'editor'
p2862
S'with'
p2863
tp2864
F0.0004697040864255519
s(S'[[adj]]'
p2865
S'member'
p2866
S'[[con]]'
p2867
tp2868
F0.0004697040864255519
s(S'with'
p2869
S'founded'
p2870
S'[[det]]'
p2871
tp2872
F0.0004697040864255519
s(g173
S'book'
p2873
S'to'
p2874
tp2875
F0.0004697040864255519
s(S'again'
p2876
S'appeared'
p2877
S'in'
p2878
tp2879
F0.0004697040864255519
s(S'ref'
p2880
S'gt'
p2881
S'ref'
p2882
tp2883
F0.0004697040864255519
s(S'have'
p2884
S'served'
p2885
S'as'
p2886
tp2887
F0.0004697040864255519
s(S'[[adj]]'
p2888
S'claimed'
p2889
S'that'
p2890
tp2891
F0.0004697040864255519
s(S'have'
p2892
S'met'
p2893
S'with'
p2894
tp2895
F0.0004697040864255519
s(S'[[det]]'
p2896
S'president'
p2897
S'[[adj]]'
p2898
tp2899
F0.0004697040864255519
s(g416
S'chairman'
p2900
S'of'
p2901
tp2902
F0.0004697040864255519
s(S'been'
p2903
S'appointed'
p2904
S'in'
p2905
tp2906
F0.0004697040864255519
s(S'ref'
p2907
S'gt'
p2908
S'as'
p2909
tp2910
F0.0009394081728511038
s(S'was'
p2911
S'working'
p2912
S'on'
p2913
tp2914
F0.0004697040864255519
s(S'later'
p2915
S'served'
p2916
S'for'
p2917
tp2918
F0.0004697040864255519
s(S'[[num]]'
p2919
S'years'
p2920
S'later'
p2921
tp2922
F0.0004697040864255519
s(g1634
g1635
S'as'
p2923
tp2924
F0.0004697040864255519
s(S'later'
p2925
S'named'
p2926
S'[[det]]'
p2927
tp2928
F0.0004697040864255519
s(S'now'
p2929
S'working'
p2930
S'in'
p2931
tp2932
F0.0004697040864255519
s(g1814
g1815
S'[[pro]]'
p2933
tp2934
F0.0004697040864255519
s(S'has'
p2935
S'worked'
p2936
S'[[det]]'
p2937
tp2938
F0.0004697040864255519
s(S'[[adj]]'
p2939
S'appointed'
p2940
S'to'
p2941
tp2942
F0.0004697040864255519
s(S'had'
p2943
S'appointed'
p2944
S'[[det]]'
p2945
tp2946
F0.0004697040864255519
s(S'later'
p2947
S'play'
p2948
S'with'
p2949
tp2950
F0.0004697040864255519
s(S'was'
p2951
S'appointed'
p2952
S'of'
p2953
tp2954
F0.0004697040864255519
s(g1902
g1903
S'work'
p2955
tp2956
F0.0004697040864255519
s(S'studied'
p2957
S'[[con]]'
p2958
S'[[det]]'
p2959
tp2960
F0.0004697040864255519
s(S'ref'
p2961
S'gt'
p2962
S'was'
p2963
tp2964
F0.0018788163457022077
s(S'also'
p2965
S'served'
p2966
S'on'
p2967
tp2968
F0.0004697040864255519
s(S'[[adj]]'
p2969
S'director'
p2970
S'[[num]]'
p2971
tp2972
F0.0004697040864255519
s(S'is'
p2973
S'known'
p2974
S'about'
p2975
tp2976
F0.0004697040864255519
s(g2959
S'patron'
p2977
S'[[num]]'
p2978
tp2979
F0.0004697040864255519
s(S'[[con]]'
p2980
S'editor'
p2981
S'of'
p2982
tp2983
F0.0004697040864255519
s(S'[[det]]'
p2984
S'film'
p2985
S'[[adj]]'
p2986
tp2987
F0.0004697040864255519
s(g734
S'of'
p2988
S'lt'
p2989
tp2990
F0.0004697040864255519
s(S'[[det]]'
p2991
S'editor'
p2992
S'[[con]]'
p2993
tp2994
F0.0004697040864255519
s(S'[[det]]'
p2995
S'graduate'
p2996
g2130
tp2997
F0.0004697040864255519
s(S'became'
p2998
S'president'
p2999
S'at'
p3000
tp3001
F0.0004697040864255519
s(S'served'
p3002
g2278
g2279
tp3003
F0.0018788163457022077
s(S'[[det]]'
p3004
S'editor'
p3005
S'for'
p3006
tp3007
F0.0004697040864255519
s(S'[[adj]]'
p3008
S'head'
p3009
S'[[det]]'
p3010
tp3011
F0.0004697040864255519
s(S'[[mod]]'
p3012
S'join'
p3013
S'[[adj]]'
p3014
tp3015
F0.0004697040864255519
s(S'to'
p3016
S'host'
p3017
S'[[con]]'
p3018
tp3019
F0.0004697040864255519
s(S'also'
p3020
S'introduced'
p3021
S'to'
p3022
tp3023
F0.0004697040864255519
s(S'mainly'
p3024
S'worked'
p3025
S'under'
p3026
tp3027
F0.0004697040864255519
s(S'was'
p3028
S'joined'
p3029
S'in'
p3030
tp3031
F0.0004697040864255519
s(S'was'
p3032
S'named'
p3033
S'at'
p3034
tp3035
F0.0004697040864255519
s(S'[[det]]'
p3036
S'retired'
p3037
S'in'
p3038
tp3039
F0.0004697040864255519
s(S'is'
p3040
S'director'
p3041
S'of'
p3042
tp3043
F0.0004697040864255519
s(S'has'
p3044
S'appeared'
p3045
S'in'
p3046
tp3047
F0.0004697040864255519
s(S'is'
p3048
S'arrested'
p3049
S'[[con]]'
p3050
tp3051
F0.0004697040864255519
s(S'also'
p3052
S'wrote'
p3053
S'in'
p3054
tp3055
F0.0004697040864255519
s(S'[[adj]]'
p3056
S'member'
p3057
S'[[det]]'
p3058
tp3059
F0.0004697040864255519
s(S'had'
p3060
S'joined'
p3061
S'of'
p3062
tp3063
F0.0004697040864255519
s(S'as'
p3064
S'editor'
p3065
S'of'
p3066
tp3067
F0.0004697040864255519
s(S'instead'
p3068
S'appointed'
p3069
S'[[pro]]'
p3070
tp3071
F0.0004697040864255519
s(S'had'
p3072
S'met'
p3073
S'when'
p3074
tp3075
F0.0004697040864255519
s(S'had'
p3076
S'appeared'
p3077
S'in'
p3078
tp3079
F0.0004697040864255519
s(S'[[con]]'
p3080
S'met'
p3081
S'up'
p3082
tp3083
F0.0004697040864255519
s(S'then'
p3084
S'worked'
p3085
S'before'
p3086
tp3087
F0.0004697040864255519
s(S'[[num]]'
p3088
S'worked'
p3089
S'with'
p3090
tp3091
F0.0004697040864255519
s(S'[[con]]'
p3092
S'joined'
p3093
S'[[det]]'
p3094
tp3095
F0.0004697040864255519
s(S'best'
p3096
S'known'
p3097
S'on'
p3098
tp3099
F0.0004697040864255519
s(S'is'
p3100
S'known'
p3101
S'[[adj]]'
p3102
tp3103
F0.0004697040864255519
s(S'where'
p3104
S'met'
p3105
S'[[det]]'
p3106
tp3107
F0.0004697040864255519
s(S'were'
p3108
S'awarded'
p3109
S'from'
p3110
tp3111
F0.0004697040864255519
s(S'[[pro]]'
p3112
S'worked'
p3113
S'with'
p3114
tp3115
F0.0004697040864255519
s(S'while'
p3116
S'served'
p3117
S'as'
p3118
tp3119
F0.0004697040864255519
s(S'[[num]]'
p3120
S'founder'
p3121
S'of'
p3122
tp3123
F0.0004697040864255519
s(S'has'
p3124
S'worked'
p3125
S'among'
p3126
tp3127
F0.0004697040864255519
s(g813
g814
S'lt'
p3128
tp3129
F0.0004697040864255519
s(S'been'
p3130
S'working'
p3131
S'[[con]]'
p3132
tp3133
F0.0004697040864255519
s(S'[[mod]]'
p3134
S'play'
p3135
S'[[con]]'
p3136
tp3137
F0.0004697040864255519
s(g909
g910
S'are'
p3138
tp3139
F0.0004697040864255519
s(S'also'
p3140
S'nominated'
p3141
g2124
tp3142
F0.0004697040864255519
s(g958
g2544
g2545
tp3143
F0.0004697040864255519
s(g1543
g1393
g1394
tp3144
F0.0004697040864255519
s(S'which'
p3145
S'led'
p3146
S'at'
p3147
tp3148
F0.0004697040864255519
s(g2247
g2248
S'ref'
p3149
tp3150
F0.0004697040864255519
s(S'be'
p3151
S'awarded'
p3152
S'by'
p3153
tp3154
F0.0004697040864255519
s(g2039
g2040
S'of'
p3155
tp3156
F0.0018788163457022077
s(S'performed'
p3157
S'[[adj]]'
p3158
S'ref'
p3159
tp3160
F0.0009394081728511038
s(S'[[adj]]'
p3161
S'served'
p3162
S'on'
p3163
tp3164
F0.0004697040864255519
s(S'[[num]]'
p3165
S'served'
p3166
S'as'
p3167
tp3168
F0.0004697040864255519
s(S'[[pro]]'
p3169
S'appeared'
p3170
S'on'
p3171
tp3172
F0.0004697040864255519
s(S'[[adj]]'
p3173
S'president'
p3174
S'[[num]]'
p3175
tp3176
F0.0004697040864255519
s(S'then'
p3177
S'worked'
p3178
S'to'
p3179
tp3180
F0.0004697040864255519
s(S'also'
p3181
S'wrote'
p3182
S'[[num]]'
p3183
tp3184
F0.0004697040864255519
s(S'also'
p3185
S'served'
p3186
S'with'
p3187
tp3188
F0.0004697040864255519
s(S'was'
p3189
S'editor'
p3190
S'for'
p3191
tp3192
F0.0004697040864255519
s(S'is'
p3193
S'arrested'
p3194
S'along'
p3195
tp3196
F0.0004697040864255519
s(S'[[con]]'
p3197
S'lt'
p3198
S'[[num]]'
p3199
tp3200
F0.0004697040864255519
s(S'had'
p3201
S'appointed'
p3202
S'as'
p3203
tp3204
F0.0004697040864255519
s(S'also'
p3205
S'known'
p3206
S'on'
p3207
tp3208
F0.0004697040864255519
s(S'to'
p3209
S'play'
p3210
S'[[det]]'
p3211
tp3212
F0.0004697040864255519
s(S'then'
p3213
S'served'
p3214
S'before'
p3215
tp3216
F0.0004697040864255519
s(S'[[adj]]'
p3217
S'film'
p3218
S'of'
p3219
tp3220
F0.0004697040864255519
s(S'[[con]]'
p3221
S'professor'
p3222
S'in'
p3223
tp3224
F0.0004697040864255519
s(S'while'
p3225
S'joined'
p3226
S'[[det]]'
p3227
tp3228
F0.0004697040864255519
s(S'also'
p3229
S'served'
p3230
S'[[det]]'
p3231
tp3232
F0.0004697040864255519
s(S'then'
p3233
S'returned'
p3234
S'in'
p3235
tp3236
F0.0004697040864255519
s(S'also'
p3237
S'served'
p3238
S'as'
p3239
tp3240
F0.0014091122592766556
s(S'has'
p3241
S'worked'
p3242
S'together'
p3243
tp3244
F0.0004697040864255519
s(S'was'
p3245
S'appointed'
p3246
S'first'
p3247
tp3248
F0.0004697040864255519
s(S'first'
p3249
S'appeared'
p3250
S'[[con]]'
p3251
tp3252
F0.0004697040864255519
s(S'[[num]]'
p3253
S'book'
p3254
S'[[con]]'
p3255
tp3256
F0.0004697040864255519
s(S'[[adj]]'
p3257
S'officer'
p3258
S'of'
p3259
tp3260
F0.0004697040864255519
s(S'was'
p3261
S'returned'
p3262
S'in'
p3263
tp3264
F0.0004697040864255519
s(S'better'
p3265
S'known'
p3266
S'as'
p3267
tp3268
F0.0004697040864255519
s(S'where'
p3269
S'worked'
p3270
S'under'
p3271
tp3272
F0.0004697040864255519
s(S'[[det]]'
p3273
S'lt'
p3274
S'ref'
p3275
tp3276
F0.0023485204321277596
s(S'as'
p3277
S'[[det]]'
p3278
S'officer'
p3279
tp3280
F0.0014091122592766556
s(S'first'
p3281
S'worked'
p3282
S'with'
p3283
tp3284
F0.0004697040864255519
s(S'gt'
p3285
g2270
g2271
tp3286
F0.0004697040864255519
s(S'then'
p3287
S'served'
p3288
S'to'
p3289
tp3290
F0.0004697040864255519
s(S'[[mod]]'
p3291
S'play'
p3292
S'[[num]]'
p3293
tp3294
F0.0004697040864255519
s(g531
g532
g1012
tp3295
F0.0004697040864255519
s(S'also'
p3296
S'host'
p3297
S'of'
p3298
tp3299
F0.0004697040864255519
s(S'ref'
p3300
g1783
g1784
tp3301
F0.0004697040864255519
s(S'[[num]]'
p3302
S'working'
p3303
S'with'
p3304
tp3305
F0.0004697040864255519
s(S'then'
p3306
S'served'
p3307
S'on'
p3308
tp3309
F0.0004697040864255519
s(S'later'
p3310
S'worked'
p3311
S'with'
p3312
tp3313
F0.0004697040864255519
s(S'[[con]]'
p3314
S'professor'
p3315
S'[[det]]'
p3316
tp3317
F0.0004697040864255519
s(S'was'
p3318
S'editor'
p3319
S'of'
p3320
tp3321
F0.0004697040864255519
s(g3158
g3159
g410
tp3322
F0.0028182245185533112
s(S'also'
p3323
S'oversaw'
p3324
S'[[det]]'
p3325
tp3326
F0.0004697040864255519
s(S'was'
p3327
S'professor'
p3328
S'[[con]]'
p3329
tp3330
F0.0004697040864255519
s(S'is'
p3331
S'known'
p3332
S'also'
p3333
tp3334
F0.0004697040864255519
s(S'[[adj]]'
p3335
S'years'
p3336
S'at'
p3337
tp3338
F0.0004697040864255519
s(g3141
g2124
g1841
tp3339
F0.0004697040864255519
s(S'is'
p3340
S'working'
p3341
S'as'
p3342
tp3343
F0.0004697040864255519
s(S'then'
p3344
S'worked'
p3345
S'where'
p3346
tp3347
F0.0004697040864255519
s(S'was'
p3348
S'known'
p3349
S'while'
p3350
tp3351
F0.0004697040864255519
s(S'lt'
p3352
S'blockquote'
p3353
S'gt'
p3354
tp3355
F0.0009394081728511038
s(S'later'
p3356
S'served'
p3357
S'from'
p3358
tp3359
F0.0004697040864255519
s(S'been'
p3360
S'president'
p3361
S'of'
p3362
tp3363
F0.0004697040864255519
s(S'since'
p3364
S'appeared'
p3365
S'as'
p3366
tp3367
F0.0004697040864255519
s(S'became'
p3368
S'involved'
p3369
S'after'
p3370
tp3371
F0.0004697040864255519
s(S'[[con]]'
p3372
S'joined'
p3373
S'from'
p3374
tp3375
F0.0004697040864255519
s(S'was'
p3376
S'director'
p3377
S'of'
p3378
tp3379
F0.0004697040864255519
s(S'had'
p3380
S'returned'
p3381
S'to'
p3382
tp3383
F0.0004697040864255519
s(S'were'
p3384
S'awarded'
p3385
S'[[det]]'
p3386
tp3387
F0.0004697040864255519
s(S'where'
p3388
S'worked'
p3389
S'as'
p3390
tp3391
F0.0004697040864255519
s(g173
S'worked'
p3392
S'as'
p3393
tp3394
F0.0004697040864255519
s(S'gt'
p3395
S'[[prp]]'
p3396
S'students'
p3397
tp3398
F0.0004697040864255519
s(S'when'
p3399
S'retired'
p3400
S'from'
p3401
tp3402
F0.0004697040864255519
s(S'until'
p3403
S'retired'
p3404
S'from'
p3405
tp3406
F0.0004697040864255519
s(g173
S'worked'
p3407
S'with'
p3408
tp3409
F0.0004697040864255519
s(S'had'
p3410
S'known'
p3411
S'since'
p3412
tp3413
F0.0004697040864255519
s(S'called'
p3414
S'[[det]]'
p3415
S'lt'
p3416
tp3417
F0.0004697040864255519
s(S'also'
p3418
S'worked'
p3419
S'with'
p3420
tp3421
F0.0004697040864255519
s(S'is'
p3422
S'working'
p3423
S'with'
p3424
tp3425
F0.0004697040864255519
s(S'was'
p3426
S'chairman'
p3427
S'[[con]]'
p3428
tp3429
F0.0009394081728511038
s(S'has'
p3430
S'served'
p3431
S'as'
p3432
tp3433
F0.0014091122592766556
s(S'[[det]]'
p3434
S'member'
p3435
S'[[det]]'
p3436
tp3437
F0.0004697040864255519
s(S'also'
p3438
S'known'
p3439
S'[[con]]'
p3440
tp3441
F0.0004697040864255519
s(S'is'
p3442
S'professor'
p3443
S'[[con]]'
p3444
tp3445
F0.0004697040864255519
s(S'[[adj]]'
p3446
S'introduced'
p3447
S'to'
p3448
tp3449
F0.0004697040864255519
s(S'also'
p3450
S'served'
p3451
S'in'
p3452
tp3453
F0.0004697040864255519
s(S'later'
p3454
S'known'
p3455
S'as'
p3456
tp3457
F0.0004697040864255519
s(S'[[con]]'
p3458
S'met'
p3459
S'[[det]]'
p3460
tp3461
F0.0004697040864255519
s(S'[[det]]'
p3462
S'head'
p3463
S'[[det]]'
p3464
tp3465
F0.0004697040864255519
s(S'is'
p3466
S'appointed'
p3467
S'[[det]]'
p3468
tp3469
F0.0004697040864255519
s(S'lt'
p3470
g2841
g2842
tp3471
F0.05777360263034288
s(S'best'
p3472
S'known'
p3473
S'along'
p3474
tp3475
F0.0004697040864255519
s(S'wrote'
p3476
g1327
g1328
tp3477
F0.0004697040864255519
s(S'has'
p3478
S'appeared'
p3479
S'[[num]]'
p3480
tp3481
F0.0004697040864255519
s(S'also'
p3482
S'wrote'
p3483
S'for'
p3484
tp3485
F0.0004697040864255519
s(S'becoming'
p3486
S'president'
p3487
S'of'
p3488
tp3489
F0.0004697040864255519
s(S'[[det]]'
p3490
S'member'
p3491
S'on'
p3492
tp3493
F0.0004697040864255519
s(g957
g958
g2544
tp3494
F0.0004697040864255519
s(S'[[det]]'
p3495
S'film'
p3496
S'of'
p3497
tp3498
F0.0004697040864255519
s(S'was'
p3499
S'known'
p3500
S'being'
p3501
tp3502
F0.0004697040864255519
s(S'[[num]]'
p3503
S'years'
p3504
S'[[con]]'
p3505
tp3506
F0.0004697040864255519
s(S'has'
p3507
S'worked'
p3508
S'at'
p3509
tp3510
F0.0004697040864255519
s(S'later'
p3511
S'served'
p3512
S'on'
p3513
tp3514
F0.0004697040864255519
s(S'was'
p3515
S'awarded'
p3516
S'[[con]]'
p3517
tp3518
F0.0004697040864255519
s(S'have'
p3519
S'joined'
p3520
S'[[det]]'
p3521
tp3522
F0.0004697040864255519
s(S'[[adj]]'
p3523
S'member'
p3524
S'on'
p3525
tp3526
F0.0004697040864255519
s(S'[[adj]]'
p3527
S'professor'
p3528
S'of'
p3529
tp3530
F0.0004697040864255519
s(S'be'
p3531
S'appointed'
p3532
S'to'
p3533
tp3534
F0.0004697040864255519
s(S'later'
p3535
S'met'
p3536
S'with'
p3537
tp3538
F0.0004697040864255519
s(S'[[det]]'
p3539
S'member'
p3540
S'as'
p3541
tp3542
F0.0004697040864255519
s(S'ref'
p3543
S'gt'
p3544
S'worked'
p3545
tp3546
F0.0009394081728511038
s(g173
S'worked'
p3547
S'on'
p3548
tp3549
F0.0004697040864255519
s(S'then'
p3550
S'appeared'
p3551
S'as'
p3552
tp3553
F0.0004697040864255519
s(S'ref'
p3554
S'gt'
p3555
S'brought'
p3556
tp3557
F0.0004697040864255519
s(S'accessed'
p3558
S'lt'
p3559
S'ref'
p3560
tp3561
F0.0004697040864255519
s(S'later'
p3562
S'served'
p3563
S'as'
p3564
tp3565
F0.0004697040864255519
s(g1874
g1875
S'ref'
p3566
tp3567
F0.0004697040864255519
s(S'became'
p3568
S'involved'
p3569
S'with'
p3570
tp3571
F0.0004697040864255519
s(S'had'
p3572
S'served'
p3573
S'on'
p3574
tp3575
F0.0004697040864255519
s(S'gt'
p3576
S'has'
p3577
S'worked'
p3578
tp3579
F0.0004697040864255519
s(S'also'
p3580
S'appointed'
p3581
S'as'
p3582
tp3583
F0.0004697040864255519
s(S'twice'
p3584
S'served'
p3585
S'as'
p3586
tp3587
F0.0004697040864255519
s(S'[[con]]'
p3588
S'appointed'
p3589
S'to'
p3590
tp3591
F0.0004697040864255519
s(g500
S'[[prp]]'
p3592
S'siblings'
p3593
tp3594
F0.0004697040864255519
s(S'be'
p3595
S'known'
p3596
S'as'
p3597
tp3598
F0.0004697040864255519
s(S'been'
p3599
S'created'
p3600
S'[[det]]'
p3601
tp3602
F0.0004697040864255519
s(S'[[adj]]'
p3603
S'served'
p3604
S'as'
p3605
tp3606
F0.0004697040864255519
s(S'just'
p3607
S'returned'
p3608
S'from'
p3609
tp3610
F0.0004697040864255519
s(S'later'
p3611
S'appeared'
p3612
S'on'
p3613
tp3614
F0.0004697040864255519
s(S'[[det]]'
p3615
S'student'
p3616
S'[[con]]'
p3617
tp3618
F0.0004697040864255519
s(S'also'
p3619
S'known'
p3620
S'[[adj]]'
p3621
tp3622
F0.0004697040864255519
s(S'also'
p3623
S'appeared'
p3624
S'during'
p3625
tp3626
F0.0004697040864255519
s(S'began'
p3627
S'singing'
p3628
g649
tp3629
F0.0004697040864255519
s(S'was'
p3630
S'involved'
p3631
S'to'
p3632
tp3633
F0.0004697040864255519
s(S'also'
p3634
S'awarded'
p3635
S'at'
p3636
tp3637
F0.0004697040864255519
s(S'[[adj]]'
p3638
S'host'
p3639
S'of'
p3640
tp3641
F0.0004697040864255519
s(S'is'
p3642
S'member'
p3643
S'of'
p3644
tp3645
F0.0004697040864255519
s(S'first'
p3646
S'met'
p3647
S'with'
p3648
tp3649
F0.0004697040864255519
s(S'that'
p3650
S'worked'
p3651
S'for'
p3652
tp3653
F0.0004697040864255519
s(S'who'
p3654
S'joined'
p3655
S'from'
p3656
tp3657
F0.0004697040864255519
s(S'[[num]]'
p3658
S'returned'
p3659
S'to'
p3660
tp3661
F0.0004697040864255519
s(S'later'
p3662
S'founded'
p3663
S'[[det]]'
p3664
tp3665
F0.0004697040864255519
s(g2933
g1849
g1850
tp3666
F0.0004697040864255519
s(g2279
g2280
S'of'
p3667
tp3668
F0.0004697040864255519
s(S'pages'
p3669
S'[[num]]'
p3670
S'lt'
p3671
tp3672
F0.0004697040864255519
s(S'ranked'
p3673
S'[[adj]]'
p3674
S'lt'
p3675
tp3676
F0.0004697040864255519
s(S'also'
p3677
S'appeared'
p3678
g173
tp3679
F0.0004697040864255519
s(S'also'
p3680
S'worked'
p3681
S'[[con]]'
p3682
tp3683
F0.0004697040864255519
s(S'has'
p3684
S'served'
p3685
S'[[det]]'
p3686
tp3687
F0.0004697040864255519
s(S'then'
p3688
S'appointed'
p3689
S'as'
p3690
tp3691
F0.0004697040864255519
s(S'[[num]]'
p3692
S'film'
p3693
S'[[con]]'
p3694
tp3695
F0.0004697040864255519
s(S'[[mod]]'
p3696
S'play'
p3697
S'for'
p3698
tp3699
F0.0004697040864255519
s(g2958
g2959
g2977
tp3700
F0.0004697040864255519
s(S'[[adj]]'
p3701
S'director'
p3702
S'at'
p3703
tp3704
F0.0004697040864255519
s(S'later'
p3705
S'appointed'
p3706
S'[[pro]]'
p3707
tp3708
F0.0004697040864255519
s(S'is'
p3709
S'appointed'
p3710
S'[[con]]'
p3711
tp3712
F0.0004697040864255519
s(g173
S'appeared'
p3713
S'on'
p3714
tp3715
F0.0004697040864255519
s(S'who'
p3716
S'worked'
p3717
S'with'
p3718
tp3719
F0.0004697040864255519
s(S'manager'
p3720
S'lt'
p3721
S'ref'
p3722
tp3723
F0.0004697040864255519
s(S'also'
p3724
S'served'
p3725
S'[[adj]]'
p3726
tp3727
F0.0004697040864255519
s(S'[[mod]]'
p3728
S'play'
p3729
S'again'
p3730
tp3731
F0.0004697040864255519
s(S'is'
p3732
S'head'
p3733
S'of'
p3734
tp3735
F0.0004697040864255519
s(S'ref'
p3736
g1473
g1474
tp3737
F0.0004697040864255519
s(S'later'
p3738
S'claimed'
p3739
S'to'
p3740
tp3741
F0.0004697040864255519
s(S'first'
p3742
S'met'
p3743
S'at'
p3744
tp3745
F0.0004697040864255519
s(S'[[con]]'
p3746
S'claimed'
p3747
S'that'
p3748
tp3749
F0.0004697040864255519
s(S'was'
p3750
S'named'
p3751
S'by'
p3752
tp3753
F0.0004697040864255519
s(S'then'
p3754
S'joined'
p3755
S'with'
p3756
tp3757
F0.0004697040864255519
s(S'[[adj]]'
p3758
S'editor'
p3759
S'of'
p3760
tp3761
F0.0004697040864255519
s(S'again'
p3762
S'served'
p3763
S'as'
p3764
tp3765
F0.0004697040864255519
s(S'is'
p3766
S'known'
p3767
S'[[con]]'
p3768
tp3769
F0.0004697040864255519
s(S'twice'
p3770
S'served'
p3771
S'in'
p3772
tp3773
F0.0004697040864255519
s(S'made'
p3774
S'head'
p3775
S'of'
p3776
tp3777
F0.0004697040864255519
s(S'[[adj]]'
p3778
g2788
g2789
tp3779
F0.0004697040864255519
s(S'[[adj]]'
p3780
S'established'
p3781
S'[[pro]]'
p3782
tp3783
F0.0004697040864255519
s(S'is'
p3784
S'director'
p3785
S'for'
p3786
tp3787
F0.0004697040864255519
s(S'first'
p3788
S'worked'
p3789
S'[[con]]'
p3790
tp3791
F0.0004697040864255519
s(S'[[det]]'
p3792
S'member'
p3793
S'who'
p3794
tp3795
F0.0004697040864255519
s(S'has'
p3796
S'worked'
p3797
S'to'
p3798
tp3799
F0.0004697040864255519
s(S'[[num]]'
p3800
S'page'
p3801
S'[[num]]'
p3802
tp3803
F0.0009394081728511038
s(g2553
g1000
g1001
tp3804
F0.0004697040864255519
s(S'later'
p3805
S'play'
p3806
S'for'
p3807
tp3808
F0.0004697040864255519
s(S'[[mod]]'
p3809
S'join'
p3810
S'at'
p3811
tp3812
F0.0004697040864255519
s(S'is'
p3813
S'president'
p3814
S'of'
p3815
tp3816
F0.0004697040864255519
s(S'been'
p3817
S'appointed'
p3818
S'as'
p3819
tp3820
F0.0004697040864255519
s(S'[[adj]]'
p3821
S'book'
p3822
S'[[num]]'
p3823
tp3824
F0.0004697040864255519
s(S'had'
p3825
S'served'
p3826
S'with'
p3827
tp3828
F0.0004697040864255519
s(S'was'
p3829
S'professor'
p3830
S'in'
p3831
tp3832
F0.0004697040864255519
s(g173
S'gt'
p3833
S'lt'
p3834
tp3835
F0.0004697040864255519
s(S'[[mod]]'
p3836
S'join'
p3837
S'up'
p3838
tp3839
F0.0004697040864255519
s(S'also'
p3840
S'known'
p3841
S'to'
p3842
tp3843
F0.0004697040864255519
s(S'while'
p3844
S'working'
p3845
S'to'
p3846
tp3847
F0.0004697040864255519
s(S'been'
p3848
S'awarded'
p3849
S'at'
p3850
tp3851
F0.0004697040864255519
s(S'again'
p3852
S'named'
p3853
S'by'
p3854
tp3855
F0.0004697040864255519
s(S'is'
p3856
S'known'
p3857
S'on'
p3858
tp3859
F0.0004697040864255519
s(S'[[adj]]'
p3860
S'founder'
p3861
S'[[con]]'
p3862
tp3863
F0.0004697040864255519
s(S'was'
p3864
S'arrested'
p3865
S'on'
p3866
tp3867
F0.0004697040864255519
s(S'then'
p3868
S'wrote'
p3869
S'for'
p3870
tp3871
F0.0004697040864255519
s(S'become'
p3872
S'head'
p3873
S'of'
p3874
tp3875
F0.0004697040864255519
s(S'[[con]]'
p3876
S'worked'
p3877
S'[[prp]]'
p3878
tp3879
F0.0004697040864255519
s(S'be'
p3880
S'appointed'
p3881
S'at'
p3882
tp3883
F0.0004697040864255519
s(S'again'
p3884
S'returned'
p3885
S'to'
p3886
tp3887
F0.0004697040864255519
s(S'was'
p3888
S'met'
p3889
S'by'
p3890
tp3891
F0.0004697040864255519
s(S'made'
p3892
S'professor'
p3893
S'at'
p3894
tp3895
F0.0004697040864255519
s(S'was'
p3896
S'awarded'
p3897
S'[[num]]'
p3898
tp3899
F0.0004697040864255519
s(S'been'
p3900
S'named'
p3901
S'[[det]]'
p3902
tp3903
F0.0004697040864255519
s(S'first'
p3904
S'appeared'
p3905
S'on'
p3906
tp3907
F0.0004697040864255519
s(S'later'
p3908
S'introduced'
p3909
S'to'
p3910
tp3911
F0.0004697040864255519
s(S'most'
p3912
S'known'
p3913
S'with'
p3914
tp3915
F0.0004697040864255519
s(S'has'
p3916
S'worked'
p3917
S'along'
p3918
tp3919
F0.0004697040864255519
s(S'also'
p3920
S'worked'
p3921
S'from'
p3922
tp3923
F0.0004697040864255519
s(S'then'
p3924
S'head'
p3925
S'of'
p3926
tp3927
F0.0004697040864255519
s(S'then'
p3928
S'named'
p3929
S'[[det]]'
p3930
tp3931
F0.0004697040864255519
s(S'[[num]]'
p3932
S'gt'
p3933
S'for'
p3934
tp3935
F0.0004697040864255519
s(S'also'
p3936
S'served'
p3937
S'[[con]]'
p3938
tp3939
F0.0004697040864255519
s(S'became'
p3940
S'head'
p3941
S'for'
p3942
tp3943
F0.0004697040864255519
s(S'[[num]]'
p3944
S'gt'
p3945
S'[[num]]'
p3946
tp3947
F0.0004697040864255519
s(S'[[det]]'
p3948
S'member'
p3949
S'has'
p3950
tp3951
F0.0004697040864255519
s(S'was'
p3952
S'born'
p3953
S'[[adj]]'
p3954
tp3955
F0.0004697040864255519
s(g2207
g1107
g1108
tp3956
F0.0004697040864255519
s(S'[[con]]'
p3957
S'led'
p3958
S'[[det]]'
p3959
tp3960
F0.0004697040864255519
s(S'[[num]]'
p3961
S'ref'
p3962
S'worked'
p3963
tp3964
F0.0004697040864255519
s(S'also'
p3965
S'met'
p3966
S'with'
p3967
tp3968
F0.0004697040864255519
s(S'where'
p3969
S'served'
p3970
S'in'
p3971
tp3972
F0.0004697040864255519
s(S'also'
p3973
S'wrote'
p3974
S'as'
p3975
tp3976
F0.0004697040864255519
s(S'was'
p3977
S'professor'
p3978
S'[[det]]'
p3979
tp3980
F0.0004697040864255519
s(S'had'
p3981
S'founded'
p3982
S'[[det]]'
p3983
tp3984
F0.0004697040864255519
s(S'born'
p3985
S'[[adj]]'
p3986
S'ref'
p3987
tp3988
F0.0014091122592766556
s(S'is'
p3989
S'known'
p3990
S'for'
p3991
tp3992
F0.0004697040864255519
s(S'was'
p3993
S'awarded'
p3994
S'[[adj]]'
p3995
tp3996
F0.0004697040864255519
s(S'[[adj]]'
p3997
S'met'
p3998
S'while'
p3999
tp4000
F0.0004697040864255519
s(S'[[det]]'
p4001
S'film'
p4002
S'on'
p4003
tp4004
F0.0004697040864255519
s(S'[[det]]'
p4005
S'director'
p4006
S'[[det]]'
p4007
tp4008
F0.0004697040864255519
s(S'became'
p4009
S'editor'
p4010
S'of'
p4011
tp4012
F0.0004697040864255519
s(S'[[det]]'
p4013
S'officer'
p4014
S'of'
p4015
tp4016
F0.0004697040864255519
s(S'at'
p4017
S'lt'
p4018
S'[[num]]'
p4019
tp4020
F0.0004697040864255519
s(S'[[adj]]'
p4021
S'president'
p4022
S'for'
p4023
tp4024
F0.0004697040864255519
s(S'[[det]]'
p4025
S'owner'
p4026
S'[[con]]'
p4027
tp4028
F0.0004697040864255519
s(g3962
g3963
S'for'
p4029
tp4030
F0.0004697040864255519
s(S'best'
p4031
S'known'
p4032
S'by'
p4033
tp4034
F0.0004697040864255519
s(S'[[adj]]'
p4035
S'professor'
p4036
S'for'
p4037
tp4038
F0.0004697040864255519
s(g1690
g1691
S'gt'
p4039
tp4040
F0.0018788163457022077
s(S'was'
p4041
S'appointed'
p4042
S'with'
p4043
tp4044
F0.0004697040864255519
s(S'had'
p4045
S'worked'
p4046
S'under'
p4047
tp4048
F0.0004697040864255519
s(S'is'
p4049
S'involved'
p4050
S'[[con]]'
p4051
tp4052
F0.0004697040864255519
s(g2790
S'lt'
p4053
S'ref'
p4054
tp4055
F0.0009394081728511038
s(S'to'
p4056
S'play'
p4057
S'in'
p4058
tp4059
F0.0004697040864255519
s(g2100
S'name'
p4060
S'gt'
p4061
tp4062
F0.008454673555659934
s(S'later'
p4063
S'appeared'
p4064
S'as'
p4065
tp4066
F0.0004697040864255519
s(S'still'
p4067
S'working'
p4068
S'in'
p4069
tp4070
F0.0004697040864255519
s(S'become'
p4071
S'president'
p4072
S'of'
p4073
tp4074
F0.0004697040864255519
s(g1547
S'winter'
p4075
S'[[con]]'
p4076
tp4077
F0.0004697040864255519
s(S'is'
p4078
S'met'
p4079
S'by'
p4080
tp4081
F0.0004697040864255519
s(S'[[adj]]'
p4082
S'book'
p4083
S'for'
p4084
tp4085
F0.0004697040864255519
s(S'had'
p4086
S'served'
p4087
S'[[con]]'
p4088
tp4089
F0.0004697040864255519
s(S'still'
p4090
S'working'
p4091
S'on'
p4092
tp4093
F0.0004697040864255519
s(S'[[prp]]'
p4094
S'book'
p4095
S'in'
p4096
tp4097
F0.0004697040864255519
s(S'[[con]]'
p4098
S'worked'
p4099
S'for'
p4100
tp4101
F0.0004697040864255519
s(S'again'
p4102
S'appointed'
p4103
S'as'
p4104
tp4105
F0.0004697040864255519
s(S'also'
p4106
S'established'
p4107
S'at'
p4108
tp4109
F0.0004697040864255519
s(S'[[det]]'
p4110
S'president'
p4111
S'[[con]]'
p4112
tp4113
F0.0004697040864255519
s(S'have'
p4114
S'met'
p4115
S'[[con]]'
p4116
tp4117
F0.0004697040864255519
s(S'[[det]]'
p4118
S'head'
p4119
S'of'
p4120
tp4121
F0.0004697040864255519
s(S'has'
p4122
S'worked'
p4123
S'[[con]]'
p4124
tp4125
F0.0004697040864255519
s(S'[[con]]'
p4126
S'oversaw'
p4127
S'[[det]]'
p4128
tp4129
F0.0004697040864255519
s(S'was'
p4130
S'appointed'
p4131
S'[[num]]'
p4132
tp4133
F0.0004697040864255519
s(S'had'
p4134
S'worked'
p4135
S'in'
p4136
tp4137
F0.0004697040864255519
s(S'where'
p4138
S'met'
p4139
S'with'
p4140
tp4141
F0.0004697040864255519
s(S'is'
p4142
S'awarded'
p4143
S'by'
p4144
tp4145
F0.0004697040864255519
s(S'was'
p4146
S'host'
p4147
S'on'
p4148
tp4149
F0.0004697040864255519
s(S'later'
p4150
S'appointed'
p4151
S'[[con]]'
p4152
tp4153
F0.0004697040864255519
s(S'later'
p4154
S'appeared'
p4155
S'[[con]]'
p4156
tp4157
F0.0004697040864255519
s(S'[[adj]]'
p4158
S'director'
p4159
S'of'
p4160
tp4161
F0.0004697040864255519
s(S'currently'
p4162
S'working'
p4163
S'as'
p4164
tp4165
F0.0004697040864255519
s(S'later'
p4166
S'wrote'
p4167
S'[[det]]'
p4168
tp4169
F0.0004697040864255519
s(S'which'
p4170
S'led'
p4171
S'[[det]]'
p4172
tp4173
F0.0004697040864255519
s(S'ref'
p4174
S'gt'
p4175
S'appeared'
p4176
tp4177
F0.0004697040864255519
s(S'ref'
p4178
S'gt'
p4179
S'at'
p4180
tp4181
F0.0004697040864255519
s(g3555
g3556
S'[[pro]]'
p4182
tp4183
F0.0004697040864255519
s(S'[[adj]]'
p4184
S'editor'
p4185
S'[[det]]'
p4186
tp4187
F0.0004697040864255519
s(S'has'
p4188
S'worked'
p4189
S'under'
p4190
tp4191
F0.0004697040864255519
s(S'[[adj]]'
p4192
S'member'
p4193
S'[[num]]'
p4194
tp4195
F0.0004697040864255519
s(g977
g978
S'gt'
p4196
tp4197
F0.0023485204321277596
s(S'[[con]]'
p4198
S'served'
p4199
S'[[det]]'
p4200
tp4201
F0.0004697040864255519
s(S'where'
p4202
S'served'
p4203
S'as'
p4204
tp4205
F0.0004697040864255519
s(S'[[adj]]'
p4206
S'member'
p4207
S'at'
p4208
tp4209
F0.0004697040864255519
s(S'has'
p4210
S'claimed'
p4211
S'that'
p4212
tp4213
F0.0004697040864255519
s(S'was'
p4214
S'involved'
p4215
S'[[det]]'
p4216
tp4217
F0.0004697040864255519
s(S'to'
p4218
S'play'
p4219
S'[[con]]'
p4220
tp4221
F0.0004697040864255519
s(S'[[num]]'
p4222
S'book'
p4223
S'of'
p4224
tp4225
F0.0004697040864255519
s(S'as'
p4226
S'officer'
p4227
S'for'
p4228
tp4229
F0.0004697040864255519
s(g3577
g3578
S'with'
p4230
tp4231
F0.0009394081728511038
s(g2495
S'gt'
p4232
S'[[con]]'
p4233
tp4234
F0.0014091122592766556
s(S'[[det]]'
p4235
S'editor'
p4236
S'at'
p4237
tp4238
F0.0004697040864255519
s(S'was'
p4239
S'working'
p4240
S'as'
p4241
tp4242
F0.0004697040864255519
s(S'became'
p4243
S'president'
p4244
S'[[con]]'
p4245
tp4246
F0.0004697040864255519
s(S'ref'
p4247
g1861
g1862
tp4248
F0.0004697040864255519
s(S'who'
p4249
S'appointed'
p4250
S'[[det]]'
p4251
tp4252
F0.0004697040864255519
s(S'to'
p4253
S'play'
p4254
S'with'
p4255
tp4256
F0.0004697040864255519
s(S'[[num]]'
p4257
S'years'
p4258
S'[[adj]]'
p4259
tp4260
F0.0004697040864255519
s(g173
S'book'
p4261
S'of'
p4262
tp4263
F0.0004697040864255519
s(S'also'
p4264
S'worked'
p4265
S'[[det]]'
p4266
tp4267
F0.0004697040864255519
s(S'[[con]]'
p4268
S'appointed'
p4269
S'of'
p4270
tp4271
F0.0004697040864255519
s(S'became'
p4272
S'president'
p4273
S'[[det]]'
p4274
tp4275
F0.0004697040864255519
s(S'[[det]]'
p4276
S'president'
p4277
S'which'
p4278
tp4279
F0.0004697040864255519
s(S'[[con]]'
p4280
S'introduced'
p4281
S'to'
p4282
tp4283
F0.0004697040864255519
s(S'ref'
p4284
S'gt'
p4285
S'with'
p4286
tp4287
F0.0009394081728511038
s(S'currently'
p4288
S'working'
p4289
S'to'
p4290
tp4291
F0.0004697040864255519
s(S'[[con]]'
p4292
S'lt'
p4293
S'ref'
p4294
tp4295
F0.0009394081728511038
s(S'first'
p4296
S'joined'
p4297
S'[[con]]'
p4298
tp4299
F0.0004697040864255519
s(g173
S'book'
p4300
S'[[con]]'
p4301
tp4302
F0.0004697040864255519
s(S'since'
p4303
S'worked'
p4304
S'for'
p4305
tp4306
F0.0004697040864255519
s(g757
g758
S'[[num]]'
p4307
tp4308
F0.0004697040864255519
s(S'also'
p4309
S'served'
p4310
S'where'
p4311
tp4312
F0.0004697040864255519
s(S'gt'
p4313
g1207
g1208
tp4314
F0.0004697040864255519
s(S'worked'
p4315
g2825
g2826
tp4316
F0.0004697040864255519
s(S'then'
p4317
S'worked'
p4318
S'under'
p4319
tp4320
F0.0004697040864255519
s(S'page'
p4321
S'[[num]]'
p4322
S'lt'
p4323
tp4324
F0.0014091122592766556
s(S'best'
p4325
S'known'
p4326
S'among'
p4327
tp4328
F0.0004697040864255519
s(S'was'
p4329
S'awarded'
p4330
S'by'
p4331
tp4332
F0.0004697040864255519
s(S'became'
p4333
S'member'
p4334
S'for'
p4335
tp4336
F0.0004697040864255519
s(S'married'
p4337
S'[[adj]]'
p4338
S'ref'
p4339
tp4340
F0.0009394081728511038
s(S'also'
p4341
S'led'
p4342
S'[[con]]'
p4343
tp4344
F0.0004697040864255519
s(S'where'
p4345
S'wrote'
p4346
S'for'
p4347
tp4348
F0.0004697040864255519
s(S'[[con]]'
p4349
S'worked'
p4350
S'[[con]]'
p4351
tp4352
F0.0004697040864255519
s(S'in'
p4353
S'working'
p4354
S'on'
p4355
tp4356
F0.0004697040864255519
s(g173
S'book'
p4357
S'[[adj]]'
p4358
tp4359
F0.0004697040864255519
s(S'have'
p4360
S'worked'
p4361
S'at'
p4362
tp4363
F0.0004697040864255519
s(g1394
g1395
S'as'
p4364
tp4365
F0.0004697040864255519
s(S'had'
p4366
S'served'
p4367
S'under'
p4368
tp4369
F0.0004697040864255519
s(S'also'
p4370
S'play'
p4371
S'in'
p4372
tp4373
F0.0004697040864255519
s(S'[[adj]]'
p4374
S'film'
p4375
S'after'
p4376
tp4377
F0.0004697040864255519
s(S'since'
p4378
S'worked'
p4379
S'[[con]]'
p4380
tp4381
F0.0004697040864255519
s(S'[[con]]'
p4382
S'started'
p4383
S'[[det]]'
p4384
tp4385
F0.0004697040864255519
s(S'then'
p4386
S'appointed'
p4387
S'to'
p4388
tp4389
F0.0004697040864255519
s(S'be'
p4390
S'appointed'
p4391
S'[[con]]'
p4392
tp4393
F0.0004697040864255519
s(S'being'
p4394
S'appointed'
p4395
S'as'
p4396
tp4397
F0.0004697040864255519
s(S'later'
p4398
S'served'
p4399
S'under'
p4400
tp4401
F0.0004697040864255519
s(S'then'
p4402
S'awarded'
p4403
S'[[det]]'
p4404
tp4405
F0.0004697040864255519
s(S'best'
p4406
S'known'
p4407
S'[[det]]'
p4408
tp4409
F0.0004697040864255519
s(S'was'
p4410
S'appointed'
p4411
S'was'
p4412
tp4413
F0.0004697040864255519
s(S'became'
p4414
S'involved'
p4415
S'as'
p4416
tp4417
F0.0004697040864255519
s(S'well'
p4418
S'known'
p4419
S'[[det]]'
p4420
tp4421
F0.0004697040864255519
s(S'also'
p4422
S'known'
p4423
S'by'
p4424
tp4425
F0.0004697040864255519
s(S'was'
p4426
S'joined'
p4427
S'[[det]]'
p4428
tp4429
F0.0004697040864255519
s(g1108
g1109
g1802
tp4430
F0.0004697040864255519
s(S'had'
p4431
S'met'
p4432
S'through'
p4433
tp4434
F0.0004697040864255519
s(S'has'
p4435
S'worked'
p4436
S'until'
p4437
tp4438
F0.0004697040864255519
s(S'also'
p4439
S'appointed'
p4440
S'at'
p4441
tp4442
F0.0004697040864255519
s(g551
g552
S'lt'
p4443
tp4444
F0.0004697040864255519
s(S'then'
p4445
S'served'
p4446
S'[[num]]'
p4447
tp4448
F0.0004697040864255519
s(S'[[adj]]'
p4449
S'served'
p4450
S'for'
p4451
tp4452
F0.0004697040864255519
s(S'is'
p4453
S'appointed'
p4454
S'by'
p4455
tp4456
F0.0004697040864255519
s(g173
S'worked'
p4457
S'for'
p4458
tp4459
F0.0004697040864255519
s(g1815
g2933
g1849
tp4460
F0.0004697040864255519
s(S'then'
p4461
S'served'
p4462
S'under'
p4463
tp4464
F0.0004697040864255519
s(S'had'
p4465
S'worked'
p4466
S'to'
p4467
tp4468
F0.0004697040864255519
s(S'is'
p4469
S'cofounder'
p4470
S'of'
p4471
tp4472
F0.0004697040864255519
s(g2506
g2507
S'gt'
p4473
tp4474
F0.0004697040864255519
s(g115
S'judge'
p4475
S'of'
p4476
tp4477
F0.0004697040864255519
s(S'also'
p4478
S'worked'
p4479
S'together'
p4480
tp4481
F0.0004697040864255519
s(S'also'
p4482
S'known'
p4483
S'of'
p4484
tp4485
F0.0004697040864255519
s(S'as'
p4486
S'led'
p4487
S'[[det]]'
p4488
tp4489
F0.0004697040864255519
s(S'gt'
p4490
S'lt'
p4491
S'[[num]]'
p4492
tp4493
F0.0004697040864255519
s(S'[[mod]]'
p4494
S'play'
p4495
S'against'
p4496
tp4497
F0.0004697040864255519
s(S'also'
p4498
S'appeared'
p4499
S'[[det]]'
p4500
tp4501
F0.0004697040864255519
s(S'then'
p4502
S'director'
p4503
S'of'
p4504
tp4505
F0.0004697040864255519
s(S'[[adj]]'
p4506
S'professor'
p4507
S'[[num]]'
p4508
tp4509
F0.0004697040864255519
s(S'born'
p4510
S'in'
p4511
S'lt'
p4512
tp4513
F0.0004697040864255519
s(S'also'
p4514
S'served'
p4515
S'of'
p4516
tp4517
F0.0004697040864255519
s(S'be'
p4518
S'appointed'
p4519
S'[[det]]'
p4520
tp4521
F0.0004697040864255519
s(S'was'
p4522
S'introduced'
p4523
S'[[con]]'
p4524
tp4525
F0.0004697040864255519
s(S'is'
p4526
S'working'
p4527
S'[[con]]'
p4528
tp4529
F0.0004697040864255519
s(g1784
g1625
g1626
tp4530
F0.0004697040864255519
s(g411
g412
S'ref'
p4531
tp4532
F0.0004697040864255519
s(S'is'
p4533
S'known'
p4534
S'as'
p4535
tp4536
F0.0004697040864255519
s(S'had'
p4537
S'appointed'
p4538
S'in'
p4539
tp4540
F0.0004697040864255519
s(S'to'
p4541
S'join'
p4542
S'up'
p4543
tp4544
F0.0004697040864255519
s(S'in'
p4545
S'lt'
p4546
S'ref'
p4547
tp4548
F0.0028182245185533112
s(S'is'
p4549
S'editor'
p4550
S'[[det]]'
p4551
tp4552
F0.0004697040864255519
s(S'became'
p4553
S'known'
p4554
S'for'
p4555
tp4556
F0.0004697040864255519
s(S'[[adj]]'
p4557
S'student'
p4558
S'at'
p4559
tp4560
F0.0004697040864255519
s(S'not'
p4561
S'known'
p4562
S'when'
p4563
tp4564
F0.0004697040864255519
s(S'[[adj]]'
p4565
S'film'
p4566
S'with'
p4567
tp4568
F0.0004697040864255519
s(S'[[det]]'
p4569
S'owner'
p4570
S'[[det]]'
p4571
tp4572
F0.0004697040864255519
s(S'[[num]]'
p4573
S'lt'
p4574
S'[[num]]'
p4575
tp4576
F0.006575857209957727
s(S'has'
p4577
S'worked'
p4578
S'for'
p4579
tp4580
F0.0004697040864255519
s(S'ref'
p4581
g3395
g3396
tp4582
F0.0004697040864255519
s(S'also'
p4583
S'led'
p4584
S'[[det]]'
p4585
tp4586
F0.0004697040864255519
s(S'also'
p4587
S'appeared'
p4588
S'[[pro]]'
p4589
tp4590
F0.0004697040864255519
s(S'to'
p4591
S'join'
p4592
S'[[num]]'
p4593
tp4594
F0.0004697040864255519
s(S'who'
p4595
S'served'
p4596
S'with'
p4597
tp4598
F0.0004697040864255519
s(S'ref'
p4599
S'gt'
p4600
g813
tp4601
F0.0004697040864255519
s(S'[[det]]'
p4602
S'member'
p4603
S'when'
p4604
tp4605
F0.0004697040864255519
s(S'also'
p4606
S'established'
p4607
S'[[det]]'
p4608
tp4609
F0.0004697040864255519
s(S'was'
p4610
S'awarded'
p4611
S'to'
p4612
tp4613
F0.0004697040864255519
s(S'is'
p4614
S'host'
p4615
S'of'
p4616
tp4617
F0.0004697040864255519
s(S'was'
p4618
S'president'
p4619
S'[[det]]'
p4620
tp4621
F0.0004697040864255519
s(S'is'
p4622
S'president'
p4623
S'[[det]]'
p4624
tp4625
F0.0004697040864255519
s(S'has'
p4626
S'served'
p4627
S'[[con]]'
p4628
tp4629
F0.0004697040864255519
s(S'first'
p4630
S'served'
p4631
S'as'
p4632
tp4633
F0.0004697040864255519
s(S'[[con]]'
p4634
S'died'
p4635
S'at'
p4636
tp4637
F0.0004697040864255519
s(S'also'
p4638
S'editor'
p4639
S'[[con]]'
p4640
tp4641
F0.0004697040864255519
s(S'to'
p4642
S'host'
p4643
S'[[prp]]'
p4644
tp4645
F0.0004697040864255519
s(S'[[con]]'
p4646
S'met'
p4647
S'[[adj]]'
p4648
tp4649
F0.0004697040864255519
s(g110
g111
S'[[num]]'
p4650
tp4651
F0.0004697040864255519
s(S'[[prp]]'
p4652
S'book'
p4653
S'[[con]]'
p4654
tp4655
F0.0004697040864255519
s(S'later'
p4656
S'worked'
p4657
S'as'
p4658
tp4659
F0.0004697040864255519
s(S'who'
p4660
S'worked'
p4661
S'for'
p4662
tp4663
F0.0004697040864255519
s(S'again'
p4664
S'worked'
p4665
S'with'
p4666
tp4667
F0.0004697040864255519
s(g1546
g1547
g4075
tp4668
F0.0004697040864255519
s(g1903
g2955
S'on'
p4669
tp4670
F0.0004697040864255519
s(S'was'
p4671
S'known'
p4672
S'especially'
p4673
tp4674
F0.0004697040864255519
s(S'[[adj]]'
p4675
S'joined'
p4676
S'[[det]]'
p4677
tp4678
F0.0004697040864255519
s(S'was'
p4679
S'editor'
p4680
S'[[det]]'
p4681
tp4682
F0.0004697040864255519
s(S'later'
p4683
S'involved'
p4684
S'with'
p4685
tp4686
F0.0004697040864255519
s(S'[[adj]]'
p4687
S'professor'
p4688
S'[[det]]'
p4689
tp4690
F0.0004697040864255519
s(S'[[adj]]'
p4691
g1319
g1320
tp4692
F0.014091122592766557
s(S'also'
p4693
S'play'
p4694
S'for'
p4695
tp4696
F0.0004697040864255519
s(g1002
g2567
g2792
tp4697
F0.0004697040864255519
s(S'studied'
p4698
g4545
g4546
tp4699
F0.0004697040864255519
s(S'made'
p4700
S'professor'
p4701
S'in'
p4702
tp4703
F0.0004697040864255519
s(S'[[adj]]'
p4704
S'editor'
p4705
S'[[num]]'
p4706
tp4707
F0.0004697040864255519
s(S'has'
p4708
S'served'
p4709
S'under'
p4710
tp4711
F0.0004697040864255519
s(S'been'
p4712
S'president'
p4713
S'[[det]]'
p4714
tp4715
F0.0004697040864255519
s(S'[[adj]]'
p4716
g3720
g3721
tp4717
F0.0004697040864255519
s(S'later'
p4718
S'appeared'
p4719
S'in'
p4720
tp4721
F0.0004697040864255519
s(S'then'
p4722
S'wrote'
p4723
S'[[det]]'
p4724
tp4725
F0.0004697040864255519
s(S'[[adj]]'
p4726
S'professor'
p4727
S'in'
p4728
tp4729
F0.0004697040864255519
s(S'best'
p4730
S'known'
p4731
S'that'
p4732
tp4733
F0.0004697040864255519
s(S'only'
p4734
S'appeared'
p4735
S'in'
p4736
tp4737
F0.0004697040864255519
s(S'[[adj]]'
p4738
S'book'
p4739
S'[[adj]]'
p4740
tp4741
F0.0004697040864255519
s(S'also'
p4742
S'known'
p4743
S'was'
p4744
tp4745
F0.0004697040864255519
s(S'was'
p4746
S'director'
p4747
S'[[con]]'
p4748
tp4749
F0.0004697040864255519
s(S'[[det]]'
p4750
S'director'
p4751
S'of'
p4752
tp4753
F0.0004697040864255519
s(S'has'
p4754
S'served'
p4755
S'[[adj]]'
p4756
tp4757
F0.0004697040864255519
s(S'were'
p4758
S'known'
p4759
S'as'
p4760
tp4761
F0.0004697040864255519
s(g813
S'lt'
p4762
S'ref'
p4763
tp4764
F0.0023485204321277596
s(S'since'
p4765
S'appeared'
p4766
S'in'
p4767
tp4768
F0.0004697040864255519
s(S'had'
p4769
S'established'
p4770
S'[[pro]]'
p4771
tp4772
F0.0004697040864255519
s(S'well'
p4773
S'known'
p4774
S'about'
p4775
tp4776
F0.0004697040864255519
s(g1581
g1582
S'lt'
p4777
tp4778
F0.0004697040864255519
s(S'[[con]]'
p4779
S'cofounder'
p4780
S'of'
p4781
tp4782
F0.0004697040864255519
s(S'to'
p4783
S'head'
p4784
S'at'
p4785
tp4786
F0.0004697040864255519
s(S'became'
p4787
S'editor'
p4788
S'[[det]]'
p4789
tp4790
F0.0004697040864255519
s(S'was'
p4791
S'arrested'
p4792
S'after'
p4793
tp4794
F0.0004697040864255519
s(g3945
g3946
S'lt'
p4795
tp4796
F0.0004697040864255519
s(S'ref'
p4797
S'gt'
p4798
S'died'
p4799
tp4800
F0.0018788163457022077
s(S'[[con]]'
p4801
S'working'
p4802
S'with'
p4803
tp4804
F0.0004697040864255519
s(g2099
g2100
g4060
tp4805
F0.012212306247064349
s(S'[[det]]'
p4806
S'director'
p4807
S'at'
p4808
tp4809
F0.0004697040864255519
s(S'is'
p4810
S'known'
p4811
S'to'
p4812
tp4813
F0.0004697040864255519
s(S'is'
p4814
S'retired'
p4815
S'from'
p4816
tp4817
F0.0004697040864255519
s(g1336
g1337
S'ref'
p4818
tp4819
F0.0004697040864255519
s(S'[[num]]'
p4820
S'joined'
p4821
S'[[det]]'
p4822
tp4823
F0.0004697040864255519
s(S'[[con]]'
p4824
S'wrote'
p4825
S'[[det]]'
p4826
tp4827
F0.0004697040864255519
s(S'[[det]]'
p4828
S'childhood'
p4829
S'friend'
p4830
tp4831
F0.0004697040864255519
s(g499
g500
g3592
tp4832
F0.0004697040864255519
s(S'was'
p4833
S'appointed'
p4834
S'[[det]]'
p4835
tp4836
F0.0004697040864255519
s(S'matter'
p4837
g2795
g1542
tp4838
F0.0004697040864255519
s(S'who'
p4839
S'served'
p4840
S'under'
p4841
tp4842
F0.0004697040864255519
s(g173
S'known'
p4843
S'as'
p4844
tp4845
F0.0004697040864255519
s(S'ref'
p4846
S'gt'
p4847
S'married'
p4848
tp4849
F0.0009394081728511038
s(S'also'
p4850
S'president'
p4851
S'[[det]]'
p4852
tp4853
F0.0004697040864255519
s(S'was'
p4854
S'appointed'
p4855
S'as'
p4856
tp4857
F0.0004697040864255519
s(g2996
g2130
g2131
tp4858
F0.0004697040864255519
s(S'also'
p4859
S'served'
p4860
S'twice'
p4861
tp4862
F0.0004697040864255519
s(S'[[det]]'
p4863
S'head'
p4864
S'[[con]]'
p4865
tp4866
F0.0004697040864255519
s(S'also'
p4867
S'founded'
p4868
S'at'
p4869
tp4870
F0.0004697040864255519
s(S'[[adj]]'
p4871
S'professor'
p4872
g1752
tp4873
F0.0009394081728511038
s(S'[[det]]'
p4874
g4837
g2795
tp4875
F0.0004697040864255519
s(S'[[con]]'
p4876
S'introduced'
p4877
S'[[pro]]'
p4878
tp4879
F0.0004697040864255519
s(S'was'
p4880
S'member'
p4881
S'in'
p4882
tp4883
F0.0004697040864255519
s(S'is'
p4884
S'named'
p4885
S'as'
p4886
tp4887
F0.0004697040864255519
s(S'is'
p4888
S'president'
p4889
S'[[con]]'
p4890
tp4891
F0.0004697040864255519
s(g173
S'film'
p4892
S'[[det]]'
p4893
tp4894
F0.0004697040864255519
s(S'soon'
p4895
S'joined'
p4896
S'[[det]]'
p4897
tp4898
F0.0004697040864255519
s(S'also'
p4899
S'worked'
p4900
S'as'
p4901
tp4902
F0.0004697040864255519
s(S'[[con]]'
p4903
S'appeared'
p4904
S'on'
p4905
tp4906
F0.0004697040864255519
s(S'has'
p4907
S'served'
p4908
S'with'
p4909
tp4910
F0.0004697040864255519
s(S'[[pro]]'
p4911
S'served'
p4912
S'in'
p4913
tp4914
F0.0004697040864255519
s(g415
g416
g2900
tp4915
F0.0004697040864255519
s(S'then'
p4916
S'served'
p4917
S'[[det]]'
p4918
tp4919
F0.0004697040864255519
s(S'then'
p4920
S'appointed'
p4921
S'[[con]]'
p4922
tp4923
F0.0004697040864255519
s(S'best'
p4924
S'known'
p4925
S'[[con]]'
p4926
tp4927
F0.0004697040864255519
s(S'[[num]]'
p4928
S'years'
p4929
S'at'
p4930
tp4931
F0.0004697040864255519
s(S'gt'
p4932
S'[[det]]'
p4933
S'copy'
p4934
tp4935
F0.0004697040864255519
s(S'formerly'
p4936
S'served'
p4937
S'to'
p4938
tp4939
F0.0004697040864255519
s(S'being'
p4940
S'appointed'
p4941
S'to'
p4942
tp4943
F0.0004697040864255519
s(S'[[adj]]'
p4944
S'officer'
p4945
S'on'
p4946
tp4947
F0.0004697040864255519
s(S'had'
p4948
S'worked'
p4949
S'at'
p4950
tp4951
F0.0004697040864255519
s(S'[[det]]'
p4952
S'student'
p4953
S'at'
p4954
tp4955
F0.0004697040864255519
s(S'later'
p4956
S'appointed'
p4957
S'as'
p4958
tp4959
F0.0004697040864255519
s(S'then'
p4960
S'appointed'
p4961
S'by'
p4962
tp4963
F0.0004697040864255519
s(S'is'
p4964
S'appointed'
p4965
S'after'
p4966
tp4967
F0.0004697040864255519
s(S'been'
p4968
S'awarded'
p4969
S'[[adj]]'
p4970
tp4971
F0.0004697040864255519
s(S'[[det]]'
p4972
S'lt'
p4973
S'[[num]]'
p4974
tp4975
F0.0004697040864255519
s(S'[[num]]'
p4976
S'film'
p4977
S'[[num]]'
p4978
tp4979
F0.0004697040864255519
s(S'became'
p4980
S'known'
p4981
S'as'
p4982
tp4983
F0.0004697040864255519
s(S'also'
p4984
S'named'
p4985
S'[[con]]'
p4986
tp4987
F0.0004697040864255519
s(S'also'
p4988
S'member'
p4989
S'[[con]]'
p4990
tp4991
F0.0004697040864255519
s(S'being'
p4992
S'appointed'
p4993
S'at'
p4994
tp4995
F0.0004697040864255519
s(S'had'
p4996
S'met'
p4997
S'[[det]]'
p4998
tp4999
F0.0004697040864255519
s(S'[[adj]]'
p5000
S'play'
p5001
S'with'
p5002
tp5003
F0.0004697040864255519
s(S'also'
p5004
S'started'
p5005
S'to'
p5006
tp5007
F0.0004697040864255519
s(S'formerly'
p5008
S'worked'
p5009
S'as'
p5010
tp5011
F0.0004697040864255519
s(S'was'
p5012
S'known'
p5013
S'[[con]]'
p5014
tp5015
F0.0004697040864255519
s(S'[[con]]'
p5016
S'appeared'
p5017
S'in'
p5018
tp5019
F0.0004697040864255519
s(S'was'
p5020
S'involved'
p5021
S'with'
p5022
tp5023
F0.0004697040864255519
s(S'to'
p5024
S'play'
p5025
S'at'
p5026
tp5027
F0.0004697040864255519
s(g173
S'book'
p5028
g173
tp5029
F0.0004697040864255519
s(S'later'
p5030
S'served'
p5031
S'with'
p5032
tp5033
F0.0004697040864255519
s(S'instead'
p5034
S'joined'
p5035
S'[[det]]'
p5036
tp5037
F0.0004697040864255519
s(S'[[det]]'
p5038
S'head'
p5039
S'at'
p5040
tp5041
F0.0004697040864255519
s(S'later'
p5042
S'worked'
p5043
S'[[con]]'
p5044
tp5045
F0.0004697040864255519
s(S'not'
p5046
S'known'
p5047
S'as'
p5048
tp5049
F0.0004697040864255519
s(S'received'
p5050
g1813
g1814
tp5051
F0.0004697040864255519
s(S'[[adj]]'
p5052
S'head'
p5053
S'[[con]]'
p5054
tp5055
F0.0004697040864255519
s(S'[[adj]]'
p5056
S'director'
p5057
S'for'
p5058
tp5059
F0.0004697040864255519
s(S'as'
p5060
g4944
g4945
tp5061
F0.0014091122592766556
s(g3427
g3428
S'served'
p5062
tp5063
F0.0009394081728511038
s(S'also'
p5064
S'awarded'
p5065
S'from'
p5066
tp5067
F0.0004697040864255519
s(S'became'
p5068
S'head'
p5069
S'of'
p5070
tp5071
F0.0004697040864255519
s(S'was'
p5072
S'appointed'
p5073
S'under'
p5074
tp5075
F0.0004697040864255519
s(S'also'
p5076
S'editor'
p5077
S'of'
p5078
tp5079
F0.0004697040864255519
s(S'help'
p5080
S'establish'
p5081
S'[[det]]'
p5082
tp5083
F0.0004697040864255519
s(S'then'
p5084
S'served'
p5085
S'for'
p5086
tp5087
F0.0004697040864255519
s(S'also'
p5088
S'started'
p5089
S'against'
p5090
tp5091
F0.0004697040864255519
s(S'be'
p5092
S'working'
p5093
S'for'
p5094
tp5095
F0.0004697040864255519
s(S'was'
p5096
S'professor'
p5097
S'from'
p5098
tp5099
F0.0004697040864255519
s(S'[[con]]'
p5100
S'appointed'
p5101
S'as'
p5102
tp5103
F0.0004697040864255519
s(g3628
g649
g650
tp5104
F0.0004697040864255519
s(S'is'
p5105
S'known'
p5106
S'with'
p5107
tp5108
F0.0004697040864255519
s(S'also'
p5109
S'president'
p5110
S'[[con]]'
p5111
tp5112
F0.0004697040864255519
s(S'where'
p5113
S'joined'
p5114
S'[[det]]'
p5115
tp5116
F0.0004697040864255519
s(S'[[adj]]'
p5117
S'book'
p5118
S'of'
p5119
tp5120
F0.0004697040864255519
s(S'[[det]]'
p5121
S'founder'
p5122
S'[[det]]'
p5123
tp5124
F0.0004697040864255519
s(g3801
g3802
S'[[adj]]'
p5125
tp5126
F0.0014091122592766556
s(S'who'
p5127
S'served'
p5128
S'[[con]]'
p5129
tp5130
F0.0004697040864255519
s(S'was'
p5131
S'member'
p5132
S'at'
p5133
tp5134
F0.0004697040864255519
s(S'has'
p5135
S'appeared'
p5136
S'[[det]]'
p5137
tp5138
F0.0004697040864255519
s(S'[[adj]]'
p5139
S'editor'
p5140
S'[[con]]'
p5141
tp5142
F0.0004697040864255519
s(S'[[adj]]'
p5143
S'member'
p5144
S'of'
p5145
tp5146
F0.0004697040864255519
s(S'[[det]]'
p5147
S'owner'
p5148
S'of'
p5149
tp5150
F0.0004697040864255519
s(S'to'
p5151
S'play'
p5152
S'until'
p5153
tp5154
F0.0004697040864255519
s(S'later'
p5155
S'joined'
p5156
S'at'
p5157
tp5158
F0.0004697040864255519
s(g837
g838
S'[[mod]]'
p5159
tp5160
F0.0004697040864255519
s(S'to'
p5161
S'join'
p5162
S'[[adj]]'
p5163
tp5164
F0.0004697040864255519
s(g2977
g2978
S'ref'
p5165
tp5166
F0.0004697040864255519
s(g2526
g1759
g1760
tp5167
F0.0004697040864255519
s(S'[[det]]'
p5168
S'film'
p5169
S'[[det]]'
p5170
tp5171
F0.0004697040864255519
s(S'is'
p5172
S'known'
p5173
S'although'
p5174
tp5175
F0.0004697040864255519
s(S'also'
p5176
S'joined'
p5177
S'[[det]]'
p5178
tp5179
F0.0004697040864255519
s(S'become'
p5180
S'known'
p5181
S'to'
p5182
tp5183
F0.0004697040864255519
s(S'formerly'
p5184
S'served'
p5185
S'as'
p5186
tp5187
F0.0004697040864255519
s(S'made'
p5188
S'head'
p5189
S'at'
p5190
tp5191
F0.0004697040864255519
s(S'became'
p5192
S'member'
p5193
S'[[det]]'
p5194
tp5195
F0.0004697040864255519
s(S'was'
p5196
S'named'
p5197
S'with'
p5198
tp5199
F0.0004697040864255519
s(S'then'
p5200
S'served'
p5201
S'with'
p5202
tp5203
F0.0004697040864255519
s(g2168
S'gt'
p5204
S'by'
p5205
tp5206
F0.0009394081728511038
s(S'[[adj]]'
p5207
S'boss'
p5208
S'of'
p5209
tp5210
F0.0004697040864255519
s(g2789
g2790
g4053
tp5211
F0.0004697040864255519
s(g1480
g1481
S'block'
p5212
tp5213
F0.0004697040864255519
s(S'been'
p5214
S'appointed'
p5215
S'at'
p5216
tp5217
F0.0004697040864255519
s(g173
S'book'
p5218
S'[[num]]'
p5219
tp5220
F0.0004697040864255519
s(S'also'
p5221
S'worked'
p5222
S'to'
p5223
tp5224
F0.0004697040864255519
s(g2206
g2207
g1107
tp5225
F0.0004697040864255519
s(S'[[con]]'
p5226
S'appeared'
p5227
S'as'
p5228
tp5229
F0.0004697040864255519
s(S'[[prp]]'
p5230
S'book'
p5231
S'of'
p5232
tp5233
F0.0004697040864255519
s(S'ref'
p5234
S'gt'
p5235
S'pp'
p5236
tp5237
F0.0004697040864255519
s(S'been'
p5238
S'named'
p5239
S'[[con]]'
p5240
tp5241
F0.0004697040864255519
s(S'was'
p5242
S'appointed'
p5243
S'after'
p5244
tp5245
F0.0004697040864255519
s(S'[[mod]]'
p5246
S'play'
p5247
S'[[det]]'
p5248
tp5249
F0.0004697040864255519
s(S'being'
p5250
S'awarded'
p5251
S'[[det]]'
p5252
tp5253
F0.0004697040864255519
s(g173
S'lt'
p5254
S'ref'
p5255
tp5256
F0.0018788163457022077
s(S'again'
p5257
S'appointed'
p5258
S'of'
p5259
tp5260
F0.0004697040864255519
s(S'gt'
p5261
g3352
g3353
tp5262
F0.0009394081728511038
s(S'was'
p5263
S'director'
p5264
S'for'
p5265
tp5266
F0.0004697040864255519
s(S'be'
p5267
S'named'
p5268
S'[[det]]'
p5269
tp5270
F0.0004697040864255519
s(S'who'
p5271
S'introduced'
p5272
S'[[pro]]'
p5273
tp5274
F0.0004697040864255519
s(S'often'
p5275
S'appeared'
p5276
S'on'
p5277
tp5278
F0.0004697040864255519
s(S'has'
p5279
S'served'
p5280
S'until'
p5281
tp5282
F0.0004697040864255519
s(S'[[num]]'
p5283
S'known'
p5284
S'as'
p5285
tp5286
F0.0004697040864255519
s(S'[[adj]]'
p5287
S'host'
p5288
S'on'
p5289
tp5290
F0.0004697040864255519
s(S'was'
p5291
S'arrested'
p5292
S'[[num]]'
p5293
tp5294
F0.0004697040864255519
s(S'also'
p5295
S'created'
p5296
S'[[num]]'
p5297
tp5298
F0.0004697040864255519
s(S'was'
p5299
S'appointed'
p5300
S'where'
p5301
tp5302
F0.0004697040864255519
s(S'first'
p5303
S'joined'
p5304
S'[[det]]'
p5305
tp5306
F0.0004697040864255519
s(S'[[det]]'
p5307
S'host'
p5308
S'for'
p5309
tp5310
F0.0004697040864255519
s(g2494
g2495
g4232
tp5311
F0.0028182245185533112
s(S'[[num]]'
p5312
g3576
g3577
tp5313
F0.0004697040864255519
s(S'[[det]]'
p5314
S'returned'
p5315
S'to'
p5316
tp5317
F0.0004697040864255519
s(S'[[num]]'
p5318
S'professor'
p5319
S'at'
p5320
tp5321
F0.0004697040864255519
s(S'[[adj]]'
p5322
g395
g396
tp5323
F0.0004697040864255519
s(S'becomes'
p5324
S'involved'
p5325
S'in'
p5326
tp5327
F0.0004697040864255519
s(S'then'
p5328
S'worked'
p5329
S'with'
p5330
tp5331
F0.0004697040864255519
s(S'as'
p5332
S'chairman'
p5333
S'[[det]]'
p5334
tp5335
F0.0009394081728511038
s(S'pp'
p5336
S'[[num]]'
p5337
S'[[adj]]'
p5338
tp5339
F0.0009394081728511038
s(S'is'
p5340
S'founder'
p5341
S'[[con]]'
p5342
tp5343
F0.0004697040864255519
s(S'[[con]]'
p5344
S'served'
p5345
S'where'
p5346
tp5347
F0.0004697040864255519
s(g607
g608
g1535
tp5348
F0.0018788163457022077
s(S'then'
p5349
S'served'
p5350
S'at'
p5351
tp5352
F0.0004697040864255519
s(S'[[con]]'
p5353
S'play'
p5354
S'for'
p5355
tp5356
F0.0004697040864255519
s(S'[[con]]'
p5357
S'joined'
p5358
S'of'
p5359
tp5360
F0.0004697040864255519
s(S'was'
p5361
S'appointed'
p5362
S'by'
p5363
tp5364
F0.0004697040864255519
s(S'was'
p5365
S'professor'
p5366
S'[[num]]'
p5367
tp5368
F0.0004697040864255519
s(S'again'
p5369
S'appointed'
p5370
S'[[det]]'
p5371
tp5372
F0.0004697040864255519
s(S'[[det]]'
p5373
S'professor'
p5374
S'to'
p5375
tp5376
F0.0004697040864255519
s(S'been'
p5377
S'known'
p5378
S'as'
p5379
tp5380
F0.0004697040864255519
s(S'has'
p5381
S'founded'
p5382
S'[[det]]'
p5383
tp5384
F0.0004697040864255519
s(g733
g734
g2988
tp5385
F0.0004697040864255519
s(S'has'
p5386
S'served'
p5387
S'by'
p5388
tp5389
F0.0004697040864255519
s(S'[[mod]]'
p5390
S'play'
p5391
S'from'
p5392
tp5393
F0.0004697040864255519
s(S'[[num]]'
p5394
S'member'
p5395
S'of'
p5396
tp5397
F0.0004697040864255519
s(S'had'
p5398
S'served'
p5399
S'[[det]]'
p5400
tp5401
F0.0004697040864255519
s(S'[[det]]'
p5402
S'film'
p5403
S'[[con]]'
p5404
tp5405
F0.0004697040864255519
s(S'[[adj]]'
p5406
S'editor'
p5407
S'on'
p5408
tp5409
F0.0004697040864255519
s(g173
S'film'
p5410
S'[[num]]'
p5411
tp5412
F0.0004697040864255519
s(S'also'
p5413
S'involved'
p5414
S'as'
p5415
tp5416
F0.0004697040864255519
s(S'then'
p5417
S'joined'
p5418
S'[[con]]'
p5419
tp5420
F0.0004697040864255519
s(S'ref'
p5421
S'gt'
p5422
S'[[det]]'
p5423
tp5424
F0.0028182245185533112
s(S'also'
p5425
S'worked'
p5426
S'where'
p5427
tp5428
F0.0004697040864255519
s(S'has'
p5429
S'founded'
p5430
S'[[con]]'
p5431
tp5432
F0.0004697040864255519
s(S'is'
p5433
S'founder'
p5434
S'of'
p5435
tp5436
F0.0004697040864255519
s(S'was'
p5437
S'arrested'
p5438
S'for'
p5439
tp5440
F0.0004697040864255519
s(S'was'
p5441
S'professor'
p5442
S'at'
p5443
tp5444
F0.0004697040864255519
s(S'was'
p5445
S'appointed'
p5446
S'at'
p5447
tp5448
F0.0004697040864255519
s(S'also'
p5449
S'served'
p5450
S'under'
p5451
tp5452
F0.0004697040864255519
s(S'well'
p5453
S'known'
p5454
S'especially'
p5455
tp5456
F0.0004697040864255519
s(S'was'
p5457
g4510
g4511
tp5458
F0.0004697040864255519
s(S'[[con]]'
p5459
S'served'
p5460
S'on'
p5461
tp5462
F0.0009394081728511038
s(g1704
g510
g511
tp5463
F0.0004697040864255519
s(S'is'
p5464
S'known'
p5465
S'though'
p5466
tp5467
F0.0004697040864255519
s(S'well'
p5468
S'known'
p5469
S'[[con]]'
p5470
tp5471
F0.0004697040864255519
s(S'[[adj]]'
p5472
S'president'
p5473
S'[[det]]'
p5474
tp5475
F0.0004697040864255519
s(S'pages'
p5476
S'[[num]]'
p5477
S'[[adj]]'
p5478
tp5479
F0.0004697040864255519
s(S'[[num]]'
p5480
S'awarded'
p5481
S'by'
p5482
tp5483
F0.0004697040864255519
s(g126
g127
S'served'
p5484
tp5485
F0.0004697040864255519
s(g173
S'company'
p5486
S'in'
p5487
tp5488
F0.0004697040864255519
s(S'[[det]]'
p5489
S'editor'
p5490
S'to'
p5491
tp5492
F0.0004697040864255519
s(S'best'
p5493
S'known'
p5494
S'being'
p5495
tp5496
F0.0004697040864255519
s(S'also'
p5497
S'appointed'
p5498
S'by'
p5499
tp5500
F0.0004697040864255519
s(S'[[adj]]'
p5501
S'professor'
p5502
S'at'
p5503
tp5504
F0.0004697040864255519
s(S'[[con]]'
p5505
S'created'
p5506
S'[[pro]]'
p5507
tp5508
F0.0004697040864255519
s(S'that'
p5509
S'led'
p5510
S'[[det]]'
p5511
tp5512
F0.0004697040864255519
s(S'later'
p5513
S'appointed'
p5514
S'of'
p5515
tp5516
F0.0004697040864255519
s(S'is'
p5517
S'known'
p5518
S'[[num]]'
p5519
tp5520
F0.0004697040864255519
s(S'became'
p5521
S'professor'
p5522
S'of'
p5523
tp5524
F0.0004697040864255519
s(S'born'
p5525
S'lt'
p5526
S'ref'
p5527
tp5528
F0.0009394081728511038
s(S'had'
p5529
S'worked'
p5530
S'with'
p5531
tp5532
F0.0004697040864255519
s(S'[[adj]]'
p5533
S'worked'
p5534
S'for'
p5535
tp5536
F0.0004697040864255519
s(S'again'
p5537
S'appeared'
p5538
S'on'
p5539
tp5540
F0.0004697040864255519
s(S'formerly'
p5541
S'served'
p5542
S'for'
p5543
tp5544
F0.0004697040864255519
s(S'[[adj]]'
p5545
S'member'
p5546
S'[[adj]]'
p5547
tp5548
F0.0004697040864255519
s(S'later'
p5549
S'named'
p5550
S'of'
p5551
tp5552
F0.0004697040864255519
s(S'[[adj]]'
p5553
S'gt'
p5554
S'[[num]]'
p5555
tp5556
F0.0004697040864255519
s(S'also'
p5557
S'served'
p5558
S'against'
p5559
tp5560
F0.0004697040864255519
s(S'was'
p5561
S'appointed'
p5562
S'[[adj]]'
p5563
tp5564
F0.0004697040864255519
s(S'also'
p5565
S'appeared'
p5566
S'on'
p5567
tp5568
F0.0004697040864255519
s(S'was'
p5569
S'known'
p5570
S'[[det]]'
p5571
tp5572
F0.0004697040864255519
s(g358
g1545
g1546
tp5573
F0.0004697040864255519
s(S'once'
p5574
S'served'
p5575
S'as'
p5576
tp5577
F0.0004697040864255519
s(S'then'
p5578
S'worked'
p5579
S'from'
p5580
tp5581
F0.0004697040864255519
s(S'become'
p5582
S'involved'
p5583
S'with'
p5584
tp5585
F0.0004697040864255519
s(S'as'
p5586
S'head'
p5587
S'of'
p5588
tp5589
F0.0004697040864255519
s(S'with'
p5590
S'joined'
p5591
S'[[det]]'
p5592
tp5593
F0.0004697040864255519
s(S'was'
p5594
S'appointed'
p5595
S'[[prp]]'
p5596
tp5597
F0.0004697040864255519
s(S'been'
p5598
S'working'
p5599
S'together'
p5600
tp5601
F0.0004697040864255519
s(S'[[det]]'
p5602
S'founder'
p5603
S'of'
p5604
tp5605
F0.0004697040864255519
s(S'particularly'
p5606
S'known'
p5607
S'in'
p5608
tp5609
F0.0004697040864255519
s(S'first'
p5610
S'appointed'
p5611
S'when'
p5612
tp5613
F0.0004697040864255519
s(S'then'
p5614
S'introduced'
p5615
S'to'
p5616
tp5617
F0.0004697040864255519
s(g173
S'book'
p5618
S'in'
p5619
tp5620
F0.0004697040864255519
s(S'being'
p5621
S'named'
p5622
S'of'
p5623
tp5624
F0.0004697040864255519
s(S'[[det]]'
p5625
S'president'
p5626
S'of'
p5627
tp5628
F0.0004697040864255519
s(S'[[adj]]'
p5629
S'returned'
p5630
S'to'
p5631
tp5632
F0.0004697040864255519
s(g651
g1704
g510
tp5633
F0.0004697040864255519
s(S'that'
p5634
S'led'
p5635
S'at'
p5636
tp5637
F0.0004697040864255519
s(S'also'
p5638
S'served'
p5639
S'from'
p5640
tp5641
F0.0004697040864255519
s(S'ref'
p5642
S'gt'
p5643
S'played'
p5644
tp5645
F0.0023485204321277596
s(S'[[con]]'
p5646
S'worked'
p5647
S'with'
p5648
tp5649
F0.0004697040864255519
s(S'to'
p5650
S'join'
p5651
S'[[det]]'
p5652
tp5653
F0.0004697040864255519
s(S'become'
p5654
S'involved'
p5655
S'in'
p5656
tp5657
F0.0004697040864255519
s(S'had'
p5658
S'appeared'
p5659
S'on'
p5660
tp5661
F0.0004697040864255519
s(S'et'
p5662
g812
g813
tp5663
F0.0004697040864255519
s(S'is'
p5664
S'appointed'
p5665
S'as'
p5666
tp5667
F0.0004697040864255519
s(S'also'
p5668
S'appeared'
p5669
S'twice'
p5670
tp5671
F0.0004697040864255519
s(S'was'
p5672
S'named'
p5673
S'[[det]]'
p5674
tp5675
F0.0004697040864255519
s(S'[[adj]]'
p5676
S'working'
p5677
S'for'
p5678
tp5679
F0.0004697040864255519
s(S'is'
p5680
S'known'
p5681
S'[[det]]'
p5682
tp5683
F0.0004697040864255519
s(S'were'
p5684
S'appointed'
p5685
S'by'
p5686
tp5687
F0.0004697040864255519
s(g173
S'lt'
p5688
S'[[num]]'
p5689
tp5690
F0.0004697040864255519
s(S'[[det]]'
p5691
S'worked'
p5692
S'for'
p5693
tp5694
F0.0004697040864255519
s(S'[[con]]'
p5695
S'wrote'
p5696
S'for'
p5697
tp5698
F0.0004697040864255519
s(S'as'
p5699
S'member'
p5700
S'of'
p5701
tp5702
F0.0004697040864255519
s(S'nominated'
p5703
S'to'
p5704
g113
tp5705
F0.0004697040864255519
s(S'was'
p5706
S'retired'
p5707
S'from'
p5708
tp5709
F0.0004697040864255519
s(S'died'
p5710
S'[[adj]]'
p5711
S'ref'
p5712
tp5713
F0.0004697040864255519
s(S'has'
p5714
S'worked'
p5715
S'again'
p5716
tp5717
F0.0004697040864255519
s(S'was'
p5718
S'appointed'
p5719
S'to'
p5720
tp5721
F0.0004697040864255519
s(S'also'
p5722
S'founded'
p5723
S'for'
p5724
tp5725
F0.0004697040864255519
s(S'has'
p5726
S'appeared'
p5727
S'to'
p5728
tp5729
F0.0004697040864255519
s(S'[[con]]'
p5730
S'appeared'
p5731
S'at'
p5732
tp5733
F0.0004697040864255519
s(S'later'
p5734
S'appointed'
p5735
S'[[det]]'
p5736
tp5737
F0.0004697040864255519
s(S'was'
p5738
S'arrested'
p5739
S'as'
p5740
tp5741
F0.0004697040864255519
s(S'also'
p5742
S'served'
p5743
S'along'
p5744
tp5745
F0.0004697040864255519
s(S'was'
p5746
S'born'
p5747
S'lt'
p5748
tp5749
F0.0004697040864255519
s(S'[[adj]]'
p5750
S'served'
p5751
S'at'
p5752
tp5753
F0.0004697040864255519
s(S'also'
p5754
S'served'
p5755
S'[[num]]'
p5756
tp5757
F0.0004697040864255519
s(S'as'
p5758
S'chairman'
p5759
S'[[con]]'
p5760
tp5761
F0.0004697040864255519
s(S'to'
p5762
S'lt'
p5763
S'ref'
p5764
tp5765
F0.0004697040864255519
s(S'[[det]]'
p5766
S'play'
p5767
S'for'
p5768
tp5769
F0.0004697040864255519
s(S'also'
p5770
S'appointed'
p5771
S'for'
p5772
tp5773
F0.0004697040864255519
s(S'[[num]]'
p5774
S'film'
p5775
S'[[det]]'
p5776
tp5777
F0.0004697040864255519
s(S'[[det]]'
p5778
S'member'
p5779
S'[[adj]]'
p5780
tp5781
F0.0004697040864255519
s(S'[[con]]'
p5782
S'founded'
p5783
S'[[det]]'
p5784
tp5785
F0.0004697040864255519
s(S'also'
p5786
S'awarded'
p5787
S'by'
p5788
tp5789
F0.0004697040864255519
s(S'has'
p5790
S'established'
p5791
S'[[pro]]'
p5792
tp5793
F0.0004697040864255519
s(S'then'
p5794
S'worked'
p5795
S'along'
p5796
tp5797
F0.0004697040864255519
s(S'also'
p5798
S'appointed'
p5799
S'to'
p5800
tp5801
F0.0004697040864255519
s(S'to'
p5802
g248
g249
tp5803
F0.0004697040864255519
s(S'soon'
p5804
S'returned'
p5805
S'to'
p5806
tp5807
F0.0004697040864255519
s(S'lt'
p5808
S'gt'
p5809
S'with'
p5810
tp5811
F0.0004697040864255519
s(S'[[adj]]'
p5812
S'host'
p5813
S'[[con]]'
p5814
tp5815
F0.0004697040864255519
s(S'gt'
p5816
g756
g757
tp5817
F0.0004697040864255519
s(S'[[con]]'
p5818
S'led'
p5819
S'to'
p5820
tp5821
F0.0004697040864255519
s(g4872
g1752
g1753
tp5822
F0.0004697040864255519
s(S'who'
p5823
S'appeared'
p5824
S'on'
p5825
tp5826
F0.0004697040864255519
s(S'[[con]]'
p5827
S'joined'
p5828
S'[[adj]]'
p5829
tp5830
F0.0004697040864255519
s(S'been'
p5831
S'president'
p5832
S'[[con]]'
p5833
tp5834
F0.0004697040864255519
s(g5704
g113
g114
tp5835
F0.0004697040864255519
s(S'[[pro]]'
p5836
S'working'
p5837
S'with'
p5838
tp5839
F0.0004697040864255519
s(S'been'
p5840
S'awarded'
p5841
S'[[det]]'
p5842
tp5843
F0.0004697040864255519
s(g1192
g1193
S'ref'
p5844
tp5845
F0.0004697040864255519
s(S'been'
p5846
S'involved'
p5847
S'with'
p5848
tp5849
F0.0004697040864255519
s(S'was'
p5850
S'cofounder'
p5851
S'[[con]]'
p5852
tp5853
F0.0004697040864255519
s(S'is'
p5854
S'working'
p5855
S'on'
p5856
tp5857
F0.0004697040864255519
s(S'was'
p5858
S'head'
p5859
S'to'
p5860
tp5861
F0.0004697040864255519
s(S'also'
p5862
S'worked'
p5863
S'among'
p5864
tp5865
F0.0004697040864255519
s(S'been'
p5866
S'appointed'
p5867
S'for'
p5868
tp5869
F0.0004697040864255519
s(S'[[num]]'
p5870
S'film'
p5871
S'of'
p5872
tp5873
F0.0004697040864255519
s(S'was'
p5874
S'arrested'
p5875
S'while'
p5876
tp5877
F0.0004697040864255519
s(S'ref'
p5878
S'gt'
p5879
S'[[pro]]'
p5880
tp5881
F0.0004697040864255519
s(S'lt'
p5882
g836
g837
tp5883
F0.014091122592766557
s(g173
S'book'
p5884
S'on'
p5885
tp5886
F0.0004697040864255519
s(S'sometimes'
p5887
S'known'
p5888
S'as'
p5889
tp5890
F0.0004697040864255519
s(S'lt'
p5891
g2098
g2099
tp5892
F0.0037576326914044154
s(S'was'
p5893
S'created'
p5894
S'in'
p5895
tp5896
F0.0004697040864255519
s(S'also'
p5897
S'met'
p5898
S'[[con]]'
p5899
tp5900
F0.0004697040864255519
s(S'mostly'
p5901
S'known'
p5902
S'from'
p5903
tp5904
F0.0004697040864255519
s(g114
g115
g4475
tp5905
F0.0004697040864255519
s(S'[[det]]'
p5906
g514
g515
tp5907
F0.0004697040864255519
s(S'to'
p5908
S'establish'
p5909
S'[[det]]'
p5910
tp5911
F0.0004697040864255519
s(S'been'
p5912
S'awarded'
p5913
S'by'
p5914
tp5915
F0.0004697040864255519
s(S'be'
p5916
S'appointed'
p5917
S'of'
p5918
tp5919
F0.0004697040864255519
s(S'had'
p5920
S'led'
p5921
S'[[det]]'
p5922
tp5923
F0.0004697040864255519
s(S'[[adj]]'
p5924
S'years'
p5925
S'with'
p5926
tp5927
F0.0004697040864255519
s(S'being'
p5928
S'appointed'
p5929
S'by'
p5930
tp5931
F0.0004697040864255519
s(S'also'
p5932
S'president'
p5933
S'of'
p5934
tp5935
F0.0004697040864255519
s(S'was'
p5936
S'named'
p5937
S'as'
p5938
tp5939
F0.0004697040864255519
s(S'again'
p5940
S'worked'
p5941
S'for'
p5942
tp5943
F0.0004697040864255519
s(S'best'
p5944
S'known'
p5945
S'from'
p5946
tp5947
F0.0004697040864255519
s(S'also'
p5948
S'named'
p5949
S'[[det]]'
p5950
tp5951
F0.0004697040864255519
s(S'was'
p5952
S'president'
p5953
S'[[num]]'
p5954
tp5955
F0.0004697040864255519
s(S'has'
p5956
S'served'
p5957
S'on'
p5958
tp5959
F0.0004697040864255519
s(S'was'
p5960
S'director'
p5961
S'[[det]]'
p5962
tp5963
F0.0004697040864255519
s(S'had'
p5964
S'met'
p5965
S'while'
p5966
tp5967
F0.0004697040864255519
s(S'[[det]]'
p5968
S'cofounder'
p5969
S'[[det]]'
p5970
tp5971
F0.0004697040864255519
s(S'who'
p5972
S'worked'
p5973
S'at'
p5974
tp5975
F0.0004697040864255519
s(S'also'
p5976
S'wrote'
p5977
S'[[con]]'
p5978
tp5979
F0.0004697040864255519
s(S'was'
p5980
S'appointed'
p5981
S'before'
p5982
tp5983
F0.0004697040864255519
s(S'again'
p5984
S'named'
p5985
S'[[det]]'
p5986
tp5987
F0.0004697040864255519
s(S'[[det]]'
p5988
S'boss'
p5989
S'of'
p5990
tp5991
F0.0004697040864255519
s(S'also'
p5992
S'appointed'
p5993
S'[[det]]'
p5994
tp5995
F0.0004697040864255519
s(S'was'
p5996
S'head'
p5997
S'for'
p5998
tp5999
F0.0004697040864255519
s(S'was'
p6000
S'known'
p6001
S'to'
p6002
tp6003
F0.0004697040864255519
s(g1850
g1851
g2206
tp6004
F0.0004697040864255519
s(S'is'
p6005
S'professor'
p6006
S'in'
p6007
tp6008
F0.0004697040864255519
s(S'has'
p6009
S'appeared'
p6010
S'[[adj]]'
p6011
tp6012
F0.0004697040864255519
s(S'later'
p6013
S'died'
p6014
S'at'
p6015
tp6016
F0.0004697040864255519
s(S'[[det]]'
p6017
S'professor'
p6018
S'from'
p6019
tp6020
F0.0004697040864255519
s(S'is'
p6021
S'introduced'
p6022
S'as'
p6023
tp6024
F0.0004697040864255519
s(S'later'
p6025
S'served'
p6026
S'in'
p6027
tp6028
F0.0004697040864255519
s(S'was'
p6029
S'introduced'
p6030
S'as'
p6031
tp6032
F0.0004697040864255519
s(S'instead'
p6033
S'appointed'
p6034
S'as'
p6035
tp6036
F0.0004697040864255519
s(S'also'
p6037
S'worked'
p6038
S'by'
p6039
tp6040
F0.0004697040864255519
s(S'[[det]]'
p6041
S'cofounder'
p6042
S'[[con]]'
p6043
tp6044
F0.0004697040864255519
s(S'is'
p6045
S'known'
p6046
S'by'
p6047
tp6048
F0.0004697040864255519
s(S'was'
p6049
S'working'
p6050
S'under'
p6051
tp6052
F0.0004697040864255519
s(S'since'
p6053
S'appeared'
p6054
S'[[num]]'
p6055
tp6056
F0.0004697040864255519
s.