(dp0
(S'had'
p1
S'received'
p2
S'[[num]]'
p3
tp4
F0.07936507936507936
s(S'received'
p5
S'[[det]]'
p6
S'points'
p7
tp8
F0.031746031746031744
s(S'had'
p9
S'received'
p10
S'[[det]]'
p11
tp12
F0.015873015873015872
s(g2
g3
S'points'
p13
tp14
F0.07936507936507936
s(S'[[num]]'
p15
S'points'
p16
S'from'
p17
tp18
F0.015873015873015872
s(S'points'
p19
S'placing'
p20
S'[[adj]]'
p21
tp22
F0.06349206349206349
s(S'had'
p23
S'received'
p24
S'only'
p25
tp26
F0.047619047619047616
s(S'highest'
p27
S'placing'
p28
S'[[adj]]'
p29
tp30
F0.015873015873015872
s(S'picked'
p31
S'up'
p32
S'[[num]]'
p33
tp34
F0.06349206349206349
s(g25
S'[[num]]'
p35
S'points'
p36
tp37
F0.047619047619047616
s(g6
g7
S'placing'
p38
tp39
F0.031746031746031744
s(g32
g33
g19
tp40
F0.06349206349206349
s(g24
g25
g35
tp41
F0.047619047619047616
s(S'[[det]]'
p42
g27
g28
tp43
F0.015873015873015872
s(g33
g19
g20
tp44
F0.031746031746031744
s(S'points'
p45
g42
g27
tp46
F0.031746031746031744
s(S'[[num]]'
p47
g45
g42
tp48
F0.031746031746031744
s(S'[[num]]'
p49
S'placing'
p50
S'[[det]]'
p51
tp52
F0.015873015873015872
s(S'had'
p53
g31
g32
tp54
F0.06349206349206349
s(S'points'
p55
S'[[num]]'
p56
S'placing'
p57
tp58
F0.06349206349206349
s(S'[[num]]'
p59
g55
g56
tp60
F0.09523809523809523
s(g56
g57
S'[[adj]]'
p61
tp62
F0.047619047619047616
s.