(dp0
(S'[[adj]]'
p1
S'capital'
p2
S'in'
p3
tp4
F0.058823529411764705
s(S's'
p5
S'capital'
p6
S'[[con]]'
p7
tp8
F0.058823529411764705
s(S'[[det]]'
p9
S'artist'
p10
S'based'
p11
tp12
F0.058823529411764705
s(S'[[adj]]'
p13
S'cities'
p14
S'[[con]]'
p15
tp16
F0.058823529411764705
s(S'moves'
p17
S'[[prp]]'
p18
S'capital'
p19
tp20
F0.058823529411764705
s(g5
S'largest'
p21
S'city'
p22
tp23
F0.058823529411764705
s(S'[[adj]]'
p24
S'artist'
p25
S'based'
p26
tp27
F0.058823529411764705
s(g5
S'capital'
p28
S'of'
p29
tp30
F0.058823529411764705
s(g10
g11
S'in'
p31
tp32
F0.11764705882352941
s(S'capital'
p33
S'city'
p34
S'of'
p35
tp36
F0.058823529411764705
s(g5
S'north'
p37
S'of'
p38
tp39
F0.058823529411764705
s(g5
S'capital'
p40
S'city'
p41
tp42
F0.11764705882352941
s(g5
S'capital'
p43
S'from'
p44
tp45
F0.058823529411764705
s(S'[[adj]]'
p46
S'largest'
p47
S'city'
p48
tp49
F0.058823529411764705
s(g18
g19
S'from'
p50
tp51
F0.058823529411764705
s.