(dp0
(S'was'
p1
S'launched'
p2
S'to'
p3
tp4
F0.16666666666666666
s(S'be'
p5
S'launched'
p6
S'to'
p7
tp8
F0.16666666666666666
s(S'was'
p9
S'launched'
p10
S'[[con]]'
p11
tp12
F0.16666666666666666
s(S'was'
p13
S'launched'
p14
S'from'
p15
tp16
F0.16666666666666666
s(S'was'
p17
S'launched'
p18
S'as'
p19
tp20
F0.16666666666666666
s(S'was'
p21
S'launched'
p22
S'at'
p23
tp24
F0.16666666666666666
s.