(dp0
(S'been'
p1
S'founded'
p2
S'by'
p3
tp4
F0.034482758620689655
s(S'then'
p5
S'led'
p6
S'by'
p7
tp8
F0.034482758620689655
s(S'were'
p9
S'founded'
p10
S'by'
p11
tp12
F0.034482758620689655
s(S'were'
p13
S'formed'
p14
S'by'
p15
tp16
F0.034482758620689655
s(S'[[det]]'
p17
S'year'
p18
S'with'
p19
tp20
F0.034482758620689655
s(S's'
p21
S'leader'
p22
S'[[con]]'
p23
tp24
F0.034482758620689655
s(S'tours'
p25
g17
g18
tp26
F0.034482758620689655
s(S'[[con]]'
p27
S'founded'
p28
S'by'
p29
tp30
F0.034482758620689655
s(S'[[det]]'
p31
S'founded'
p32
S'by'
p33
tp34
F0.034482758620689655
s(S'[[con]]'
p35
S'formed'
p36
S'with'
p37
tp38
F0.034482758620689655
s(S'was'
p39
S'founded'
p40
S'with'
p41
tp42
F0.034482758620689655
s(S'was'
p43
S'founded'
p44
S'by'
p45
tp46
F0.034482758620689655
s(S'also'
p47
S'founded'
p48
S'by'
p49
tp50
F0.034482758620689655
s(S'[[con]]'
p51
S'founded'
p52
S'with'
p53
tp54
F0.034482758620689655
s(g21
S'leader'
p55
S'in'
p56
tp57
F0.034482758620689655
s(S'is'
p58
S'led'
p59
S'by'
p60
tp61
F0.034482758620689655
s(S'was'
p62
S'formed'
p63
S'with'
p64
tp65
F0.034482758620689655
s(S'was'
p66
S'formed'
p67
S'by'
p68
tp69
F0.034482758620689655
s(S'were'
p70
S'formed'
p71
S'[[con]]'
p72
tp73
F0.034482758620689655
s(S'was'
p74
S'founded'
p75
S'to'
p76
tp77
F0.034482758620689655
s(S'is'
p78
S'formed'
p79
S'by'
p80
tp81
F0.034482758620689655
s(S'is'
p82
S'founded'
p83
S'by'
p84
tp85
F0.034482758620689655
s(S'was'
p86
S'founded'
p87
S'for'
p88
tp89
F0.034482758620689655
s(S'[[con]]'
p90
S'led'
p91
S'by'
p92
tp93
F0.034482758620689655
s(S'was'
p94
S'founded'
p95
S'under'
p96
tp97
F0.034482758620689655
s(S'was'
p98
S'led'
p99
S'by'
p100
tp101
F0.034482758620689655
s(S'now'
p102
S'led'
p103
S'by'
p104
tp105
F0.034482758620689655
s(S'was'
p106
S'formed'
p107
S'after'
p108
tp109
F0.034482758620689655
s(S'were'
p110
S'led'
p111
S'by'
p112
tp113
F0.034482758620689655
s.