(dp0
(S'[[mod]]'
p1
S'play'
p2
S'with'
p3
tp4
F0.00030478512648582747
s(S'only'
p5
S'played'
p6
S'twice'
p7
tp8
F0.00030478512648582747
s(S'then'
p9
S'played'
p10
S'with'
p11
tp12
F0.00030478512648582747
s(S'again'
p13
S'played'
p14
S'against'
p15
tp16
F0.00030478512648582747
s(S'played'
p17
S'[[num]]'
p18
S'of'
p19
tp20
F0.00030478512648582747
s(S'to'
p21
S'play'
p22
S'when'
p23
tp24
F0.00030478512648582747
s(S'football'
p25
S'coach'
p26
S'of'
p27
tp28
F0.0006095702529716549
s(S'[[adj]]'
p29
S'debut'
p30
S'in'
p31
tp32
F0.00030478512648582747
s(S'defender'
p33
S'who'
p34
S'plays'
p35
tp36
F0.00030478512648582747
s(S'be'
p37
S'assigned'
p38
S'to'
p39
tp40
F0.00030478512648582747
s(S'soccer'
p41
S'midfielder'
p42
S'playing'
p43
tp44
F0.00030478512648582747
s(S'football'
p45
S'striker'
p46
S'for'
p47
tp48
F0.00030478512648582747
s(S'had'
p49
S'signed'
p50
S'from'
p51
tp52
F0.00030478512648582747
s(S'basketball'
p53
S'[[con]]'
p54
S'[[adj]]'
p55
tp56
F0.0006095702529716549
s(S'[[adj]]'
p57
S'game'
p58
S'on'
p59
tp60
F0.00030478512648582747
s(S'[[prp]]'
p61
S'career'
p62
S'at'
p63
tp64
F0.00030478512648582747
s(S'as'
p65
S'[[adj]]'
p66
S'head'
p67
tp68
F0.0012191405059433099
s(S'[[adj]]'
p69
S'club'
p70
S'of'
p71
tp72
F0.00030478512648582747
s(S'has'
p73
S'played'
p74
S'to'
p75
tp76
F0.00030478512648582747
s(S'[[det]]'
p77
S'[[adj]]'
p78
S'seasons'
p79
tp80
F0.0009143553794574825
s(S'[[adj]]'
p81
S'game'
p82
S'with'
p83
tp84
F0.00030478512648582747
s(S'played'
p85
S'[[num]]'
p86
S'season'
p87
tp88
F0.0051813471502590676
s(S'was'
p89
S'called'
p90
S'up'
p91
tp92
F0.00030478512648582747
s(S'has'
p93
S'played'
p94
S'for'
p95
tp96
F0.0009143553794574825
s(S'then'
p97
S'left'
p98
S'to'
p99
tp100
F0.00030478512648582747
s(g18
g19
S'games'
p101
tp102
F0.00030478512648582747
s(S'is'
p103
S'[[det]]'
p104
S'soccer'
p105
tp106
F0.0009143553794574825
s(S'currently'
p107
S'plays'
p108
S'as'
p109
tp110
F0.00030478512648582747
s(S'player'
p111
S'who'
p112
S'was'
p113
tp114
F0.0006095702529716549
s(S'when'
p115
S'moved'
p116
S'from'
p117
tp118
F0.00030478512648582747
s(S'helped'
p119
S'[[pro]]'
p120
S'win'
p121
tp122
F0.00030478512648582747
s(S'was'
p123
S'called'
p124
S'at'
p125
tp126
F0.00030478512648582747
s(S'league'
p127
S'appearances'
p128
S'for'
p129
tp130
F0.00030478512648582747
s(S'then'
p131
S'joined'
p132
S'to'
p133
tp134
F0.00030478512648582747
s(S'over'
p135
S'[[num]]'
p136
S'games'
p137
tp138
F0.0006095702529716549
s(S'later'
p139
S'moved'
p140
S'at'
p141
tp142
F0.00030478512648582747
s(S'in'
p143
S'[[adj]]'
p144
S'games'
p145
tp146
F0.00030478512648582747
s(S'had'
p147
S'joined'
p148
S'from'
p149
tp150
F0.00030478512648582747
s(S'[[adj]]'
p151
S'rules'
p152
S'football'
p153
tp154
F0.001828710758914965
s(S'was'
p155
S'assigned'
p156
S'[[con]]'
p157
tp158
F0.00030478512648582747
s(S'[[num]]'
p159
S'debut'
p160
S'against'
p161
tp162
F0.00030478512648582747
s(S'just'
p163
S'left'
p164
S'for'
p165
tp166
F0.00030478512648582747
s(S'[[adj]]'
p167
S'played'
p168
S'with'
p169
tp170
F0.00030478512648582747
s(S'then'
p171
S'moved'
p172
S'in'
p173
tp174
F0.00030478512648582747
s(S'who'
p175
S'began'
p176
S'as'
p177
tp178
F0.00030478512648582747
s(S'been'
p179
S'relegated'
p180
S'to'
p181
tp182
F0.00030478512648582747
s(S'[[num]]'
p183
S'times'
p184
S'[[det]]'
p185
tp186
F0.00030478512648582747
s(S'then'
p187
S'called'
p188
S'up'
p189
tp190
F0.00030478512648582747
s(S'who'
p191
S'played'
p192
S's'
p193
tp194
F0.00030478512648582747
s(S'basketball'
p195
S'player'
p196
S'currently'
p197
tp198
F0.0006095702529716549
s(S'when'
p199
S'joined'
p200
S'[[det]]'
p201
tp202
F0.00030478512648582747
s(S'again'
p203
S'named'
p204
S'as'
p205
tp206
F0.00030478512648582747
s(S'has'
p207
S'played'
p208
S'[[det]]'
p209
tp210
F0.00030478512648582747
s(S'from'
p211
S'playing'
p212
S'in'
p213
tp214
F0.00030478512648582747
s(S'[[det]]'
p215
S'head'
p216
S'men'
p217
tp218
F0.00030478512648582747
s(S'to'
p219
S'played'
p220
S'for'
p221
tp222
F0.00030478512648582747
s(S'for'
p223
S'[[det]]'
p224
S'held'
p225
tp226
F0.00030478512648582747
s(S'later'
p227
S'played'
p228
S'[[num]]'
p229
tp230
F0.0006095702529716549
s(S'also'
p231
S'established'
p232
S'[[con]]'
p233
tp234
F0.00030478512648582747
s(S'played'
p235
S'[[num]]'
p236
S'more'
p237
tp238
F0.0027430661383724473
s(S'to'
p239
S'play'
p240
S'for'
p241
tp242
F0.0006095702529716549
s(S'where'
p243
S'played'
p244
S'for'
p245
tp246
F0.00030478512648582747
s(S'made'
p247
S'debut'
p248
S'for'
p249
tp250
F0.00030478512648582747
s(S'had'
p251
S'played'
p252
S'in'
p253
tp254
F0.00030478512648582747
s(S'[[num]]'
p255
S'game'
p256
S'against'
p257
tp258
F0.0006095702529716549
s(S'[[det]]'
p259
S'football'
p260
S'striker'
p261
tp262
F0.0012191405059433099
s(S'was'
p263
S'moved'
p264
S'to'
p265
tp266
F0.00030478512648582747
s(S'been'
p267
S'named'
p268
S'at'
p269
tp270
F0.00030478512648582747
s(S'to'
p271
S'win'
p272
S'[[prp]]'
p273
tp274
F0.00030478512648582747
s(S'[[num]]'
p275
S'games'
p276
S'[[num]]'
p277
tp278
F0.00030478512648582747
s(S'born'
p279
S'was'
p280
S'[[det]]'
p281
tp282
F0.0006095702529716549
s(S'has'
p283
S'played'
p284
S'with'
p285
tp286
F0.00030478512648582747
s(S'was'
p287
S'playing'
p288
S'for'
p289
tp290
F0.00030478512648582747
s(S'is'
p291
S'football'
p292
S'player'
p293
tp294
F0.00030478512648582747
s(S'just'
p295
S'[[num]]'
p296
S'seasons'
p297
tp298
F0.00030478512648582747
s(S'more'
p299
S'seasons'
p300
S'[[num]]'
p301
tp302
F0.00030478512648582747
s(S'coach'
p303
S'then'
p304
S'known'
p305
tp306
F0.00030478512648582747
s(S'[[det]]'
p307
S'season'
p308
S'with'
p309
tp310
F0.00030478512648582747
s(S'had'
p311
S'played'
p312
S'[[det]]'
p313
tp314
F0.00030478512648582747
s(S'had'
p315
S'joined'
p316
S'[[det]]'
p317
tp318
F0.00030478512648582747
s(S'had'
p319
S'left'
p320
S'for'
p321
tp322
F0.00030478512648582747
s(S'[[adj]]'
p323
S'playing'
p324
S'for'
p325
tp326
F0.00030478512648582747
s(S'been'
p327
S'called'
p328
S'up'
p329
tp330
F0.00030478512648582747
s(S'midfielder'
p331
S'who'
p332
S'currently'
p333
tp334
F0.00030478512648582747
s(S'ice'
p335
S'hockey'
p336
S'player'
p337
tp338
F0.0048765620237732395
s(S'previously'
p339
S'served'
p340
S'as'
p341
tp342
F0.001828710758914965
s(S'who'
p343
S'play'
p344
S'in'
p345
tp346
F0.00030478512648582747
s(S'to'
p347
S'compete'
p348
S'at'
p349
tp350
F0.00030478512648582747
s(g193
S'debut'
p351
S'for'
p352
tp353
F0.00030478512648582747
s(S'[[con]]'
p354
S'played'
p355
S'for'
p356
tp357
F0.00030478512648582747
s(S'[[con]]'
p358
S'played'
p359
S'[[num]]'
p360
tp361
F0.001828710758914965
s(S'currently'
p362
S'plays'
p363
S'for'
p364
tp365
F0.005486132276744895
s(S'plays'
p366
S'professionally'
p367
S'for'
p368
tp369
F0.00030478512648582747
s(S'ndash'
p370
S'[[num]]'
p371
S'competing'
p372
tp373
F0.00030478512648582747
s(S'cup'
p374
S'winning'
p375
S'[[det]]'
p376
tp377
F0.00030478512648582747
s(S'now'
p378
S'called'
p379
S'in'
p380
tp381
F0.00030478512648582747
s(S'won'
p382
S'[[det]]'
p383
S'award'
p384
tp385
F0.00030478512648582747
s(S'again'
p386
S'moved'
p387
S'to'
p388
tp389
F0.00030478512648582747
s(S'played'
p390
S'[[adj]]'
p391
S'lineman'
p392
tp393
F0.00030478512648582747
s(S'has'
p394
S'played'
p395
S'in'
p396
tp397
F0.0009143553794574825
s(S'signing'
p398
S'[[det]]'
p399
S'contract'
p400
tp401
F0.00030478512648582747
s(S'been'
p402
S'signed'
p403
S'by'
p404
tp405
F0.00030478512648582747
s(S'striker'
p406
S'who'
p407
S'plays'
p408
tp409
F0.00030478512648582747
s(S'been'
p410
S'playing'
p411
S'for'
p412
tp413
F0.00030478512648582747
s(S'also'
p414
S'played'
p415
S'[[con]]'
p416
tp417
F0.00030478512648582747
s(S'be'
p418
S'promoted'
p419
S'to'
p420
tp421
F0.00030478512648582747
s(S'[[adj]]'
p422
S'club'
p423
S'in'
p424
tp425
F0.00030478512648582747
s(S'had'
p426
S'played'
p427
S'[[con]]'
p428
tp429
F0.00030478512648582747
s(S'[[prp]]'
p430
S'return'
p431
S'from'
p432
tp433
F0.00030478512648582747
s(S'was'
p434
S'signed'
p435
S'to'
p436
tp437
F0.0012191405059433099
s(S'[[num]]'
p438
S'game'
p439
S'with'
p440
tp441
F0.0009143553794574825
s(S'had'
p442
S'led'
p443
S'[[det]]'
p444
tp445
F0.00030478512648582747
s(S'[[num]]'
p446
S'season'
p447
S'with'
p448
tp449
F0.0021334958854007926
s(S'[[adj]]'
p450
S'signed'
p451
S'with'
p452
tp453
F0.00030478512648582747
s(S'[[con]]'
p454
S'played'
p455
S'together'
p456
tp457
F0.00030478512648582747
s(S'before'
p458
S'returned'
p459
S'to'
p460
tp461
F0.00030478512648582747
s(S'then'
p462
S'moved'
p463
S'into'
p464
tp465
F0.00030478512648582747
s(S'then'
p466
S'selected'
p467
S'to'
p468
tp469
F0.00030478512648582747
s(S'who'
p470
S'joined'
p471
S'[[det]]'
p472
tp473
F0.00030478512648582747
s(S'[[adj]]'
p474
S'debut'
p475
S'for'
p476
tp477
F0.00030478512648582747
s(S'since'
p478
S'returned'
p479
S'to'
p480
tp481
F0.00030478512648582747
s(S'before'
p482
S'playing'
p483
S'[[det]]'
p484
tp485
F0.00030478512648582747
s(g193
S'career'
p486
S'in'
p487
tp488
F0.00030478512648582747
s(S'[[pro]]'
p489
S'play'
p490
S'[[num]]'
p491
tp492
F0.00030478512648582747
s(S'then'
p493
S'played'
p494
S'[[con]]'
p495
tp496
F0.00030478512648582747
s(S'only'
p497
S'played'
p498
S'with'
p499
tp500
F0.00030478512648582747
s(S'to'
p501
S'play'
p502
S'in'
p503
tp504
F0.0006095702529716549
s(S'later'
p505
S'played'
p506
S'against'
p507
tp508
F0.00030478512648582747
s(S'later'
p509
S'signed'
p510
S'[[det]]'
p511
tp512
F0.00030478512648582747
s(S'also'
p513
S'playing'
p514
S'with'
p515
tp516
F0.00030478512648582747
s(S'had'
p517
S'left'
p518
S'[[det]]'
p519
tp520
F0.00030478512648582747
s(S'[[num]]'
p521
S'seasons'
p522
S'[[det]]'
p523
tp524
F0.0006095702529716549
s(S'had'
p525
S'joined'
p526
S'side'
p527
tp528
F0.00030478512648582747
s(S'was'
p529
S'suspended'
p530
S'by'
p531
tp532
F0.00030478512648582747
s(S'played'
p533
S'[[det]]'
p534
S'game'
p535
tp536
F0.0015239256324291375
s(S'instead'
p537
S'signed'
p538
S'for'
p539
tp540
F0.00030478512648582747
s(g261
S'who'
p541
S'currently'
p542
tp543
F0.0006095702529716549
s(S'[[adj]]'
p544
S'clubs'
p545
S'from'
p546
tp547
F0.00030478512648582747
s(S'became'
p548
S'coach'
p549
S'at'
p550
tp551
F0.00030478512648582747
s(S'[[adj]]'
p552
S'games'
p553
S'in'
p554
tp555
F0.0006095702529716549
s(S'played'
p556
g295
g296
tp557
F0.001828710758914965
s(S'[[num]]'
p558
S'games'
p559
S'[[con]]'
p560
tp561
F0.0009143553794574825
s(S'won'
p562
S'promotion'
p563
S'from'
p564
tp565
F0.00030478512648582747
s(S'as'
p566
S'[[det]]'
p567
S'member'
p568
tp569
F0.0009143553794574825
s(S'served'
p570
S'as'
p571
S'head'
p572
tp573
F0.00365742151782993
s(S'were'
p574
S'promoted'
p575
S'from'
p576
tp577
F0.00030478512648582747
s(S'also'
p578
S'played'
p579
S'from'
p580
tp581
F0.00030478512648582747
s(S'also'
p582
S'play'
p583
S'with'
p584
tp585
F0.00030478512648582747
s(S'then'
p586
S'signed'
p587
S'for'
p588
tp589
F0.00030478512648582747
s(S'[[adj]]'
p590
S'play'
p591
S'against'
p592
tp593
F0.00030478512648582747
s(S'served'
p594
S'as'
p595
S'[[det]]'
p596
tp597
F0.005790917403230723
s(S'had'
p598
S'played'
p599
S'during'
p600
tp601
F0.00030478512648582747
s(S'also'
p602
S'played'
p603
S'on'
p604
tp605
F0.00030478512648582747
s(S'[[adj]]'
p606
S'tackle'
p607
S'for'
p608
tp609
F0.0006095702529716549
s(S'[[mod]]'
p610
S'play'
p611
S'in'
p612
tp613
F0.00030478512648582747
s(S'[[adj]]'
p614
S'player'
p615
S'from'
p616
tp617
F0.00030478512648582747
s(S'head'
p618
S'basketball'
p619
S'coach'
p620
tp621
F0.001828710758914965
s(S'is'
p622
S'played'
p623
S'in'
p624
tp625
F0.00030478512648582747
s(S'hockey'
p626
S'player'
p627
S'currently'
p628
tp629
F0.0006095702529716549
s(S'[[det]]'
p630
S'[[adj]]'
p631
g374
tp632
F0.00030478512648582747
s(S'is'
p633
S'named'
p634
S'of'
p635
tp636
F0.00030478512648582747
s(S'have'
p637
S'left'
p638
S'[[det]]'
p639
tp640
F0.00030478512648582747
s(S'player'
p641
S'who'
p642
S'currently'
p643
tp644
F0.00365742151782993
s(S'[[det]]'
p645
S'season'
p646
S'in'
p647
tp648
F0.0006095702529716549
s(S'coach'
p649
S'at'
p650
S'[[con]]'
p651
tp652
F0.00030478512648582747
s(S'[[mod]]'
p653
S'remain'
p654
S'with'
p655
tp656
F0.00030478512648582747
s(S'[[adj]]'
p657
S'debut'
p658
S'[[det]]'
p659
tp660
F0.00030478512648582747
s(S'[[num]]'
p661
S'[[adj]]'
p662
S'games'
p663
tp664
F0.00030478512648582747
s(S'served'
p665
S'head'
p666
S'coach'
p667
tp668
F0.00030478512648582747
s(S'[[num]]'
p669
S'year'
p670
S'[[adj]]'
p671
tp672
F0.00030478512648582747
s(S'also'
p673
S'played'
p674
S'[[num]]'
p675
tp676
F0.005790917403230723
s(S'later'
p677
S'joined'
p678
S'[[det]]'
p679
tp680
F0.00030478512648582747
s(S'just'
p681
S'[[num]]'
p682
S'game'
p683
tp684
F0.0009143553794574825
s(g260
g261
g541
tp685
F0.0009143553794574825
s(S'[[det]]'
p686
S'brother'
p687
S'also'
p688
tp689
F0.00030478512648582747
s(S'previously'
p690
S'played'
p691
S'[[adj]]'
p692
tp693
F0.00030478512648582747
s(g193
S'career'
p694
S'with'
p695
tp696
F0.00030478512648582747
s(S'not'
p697
S'played'
p698
S'for'
p699
tp700
F0.00030478512648582747
s(S'[[det]]'
p701
S'played'
p702
S'in'
p703
tp704
F0.00030478512648582747
s(S'is'
p705
S'[[adj]]'
p706
S'football'
p707
tp708
F0.006400487656202377
s(S'rated'
p709
S'[[det]]'
p710
S'[[adj]]'
p711
tp712
F0.00030478512648582747
s(S'[[adj]]'
p713
S'player'
p714
S'with'
p715
tp716
F0.00030478512648582747
s(S'played'
p717
S'professionally'
p718
S'[[con]]'
p719
tp720
F0.0006095702529716549
s(S'was'
p721
S'assigned'
p722
S'by'
p723
tp724
F0.00030478512648582747
s(S'later'
p725
S'coached'
p726
S'with'
p727
tp728
F0.00030478512648582747
s(S'was'
p729
S'joined'
p730
S'at'
p731
tp732
F0.00030478512648582747
s(S'been'
p733
S'named'
p734
S'of'
p735
tp736
F0.00030478512648582747
s(S'best'
p737
S'known'
p738
S'as'
p739
tp740
F0.00030478512648582747
s(S'been'
p741
S'named'
p742
S'to'
p743
tp744
F0.00030478512648582747
s(S'after'
p745
S'playing'
p746
S'for'
p747
tp748
F0.00030478512648582747
s(g42
g43
S'as'
p749
tp750
F0.00030478512648582747
s(S'again'
p751
S'named'
p752
S'in'
p753
tp754
F0.00030478512648582747
s(S'also'
p755
S'signed'
p756
S'by'
p757
tp758
F0.00030478512648582747
s(S'that'
p759
S'played'
p760
S'in'
p761
tp762
F0.00030478512648582747
s(S'was'
p763
S'entered'
p764
S'at'
p765
tp766
F0.00030478512648582747
s(S'[[prp]]'
p767
S'career'
p768
S'with'
p769
tp770
F0.00030478512648582747
s(g710
g711
S'player'
p771
tp772
F0.00030478512648582747
s(S'[[adj]]'
p773
g127
g128
tp774
F0.00030478512648582747
s(g193
S'career'
p775
S'at'
p776
tp777
F0.00030478512648582747
s(S'[[num]]'
p778
S'season'
p779
S'[[det]]'
p780
tp781
F0.0006095702529716549
s(S'previously'
p782
S'played'
p783
S'[[con]]'
p784
tp785
F0.0006095702529716549
s(S'who'
p786
S'moved'
p787
S'from'
p788
tp789
F0.00030478512648582747
s(S'[[adj]]'
p790
S'seasons'
p791
S'with'
p792
tp793
F0.0012191405059433099
s(S'never'
p794
S'played'
p795
S'[[det]]'
p796
tp797
F0.0012191405059433099
s(S'also'
p798
S'named'
p799
S'to'
p800
tp801
F0.00030478512648582747
s(S'played'
p802
S'[[adj]]'
p803
S'football'
p804
tp805
F0.0006095702529716549
s(g620
S'[[num]]'
p806
S'[[con]]'
p807
tp808
F0.0009143553794574825
s(S'[[prp]]'
p809
S'debut'
p810
S'to'
p811
tp812
F0.00030478512648582747
s(S'previously'
p813
S'been'
p814
S'[[det]]'
p815
tp816
F0.00030478512648582747
s(S'now'
p817
S'called'
p818
S'[[det]]'
p819
tp820
F0.00030478512648582747
s(S'[[adj]]'
p821
S'games'
p822
S'for'
p823
tp824
F0.0015239256324291375
s(S'to'
p825
S'coach'
p826
S'at'
p827
tp828
F0.00030478512648582747
s(S'year'
p829
S'contract'
p830
S'in'
p831
tp832
F0.00030478512648582747
s(S'been'
p833
S'named'
p834
S'[[con]]'
p835
tp836
F0.00030478512648582747
s(S'never'
p837
S'played'
p838
S'for'
p839
tp840
F0.00030478512648582747
s(S'[[num]]'
p841
S'playing'
p842
S'for'
p843
tp844
F0.00030478512648582747
s(S'also'
p845
S'played'
p846
S'for'
p847
tp848
F0.0009143553794574825
s(S'football'
p849
S'coach'
p850
S'[[num]]'
p851
tp852
F0.0006095702529716549
s(S'[[det]]'
p853
S'debut'
p854
S'at'
p855
tp856
F0.00030478512648582747
s(S'[[num]]'
p857
S'games'
p858
S'as'
p859
tp860
F0.00030478512648582747
s(S'for'
p861
S'[[det]]'
p862
S'located'
p863
tp864
F0.0012191405059433099
s(S'[[det]]'
p865
S'[[num]]'
p866
S'year'
p867
tp868
F0.001828710758914965
s(S'when'
p869
S'played'
p870
S'in'
p871
tp872
F0.00030478512648582747
s(S'finished'
p873
S'[[adj]]'
p874
S'place'
p875
tp876
F0.00030478512648582747
s(S'who'
p877
S'signed'
p878
S'[[det]]'
p879
tp880
F0.00030478512648582747
s(S'player'
p881
S'[[det]]'
p882
S'running'
p883
tp884
F0.00030478512648582747
s(S'[[adj]]'
p885
S'seasons'
p886
S'as'
p887
tp888
F0.00030478512648582747
s(S'[[adj]]'
p889
S'player'
p890
S'of'
p891
tp892
F0.0006095702529716549
s(S'[[det]]'
p893
S'return'
p894
S'to'
p895
tp896
F0.00030478512648582747
s(S'again'
p897
S'led'
p898
S'[[det]]'
p899
tp900
F0.00030478512648582747
s(S'[[det]]'
p901
S'return'
p902
S'of'
p903
tp904
F0.00030478512648582747
s(S'in'
p905
S'[[num]]'
p906
S'seasons'
p907
tp908
F0.00030478512648582747
s(S'basketball'
p909
S'head'
p910
S'coach'
p911
tp912
F0.0009143553794574825
s(S'[[det]]'
p913
S'[[adj]]'
p914
S'contract'
p915
tp916
F0.004571776897287412
s(S'to'
p917
S'play'
p918
S'[[num]]'
p919
tp920
F0.00030478512648582747
s(S'was'
p921
S'named'
p922
S'head'
p923
tp924
F0.001828710758914965
s(S'has'
p925
S'played'
p926
S'[[num]]'
p927
tp928
F0.0015239256324291375
s(S'to'
p929
S'play'
p930
S'again'
p931
tp932
F0.00030478512648582747
s(S'back'
p933
S'playing'
p934
S'for'
p935
tp936
F0.00030478512648582747
s(S'then'
p937
S'joined'
p938
S'of'
p939
tp940
F0.00030478512648582747
s(S'played'
p941
g821
g822
tp942
F0.001828710758914965
s(S'[[adj]]'
p943
S'club'
p944
S'as'
p945
tp946
F0.00030478512648582747
s(S'was'
p947
S'named'
p948
S'of'
p949
tp950
F0.00030478512648582747
s(S'to'
p951
S'remain'
p952
S'at'
p953
tp954
F0.00030478512648582747
s(S'[[con]]'
p955
S'played'
p956
S'at'
p957
tp958
F0.00030478512648582747
s(S'been'
p959
S'named'
p960
S'in'
p961
tp962
F0.00030478512648582747
s(S'had'
p963
S'coached'
p964
S'[[det]]'
p965
tp966
F0.00030478512648582747
s(S'[[num]]'
p967
S'seasons'
p968
S'[[num]]'
p969
tp970
F0.003047851264858275
s(S'[[con]]'
p971
S'returned'
p972
S'at'
p973
tp974
F0.00030478512648582747
s(S'[[det]]'
p975
S'linebacker'
p976
S'for'
p977
tp978
F0.00030478512648582747
s(S'since'
p979
S'played'
p980
S'[[adj]]'
p981
tp982
F0.00030478512648582747
s(S'also'
p983
S'selected'
p984
S'by'
p985
tp986
F0.00030478512648582747
s(S'then'
p987
S'played'
p988
S'then'
p989
tp990
F0.00030478512648582747
s(S'[[con]]'
p991
S'coached'
p992
S'[[det]]'
p993
tp994
F0.00030478512648582747
s(S'to'
p995
S'compete'
p996
S'in'
p997
tp998
F0.00030478512648582747
s(S'then'
p999
S'joined'
p1000
S'then'
p1001
tp1002
F0.00030478512648582747
s(S'basketball'
p1003
S'player'
p1004
S'with'
p1005
tp1006
F0.0006095702529716549
s(S'to'
p1007
S'play'
p1008
S'of'
p1009
tp1010
F0.00030478512648582747
s(S'with'
p1011
S'team'
p1012
S'of'
p1013
tp1014
F0.0006095702529716549
s(S'when'
p1015
S'led'
p1016
S'[[det]]'
p1017
tp1018
F0.00030478512648582747
s(S'played'
p1019
S'briefly'
p1020
S'with'
p1021
tp1022
F0.0006095702529716549
s(S'then'
p1023
S'joined'
p1024
S'[[det]]'
p1025
tp1026
F0.00030478512648582747
s(S'[[adj]]'
p1027
S'football'
p1028
S'running'
p1029
tp1030
F0.0009143553794574825
s(S'[[det]]'
p1031
S'games'
p1032
S'for'
p1033
tp1034
F0.00030478512648582747
s(g193
S'career'
p1035
S'as'
p1036
tp1037
F0.00030478512648582747
s(S'now'
p1038
S'plays'
p1039
S'in'
p1040
tp1041
F0.00030478512648582747
s(S'[[con]]'
p1042
S'established'
p1043
S'[[det]]'
p1044
tp1045
F0.00030478512648582747
s(S'as'
p1046
S'[[det]]'
p1047
S'defender'
p1048
tp1049
F0.00030478512648582747
s(S'best'
p1050
S'known'
p1051
S'for'
p1052
tp1053
F0.00030478512648582747
s(S'when'
p1054
S'playing'
p1055
S'for'
p1056
tp1057
F0.00030478512648582747
s(S'running'
p1058
S'back'
p1059
S'who'
p1060
tp1061
F0.0012191405059433099
s(S'has'
p1062
S'coached'
p1063
S'for'
p1064
tp1065
F0.00030478512648582747
s(S'[[det]]'
p1066
S'[[num]]'
p1067
S'seasons'
p1068
tp1069
F0.0027430661383724473
s(S'later'
p1070
S'selected'
p1071
S'by'
p1072
tp1073
F0.00030478512648582747
s(S'with'
p1074
S'[[adj]]'
p1075
S'club'
p1076
tp1077
F0.00030478512648582747
s(S'played'
p1078
S'for'
p1079
S'[[num]]'
p1080
tp1081
F0.001828710758914965
s(S'[[prp]]'
p1082
S'[[adj]]'
p1083
S'game'
p1084
tp1085
F0.003047851264858275
s(S'[[pro]]'
p1086
S'basketball'
p1087
S'player'
p1088
tp1089
F0.00030478512648582747
s(S'has'
p1090
S'previously'
p1091
S'served'
p1092
tp1093
F0.00030478512648582747
s(S'where'
p1094
S'signed'
p1095
S'for'
p1096
tp1097
F0.00030478512648582747
s(S'hockey'
p1098
S'forward'
p1099
S'who'
p1100
tp1101
F0.00030478512648582747
s(S'[[det]]'
p1102
S'player'
p1103
S'for'
p1104
tp1105
F0.00030478512648582747
s(S'then'
p1106
S'joined'
p1107
S'side'
p1108
tp1109
F0.00030478512648582747
s(S'[[det]]'
p1110
S'half'
p1111
S'year'
p1112
tp1113
F0.00030478512648582747
s(S'[[con]]'
p1114
S'joined'
p1115
S'at'
p1116
tp1117
F0.00030478512648582747
s(S'to'
p1118
S'[[adj]]'
p1119
S'contract'
p1120
tp1121
F0.0009143553794574825
s(S'has'
p1122
g665
g666
tp1123
F0.00030478512648582747
s(S'not'
p1124
S'play'
p1125
S'for'
p1126
tp1127
F0.00030478512648582747
s(S'been'
p1128
S'relegated'
p1129
S'from'
p1130
tp1131
F0.00030478512648582747
s(S'as'
p1132
S'[[adj]]'
p1133
S'player'
p1134
tp1135
F0.00030478512648582747
s(S'[[num]]'
p1136
S'[[adj]]'
p1137
S'seasons'
p1138
tp1139
F0.001828710758914965
s(S'has'
p1140
S'signed'
p1141
S'[[det]]'
p1142
tp1143
F0.0006095702529716549
s(S'[[det]]'
p1144
S'of'
p1145
S'games'
p1146
tp1147
F0.00030478512648582747
s(S'[[det]]'
p1148
S'career'
p1149
S'in'
p1150
tp1151
F0.00030478512648582747
s(g596
S'head'
p1152
S'coach'
p1153
tp1154
F0.00853398354160317
s(S'coach'
p1155
S'[[con]]'
p1156
S'[[adj]]'
p1157
tp1158
F0.0015239256324291375
s(S'never'
p1159
S'left'
p1160
S'[[det]]'
p1161
tp1162
F0.00030478512648582747
s(S'also'
p1163
S'played'
p1164
S'to'
p1165
tp1166
F0.00030478512648582747
s(g1087
g1088
S'who'
p1167
tp1168
F0.0024382810118866198
s(S'also'
p1169
S'coached'
p1170
S'in'
p1171
tp1172
F0.00030478512648582747
s(g1088
g1167
S'playing'
p1173
tp1174
F0.00030478512648582747
s(S'manager'
p1175
S'who'
p1176
S'played'
p1177
tp1178
F0.00030478512648582747
s(S'[[prp]]'
p1179
S'return'
p1180
S'for'
p1181
tp1182
F0.00030478512648582747
s(S'again'
p1183
S'selected'
p1184
S'for'
p1185
tp1186
F0.00030478512648582747
s(S'[[det]]'
p1187
S'assigned'
p1188
S'to'
p1189
tp1190
F0.00030478512648582747
s(S'only'
p1191
S'played'
p1192
S'[[num]]'
p1193
tp1194
F0.0009143553794574825
s(S'more'
p1195
S'season'
p1196
S'for'
p1197
tp1198
F0.00030478512648582747
s(S'is'
p1199
S'[[det]]'
p1200
S'head'
p1201
tp1202
F0.00030478512648582747
s(S'football'
p1203
S'safety'
p1204
S'in'
p1205
tp1206
F0.00030478512648582747
s(S'since'
p1207
S'left'
p1208
S'[[det]]'
p1209
tp1210
F0.00030478512648582747
s(S'formerly'
p1211
S'played'
p1212
S'with'
p1213
tp1214
F0.00030478512648582747
s(S'was'
p1215
S'selected'
p1216
S'as'
p1217
tp1218
F0.00030478512648582747
s(S'was'
p1219
S'selected'
p1220
S'to'
p1221
tp1222
F0.00030478512648582747
s(S'also'
p1223
S'playing'
p1224
S'for'
p1225
tp1226
F0.00030478512648582747
s(S'played'
p1227
S'in'
p1228
S'game'
p1229
tp1230
F0.00030478512648582747
s(S'was'
p1231
S'signed'
p1232
S'by'
p1233
tp1234
F0.0006095702529716549
s(S'previously'
p1235
S'played'
p1236
S'in'
p1237
tp1238
F0.0009143553794574825
s(S'[[num]]'
p1239
S'[[adj]]'
p1240
S'association'
p1241
tp1242
F0.0009143553794574825
s(g104
g105
S'player'
p1243
tp1244
F0.0015239256324291375
s(S'named'
p1245
S'head'
p1246
S'basketball'
p1247
tp1248
F0.00030478512648582747
s(S'[[con]]'
p1249
S'left'
p1250
S'to'
p1251
tp1252
F0.00030478512648582747
s(S'[[adj]]'
p1253
S'player'
p1254
S'in'
p1255
tp1256
F0.0006095702529716549
s(S'played'
p1257
S'more'
p1258
S'[[num]]'
p1259
tp1260
F0.0006095702529716549
s(S'had'
p1261
g813
g814
tp1262
F0.00030478512648582747
s(S'now'
p1263
S'plays'
p1264
S'with'
p1265
tp1266
F0.00030478512648582747
s(S'[[adj]]'
p1267
S'play'
p1268
S'in'
p1269
tp1270
F0.00030478512648582747
s(S'[[pro]]'
p1271
S'led'
p1272
S'[[det]]'
p1273
tp1274
F0.00030478512648582747
s(S'football'
p1275
S'player'
p1276
S'[[det]]'
p1277
tp1278
F0.0009143553794574825
s(S'[[adj]]'
p1279
S'union'
p1280
S'player'
p1281
tp1282
F0.0009143553794574825
s(S'[[num]]'
p1283
S'seasons'
p1284
S'at'
p1285
tp1286
F0.00030478512648582747
s(S'[[adj]]'
p1287
S'football'
p1288
S'soccer'
p1289
tp1290
F0.0012191405059433099
s(S'later'
p1291
S'signed'
p1292
S'for'
p1293
tp1294
F0.00030478512648582747
s(S'[[num]]'
p1295
S'more'
p1296
S'season'
p1297
tp1298
F0.0012191405059433099
s(S'again'
p1299
S'selected'
p1300
S'in'
p1301
tp1302
F0.00030478512648582747
s(S'was'
p1303
S'previously'
p1304
S'[[det]]'
p1305
tp1306
F0.0009143553794574825
s(S'then'
p1307
S'moved'
p1308
S'to'
p1309
tp1310
F0.00030478512648582747
s(S'[[adj]]'
p1311
S'return'
p1312
S'against'
p1313
tp1314
F0.00030478512648582747
s(S'pitcher'
p1315
g175
g176
tp1316
F0.00030478512648582747
s(S'[[adj]]'
p1317
S'career'
p1318
S'at'
p1319
tp1320
F0.00030478512648582747
s(S'is'
p1321
S'[[adj]]'
p1322
S'head'
p1323
tp1324
F0.0006095702529716549
s(S'more'
p1325
S'season'
p1326
S'in'
p1327
tp1328
F0.00030478512648582747
s(S'defenceman'
p1329
S'who'
p1330
S'played'
p1331
tp1332
F0.003047851264858275
s(S'[[adj]]'
p1333
S'season'
p1334
S'[[num]]'
p1335
tp1336
F0.0006095702529716549
s(S'later'
p1337
S'played'
p1338
S'in'
p1339
tp1340
F0.00030478512648582747
s(S'first'
p1341
S'played'
p1342
S'with'
p1343
tp1344
F0.00030478512648582747
s(S'[[num]]'
p1345
S'games'
p1346
S'at'
p1347
tp1348
F0.00030478512648582747
s(S'was'
p1349
S'coach'
p1350
S'of'
p1351
tp1352
F0.00030478512648582747
s(S'during'
p1353
S'[[num]]'
p1354
S'seasons'
p1355
tp1356
F0.00030478512648582747
s(S'later'
p1357
S'left'
p1358
S'for'
p1359
tp1360
F0.00030478512648582747
s(S'hockey'
p1361
S'defenseman'
p1362
S'currently'
p1363
tp1364
F0.00030478512648582747
s(S'played'
p1365
S'only'
p1366
S'[[num]]'
p1367
tp1368
F0.0012191405059433099
s(g571
g572
S'coach'
p1369
tp1370
F0.0033526363913441025
s(S'until'
p1371
S'joined'
p1372
S'[[det]]'
p1373
tp1374
F0.00030478512648582747
s(S'played'
p1375
S'[[num]]'
p1376
S'game'
p1377
tp1378
F0.003047851264858275
s(S'football'
p1379
S'player'
p1380
S'who'
p1381
tp1382
F0.010362694300518135
s(S'[[adj]]'
p1383
S'football'
p1384
S'head'
p1385
tp1386
F0.00030478512648582747
s(S'[[adj]]'
p1387
S'club'
p1388
S'to'
p1389
tp1390
F0.00030478512648582747
s(S'then'
p1391
S'signed'
p1392
S'in'
p1393
tp1394
F0.00030478512648582747
s(S'was'
p1395
S'selected'
p1396
S'from'
p1397
tp1398
F0.00030478512648582747
s(S'again'
p1399
S'joined'
p1400
S'[[det]]'
p1401
tp1402
F0.00030478512648582747
s(S'who'
p1403
S'has'
p1404
S'played'
p1405
tp1406
F0.0009143553794574825
s(S'[[det]]'
p1407
S'[[adj]]'
p1408
S'game'
p1409
tp1410
F0.0006095702529716549
s(g78
g79
S'in'
p1411
tp1412
F0.0009143553794574825
s(S'was'
p1413
S'moved'
p1414
S'after'
p1415
tp1416
F0.00030478512648582747
s(S'[[mod]]'
p1417
S'remain'
p1418
S'at'
p1419
tp1420
F0.00030478512648582747
s(g391
g392
S'for'
p1421
tp1422
F0.00030478512648582747
s(S'with'
p1423
S'[[con]]'
p1424
S'ndash'
p1425
tp1426
F0.00030478512648582747
s(S'[[det]]'
p1427
S'head'
p1428
S'football'
p1429
tp1430
F0.005790917403230723
s(S'also'
p1431
S'coached'
p1432
S'for'
p1433
tp1434
F0.00030478512648582747
s(S'has'
p1435
S'coached'
p1436
S'at'
p1437
tp1438
F0.00030478512648582747
s(S'previously'
p1439
S'played'
p1440
S'from'
p1441
tp1442
F0.00030478512648582747
s(g1289
S'player'
p1443
S'[[con]]'
p1444
tp1445
F0.00030478512648582747
s(S'won'
p1446
S'promotion'
p1447
S'back'
p1448
tp1449
F0.00030478512648582747
s(S'was'
p1450
S'called'
p1451
S'back'
p1452
tp1453
F0.00030478512648582747
s(S'being'
p1454
S'assigned'
p1455
S'to'
p1456
tp1457
F0.00030478512648582747
s(S'coach'
p1458
S'located'
p1459
S'in'
p1460
tp1461
F0.00030478512648582747
s(S'was'
p1462
S'signed'
p1463
S'under'
p1464
tp1465
F0.00030478512648582747
s(S'then'
p1466
S'called'
p1467
S'[[det]]'
p1468
tp1469
F0.00030478512648582747
s(S'[[num]]'
p1470
S'debut'
p1471
S'for'
p1472
tp1473
F0.00030478512648582747
s(S'until'
p1474
S'retired'
p1475
S'from'
p1476
tp1477
F0.00030478512648582747
s(S'football'
p1478
S'coach'
p1479
S'with'
p1480
tp1481
F0.00030478512648582747
s(S'later'
p1482
S'signed'
p1483
S'with'
p1484
tp1485
F0.00030478512648582747
s(S'been'
p1486
S'named'
p1487
S'by'
p1488
tp1489
F0.00030478512648582747
s(S'[[det]]'
p1490
S'contract'
p1491
S'[[con]]'
p1492
tp1493
F0.00030478512648582747
s(S'mainly'
p1494
S'played'
p1495
S'for'
p1496
tp1497
F0.00030478512648582747
s(S'won'
p1498
S'promotion'
p1499
S'to'
p1500
tp1501
F0.0006095702529716549
s(g1051
g1052
S'[[det]]'
p1502
tp1503
F0.00030478512648582747
s(S'also'
p1504
S'named'
p1505
S'for'
p1506
tp1507
F0.00030478512648582747
s(S'[[adj]]'
p1508
S'games'
p1509
S'against'
p1510
tp1511
F0.00030478512648582747
s(S'contract'
p1512
S'was'
p1513
S'signed'
p1514
tp1515
F0.00030478512648582747
s(S'[[det]]'
p1516
S'player'
p1517
S'in'
p1518
tp1519
F0.00030478512648582747
s(S'[[prp]]'
p1520
S'debut'
p1521
S'[[det]]'
p1522
tp1523
F0.00030478512648582747
s(S'[[num]]'
p1524
S'[[adj]]'
p1525
S'head'
p1526
tp1527
F0.00030478512648582747
s(S'became'
p1528
S'head'
p1529
S'football'
p1530
tp1531
F0.00030478512648582747
s(S'[[adj]]'
p1532
S'trophy'
p1533
g119
tp1534
F0.00030478512648582747
s(S'then'
p1535
S'joined'
p1536
S'[[adj]]'
p1537
tp1538
F0.00030478512648582747
s(S'more'
p1539
S'games'
p1540
S'for'
p1541
tp1542
F0.00030478512648582747
s(S'played'
p1543
S'briefly'
p1544
S'at'
p1545
tp1546
F0.00030478512648582747
s(S'formerly'
p1547
S'played'
p1548
S'for'
p1549
tp1550
F0.00030478512648582747
s(S'only'
p1551
S'played'
p1552
S'against'
p1553
tp1554
F0.00030478512648582747
s(S'where'
p1555
S'played'
p1556
S'against'
p1557
tp1558
F0.00030478512648582747
s(S'made'
p1559
S'debut'
p1560
S'against'
p1561
tp1562
F0.00030478512648582747
s(S'ever'
p1563
S'play'
p1564
S'for'
p1565
tp1566
F0.00030478512648582747
s(S'football'
p1567
S'player'
p1568
S'[[con]]'
p1569
tp1570
F0.0009143553794574825
s(S'while'
p1571
S'playing'
p1572
S'for'
p1573
tp1574
F0.00030478512648582747
s(S'was'
p1575
S'selected'
p1576
S'by'
p1577
tp1578
F0.0009143553794574825
s(S'[[adj]]'
p1579
S'player'
p1580
S'to'
p1581
tp1582
F0.0012191405059433099
s(S'first'
p1583
S'played'
p1584
S'in'
p1585
tp1586
F0.00030478512648582747
s(g1384
g1385
S'coach'
p1587
tp1588
F0.00030478512648582747
s(S'now'
p1589
S'signed'
p1590
S'with'
p1591
tp1592
F0.00030478512648582747
s(S'to'
p1593
S'[[det]]'
p1594
S'contract'
p1595
tp1596
F0.00030478512648582747
s(S'is'
p1597
S'[[det]]'
p1598
S'football'
p1599
tp1600
F0.0021334958854007926
s(S'seasons'
p1601
S'as'
p1602
S'[[det]]'
p1603
tp1604
F0.0006095702529716549
s(S'in'
p1605
S'[[det]]'
p1606
S'games'
p1607
tp1608
F0.00030478512648582747
s(S'then'
p1609
S'coached'
p1610
S'in'
p1611
tp1612
F0.00030478512648582747
s(S'[[adj]]'
p1613
S'forward'
p1614
S'for'
p1615
tp1616
F0.00030478512648582747
s(S'then'
p1617
S'returned'
p1618
S'at'
p1619
tp1620
F0.00030478512648582747
s(S'has'
p1621
S'coached'
p1622
S'in'
p1623
tp1624
F0.00030478512648582747
s(S'[[con]]'
p1625
S'played'
p1626
S'against'
p1627
tp1628
F0.00030478512648582747
s(S'later'
p1629
S'led'
p1630
S'[[det]]'
p1631
tp1632
F0.00030478512648582747
s(g54
g55
S'head'
p1633
tp1634
F0.0006095702529716549
s(S'including'
p1635
S'[[det]]'
p1636
S'winning'
p1637
tp1638
F0.00030478512648582747
s(S'who'
p1639
S'played'
p1640
g1046
tp1641
F0.00030478512648582747
s(S'ice'
p1642
S'hockey'
p1643
S'currently'
p1644
tp1645
F0.00030478512648582747
s(S'also'
p1646
S'named'
p1647
S'of'
p1648
tp1649
F0.00030478512648582747
s(S'which'
p1650
S'returned'
p1651
S'to'
p1652
tp1653
F0.00030478512648582747
s(S'is'
p1654
S'[[adj]]'
p1655
S'player'
p1656
tp1657
F0.00030478512648582747
s(g237
S'seasons'
p1658
S'in'
p1659
tp1660
F0.00030478512648582747
s(S'only'
p1661
S'[[num]]'
p1662
S'game'
p1663
tp1664
F0.00030478512648582747
s(S'[[det]]'
p1665
S'located'
p1666
S'in'
p1667
tp1668
F0.0006095702529716549
s(S'[[prp]]'
p1669
S'game'
p1670
S'for'
p1671
tp1672
F0.00030478512648582747
s(S'contract'
p1673
S'with'
p1674
S'club'
p1675
tp1676
F0.0009143553794574825
s(S'was'
p1677
S'selected'
p1678
S'[[det]]'
p1679
tp1680
F0.00030478512648582747
s(S'in'
p1681
S'[[num]]'
p1682
S'games'
p1683
tp1684
F0.0015239256324291375
s(S'was'
p1685
S'[[adj]]'
p1686
S'head'
p1687
tp1688
F0.00030478512648582747
s(S'[[det]]'
p1689
S'player'
p1690
S'with'
p1691
tp1692
F0.00030478512648582747
s(S'[[adj]]'
p1693
g1478
g1479
tp1694
F0.0009143553794574825
s(S'hockey'
p1695
g1329
g1330
tp1696
F0.0033526363913441025
s(S'with'
p1697
S'[[det]]'
p1698
S'newly'
p1699
tp1700
F0.00030478512648582747
s(S'[[det]]'
p1701
S'football'
p1702
S'linebacker'
p1703
tp1704
F0.00030478512648582747
s(g304
g305
S'as'
p1705
tp1706
F0.00030478512648582747
s(S'[[adj]]'
p1707
S'season'
p1708
S'[[con]]'
p1709
tp1710
F0.0006095702529716549
s(S'goaltender'
p1711
S'currently'
p1712
S'playing'
p1713
tp1714
F0.0006095702529716549
s(S'player'
p1715
S'[[adj]]'
p1716
S'pick'
p1717
tp1718
F0.00030478512648582747
s(g217
g193
S'basketball'
p1719
tp1720
F0.0027430661383724473
s(S'then'
p1721
S'joined'
p1722
S'[[num]]'
p1723
tp1724
F0.00030478512648582747
s(S'was'
p1725
S'[[adj]]'
p1726
S'ice'
p1727
tp1728
F0.00030478512648582747
s(S'with'
p1729
S'established'
p1730
S'[[det]]'
p1731
tp1732
F0.00030478512648582747
s(S'was'
p1733
S'called'
p1734
S'for'
p1735
tp1736
F0.00030478512648582747
s(S'later'
p1737
S'played'
p1738
S'on'
p1739
tp1740
F0.00030478512648582747
s(S'[[det]]'
p1741
S'[[num]]'
p1742
S'season'
p1743
tp1744
F0.0015239256324291375
s(S'while'
p1745
S'played'
p1746
S'for'
p1747
tp1748
F0.00030478512648582747
s(S'[[num]]'
p1749
S'seasons'
p1750
S'of'
p1751
tp1752
F0.00030478512648582747
s(S'football'
p1753
S'midfielder'
p1754
S'who'
p1755
tp1756
F0.0006095702529716549
s(g866
g867
g1673
tp1757
F0.0015239256324291375
s(S'men'
p1758
g193
S'head'
p1759
tp1760
F0.00030478512648582747
s(g923
S'coach'
p1761
S'in'
p1762
tp1763
F0.00030478512648582747
s(S'again'
p1764
S'finished'
p1765
S'in'
p1766
tp1767
F0.00030478512648582747
s(S'[[num]]'
p1768
S'contract'
p1769
S'with'
p1770
tp1771
F0.00030478512648582747
s(g1288
g1289
g1443
tp1772
F0.0015239256324291375
s(S'before'
p1773
S'moved'
p1774
S'to'
p1775
tp1776
F0.00030478512648582747
s(S'football'
p1777
S'coach'
p1778
S'in'
p1779
tp1780
F0.00030478512648582747
s(S'[[adj]]'
p1781
S'season'
p1782
S'[[prp]]'
p1783
tp1784
F0.00030478512648582747
s(S'later'
p1785
S'played'
p1786
S'[[con]]'
p1787
tp1788
F0.00030478512648582747
s(S'[[adj]]'
p1789
S'coach'
p1790
S'with'
p1791
tp1792
F0.00030478512648582747
s(S'recorded'
p1793
S'[[prp]]'
p1794
S'[[adj]]'
p1795
tp1796
F0.0006095702529716549
s(S'[[con]]'
p1797
S'led'
p1798
S'to'
p1799
tp1800
F0.00030478512648582747
s(S'was'
p1801
S'signed'
p1802
S'for'
p1803
tp1804
F0.00030478512648582747
s(S'ever'
p1805
S'play'
p1806
S'in'
p1807
tp1808
F0.00030478512648582747
s(S'[[mod]]'
p1809
S'compete'
p1810
S'for'
p1811
tp1812
F0.00030478512648582747
s(S'was'
p1813
S'coach'
p1814
S'for'
p1815
tp1816
F0.00030478512648582747
s(S'[[adj]]'
p1817
S'player'
p1818
S'at'
p1819
tp1820
F0.00030478512648582747
s(g567
g568
S'of'
p1821
tp1822
F0.0015239256324291375
s(S'also'
p1823
S'selected'
p1824
S'[[det]]'
p1825
tp1826
F0.00030478512648582747
s(g687
g688
S'currently'
p1827
tp1828
F0.00030478512648582747
s(S'later'
p1829
S'coached'
p1830
S'at'
p1831
tp1832
F0.00030478512648582747
s(S'[[num]]'
p1833
S'game'
p1834
S'[[det]]'
p1835
tp1836
F0.00030478512648582747
s(g1640
g1046
g1047
tp1837
F0.00030478512648582747
s(S'formerly'
p1838
S'played'
p1839
S'as'
p1840
tp1841
F0.00030478512648582747
s(S'later'
p1842
S'played'
p1843
S'with'
p1844
tp1845
F0.00030478512648582747
s(S'soon'
p1846
S'moved'
p1847
S'on'
p1848
tp1849
F0.00030478512648582747
s(S'was'
p1850
S'named'
p1851
S'for'
p1852
tp1853
F0.00030478512648582747
s(S'goalkeeper'
p1854
S'currently'
p1855
S'playing'
p1856
tp1857
F0.00030478512648582747
s(S'[[adj]]'
p1858
g1315
g175
tp1859
F0.00030478512648582747
s(S'[[con]]'
p1860
S'signed'
p1861
S'for'
p1862
tp1863
F0.00030478512648582747
s(S'[[num]]'
p1864
S'led'
p1865
S'[[det]]'
p1866
tp1867
F0.00030478512648582747
s(S'currently'
p1868
S'playing'
p1869
S'in'
p1870
tp1871
F0.0009143553794574825
s(S'[[adj]]'
p1872
S'head'
p1873
S'football'
p1874
tp1875
F0.0027430661383724473
s(S'[[det]]'
p1876
S'coach'
p1877
S'in'
p1878
tp1879
F0.00030478512648582747
s(S'[[pro]]'
p1880
S'joined'
p1881
S'[[det]]'
p1882
tp1883
F0.00030478512648582747
s(S'[[adj]]'
p1884
S'coach'
p1885
S'of'
p1886
tp1887
F0.00030478512648582747
s(S'be'
p1888
S'called'
p1889
S'[[det]]'
p1890
tp1891
F0.00030478512648582747
s(S'[[adj]]'
p1892
S'men'
p1893
g193
tp1894
F0.0009143553794574825
s(S'[[con]]'
p1895
S'won'
p1896
S'promotion'
p1897
tp1898
F0.00030478512648582747
s(S'born'
p1899
S'[[num]]'
p1900
S'[[det]]'
p1901
tp1902
F0.00609570252971655
s(S'also'
p1903
S'named'
p1904
S'in'
p1905
tp1906
F0.00030478512648582747
s(S'football'
p1907
S'currently'
p1908
S'plays'
p1909
tp1910
F0.00030478512648582747
s(g1599
g1155
g1156
tp1911
F0.001828710758914965
s(S'was'
p1912
S'joined'
p1913
S'on'
p1914
tp1915
F0.00030478512648582747
s(S'more'
p1916
S'season'
p1917
S'with'
p1918
tp1919
F0.00030478512648582747
s(S'later'
p1920
S'joined'
p1921
S'[[con]]'
p1922
tp1923
F0.00030478512648582747
s(S'[[num]]'
p1924
g1539
g1540
tp1925
F0.00030478512648582747
s(S'hockey'
p1926
S'[[adj]]'
p1927
S'winger'
p1928
tp1929
F0.0009143553794574825
s(S'began'
p1930
S'to'
p1931
S'playing'
p1932
tp1933
F0.00030478512648582747
s(S'put'
p1934
S'forward'
p1935
S'by'
p1936
tp1937
F0.00030478512648582747
s(S'who'
p1938
S'played'
p1939
S'center'
p1940
tp1941
F0.00030478512648582747
s(S'[[mod]]'
p1942
S'remain'
p1943
S'[[adj]]'
p1944
tp1945
F0.00030478512648582747
s(S'has'
p1946
S'returned'
p1947
S'to'
p1948
tp1949
F0.00030478512648582747
s(S'[[det]]'
p1950
S'tenth'
p1951
S'head'
p1952
tp1953
F0.00030478512648582747
s(S'[[con]]'
p1954
S'served'
p1955
S'as'
p1956
tp1957
F0.00030478512648582747
s(S'has'
p1958
S'led'
p1959
S'[[det]]'
p1960
tp1961
F0.00030478512648582747
s(S'played'
p1962
S'[[num]]'
p1963
S'seasons'
p1964
tp1965
F0.009448338921060652
s(S'to'
p1966
S'remain'
p1967
S'as'
p1968
tp1969
F0.00030478512648582747
s(S'[[num]]'
p1970
S'[[adj]]'
p1971
S'season'
p1972
tp1973
F0.00030478512648582747
s(S'[[det]]'
p1974
S'coach'
p1975
S'for'
p1976
tp1977
F0.00030478512648582747
s(S'[[pro]]'
p1978
S'won'
p1979
S'[[det]]'
p1980
tp1981
F0.00030478512648582747
s(S'played'
p1982
g143
g144
tp1983
F0.0009143553794574825
s(g1931
g1932
S'against'
p1984
tp1985
F0.00030478512648582747
s(S'appearing'
p1986
g566
g567
tp1987
F0.00030478512648582747
s(S'also'
p1988
S'play'
p1989
S'[[det]]'
p1990
tp1991
F0.00030478512648582747
s(S'[[num]]'
p1992
S'season'
p1993
S'for'
p1994
tp1995
F0.0012191405059433099
s(S'also'
p1996
S'coached'
p1997
S'with'
p1998
tp1999
F0.00030478512648582747
s(g1794
g1795
S'win'
p2000
tp2001
F0.0006095702529716549
s(S'winger'
p2002
S'currently'
p2003
S'playing'
p2004
tp2005
F0.0009143553794574825
s(S'was'
p2006
S'signed'
p2007
S'with'
p2008
tp2009
F0.00030478512648582747
s(S'[[num]]'
p2010
S'[[det]]'
p2011
S'member'
p2012
tp2013
F0.0006095702529716549
s(S'[[num]]'
p2014
S'games'
p2015
S'with'
p2016
tp2017
F0.003047851264858275
s(S'became'
p2018
S'coach'
p2019
S'for'
p2020
tp2021
F0.00030478512648582747
s(S'was'
p2022
S'moved'
p2023
S'as'
p2024
tp2025
F0.00030478512648582747
s(S'also'
p2026
S'played'
p2027
S'once'
p2028
tp2029
F0.00030478512648582747
s(S'as'
p2030
S'moved'
p2031
S'to'
p2032
tp2033
F0.00030478512648582747
s(S'also'
p2034
S'play'
p2035
S'in'
p2036
tp2037
F0.00030478512648582747
s(S'were'
p2038
S'named'
p2039
S'as'
p2040
tp2041
F0.00030478512648582747
s(S'[[adj]]'
p2042
S'signed'
p2043
S'by'
p2044
tp2045
F0.00030478512648582747
s(S'later'
p2046
S'left'
p2047
S'[[det]]'
p2048
tp2049
F0.00030478512648582747
s(S'[[prp]]'
p2050
S'debut'
p2051
S'[[num]]'
p2052
tp2053
F0.00030478512648582747
s(S'head'
p2054
S'college'
p2055
S'football'
p2056
tp2057
F0.0015239256324291375
s(S'contract'
p2058
g1074
g1075
tp2059
F0.00030478512648582747
s(S'then'
p2060
S'moved'
p2061
S'up'
p2062
tp2063
F0.00030478512648582747
s(S'[[num]]'
p2064
S'died'
p2065
S'[[num]]'
p2066
tp2067
F0.00030478512648582747
s(g105
g1243
S'who'
p2068
tp2069
F0.0033526363913441025
s(S'football'
p2070
g41
g42
tp2071
F0.00030478512648582747
s(S'born'
p2072
S'is'
p2073
S'[[adj]]'
p2074
tp2075
F0.01920146296860713
s(S'[[det]]'
p2076
S'career'
p2077
S'[[adj]]'
p2078
tp2079
F0.00030478512648582747
s(S'was'
p2080
S'called'
p2081
S'in'
p2082
tp2083
F0.00030478512648582747
s(S'also'
p2084
S'played'
p2085
S'against'
p2086
tp2087
F0.00030478512648582747
s(S'was'
p2088
S'named'
p2089
S'in'
p2090
tp2091
F0.00030478512648582747
s(S'previously'
p2092
S'played'
p2093
S'as'
p2094
tp2095
F0.00030478512648582747
s(S'which'
p2096
S'played'
p2097
S'[[con]]'
p2098
tp2099
F0.00030478512648582747
s(g193
S'promotion'
p2100
S'to'
p2101
tp2102
F0.00030478512648582747
s(S'signed'
p2103
g1593
g1594
tp2104
F0.00030478512648582747
s(S'plays'
p2105
S'professionally'
p2106
S'with'
p2107
tp2108
F0.00030478512648582747
s(S'had'
p2109
S'previously'
p2110
S'served'
p2111
tp2112
F0.0009143553794574825
s(S'signed'
p2113
g913
g914
tp2114
F0.004266991770801585
s(S'[[con]]'
p2115
S'retired'
p2116
S'from'
p2117
tp2118
F0.00030478512648582747
s(S'[[con]]'
p2119
S'played'
p2120
S'on'
p2121
tp2122
F0.00030478512648582747
s(S'[[det]]'
p2123
g1907
g1908
tp2124
F0.0006095702529716549
s(S'[[adj]]'
p2125
S'season'
p2126
S'with'
p2127
tp2128
F0.0015239256324291375
s(S'played'
p2129
S'twice'
p2130
S'[[adj]]'
p2131
tp2132
F0.00030478512648582747
s(S'[[det]]'
p2133
S'playing'
p2134
S'for'
p2135
tp2136
F0.00030478512648582747
s(S'been'
p2137
S'named'
p2138
S'as'
p2139
tp2140
F0.00030478512648582747
s(S'to'
p2141
S'coach'
p2142
S'in'
p2143
tp2144
F0.00030478512648582747
s(S'then'
p2145
S'led'
p2146
S'[[det]]'
p2147
tp2148
F0.00030478512648582747
s(S'[[det]]'
p2149
S'player'
p2150
S'at'
p2151
tp2152
F0.00030478512648582747
s(S'head'
p2153
S'coach'
p2154
S'for'
p2155
tp2156
F0.0021334958854007926
s(S'to'
p2157
S'play'
p2158
S'during'
p2159
tp2160
F0.00030478512648582747
s(S'won'
p2161
S'[[con]]'
p2162
S'promotion'
p2163
tp2164
F0.00030478512648582747
s(S'then'
p2165
S'assigned'
p2166
S'as'
p2167
tp2168
F0.00030478512648582747
s(S'[[det]]'
p2169
S'[[num]]'
p2170
S'games'
p2171
tp2172
F0.00030478512648582747
s(S'named'
p2173
S'[[det]]'
p2174
S'head'
p2175
tp2176
F0.0015239256324291375
s(S'to'
p2177
S'play'
p2178
S'against'
p2179
tp2180
F0.00030478512648582747
s(g627
g628
S'playing'
p2181
tp2182
F0.0024382810118866198
s(S'be'
p2183
S'named'
p2184
S'of'
p2185
tp2186
F0.00030478512648582747
s(g193
g1759
S'coach'
p2187
tp2188
F0.00030478512648582747
s(g874
g875
S'in'
p2189
tp2190
F0.00030478512648582747
s(S'was'
p2191
S'named'
p2192
S'[[con]]'
p2193
tp2194
F0.00030478512648582747
s(S'also'
p2195
S'plays'
p2196
S'in'
p2197
tp2198
F0.00030478512648582747
s(S'who'
p2199
S'[[adj]]'
p2200
S'tackle'
p2201
tp2202
F0.00030478512648582747
s(S'was'
p2203
S'suspended'
p2204
S'from'
p2205
tp2206
F0.00030478512648582747
s(g384
g183
g184
tp2207
F0.00030478512648582747
s(S'not'
p2208
S'selected'
p2209
S'against'
p2210
tp2211
F0.00030478512648582747
s(S'[[prp]]'
p2212
S'[[adj]]'
p2213
S'season'
p2214
tp2215
F0.0021334958854007926
s(S'again'
p2216
S'played'
p2217
S'in'
p2218
tp2219
F0.00030478512648582747
s(S'[[adj]]'
p2220
S'coach'
p2221
S'[[num]]'
p2222
tp2223
F0.00030478512648582747
s(S'football'
p2224
g33
g34
tp2225
F0.00030478512648582747
s(S'[[adj]]'
p2226
S'player'
p2227
S'on'
p2228
tp2229
F0.00030478512648582747
s(S'football'
p2230
S'goalkeeper'
p2231
S'who'
p2232
tp2233
F0.00030478512648582747
s(S'later'
p2234
S'return'
p2235
S'to'
p2236
tp2237
F0.00030478512648582747
s(S'has'
p2238
S'signed'
p2239
S'for'
p2240
tp2241
F0.00030478512648582747
s(g1280
g1281
S'who'
p2242
tp2243
F0.0009143553794574825
s(S'[[adj]]'
p2244
S'contract'
p2245
S'at'
p2246
tp2247
F0.0006095702529716549
s(S'[[con]]'
p2248
S'played'
p2249
S'in'
p2250
tp2251
F0.00030478512648582747
s(S'[[con]]'
p2252
S'spent'
p2253
S'time'
p2254
tp2255
F0.00030478512648582747
s(S'basketball'
p2256
g1715
g1716
tp2257
F0.00030478512648582747
s(S'also'
p2258
S'established'
p2259
S'[[pro]]'
p2260
tp2261
F0.00030478512648582747
s(S'before'
p2262
S'playing'
p2263
S'for'
p2264
tp2265
F0.00030478512648582747
s(S'had'
p2266
S'played'
p2267
S'at'
p2268
tp2269
F0.00030478512648582747
s(S'then'
p2270
S'played'
p2271
S'at'
p2272
tp2273
F0.00030478512648582747
s(S'was'
p2274
S'named'
p2275
S'on'
p2276
tp2277
F0.00030478512648582747
s(S'has'
p2278
S'played'
p2279
S'[[adj]]'
p2280
tp2281
F0.00030478512648582747
s(S'[[adj]]'
p2282
g195
g196
tp2283
F0.003962206644315757
s(S'formerly'
p2284
S'played'
p2285
S'at'
p2286
tp2287
F0.00030478512648582747
s(S'be'
p2288
S'signed'
p2289
S'by'
p2290
tp2291
F0.00030478512648582747
s(S'midfielder'
p2292
S'currently'
p2293
S'playing'
p2294
tp2295
F0.00030478512648582747
s(S'played'
p2296
S'where'
p2297
S'[[num]]'
p2298
tp2299
F0.00030478512648582747
s(S'have'
p2300
S'played'
p2301
S'in'
p2302
tp2303
F0.00030478512648582747
s(S'in'
p2304
S'of'
p2305
S'games'
p2306
tp2307
F0.00030478512648582747
s(g631
g374
g375
tp2308
F0.00030478512648582747
s(S'when'
p2309
S'retired'
p2310
S'from'
p2311
tp2312
F0.00030478512648582747
s(g1429
S'coach'
p2313
S'for'
p2314
tp2315
F0.003962206644315757
s(S'played'
p2316
S'professionally'
p2317
S'with'
p2318
tp2319
F0.0006095702529716549
s(S'ice'
p2320
S'hockey'
p2321
S'with'
p2322
tp2323
F0.00030478512648582747
s(S'coach'
p2324
S'[[con]]'
p2325
S'ndash'
p2326
tp2327
F0.0009143553794574825
s(S'be'
p2328
S'selected'
p2329
S'to'
p2330
tp2331
F0.00030478512648582747
s(S'was'
p2332
S'signed'
p2333
S'from'
p2334
tp2335
F0.00030478512648582747
s(S'hockey'
p2336
S'player'
p2337
S'[[con]]'
p2338
tp2339
F0.00030478512648582747
s(S'then'
p2340
S'joined'
p2341
S'on'
p2342
tp2343
F0.00030478512648582747
s(S'[[adj]]'
p2344
S'coach'
p2345
S'for'
p2346
tp2347
F0.0009143553794574825
s(S'was'
p2348
S'selected'
p2349
S'at'
p2350
tp2351
F0.00030478512648582747
s(S'played'
p2352
S'briefly'
p2353
S'for'
p2354
tp2355
F0.0006095702529716549
s(S'[[adj]]'
p2356
S'football'
p2357
S'linebacker'
p2358
tp2359
F0.0006095702529716549
s(S'was'
p2360
S'called'
p2361
S'with'
p2362
tp2363
F0.00030478512648582747
s(S'was'
p2364
S'playing'
p2365
S'on'
p2366
tp2367
F0.00030478512648582747
s(S'[[num]]'
p2368
S'[[adj]]'
p2369
S'football'
p2370
tp2371
F0.003047851264858275
s(S'[[con]]'
p2372
S'[[det]]'
p2373
S'men'
p2374
tp2375
F0.00030478512648582747
s(S'[[det]]'
p2376
S'season'
p2377
S'for'
p2378
tp2379
F0.00030478512648582747
s(S'basketball'
p2380
g2372
g2373
tp2381
F0.00030478512648582747
s(S'[[adj]]'
p2382
S'game'
p2383
S'in'
p2384
tp2385
F0.00030478512648582747
s(S'is'
p2386
S'named'
p2387
S'by'
p2388
tp2389
F0.00030478512648582747
s(S'[[adj]]'
p2390
S'season'
p2391
S'back'
p2392
tp2393
F0.00030478512648582747
s(S'[[num]]'
p2394
S'[[det]]'
p2395
S'soccer'
p2396
tp2397
F0.00030478512648582747
s(S'was'
p2398
S'assigned'
p2399
S'as'
p2400
tp2401
F0.00030478512648582747
s(S'[[det]]'
p2402
S'rugby'
p2403
S'union'
p2404
tp2405
F0.0006095702529716549
s(S'[[det]]'
p2406
S'ice'
p2407
S'hockey'
p2408
tp2409
F0.0012191405059433099
s(S'later'
p2410
S'entered'
p2411
S'[[det]]'
p2412
tp2413
F0.00030478512648582747
s(S'[[num]]'
p2414
S'seasons'
p2415
S'[[con]]'
p2416
tp2417
F0.0009143553794574825
s(S'[[det]]'
p2418
S'[[adj]]'
p2419
S'head'
p2420
tp2421
F0.0009143553794574825
s(S'as'
p2422
S'led'
p2423
S'[[det]]'
p2424
tp2425
F0.00030478512648582747
s(S'was'
p2426
S'named'
p2427
S'to'
p2428
tp2429
F0.00030478512648582747
s(S'to'
p2430
S'play'
p2431
S'as'
p2432
tp2433
F0.00030478512648582747
s(S'teams'
p2434
S'[[num]]'
p2435
S'head'
p2436
tp2437
F0.00030478512648582747
s(S'be'
p2438
S'selected'
p2439
S'by'
p2440
tp2441
F0.00030478512648582747
s(g882
g883
S'back'
p2442
tp2443
F0.00030478512648582747
s(S'soon'
p2444
S'left'
p2445
S'[[det]]'
p2446
tp2447
F0.00030478512648582747
s(g1900
g1901
S'association'
p2448
tp2449
F0.0009143553794574825
s(S'later'
p2450
S'returned'
p2451
S'to'
p2452
tp2453
F0.00030478512648582747
s(S'[[adj]]'
p2454
S'joined'
p2455
S'[[det]]'
p2456
tp2457
F0.00030478512648582747
s(S'[[adj]]'
p2458
S'career'
p2459
S'for'
p2460
tp2461
F0.00030478512648582747
s(S'currently'
p2462
S'playing'
p2463
S'with'
p2464
tp2465
F0.0006095702529716549
s(S'signed'
p2466
g1110
g1111
tp2467
F0.00030478512648582747
s(S'[[num]]'
p2468
S'seasons'
p2469
S'for'
p2470
tp2471
F0.0027430661383724473
s(g1444
g1175
g1176
tp2472
F0.00030478512648582747
s(S'also'
p2473
S'named'
p2474
S'at'
p2475
tp2476
F0.00030478512648582747
s(S'who'
p2477
S'currently'
p2478
S'plays'
p2479
tp2480
F0.0048765620237732395
s(S'seasons'
p2481
S'[[num]]'
p2482
g1986
tp2483
F0.00030478512648582747
s(S'had'
p2484
S'finished'
p2485
S'[[adj]]'
p2486
tp2487
F0.00030478512648582747
s(S'[[adj]]'
p2488
S'played'
p2489
S'on'
p2490
tp2491
F0.00030478512648582747
s(S'[[det]]'
p2492
S'contract'
p2493
S'at'
p2494
tp2495
F0.00030478512648582747
s(S'[[num]]'
p2496
S'[[adj]]'
p2497
S'women'
p2498
tp2499
F0.00030478512648582747
s(S'has'
p2500
S'played'
p2501
S'[[con]]'
p2502
tp2503
F0.00030478512648582747
s(S'signed'
p2504
S'[[det]]'
p2505
g1768
tp2506
F0.0021334958854007926
s(g2073
g2074
S'ice'
p2507
tp2508
F0.00853398354160317
s(S'played'
p2509
S'[[adj]]'
p2510
g2320
tp2511
F0.00030478512648582747
s(S'to'
p2512
S'coach'
p2513
S'[[con]]'
p2514
tp2515
F0.00030478512648582747
s(S'is'
p2516
S'[[det]]'
p2517
S'basketball'
p2518
tp2519
F0.00030478512648582747
s(S'[[con]]'
p2520
S'played'
p2521
S'twice'
p2522
tp2523
F0.00030478512648582747
s(S'had'
p2524
S'finished'
p2525
S'third'
p2526
tp2527
F0.00030478512648582747
s(S'player'
p2528
g1403
g1404
tp2529
F0.0009143553794574825
s(S'also'
p2530
S'played'
p2531
S'in'
p2532
tp2533
F0.0009143553794574825
s(S'then'
p2534
S'coach'
p2535
S'of'
p2536
tp2537
F0.00030478512648582747
s(g2338
S'coach'
p2538
S'who'
p2539
tp2540
F0.00030478512648582747
s(S'currently'
p2541
S'plays'
p2542
S'in'
p2543
tp2544
F0.00030478512648582747
s(S'football'
p2545
S'player'
p2546
S'currently'
p2547
tp2548
F0.0015239256324291375
s(S'[[adj]]'
p2549
S'career'
p2550
S'in'
p2551
tp2552
F0.00030478512648582747
s(S'seasons'
p2553
S'[[num]]'
p2554
S'[[det]]'
p2555
tp2556
F0.00030478512648582747
s(S'seasons'
p2557
g1423
g1424
tp2558
F0.00030478512648582747
s(S'by'
p2559
S'playing'
p2560
S'for'
p2561
tp2562
F0.00030478512648582747
s(S'was'
p2563
S'coached'
p2564
S'at'
p2565
tp2566
F0.00030478512648582747
s(S'head'
p2567
S'football'
p2568
S'[[con]]'
p2569
tp2570
F0.00030478512648582747
s(S'later'
p2571
S'named'
p2572
S'[[det]]'
p2573
tp2574
F0.00030478512648582747
s(S'formerly'
p2575
S'played'
p2576
S'[[num]]'
p2577
tp2578
F0.00030478512648582747
s(S'later'
p2579
S'play'
p2580
S'with'
p2581
tp2582
F0.00030478512648582747
s(g2497
g2498
g1086
tp2583
F0.00030478512648582747
s(S'later'
p2584
S'signed'
p2585
S'to'
p2586
tp2587
F0.00030478512648582747
s(S'has'
p2588
S'played'
p2589
S'on'
p2590
tp2591
F0.00030478512648582747
s(S'born'
p2592
S'[[num]]'
p2593
S'football'
p2594
tp2595
F0.00030478512648582747
s(S'football'
p2596
S'player'
p2597
S'with'
p2598
tp2599
F0.00030478512648582747
s(S'later'
p2600
S'coached'
p2601
S'for'
p2602
tp2603
F0.00030478512648582747
s(S'[[adj]]'
p2604
g2054
g2055
tp2605
F0.0012191405059433099
s(g2111
S'as'
p2606
S'[[adj]]'
p2607
tp2608
F0.003047851264858275
s(S'[[con]]'
p2609
S'previously'
p2610
S'played'
p2611
tp2612
F0.00030478512648582747
s(S'then'
p2613
S'returned'
p2614
S'where'
p2615
tp2616
F0.00030478512648582747
s(S'rules'
p2617
S'football'
p2618
S'for'
p2619
tp2620
F0.0006095702529716549
s(S'[[num]]'
p2621
S'games'
p2622
S'before'
p2623
tp2624
F0.00030478512648582747
s(S'[[mod]]'
p2625
S'remain'
p2626
S'[[det]]'
p2627
tp2628
F0.00030478512648582747
s(S'later'
p2629
S'played'
p2630
S'twice'
p2631
tp2632
F0.00030478512648582747
s(S'first'
p2633
S'played'
p2634
S'at'
p2635
tp2636
F0.00030478512648582747
s(S'while'
p2637
S'moved'
p2638
S'to'
p2639
tp2640
F0.00030478512648582747
s(S'was'
p2641
S'joined'
p2642
S'in'
p2643
tp2644
F0.00030478512648582747
s(g2170
g2171
S'for'
p2645
tp2646
F0.0051813471502590676
s(S'was'
p2647
S'named'
p2648
S'at'
p2649
tp2650
F0.00030478512648582747
s(g1702
g1703
S'for'
p2651
tp2652
F0.0006095702529716549
s(g1716
g1717
S'played'
p2653
tp2654
F0.00030478512648582747
s(S'[[det]]'
p2655
S'retired'
p2656
S'in'
p2657
tp2658
F0.00030478512648582747
s(g1111
g1112
S'contract'
p2659
tp2660
F0.00030478512648582747
s(S'[[det]]'
p2661
S'cup'
p2662
S'treble'
p2663
tp2664
F0.00030478512648582747
s(S'who'
p2665
S'played'
p2666
S'with'
p2667
tp2668
F0.0021334958854007926
s(S'was'
p2669
S'playing'
p2670
S'[[adj]]'
p2671
tp2672
F0.00030478512648582747
s(g2662
g2663
S'of'
p2673
tp2674
F0.00030478512648582747
s(S'[[adj]]'
p2675
S'playing'
p2676
S'in'
p2677
tp2678
F0.00030478512648582747
s(S'was'
p2679
S'selected'
p2680
S'against'
p2681
tp2682
F0.00030478512648582747
s(S'[[det]]'
p2683
S'game'
p2684
S'for'
p2685
tp2686
F0.0009143553794574825
s(S'[[det]]'
p2687
S'coach'
p2688
S'with'
p2689
tp2690
F0.00030478512648582747
s(S'[[det]]'
p2691
S'moved'
p2692
S'to'
p2693
tp2694
F0.00030478512648582747
s(S'complete'
p2695
S'[[det]]'
p2696
S'treble'
p2697
tp2698
F0.00030478512648582747
s(S'also'
p2699
g1019
g1020
tp2700
F0.0006095702529716549
s(S'was'
p2701
S'returned'
p2702
S'by'
p2703
tp2704
F0.00030478512648582747
s(S'born'
p2705
S'is'
p2706
g2406
tp2707
F0.0051813471502590676
s(S'[[con]]'
p2708
S'joined'
p2709
S'[[det]]'
p2710
tp2711
F0.00030478512648582747
s(g1047
g1048
S'for'
p2712
tp2713
F0.00030478512648582747
s(S'[[det]]'
p2714
g1379
g1380
tp2715
F0.003047851264858275
s(S'coach'
p2716
g1635
g1636
tp2717
F0.0009143553794574825
s(S'football'
p2718
S'running'
p2719
S'back'
p2720
tp2721
F0.0021334958854007926
s(S'in'
p2722
S'[[adj]]'
p2723
S'game'
p2724
tp2725
F0.0006095702529716549
s(S'hockey'
p2726
S'player'
p2727
S'in'
p2728
tp2729
F0.00030478512648582747
s(S'[[mod]]'
p2730
S'play'
p2731
S'[[con]]'
p2732
tp2733
F0.00030478512648582747
s(S'was'
p2734
S'returned'
p2735
S'[[con]]'
p2736
tp2737
F0.00030478512648582747
s(g193
S'return'
p2738
S'after'
p2739
tp2740
F0.00030478512648582747
s(S'been'
p2741
S'playing'
p2742
S'in'
p2743
tp2744
F0.00030478512648582747
s(S'is'
p2745
S'football'
p2746
g1058
tp2747
F0.00030478512648582747
s(S'which'
p2748
S'led'
p2749
S'at'
p2750
tp2751
F0.00030478512648582747
s(S'played'
p2752
g135
g136
tp2753
F0.0006095702529716549
s(S'[[adj]]'
p2754
S'soccer'
p2755
S'player'
p2756
tp2757
F0.0006095702529716549
s(S'signing'
p2758
S'[[det]]'
p2759
S'[[adj]]'
p2760
tp2761
F0.00030478512648582747
s(S'signed'
p2762
g1118
g1119
tp2763
F0.0009143553794574825
s(S'were'
p2764
S'promoted'
p2765
S'to'
p2766
tp2767
F0.00030478512648582747
s(S'who'
p2768
S'played'
p2769
S'linebacker'
p2770
tp2771
F0.00030478512648582747
s(S'basketball'
p2772
S'coach'
p2773
S'[[con]]'
p2774
tp2775
F0.0006095702529716549
s(S'[[adj]]'
p2776
S'debut'
p2777
S'[[con]]'
p2778
tp2779
F0.00030478512648582747
s(g1366
g1367
S'games'
p2780
tp2781
F0.0006095702529716549
s(S'on'
p2782
S'playing'
p2783
S'for'
p2784
tp2785
F0.00030478512648582747
s(S'also'
p2786
S'selected'
p2787
S'in'
p2788
tp2789
F0.00030478512648582747
s(S'in'
p2790
S'who'
p2791
S'played'
p2792
tp2793
F0.00030478512648582747
s(S'[[adj]]'
p2794
S'association'
p2795
S'football'
p2796
tp2797
F0.0012191405059433099
s(S'ever'
p2798
S'played'
p2799
S'for'
p2800
tp2801
F0.00030478512648582747
s(S'to'
p2802
S'play'
p2803
S'[[det]]'
p2804
tp2805
F0.00030478512648582747
s(S'be'
p2806
S'playing'
p2807
S'for'
p2808
tp2809
F0.00030478512648582747
s(S'[[adj]]'
p2810
S'game'
p2811
S'by'
p2812
tp2813
F0.00030478512648582747
s(S'when'
p2814
S'signed'
p2815
S'for'
p2816
tp2817
F0.00030478512648582747
s(S'while'
p2818
S'joined'
p2819
S'[[det]]'
p2820
tp2821
F0.00030478512648582747
s(S'back'
p2822
S'playing'
p2823
S'[[det]]'
p2824
tp2825
F0.00030478512648582747
s(S'[[adj]]'
p2826
S'game'
p2827
S'as'
p2828
tp2829
F0.00030478512648582747
s(g1569
S'coach'
p2830
S'in'
p2831
tp2832
F0.0009143553794574825
s(S'head'
p2833
S'coach'
p2834
S'[[det]]'
p2835
tp2836
F0.0015239256324291375
s(S'then'
p2837
S'returned'
p2838
S'in'
p2839
tp2840
F0.00030478512648582747
s(S'[[det]]'
p2841
S'player'
p2842
S'that'
p2843
tp2844
F0.00030478512648582747
s(S'then'
p2845
S'moved'
p2846
S'for'
p2847
tp2848
F0.00030478512648582747
s(S'also'
p2849
g570
g571
tp2850
F0.0009143553794574825
s(S'since'
p2851
S'played'
p2852
S'with'
p2853
tp2854
F0.00030478512648582747
s(S'had'
p2855
S'played'
p2856
S'with'
p2857
tp2858
F0.00030478512648582747
s(S'also'
p2859
S'played'
p2860
S'with'
p2861
tp2862
F0.00030478512648582747
s(S'was'
p2863
S'signed'
p2864
S'on'
p2865
tp2866
F0.00030478512648582747
s(g711
g771
S'by'
p2867
tp2868
F0.00030478512648582747
s(S'[[pro]]'
p2869
S'played'
p2870
S'together'
p2871
tp2872
F0.00030478512648582747
s(S'[[adj]]'
p2873
S'played'
p2874
S'professionally'
p2875
tp2876
F0.0006095702529716549
s(S'had'
p2877
S'retired'
p2878
S'from'
p2879
tp2880
F0.00030478512648582747
s(S'[[mod]]'
p2881
S'return'
p2882
S'to'
p2883
tp2884
F0.00030478512648582747
s(S'[[adj]]'
p2885
S'games'
p2886
S'with'
p2887
tp2888
F0.0006095702529716549
s(S'was'
p2889
S'left'
p2890
S'out'
p2891
tp2892
F0.00030478512648582747
s(S'also'
p2893
S'played'
p2894
S'before'
p2895
tp2896
F0.00030478512648582747
s(S'had'
p2897
S'signed'
p2898
S'to'
p2899
tp2900
F0.00030478512648582747
s(S'[[mod]]'
p2901
S'play'
p2902
S'[[num]]'
p2903
tp2904
F0.00030478512648582747
s(S'[[adj]]'
p2905
S'coach'
p2906
S'in'
p2907
tp2908
F0.00030478512648582747
s(g650
g651
S'ndash'
p2909
tp2910
F0.00030478512648582747
s(g336
g337
S'who'
p2911
tp2912
F0.003047851264858275
s(S'now'
p2913
S'playing'
p2914
S'for'
p2915
tp2916
F0.00030478512648582747
s(S'with'
p2917
S'played'
p2918
S'for'
p2919
tp2920
F0.00030478512648582747
s(S'[[prp]]'
p2921
S'debut'
p2922
S'on'
p2923
tp2924
F0.00030478512648582747
s(S'then'
p2925
S'moved'
p2926
S'[[con]]'
p2927
tp2928
F0.00030478512648582747
s(S'later'
p2929
S'moved'
p2930
S'with'
p2931
tp2932
F0.00030478512648582747
s(S'[[num]]'
p2933
S'[[adj]]'
p2934
S'ice'
p2935
tp2936
F0.0006095702529716549
s(S'also'
p2937
S'selected'
p2938
S'for'
p2939
tp2940
F0.00030478512648582747
s(S'football'
p2941
S'linebacker'
p2942
S'in'
p2943
tp2944
F0.00030478512648582747
s(S'[[con]]'
p2945
S'moved'
p2946
S'on'
p2947
tp2948
F0.00030478512648582747
s(S'only'
p2949
S'played'
p2950
S'in'
p2951
tp2952
F0.00030478512648582747
s(S'has'
p2953
S'previously'
p2954
S'played'
p2955
tp2956
F0.0012191405059433099
s(S'been'
p2957
S'called'
p2958
S'[[num]]'
p2959
tp2960
F0.00030478512648582747
s(S'was'
p2961
S'relegated'
p2962
S'from'
p2963
tp2964
F0.00030478512648582747
s(S'has'
p2965
S'coached'
p2966
S'with'
p2967
tp2968
F0.00030478512648582747
s(S'[[det]]'
p2969
S'return'
p2970
S'against'
p2971
tp2972
F0.00030478512648582747
s(S'[[num]]'
p2973
S'[[det]]'
p2974
S'football'
p2975
tp2976
F0.004266991770801585
s(S'have'
p2977
S'played'
p2978
S'[[det]]'
p2979
tp2980
F0.00030478512648582747
s(S'[[con]]'
p2981
S'plays'
p2982
S'for'
p2983
tp2984
F0.00030478512648582747
s(S'fell'
p2985
S'out'
p2986
g2252
tp2987
F0.00030478512648582747
s(S'then'
p2988
S'returned'
p2989
S'for'
p2990
tp2991
F0.00030478512648582747
s(S'then'
p2992
S'signed'
p2993
S'by'
p2994
tp2995
F0.00030478512648582747
s(S'[[adj]]'
p2996
S'coach'
p2997
S'[[det]]'
p2998
tp2999
F0.00030478512648582747
s(S'then'
p3000
S'played'
p3001
S'for'
p3002
tp3003
F0.00030478512648582747
s(S'[[con]]'
p3004
S'joined'
p3005
S'from'
p3006
tp3007
F0.00030478512648582747
s(S'played'
p3008
S'for'
p3009
S'[[det]]'
p3010
tp3011
F0.00030478512648582747
s(S'[[det]]'
p3012
S'contract'
p3013
S'with'
p3014
tp3015
F0.003962206644315757
s(S'to'
p3016
S'coach'
p3017
S'[[det]]'
p3018
tp3019
F0.00030478512648582747
s(g2175
S'coach'
p3020
S'at'
p3021
tp3022
F0.003047851264858275
s(S'with'
p3023
S'[[det]]'
p3024
S'club'
p3025
tp3026
F0.00030478512648582747
s(S'[[adj]]'
p3027
S'playing'
p3028
S'with'
p3029
tp3030
F0.00030478512648582747
s(S'been'
p3031
S'selected'
p3032
S'for'
p3033
tp3034
F0.00030478512648582747
s(S'hockey'
p3035
S'player'
p3036
S'for'
p3037
tp3038
F0.0006095702529716549
s(S'who'
p3039
S'played'
p3040
S'in'
p3041
tp3042
F0.0021334958854007926
s(S'played'
p3043
S'[[num]]'
p3044
S'games'
p3045
tp3046
F0.011277049679975617
s(g2874
g2875
S'for'
p3047
tp3048
F0.0012191405059433099
s(S'[[con]]'
p3049
S'debut'
p3050
S'against'
p3051
tp3052
F0.00030478512648582747
s(S'been'
p3053
S'selected'
p3054
S'by'
p3055
tp3056
F0.00030478512648582747
s(S'football'
p3057
S'coach'
p3058
S'at'
p3059
tp3060
F0.003962206644315757
s(S'[[mod]]'
p3061
S'remain'
p3062
S'in'
p3063
tp3064
F0.00030478512648582747
s(g193
S'coach'
p3065
S'with'
p3066
tp3067
F0.00030478512648582747
s(S'[[adj]]'
p3068
S'coach'
p3069
S'at'
p3070
tp3071
F0.0009143553794574825
s(S'was'
p3072
S'left'
p3073
S'with'
p3074
tp3075
F0.00030478512648582747
s(S'has'
p3076
S'served'
p3077
S'as'
p3078
tp3079
F0.001828710758914965
s(S'[[det]]'
p3080
S'head'
p3081
S'college'
p3082
tp3083
F0.00030478512648582747
s(S'[[num]]'
p3084
g1601
g1602
tp3085
F0.00030478512648582747
s(S'[[num]]'
p3086
S'win'
p3087
S'of'
p3088
tp3089
F0.00030478512648582747
s(S'is'
p3090
S'playing'
p3091
S'in'
p3092
tp3093
F0.00030478512648582747
s(S'played'
p3094
g1031
g1032
tp3095
F0.00030478512648582747
s(S'[[det]]'
p3096
S'played'
p3097
S'for'
p3098
tp3099
F0.00030478512648582747
s(g1939
g1940
S'for'
p3100
tp3101
F0.00030478512648582747
s(S'[[adj]]'
p3102
S'career'
p3103
S'as'
p3104
tp3105
F0.00030478512648582747
s(S'finished'
p3106
S'[[num]]'
p3107
S'place'
p3108
tp3109
F0.00030478512648582747
s(S'[[adj]]'
p3110
S'return'
p3111
S'with'
p3112
tp3113
F0.00030478512648582747
s(S'had'
p3114
S'played'
p3115
S'for'
p3116
tp3117
F0.00030478512648582747
s(S'selected'
p3118
S'[[con]]'
p3119
S'played'
p3120
tp3121
F0.0006095702529716549
s(S'where'
p3122
S'played'
p3123
S'in'
p3124
tp3125
F0.00030478512648582747
s(S'was'
p3126
S'called'
p3127
S'into'
p3128
tp3129
F0.00030478512648582747
s(g1643
g1644
S'playing'
p3130
tp3131
F0.00030478512648582747
s(S'has'
p3132
S'left'
p3133
S'[[det]]'
p3134
tp3135
F0.00030478512648582747
s(S'currently'
p3136
S'plays'
p3137
S'[[det]]'
p3138
tp3139
F0.00030478512648582747
s(S'[[mod]]'
p3140
S'split'
p3141
g773
tp3142
F0.00030478512648582747
s(S'during'
p3143
S'[[num]]'
p3144
S'season'
p3145
tp3146
F0.00030478512648582747
s(S'seasons'
p3147
S'[[num]]'
p3148
S'[[con]]'
p3149
tp3150
F0.0015239256324291375
s(S'[[det]]'
p3151
S'player'
p3152
S'of'
p3153
tp3154
F0.00030478512648582747
s(S'have'
p3155
S'joined'
p3156
S'[[det]]'
p3157
tp3158
F0.00030478512648582747
s(g193
g1719
S'coach'
p3159
tp3160
F0.001828710758914965
s(S'[[adj]]'
p3161
S'seasons'
p3162
S'[[num]]'
p3163
tp3164
F0.0012191405059433099
s(g1655
g1656
S'who'
p3165
tp3166
F0.00030478512648582747
s(S'was'
p3167
S'assigned'
p3168
S'for'
p3169
tp3170
F0.00030478512648582747
s(S'which'
p3171
S'played'
p3172
S'at'
p3173
tp3174
F0.00030478512648582747
s(S'[[num]]'
p3175
S'seasons'
p3176
S'with'
p3177
tp3178
F0.003047851264858275
s(S'player'
p3179
g975
g976
tp3180
F0.00030478512648582747
s(S'had'
p3181
S'called'
p3182
S'[[det]]'
p3183
tp3184
F0.00030478512648582747
s(g1060
S'played'
p3185
S'[[con]]'
p3186
tp3187
F0.0006095702529716549
s(S'is'
p3188
S'selected'
p3189
S'by'
p3190
tp3191
F0.00030478512648582747
s(S'[[adj]]'
p3192
S'career'
p3193
S'with'
p3194
tp3195
F0.00030478512648582747
s(S'[[adj]]'
p3196
S'debut'
p3197
S'on'
p3198
tp3199
F0.00030478512648582747
s(g1901
g2448
S'football'
p3200
tp3201
F0.0015239256324291375
s(S'[[det]]'
p3202
g2224
g33
tp3203
F0.00030478512648582747
s(S'ice'
p3204
g1926
g1927
tp3205
F0.0009143553794574825
s(S'already'
p3206
S'played'
p3207
S'for'
p3208
tp3209
F0.00030478512648582747
s(S'never'
p3210
S'played'
p3211
S'in'
p3212
tp3213
F0.00030478512648582747
s(S'left'
p3214
S'winger'
p3215
S'currently'
p3216
tp3217
F0.00030478512648582747
s(S'previously'
p3218
S'played'
p3219
S'at'
p3220
tp3221
F0.00030478512648582747
s(S'[[adj]]'
p3222
S'director'
p3223
S'at'
p3224
tp3225
F0.0009143553794574825
s(S'[[num]]'
p3226
S'season'
p3227
S'at'
p3228
tp3229
F0.00030478512648582747
s(S'managed'
p3230
g630
g631
tp3231
F0.00030478512648582747
s(S'was'
p3232
S'named'
p3233
S'[[det]]'
p3234
tp3235
F0.0027430661383724473
s(S'rugby'
p3236
S'union'
p3237
S'player'
p3238
tp3239
F0.0009143553794574825
s(S'where'
p3240
S'played'
p3241
S'[[con]]'
p3242
tp3243
F0.00030478512648582747
s(S'who'
p3244
S'left'
p3245
S'[[det]]'
p3246
tp3247
F0.00030478512648582747
s(g1334
g1335
g1978
tp3248
F0.00030478512648582747
s(S'mainly'
p3249
S'played'
p3250
S'with'
p3251
tp3252
F0.00030478512648582747
s(S'[[pro]]'
p3253
S'playing'
p3254
S'for'
p3255
tp3256
F0.00030478512648582747
s(S'had'
p3257
S'entered'
p3258
S'[[det]]'
p3259
tp3260
F0.00030478512648582747
s(S'also'
p3261
S'played'
p3262
S'[[det]]'
p3263
tp3264
F0.0015239256324291375
s(g2337
g2338
g2538
tp3265
F0.0012191405059433099
s(S'who'
p3266
S'joined'
p3267
S'from'
p3268
tp3269
F0.00030478512648582747
s(S'[[num]]'
p3270
S'returned'
p3271
S'to'
p3272
tp3273
F0.00030478512648582747
s(g2538
g2539
S'played'
p3274
tp3275
F0.00030478512648582747
s(S'had'
p3276
S'left'
p3277
S'[[con]]'
p3278
tp3279
F0.00030478512648582747
s(S'become'
p3280
S'head'
p3281
S'coach'
p3282
tp3283
F0.00030478512648582747
s(S'[[det]]'
p3284
S'forward'
p3285
S'with'
p3286
tp3287
F0.00030478512648582747
s(S'then'
p3288
S'moved'
p3289
S'back'
p3290
tp3291
F0.00030478512648582747
s(g914
g915
S'with'
p3292
tp3293
F0.0048765620237732395
s(S'ice'
p3294
S'hockey'
p3295
S'goaltender'
p3296
tp3297
F0.001828710758914965
s(S'[[mod]]'
p3298
S'play'
p3299
S'for'
p3300
tp3301
F0.00030478512648582747
s(g2517
g2518
S'player'
p3302
tp3303
F0.00030478512648582747
s(g86
g87
S'[[num]]'
p3304
tp3305
F0.0009143553794574825
s(S'also'
p3306
S'played'
p3307
S'during'
p3308
tp3309
F0.00030478512648582747
s(S'was'
p3310
S'fined'
p3311
S'[[num]]'
p3312
tp3313
F0.00030478512648582747
s(S'[[prp]]'
p3314
S'return'
p3315
S'at'
p3316
tp3317
F0.00030478512648582747
s(S'also'
p3318
S'called'
p3319
S'up'
p3320
tp3321
F0.00030478512648582747
s(S'[[det]]'
p3322
S'return'
p3323
S'with'
p3324
tp3325
F0.00030478512648582747
s(S'also'
p3326
S'coached'
p3327
S'[[det]]'
p3328
tp3329
F0.00030478512648582747
s(S'[[det]]'
p3330
S'coach'
p3331
S'[[num]]'
p3332
tp3333
F0.00030478512648582747
s(S'first'
p3334
S'called'
p3335
S'up'
p3336
tp3337
F0.00030478512648582747
s(S'[[mod]]'
p3338
S'play'
p3339
S'again'
p3340
tp3341
F0.00030478512648582747
s(S'rules'
p3342
S'football'
p3343
S'with'
p3344
tp3345
F0.00030478512648582747
s(g2606
g2607
S'coach'
p3346
tp3347
F0.0015239256324291375
s(S'[[con]]'
p3348
S'has'
p3349
S'served'
p3350
tp3351
F0.00030478512648582747
s(S'[[mod]]'
p3352
S'play'
p3353
S'from'
p3354
tp3355
F0.00030478512648582747
s(g1719
g3159
S'at'
p3356
tp3357
F0.0024382810118866198
s(S'played'
p3358
g3161
g3162
tp3359
F0.0027430661383724473
s(S'goaltender'
p3360
g2477
g2478
tp3361
F0.00030478512648582747
s(S'[[adj]]'
p3362
S'assigned'
p3363
S'as'
p3364
tp3365
F0.00030478512648582747
s(S'ndash'
p3366
g2010
g2011
tp3367
F0.00030478512648582747
s(S'then'
p3368
S'joined'
p3369
S'with'
p3370
tp3371
F0.00030478512648582747
s(S'was'
p3372
S'suspended'
p3373
S'after'
p3374
tp3375
F0.00030478512648582747
s(g2448
g3200
S'player'
p3376
tp3377
F0.0024382810118866198
s(S'also'
p3378
S'signed'
p3379
S'to'
p3380
tp3381
F0.00030478512648582747
s(S'has'
p3382
S'played'
p3383
S'most'
p3384
tp3385
F0.00030478512648582747
s(S'[[adj]]'
p3386
S'established'
p3387
S'[[pro]]'
p3388
tp3389
F0.00030478512648582747
s(S'[[con]]'
p3390
S'played'
p3391
S'with'
p3392
tp3393
F0.00030478512648582747
s(S'soon'
p3394
S'signed'
p3395
S'with'
p3396
tp3397
F0.00030478512648582747
s(g193
S'debut'
p3398
S'in'
p3399
tp3400
F0.00030478512648582747
s(g236
g237
g1658
tp3401
F0.0012191405059433099
s(S'was'
p3402
S'selected'
p3403
S'for'
p3404
tp3405
F0.00030478512648582747
s(S'later'
p3406
S'play'
p3407
S'for'
p3408
tp3409
F0.00030478512648582747
s(S'[[det]]'
p3410
S'game'
p3411
S'against'
p3412
tp3413
F0.00030478512648582747
s(S'currently'
p3414
S'plays'
p3415
S'from'
p3416
tp3417
F0.00030478512648582747
s(S'[[adj]]'
p3418
S'coach'
p3419
S'[[con]]'
p3420
tp3421
F0.00030478512648582747
s(S'football'
p3422
S'safety'
p3423
S'for'
p3424
tp3425
F0.00030478512648582747
s(g1428
g1429
g2313
tp3426
F0.010057909174032308
s(S'born'
p3427
S'[[num]]'
p3428
S'head'
p3429
tp3430
F0.00030478512648582747
s(S'before'
p3431
S'playing'
p3432
S'with'
p3433
tp3434
F0.00030478512648582747
s(g1598
g1599
g1155
tp3435
F0.00030478512648582747
s(S'now'
p3436
S'plays'
p3437
S'for'
p3438
tp3439
F0.00030478512648582747
s(S'then'
p3440
S'signed'
p3441
S'with'
p3442
tp3443
F0.00030478512648582747
s(S'while'
p3444
S'returned'
p3445
S'to'
p3446
tp3447
F0.00030478512648582747
s(S'had'
p3448
S'left'
p3449
S'[[adj]]'
p3450
tp3451
F0.00030478512648582747
s(g120
g121
S'[[det]]'
p3452
tp3453
F0.00030478512648582747
s(S'[[adj]]'
p3454
S'debut'
p3455
S'away'
p3456
tp3457
F0.00030478512648582747
s(S'[[con]]'
p3458
S'left'
p3459
S'[[det]]'
p3460
tp3461
F0.00030478512648582747
s(S'then'
p3462
S'signed'
p3463
S'on'
p3464
tp3465
F0.00030478512648582747
s(S'signed'
p3466
S'with'
p3467
S'team'
p3468
tp3469
F0.0006095702529716549
s(S'again'
p3470
S'named'
p3471
S'by'
p3472
tp3473
F0.00030478512648582747
s(S'then'
p3474
S'selected'
p3475
S'against'
p3476
tp3477
F0.00030478512648582747
s(S'played'
p3478
S'professionally'
p3479
S'in'
p3480
tp3481
F0.0015239256324291375
s(S'then'
p3482
S'played'
p3483
S'briefly'
p3484
tp3485
F0.00030478512648582747
s(S'[[con]]'
p3486
S'returned'
p3487
S'on'
p3488
tp3489
F0.00030478512648582747
s(S'in'
p3490
g3410
g3411
tp3491
F0.0009143553794574825
s(S'who'
p3492
S'played'
p3493
S'[[num]]'
p3494
tp3495
F0.0033526363913441025
s(S'again'
p3496
S'returned'
p3497
S'to'
p3498
tp3499
F0.00030478512648582747
s(S'is'
p3500
S'signed'
p3501
S'with'
p3502
tp3503
F0.00030478512648582747
s(S'is'
p3504
S'playing'
p3505
S'for'
p3506
tp3507
F0.00030478512648582747
s(S'[[det]]'
p3508
S'career'
p3509
S'with'
p3510
tp3511
F0.00030478512648582747
s(S'[[adj]]'
p3512
S'debut'
p3513
S'[[num]]'
p3514
tp3515
F0.00030478512648582747
s(S'[[prp]]'
p3516
S'[[adj]]'
p3517
S'contract'
p3518
tp3519
F0.0012191405059433099
s(g1052
g1502
S'head'
p3520
tp3521
F0.00030478512648582747
s(g867
g1673
g1674
tp3522
F0.0012191405059433099
s(g3295
g3296
S'who'
p3523
tp3524
F0.0009143553794574825
s(S'born'
p3525
g2064
g2065
tp3526
F0.00030478512648582747
s(S'signed'
p3527
g1697
g1698
tp3528
F0.00030478512648582747
s(S'then'
p3529
S'named'
p3530
S'[[det]]'
p3531
tp3532
F0.00030478512648582747
s(g2074
g2507
g1695
tp3533
F0.011886619932947273
s(S'played'
p3534
g1144
g1145
tp3535
F0.00030478512648582747
s(S'[[con]]'
p3536
g3222
g3223
tp3537
F0.0009143553794574825
s(S'was'
p3538
S'selected'
p3539
S'[[adj]]'
p3540
tp3541
F0.00030478512648582747
s(S'[[con]]'
p3542
S'led'
p3543
S'[[det]]'
p3544
tp3545
F0.00030478512648582747
s(S'[[con]]'
p3546
S'signed'
p3547
S'with'
p3548
tp3549
F0.0009143553794574825
s(S'[[adj]]'
p3550
S'career'
p3551
S'[[num]]'
p3552
tp3553
F0.00030478512648582747
s(S'then'
p3554
S'moved'
p3555
S'over'
p3556
tp3557
F0.00030478512648582747
s(S'being'
p3558
S'signed'
p3559
S'by'
p3560
tp3561
F0.00030478512648582747
s(S'[[adj]]'
p3562
S'win'
p3563
S'against'
p3564
tp3565
F0.00030478512648582747
s(S'then'
p3566
S'played'
p3567
S'in'
p3568
tp3569
F0.00030478512648582747
s(S'[[prp]]'
p3570
S'debut'
p3571
S'with'
p3572
tp3573
F0.00030478512648582747
s(S'also'
p3574
S'previously'
p3575
S'played'
p3576
tp3577
F0.0009143553794574825
s(S'has'
p3578
S'coached'
p3579
S'[[num]]'
p3580
tp3581
F0.00030478512648582747
s(S'[[det]]'
p3582
S'game'
p3583
S'with'
p3584
tp3585
F0.00030478512648582747
s(S'also'
p3586
S'plays'
p3587
S'with'
p3588
tp3589
F0.00030478512648582747
s(S'[[adj]]'
p3590
S'played'
p3591
S'in'
p3592
tp3593
F0.00030478512648582747
s(S'[[adj]]'
p3594
S'game'
p3595
S'to'
p3596
tp3597
F0.00030478512648582747
s(S'who'
p3598
S'played'
p3599
S'for'
p3600
tp3601
F0.007619628162145687
s(S'then'
p3602
S'coached'
p3603
S'for'
p3604
tp3605
F0.00030478512648582747
s(g2568
g2569
g2109
tp3606
F0.00030478512648582747
s(S'as'
p3607
S'coach'
p3608
S'of'
p3609
tp3610
F0.00030478512648582747
s(S'[[adj]]'
p3611
S'game'
p3612
S'for'
p3613
tp3614
F0.0015239256324291375
s(g3107
g3108
S'in'
p3615
tp3616
F0.00030478512648582747
s(S'[[prp]]'
p3617
S'debut'
p3618
S'in'
p3619
tp3620
F0.00030478512648582747
s(S'[[adj]]'
p3621
S'player'
p3622
S'[[con]]'
p3623
tp3624
F0.00030478512648582747
s(g3237
g3238
S'for'
p3625
tp3626
F0.0009143553794574825
s(S'also'
p3627
S'selected'
p3628
S'to'
p3629
tp3630
F0.00030478512648582747
s(g2986
g2252
g2253
tp3631
F0.00030478512648582747
s(S'where'
p3632
S'led'
p3633
S'[[det]]'
p3634
tp3635
F0.00030478512648582747
s(S'then'
p3636
S'played'
p3637
S'[[det]]'
p3638
tp3639
F0.0012191405059433099
s(S'had'
p3640
S'moved'
p3641
S'on'
p3642
tp3643
F0.00030478512648582747
s(S'has'
p3644
S'played'
p3645
S'at'
p3646
tp3647
F0.00030478512648582747
s(S'was'
p3648
S'called'
p3649
S'out'
p3650
tp3651
F0.00030478512648582747
s(S'also'
p3652
S'established'
p3653
S'at'
p3654
tp3655
F0.00030478512648582747
s(g2253
g2254
S'at'
p3656
tp3657
F0.00030478512648582747
s(g1335
g1978
g1979
tp3658
F0.00030478512648582747
s(S'where'
p3659
S'entered'
p3660
S'[[det]]'
p3661
tp3662
F0.00030478512648582747
s(S'never'
p3663
S'played'
p3664
S'[[con]]'
p3665
tp3666
F0.00030478512648582747
s(S'[[con]]'
p3667
S'[[adj]]'
p3668
S'coordinator'
p3669
tp3670
F0.00030478512648582747
s(S'[[prp]]'
p3671
g2468
g2469
tp3672
F0.0009143553794574825
s(g3668
g3669
S'for'
p3673
tp3674
F0.00030478512648582747
s(S'[[adj]]'
p3675
S'contract'
p3676
S'for'
p3677
tp3678
F0.0006095702529716549
s(S'played'
p3679
g1353
g1354
tp3680
F0.0006095702529716549
s(g1167
g1173
S'for'
p3681
tp3682
F0.00030478512648582747
s(S'when'
p3683
S'played'
p3684
S'for'
p3685
tp3686
F0.00030478512648582747
s(S'returned'
p3687
S'as'
p3688
S'head'
p3689
tp3690
F0.00030478512648582747
s(S'was'
p3691
S'moved'
p3692
S'for'
p3693
tp3694
F0.00030478512648582747
s(g1137
g1138
S'between'
p3695
tp3696
F0.00030478512648582747
s(S'[[prp]]'
p3697
S'debut'
p3698
S'[[con]]'
p3699
tp3700
F0.0009143553794574825
s(S'which'
p3701
S'led'
p3702
S'[[det]]'
p3703
tp3704
F0.00030478512648582747
s(S'[[adj]]'
p3705
S'played'
p3706
S'for'
p3707
tp3708
F0.0006095702529716549
s(S'[[det]]'
p3709
g1753
g1754
tp3710
F0.0009143553794574825
s(S'association'
p3711
S'football'
p3712
S'who'
p3713
tp3714
F0.00030478512648582747
s(S'[[det]]'
p3715
g2070
g41
tp3716
F0.0006095702529716549
s(S'then'
p3717
S'coached'
p3718
S'[[det]]'
p3719
tp3720
F0.00030478512648582747
s(S'when'
p3721
S'entered'
p3722
S'[[det]]'
p3723
tp3724
F0.00030478512648582747
s(S'[[prp]]'
p3725
S'[[adj]]'
p3726
S'games'
p3727
tp3728
F0.00030478512648582747
s(S'just'
p3729
S'[[num]]'
p3730
S'season'
p3731
tp3732
F0.00030478512648582747
s(S'[[adj]]'
p3733
g2002
g2003
tp3734
F0.0006095702529716549
s(g216
g217
g193
tp3735
F0.0012191405059433099
s(S'once'
p3736
S'played'
p3737
S'for'
p3738
tp3739
F0.00030478512648582747
s(S'to'
p3740
S'coach'
p3741
S'[[num]]'
p3742
tp3743
F0.00030478512648582747
s(S'to'
p3744
S'play'
p3745
S'[[con]]'
p3746
tp3747
F0.00030478512648582747
s(S'[[prp]]'
p3748
S'debut'
p3749
S'for'
p3750
tp3751
F0.00030478512648582747
s(S'football'
p3752
g2292
g2293
tp3753
F0.00030478512648582747
s(g3296
g3523
S'played'
p3754
tp3755
F0.0006095702529716549
s(S'has'
p3756
S'joined'
p3757
S'[[det]]'
p3758
tp3759
F0.00030478512648582747
s(g1874
g1458
g1459
tp3760
F0.00030478512648582747
s(S'then'
p3761
S'played'
p3762
S'professionally'
p3763
tp3764
F0.0006095702529716549
s(S'played'
p3765
S'quarterback'
p3766
S'for'
p3767
tp3768
F0.00030478512648582747
s(S'was'
p3769
S'signed'
p3770
S'as'
p3771
tp3772
F0.00030478512648582747
s(S'basketball'
p3773
S'player'
p3774
S'at'
p3775
tp3776
F0.00030478512648582747
s(S'previously'
p3777
S'played'
p3778
S'for'
p3779
tp3780
F0.0015239256324291375
s(S'also'
p3781
g717
g718
tp3782
F0.0006095702529716549
s(S'[[num]]'
p3783
S'played'
p3784
S'at'
p3785
tp3786
F0.00030478512648582747
s(g806
g807
S'ndash'
p3787
tp3788
F0.0024382810118866198
s(S'to'
p3789
S'play'
p3790
S'with'
p3791
tp3792
F0.00030478512648582747
s(S'player'
p3793
S'playing'
p3794
S'in'
p3795
tp3796
F0.00030478512648582747
s(S'played'
p3797
g77
g78
tp3798
F0.004266991770801585
s(S'hockey'
p3799
S'defenceman'
p3800
S'currently'
p3801
tp3802
F0.00030478512648582747
s(S'played'
p3803
g3671
g2468
tp3804
F0.0009143553794574825
s(S'also'
p3805
S'played'
p3806
S'rules'
p3807
tp3808
F0.00030478512648582747
s(S'[[con]]'
p3809
S'signed'
p3810
S'up'
p3811
tp3812
F0.00030478512648582747
s(S'played'
p3813
S'in'
p3814
S'games'
p3815
tp3816
F0.00030478512648582747
s(g1380
g1381
S'plays'
p3817
tp3818
F0.0027430661383724473
s(S'later'
p3819
S'assigned'
p3820
S'to'
p3821
tp3822
F0.00030478512648582747
s(S'[[num]]'
p3823
S'[[det]]'
p3824
S'games'
p3825
tp3826
F0.00030478512648582747
s(S'was'
p3827
S'assigned'
p3828
S'[[det]]'
p3829
tp3830
F0.00030478512648582747
s(S'[[det]]'
p3831
S'coach'
p3832
S'at'
p3833
tp3834
F0.00030478512648582747
s(S'was'
p3835
g709
g710
tp3836
F0.00030478512648582747
s(S'[[num]]'
p3837
S'win'
p3838
S'in'
p3839
tp3840
F0.00030478512648582747
s(S'head'
p3841
S'coach'
p3842
S'[[num]]'
p3843
tp3844
F0.0006095702529716549
s(g619
g620
g806
tp3845
F0.0006095702529716549
s(S'also'
p3846
S'played'
p3847
S'over'
p3848
tp3849
F0.00030478512648582747
s(S'was'
p3850
S'signed'
p3851
S'[[con]]'
p3852
tp3853
F0.00030478512648582747
s(S'played'
p3854
g2304
g2305
tp3855
F0.00030478512648582747
s(S'[[adj]]'
p3856
S'season'
p3857
S'in'
p3858
tp3859
F0.0012191405059433099
s(S'who'
p3860
S'plays'
p3861
S'at'
p3862
tp3863
F0.00030478512648582747
s(S'later'
p3864
S'played'
p3865
S'[[det]]'
p3866
tp3867
F0.00030478512648582747
s(S'[[prp]]'
p3868
S'return'
p3869
S'to'
p3870
tp3871
F0.00030478512648582747
s(S'to'
p3872
S'remain'
p3873
S'with'
p3874
tp3875
F0.00030478512648582747
s(S'while'
p3876
S'playing'
p3877
S'with'
p3878
tp3879
F0.00030478512648582747
s(S'also'
p3880
S'led'
p3881
S'[[con]]'
p3882
tp3883
F0.00030478512648582747
s(S'[[num]]'
p3884
S'season'
p3885
S'in'
p3886
tp3887
F0.0012191405059433099
s(S'been'
p3888
S'signed'
p3889
S'from'
p3890
tp3891
F0.00030478512648582747
s(S'was'
p3892
S'head'
p3893
g3057
tp3894
F0.00030478512648582747
s(S'was'
p3895
S'assigned'
p3896
S'with'
p3897
tp3898
F0.00030478512648582747
s(S'[[adj]]'
p3899
S'player'
p3900
S'[[det]]'
p3901
tp3902
F0.00030478512648582747
s(S'left'
p3903
S'to'
p3904
g3280
tp3905
F0.00030478512648582747
s(g2231
g2232
S'currently'
p3906
tp3907
F0.00030478512648582747
s(g814
g815
S'head'
p3908
tp3909
F0.00030478512648582747
s(S'later'
p3910
S'played'
p3911
S'for'
p3912
tp3913
F0.00030478512648582747
s(S'coach'
p3914
g2790
g2791
tp3915
F0.00030478512648582747
s(S'[[prp]]'
p3916
S'return'
p3917
S'in'
p3918
tp3919
F0.00030478512648582747
s(g2130
g2131
S'season'
p3920
tp3921
F0.00030478512648582747
s(S'player'
p3922
S'to'
p3923
S'lead'
p3924
tp3925
F0.00030478512648582747
s(g1951
g1952
S'football'
p3926
tp3927
F0.00030478512648582747
s(g2162
g2163
S'to'
p3928
tp3929
F0.00030478512648582747
s(S'also'
p3930
S'signed'
p3931
S'[[det]]'
p3932
tp3933
F0.00030478512648582747
s(S'[[mod]]'
p3934
S'return'
p3935
S'in'
p3936
tp3937
F0.00030478512648582747
s(S'then'
p3938
S'played'
p3939
S'[[num]]'
p3940
tp3941
F0.0024382810118866198
s(g371
g372
S'for'
p3942
tp3943
F0.00030478512648582747
s(S'being'
p3944
S'selected'
p3945
S'by'
p3946
tp3947
F0.00030478512648582747
s(S'not'
p3948
S'played'
p3949
S'in'
p3950
tp3951
F0.00030478512648582747
s(S'first'
p3952
S'played'
p3953
S'against'
p3954
tp3955
F0.00030478512648582747
s(S'named'
p3956
S'as'
p3957
S'[[adj]]'
p3958
tp3959
F0.00030478512648582747
s(S'played'
p3960
g3823
g3824
tp3961
F0.00030478512648582747
s(S'be'
p3962
S'called'
p3963
S'up'
p3964
tp3965
F0.00030478512648582747
s(S'had'
p3966
S'played'
p3967
S'[[adj]]'
p3968
tp3969
F0.00030478512648582747
s(S'[[det]]'
p3970
S'season'
p3971
S'at'
p3972
tp3973
F0.00030478512648582747
s(S'[[adj]]'
p3974
S'seasons'
p3975
S'for'
p3976
tp3977
F0.0012191405059433099
s(S'was'
p3978
S'selected'
p3979
S'after'
p3980
tp3981
F0.00030478512648582747
s(S'also'
p3982
S'played'
p3983
g3974
tp3984
F0.0009143553794574825
s(S'was'
p3985
S'joined'
p3986
S'[[det]]'
p3987
tp3988
F0.00030478512648582747
s(S'[[adj]]'
p3989
S'season'
p3990
S'for'
p3991
tp3992
F0.0009143553794574825
s(S'[[num]]'
p3993
S'games'
p3994
S'against'
p3995
tp3996
F0.0012191405059433099
s(S'had'
p3997
S'joined'
p3998
S'of'
p3999
tp4000
F0.00030478512648582747
s(S'was'
p4001
S'signed'
p4002
S'in'
p4003
tp4004
F0.00030478512648582747
s(S'was'
p4005
S'named'
p4006
S'[[adj]]'
p4007
tp4008
F0.00030478512648582747
s(g1362
g1363
S'playing'
p4009
tp4010
F0.00030478512648582747
s(S'also'
p4011
S'coached'
p4012
S'at'
p4013
tp4014
F0.00030478512648582747
s(g1059
g1060
g3185
tp4015
F0.0012191405059433099
s(S'who'
p4016
S'plays'
p4017
S'for'
p4018
tp4019
F0.003047851264858275
s(S'[[det]]'
p4020
g2885
g2886
tp4021
F0.0006095702529716549
s(S'was'
p4022
S'coach'
p4023
S'at'
p4024
tp4025
F0.00030478512648582747
s(S'was'
p4026
S'moved'
p4027
S'back'
p4028
tp4029
F0.00030478512648582747
s(g1079
g1080
S'seasons'
p4030
tp4031
F0.001828710758914965
s(S'[[mod]]'
p4032
S'play'
p4033
S'against'
p4034
tp4035
F0.00030478512648582747
s(S'[[det]]'
p4036
S'contract'
p4037
S'for'
p4038
tp4039
F0.00030478512648582747
s(S'again'
p4040
S'played'
p4041
S'for'
p4042
tp4043
F0.00030478512648582747
s(S'best'
p4044
S'player'
p4045
S'in'
p4046
tp4047
F0.00030478512648582747
s(g1381
g3817
S'with'
p4048
tp4049
F0.00030478512648582747
s(g1156
g1157
S'player'
p4050
tp4051
F0.00030478512648582747
s(S'left'
p4052
S'to'
p4053
S'[[det]]'
p4054
tp4055
F0.0012191405059433099
s(S'were'
p4056
S'relegated'
p4057
S'from'
p4058
tp4059
F0.00030478512648582747
s(S'also'
p4060
S'signed'
p4061
S'for'
p4062
tp4063
F0.00030478512648582747
s(S'has'
p4064
S'left'
p4065
S'[[con]]'
p4066
tp4067
F0.00030478512648582747
s(S'more'
p4068
S'seasons'
p4069
S'with'
p4070
tp4071
F0.00030478512648582747
s(S'also'
p4072
S'selected'
p4073
S'as'
p4074
tp4075
F0.00030478512648582747
s(S'then'
p4076
S'assigned'
p4077
S'to'
p4078
tp4079
F0.00030478512648582747
s(g1459
g1460
S'held'
p4080
tp4081
F0.0006095702529716549
s(S'also'
p4082
S'led'
p4083
S'[[det]]'
p4084
tp4085
F0.00030478512648582747
s(S'in'
p4086
g255
g256
tp4087
F0.0006095702529716549
s(S'[[con]]'
p4088
S'entered'
p4089
S'[[det]]'
p4090
tp4091
F0.00030478512648582747
s(S'named'
p4092
g2418
g2419
tp4093
F0.0009143553794574825
s(S'announced'
p4094
g1132
g1133
tp4095
F0.00030478512648582747
s(S'also'
p4096
S'playing'
p4097
S'in'
p4098
tp4099
F0.00030478512648582747
s(g1258
g1259
S'games'
p4100
tp4101
F0.0006095702529716549
s(S'played'
p4102
S'in'
p4103
S'season'
p4104
tp4105
F0.00030478512648582747
s(S'also'
p4106
S'established'
p4107
S'[[det]]'
p4108
tp4109
F0.00030478512648582747
s(S'who'
p4110
S'played'
p4111
S'on'
p4112
tp4113
F0.00030478512648582747
s(S'[[adj]]'
p4114
S'debut'
p4115
S'to'
p4116
tp4117
F0.00030478512648582747
s(S'[[adj]]'
p4118
S'player'
p4119
S'for'
p4120
tp4121
F0.00030478512648582747
s(S'since'
p4122
S'played'
p4123
S'for'
p4124
tp4125
F0.00030478512648582747
s(S'currently'
p4126
g366
g367
tp4127
F0.0006095702529716549
s(S'football'
p4128
S'coach'
p4129
S'[[det]]'
p4130
tp4131
F0.00030478512648582747
s(S'has'
p4132
S'coached'
p4133
S'[[con]]'
p4134
tp4135
F0.00030478512648582747
s(g4053
g4054
g2833
tp4136
F0.0012191405059433099
s(g1304
g1305
S'head'
p4137
tp4138
F0.0009143553794574825
s(S'when'
p4139
S'was'
p4140
S'named'
p4141
tp4142
F0.00030478512648582747
s(S'was'
p4143
S'named'
p4144
S'by'
p4145
tp4146
F0.00030478512648582747
s(S'[[det]]'
p4147
S'coach'
p4148
S'of'
p4149
tp4150
F0.00030478512648582747
s(g1717
g2653
S'with'
p4151
tp4152
F0.00030478512648582747
s(g3904
g3280
g3281
tp4153
F0.00030478512648582747
s(S'again'
p4154
S'returned'
p4155
S'[[con]]'
p4156
tp4157
F0.00030478512648582747
s(S'was'
p4158
S'selected'
p4159
S'[[con]]'
p4160
tp4161
F0.0009143553794574825
s(S'[[num]]'
p4162
S'played'
p4163
S'for'
p4164
tp4165
F0.00030478512648582747
s(S'is'
p4166
S'retired'
p4167
S'from'
p4168
tp4169
F0.00030478512648582747
s(S'became'
p4170
S'coach'
p4171
S'[[det]]'
p4172
tp4173
F0.00030478512648582747
s(S'formerly'
p4174
S'played'
p4175
S'[[con]]'
p4176
tp4177
F0.00030478512648582747
s(S'also'
p4178
S'play'
p4179
S'for'
p4180
tp4181
F0.00030478512648582747
s(S'been'
p4182
S'named'
p4183
S'[[det]]'
p4184
tp4185
F0.00030478512648582747
s(S'played'
p4186
g3342
g3343
tp4187
F0.0009143553794574825
s(S'when'
p4188
S'signed'
p4189
S'with'
p4190
tp4191
F0.00030478512648582747
s(S'was'
p4192
S'called'
p4193
S'of'
p4194
tp4195
F0.00030478512648582747
s(g3800
g3801
S'playing'
p4196
tp4197
F0.00030478512648582747
s(S'instead'
p4198
S'signed'
p4199
S'with'
p4200
tp4201
F0.00030478512648582747
s(S'played'
p4202
S'[[con]]'
p4203
S'professionally'
p4204
tp4205
F0.00030478512648582747
s(g1698
g1699
S'formed'
p4206
tp4207
F0.00030478512648582747
s(S'had'
p4208
S'coached'
p4209
S'at'
p4210
tp4211
F0.00030478512648582747
s(g3009
g3010
S'games'
p4212
tp4213
F0.00030478512648582747
s(S'then'
p4214
S'returned'
p4215
S'to'
p4216
tp4217
F0.00030478512648582747
s(S'football'
p4218
S'safety'
p4219
S'player'
p4220
tp4221
F0.00030478512648582747
s(S'player'
p4222
S'to'
p4223
S'play'
p4224
tp4225
F0.0006095702529716549
s(S'is'
p4226
S'selected'
p4227
S'as'
p4228
tp4229
F0.00030478512648582747
s(S'when'
p4230
S'signed'
p4231
S'up'
p4232
tp4233
F0.00030478512648582747
s(S'[[num]]'
p4234
S'game'
p4235
S'in'
p4236
tp4237
F0.0009143553794574825
s(S'[[adj]]'
p4238
g1512
g1513
tp4239
F0.00030478512648582747
s(S'had'
p4240
S'established'
p4241
S'[[pro]]'
p4242
tp4243
F0.00030478512648582747
s(S'college'
p4244
g53
g54
tp4245
F0.0009143553794574825
s(g1152
g1153
S'of'
p4246
tp4247
F0.007924413288631514
s(S'also'
p4248
S'played'
p4249
S'where'
p4250
tp4251
F0.00030478512648582747
s(S'then'
p4252
S'signed'
p4253
S'to'
p4254
tp4255
F0.00030478512648582747
s(S'was'
p4256
S'signed'
p4257
S'up'
p4258
tp4259
F0.00030478512648582747
s(S'formerly'
p4260
S'played'
p4261
S'in'
p4262
tp4263
F0.00030478512648582747
s(g3712
g3713
S'played'
p4264
tp4265
F0.00030478512648582747
s(S'[[adj]]'
p4266
S'contract'
p4267
S'in'
p4268
tp4269
F0.0006095702529716549
s(S'[[prp]]'
p4270
S'debut'
p4271
S'when'
p4272
tp4273
F0.00030478512648582747
s(S'also'
p4274
S'coached'
p4275
S'[[con]]'
p4276
tp4277
F0.00030478512648582747
s(g3452
S'treble'
p4278
S'of'
p4279
tp4280
F0.0006095702529716549
s(S'currently'
p4281
S'signed'
p4282
S'to'
p4283
tp4284
F0.00030478512648582747
s(S'was'
p4285
S'playing'
p4286
S'against'
p4287
tp4288
F0.00030478512648582747
s(S'still'
p4289
S'playing'
p4290
S'for'
p4291
tp4292
F0.00030478512648582747
s(S'were'
p4293
S'signed'
p4294
S'by'
p4295
tp4296
F0.00030478512648582747
s(S'[[det]]'
p4297
S'coach'
p4298
S'[[det]]'
p4299
tp4300
F0.00030478512648582747
s(S'also'
p4301
S'selected'
p4302
S'[[adj]]'
p4303
tp4304
F0.00030478512648582747
s(S'[[prp]]'
p4305
S'career'
p4306
S'in'
p4307
tp4308
F0.00030478512648582747
s(g1099
g1100
S'currently'
p4309
tp4310
F0.00030478512648582747
s(g3428
g3429
S'coach'
p4311
tp4312
F0.00030478512648582747
s(S'[[adj]]'
p4313
S'debut'
p4314
S'with'
p4315
tp4316
F0.00030478512648582747
s(S'then'
p4317
S'selected'
p4318
S'in'
p4319
tp4320
F0.00030478512648582747
s(S'is'
p4321
g2282
g195
tp4322
F0.0033526363913441025
s(S'[[num]]'
p4323
g3773
g3774
tp4324
F0.0006095702529716549
s(S'[[det]]'
p4325
S'football'
p4326
g1854
tp4327
F0.00030478512648582747
s(S'who'
p4328
g3478
g3479
tp4329
F0.0006095702529716549
s(S'had'
p4330
g3777
g3778
tp4331
F0.0009143553794574825
s(S'played'
p4332
S'college'
p4333
g2380
tp4334
F0.00030478512648582747
s(S'[[det]]'
p4335
S'head'
p4336
g3348
tp4337
F0.00030478512648582747
s(S'had'
p4338
S'finished'
p4339
S'[[det]]'
p4340
tp4341
F0.00030478512648582747
s(S'to'
p4342
S'play'
p4343
S'at'
p4344
tp4345
F0.00030478512648582747
s(S'has'
p4346
S'coached'
p4347
S'[[det]]'
p4348
tp4349
F0.00030478512648582747
s(S'is'
p4350
S'named'
p4351
S'as'
p4352
tp4353
F0.00030478512648582747
s(S'been'
p4354
S'playing'
p4355
S'with'
p4356
tp4357
F0.00030478512648582747
s(g1376
g1377
S'for'
p4358
tp4359
F0.001828710758914965
s(S'then'
p4360
S'moved'
p4361
S'onto'
p4362
tp4363
F0.00030478512648582747
s(S'soon'
p4364
S'joined'
p4365
S'[[det]]'
p4366
tp4367
F0.00030478512648582747
s(S'[[con]]'
p4368
S'has'
p4369
S'played'
p4370
tp4371
F0.00030478512648582747
s(S'was'
p4372
S'assigned'
p4373
S'to'
p4374
tp4375
F0.00030478512648582747
s(g3144
g3145
S'[[con]]'
p4376
tp4377
F0.0009143553794574825
s(S'had'
p4378
S'signed'
p4379
S'[[det]]'
p4380
tp4381
F0.0009143553794574825
s(S'[[num]]'
p4382
g3611
g3612
tp4383
F0.00030478512648582747
s(S'then'
p4384
S'moved'
p4385
S'then'
p4386
tp4387
F0.00030478512648582747
s(S'who'
p4388
g3765
g3766
tp4389
F0.00030478512648582747
s(S'[[adj]]'
p4390
g2230
g2231
tp4391
F0.00030478512648582747
s(S'[[adj]]'
p4392
S'career'
p4393
S'of'
p4394
tp4395
F0.00030478512648582747
s(g280
g281
g2718
tp4396
F0.0006095702529716549
s(S'then'
p4397
S'coached'
p4398
S'[[con]]'
p4399
tp4400
F0.00030478512648582747
s(S'soon'
p4401
S'left'
p4402
S'to'
p4403
tp4404
F0.00030478512648582747
s(S'[[det]]'
p4405
S'coach'
p4406
S'[[con]]'
p4407
tp4408
F0.00030478512648582747
s(g193
S'debut'
p4409
S'against'
p4410
tp4411
F0.00030478512648582747
s(S'[[det]]'
p4412
S'left'
p4413
S'of'
p4414
tp4415
F0.00030478512648582747
s(g4219
g4220
S'for'
p4416
tp4417
F0.00030478512648582747
s(g121
g3452
g4278
tp4418
F0.00030478512648582747
s(S'then'
p4419
S'played'
p4420
S'against'
p4421
tp4422
F0.00030478512648582747
s(S'football'
p4423
S'player'
p4424
S'for'
p4425
tp4426
F0.0009143553794574825
s(g560
S'played'
p4427
S'mostly'
p4428
tp4429
F0.00030478512648582747
s(S'is'
p4430
S'[[det]]'
p4431
g4244
tp4432
F0.00030478512648582747
s(S'had'
p4433
S'played'
p4434
S'against'
p4435
tp4436
F0.00030478512648582747
s(S'has'
p4437
S'moved'
p4438
S'from'
p4439
tp4440
F0.00030478512648582747
s(S'also'
p4441
S'plays'
p4442
S'for'
p4443
tp4444
F0.00030478512648582747
s(S'also'
p4445
S'named'
p4446
S'[[con]]'
p4447
tp4448
F0.00030478512648582747
s(g1742
g1743
S'of'
p4449
tp4450
F0.00030478512648582747
s(S'then'
p4451
S'moved'
p4452
S'on'
p4453
tp4454
F0.00030478512648582747
s(S'[[adj]]'
p4455
S'play'
p4456
S'with'
p4457
tp4458
F0.00030478512648582747
s(S'[[adj]]'
p4459
g3236
g3237
tp4460
F0.00030478512648582747
s(S'first'
p4461
S'entered'
p4462
S'[[det]]'
p4463
tp4464
F0.00030478512648582747
s(S'was'
p4465
S'called'
p4466
S'before'
p4467
tp4468
F0.00030478512648582747
s(g2055
g2056
S'coach'
p4469
tp4470
F0.0021334958854007926
s(S'to'
p4471
S'return'
p4472
S'with'
p4473
tp4474
F0.00030478512648582747
s(S'then'
p4475
S'left'
p4476
S'for'
p4477
tp4478
F0.00030478512648582747
s(S'[[adj]]'
p4479
S'debut'
p4480
S'against'
p4481
tp4482
F0.00030478512648582747
s(S'instead'
p4483
S'joined'
p4484
S'[[det]]'
p4485
tp4486
F0.00030478512648582747
s(g2505
g1768
g1769
tp4487
F0.00030478512648582747
s(S'[[det]]'
p4488
g618
g619
tp4489
F0.0015239256324291375
s(g193
g909
g910
tp4490
F0.0009143553794574825
s(S'football'
p4491
S'currently'
p4492
S'playing'
p4493
tp4494
F0.00030478512648582747
s(S'then'
p4495
S'moved'
p4496
S'[[det]]'
p4497
tp4498
F0.00030478512648582747
s(S'[[adj]]'
p4499
S'played'
p4500
S'as'
p4501
tp4502
F0.00030478512648582747
s(g2369
g2370
S'player'
p4503
tp4504
F0.00853398354160317
s(S'head'
p4505
g2716
g1635
tp4506
F0.0006095702529716549
s(S'signed'
p4507
S'[[adj]]'
p4508
S'contract'
p4509
tp4510
F0.00030478512648582747
s(S'born'
p4511
g2745
g2746
tp4512
F0.0006095702529716549
s(S'had'
p4513
S'signed'
p4514
S'for'
p4515
tp4516
F0.00030478512648582747
s(S'to'
p4517
S'compete'
p4518
S'as'
p4519
tp4520
F0.00030478512648582747
s(S'still'
p4521
S'plays'
p4522
S'for'
p4523
tp4524
F0.00030478512648582747
s(S'[[adj]]'
p4525
S'seasons'
p4526
S'[[det]]'
p4527
tp4528
F0.00030478512648582747
s(g4326
g1854
g1855
tp4529
F0.00030478512648582747
s(g55
g1633
S'men'
p4530
tp4531
F0.0009143553794574825
s(S'where'
p4532
S'joined'
p4533
S'[[det]]'
p4534
tp4535
F0.00030478512648582747
s(S'has'
p4536
S'signed'
p4537
S'with'
p4538
tp4539
F0.00030478512648582747
s(S'won'
p4540
g2661
g2662
tp4541
F0.00030478512648582747
s(S'in'
p4542
S'playing'
p4543
S'for'
p4544
tp4545
F0.00030478512648582747
s(g534
g535
S'in'
p4546
tp4547
F0.00030478512648582747
s(S'[[det]]'
p4548
S'player'
p4549
S'on'
p4550
tp4551
F0.00030478512648582747
s(S'was'
p4552
S'playing'
p4553
S'as'
p4554
tp4555
F0.00030478512648582747
s(S'end'
p4556
S'[[prp]]'
p4557
g1532
tp4558
F0.00030478512648582747
s(g922
g923
g1761
tp4559
F0.0015239256324291375
s(S'also'
p4560
S'played'
p4561
S'of'
p4562
tp4563
F0.00030478512648582747
s(S'to'
p4564
S'play'
p4565
S'until'
p4566
tp4567
F0.00030478512648582747
s(S'again'
p4568
S'called'
p4569
S'up'
p4570
tp4571
F0.00030478512648582747
s(S'later'
p4572
S'joined'
p4573
S'at'
p4574
tp4575
F0.00030478512648582747
s(S'currently'
p4576
S'play'
p4577
S'in'
p4578
tp4579
F0.00030478512648582747
s(S'played'
p4580
g1954
g1955
tp4581
F0.00030478512648582747
s(S'was'
p4582
S'relegated'
p4583
S'[[con]]'
p4584
tp4585
F0.00030478512648582747
s(S'also'
p4586
S'joined'
p4587
S'[[det]]'
p4588
tp4589
F0.00030478512648582747
s(S'briefly'
p4590
S'played'
p4591
S'for'
p4592
tp4593
F0.0006095702529716549
s(S'currently'
p4594
S'playing'
p4595
S'for'
p4596
tp4597
F0.006400487656202377
s(S'[[prp]]'
p4598
S'return'
p4599
S'against'
p4600
tp4601
F0.00030478512648582747
s(S'then'
p4602
S'playing'
p4603
S'in'
p4604
tp4605
F0.00030478512648582747
s(S'had'
p4606
S'signed'
p4607
S'with'
p4608
tp4609
F0.00030478512648582747
s(g3923
g3924
S'[[det]]'
p4610
tp4611
F0.00030478512648582747
s(S'also'
p4612
S'played'
p4613
S'at'
p4614
tp4615
F0.00030478512648582747
s(g2769
g2770
S'for'
p4616
tp4617
F0.00030478512648582747
s(S'was'
p4618
S'called'
p4619
S'from'
p4620
tp4621
F0.00030478512648582747
s(S'[[det]]'
p4622
S'player'
p4623
S'[[con]]'
p4624
tp4625
F0.00030478512648582747
s(S'[[det]]'
p4626
S'[[adj]]'
p4627
S'season'
p4628
tp4629
F0.0021334958854007926
s(g2325
g2326
S'[[num]]'
p4630
tp4631
F0.003962206644315757
s(S'later'
p4632
S'moved'
p4633
S'on'
p4634
tp4635
F0.00030478512648582747
s(S'was'
p4636
S'selected'
p4637
S'with'
p4638
tp4639
F0.00030478512648582747
s(g383
g384
g183
tp4640
F0.00030478512648582747
s(S'first'
p4641
S'played'
p4642
S'for'
p4643
tp4644
F0.00030478512648582747
s(S'was'
p4645
S'relegated'
p4646
S'to'
p4647
tp4648
F0.00030478512648582747
s(g2593
g2594
S'player'
p4649
tp4650
F0.00030478512648582747
s(S'later'
p4651
S'played'
p4652
S'at'
p4653
tp4654
F0.00030478512648582747
s(S'to'
p4655
S'return'
p4656
S'at'
p4657
tp4658
F0.00030478512648582747
s(S'as'
p4659
S'[[adj]]'
p4660
S'football'
p4661
tp4662
F0.00030478512648582747
s(S'not'
p4663
S'compete'
p4664
S'in'
p4665
tp4666
F0.00030478512648582747
s(S'[[mod]]'
p4667
S'play'
p4668
S'[[det]]'
p4669
tp4670
F0.00030478512648582747
s(S'had'
p4671
S'signed'
p4672
S'up'
p4673
tp4674
F0.00030478512648582747
s(S'be'
p4675
S'named'
p4676
S'[[det]]'
p4677
tp4678
F0.00030478512648582747
s(S'played'
p4679
g1066
g1067
tp4680
F0.004571776897287412
s(S'be'
p4681
S'selected'
p4682
S'for'
p4683
tp4684
F0.00030478512648582747
s(S'football'
p4685
S'player'
p4686
S'in'
p4687
tp4688
F0.0012191405059433099
s(S'had'
p4689
g3043
g3044
tp4690
F0.0006095702529716549
s(S'also'
p4691
S'briefly'
p4692
S'played'
p4693
tp4694
F0.0006095702529716549
s(g688
g1827
S'playing'
p4695
tp4696
F0.00030478512648582747
s(S'later'
p4697
S'coached'
p4698
S'[[con]]'
p4699
tp4700
F0.00030478512648582747
s(g1525
g1526
S'coach'
p4701
tp4702
F0.0021334958854007926
s(S'[[num]]'
p4703
S'games'
p4704
S'[[det]]'
p4705
tp4706
F0.00030478512648582747
s(S'then'
p4707
S'returned'
p4708
S'with'
p4709
tp4710
F0.00030478512648582747
s(S'[[con]]'
p4711
S'signed'
p4712
S'by'
p4713
tp4714
F0.00030478512648582747
s(g738
g739
S'[[det]]'
p4715
tp4716
F0.00030478512648582747
s(S'then'
p4717
S'left'
p4718
S'[[con]]'
p4719
tp4720
F0.00030478512648582747
s(g2482
g1986
g566
tp4721
F0.00030478512648582747
s(S'[[det]]'
p4722
S'returned'
p4723
S'to'
p4724
tp4725
F0.00030478512648582747
s(S'played'
p4726
g1136
g1137
tp4727
F0.0027430661383724473
s(S'signed'
p4728
S'[[prp]]'
p4729
S'contract'
p4730
tp4731
F0.00030478512648582747
s(S'then'
p4732
S'moved'
p4733
S'[[num]]'
p4734
tp4735
F0.00030478512648582747
s(S'ice'
p4736
S'hockey'
p4737
g3214
tp4738
F0.00030478512648582747
s(S'[[num]]'
p4739
g4459
g3236
tp4740
F0.00030478512648582747
s(S'is'
p4741
S'signed'
p4742
S'to'
p4743
tp4744
F0.00030478512648582747
s(S'then'
p4745
S'selected'
p4746
S'by'
p4747
tp4748
F0.00030478512648582747
s(S'basketball'
p4749
S'player'
p4750
S'for'
p4751
tp4752
F0.00030478512648582747
s(S'[[prp]]'
p4753
S'debut'
p4754
S'away'
p4755
tp4756
F0.00030478512648582747
s(S'[[con]]'
p4757
S'play'
p4758
S'for'
p4759
tp4760
F0.00030478512648582747
s(S'[[con]]'
p4761
S'joined'
p4762
S'of'
p4763
tp4764
F0.00030478512648582747
s(S'just'
p4765
S'[[num]]'
p4766
S'games'
p4767
tp4768
F0.00030478512648582747
s(g4469
g223
g224
tp4769
F0.0015239256324291375
s(S'left'
p4770
S'[[con]]'
p4771
S'signed'
p4772
tp4773
F0.0015239256324291375
s(S'[[mod]]'
p4774
S'return'
p4775
S'with'
p4776
tp4777
F0.00030478512648582747
s(S'now'
p4778
S'playing'
p4779
S'in'
p4780
tp4781
F0.00030478512648582747
s(S'also'
p4782
S'played'
p4783
S'twice'
p4784
tp4785
F0.00030478512648582747
s(S'then'
p4786
S'signed'
p4787
S'[[det]]'
p4788
tp4789
F0.0006095702529716549
s(g152
g153
S'player'
p4790
tp4791
F0.001828710758914965
s(S'[[pro]]'
p4792
S'signed'
p4793
S'with'
p4794
tp4795
F0.00030478512648582747
s(S'then'
p4796
S'played'
p4797
S'also'
p4798
tp4799
F0.00030478512648582747
s(S'were'
p4800
S'relegated'
p4801
S'to'
p4802
tp4803
F0.00030478512648582747
s(S'then'
p4804
S'joined'
p4805
S'[[con]]'
p4806
tp4807
F0.00030478512648582747
s(g4737
g3214
g3215
tp4808
F0.00030478512648582747
s(S'ice'
p4809
g1098
g1099
tp4810
F0.00030478512648582747
s(S'until'
p4811
S'returned'
p4812
S'to'
p4813
tp4814
F0.00030478512648582747
s(g559
g560
g4427
tp4815
F0.00030478512648582747
s(S'[[num]]'
p4816
S'games'
p4817
S'from'
p4818
tp4819
F0.00030478512648582747
s(S'who'
p4820
S'[[adj]]'
p4821
S'played'
p4822
tp4823
F0.00030478512648582747
s(S'made'
p4824
S'debut'
p4825
S'with'
p4826
tp4827
F0.00030478512648582747
s(S'played'
p4828
g2376
g2377
tp4829
F0.0015239256324291375
s(S'signed'
p4830
g1490
g1491
tp4831
F0.004571776897287412
s(g804
S'[[det]]'
p4832
S'head'
p4833
tp4834
F0.00030478512648582747
s(S'[[det]]'
p4835
S'signed'
p4836
S'with'
p4837
tp4838
F0.00030478512648582747
s(S'currently'
p4839
S'plays'
p4840
S'[[con]]'
p4841
tp4842
F0.00030478512648582747
s(g2706
g2406
g2407
tp4843
F0.0012191405059433099
s(S'then'
p4844
S'selected'
p4845
S'as'
p4846
tp4847
F0.00030478512648582747
s(S'[[adj]]'
p4848
S'game'
p4849
S'[[num]]'
p4850
tp4851
F0.00030478512648582747
s(S'played'
p4852
S'briefly'
p4853
S'in'
p4854
tp4855
F0.0006095702529716549
s(S'played'
p4856
g3725
g3726
tp4857
F0.005486132276744895
s(S'signed'
p4858
g3516
g3517
tp4859
F0.0012191405059433099
s(g1533
g119
g120
tp4860
F0.00030478512648582747
s(S'born'
p4861
g4323
g3773
tp4862
F0.0006095702529716549
s(S'briefly'
p4863
S'played'
p4864
S'in'
p4865
tp4866
F0.0006095702529716549
s(S'currently'
p4867
S'plays'
p4868
S'with'
p4869
tp4870
F0.00030478512648582747
s(S'later'
p4871
S'signed'
p4872
S'by'
p4873
tp4874
F0.00030478512648582747
s(S'which'
p4875
S'debuted'
p4876
S'on'
p4877
tp4878
F0.00030478512648582747
s(g4557
g1532
g1533
tp4879
F0.00030478512648582747
s(S'that'
p4880
S'led'
p4881
S'[[det]]'
p4882
tp4883
F0.00030478512648582747
s(S'head'
p4884
g2324
g2325
tp4885
F0.001828710758914965
s(S'then'
p4886
S'moved'
p4887
S'at'
p4888
tp4889
F0.00030478512648582747
s(S'football'
p4890
S'coach'
p4891
S'from'
p4892
tp4893
F0.00030478512648582747
s(g1443
g1444
g1175
tp4894
F0.00030478512648582747
s(g4431
g4244
g53
tp4895
F0.0006095702529716549
s(S'is'
p4896
S'returned'
p4897
S'to'
p4898
tp4899
F0.00030478512648582747
s(g4729
g4730
S'with'
p4900
tp4901
F0.00030478512648582747
s(S'be'
p4902
S'returned'
p4903
S'to'
p4904
tp4905
F0.00030478512648582747
s(S'later'
p4906
S'named'
p4907
S'of'
p4908
tp4909
F0.00030478512648582747
s(g3575
g3576
S'with'
p4910
tp4911
F0.0012191405059433099
s(g3698
g3699
S'debut'
p4912
tp4913
F0.0006095702529716549
s(g670
g671
S'contract'
p4914
tp4915
F0.00030478512648582747
s(S'then'
p4916
S'coached'
p4917
S'at'
p4918
tp4919
F0.00030478512648582747
s(S'[[adj]]'
p4920
S'coach'
p4921
S'including'
p4922
tp4923
F0.00030478512648582747
s(g1083
g1084
S'against'
p4924
tp4925
F0.0006095702529716549
s(S'[[prp]]'
p4926
S'return'
p4927
S'with'
p4928
tp4929
F0.00030478512648582747
s(S'never'
p4930
S'played'
p4931
S'with'
p4932
tp4933
F0.00030478512648582747
s(S'basketball'
p4934
g3793
g3794
tp4935
F0.00030478512648582747
s(S'as'
p4936
S'head'
p4937
S'football'
p4938
tp4939
F0.0006095702529716549
s(S'only'
p4940
S'played'
p4941
S'for'
p4942
tp4943
F0.00030478512648582747
s(g1277
g606
g607
tp4944
F0.00030478512648582747
s(S'born'
p4945
g1725
g1726
tp4946
F0.0006095702529716549
s(S'played'
p4947
g905
g906
tp4948
F0.0024382810118866198
s(S'[[num]]'
p4949
g151
g152
tp4950
F0.0009143553794574825
s(S'was'
p4951
g4094
g1132
tp4952
F0.00030478512648582747
s(S'with'
p4953
S'joined'
p4954
S'[[det]]'
p4955
tp4956
F0.00030478512648582747
s(g2435
g2436
S'football'
p4957
tp4958
F0.00030478512648582747
s(S'not'
p4959
S'selected'
p4960
S'by'
p4961
tp4962
F0.00030478512648582747
s(S'to'
p4963
S'compete'
p4964
S'against'
p4965
tp4966
F0.00030478512648582747
s(S'[[num]]'
p4967
S'game'
p4968
S'[[num]]'
p4969
tp4970
F0.00030478512648582747
s(S'to'
p4971
S'return'
p4972
S'to'
p4973
tp4974
F0.00030478512648582747
s(S'when'
p4975
S'played'
p4976
S'against'
p4977
tp4978
F0.00030478512648582747
s(S'have'
p4979
S'played'
p4980
S'for'
p4981
tp4982
F0.00030478512648582747
s(S'defenceman'
p4983
S'who'
p4984
S'currently'
p4985
tp4986
F0.00030478512648582747
s(S'[[adj]]'
p4987
S'played'
p4988
S'against'
p4989
tp4990
F0.00030478512648582747
s(S'has'
p4991
S'played'
p4992
S'mainly'
p4993
tp4994
F0.00030478512648582747
s(S'being'
p4995
S'named'
p4996
S'of'
p4997
tp4998
F0.00030478512648582747
s(S'then'
p4999
S'left'
p5000
S'[[det]]'
p5001
tp5002
F0.00030478512648582747
s(g3699
g4912
S'for'
p5003
tp5004
F0.00030478512648582747
s(S'that'
p5005
S'led'
p5006
S'at'
p5007
tp5008
F0.00030478512648582747
s(S'player'
p5009
g4820
g4821
tp5010
F0.0006095702529716549
s(S'returned'
p5011
g4139
g4140
tp5012
F0.00030478512648582747
s(S'has'
p5013
S'played'
p5014
S'professionally'
p5015
tp5016
F0.0006095702529716549
s(S'more'
p5017
S'seasons'
p5018
S'for'
p5019
tp5020
F0.00030478512648582747
s(S'when'
p5021
S'played'
p5022
S'[[det]]'
p5023
tp5024
F0.00030478512648582747
s(S'was'
p5025
S'signed'
p5026
S'at'
p5027
tp5028
F0.00030478512648582747
s(S'already'
p5029
S'played'
p5030
S'in'
p5031
tp5032
F0.00030478512648582747
s(S'first'
p5033
S'joined'
p5034
S'[[con]]'
p5035
tp5036
F0.00030478512648582747
s(S'contract'
p5037
S'with'
p5038
S'team'
p5039
tp5040
F0.0012191405059433099
s(S'only'
p5041
S'[[num]]'
p5042
S'season'
p5043
tp5044
F0.00030478512648582747
s(S'was'
p5045
S'playing'
p5046
S'in'
p5047
tp5048
F0.00030478512648582747
s(S'was'
p5049
S'retired'
p5050
S'from'
p5051
tp5052
F0.00030478512648582747
s(S'also'
p5053
S'played'
p5054
S'as'
p5055
tp5056
F0.00030478512648582747
s(S'after'
p5057
S'played'
p5058
S'with'
p5059
tp5060
F0.00030478512648582747
s(g2373
g2374
g193
tp5061
F0.0009143553794574825
s(g4203
g4204
S'in'
p5062
tp5063
F0.00030478512648582747
s(S'[[num]]'
p5064
g2402
g2403
tp5065
F0.0006095702529716549
s(S'born'
p5066
g2933
g2934
tp5067
F0.007010057909174032
s(S'[[det]]'
p5068
S'play'
p5069
S'for'
p5070
tp5071
F0.00030478512648582747
s(S'became'
p5072
S'coach'
p5073
S'of'
p5074
tp5075
F0.00030478512648582747
s(S'later'
p5076
S'coached'
p5077
S'in'
p5078
tp5079
F0.00030478512648582747
s(S'has'
p5080
S'established'
p5081
S'[[pro]]'
p5082
tp5083
F0.00030478512648582747
s(g2065
g2066
S'[[adj]]'
p5084
tp5085
F0.00030478512648582747
s(g1754
g1755
S'plays'
p5086
tp5087
F0.00030478512648582747
s(g803
g804
g4832
tp5088
F0.00030478512648582747
s(S'[[prp]]'
p5089
S'debut'
p5090
S'against'
p5091
tp5092
F0.00030478512648582747
s(g1100
g4309
S'playing'
p5093
tp5094
F0.0009143553794574825
s(S'basketball'
p5095
S'player'
p5096
S'in'
p5097
tp5098
F0.00030478512648582747
s(S'as'
p5099
S'[[adj]]'
p5100
S'men'
p5101
tp5102
F0.00030478512648582747
s(S'been'
p5103
S'assigned'
p5104
S'to'
p5105
tp5106
F0.00030478512648582747
s(S'then'
p5107
S'playing'
p5108
S'for'
p5109
tp5110
F0.00030478512648582747
s(S'currently'
p5111
S'signed'
p5112
S'with'
p5113
tp5114
F0.00030478512648582747
s(S'contract'
p5115
g3023
g3024
tp5116
F0.00030478512648582747
s(S'who'
p5117
S'played'
p5118
S'[[adj]]'
p5119
tp5120
F0.0006095702529716549
s(g4336
g3348
g3349
tp5121
F0.00030478512648582747
s(S'been'
p5122
S'selected'
p5123
S'as'
p5124
tp5125
F0.00030478512648582747
s(S'[[con]]'
p5126
S'joined'
p5127
S'[[adj]]'
p5128
tp5129
F0.00030478512648582747
s(g2297
g2298
S'season'
p5130
tp5131
F0.00030478512648582747
s(S'then'
p5132
S'moved'
p5133
S'with'
p5134
tp5135
F0.00030478512648582747
s(S'[[det]]'
p5136
S'forward'
p5137
S'for'
p5138
tp5139
F0.00030478512648582747
s(S'ice'
p5140
g1361
g1362
tp5141
F0.00030478512648582747
s(S'has'
p5142
S'moved'
p5143
S'on'
p5144
tp5145
F0.00030478512648582747
s(S'football'
p5146
g303
g304
tp5147
F0.00030478512648582747
s(S'[[num]]'
p5148
S'joined'
p5149
S'[[det]]'
p5150
tp5151
F0.00030478512648582747
s(g3141
g773
g127
tp5152
F0.00030478512648582747
s(S'[[con]]'
p5153
S'signed'
p5154
S'[[det]]'
p5155
tp5156
F0.0012191405059433099
s(g4627
g4628
S'at'
p5157
tp5158
F0.00030478512648582747
s(S'hockey'
p5159
g1711
g1712
tp5160
F0.0006095702529716549
s(S'then'
p5161
g1930
g1931
tp5162
F0.00030478512648582747
s(S'which'
p5163
S'played'
p5164
S'in'
p5165
tp5166
F0.00030478512648582747
s(S'[[prp]]'
p5167
S'coach'
p5168
S'at'
p5169
tp5170
F0.00030478512648582747
s(g112
g113
S'selected'
p5171
tp5172
F0.0006095702529716549
s(S'[[num]]'
p5173
g1279
g1280
tp5174
F0.0009143553794574825
s(S'was'
p5175
S'selected'
p5176
S'[[num]]'
p5177
tp5178
F0.00030478512648582747
s(S'played'
p5179
g1669
g1670
tp5180
F0.00030478512648582747
s(g281
g2718
g2719
tp5181
F0.0009143553794574825
s(g2498
g1086
g1087
tp5182
F0.00030478512648582747
s(S'was'
p5183
S'named'
p5184
S'with'
p5185
tp5186
F0.00030478512648582747
s(S'[[adj]]'
p5187
S'selected'
p5188
S'for'
p5189
tp5190
F0.00030478512648582747
s(S'[[det]]'
p5191
S'college'
p5192
S'football'
p5193
tp5194
F0.0006095702529716549
s(S'[[mod]]'
p5195
S'return'
p5196
S'at'
p5197
tp5198
F0.00030478512648582747
s(S'first'
p5199
S'joined'
p5200
S'[[det]]'
p5201
tp5202
F0.00030478512648582747
s(S'up'
p5203
S'playing'
p5204
S'for'
p5205
tp5206
F0.00030478512648582747
s(S'when'
p5207
S'left'
p5208
S'[[det]]'
p5209
tp5210
F0.00030478512648582747
s(S'then'
p5211
S'entered'
p5212
S'[[det]]'
p5213
tp5214
F0.00030478512648582747
s(S'[[adj]]'
p5215
S'return'
p5216
S'to'
p5217
tp5218
F0.00030478512648582747
s(g1963
g1964
S'in'
p5219
tp5220
F0.0027430661383724473
s(S'was'
p5221
S'named'
p5222
S'as'
p5223
tp5224
F0.0006095702529716549
s(S'also'
p5225
S'named'
p5226
S'[[det]]'
p5227
tp5228
F0.00030478512648582747
s(g1276
g1277
g606
tp5229
F0.00030478512648582747
s(S'[[num]]'
p5230
S'seasons'
p5231
S'between'
p5232
tp5233
F0.0006095702529716549
s(S'after'
p5234
S'playing'
p5235
S'at'
p5236
tp5237
F0.00030478512648582747
s(S'[[det]]'
p5238
g3422
g3423
tp5239
F0.00030478512648582747
s(S'was'
p5240
S'playing'
p5241
S'with'
p5242
tp5243
F0.00030478512648582747
s(S'again'
p5244
S'named'
p5245
S'[[det]]'
p5246
tp5247
F0.00030478512648582747
s(S'[[con]]'
p5248
S'play'
p5249
S'in'
p5250
tp5251
F0.00030478512648582747
s(S'was'
p5252
S'played'
p5253
S'for'
p5254
tp5255
F0.00030478512648582747
s(g595
g596
g1152
tp5256
F0.00609570252971655
s(g337
g2911
S'played'
p5257
tp5258
F0.011581834806461445
s(S'once'
p5259
S'played'
p5260
S'with'
p5261
tp5262
F0.00030478512648582747
s(S'games'
p5263
g4368
g4369
tp5264
F0.00030478512648582747
s(g1296
g1297
S'at'
p5265
tp5266
F0.00030478512648582747
s(g4006
g4007
S'head'
p5267
tp5268
F0.00030478512648582747
s(S'were'
p5269
S'signed'
p5270
S'from'
p5271
tp5272
F0.00030478512648582747
s(S'later'
p5273
S'coached'
p5274
S'[[det]]'
p5275
tp5276
F0.00030478512648582747
s(S'also'
p5277
S'signed'
p5278
S'with'
p5279
tp5280
F0.00030478512648582747
s(S'[[num]]'
p5281
S'games'
p5282
S'in'
p5283
tp5284
F0.003047851264858275
s(g2507
g1695
g1329
tp5285
F0.003962206644315757
s(S'played'
p5286
g1605
g1606
tp5287
F0.0012191405059433099
s(S'[[adj]]'
p5288
g1203
g1204
tp5289
F0.0006095702529716549
s(g2569
g2109
g2110
tp5290
F0.00030478512648582747
s.