(dp0
(S'[[det]]'
p1
S'station'
p2
S'[[con]]'
p3
tp4
F0.0006289308176100629
s(S'now'
p5
S'located'
p6
S'in'
p7
tp8
F0.0006289308176100629
s(S'been'
p9
S'held'
p10
S'in'
p11
tp12
F0.0006289308176100629
s(S'[[det]]'
p13
S'station'
p14
S'after'
p15
tp16
F0.0006289308176100629
s(S'[[adj]]'
p17
S'factory'
p18
S'in'
p19
tp20
F0.0006289308176100629
s(S'[[con]]'
p21
S'operates'
p22
S'[[num]]'
p23
tp24
F0.0006289308176100629
s(S'shopping'
p25
S'center'
p26
S'located'
p27
tp28
F0.0018867924528301887
s(S'station'
p29
S'located'
p30
S'between'
p31
tp32
F0.0006289308176100629
s(S'[[adj]]'
p33
S'facilities'
p34
S'in'
p35
tp36
F0.0006289308176100629
s(S'[[adj]]'
p37
S'tower'
p38
S'in'
p39
tp40
F0.0006289308176100629
s(S'has'
p41
S'manufacturing'
p42
S'facilities'
p43
tp44
F0.0006289308176100629
s(S'operates'
p45
S'from'
p46
S'offices'
p47
tp48
F0.0006289308176100629
s(S'were'
p49
S'founded'
p50
S'in'
p51
tp52
F0.0006289308176100629
s(S'metal'
p53
S'festival'
p54
S'held'
p55
tp56
F0.0006289308176100629
s(S'[[adj]]'
p57
S'presence'
p58
S'in'
p59
tp60
F0.0006289308176100629
s(S'been'
p61
S'held'
p62
S'at'
p63
tp64
F0.0006289308176100629
s(S'also'
p65
S'expanded'
p66
S'to'
p67
tp68
F0.0006289308176100629
s(S'[[adj]]'
p69
S'school'
p70
S'[[det]]'
p71
tp72
F0.0012578616352201257
s(S'[[adj]]'
p73
S'stadium'
p74
S'located'
p75
tp76
F0.0006289308176100629
s(S'is'
p77
S'established'
p78
S'at'
p79
tp80
F0.0006289308176100629
s(S'was'
p81
S'founded'
p82
S'on'
p83
tp84
F0.0006289308176100629
s(S'of'
p85
S'[[det]]'
p86
S'located'
p87
tp88
F0.0006289308176100629
s(S'founded'
p89
S'[[con]]'
p90
S'currently'
p91
tp92
F0.0006289308176100629
s(S'[[det]]'
p93
g25
g26
tp94
F0.0012578616352201257
s(S'also'
p95
S'launched'
p96
S'from'
p97
tp98
F0.0006289308176100629
s(S'for'
p99
S'operations'
p100
S'in'
p101
tp102
F0.0006289308176100629
s(S'also'
p103
S'connects'
p104
S'[[det]]'
p105
tp106
F0.0006289308176100629
s(S'[[adj]]'
p107
S'based'
p108
S'in'
p109
tp110
F0.0006289308176100629
s(S'has'
p111
S'launched'
p112
S'[[prp]]'
p113
tp114
F0.0006289308176100629
s(S'highest'
p115
S'lake'
p116
S'in'
p117
tp118
F0.0006289308176100629
s(S'station'
p119
S'located'
p120
S'in'
p121
tp122
F0.0031446540880503146
s(S'released'
p123
S'[[det]]'
p124
S'game'
p125
tp126
F0.0006289308176100629
s(S'is'
p127
S'established'
p128
S'in'
p129
tp130
F0.0006289308176100629
s(S'be'
p131
S'built'
p132
S'in'
p133
tp134
F0.0006289308176100629
s(S'near'
p135
S'[[det]]'
p136
S'village'
p137
tp138
F0.0006289308176100629
s(S'contained'
p139
S'[[num]]'
p140
S'states'
p141
tp142
F0.0006289308176100629
s(S'stations'
p143
S'in'
p144
S'[[det]]'
p145
tp146
F0.0006289308176100629
s(S'was'
p147
S'broadcast'
p148
S'[[adj]]'
p149
tp150
F0.0006289308176100629
s(S'[[det]]'
p151
S'company'
p152
S'headquartered'
p153
tp154
F0.0006289308176100629
s(S'[[prp]]'
p155
S'headquarters'
p156
S'in'
p157
tp158
F0.0012578616352201257
s(S'[[det]]'
p159
S'manufacturer'
p160
S'[[con]]'
p161
tp162
F0.0006289308176100629
s(S'that'
p163
S'operated'
p164
S'in'
p165
tp166
F0.0006289308176100629
s(S'largest'
p167
S'[[adj]]'
p168
S'company'
p169
tp170
F0.0006289308176100629
s(S'market'
p171
S'town'
p172
S'of'
p173
tp174
F0.0012578616352201257
s(S'train'
p175
S'station'
p176
S'[[con]]'
p177
tp178
F0.0012578616352201257
s(S'[[det]]'
p179
S'station'
p180
S'serving'
p181
tp182
F0.0037735849056603774
s(S'station'
p183
S'built'
p184
S'[[con]]'
p185
tp186
F0.0006289308176100629
s(S'in'
p187
S'city'
p188
S'of'
p189
tp190
F0.0006289308176100629
s(S's'
p191
S'released'
p192
S'in'
p193
tp194
F0.0006289308176100629
s(g54
g55
S'annually'
p195
tp196
F0.0006289308176100629
s(S'founded'
p197
S'is'
p198
S'based'
p199
tp200
F0.0006289308176100629
s(S'railway'
p201
S'station'
p202
S'[[con]]'
p203
tp204
F0.0006289308176100629
s(S'[[det]]'
p205
S'school'
p206
S'in'
p207
tp208
F0.0012578616352201257
s(S'in'
p209
S'[[det]]'
p210
S'city'
p211
tp212
F0.009433962264150943
s(S'situated'
p213
S'in'
p214
S'[[det]]'
p215
tp216
F0.0018867924528301887
s(S'[[adj]]'
p217
S'town'
p218
S'located'
p219
tp220
F0.0006289308176100629
s(S'[[det]]'
p221
S'largest'
p222
S'bank'
p223
tp224
F0.0006289308176100629
s(S'subway'
p225
S'station'
p226
S'on'
p227
tp228
F0.0006289308176100629
s(S'been'
p229
S'operating'
p230
S'in'
p231
tp232
F0.0006289308176100629
s(S'record'
p233
S'label'
p234
S'based'
p235
tp236
F0.0018867924528301887
s(S'[[det]]'
p237
S'operated'
p238
S'by'
p239
tp240
F0.0006289308176100629
s(S'is'
p241
S'built'
p242
S'[[con]]'
p243
tp244
F0.0006289308176100629
s(S'tallest'
p245
S'building'
p246
S'[[con]]'
p247
tp248
F0.0006289308176100629
s(S'[[adj]]'
p249
S'located'
p250
S'in'
p251
tp252
F0.0006289308176100629
s(S'company'
p253
S'based'
p254
S'in'
p255
tp256
F0.00440251572327044
s(S'also'
p257
S'broadcast'
p258
S'in'
p259
tp260
F0.0006289308176100629
s(S'was'
p261
S'located'
p262
S'between'
p263
tp264
F0.0006289308176100629
s(S'incorporated'
p265
S'[[con]]'
p266
S'headquartered'
p267
tp268
F0.0006289308176100629
s(S'has'
p269
S'offices'
p270
S'throughout'
p271
tp272
F0.0006289308176100629
s(S'[[num]]'
p273
S'[[adj]]'
p274
S'stores'
p275
tp276
F0.0006289308176100629
s(S'were'
p277
S'held'
p278
S'in'
p279
tp280
F0.0006289308176100629
s(S'[[adj]]'
p281
S'broadcast'
p282
S'on'
p283
tp284
F0.0006289308176100629
s(S'to'
p285
S'form'
p286
S'in'
p287
tp288
F0.0006289308176100629
s(S'was'
p289
S'located'
p290
S'at'
p291
tp292
F0.0012578616352201257
s(S'were'
p293
S'held'
p294
S'at'
p295
tp296
F0.0006289308176100629
s(S'village'
p297
S'[[con]]'
p298
S'was'
p299
tp300
F0.0006289308176100629
s(S'[[adj]]'
p301
S'lake'
p302
S'in'
p303
tp304
F0.0012578616352201257
s(S'moved'
p305
S'[[prp]]'
p306
S'[[adj]]'
p307
tp308
F0.0012578616352201257
s(S'[[det]]'
p309
S'tower'
p310
S'mill'
p311
tp312
F0.0006289308176100629
s(g180
g181
S'[[det]]'
p313
tp314
F0.01509433962264151
s(S'was'
p315
S'located'
p316
S'in'
p317
tp318
F0.0012578616352201257
s(S'[[adj]]'
p319
S'bank'
p320
S'in'
p321
tp322
F0.0012578616352201257
s(S'served'
p323
S'[[det]]'
p324
S'area'
p325
tp326
F0.0006289308176100629
s(S'was'
p327
S'established'
p328
S'at'
p329
tp330
F0.0006289308176100629
s(S'station'
p331
S'built'
p332
S'by'
p333
tp334
F0.0006289308176100629
s(S'[[det]]'
p335
S'founded'
p336
S'in'
p337
tp338
F0.0006289308176100629
s(S'school'
p339
S'in'
p340
S'[[det]]'
p341
tp342
F0.0012578616352201257
s(S'[[det]]'
p343
S'lake'
p344
S'of'
p345
tp346
F0.0006289308176100629
s(S'[[adj]]'
p347
S'carpet'
p348
S'courts'
p349
tp350
F0.0006289308176100629
s(S'railway'
p351
S'station'
p352
S'after'
p353
tp354
F0.0006289308176100629
s(S'is'
p355
S'located'
p356
S'very'
p357
tp358
F0.0006289308176100629
s(S'is'
p359
S'opened'
p360
S'in'
p361
tp362
F0.0006289308176100629
s(g191
S'located'
p363
S'near'
p364
tp365
F0.0006289308176100629
s(S'[[adj]]'
p366
S'school'
p367
S'located'
p368
tp369
F0.0031446540880503146
s(S'with'
p370
S'branches'
p371
S'in'
p372
tp373
F0.0006289308176100629
s(S'were'
p374
S'built'
p375
S'in'
p376
tp377
F0.0006289308176100629
s(S'[[adj]]'
p378
S'house'
p379
S'at'
p380
tp381
F0.0006289308176100629
s(S'located'
p382
S'[[con]]'
p383
S'is'
p384
tp385
F0.0006289308176100629
s(S'then'
p386
S'opened'
p387
S'in'
p388
tp389
F0.0006289308176100629
s(S'road'
p390
S'race'
p391
S'held'
p392
tp393
F0.0006289308176100629
s(S'be'
p394
S'broadcast'
p395
S'on'
p396
tp397
F0.0006289308176100629
s(S'house'
p398
S'located'
p399
S'in'
p400
tp401
F0.0006289308176100629
s(S'biggest'
p402
S'company'
p403
S'in'
p404
tp405
F0.0006289308176100629
s(S'[[adj]]'
p406
S'record'
p407
S'label'
p408
tp409
F0.0031446540880503146
s(S'[[adj]]'
p410
S'airport'
p411
S'in'
p412
tp413
F0.0006289308176100629
s(S'is'
p414
S'situated'
p415
S'just'
p416
tp417
F0.0006289308176100629
s(S'operates'
p418
S'[[num]]'
p419
S'stores'
p420
tp421
F0.0012578616352201257
s(S'[[con]]'
p422
S'has'
p423
S'offices'
p424
tp425
F0.0006289308176100629
s(S'are'
p426
S'located'
p427
S'between'
p428
tp429
F0.0006289308176100629
s(S'lake'
p430
S'located'
p431
S'in'
p432
tp433
F0.0018867924528301887
s(S'is'
p434
S'located'
p435
S'on'
p436
tp437
F0.0037735849056603774
s(S'on'
p438
g347
g348
tp439
F0.0006289308176100629
s(S'in'
p440
S'[[adj]]'
p441
S'village'
p442
tp443
F0.0006289308176100629
s(S'been'
p444
S'played'
p445
S'[[adj]]'
p446
tp447
F0.0006289308176100629
s(S'[[det]]'
p448
S'presence'
p449
S'in'
p450
tp451
F0.0006289308176100629
s(S'head'
p452
S'office'
p453
S'at'
p454
tp455
F0.0006289308176100629
s(S'station'
p456
S'on'
p457
S'located'
p458
tp459
F0.0012578616352201257
s(S'located'
p460
S'[[num]]'
p461
S'miles'
p462
tp463
F0.0006289308176100629
s(S'provides'
p464
S'services'
p465
S'in'
p466
tp467
F0.0006289308176100629
s(S'took'
p468
S'place'
p469
S'between'
p470
tp471
F0.0006289308176100629
s(S'[[adj]]'
p472
S'road'
p473
S'in'
p474
tp475
F0.0006289308176100629
s(S'[[adj]]'
p476
S'passenger'
p477
S'rail'
p478
tp479
F0.0006289308176100629
s(S'in'
p480
S'[[det]]'
p481
S'heart'
p482
tp483
F0.0006289308176100629
s(S'[[det]]'
p484
S'service'
p485
S'to'
p486
tp487
F0.0006289308176100629
s(S'[[det]]'
p488
S'lake'
p489
S'at'
p490
tp491
F0.0006289308176100629
s(S'shopping'
p492
S'mall'
p493
S'in'
p494
tp495
F0.0031446540880503146
s(S'has'
p496
S'facilities'
p497
S'in'
p498
tp499
F0.0006289308176100629
s(S'is'
p500
S'located'
p501
S'to'
p502
tp503
F0.0006289308176100629
s(S'[[num]]'
p504
S'railway'
p505
S'stations'
p506
tp507
F0.0012578616352201257
s(S'station'
p508
S'[[det]]'
p509
S'[[adj]]'
p510
tp511
F0.0006289308176100629
s(S'is'
p512
S'located'
p513
S'of'
p514
tp515
F0.0006289308176100629
s(S'is'
p516
S'located'
p517
S'[[adj]]'
p518
tp519
F0.0006289308176100629
s(S'took'
p520
S'place'
p521
S'in'
p522
tp523
F0.0012578616352201257
s(S'out'
p524
S'offices'
p525
S'in'
p526
tp527
F0.0006289308176100629
s(S'has'
p528
S'offices'
p529
S'in'
p530
tp531
F0.0012578616352201257
s(S'also'
p532
S'known'
p533
S'was'
p534
tp535
F0.0006289308176100629
s(S'[[adj]]'
p536
S'expanded'
p537
S'in'
p538
tp539
F0.0006289308176100629
s(S'is'
p540
S'located'
p541
S'under'
p542
tp543
F0.0006289308176100629
s(S'[[det]]'
p544
S'station'
p545
S'from'
p546
tp547
F0.0006289308176100629
s(S'been'
p548
S'played'
p549
S'at'
p550
tp551
F0.0006289308176100629
s(S'[[det]]'
p552
S'station'
p553
S'which'
p554
tp555
F0.0012578616352201257
s(S'took'
p556
S'place'
p557
S'at'
p558
tp559
F0.0006289308176100629
s(S'[[adj]]'
p560
S'station'
p561
S'in'
p562
tp563
F0.0018867924528301887
s(S'also'
p564
S'operates'
p565
S'in'
p566
tp567
F0.0006289308176100629
s(S'now'
p568
S'operates'
p569
S'in'
p570
tp571
F0.0006289308176100629
s(S'was'
p572
S'held'
p573
S'at'
p574
tp575
F0.0006289308176100629
s(S'game'
p576
S'developer'
p577
S'[[con]]'
p578
tp579
F0.0012578616352201257
s(S'is'
p580
S'headquartered'
p581
S'with'
p582
tp583
F0.0018867924528301887
s(S'[[det]]'
p584
S'largest'
p585
S'of'
p586
tp587
F0.0006289308176100629
s(S'building'
p588
S'located'
p589
S'in'
p590
tp591
F0.0012578616352201257
s(S'[[adj]]'
p592
S'race'
p593
S'in'
p594
tp595
F0.0006289308176100629
s(S'was'
p596
S'founded'
p597
S'with'
p598
tp599
F0.0006289308176100629
s(g307
S'headquarters'
p600
S'to'
p601
tp602
F0.0006289308176100629
s(S'was'
p603
S'situated'
p604
S'to'
p605
tp606
F0.0006289308176100629
s(S'is'
p607
S'serving'
p608
S'[[det]]'
p609
tp610
F0.0006289308176100629
s(S'[[det]]'
p611
S'reservoir'
p612
S'located'
p613
tp614
F0.0006289308176100629
s(S'on'
p615
S'[[det]]'
p616
S'railway'
p617
tp618
F0.0006289308176100629
s(S'[[adj]]'
p619
S'stores'
p620
S'in'
p621
tp622
F0.0006289308176100629
s(S'[[adj]]'
p623
S'member'
p624
S'society'
p625
tp626
F0.0006289308176100629
s(S'[[adj]]'
p627
S'station'
p628
S'[[det]]'
p629
tp630
F0.0006289308176100629
s(S'serves'
p631
S'[[det]]'
p632
S'[[adj]]'
p633
tp634
F0.0018867924528301887
s(g191
S'line'
p635
S'in'
p636
tp637
F0.0006289308176100629
s(S'software'
p638
S'company'
p639
S'based'
p640
tp641
F0.0006289308176100629
s(S'festival'
p642
S'held'
p643
S'in'
p644
tp645
F0.0006289308176100629
s(S'[[adj]]'
p646
S'plant'
p647
S'in'
p648
tp649
F0.0006289308176100629
s(S'served'
p650
S'[[det]]'
p651
S'villages'
p652
tp653
F0.0018867924528301887
s(S'located'
p654
S'on'
p655
S'railway'
p656
tp657
F0.0006289308176100629
s(S'served'
p658
S'[[det]]'
p659
S'market'
p660
tp661
F0.0006289308176100629
s(S'[[det]]'
p662
S'[[adj]]'
p663
S'villages'
p664
tp665
F0.0006289308176100629
s(S'that'
p666
S'serves'
p667
S'[[det]]'
p668
tp669
F0.0012578616352201257
s(S'also'
p670
S'operates'
p671
S'[[adj]]'
p672
tp673
F0.0006289308176100629
s(S'also'
p674
S'opened'
p675
S'in'
p676
tp677
F0.0006289308176100629
s(S'miles'
p678
S'including'
p679
S'what'
p680
tp681
F0.0012578616352201257
s(S'was'
p682
S'broadcast'
p683
S'by'
p684
tp685
F0.0006289308176100629
s(S'[[con]]'
p686
S'[[adj]]'
p687
S'territories'
p688
tp689
F0.0006289308176100629
s(S'was'
p690
S'founded'
p691
S'[[num]]'
p692
tp693
F0.0006289308176100629
s(S'served'
p694
S'[[det]]'
p695
S'town'
p696
tp697
F0.0018867924528301887
s(S'label'
p698
S'located'
p699
S'in'
p700
tp701
F0.0006289308176100629
s(S'[[adj]]'
p702
S'offices'
p703
S'in'
p704
tp705
F0.00440251572327044
s(S'[[adj]]'
p706
S'service'
p707
S'between'
p708
tp709
F0.0006289308176100629
s(g46
g47
S'in'
p710
tp711
F0.0006289308176100629
s(S'is'
p712
S'located'
p713
S'beside'
p714
tp715
F0.0006289308176100629
s(S'is'
p716
S'broadcast'
p717
S'on'
p718
tp719
F0.0006289308176100629
s(S'[[adj]]'
p720
S'basketball'
p721
S'franchise'
p722
tp723
F0.0006289308176100629
s(S'also'
p724
S'based'
p725
S'in'
p726
tp727
F0.0006289308176100629
s(S'was'
p728
S'held'
p729
S'[[det]]'
p730
tp731
F0.0006289308176100629
s(g680
S'today'
p732
S'[[det]]'
p733
tp734
F0.0012578616352201257
s(g191
S'operations'
p735
S'in'
p736
tp737
F0.0006289308176100629
s(S'was'
p738
S'built'
p739
S'[[num]]'
p740
tp741
F0.0006289308176100629
s(S'[[det]]'
p742
S'located'
p743
S'in'
p744
tp745
F0.006289308176100629
s(S'was'
p746
S'founded'
p747
S'in'
p748
tp749
F0.0006289308176100629
s(S'[[det]]'
p750
g430
g431
tp751
F0.0006289308176100629
s(S'[[det]]'
p752
S'largest'
p753
S'[[adj]]'
p754
tp755
F0.0031446540880503146
s(S'[[det]]'
p756
S'villages'
p757
S'[[con]]'
p758
tp759
F0.0006289308176100629
s(S'is'
p760
S'located'
p761
S'[[num]]'
p762
tp763
F0.0006289308176100629
s(S'typically'
p764
S'[[adj]]'
p765
S'states'
p766
tp767
F0.0006289308176100629
s(S'train'
p768
S'station'
p769
S'operated'
p770
tp771
F0.0012578616352201257
s(S'is'
p772
S'headquartered'
p773
S'in'
p774
tp775
F0.0012578616352201257
s(S'[[det]]'
p776
S'arena'
p777
S'in'
p778
tp779
F0.0006289308176100629
s(S'[[adj]]'
p780
S'known'
p781
S'[[det]]'
p782
tp783
F0.0006289308176100629
s(S'was'
p784
S'founded'
p785
S'as'
p786
tp787
F0.0006289308176100629
s(g477
g478
S'system'
p788
tp789
F0.0006289308176100629
s(S'of'
p790
S'serve'
p791
S'[[det]]'
p792
tp793
F0.0006289308176100629
s(S'[[det]]'
p794
S'shopping'
p795
S'mall'
p796
tp797
F0.0012578616352201257
s(S'[[det]]'
p798
S'corner'
p799
S'[[con]]'
p800
tp801
F0.0006289308176100629
s(S'[[det]]'
p802
S'football'
p803
S'team'
p804
tp805
F0.0006289308176100629
s(S'[[prp]]'
p806
S'headquarters'
p807
S'to'
p808
tp809
F0.0018867924528301887
s(S'largest'
p810
S'stadium'
p811
S'in'
p812
tp813
F0.0006289308176100629
s(g679
g680
g732
tp814
F0.0012578616352201257
s(S'[[adj]]'
p815
S'park'
p816
S'located'
p817
tp818
F0.0006289308176100629
s(S'[[adj]]'
p819
S'broadcast'
p820
S'in'
p821
tp822
F0.0006289308176100629
s(S'be'
p823
S'played'
p824
S'on'
p825
tp826
F0.0006289308176100629
s(S'software'
p827
S'company'
p828
S'located'
p829
tp830
F0.0006289308176100629
s(S'[[adj]]'
p831
S'landmark'
p832
S'in'
p833
tp834
F0.0006289308176100629
s(g191
S'located'
p835
S'on'
p836
tp837
F0.0006289308176100629
s(g632
g633
S'town'
p838
tp839
F0.0006289308176100629
s(S'[[adj]]'
p840
S'building'
p841
S'[[con]]'
p842
tp843
F0.0006289308176100629
s(g383
g384
S'linked'
p844
tp845
F0.0006289308176100629
s(S'serving'
p846
S'[[det]]'
p847
S'town'
p848
tp849
F0.0037735849056603774
s(S'[[con]]'
p850
S'connects'
p851
S'[[det]]'
p852
tp853
F0.0006289308176100629
s(S'is'
p854
S'located'
p855
S'where'
p856
tp857
F0.0006289308176100629
s(S'was'
p858
S'founded'
p859
S'at'
p860
tp861
F0.0006289308176100629
s(S'largest'
p862
S'lake'
p863
S'in'
p864
tp865
F0.0012578616352201257
s(S'was'
p866
S'opened'
p867
S'[[con]]'
p868
tp869
F0.0012578616352201257
s(S'subway'
p870
S'station'
p871
S'in'
p872
tp873
F0.0006289308176100629
s(S'is'
p874
S'built'
p875
S'in'
p876
tp877
F0.0006289308176100629
s(S'has'
p878
S'members'
p879
S'in'
p880
tp881
F0.0006289308176100629
s(g554
S'served'
p882
S'[[det]]'
p883
tp884
F0.0006289308176100629
s(S'[[det]]'
p885
S'[[adj]]'
p886
S'village'
p887
tp888
F0.0006289308176100629
s(S'[[adj]]'
p889
g862
g863
tp890
F0.0006289308176100629
s(S'[[det]]'
p891
S'city'
p892
S'to'
p893
tp894
F0.0006289308176100629
s(S'[[det]]'
p895
S'suburb'
p896
S'in'
p897
tp898
F0.0006289308176100629
s(S'[[adj]]'
p899
S'station'
p900
S'serving'
p901
tp902
F0.0018867924528301887
s(S'were'
p903
S'held'
p904
S'[[det]]'
p905
tp906
F0.0006289308176100629
s(S'also'
p907
S'connects'
p908
S'to'
p909
tp910
F0.0006289308176100629
s(S'was'
p911
S'founded'
p912
S'under'
p913
tp914
F0.0006289308176100629
s(S'[[det]]'
p915
S'plant'
p916
S'in'
p917
tp918
F0.0006289308176100629
s(S'is'
p919
g265
g266
tp920
F0.0006289308176100629
s(S'airport'
p921
S'located'
p922
S'at'
p923
tp924
F0.0006289308176100629
s(g733
S'states'
p925
S'as'
p926
tp927
F0.0006289308176100629
s(S'school'
p928
S'[[det]]'
p929
S'located'
p930
tp931
F0.0006289308176100629
s(S'was'
p932
S'situated'
p933
S'at'
p934
tp935
F0.0006289308176100629
s(S'headquartered'
p936
S'[[con]]'
p937
S'[[adj]]'
p938
tp939
F0.0006289308176100629
s(S'[[adj]]'
p940
S'companies'
p941
S'[[adj]]'
p942
tp943
F0.0006289308176100629
s(S'became'
p944
S'[[adj]]'
p945
S'producer'
p946
tp947
F0.0006289308176100629
s(S'was'
p948
S'situated'
p949
S'from'
p950
tp951
F0.0006289308176100629
s(S'provides'
p952
S'service'
p953
S'to'
p954
tp955
F0.0006289308176100629
s(S'hotel'
p956
S'located'
p957
S'in'
p958
tp959
F0.0006289308176100629
s(S'grown'
p960
S'with'
p961
S'offices'
p962
tp963
F0.0006289308176100629
s(S'[[det]]'
p964
S'largest'
p965
S'shopping'
p966
tp967
F0.0006289308176100629
s(g721
g722
S'based'
p968
tp969
F0.0006289308176100629
s(S'passenger'
p970
S'railway'
p971
S'station'
p972
tp973
F0.0006289308176100629
s(S'largest'
p974
S'shopping'
p975
S'mall'
p976
tp977
F0.0012578616352201257
s(S'is'
p978
S'held'
p979
S'in'
p980
tp981
F0.0006289308176100629
s(S'located'
p982
g615
g616
tp983
F0.0025157232704402514
s(S'is'
p984
S'held'
p985
S'at'
p986
tp987
F0.0006289308176100629
s(S'[[adj]]'
p988
S'art'
p989
S'gallery'
p990
tp991
F0.0006289308176100629
s(S'[[det]]'
p992
S'tallest'
p993
S'[[adj]]'
p994
tp995
F0.0006289308176100629
s(g191
S'service'
p996
S'to'
p997
tp998
F0.0006289308176100629
s(S'[[det]]'
p999
S'located'
p1000
S'on'
p1001
tp1002
F0.0006289308176100629
s(S'is'
p1003
S'broadcast'
p1004
S'to'
p1005
tp1006
F0.0006289308176100629
s(S'[[det]]'
p1007
S'tennis'
p1008
S'tournament'
p1009
tp1010
F0.0037735849056603774
s(S'is'
p1011
S'held'
p1012
S'on'
p1013
tp1014
F0.0006289308176100629
s(S'[[det]]'
p1015
S'market'
p1016
S'leader'
p1017
tp1018
F0.0006289308176100629
s(S'had'
p1019
S'expanded'
p1020
S'to'
p1021
tp1022
F0.0006289308176100629
s(S'that'
p1023
S'served'
p1024
S'[[det]]'
p1025
tp1026
F0.0012578616352201257
s(S'took'
p1027
S'place'
p1028
S'[[det]]'
p1029
tp1030
F0.0006289308176100629
s(S'[[adj]]'
p1031
S'organization'
p1032
S'founded'
p1033
tp1034
F0.0006289308176100629
s(S'railway'
p1035
S'station'
p1036
g666
tp1037
F0.0025157232704402514
s(S'race'
p1038
S'held'
p1039
S'in'
p1040
tp1041
F0.0012578616352201257
s(S'[[det]]'
p1042
S'station'
p1043
S'located'
p1044
tp1045
F0.0018867924528301887
s(S'[[det]]'
p1046
S'hamlet'
p1047
S'of'
p1048
tp1049
F0.0006289308176100629
s(S'are'
p1050
S'held'
p1051
S'in'
p1052
tp1053
F0.0006289308176100629
s(S'[[adj]]'
p1054
S'churches'
p1055
S'of'
p1056
tp1057
F0.0006289308176100629
s(S'[[det]]'
p1058
S'organization'
p1059
S'based'
p1060
tp1061
F0.0006289308176100629
s(S'were'
p1062
S'played'
p1063
S'at'
p1064
tp1065
F0.0006289308176100629
s(S'headquartered'
p1066
g422
g423
tp1067
F0.0006289308176100629
s(S'operating'
p1068
S'[[prp]]'
p1069
S'daily'
p1070
tp1071
F0.0006289308176100629
s(g481
g482
S'of'
p1072
tp1073
F0.0006289308176100629
s(S'[[adj]]'
p1074
S'structure'
p1075
S'in'
p1076
tp1077
F0.0006289308176100629
s(S'company'
p1078
S'headquartered'
p1079
S'in'
p1080
tp1081
F0.0025157232704402514
s(S'[[adj]]'
p1082
S'branches'
p1083
S'in'
p1084
tp1085
F0.0006289308176100629
s(S'state'
p1086
S'park'
p1087
S'in'
p1088
tp1089
F0.0012578616352201257
s(g744
S'[[det]]'
p1090
S'town'
p1091
tp1092
F0.005660377358490566
s(S'[[adj]]'
p1093
S'skyscraper'
p1094
S'located'
p1095
tp1096
F0.0006289308176100629
s(S'has'
p1097
S'operated'
p1098
S'between'
p1099
tp1100
F0.0006289308176100629
s(S'[[adj]]'
p1101
S'largest'
p1102
S'[[adj]]'
p1103
tp1104
F0.0006289308176100629
s(S'[[det]]'
p1105
S'suburbs'
p1106
S'of'
p1107
tp1108
F0.0006289308176100629
s(S'[[num]]'
p1109
S'built'
p1110
S'in'
p1111
tp1112
F0.0006289308176100629
s(S'in'
p1113
g654
g655
tp1114
F0.0006289308176100629
s(S'serves'
p1115
S'[[det]]'
p1116
S'district'
p1117
tp1118
F0.0006289308176100629
s(S'show'
p1119
S'broadcast'
p1120
S'in'
p1121
tp1122
F0.0006289308176100629
s(S'train'
p1123
S'station'
p1124
S'located'
p1125
tp1126
F0.0018867924528301887
s(S'is'
p1127
S'situated'
p1128
S'at'
p1129
tp1130
F0.0006289308176100629
s(S'[[adj]]'
p1131
S'area'
p1132
S'[[adj]]'
p1133
tp1134
F0.0006289308176100629
s(S'station'
p1135
g1023
g1024
tp1136
F0.0012578616352201257
s(S'[[det]]'
p1137
S'village'
p1138
S'of'
p1139
tp1140
F0.012578616352201259
s(g788
g1068
g1069
tp1141
F0.0006289308176100629
s(S'had'
p1142
S'opened'
p1143
S'[[prp]]'
p1144
tp1145
F0.0006289308176100629
s(g1036
g666
g667
tp1146
F0.0012578616352201257
s(S'be'
p1147
S'located'
p1148
S'[[adj]]'
p1149
tp1150
F0.0006289308176100629
s(S'[[con]]'
p1151
S'headquartered'
p1152
S'in'
p1153
tp1154
F0.0018867924528301887
s(S'[[det]]'
p1155
S'suburb'
p1156
S'of'
p1157
tp1158
F0.0025157232704402514
s(S'[[det]]'
p1159
S'airport'
p1160
S'located'
p1161
tp1162
F0.0006289308176100629
s(g191
S'area'
p1163
S'of'
p1164
tp1165
F0.0006289308176100629
s(g509
g510
S'suburb'
p1166
tp1167
F0.0006289308176100629
s(S'[[det]]'
p1168
S'state'
p1169
S'park'
p1170
tp1171
F0.0018867924528301887
s(S'was'
p1172
S'opened'
p1173
S'in'
p1174
tp1175
F0.0006289308176100629
s(S'[[adj]]'
p1176
S'company'
p1177
S'in'
p1178
tp1179
F0.0012578616352201257
s(S'[[adj]]'
p1180
S'garden'
p1181
S'in'
p1182
tp1183
F0.0006289308176100629
s(S'[[adj]]'
p1184
S'companies'
p1185
S'in'
p1186
tp1187
F0.0006289308176100629
s(S'took'
p1188
S'place'
p1189
S'on'
p1190
tp1191
F0.0006289308176100629
s(S'currently'
p1192
S'operates'
p1193
S'in'
p1194
tp1195
F0.0006289308176100629
s(S'[[det]]'
p1196
S'museum'
p1197
S'[[det]]'
p1198
tp1199
F0.0006289308176100629
s(S'[[num]]'
p1200
S'held'
p1201
S'in'
p1202
tp1203
F0.0006289308176100629
s(S'[[adj]]'
p1204
S'service'
p1205
S'of'
p1206
tp1207
F0.0006289308176100629
s(g1094
g1095
S'in'
p1208
tp1209
F0.0012578616352201257
s(S'[[adj]]'
p1210
S'headquarters'
p1211
S'at'
p1212
tp1213
F0.0006289308176100629
s(S'[[adj]]'
p1214
S'museum'
p1215
S'of'
p1216
tp1217
F0.0006289308176100629
s(S'which'
p1218
S'serves'
p1219
S'[[det]]'
p1220
tp1221
F0.0012578616352201257
s(S'station'
p1222
S'serving'
p1223
S'in'
p1224
tp1225
F0.0012578616352201257
s(S'is'
p1226
S'primarily'
p1227
S'based'
p1228
tp1229
F0.0006289308176100629
s(S'[[num]]'
p1230
S'held'
p1231
S'at'
p1232
tp1233
F0.0006289308176100629
s(S'[[adj]]'
p1234
S'house'
p1235
S'of'
p1236
tp1237
F0.0006289308176100629
s(S'[[num]]'
p1238
S'schools'
p1239
S'in'
p1240
tp1241
F0.0006289308176100629
s(S'building'
p1242
S'in'
p1243
S'downtown'
p1244
tp1245
F0.0012578616352201257
s(S'[[det]]'
p1246
S'station'
p1247
S'near'
p1248
tp1249
F0.0006289308176100629
s(S'serves'
p1250
g891
g892
tp1251
F0.0012578616352201257
s(S'on'
p1252
S'[[adj]]'
p1253
S'corner'
p1254
tp1255
F0.0006289308176100629
s(S'[[adj]]'
p1256
S'courts'
p1257
S'in'
p1258
tp1259
F0.0006289308176100629
s(S'[[adj]]'
p1260
S'park'
p1261
S'in'
p1262
tp1263
F0.0012578616352201257
s(S'[[num]]'
p1264
S'airports'
p1265
S'in'
p1266
tp1267
F0.0006289308176100629
s(S'tallest'
p1268
S'building'
p1269
S'of'
p1270
tp1271
F0.0006289308176100629
s(S'was'
p1272
S'broadcast'
p1273
S'in'
p1274
tp1275
F0.0006289308176100629
s(S'currently'
p1276
S'headquartered'
p1277
S'in'
p1278
tp1279
F0.0012578616352201257
s(S'railway'
p1280
g183
g184
tp1281
F0.0006289308176100629
s(S'art'
p1282
S'gallery'
p1283
S'in'
p1284
tp1285
F0.0012578616352201257
s(g925
g926
S'portions'
p1286
tp1287
F0.0006289308176100629
s(S'[[det]]'
p1288
S'lake'
p1289
S'in'
p1290
tp1291
F0.0006289308176100629
s(g769
g770
S'by'
p1292
tp1293
F0.0012578616352201257
s(S'was'
p1294
S'located'
p1295
S'[[adj]]'
p1296
tp1297
F0.0006289308176100629
s(S'[[adj]]'
p1298
S'stadium'
p1299
S'in'
p1300
tp1301
F0.0006289308176100629
s(S'[[det]]'
p1302
S'trains'
p1303
S'between'
p1304
tp1305
F0.0006289308176100629
s(S'[[num]]'
p1306
S'stations'
p1307
S'[[con]]'
p1308
tp1309
F0.0006289308176100629
s(g671
g672
S'offices'
p1310
tp1311
F0.0012578616352201257
s(S'stations'
p1312
S'serving'
p1313
S'[[det]]'
p1314
tp1315
F0.0006289308176100629
s(S'was'
p1316
S'aired'
p1317
S'in'
p1318
tp1319
F0.0006289308176100629
s(S'of'
p1320
S'buildings'
p1321
S'in'
p1322
tp1323
F0.0006289308176100629
s(S'was'
p1324
S'played'
p1325
S'at'
p1326
tp1327
F0.0006289308176100629
s(S'was'
p1328
S'located'
p1329
S'to'
p1330
tp1331
F0.0006289308176100629
s(S'[[det]]'
p1332
S'landmark'
p1333
S'in'
p1334
tp1335
F0.0006289308176100629
s(g384
g844
S'to'
p1336
tp1337
F0.0006289308176100629
s(S'took'
p1338
S'place'
p1339
S'from'
p1340
tp1341
F0.0006289308176100629
s(S'is'
p1342
g764
g765
tp1343
F0.0006289308176100629
s(g124
g125
S'in'
p1344
tp1345
F0.0006289308176100629
s(S'in'
p1346
S'[[det]]'
p1347
S'neighborhood'
p1348
tp1349
F0.0012578616352201257
s(S'[[adj]]'
p1350
S'railway'
p1351
S'station'
p1352
tp1353
F0.009433962264150943
s(S'park'
p1354
S'located'
p1355
S'in'
p1356
tp1357
F0.0012578616352201257
s(S'shopping'
p1358
S'center'
p1359
S'in'
p1360
tp1361
F0.0012578616352201257
s(S'station'
p1362
S'on'
p1363
S'[[det]]'
p1364
tp1365
F0.00880503144654088
s(S'[[adj]]'
p1366
S'team'
p1367
S'based'
p1368
tp1369
F0.0006289308176100629
s(g457
g458
S'in'
p1370
tp1371
F0.0012578616352201257
s(S'[[adj]]'
p1372
S'stations'
p1373
S'[[con]]'
p1374
tp1375
F0.0006289308176100629
s(g306
g307
g600
tp1376
F0.0018867924528301887
s(g26
g27
S'in'
p1377
tp1378
F0.0018867924528301887
s(S'tournament'
p1379
S'played'
p1380
S'on'
p1381
tp1382
F0.0018867924528301887
s(S'label'
p1383
S'founded'
p1384
S'by'
p1385
tp1386
F0.0006289308176100629
s(g1219
g1220
S'village'
p1387
tp1388
F0.0018867924528301887
s(S'[[det]]'
p1389
g253
g254
tp1390
F0.0006289308176100629
s(S'was'
p1391
S'located'
p1392
S'on'
p1393
tp1394
F0.0012578616352201257
s(S'has'
p1395
S'headquarters'
p1396
S'in'
p1397
tp1398
F0.0006289308176100629
s(S'[[det]]'
p1399
g870
g871
tp1400
F0.0018867924528301887
s(S'[[con]]'
p1401
S'[[det]]'
p1402
S'state'
p1403
tp1404
F0.0006289308176100629
s(S'to'
p1405
S'serve'
p1406
S'[[det]]'
p1407
tp1408
F0.0006289308176100629
s(S'was'
p1409
S'established'
p1410
S'[[num]]'
p1411
tp1412
F0.0006289308176100629
s(S'moved'
p1413
S'[[prp]]'
p1414
S'headquarters'
p1415
tp1416
F0.0025157232704402514
s(S'[[det]]'
p1417
g1282
g1283
tp1418
F0.0006289308176100629
s(g510
g1166
S'of'
p1419
tp1420
F0.0012578616352201257
s(g1008
g1009
S'played'
p1421
tp1422
F0.0037735849056603774
s(S'has'
p1423
S'branches'
p1424
S'[[con]]'
p1425
tp1426
F0.0006289308176100629
s(S'founded'
p1427
S'[[con]]'
p1428
S'was'
p1429
tp1430
F0.0006289308176100629
s(S'with'
p1431
S'headquarters'
p1432
S'in'
p1433
tp1434
F0.0006289308176100629
s(S'[[adj]]'
p1435
S'busiest'
p1436
S'airport'
p1437
tp1438
F0.0006289308176100629
s(S'that'
p1439
S'runs'
p1440
S'to'
p1441
tp1442
F0.0006289308176100629
s(S'by'
p1443
S'companies'
p1444
S'[[adj]]'
p1445
tp1446
F0.0006289308176100629
s(S'had'
p1447
S'branches'
p1448
S'in'
p1449
tp1450
F0.0006289308176100629
s(g533
g534
g1007
tp1451
F0.0006289308176100629
s(S'been'
p1452
S'built'
p1453
S'in'
p1454
tp1455
F0.0006289308176100629
s(S'is'
p1456
S'located'
p1457
S'between'
p1458
tp1459
F0.0006289308176100629
s(S'headquartered'
p1460
S'with'
p1461
S'[[adj]]'
p1462
tp1463
F0.0006289308176100629
s(S'[[det]]'
p1464
S'largest'
p1465
S'in'
p1466
tp1467
F0.0006289308176100629
s(S'station'
p1468
g85
g86
tp1469
F0.0006289308176100629
s(S'[[det]]'
p1470
S'states'
p1471
S'of'
p1472
tp1473
F0.0006289308176100629
s(g185
S'operated'
p1474
S'by'
p1475
tp1476
F0.0006289308176100629
s(g633
g838
S'of'
p1477
tp1478
F0.0012578616352201257
s(S'[[adj]]'
p1479
S'station'
p1480
S'of'
p1481
tp1482
F0.0006289308176100629
s(S'[[adj]]'
p1483
S'station'
p1484
S'located'
p1485
tp1486
F0.0006289308176100629
s(S'[[adj]]'
p1487
S'office'
p1488
S'at'
p1489
tp1490
F0.0006289308176100629
s(S'[[adj]]'
p1491
S'film'
p1492
g642
tp1493
F0.0006289308176100629
s(S'railway'
p1494
S'station'
p1495
g1218
tp1496
F0.0012578616352201257
s(S'had'
p1497
S'offices'
p1498
S'in'
p1499
tp1500
F0.0006289308176100629
s(S'also'
p1501
S'located'
p1502
S'in'
p1503
tp1504
F0.0006289308176100629
s(S'[[adj]]'
p1505
S'office'
p1506
S'in'
p1507
tp1508
F0.0006289308176100629
s(S'is'
p1509
S'located'
p1510
S'in'
p1511
tp1512
F0.006918238993710692
s(S'[[adj]]'
p1513
S'operations'
p1514
S'in'
p1515
tp1516
F0.0006289308176100629
s(S'is'
p1517
S'founded'
p1518
S'in'
p1519
tp1520
F0.0006289308176100629
s(S'[[adj]]'
p1521
S'video'
p1522
S'game'
p1523
tp1524
F0.0012578616352201257
s(S'with'
p1525
S'offices'
p1526
S'in'
p1527
tp1528
F0.0018867924528301887
s(S'[[det]]'
p1529
S'museum'
p1530
S'of'
p1531
tp1532
F0.0006289308176100629
s(S'is'
p1533
S'located'
p1534
S'along'
p1535
tp1536
F0.0006289308176100629
s(S'is'
p1537
S'located'
p1538
S'at'
p1539
tp1540
F0.0018867924528301887
s(g191
S'presence'
p1541
S'in'
p1542
tp1543
F0.0006289308176100629
s(S'[[adj]]'
p1544
g810
g811
tp1545
F0.0006289308176100629
s(S'serves'
p1546
S'[[det]]'
p1547
S'town'
p1548
tp1549
F0.0025157232704402514
s(S'village'
p1550
S'[[con]]'
p1551
S'[[adj]]'
p1552
tp1553
F0.0006289308176100629
s(g181
g313
S'villages'
p1554
tp1555
F0.0037735849056603774
s(S'[[adj]]'
p1556
S'football'
p1557
S'team'
p1558
tp1559
F0.0006289308176100629
s(S'[[con]]'
p1560
S'now'
p1561
S'based'
p1562
tp1563
F0.0006289308176100629
s(S'[[con]]'
p1564
S'is'
p1565
S'based'
p1566
tp1567
F0.0006289308176100629
s(g757
g758
S'was'
p1568
tp1569
F0.0006289308176100629
s(S'was'
p1570
S'built'
p1571
S'in'
p1572
tp1573
F0.0006289308176100629
s(S'[[adj]]'
p1574
g1362
g1363
tp1575
F0.0012578616352201257
s(S'[[num]]'
p1576
S'established'
p1577
S'in'
p1578
tp1579
F0.0006289308176100629
s(g191
S'located'
p1580
S'in'
p1581
tp1582
F0.0006289308176100629
s(S'[[adj]]'
p1583
S'operating'
p1584
S'in'
p1585
tp1586
F0.0006289308176100629
s(S'on'
p1587
S'[[det]]'
p1588
S'corner'
p1589
tp1590
F0.0012578616352201257
s(S'opened'
p1591
S'[[con]]'
p1592
g650
tp1593
F0.0025157232704402514
s(S'[[adj]]'
p1594
S'organization'
p1595
S'based'
p1596
tp1597
F0.0012578616352201257
s(S'has'
p1598
S'expanded'
p1599
S'into'
p1600
tp1601
F0.0006289308176100629
s(S'tallest'
p1602
S'tower'
p1603
S'in'
p1604
tp1605
F0.0006289308176100629
s(S'football'
p1606
S'stadium'
p1607
S'in'
p1608
tp1609
F0.0006289308176100629
s(S'train'
p1610
S'station'
p1611
S'on'
p1612
tp1613
F0.0037735849056603774
s(S'[[adj]]'
p1614
S'school'
p1615
S'in'
p1616
tp1617
F0.0012578616352201257
s(g758
g1568
S'opened'
p1618
tp1619
F0.0012578616352201257
s(S'be'
p1620
S'held'
p1621
S'at'
p1622
tp1623
F0.0006289308176100629
s(S'is'
p1624
S'formed'
p1625
S'out'
p1626
tp1627
F0.0006289308176100629
s(S'had'
p1628
S'operated'
p1629
S'from'
p1630
tp1631
F0.0006289308176100629
s(S'relocated'
p1632
S'[[prp]]'
p1633
S'[[adj]]'
p1634
tp1635
F0.0006289308176100629
s(g191
S'plant'
p1636
S'in'
p1637
tp1638
F0.0006289308176100629
s(S'has'
p1639
S'established'
p1640
S'[[det]]'
p1641
tp1642
F0.0006289308176100629
s(S'school'
p1643
S'located'
p1644
S'in'
p1645
tp1646
F0.0018867924528301887
s(S'on'
p1647
S'[[det]]'
p1648
S'city'
p1649
tp1650
F0.0012578616352201257
s(S'school'
p1651
S'located'
p1652
S'near'
p1653
tp1654
F0.0006289308176100629
s(S'[[adj]]'
p1655
S'tallest'
p1656
S'building'
p1657
tp1658
F0.0025157232704402514
s(g722
g968
S'in'
p1659
tp1660
F0.0006289308176100629
s(S'[[adj]]'
p1661
S'palace'
p1662
S'in'
p1663
tp1664
F0.0006289308176100629
s(S'style'
p1665
g398
g399
tp1666
F0.0006289308176100629
s(S'be'
p1667
S'established'
p1668
S'in'
p1669
tp1670
F0.0006289308176100629
s(S'are'
p1671
S'based'
p1672
S'in'
p1673
tp1674
F0.0006289308176100629
s(S'largest'
p1675
S'company'
p1676
S'in'
p1677
tp1678
F0.0012578616352201257
s(S'[[det]]'
p1679
g1354
g1355
tp1680
F0.0006289308176100629
s(S'[[det]]'
p1681
S'largest'
p1682
S'park'
p1683
tp1684
F0.0006289308176100629
s(S'operates'
p1685
g273
g274
tp1686
F0.0006289308176100629
s(g478
g788
g1068
tp1687
F0.0006289308176100629
s(S'[[det]]'
p1688
S'skyscraper'
p1689
S'located'
p1690
tp1691
F0.0006289308176100629
s(S'[[adj]]'
p1692
S'airports'
p1693
S'in'
p1694
tp1695
F0.0006289308176100629
s(S'currently'
p1696
S'operates'
p1697
S'out'
p1698
tp1699
F0.0006289308176100629
s(S'[[con]]'
p1700
S'offices'
p1701
S'in'
p1702
tp1703
F0.0006289308176100629
s(S'formerly'
p1704
S'located'
p1705
S'in'
p1706
tp1707
F0.0006289308176100629
s(g462
S'north'
p1708
S'of'
p1709
tp1710
F0.0006289308176100629
s(S'[[det]]'
p1711
g1606
g1607
tp1712
F0.0012578616352201257
s(S'[[adj]]'
p1713
S'stations'
p1714
S'of'
p1715
tp1716
F0.0006289308176100629
s(S'town'
p1717
S'of'
p1718
S'south'
p1719
tp1720
F0.0006289308176100629
s(S'was'
p1721
S'founded'
p1722
S'to'
p1723
tp1724
F0.0006289308176100629
s(S'in'
p1725
S'[[adj]]'
p1726
S'town'
p1727
tp1728
F0.0006289308176100629
s(S'[[prp]]'
p1729
S'plant'
p1730
S'in'
p1731
tp1732
F0.0006289308176100629
s(S'is'
p1733
S'situated'
p1734
S'to'
p1735
tp1736
F0.0006289308176100629
s(S'has'
p1737
S'branches'
p1738
S'in'
p1739
tp1740
F0.0006289308176100629
s(S'[[adj]]'
p1741
S'largest'
p1742
S'in'
p1743
tp1744
F0.0006289308176100629
s(g577
g578
S'publisher'
p1745
tp1746
F0.0012578616352201257
s(g120
g121
S'[[det]]'
p1747
tp1748
F0.011949685534591196
s(g1461
g1462
S'offices'
p1749
tp1750
F0.0006289308176100629
s(S'[[det]]'
p1751
S'building'
p1752
S'on'
p1753
tp1754
F0.0006289308176100629
s(S'took'
p1755
S'place'
p1756
S'[[num]]'
p1757
tp1758
F0.0006289308176100629
s(g191
S'head'
p1759
S'office'
p1760
tp1761
F0.0006289308176100629
s(S'on'
p1762
S'in'
p1763
S'downtown'
p1764
tp1765
F0.0006289308176100629
s(S'now'
p1766
S'located'
p1767
S'at'
p1768
tp1769
F0.0006289308176100629
s(S'[[adj]]'
p1770
S'road'
p1771
S'bicycle'
p1772
tp1773
F0.0012578616352201257
s(S'is'
p1774
S'located'
p1775
S'[[det]]'
p1776
tp1777
F0.0006289308176100629
s(S'[[det]]'
p1778
S'largest'
p1779
S'[[con]]'
p1780
tp1781
F0.0006289308176100629
s(S'railway'
p1782
S'station'
p1783
S'to'
p1784
tp1785
F0.0006289308176100629
s(S'[[det]]'
p1786
S'commune'
p1787
S'of'
p1788
tp1789
F0.0006289308176100629
s(S'[[det]]'
p1790
S'[[adj]]'
p1791
g678
tp1792
F0.0012578616352201257
s(S'tallest'
p1793
S'skyscraper'
p1794
S'in'
p1795
tp1796
F0.0012578616352201257
s(S'been'
p1797
S'broadcast'
p1798
S'in'
p1799
tp1800
F0.0006289308176100629
s(S'[[det]]'
p1801
S'neighborhood'
p1802
S'in'
p1803
tp1804
F0.0006289308176100629
s(S'[[det]]'
p1805
S'train'
p1806
S'station'
p1807
tp1808
F0.010062893081761006
s(S'had'
p1809
S'added'
p1810
g1790
tp1811
F0.0012578616352201257
s(S'is'
p1812
S'situated'
p1813
S'[[adj]]'
p1814
tp1815
F0.0006289308176100629
s(S'[[num]]'
p1816
S'manufacturing'
p1817
S'facilities'
p1818
tp1819
F0.0006289308176100629
s(S'was'
p1820
S'situated'
p1821
S'between'
p1822
tp1823
F0.0006289308176100629
s(S'[[prp]]'
p1824
S'headquarters'
p1825
S'at'
p1826
tp1827
F0.0006289308176100629
s(S'were'
p1828
S'built'
p1829
S'by'
p1830
tp1831
F0.0006289308176100629
s(S'is'
p1832
S'located'
p1833
S'[[con]]'
p1834
tp1835
F0.0012578616352201257
s(S'were'
p1836
S'based'
p1837
S'in'
p1838
tp1839
F0.0006289308176100629
s(S'in'
p1840
S'[[det]]'
p1841
S'direction'
p1842
tp1843
F0.0006289308176100629
s(S'largest'
p1844
g319
g320
tp1845
F0.0006289308176100629
s(S'[[det]]'
p1846
S'longest'
p1847
S'in'
p1848
tp1849
F0.0006289308176100629
s(S'railway'
p1850
S'line'
p1851
g1439
tp1852
F0.0006289308176100629
s(S'basketball'
p1853
S'team'
p1854
S'based'
p1855
tp1856
F0.0012578616352201257
s(S'be'
p1857
S'located'
p1858
S'on'
p1859
tp1860
F0.0006289308176100629
s(g616
g617
S'line'
p1861
tp1862
F0.0012578616352201257
s(S'[[det]]'
p1863
S'area'
p1864
S'in'
p1865
tp1866
F0.0006289308176100629
s(S'station'
p1867
g187
g188
tp1868
F0.0006289308176100629
s(S'[[num]]'
p1869
S'branches'
p1870
S'in'
p1871
tp1872
F0.0006289308176100629
s(g1547
g1548
S'of'
p1873
tp1874
F0.01509433962264151
s(S'[[adj]]'
p1875
S'located'
p1876
S'on'
p1877
tp1878
F0.0006289308176100629
s(S'were'
p1879
S'held'
p1880
S'[[num]]'
p1881
tp1882
F0.0006289308176100629
s(S'[[adj]]'
p1883
S'located'
p1884
S'at'
p1885
tp1886
F0.0006289308176100629
s(g1380
g1381
g1256
tp1887
F0.0012578616352201257
s(S'[[adj]]'
p1888
S'factories'
p1889
S'in'
p1890
tp1891
F0.0006289308176100629
s(g781
g782
S'frontier'
p1892
tp1893
F0.0006289308176100629
s(S'[[det]]'
p1894
g233
g234
tp1895
F0.0006289308176100629
s(S'[[adj]]'
p1896
S'service'
p1897
S'from'
p1898
tp1899
F0.0006289308176100629
s(S'[[adj]]'
p1900
S'schools'
p1901
S'in'
p1902
tp1903
F0.0006289308176100629
s(S'station'
p1904
S'operated'
p1905
S'in'
p1906
tp1907
F0.0012578616352201257
s(S'been'
p1908
S'founded'
p1909
S'in'
p1910
tp1911
F0.0006289308176100629
s(g1043
g1044
S'near'
p1912
tp1913
F0.0006289308176100629
s(S'[[num]]'
p1914
S'stores'
p1915
S'[[con]]'
p1916
tp1917
F0.0012578616352201257
s(S'is'
p1918
S'located'
p1919
S'from'
p1920
tp1921
F0.0006289308176100629
s(S'mall'
p1922
S'located'
p1923
S'in'
p1924
tp1925
F0.0012578616352201257
s(S'moved'
p1926
S'[[prp]]'
p1927
S'offices'
p1928
tp1929
F0.0012578616352201257
s(g203
S'operated'
p1930
S'in'
p1931
tp1932
F0.0006289308176100629
s(S'manufacturing'
p1933
S'facilities'
p1934
S'for'
p1935
tp1936
F0.0006289308176100629
s(S'was'
p1937
S'opened'
p1938
S'between'
p1939
tp1940
F0.0006289308176100629
s(g770
g1292
S'located'
p1941
tp1942
F0.0018867924528301887
s(S'is'
p1943
S'located'
p1944
S'by'
p1945
tp1946
F0.0006289308176100629
s(S'[[adj]]'
p1947
S'train'
p1948
S'station'
p1949
tp1950
F0.0006289308176100629
s(S'railway'
p1951
g119
g120
tp1952
F0.0025157232704402514
s(S'video'
p1953
S'game'
p1954
S'developer'
p1955
tp1956
F0.0025157232704402514
s(g218
g219
S'between'
p1957
tp1958
F0.0006289308176100629
s(S'is'
p1959
S'based'
p1960
S'in'
p1961
tp1962
F0.0018867924528301887
s(S'is'
p1963
S'located'
p1964
S'as'
p1965
tp1966
F0.0006289308176100629
s(S'serving'
p1967
S'[[det]]'
p1968
S'area'
p1969
tp1970
F0.0012578616352201257
s(S'[[adj]]'
p1971
g492
g493
tp1972
F0.0012578616352201257
s(g994
S'building'
p1973
S'in'
p1974
tp1975
F0.0018867924528301887
s(S'[[adj]]'
p1976
S'house'
p1977
S'in'
p1978
tp1979
F0.0006289308176100629
s(S'number'
p1980
S'[[det]]'
p1981
S'rest'
p1982
tp1983
F0.0006289308176100629
s(S'[[adj]]'
p1984
S'shopping'
p1985
S'center'
p1986
tp1987
F0.0018867924528301887
s(S'[[adj]]'
p1988
S'brand'
p1989
S'in'
p1990
tp1991
F0.0006289308176100629
s(S'[[det]]'
p1992
g331
g332
tp1993
F0.0006289308176100629
s(S'[[adj]]'
p1994
S'building'
p1995
S'at'
p1996
tp1997
F0.0006289308176100629
s(S'[[adj]]'
p1998
S'headquarters'
p1999
S'from'
p2000
tp2001
F0.0018867924528301887
s(S'station'
p2002
g135
g136
tp2003
F0.0012578616352201257
s(S'under'
p2004
S'construction'
p2005
S'in'
p2006
tp2007
F0.0006289308176100629
s(g553
g554
g882
tp2008
F0.0012578616352201257
s(S'[[adj]]'
p2009
S'building'
p2010
S'on'
p2011
tp2012
F0.0006289308176100629
s(S'serving'
p2013
g1155
g1156
tp2014
F0.0012578616352201257
s(S'is'
p2015
S'located'
p2016
S'near'
p2017
tp2018
F0.0006289308176100629
s(S'[[det]]'
p2019
S'tower'
p2020
S'in'
p2021
tp2022
F0.0006289308176100629
s(S'largest'
p2023
S'[[det]]'
p2024
g167
tp2025
F0.0006289308176100629
s(S'serves'
p2026
S'[[det]]'
p2027
S'area'
p2028
tp2029
F0.0012578616352201257
s(g1406
g1407
S'village'
p2030
tp2031
F0.0006289308176100629
s(g461
g462
g1708
tp2032
F0.0006289308176100629
s(g1954
g1955
S'based'
p2033
tp2034
F0.0012578616352201257
s(S'on'
p2035
S'[[adj]]'
p2036
S'suburb'
p2037
tp2038
F0.0006289308176100629
s(S'[[det]]'
p2039
S'station'
p2040
S'along'
p2041
tp2042
F0.0006289308176100629
s(S'located'
p2043
g1762
g1763
tp2044
F0.0006289308176100629
s(g1032
g1033
S'in'
p2045
tp2046
F0.0006289308176100629
s(S'[[det]]'
p2047
g115
g116
tp2048
F0.0006289308176100629
s(S'has'
p2049
g960
g961
tp2050
F0.0006289308176100629
s(g1759
g1760
S'in'
p2051
tp2052
F0.0012578616352201257
s(S'was'
p2053
S'founded'
p2054
S'[[det]]'
p2055
tp2056
F0.0006289308176100629
s(S'been'
p2057
S'established'
p2058
S'in'
p2059
tp2060
F0.0006289308176100629
s(S'at'
p2061
S'[[det]]'
p2062
S'corner'
p2063
tp2064
F0.0018867924528301887
s(S'played'
p2065
S'on'
p2066
S'courts'
p2067
tp2068
F0.0006289308176100629
s(S'[[det]]'
p2069
S'operated'
p2070
S'in'
p2071
tp2072
F0.0012578616352201257
s(S'[[det]]'
p2073
S'museum'
p2074
S'in'
p2075
tp2076
F0.0006289308176100629
s(S'founded'
p2077
S'[[con]]'
p2078
S'headquartered'
p2079
tp2080
F0.0006289308176100629
s(S'[[prp]]'
p2081
S'offices'
p2082
S'to'
p2083
tp2084
F0.0006289308176100629
s(S'was'
p2085
S'founded'
p2086
S'for'
p2087
tp2088
F0.0006289308176100629
s(S'is'
p2089
S'formed'
p2090
S'in'
p2091
tp2092
F0.0006289308176100629
s(S'has'
p2093
S'expanded'
p2094
S'to'
p2095
tp2096
F0.0006289308176100629
s(g1160
g1161
S'in'
p2097
tp2098
F0.0012578616352201257
s(S'[[det]]'
p2099
S'team'
p2100
S'based'
p2101
tp2102
F0.0012578616352201257
s(S'[[adj]]'
p2103
S'state'
p2104
S'park'
p2105
tp2106
F0.0006289308176100629
s(S'are'
p2107
S'known'
p2108
S'as'
p2109
tp2110
F0.0006289308176100629
s(S'station'
p2111
S'located'
p2112
S'at'
p2113
tp2114
F0.0012578616352201257
s(S'city'
p2115
g1401
g1402
tp2116
F0.0006289308176100629
s(S'[[adj]]'
p2117
S'school'
p2118
S'near'
p2119
tp2120
F0.0006289308176100629
s(S'[[adj]]'
p2121
S'company'
p2122
S'based'
p2123
tp2124
F0.0006289308176100629
s(S'also'
p2125
S'operates'
p2126
S'from'
p2127
tp2128
F0.0006289308176100629
s(S'was'
p2129
S'located'
p2130
S'off'
p2131
tp2132
F0.0006289308176100629
s(g191
S'service'
p2133
S'between'
p2134
tp2135
F0.0006289308176100629
s(S'[[adj]]'
p2136
g1675
g1676
tp2137
F0.0006289308176100629
s(S'[[num]]'
p2138
S'located'
p2139
S'in'
p2140
tp2141
F0.0006289308176100629
s(S'[[det]]'
p2142
S'situated'
p2143
S'in'
p2144
tp2145
F0.0006289308176100629
s(S'was'
p2146
S'incorporated'
p2147
S'in'
p2148
tp2149
F0.0006289308176100629
s(S'railway'
p2150
g508
g509
tp2151
F0.0006289308176100629
s(g791
g792
S'tracks'
p2152
tp2153
F0.0006289308176100629
s(S'founded'
p2154
S'[[con]]'
p2155
S'is'
p2156
tp2157
F0.0012578616352201257
s(S'is'
p2158
S'played'
p2159
S'at'
p2160
tp2161
F0.0006289308176100629
s(S'[[adj]]'
p2162
g2023
g2024
tp2163
F0.0006289308176100629
s(S'has'
p2164
S'offices'
p2165
S'[[det]]'
p2166
tp2167
F0.0006289308176100629
s(S'largest'
p2168
S'bank'
p2169
S'in'
p2170
tp2171
F0.0012578616352201257
s(S'[[det]]'
p2172
S'town'
p2173
S'in'
p2174
tp2175
F0.0006289308176100629
s(S'[[adj]]'
p2176
S'locations'
p2177
S'in'
p2178
tp2179
F0.0006289308176100629
s(S'is'
p2180
S'broadcast'
p2181
S'by'
p2182
tp2183
F0.0006289308176100629
s(S'[[det]]'
p2184
S'skyscraper'
p2185
S'in'
p2186
tp2187
F0.0006289308176100629
s(S'[[adj]]'
p2188
g1853
g1854
tp2189
F0.0006289308176100629
s(g1428
g1429
S'based'
p2190
tp2191
F0.0006289308176100629
s(S'was'
p2192
S'held'
p2193
S'in'
p2194
tp2195
F0.0006289308176100629
s(S'[[adj]]'
p2196
S'hotel'
p2197
S'in'
p2198
tp2199
F0.0006289308176100629
s(S'currently'
p2200
g418
g419
tp2201
F0.0006289308176100629
s(S'station'
p2202
S'is'
p2203
g982
tp2204
F0.0006289308176100629
s(S'was'
p2205
S'established'
p2206
S'[[con]]'
p2207
tp2208
F0.0006289308176100629
s(S'[[det]]'
p2209
S'brand'
p2210
S'in'
p2211
tp2212
F0.0006289308176100629
s(g882
g883
S'village'
p2213
tp2214
F0.0031446540880503146
s(S'[[det]]'
p2215
S'station'
p2216
S'of'
p2217
tp2218
F0.0006289308176100629
s(S'is'
p2219
S'known'
p2220
S'from'
p2221
tp2222
F0.0006289308176100629
s(g655
g656
S'line'
p2223
tp2224
F0.0006289308176100629
s(S'had'
p2225
S'formed'
p2226
S'in'
p2227
tp2228
F0.0006289308176100629
s(g993
g994
g1973
tp2229
F0.0006289308176100629
s(S'be'
p2230
S'based'
p2231
S'in'
p2232
tp2233
F0.0006289308176100629
s(S'formerly'
p2234
S'served'
p2235
S'[[det]]'
p2236
tp2237
F0.0006289308176100629
s(S'[[adj]]'
p2238
S'stadium'
p2239
S'of'
p2240
tp2241
F0.0006289308176100629
s(S'[[prp]]'
p2242
S'headquarters'
p2243
S'[[con]]'
p2244
tp2245
F0.0006289308176100629
s(S'[[adj]]'
p2246
S'railway'
p2247
S'in'
p2248
tp2249
F0.0006289308176100629
s(S'race'
p2250
S'held'
p2251
S'annually'
p2252
tp2253
F0.0006289308176100629
s(S'station'
p2254
g1113
g654
tp2255
F0.0006289308176100629
s(g1561
g1562
S'in'
p2256
tp2257
F0.0006289308176100629
s(g234
g235
S'in'
p2258
tp2259
F0.0012578616352201257
s(g1791
g678
g679
tp2260
F0.0012578616352201257
s(S'been'
p2261
S'located'
p2262
S'in'
p2263
tp2264
F0.0006289308176100629
s(S'[[det]]'
p2265
g402
g403
tp2266
F0.0006289308176100629
s(S'[[det]]'
p2267
S'airport'
p2268
S'in'
p2269
tp2270
F0.0006289308176100629
s(S'owns'
p2271
g21
g22
tp2272
F0.0006289308176100629
s(S'[[adj]]'
p2273
S'arena'
p2274
S'in'
p2275
tp2276
F0.0006289308176100629
s(S'in'
p2277
S'[[det]]'
p2278
S'state'
p2279
tp2280
F0.0012578616352201257
s(S'is'
p2281
S'played'
p2282
S'in'
p2283
tp2284
F0.0006289308176100629
s(S'was'
p2285
S'located'
p2286
S'just'
p2287
tp2288
F0.0006289308176100629
s(S'[[det]]'
p2289
S'station'
p2290
S'on'
p2291
tp2292
F0.0018867924528301887
s(S'in'
p2293
S'[[det]]'
p2294
S'district'
p2295
tp2296
F0.0018867924528301887
s(S'to'
p2297
S'expand'
p2298
S'into'
p2299
tp2300
F0.0006289308176100629
s(S'[[det]]'
p2301
S'built'
p2302
S'by'
p2303
tp2304
F0.0006289308176100629
s(S'[[det]]'
p2305
S'located'
p2306
S'at'
p2307
tp2308
F0.0006289308176100629
s(g1772
g1038
g1039
tp2309
F0.0012578616352201257
s(S'[[det]]'
p2310
S'school'
p2311
S'located'
p2312
tp2313
F0.0012578616352201257
s(S'railway'
p2314
S'station'
p2315
S'at'
p2316
tp2317
F0.0006289308176100629
s(S'[[con]]'
p2318
S'[[adj]]'
p2319
S'offices'
p2320
tp2321
F0.0018867924528301887
s(S'train'
p2322
S'station'
p2323
S'in'
p2324
tp2325
F0.0025157232704402514
s(g1588
g1589
S'of'
p2326
tp2327
F0.0025157232704402514
s(S'record'
p2328
g698
g699
tp2329
F0.0006289308176100629
s(g1568
g1618
S'by'
p2330
tp2331
F0.0012578616352201257
s(S'railway'
p2332
S'station'
p2333
S'in'
p2334
tp2335
F0.0037735849056603774
s(S'is'
p2336
S'located'
p2337
S'across'
p2338
tp2339
F0.0006289308176100629
s(S'name'
p2340
S'located'
p2341
S'in'
p2342
tp2343
F0.0006289308176100629
s(g1351
g1352
S'serving'
p2344
tp2345
F0.013836477987421384
s(S'stores'
p2346
S'[[con]]'
p2347
S'operates'
p2348
tp2349
F0.0006289308176100629
s(g191
S'headquarters'
p2350
S'in'
p2351
tp2352
F0.0006289308176100629
s(g732
g733
g925
tp2353
F0.0012578616352201257
s(g1069
g1070
g1840
tp2354
F0.0006289308176100629
s(g191
S'headquarters'
p2355
S'at'
p2356
tp2357
F0.0006289308176100629
s(S'railway'
p2358
S'station'
p2359
S'on'
p2360
tp2361
F0.005660377358490566
s(S'were'
p2362
S'held'
p2363
S'[[con]]'
p2364
tp2365
F0.0006289308176100629
s(S'[[adj]]'
p2366
g921
g922
tp2367
F0.0018867924528301887
s(S'was'
p2368
S'established'
p2369
S'on'
p2370
tp2371
F0.0006289308176100629
s(S'consists'
p2372
g790
g791
tp2373
F0.0006289308176100629
s(S'[[det]]'
p2374
g2115
g1401
tp2375
F0.0006289308176100629
s(S'was'
p2376
S'held'
p2377
S'[[num]]'
p2378
tp2379
F0.0006289308176100629
s(S'is'
p2380
S'based'
p2381
S'out'
p2382
tp2383
F0.0006289308176100629
s(g1492
g642
g643
tp2384
F0.0006289308176100629
s(S'was'
p2385
S'built'
p2386
S'at'
p2387
tp2388
F0.0006289308176100629
s(S'[[prp]]'
p2389
S'headquarters'
p2390
S'from'
p2391
tp2392
F0.0018867924528301887
s(S'[[num]]'
p2393
S'members'
p2394
S'[[con]]'
p2395
tp2396
F0.0006289308176100629
s(g2360
g742
g743
tp2397
F0.00440251572327044
s(S'that'
p2398
S'connects'
p2399
S'to'
p2400
tp2401
F0.0006289308176100629
s(g2278
g2279
S'of'
p2402
tp2403
F0.0018867924528301887
s(S'also'
p2404
S'known'
p2405
S'is'
p2406
tp2407
F0.0006289308176100629
s(S'is'
p2408
S'situated'
p2409
S'on'
p2410
tp2411
F0.0006289308176100629
s(S'[[det]]'
p2412
g970
g971
tp2413
F0.0006289308176100629
s(S'[[num]]'
p2414
S'operating'
p2415
S'in'
p2416
tp2417
F0.0006289308176100629
s(S'currently'
p2418
S'held'
p2419
S'at'
p2420
tp2421
F0.0006289308176100629
s(g90
g91
S'headquartered'
p2422
tp2423
F0.0006289308176100629
s(S'near'
p2424
S'[[det]]'
p2425
S'town'
p2426
tp2427
F0.0006289308176100629
s(S'[[det]]'
p2428
S'manufacturing'
p2429
S'company'
p2430
tp2431
F0.0006289308176100629
s(S'been'
p2432
S'located'
p2433
S'on'
p2434
tp2435
F0.0006289308176100629
s(g1495
g1218
g1219
tp2436
F0.0012578616352201257
s(S'railway'
p2437
g1468
g85
tp2438
F0.0006289308176100629
s(g1223
g1224
g1786
tp2439
F0.0012578616352201257
s(S'founded'
p2440
g1560
g1561
tp2441
F0.0006289308176100629
s(S'[[con]]'
p2442
g1546
g1547
tp2443
F0.0012578616352201257
s(S'[[con]]'
p2444
S'located'
p2445
S'in'
p2446
tp2447
F0.0012578616352201257
s(g945
g946
S'with'
p2448
tp2449
F0.0006289308176100629
s(S'[[num]]'
p2450
S'churches'
p2451
S'in'
p2452
tp2453
F0.0006289308176100629
s(S'[[adj]]'
p2454
S'held'
p2455
S'at'
p2456
tp2457
F0.0006289308176100629
s(S'was'
p2458
S'established'
p2459
S'in'
p2460
tp2461
F0.0006289308176100629
s(g2333
g2334
S'[[det]]'
p2462
tp2463
F0.005031446540880503
s(S'team'
p2464
S'based'
p2465
S'out'
p2466
tp2467
F0.0006289308176100629
s(g1347
g1348
S'of'
p2468
tp2469
F0.0018867924528301887
s(g210
g211
S'of'
p2470
tp2471
F0.010691823899371069
s(g1292
g1941
S'in'
p2472
tp2473
F0.0018867924528301887
s(S'[[adj]]'
p2474
S'held'
p2475
S'in'
p2476
tp2477
F0.0006289308176100629
s(S'headquartered'
p2478
S'with'
p2479
S'offices'
p2480
tp2481
F0.0006289308176100629
s(S'been'
p2482
S'broadcast'
p2483
S'on'
p2484
tp2485
F0.0006289308176100629
s(S'was'
p2486
S'situated'
p2487
S'in'
p2488
tp2489
F0.0006289308176100629
s(S'also'
p2490
S'held'
p2491
S'in'
p2492
tp2493
F0.0006289308176100629
s(g2066
g2067
S'in'
p2494
tp2495
F0.0006289308176100629
s(S'railway'
p2496
g2202
g2203
tp2497
F0.0012578616352201257
s(S'is'
p2498
S'situated'
p2499
S'near'
p2500
tp2501
F0.0006289308176100629
s(S'[[adj]]'
p2502
S'line'
p2503
S'in'
p2504
tp2505
F0.0006289308176100629
s(S'[[det]]'
p2506
S'railway'
p2507
S'in'
p2508
tp2509
F0.0006289308176100629
s(g1551
g1552
S'villages'
p2510
tp2511
F0.0006289308176100629
s(S'[[num]]'
p2512
S'station'
p2513
S'in'
p2514
tp2515
F0.0006289308176100629
s(S'[[num]]'
p2516
S'locations'
p2517
S'in'
p2518
tp2519
F0.0006289308176100629
s(S'serving'
p2520
g1046
g1047
tp2521
F0.0006289308176100629
s(S'was'
p2522
S'situated'
p2523
S'on'
p2524
tp2525
F0.0006289308176100629
s(g202
g203
g1930
tp2526
F0.0006289308176100629
s(S'[[adj]]'
p2527
S'built'
p2528
S'in'
p2529
tp2530
F0.0006289308176100629
s(g1364
S'serving'
p2531
S'[[det]]'
p2532
tp2533
F0.0006289308176100629
s(g1851
g1439
g1440
tp2534
F0.0006289308176100629
s(S'[[det]]'
p2535
S'stadium'
p2536
S'in'
p2537
tp2538
F0.0006289308176100629
s(S'[[adj]]'
p2539
g956
g957
tp2540
F0.0006289308176100629
s(S'also'
p2541
S'expanded'
p2542
S'[[prp]]'
p2543
tp2544
F0.0006289308176100629
s(S'in'
p2545
S'[[det]]'
p2546
S'suburb'
p2547
tp2548
F0.0012578616352201257
s(S'be'
p2549
S'launched'
p2550
S'in'
p2551
tp2552
F0.0006289308176100629
s(S'took'
p2553
S'place'
p2554
S'[[con]]'
p2555
tp2556
F0.0006289308176100629
s(g1436
g1437
S'in'
p2557
tp2558
F0.0018867924528301887
s(S'has'
p2559
S'offices'
p2560
S'[[con]]'
p2561
tp2562
F0.0006289308176100629
s(S'building'
p2563
S'in'
p2564
S'[[det]]'
p2565
tp2566
F0.0031446540880503146
s(g1810
g1790
g1791
tp2567
F0.0012578616352201257
s(S'station'
p2568
g2035
g2036
tp2569
F0.0006289308176100629
s(g534
g1007
g1008
tp2570
F0.0006289308176100629
s(S'[[prp]]'
p2571
S'head'
p2572
S'office'
p2573
tp2574
F0.0012578616352201257
s(S'be'
p2575
S'located'
p2576
S'in'
p2577
tp2578
F0.0012578616352201257
s(S'[[num]]'
p2579
S'stores'
p2580
S'in'
p2581
tp2582
F0.0018867924528301887
s(S'[[adj]]'
p2583
S'station'
p2584
S'for'
p2585
tp2586
F0.0006289308176100629
s(S'is'
p2587
S'located'
p2588
S'northwest'
p2589
tp2590
F0.0006289308176100629
s(g828
g829
S'in'
p2591
tp2592
F0.0006289308176100629
s(S'[[det]]'
p2593
S'tallest'
p2594
S'building'
p2595
tp2596
F0.0037735849056603774
s(S'[[det]]'
p2597
S'bank'
p2598
S'in'
p2599
tp2600
F0.0006289308176100629
s(S'was'
p2601
S'established'
p2602
S'[[det]]'
p2603
tp2604
F0.0006289308176100629
s(S'is'
p2605
S'located'
p2606
S'outside'
p2607
tp2608
F0.0006289308176100629
s(g1745
S'based'
p2609
S'in'
p2610
tp2611
F0.0012578616352201257
s(S'currently'
p2612
S'located'
p2613
S'in'
p2614
tp2615
F0.0006289308176100629
s(S'[[det]]'
p2616
S'tallest'
p2617
S'skyscraper'
p2618
tp2619
F0.0006289308176100629
s(g1595
g1596
S'in'
p2620
tp2621
F0.0018867924528301887
s(S'tournament'
p2622
S'played'
p2623
S'at'
p2624
tp2625
F0.0006289308176100629
s(S'was'
p2626
S'founded'
p2627
S'from'
p2628
tp2629
F0.0006289308176100629
s(S'[[adj]]'
p2630
S'base'
p2631
S'in'
p2632
tp2633
F0.0006289308176100629
s(S'[[det]]'
p2634
g1602
g1603
tp2635
F0.0006289308176100629
s(S'relocated'
p2636
S'[[prp]]'
p2637
S'headquarters'
p2638
tp2639
F0.0012578616352201257
s(g803
g804
S'based'
p2640
tp2641
F0.0012578616352201257
s(S'station'
p2642
S'serving'
p2643
S'on'
p2644
tp2645
F0.0006289308176100629
s(g1592
g650
g651
tp2646
F0.0025157232704402514
s(g1009
g1421
S'in'
p2647
tp2648
F0.0012578616352201257
s(S'with'
p2649
S'service'
p2650
S'to'
p2651
tp2652
F0.0006289308176100629
s(S'has'
p2653
S'locations'
p2654
S'in'
p2655
tp2656
F0.0006289308176100629
s(S'[[num]]'
p2657
S'based'
p2658
S'in'
p2659
tp2660
F0.0006289308176100629
s(S'was'
p2661
S'built'
p2662
S'near'
p2663
tp2664
F0.0006289308176100629
s(S'grown'
p2665
g2318
g2319
tp2666
F0.0006289308176100629
s(S'was'
p2667
S'opened'
p2668
S'[[num]]'
p2669
tp2670
F0.0006289308176100629
s(S'be'
p2671
S'held'
p2672
S'in'
p2673
tp2674
F0.0006289308176100629
s(S'[[num]]'
p2675
S'company'
p2676
S'based'
p2677
tp2678
F0.0006289308176100629
s(g2588
g2589
S'of'
p2679
tp2680
F0.0006289308176100629
s(S'are'
p2681
S'located'
p2682
S'at'
p2683
tp2684
F0.0006289308176100629
s(S'[[det]]'
p2685
S'busiest'
p2686
S'airport'
p2687
tp2688
F0.0006289308176100629
s(S'[[prp]]'
p2689
S'headquarters'
p2690
S'[[det]]'
p2691
tp2692
F0.0006289308176100629
s(S'[[det]]'
p2693
S'building'
p2694
S'in'
p2695
tp2696
F0.0012578616352201257
s(S'[[adj]]'
p2697
S'park'
p2698
S'of'
p2699
tp2700
F0.0006289308176100629
s(S'[[det]]'
p2701
g638
g639
tp2702
F0.0012578616352201257
s(S'record'
p2703
g1383
g1384
tp2704
F0.0012578616352201257
s(S'building'
p2705
S'located'
p2706
S'at'
p2707
tp2708
F0.0006289308176100629
s(S'is'
p2709
S'located'
p2710
S'off'
p2711
tp2712
F0.0006289308176100629
s(S'cycle'
p2713
g390
g391
tp2714
F0.0006289308176100629
s(g313
g1554
S'of'
p2715
tp2716
F0.005660377358490566
s(S'been'
p2717
S'built'
p2718
S'along'
p2719
tp2720
F0.0006289308176100629
s(g1224
g1786
g1787
tp2721
F0.0006289308176100629
s(S'football'
p2722
S'stadium'
p2723
S'located'
p2724
tp2725
F0.0006289308176100629
s(S'[[adj]]'
p2726
S'museum'
p2727
S'in'
p2728
tp2729
F0.0006289308176100629
s(S'[[adj]]'
p2730
S'street'
p2731
S'in'
p2732
tp2733
F0.0006289308176100629
s(S'is'
p2734
g213
g214
tp2735
F0.0025157232704402514
s(S'serves'
p2736
S'[[det]]'
p2737
S'suburb'
p2738
tp2739
F0.0006289308176100629
s(S'[[det]]'
p2740
g1980
g1981
tp2741
F0.0006289308176100629
s(S'[[adj]]'
p2742
S'headquarters'
p2743
S'in'
p2744
tp2745
F0.0006289308176100629
s(S'largest'
p2746
S'[[adj]]'
p2747
S'lake'
p2748
tp2749
F0.0006289308176100629
s(S'[[det]]'
p2750
S'road'
p2751
S'in'
p2752
tp2753
F0.0006289308176100629
s(S'operates'
p2754
g619
g620
tp2755
F0.0006289308176100629
s(S'[[adj]]'
p2756
S'skyscraper'
p2757
S'in'
p2758
tp2759
F0.0006289308176100629
s(S'[[det]]'
p2760
S'basketball'
p2761
S'team'
p2762
tp2763
F0.0006289308176100629
s(g1981
g1982
S'to'
p2764
tp2765
F0.0006289308176100629
s(g184
g185
g1474
tp2766
F0.0006289308176100629
s(S'[[det]]'
p2767
S'office'
p2768
S'in'
p2769
tp2770
F0.0006289308176100629
s(S'quickly'
p2771
g944
g945
tp2772
F0.0006289308176100629
s(S'was'
p2773
g89
g90
tp2774
F0.00440251572327044
s(S'is'
p2775
S'based'
p2776
S'near'
p2777
tp2778
F0.0006289308176100629
s(S'was'
p2779
S'broadcast'
p2780
S'on'
p2781
tp2782
F0.0006289308176100629
s(S'[[det]]'
p2783
S'hotel'
p2784
S'in'
p2785
tp2786
F0.0006289308176100629
s(S'was'
p2787
S'held'
p2788
S'to'
p2789
tp2790
F0.0006289308176100629
s(S'has'
p2791
S'expanded'
p2792
S'[[prp]]'
p2793
tp2794
F0.0006289308176100629
s(S'[[det]]'
p2795
g1953
g1954
tp2796
F0.0012578616352201257
s(g42
g43
S'in'
p2797
tp2798
F0.0006289308176100629
s(S'has'
p2799
S'operations'
p2800
S'in'
p2801
tp2802
F0.0006289308176100629
s(S'is'
p2803
S'headquartered'
p2804
S'[[con]]'
p2805
tp2806
F0.0018867924528301887
s(S'[[det]]'
p2807
S'house'
p2808
S'in'
p2809
tp2810
F0.0006289308176100629
s(S'[[adj]]'
p2811
S'services'
p2812
S'in'
p2813
tp2814
F0.0006289308176100629
s(g612
g613
S'in'
p2815
tp2816
F0.0006289308176100629
s(S'[[adj]]'
p2817
S'election'
p2818
S'in'
p2819
tp2820
F0.0006289308176100629
s(S'[[adj]]'
p2821
g2713
g390
tp2822
F0.0006289308176100629
s(S'operates'
p2823
S'[[con]]'
p2824
S'[[adj]]'
p2825
tp2826
F0.0006289308176100629
s(S'[[adj]]'
p2827
S'school'
p2828
S'on'
p2829
tp2830
F0.0006289308176100629
s(g140
g141
g686
tp2831
F0.0006289308176100629
s(S'on'
p2832
S'[[det]]'
p2833
S'town'
p2834
tp2835
F0.0006289308176100629
s(S'was'
p2836
S'formed'
p2837
S'[[num]]'
p2838
tp2839
F0.0006289308176100629
s(S'[[adj]]'
p2840
S'founded'
p2841
S'in'
p2842
tp2843
F0.0006289308176100629
s(S'[[det]]'
p2844
S'largest'
p2845
S'lake'
p2846
tp2847
F0.0012578616352201257
s(g191
S'based'
p2848
S'in'
p2849
tp2850
F0.0006289308176100629
s(S'state'
p2851
S'park'
p2852
S'of'
p2853
tp2854
F0.0006289308176100629
s(S'is'
p2855
S'located'
p2856
S'just'
p2857
tp2858
F0.0006289308176100629
s(S'[[num]]'
p2859
S'branches'
p2860
S'[[con]]'
p2861
tp2862
F0.0006289308176100629
s(S'was'
p2863
S'based'
p2864
S'in'
p2865
tp2866
F0.0012578616352201257
s(g1227
g1228
S'in'
p2867
tp2868
F0.0006289308176100629
s(S'located'
p2869
g2061
g2062
tp2870
F0.0018867924528301887
s(S'was'
p2871
S'headquartered'
p2872
S'[[con]]'
p2873
tp2874
F0.0006289308176100629
s(S'[[adj]]'
p2875
g1078
g1079
tp2876
F0.0006289308176100629
s(S'station'
p2877
S'[[con]]'
p2878
S'located'
p2879
tp2880
F0.0006289308176100629
s(S'on'
p2881
g2069
g2070
tp2882
F0.0018867924528301887
s(S'airport'
p2883
g460
g461
tp2884
F0.0006289308176100629
s(g2155
g2156
S'headquartered'
p2885
tp2886
F0.0006289308176100629
s(S'was'
p2887
g197
g198
tp2888
F0.0006289308176100629
s(g2251
g2252
S'in'
p2889
tp2890
F0.0012578616352201257
s(S'located'
p2891
g440
g441
tp2892
F0.0012578616352201257
s(S'located'
p2893
g1252
g1253
tp2894
F0.0006289308176100629
s(S'[[adj]]'
p2895
g520
g521
tp2896
F0.0006289308176100629
s(g2334
g2462
S'village'
p2897
tp2898
F0.0031446540880503146
s(S'with'
p2899
S'headquarters'
p2900
S'at'
p2901
tp2902
F0.0006289308176100629
s(g1968
g1969
S'of'
p2903
tp2904
F0.0031446540880503146
s(S'[[adj]]'
p2905
g974
g975
tp2906
F0.0006289308176100629
s(S'is'
p2907
S'incorporated'
p2908
S'in'
p2909
tp2910
F0.0006289308176100629
s(g1854
g1855
S'in'
p2911
tp2912
F0.00440251572327044
s(S'serves'
p2913
S'[[det]]'
p2914
S'villages'
p2915
tp2916
F0.0012578616352201257
s(g668
g1550
g1551
tp2917
F0.0012578616352201257
s(S'[[det]]'
p2918
S'company'
p2919
S'in'
p2920
tp2921
F0.0006289308176100629
s(S'[[det]]'
p2922
S'station'
p2923
S'in'
p2924
tp2925
F0.0012578616352201257
s(S'was'
p2926
S'located'
p2927
S'near'
p2928
tp2929
F0.0006289308176100629
s(g1381
g1256
g1257
tp2930
F0.0006289308176100629
s(S'[[det]]'
p2931
S'street'
p2932
S'in'
p2933
tp2934
F0.0006289308176100629
s(S'was'
p2935
S'located'
p2936
S'from'
p2937
tp2938
F0.0006289308176100629
s(S'also'
p2939
S'aired'
p2940
S'in'
p2941
tp2942
F0.0006289308176100629
s(S'largest'
p2943
S'[[adj]]'
p2944
S'park'
p2945
tp2946
F0.0006289308176100629
s(g505
g506
S'serving'
p2947
tp2948
F0.0012578616352201257
s(g1552
g2510
S'of'
p2949
tp2950
F0.0012578616352201257
s(S'[[adj]]'
p2951
S'aired'
p2952
S'in'
p2953
tp2954
F0.0006289308176100629
s(g348
g349
S'in'
p2955
tp2956
F0.0006289308176100629
s(S'which'
p2957
S'connects'
p2958
S'[[det]]'
p2959
tp2960
F0.0006289308176100629
s(S'[[det]]'
p2961
S'park'
p2962
S'in'
p2963
tp2964
F0.0006289308176100629
s(S'[[adj]]'
p2965
g53
g54
tp2966
F0.0006289308176100629
s(S'be'
p2967
S'played'
p2968
S'at'
p2969
tp2970
F0.0006289308176100629
s(S'took'
p2971
S'place'
p2972
S'to'
p2973
tp2974
F0.0006289308176100629
s(g1682
g1683
S'in'
p2975
tp2976
F0.0006289308176100629
s(S'[[adj]]'
p2977
S'subsidiaries'
p2978
S'in'
p2979
tp2980
F0.0006289308176100629
s(S'also'
p2981
S'located'
p2982
S'at'
p2983
tp2984
F0.0006289308176100629
s(g1016
g1017
S'in'
p2985
tp2986
F0.0006289308176100629
s(S'located'
p2987
S'in'
p2988
S'neighborhood'
p2989
tp2990
F0.0006289308176100629
s(S'[[det]]'
p2991
S'station'
p2992
S'[[det]]'
p2993
tp2994
F0.0006289308176100629
s(S'[[num]]'
p2995
S'stations'
p2996
S'in'
p2997
tp2998
F0.0012578616352201257
s(S'is'
p2999
S'founded'
p3000
S'at'
p3001
tp3002
F0.0006289308176100629
s(g1955
g2033
S'in'
p3003
tp3004
F0.0012578616352201257
s(S'[[adj]]'
p3005
S'lake'
p3006
S'located'
p3007
tp3008
F0.0006289308176100629
s(S'label'
p3009
S'founded'
p3010
S'in'
p3011
tp3012
F0.0006289308176100629
s(S'[[num]]'
p3013
S'offices'
p3014
S'in'
p3015
tp3016
F0.0006289308176100629
s(S'[[det]]'
p3017
g1665
g398
tp3018
F0.0006289308176100629
s(S'[[adj]]'
p3019
g2168
g2169
tp3020
F0.0006289308176100629
s(S'being'
p3021
S'held'
p3022
S'in'
p3023
tp3024
F0.0006289308176100629
s(S'took'
p3025
S'place'
p3026
S'near'
p3027
tp3028
F0.0006289308176100629
s(g1771
g1772
g1038
tp3029
F0.0012578616352201257
s(S'was'
p3030
S'held'
p3031
S'on'
p3032
tp3033
F0.0006289308176100629
s(S'are'
p3034
S'located'
p3035
S'on'
p3036
tp3037
F0.0006289308176100629
s(g926
g1286
S'of'
p3038
tp3039
F0.0006289308176100629
s(S'[[adj]]'
p3040
S'center'
p3041
S'at'
p3042
tp3043
F0.0006289308176100629
s(S'[[prp]]'
p3044
S'offices'
p3045
S'in'
p3046
tp3047
F0.0006289308176100629
s(S'[[adj]]'
p3048
S'suburbs'
p3049
S'of'
p3050
tp3051
F0.0006289308176100629
s(S'[[det]]'
p3052
g171
g172
tp3053
F0.0012578616352201257
s(S'[[adj]]'
p3054
S'office'
p3055
S'for'
p3056
tp3057
F0.0006289308176100629
s(S'is'
p3058
S'held'
p3059
S'by'
p3060
tp3061
F0.0006289308176100629
s(S'label'
p3062
S'based'
p3063
S'out'
p3064
tp3065
F0.0006289308176100629
s(g2594
g2595
S'in'
p3066
tp3067
F0.00440251572327044
s(S'is'
p3068
S'broadcast'
p3069
S'from'
p3070
tp3071
F0.0006289308176100629
s(S'[[adj]]'
p3072
g1793
g1794
tp3073
F0.0006289308176100629
s(S'[[adj]]'
p3074
S'chapel'
p3075
S'in'
p3076
tp3077
F0.0006289308176100629
s(S'was'
p3078
S'built'
p3079
S'[[det]]'
p3080
tp3081
F0.0006289308176100629
s(g1253
g1254
S'of'
p3082
tp3083
F0.0006289308176100629
s(S'[[det]]'
p3084
S'largest'
p3085
S'company'
p3086
tp3087
F0.0006289308176100629
s(g2429
g2430
S'based'
p3088
tp3089
F0.0012578616352201257
s(S'[[det]]'
p3090
S'building'
p3091
S'located'
p3092
tp3093
F0.0006289308176100629
s(S'[[adj]]'
p3094
S'opened'
p3095
S'by'
p3096
tp3097
F0.0006289308176100629
s(g1070
g1840
g1841
tp3098
F0.0006289308176100629
s(S'was'
p3099
S'broadcast'
p3100
S'from'
p3101
tp3102
F0.0006289308176100629
s(S'[[adj]]'
p3103
g588
g589
tp3104
F0.0012578616352201257
s(S'is'
p3105
S'broadcast'
p3106
S'in'
p3107
tp3108
F0.0006289308176100629
s(g1116
g1117
S'of'
p3109
tp3110
F0.0018867924528301887
s(S'was'
p3111
S'founded'
p3112
S'when'
p3113
tp3114
F0.0006289308176100629
s(g141
g686
g687
tp3115
F0.0006289308176100629
s(S'be'
p3116
S'established'
p3117
S'at'
p3118
tp3119
F0.0006289308176100629
s(S'[[con]]'
p3120
S'connects'
p3121
S'with'
p3122
tp3123
F0.0006289308176100629
s(S'railway'
p3124
g2002
g135
tp3125
F0.0025157232704402514
s(S'school'
p3126
S'located'
p3127
S'at'
p3128
tp3129
F0.0006289308176100629
s(S'is'
p3130
S'founded'
p3131
S'as'
p3132
tp3133
F0.0006289308176100629
s(g1363
g1364
g2531
tp3134
F0.0012578616352201257
s(S'railway'
p3135
g1904
g1905
tp3136
F0.0012578616352201257
s(S'be'
p3137
S'located'
p3138
S'along'
p3139
tp3140
F0.0006289308176100629
s(S'was'
p3141
S'formed'
p3142
S'in'
p3143
tp3144
F0.0006289308176100629
s(S'was'
p3145
S'headquartered'
p3146
S'in'
p3147
tp3148
F0.0006289308176100629
s(S'[[adj]]'
p3149
S'established'
p3150
S'in'
p3151
tp3152
F0.0006289308176100629
s(S'operates'
p3153
g524
g525
tp3154
F0.0006289308176100629
s(S'serving'
p3155
g1137
g1138
tp3156
F0.005031446540880503
s(S'was'
p3157
S'located'
p3158
S'where'
p3159
tp3160
F0.0006289308176100629
s(g886
g887
S'of'
p3161
tp3162
F0.0012578616352201257
s(g191
S'factory'
p3163
S'in'
p3164
tp3165
F0.0006289308176100629
s(S'be'
p3166
S'played'
p3167
S'in'
p3168
tp3169
F0.0006289308176100629
s(S'was'
p3170
S'formed'
p3171
S'at'
p3172
tp3173
F0.0006289308176100629
s(S'[[det]]'
p3174
S'palace'
p3175
S'in'
p3176
tp3177
F0.0006289308176100629
s(S'was'
p3178
S'played'
p3179
S'[[num]]'
p3180
tp3181
F0.0006289308176100629
s(g578
g1745
g2609
tp3182
F0.0012578616352201257
s(S'[[det]]'
p3183
g2332
g2333
tp3184
F0.02830188679245283
s(S'shopping'
p3185
g1922
g1923
tp3186
F0.0012578616352201257
s(S'was'
p3187
S'held'
p3188
S'[[con]]'
p3189
tp3190
F0.0006289308176100629
s(S'was'
p3191
S'founded'
p3192
S'after'
p3193
tp3194
F0.0006289308176100629
s(S'[[num]]'
p3195
S'company'
p3196
S'headquartered'
p3197
tp3198
F0.0006289308176100629
s(g656
g2223
S'between'
p3199
tp3200
F0.0012578616352201257
s(S'serves'
p3201
g3052
g171
tp3202
F0.0006289308176100629
s(S'[[adj]]'
p3203
S'buildings'
p3204
S'in'
p3205
tp3206
F0.0006289308176100629
s(g367
g368
S'on'
p3207
tp3208
F0.0012578616352201257
s(g74
g75
S'in'
p3209
tp3210
F0.0012578616352201257
s(S'located'
p3211
S'in'
p3212
S'downtown'
p3213
tp3214
F0.0012578616352201257
s.