(dp0
(S'then'
p1
S'purchased'
p2
S'by'
p3
tp4
F0.01694915254237288
s(S'[[det]]'
p5
S'built'
p6
S'for'
p7
tp8
F0.01694915254237288
s(S'were'
p9
S'purchased'
p10
S'by'
p11
tp12
F0.01694915254237288
s(S'were'
p13
S'produced'
p14
S'by'
p15
tp16
F0.01694915254237288
s(S'[[num]]'
p17
S'built'
p18
S'by'
p19
tp20
F0.01694915254237288
s(S'[[num]]'
p21
S'built'
p22
S'for'
p23
tp24
F0.01694915254237288
s(S'was'
p25
S'built'
p26
S'with'
p27
tp28
F0.01694915254237288
s(S'was'
p29
S'developed'
p30
S'for'
p31
tp32
F0.01694915254237288
s(S'was'
p33
S'manufactured'
p34
S'by'
p35
tp36
F0.01694915254237288
s(S'[[det]]'
p37
S'built'
p38
S'by'
p39
tp40
F0.01694915254237288
s(S'was'
p41
S'built'
p42
S'after'
p43
tp44
F0.01694915254237288
s(S'[[con]]'
p45
S'built'
p46
S'by'
p47
tp48
F0.05084745762711865
s(S'was'
p49
S'built'
p50
S'for'
p51
tp52
F0.01694915254237288
s(S'designed'
p53
S'[[con]]'
p54
S'produced'
p55
tp56
F0.01694915254237288
s(S'[[det]]'
p57
S'built'
p58
S'in'
p59
tp60
F0.01694915254237288
s(S'[[adj]]'
p61
S'car'
p62
S'built'
p63
tp64
F0.01694915254237288
s(S'been'
p65
S'built'
p66
S'for'
p67
tp68
F0.01694915254237288
s(S'was'
p69
S'built'
p70
S'[[con]]'
p71
tp72
F0.01694915254237288
s(S'was'
p73
S'produced'
p74
S'at'
p75
tp76
F0.01694915254237288
s(S'was'
p77
S'developed'
p78
S'[[con]]'
p79
tp80
F0.01694915254237288
s(S'[[adj]]'
p81
S'built'
p82
S'for'
p83
tp84
F0.01694915254237288
s(S'were'
p85
S'built'
p86
S'for'
p87
tp88
F0.01694915254237288
s(S'is'
p89
S'built'
p90
S'by'
p91
tp92
F0.01694915254237288
s(S'[[det]]'
p93
S'produced'
p94
S'by'
p95
tp96
F0.01694915254237288
s(S'being'
p97
S'produced'
p98
S'by'
p99
tp100
F0.01694915254237288
s(S'be'
p101
S'built'
p102
S'by'
p103
tp104
F0.01694915254237288
s(S'is'
p105
S'built'
p106
S'at'
p107
tp108
F0.01694915254237288
s(S'[[num]]'
p109
S'produced'
p110
S'by'
p111
tp112
F0.01694915254237288
s(S'is'
p113
S'manufactured'
p114
S'by'
p115
tp116
F0.01694915254237288
s(S'was'
p117
S'purchased'
p118
S'for'
p119
tp120
F0.01694915254237288
s(S'been'
p121
S'developed'
p122
S'by'
p123
tp124
F0.01694915254237288
s(S'being'
p125
S'developed'
p126
S'by'
p127
tp128
F0.01694915254237288
s(S'later'
p129
S'purchased'
p130
S'by'
p131
tp132
F0.01694915254237288
s(S'had'
p133
S'purchased'
p134
S'[[det]]'
p135
tp136
F0.01694915254237288
s(S'vehicle'
p137
S'produced'
p138
S'by'
p139
tp140
F0.01694915254237288
s(S'was'
p141
S'developed'
p142
S'with'
p143
tp144
F0.01694915254237288
s(S'was'
p145
S'designed'
p146
S'[[con]]'
p147
tp148
F0.01694915254237288
s(S'[[adj]]'
p149
S'car'
p150
S'in'
p151
tp152
F0.01694915254237288
s(S'was'
p153
S'marketed'
p154
S'as'
p155
tp156
F0.01694915254237288
s(S'[[adj]]'
p157
g137
g138
tp158
F0.01694915254237288
s(S'be'
p159
S'built'
p160
S'as'
p161
tp162
F0.01694915254237288
s(S'was'
p163
S'built'
p164
S'around'
p165
tp166
F0.01694915254237288
s(S'was'
p167
S'purchased'
p168
S'by'
p169
tp170
F0.01694915254237288
s(S'also'
p171
S'built'
p172
S'by'
p173
tp174
F0.01694915254237288
s(S'is'
p175
S'built'
p176
S'up'
p177
tp178
F0.01694915254237288
s(S'is'
p179
S'produced'
p180
S'by'
p181
tp182
F0.01694915254237288
s(S'was'
p183
S'marketed'
p184
S'by'
p185
tp186
F0.01694915254237288
s(g146
g147
S'built'
p187
tp188
F0.03389830508474576
s(S'be'
p189
S'produced'
p190
S'by'
p191
tp192
F0.01694915254237288
s(S'was'
p193
S'developed'
p194
S'at'
p195
tp196
F0.01694915254237288
s(g54
g55
S'by'
p197
tp198
F0.01694915254237288
s(S'was'
p199
S'built'
p200
S'as'
p201
tp202
F0.01694915254237288
s(S'was'
p203
S'marketed'
p204
S'in'
p205
tp206
F0.01694915254237288
s(g62
g63
S'by'
p207
tp208
F0.01694915254237288
s(S'was'
p209
S'produced'
p210
S'from'
p211
tp212
F0.01694915254237288
s(S'was'
p213
S'built'
p214
S'by'
p215
tp216
F0.01694915254237288
s.