(dp0
(S'[[det]]'
p1
S'member'
p2
S'at'
p3
tp4
F0.0024449877750611247
s(S'[[adj]]'
p5
S'captain'
p6
S'in'
p7
tp8
F0.004889975550122249
s(S'when'
p9
S'served'
p10
S'with'
p11
tp12
F0.0024449877750611247
s(S'[[con]]'
p13
S'served'
p14
S'with'
p15
tp16
F0.0024449877750611247
s(S'was'
p17
S'transferred'
p18
S'by'
p19
tp20
F0.0024449877750611247
s(S'be'
p21
S'assigned'
p22
S'to'
p23
tp24
F0.0024449877750611247
s(S'was'
p25
S'joined'
p26
S'in'
p27
tp28
F0.0024449877750611247
s(S'to'
p29
S'join'
p30
S'up'
p31
tp32
F0.0024449877750611247
s(S'be'
p33
S'transferred'
p34
S'to'
p35
tp36
F0.0024449877750611247
s(S'then'
p37
S'assigned'
p38
S'to'
p39
tp40
F0.0024449877750611247
s(S'being'
p41
S'transferred'
p42
S'to'
p43
tp44
F0.0024449877750611247
s(S'[[adj]]'
p45
S'transferred'
p46
S'to'
p47
tp48
F0.0024449877750611247
s(S'later'
p49
S'join'
p50
S'[[det]]'
p51
tp52
F0.0024449877750611247
s(S'prevent'
p53
S'[[det]]'
p54
S'issue'
p55
tp56
F0.0024449877750611247
s(S'[[adj]]'
p57
S'lieutenant'
p58
S'in'
p59
tp60
F0.0024449877750611247
s(S'[[adj]]'
p61
S'member'
p62
S'[[det]]'
p63
tp64
F0.0024449877750611247
s(S'[[det]]'
p65
S'member'
p66
S'on'
p67
tp68
F0.0024449877750611247
s(S'to'
p69
S'join'
p70
S'[[num]]'
p71
tp72
F0.0024449877750611247
s(S'who'
p73
S'served'
p74
S'with'
p75
tp76
F0.0024449877750611247
s(S'[[adj]]'
p77
S'officer'
p78
S'for'
p79
tp80
F0.0024449877750611247
s(S'[[det]]'
p81
S'member'
p82
S'when'
p83
tp84
F0.0024449877750611247
s(S'[[num]]'
p85
S'years'
p86
S'of'
p87
tp88
F0.0024449877750611247
s(S'[[det]]'
p89
S'member'
p90
S'until'
p91
tp92
F0.0024449877750611247
s(S'was'
p93
S'returned'
p94
S'by'
p95
tp96
F0.0024449877750611247
s(S'[[con]]'
p97
S'joined'
p98
S'[[det]]'
p99
tp100
F0.0024449877750611247
s(S'been'
p101
S'commissioned'
p102
S'by'
p103
tp104
F0.0024449877750611247
s(S'[[adj]]'
p105
S'officers'
p106
S'of'
p107
tp108
F0.0024449877750611247
s(S'[[num]]'
p109
S'years'
p110
S'with'
p111
tp112
F0.0024449877750611247
s(S'has'
p113
S'served'
p114
S'[[con]]'
p115
tp116
F0.0024449877750611247
s(S'[[con]]'
p117
S'served'
p118
S'at'
p119
tp120
F0.0024449877750611247
s(S'was'
p121
S'member'
p122
S'for'
p123
tp124
F0.0024449877750611247
s(S'was'
p125
S'posted'
p126
S'[[con]]'
p127
tp128
F0.0024449877750611247
s(S'is'
p129
S'member'
p130
S'[[con]]'
p131
tp132
F0.0024449877750611247
s(S'[[det]]'
p133
S'officer'
p134
S'[[con]]'
p135
tp136
F0.0024449877750611247
s(S'was'
p137
S'assigned'
p138
S'by'
p139
tp140
F0.0024449877750611247
s(S'then'
p141
S'joined'
p142
S'to'
p143
tp144
F0.0024449877750611247
s(S'again'
p145
S'returned'
p146
S'[[con]]'
p147
tp148
F0.0024449877750611247
s(S'was'
p149
S'returned'
p150
S'[[con]]'
p151
tp152
F0.0024449877750611247
s(S'then'
p153
S'joined'
p154
S'[[adj]]'
p155
tp156
F0.0024449877750611247
s(g54
g55
S'[[prp]]'
p157
tp158
F0.0024449877750611247
s(S'had'
p159
S'joined'
p160
S'from'
p161
tp162
F0.0024449877750611247
s(S'to'
p163
S'join'
p164
S'at'
p165
tp166
F0.0024449877750611247
s(S'was'
p167
S'posted'
p168
S'[[num]]'
p169
tp170
F0.0024449877750611247
s(S'was'
p171
S'assigned'
p172
S'[[con]]'
p173
tp174
F0.0024449877750611247
s(S'[[adj]]'
p175
S'served'
p176
S'on'
p177
tp178
F0.0024449877750611247
s(S'[[num]]'
p179
S'served'
p180
S'as'
p181
tp182
F0.0024449877750611247
s(S'became'
p183
S'head'
p184
S'at'
p185
tp186
F0.0024449877750611247
s(S'also'
p187
S'served'
p188
S'with'
p189
tp190
F0.0024449877750611247
s(S'[[det]]'
p191
S'lieutenant'
p192
S'in'
p193
tp194
F0.0024449877750611247
s(S'[[pro]]'
p195
S'joined'
p196
S'[[det]]'
p197
tp198
F0.0024449877750611247
s(S'[[con]]'
p199
S'returned'
p200
S'at'
p201
tp202
F0.0024449877750611247
s(S'then'
p203
S'returned'
p204
S'to'
p205
tp206
F0.0024449877750611247
s(S'then'
p207
S'joined'
p208
S'side'
p209
tp210
F0.0024449877750611247
s(S'[[num]]'
p211
S'thbrigadesupportbattalionuunitedstatesu'
p212
S'[[adj]]'
p213
tp214
F0.0024449877750611247
s(S'when'
p215
S'joined'
p216
S'[[det]]'
p217
tp218
F0.0024449877750611247
s(S'then'
p219
S'served'
p220
S'before'
p221
tp222
F0.0024449877750611247
s(S'[[det]]'
p223
S'captain'
p224
S'in'
p225
tp226
F0.0024449877750611247
s(S'has'
p227
S'served'
p228
S'[[adj]]'
p229
tp230
F0.0024449877750611247
s(S'[[num]]'
p231
S'years'
p232
S'as'
p233
tp234
F0.0024449877750611247
s(S'again'
p235
S'served'
p236
S'with'
p237
tp238
F0.0024449877750611247
s(S'while'
p239
S'joined'
p240
S'[[det]]'
p241
tp242
F0.0024449877750611247
s(S'then'
p243
S'returned'
p244
S'at'
p245
tp246
F0.0024449877750611247
s(S'also'
p247
S'served'
p248
S'[[det]]'
p249
tp250
F0.0024449877750611247
s(S'then'
p251
S'returned'
p252
S'in'
p253
tp254
F0.0024449877750611247
s(S'was'
p255
S'transferred'
p256
S'to'
p257
tp258
F0.0024449877750611247
s(S'then'
p259
S'commanded'
p260
S'[[det]]'
p261
tp262
F0.0024449877750611247
s(S'being'
p263
S'assigned'
p264
S'to'
p265
tp266
F0.0024449877750611247
s(S'also'
p267
S'served'
p268
S'as'
p269
tp270
F0.0024449877750611247
s(S'[[con]]'
p271
S'joined'
p272
S'of'
p273
tp274
F0.0024449877750611247
s(S'later'
p275
S'transferred'
p276
S'to'
p277
tp278
F0.0024449877750611247
s(S'[[adj]]'
p279
S'officer'
p280
S'of'
p281
tp282
F0.0024449877750611247
s(S'which'
p283
S'returned'
p284
S'to'
p285
tp286
F0.0024449877750611247
s(S'then'
p287
S'transferred'
p288
S'[[con]]'
p289
tp290
F0.0024449877750611247
s(S'soon'
p291
S'transferred'
p292
S'to'
p293
tp294
F0.0024449877750611247
s(S'[[adj]]'
p295
S'member'
p296
S'as'
p297
tp298
F0.0024449877750611247
s(S'[[adj]]'
p299
S'member'
p300
S'from'
p301
tp302
F0.0024449877750611247
s(S'had'
p303
S'joined'
p304
S'[[det]]'
p305
tp306
F0.0024449877750611247
s(S'was'
p307
S'posted'
p308
S'to'
p309
tp310
F0.0024449877750611247
s(S'matter'
p311
S'to'
p312
g53
tp313
F0.0024449877750611247
s(S'to'
p314
S'head'
p315
S'[[det]]'
p316
tp317
F0.0024449877750611247
s(S'then'
p318
S'served'
p319
S'to'
p320
tp321
F0.0024449877750611247
s(S'first'
p322
S'served'
p323
S'in'
p324
tp325
F0.0024449877750611247
s(S'[[det]]'
p326
S'head'
p327
S'[[con]]'
p328
tp329
F0.0024449877750611247
s(S'[[det]]'
p330
g311
g312
tp331
F0.0024449877750611247
s(S'was'
p332
S'attached'
p333
S'to'
p334
tp335
F0.0024449877750611247
s(S'in'
p336
S'[[num]]'
p337
S'thbrigadesupportbattalionuunitedstatesu'
p338
tp339
F0.0024449877750611247
s(S'then'
p340
S'served'
p341
S'on'
p342
tp343
F0.0024449877750611247
s(S'soon'
p344
S'joined'
p345
S'[[det]]'
p346
tp347
F0.0024449877750611247
s(S'later'
p348
S'joined'
p349
S'[[con]]'
p350
tp351
F0.0024449877750611247
s(S'then'
p352
S'joined'
p353
S'[[num]]'
p354
tp355
F0.0024449877750611247
s(S'[[adj]]'
p356
S'years'
p357
S'at'
p358
tp359
F0.0024449877750611247
s(S'was'
p360
S'assigned'
p361
S'to'
p362
tp363
F0.0024449877750611247
s(S'[[pro]]'
p364
S'served'
p365
S'in'
p366
tp367
F0.0024449877750611247
s(S'[[num]]'
p368
S'years'
p369
S'at'
p370
tp371
F0.004889975550122249
s(S'[[adj]]'
p372
S'member'
p373
S'during'
p374
tp375
F0.0024449877750611247
s(S'formerly'
p376
S'served'
p377
S'to'
p378
tp379
F0.0024449877750611247
s(S'was'
p380
S'commissioned'
p381
S'by'
p382
tp383
F0.0024449877750611247
s(S'then'
p384
S'returned'
p385
S'for'
p386
tp387
F0.0024449877750611247
s(S'[[det]]'
p388
S'member'
p389
S'from'
p390
tp391
F0.0024449877750611247
s(S'[[det]]'
p392
S'member'
p393
S'which'
p394
tp395
F0.0024449877750611247
s(S'[[con]]'
p396
S'joined'
p397
S'from'
p398
tp399
F0.0024449877750611247
s(S'years'
p400
S'[[adj]]'
p401
S'took'
p402
tp403
F0.0024449877750611247
s(S'[[adj]]'
p404
S'officer'
p405
S'was'
p406
tp407
F0.0024449877750611247
s(S'was'
p408
S'commissioned'
p409
S'as'
p410
tp411
F0.0024449877750611247
s(S'was'
p412
S'served'
p413
S'as'
p414
tp415
F0.0024449877750611247
s(S'who'
p416
S'served'
p417
S'in'
p418
tp419
F0.0024449877750611247
s(S'also'
p420
S'member'
p421
S'[[con]]'
p422
tp423
F0.0024449877750611247
s(S'before'
p424
S'returned'
p425
S'to'
p426
tp427
F0.0024449877750611247
s(S'have'
p428
S'served'
p429
S'in'
p430
tp431
F0.0024449877750611247
s(S'has'
p432
S'commanded'
p433
S'[[det]]'
p434
tp435
F0.0024449877750611247
s(S'who'
p436
S'joined'
p437
S'[[det]]'
p438
tp439
F0.0024449877750611247
s(S'has'
p440
S'served'
p441
S'as'
p442
tp443
F0.0024449877750611247
s(S'also'
p444
S'served'
p445
S'at'
p446
tp447
F0.0024449877750611247
s(S'[[det]]'
p448
S'member'
p449
S'[[det]]'
p450
tp451
F0.0024449877750611247
s(S'became'
p452
S'head'
p453
S'[[det]]'
p454
tp455
F0.0024449877750611247
s(S'later'
p456
S'served'
p457
S'with'
p458
tp459
F0.0024449877750611247
s(S'instead'
p460
S'joined'
p461
S'[[det]]'
p462
tp463
F0.0024449877750611247
s(S'also'
p464
S'served'
p465
S'in'
p466
tp467
F0.0024449877750611247
s(S'[[det]]'
p468
S'head'
p469
S'at'
p470
tp471
F0.0024449877750611247
s(S'[[det]]'
p472
S'member'
p473
S'of'
p474
tp475
F0.0024449877750611247
s(S'formerly'
p476
S'served'
p477
S'at'
p478
tp479
F0.0024449877750611247
s(S'since'
p480
S'returned'
p481
S'to'
p482
tp483
F0.0024449877750611247
s(S'was'
p484
S'commissioned'
p485
S'to'
p486
tp487
F0.0024449877750611247
s(S'then'
p488
S'commanded'
p489
S'[[num]]'
p490
tp491
F0.0024449877750611247
s(S'[[adj]]'
p492
S'head'
p493
S'[[con]]'
p494
tp495
F0.0024449877750611247
s(S'then'
p496
S'commissioned'
p497
S'as'
p498
tp499
F0.0024449877750611247
s(S'had'
p500
S'served'
p501
S'at'
p502
tp503
F0.0024449877750611247
s(S'[[adj]]'
p504
S'head'
p505
S'of'
p506
tp507
F0.0024449877750611247
s(S'[[adj]]'
p508
S'thbrigadesupportbattalionuunitedstatesu'
p509
S'[[num]]'
p510
tp511
F0.0024449877750611247
s(S'became'
p512
S'head'
p513
S'of'
p514
tp515
F0.0024449877750611247
s(S'become'
p516
S'head'
p517
S'at'
p518
tp519
F0.0024449877750611247
s(S'was'
p520
S'head'
p521
S'[[con]]'
p522
tp523
F0.0024449877750611247
s(S'[[con]]'
p524
S'rejoined'
p525
S'[[det]]'
p526
tp527
F0.0024449877750611247
s(S'then'
p528
S'served'
p529
S'for'
p530
tp531
F0.0024449877750611247
s(S'[[con]]'
p532
S'transferred'
p533
S'to'
p534
tp535
F0.0024449877750611247
s(S'[[adj]]'
p536
S'member'
p537
S'[[con]]'
p538
tp539
F0.0024449877750611247
s(S'[[mod]]'
p540
S'join'
p541
S'[[det]]'
p542
tp543
F0.0024449877750611247
s(S'[[num]]'
p544
S'years'
p545
S'[[con]]'
p546
tp547
F0.0024449877750611247
s(S'later'
p548
S'served'
p549
S'on'
p550
tp551
F0.0024449877750611247
s(S'had'
p552
S'transferred'
p553
S'from'
p554
tp555
F0.0024449877750611247
s(S'have'
p556
S'joined'
p557
S'[[det]]'
p558
tp559
F0.0024449877750611247
s(S'[[adj]]'
p560
S'member'
p561
S'on'
p562
tp563
F0.0024449877750611247
s(S'had'
p564
S'joined'
p565
S'side'
p566
tp567
F0.0024449877750611247
s(S'[[det]]'
p568
S'officer'
p569
S'with'
p570
tp571
F0.0024449877750611247
s(S'[[det]]'
p572
S'member'
p573
S'as'
p574
tp575
F0.0024449877750611247
s(S'was'
p576
S'posted'
p577
S'as'
p578
tp579
F0.0024449877750611247
s(S'where'
p580
S'joined'
p581
S'[[det]]'
p582
tp583
F0.0024449877750611247
s(S'was'
p584
S'assigned'
p585
S'for'
p586
tp587
F0.0024449877750611247
s(S'was'
p588
S'transferred'
p589
S'from'
p590
tp591
F0.0024449877750611247
s(S'who'
p592
S'served'
p593
S'[[con]]'
p594
tp595
F0.0024449877750611247
s(S'later'
p596
S'served'
p597
S'as'
p598
tp599
F0.0024449877750611247
s(S'was'
p600
S'commissioned'
p601
S'in'
p602
tp603
F0.0024449877750611247
s(S'was'
p604
S'member'
p605
S'at'
p606
tp607
F0.0024449877750611247
s(S'is'
p608
S'head'
p609
S'at'
p610
tp611
F0.0024449877750611247
s(S'[[adj]]'
p612
S'officer'
p613
S'in'
p614
tp615
F0.0024449877750611247
s(S'[[adj]]'
p616
S'member'
p617
S'of'
p618
tp619
F0.0024449877750611247
s(S'were'
p620
S'transferred'
p621
S'to'
p622
tp623
F0.0024449877750611247
s(S'twice'
p624
S'served'
p625
S'as'
p626
tp627
F0.0024449877750611247
s(S'was'
p628
S'joined'
p629
S'on'
p630
tp631
F0.0024449877750611247
s(S'later'
p632
S'joined'
p633
S'at'
p634
tp635
F0.0024449877750611247
s(S'to'
p636
S'join'
p637
S'[[adj]]'
p638
tp639
F0.0024449877750611247
s(S'years'
p640
S'[[adj]]'
p641
S'sergeant'
p642
tp643
F0.0024449877750611247
s(S'where'
p644
S'served'
p645
S'with'
p646
tp647
F0.0024449877750611247
s(S'been'
p648
S'transferred'
p649
S'to'
p650
tp651
F0.0024449877750611247
s(S'until'
p652
S'returned'
p653
S'to'
p654
tp655
F0.0024449877750611247
s(S'also'
p656
S'joined'
p657
S'[[det]]'
p658
tp659
F0.0024449877750611247
s(S'has'
p660
S'served'
p661
S'in'
p662
tp663
F0.0024449877750611247
s(S'years'
p664
S'[[adj]]'
p665
S'[[num]]'
p666
tp667
F0.004889975550122249
s(S'[[adj]]'
p668
S'served'
p669
S'as'
p670
tp671
F0.0024449877750611247
s(S'made'
p672
S'head'
p673
S'at'
p674
tp675
F0.0024449877750611247
s(S'became'
p676
S'member'
p677
S'[[det]]'
p678
tp679
F0.0024449877750611247
s(S'is'
p680
S'head'
p681
S'of'
p682
tp683
F0.0024449877750611247
s(S'then'
p684
S'served'
p685
S'with'
p686
tp687
F0.0024449877750611247
s(S'then'
p688
S'transferred'
p689
S'as'
p690
tp691
F0.0024449877750611247
s(S'[[adj]]'
p692
S'[[num]]'
p693
S'thbrigadesupportbattalionuunitedstatesu'
p694
tp695
F0.0024449877750611247
s(S'years'
p696
S'[[adj]]'
p697
S'[[det]]'
p698
tp699
F0.019559902200488997
s(S'has'
p700
S'served'
p701
S'with'
p702
tp703
F0.0024449877750611247
s(S'[[con]]'
p704
S'head'
p705
S'of'
p706
tp707
F0.0024449877750611247
s(S'years'
p708
g5
g6
tp709
F0.004889975550122249
s(S'was'
p710
S'member'
p711
S'of'
p712
tp713
F0.0024449877750611247
s(S'was'
p714
S'commissioned'
p715
S'[[adj]]'
p716
tp717
F0.0024449877750611247
s(S'[[det]]'
p718
S'member'
p719
S's'
p720
tp721
F0.0024449877750611247
s(S'has'
p722
S'served'
p723
S'before'
p724
tp725
F0.0024449877750611247
s(S'is'
p726
S'member'
p727
S'of'
p728
tp729
F0.0024449877750611247
s(S'was'
p730
S'head'
p731
S'[[det]]'
p732
tp733
F0.0024449877750611247
s(S'then'
p734
S'joined'
p735
S'then'
p736
tp737
F0.0024449877750611247
s(S'who'
p738
S'joined'
p739
S'from'
p740
tp741
F0.0024449877750611247
s(S'[[num]]'
p742
S'returned'
p743
S'to'
p744
tp745
F0.0024449877750611247
s(S'has'
p746
S'served'
p747
S'until'
p748
tp749
F0.0024449877750611247
s(S'again'
p750
S'served'
p751
S'to'
p752
tp753
F0.0024449877750611247
s(S'first'
p754
S'served'
p755
S'with'
p756
tp757
F0.0024449877750611247
s(S'[[adj]]'
p758
S'head'
p759
S'at'
p760
tp761
F0.0024449877750611247
s(S'has'
p762
S'served'
p763
S'[[det]]'
p764
tp765
F0.0024449877750611247
s(S'is'
p766
S'head'
p767
S'[[det]]'
p768
tp769
F0.0024449877750611247
s(S'captain'
p770
S'in'
p771
S'[[adj]]'
p772
tp773
F0.004889975550122249
s(S'then'
p774
S'returned'
p775
S'with'
p776
tp777
F0.0024449877750611247
s(S'[[mod]]'
p778
S'join'
p779
S'up'
p780
tp781
F0.0024449877750611247
s(S'also'
p782
S'commanded'
p783
S'[[det]]'
p784
tp785
F0.0024449877750611247
s(S'[[det]]'
p786
S'returned'
p787
S'to'
p788
tp789
F0.0024449877750611247
s(S'also'
p790
S'served'
p791
S'to'
p792
tp793
F0.0024449877750611247
s(S'[[num]]'
p794
S'served'
p795
S'on'
p796
tp797
F0.0024449877750611247
s(S'[[con]]'
p798
S'member'
p799
S'of'
p800
tp801
F0.0024449877750611247
s(S'[[adj]]'
p802
S'member'
p803
S'for'
p804
tp805
F0.0024449877750611247
s(S'was'
p806
S'transferred'
p807
S'as'
p808
tp809
F0.0024449877750611247
s(S'has'
p810
S'served'
p811
S'for'
p812
tp813
F0.0024449877750611247
s(S'also'
p814
S'served'
p815
S'[[adj]]'
p816
tp817
F0.0024449877750611247
s(S'has'
p818
S'served'
p819
S'at'
p820
tp821
F0.0024449877750611247
s(S'was'
p822
S'joined'
p823
S'at'
p824
tp825
F0.0024449877750611247
s(S'[[det]]'
p826
S'served'
p827
S'in'
p828
tp829
F0.0024449877750611247
s(S'[[adj]]'
p830
S'assigned'
p831
S'as'
p832
tp833
F0.0024449877750611247
s(S'then'
p834
S'joined'
p835
S'with'
p836
tp837
F0.0024449877750611247
s(S'was'
p838
S'member'
p839
S'[[con]]'
p840
tp841
F0.0024449877750611247
s(S'twice'
p842
S'served'
p843
S'in'
p844
tp845
F0.0024449877750611247
s(S'sergeant'
p846
S'in'
p847
S'[[num]]'
p848
tp849
F0.004889975550122249
s(S'made'
p850
S'head'
p851
S'of'
p852
tp853
F0.0024449877750611247
s(g641
g642
S'in'
p854
tp855
F0.0024449877750611247
s(S'[[det]]'
p856
S'member'
p857
S'who'
p858
tp859
F0.0024449877750611247
s(S'[[num]]'
p860
S'member'
p861
S'of'
p862
tp863
F0.0024449877750611247
s(S'had'
p864
S'served'
p865
S'[[det]]'
p866
tp867
F0.0024449877750611247
s(S'[[mod]]'
p868
S'join'
p869
S'at'
p870
tp871
F0.0024449877750611247
s(S'[[det]]'
p872
S'head'
p873
S'in'
p874
tp875
F0.0024449877750611247
s(S'[[adj]]'
p876
S'officer'
p877
S'to'
p878
tp879
F0.0024449877750611247
s(S'[[con]]'
p880
S'served'
p881
S'in'
p882
tp883
F0.0024449877750611247
s(S'then'
p884
S'joined'
p885
S'[[con]]'
p886
tp887
F0.0024449877750611247
s(S'was'
p888
S'transferred'
p889
S'with'
p890
tp891
F0.0024449877750611247
s(S'being'
p892
S'commissioned'
p893
S'into'
p894
tp895
F0.0024449877750611247
s(S'had'
p896
S'served'
p897
S'with'
p898
tp899
F0.0024449877750611247
s(S'[[con]]'
p900
S'commanded'
p901
S'[[det]]'
p902
tp903
F0.0024449877750611247
s(S'while'
p904
S'returned'
p905
S'to'
p906
tp907
F0.0024449877750611247
s(S'[[num]]'
p908
S'transferred'
p909
S'to'
p910
tp911
F0.0024449877750611247
s(S'[[adj]]'
p912
S'distinction'
p913
S'of'
p914
tp915
F0.0024449877750611247
s(S'had'
p916
S'served'
p917
S'on'
p918
tp919
F0.0024449877750611247
s(S'then'
p920
S'assigned'
p921
S'as'
p922
tp923
F0.0024449877750611247
s(S'[[con]]'
p924
S'served'
p925
S'on'
p926
tp927
F0.0024449877750611247
s(S'become'
p928
S'head'
p929
S'of'
p930
tp931
F0.0024449877750611247
s(S'took'
p932
S'[[num]]'
p933
S'years'
p934
tp935
F0.0024449877750611247
s(S'[[con]]'
p936
S'returned'
p937
S'on'
p938
tp939
F0.0024449877750611247
s(S'then'
p940
S'rejoined'
p941
S'[[det]]'
p942
tp943
F0.0024449877750611247
s(S'[[det]]'
p944
S'member'
p945
S'[[num]]'
p946
tp947
F0.0024449877750611247
s(S'again'
p948
S'returned'
p949
S'to'
p950
tp951
F0.0024449877750611247
s(S'years'
p952
S'[[adj]]'
p953
S'thbrigadesupportbattalionuunitedstatesu'
p954
tp955
F0.0024449877750611247
s(g847
g848
S'took'
p956
tp957
F0.0024449877750611247
s(S'then'
p958
S'joined'
p959
S'on'
p960
tp961
F0.0024449877750611247
s(S'[[adj]]'
p962
S'[[det]]'
p963
S'sergeant'
p964
tp965
F0.009779951100244499
s(S'then'
p966
S'posted'
p967
S'to'
p968
tp969
F0.0024449877750611247
s(S'[[num]]'
p970
S'served'
p971
S'for'
p972
tp973
F0.0024449877750611247
s(S'is'
p974
S'returned'
p975
S'to'
p976
tp977
F0.0024449877750611247
s(S'formerly'
p978
S'served'
p979
S'for'
p980
tp981
F0.0024449877750611247
s(S'was'
p982
S'seconded'
p983
S'to'
p984
tp985
F0.0024449877750611247
s(S'[[adj]]'
p986
S'member'
p987
S'[[adj]]'
p988
tp989
F0.0024449877750611247
s(S'then'
p990
S'head'
p991
S'of'
p992
tp993
F0.0024449877750611247
s(g964
S'in'
p994
S'took'
p995
tp996
F0.0024449877750611247
s(S'also'
p997
S'served'
p998
S'for'
p999
tp1000
F0.0024449877750611247
s(S'then'
p1001
S'joined'
p1002
S'of'
p1003
tp1004
F0.0024449877750611247
s(S'later'
p1005
S'commanded'
p1006
S'[[det]]'
p1007
tp1008
F0.0024449877750611247
s(S'also'
p1009
S'served'
p1010
S'[[con]]'
p1011
tp1012
F0.0024449877750611247
s(S'became'
p1013
S'head'
p1014
S'for'
p1015
tp1016
F0.0024449877750611247
s(S'[[det]]'
p1017
S'member'
p1018
S'has'
p1019
tp1020
F0.0024449877750611247
s(S'had'
p1021
S'transferred'
p1022
S'to'
p1023
tp1024
F0.0024449877750611247
s(S'where'
p1025
S'served'
p1026
S'in'
p1027
tp1028
F0.0024449877750611247
s(S'who'
p1029
S'served'
p1030
S'as'
p1031
tp1032
F0.0024449877750611247
s(S'[[num]]'
p1033
S'years'
p1034
S'for'
p1035
tp1036
F0.0024449877750611247
s(S'as'
p1037
S'head'
p1038
S'of'
p1039
tp1040
F0.0024449877750611247
s(S'with'
p1041
S'joined'
p1042
S'[[det]]'
p1043
tp1044
F0.0024449877750611247
s(S'[[det]]'
p1045
S'member'
p1046
S'to'
p1047
tp1048
F0.0024449877750611247
s(S'[[det]]'
p1049
S'officer'
p1050
S'of'
p1051
tp1052
F0.0024449877750611247
s(S'then'
p1053
S'transferred'
p1054
S'to'
p1055
tp1056
F0.0024449877750611247
s(S'is'
p1057
S'member'
p1058
S'[[det]]'
p1059
tp1060
F0.0024449877750611247
s(S'[[num]]'
p1061
S'served'
p1062
S'in'
p1063
tp1064
F0.0024449877750611247
s(S'years'
p1065
g57
g58
tp1066
F0.0024449877750611247
s(g854
S'[[adj]]'
p1067
S'took'
p1068
tp1069
F0.009779951100244499
s(S'then'
p1070
S'joined'
p1071
S'[[det]]'
p1072
tp1073
F0.0024449877750611247
s(S'was'
p1074
S'member'
p1075
S'[[num]]'
p1076
tp1077
F0.0024449877750611247
s(S'was'
p1078
S'transferred'
p1079
S'back'
p1080
tp1081
F0.0024449877750611247
s(S'[[det]]'
p1082
S'officer'
p1083
S'in'
p1084
tp1085
F0.0024449877750611247
s(S'[[det]]'
p1086
S'distinction'
p1087
S'of'
p1088
tp1089
F0.0024449877750611247
s(S'is'
p1090
S'transferred'
p1091
S'to'
p1092
tp1093
F0.0024449877750611247
s(S'to'
p1094
S'join'
p1095
S'[[det]]'
p1096
tp1097
F0.0024449877750611247
s(S'as'
p1098
S'member'
p1099
S'of'
p1100
tp1101
F0.0024449877750611247
s(S'been'
p1102
S'assigned'
p1103
S'to'
p1104
tp1105
F0.0024449877750611247
s(S'[[det]]'
p1106
S'head'
p1107
S'of'
p1108
tp1109
F0.0024449877750611247
s(S'has'
p1110
S'served'
p1111
S'where'
p1112
tp1113
F0.0024449877750611247
s(S'[[con]]'
p1114
S'served'
p1115
S'for'
p1116
tp1117
F0.0024449877750611247
s(S'[[adj]]'
p1118
S'[[det]]'
p1119
S'captain'
p1120
tp1121
F0.004889975550122249
s(S'first'
p1122
S'joined'
p1123
S'[[con]]'
p1124
tp1125
F0.0024449877750611247
s(S'[[con]]'
p1126
S'joined'
p1127
S'at'
p1128
tp1129
F0.0024449877750611247
s(S'was'
p1130
S'commissioned'
p1131
S'into'
p1132
tp1133
F0.0024449877750611247
s(S'[[adj]]'
p1134
S'member'
p1135
S'in'
p1136
tp1137
F0.0024449877750611247
s(S'[[adj]]'
p1138
S'served'
p1139
S'at'
p1140
tp1141
F0.0024449877750611247
s(S'[[adj]]'
p1142
S'member'
p1143
S'[[num]]'
p1144
tp1145
F0.0024449877750611247
s(S'also'
p1146
S'served'
p1147
S'[[num]]'
p1148
tp1149
F0.0024449877750611247
s(S'[[adj]]'
p1150
S'served'
p1151
S'for'
p1152
tp1153
F0.0024449877750611247
s(S'[[con]]'
p1154
S'served'
p1155
S'[[det]]'
p1156
tp1157
F0.0024449877750611247
s(S'[[adj]]'
p1158
S'member'
p1159
S'at'
p1160
tp1161
F0.0024449877750611247
s(S'formerly'
p1162
S'served'
p1163
S'in'
p1164
tp1165
F0.0024449877750611247
s(S'also'
p1166
S'member'
p1167
S'of'
p1168
tp1169
F0.0024449877750611247
s(S'[[det]]'
p1170
S'member'
p1171
S'[[adj]]'
p1172
tp1173
F0.0024449877750611247
s(S'was'
p1174
S'assigned'
p1175
S'as'
p1176
tp1177
F0.0024449877750611247
s(g642
g854
g1067
tp1178
F0.004889975550122249
s(S'being'
p1179
S'commissioned'
p1180
S'in'
p1181
tp1182
F0.0024449877750611247
s(g55
g157
S'position'
p1183
tp1184
F0.0024449877750611247
s(S'later'
p1185
S'served'
p1186
S'[[adj]]'
p1187
tp1188
F0.0024449877750611247
s(S'[[con]]'
p1189
S'member'
p1190
S'[[det]]'
p1191
tp1192
F0.0024449877750611247
s(S'had'
p1193
S'served'
p1194
S'in'
p1195
tp1196
F0.0024449877750611247
s(g963
g964
g994
tp1197
F0.009779951100244499
s(S'has'
p1198
S'returned'
p1199
S'to'
p1200
tp1201
F0.0024449877750611247
s(S'been'
p1202
S'commissioned'
p1203
S'as'
p1204
tp1205
F0.0024449877750611247
s(S'[[con]]'
p1206
S'joined'
p1207
S'[[adj]]'
p1208
tp1209
F0.0024449877750611247
s(S'[[num]]'
p1210
S'years'
p1211
S'[[adj]]'
p1212
tp1213
F0.04156479217603912
s(S'later'
p1214
S'joined'
p1215
S'[[det]]'
p1216
tp1217
F0.0024449877750611247
s(g312
g53
g54
tp1218
F0.0024449877750611247
s(S'later'
p1219
S'returned'
p1220
S'to'
p1221
tp1222
F0.0024449877750611247
s(S'when'
p1223
S'transferred'
p1224
S'to'
p1225
tp1226
F0.0024449877750611247
s(S'[[adj]]'
p1227
S'joined'
p1228
S'[[det]]'
p1229
tp1230
F0.0024449877750611247
s(S'[[con]]'
p1231
S'member'
p1232
S'[[con]]'
p1233
tp1234
F0.0024449877750611247
s(S'later'
p1235
S'assigned'
p1236
S'to'
p1237
tp1238
F0.0024449877750611247
s(S'was'
p1239
S'assigned'
p1240
S'[[det]]'
p1241
tp1242
F0.0024449877750611247
s(S'was'
p1243
S'head'
p1244
S'to'
p1245
tp1246
F0.0024449877750611247
s(S'was'
p1247
S'commissioned'
p1248
S'from'
p1249
tp1250
F0.0024449877750611247
s(S'[[det]]'
p1251
S'assigned'
p1252
S'to'
p1253
tp1254
F0.0024449877750611247
s(S'[[num]]'
p1255
S'joined'
p1256
S'[[det]]'
p1257
tp1258
F0.0024449877750611247
s(S'was'
p1259
S'member'
p1260
S'in'
p1261
tp1262
F0.0024449877750611247
s(S'then'
p1263
S'served'
p1264
S'[[det]]'
p1265
tp1266
F0.0024449877750611247
s(S'was'
p1267
S'head'
p1268
S'of'
p1269
tp1270
F0.0024449877750611247
s(S'[[adj]]'
p1271
S'officer'
p1272
S'at'
p1273
tp1274
F0.0024449877750611247
s(S'has'
p1275
S'served'
p1276
S'to'
p1277
tp1278
F0.0024449877750611247
s(S'later'
p1279
S'served'
p1280
S'[[con]]'
p1281
tp1282
F0.0024449877750611247
s(S'became'
p1283
S'member'
p1284
S'for'
p1285
tp1286
F0.0024449877750611247
s(S'[[adj]]'
p1287
S'officer'
p1288
S'[[det]]'
p1289
tp1290
F0.0024449877750611247
s(g697
g698
S'lieutenant'
p1291
tp1292
F0.004889975550122249
s(S'was'
p1293
S'assigned'
p1294
S'with'
p1295
tp1296
F0.0024449877750611247
s(S'[[det]]'
p1297
S'member'
p1298
S'[[con]]'
p1299
tp1300
F0.0024449877750611247
s(g157
g1183
S'as'
p1301
tp1302
F0.0024449877750611247
s(S'also'
p1303
S'served'
p1304
S'until'
p1305
tp1306
F0.0024449877750611247
s(S'first'
p1307
S'joined'
p1308
S'[[det]]'
p1309
tp1310
F0.0024449877750611247
s(S'[[adj]]'
p1311
S'years'
p1312
S'with'
p1313
tp1314
F0.0024449877750611247
s(S'then'
p1315
S'served'
p1316
S'at'
p1317
tp1318
F0.0024449877750611247
s(S'has'
p1319
S'served'
p1320
S'on'
p1321
tp1322
F0.0024449877750611247
s(S'then'
p1323
S'served'
p1324
S'in'
p1325
tp1326
F0.0024449877750611247
s(S'to'
p1327
S'head'
p1328
S'at'
p1329
tp1330
F0.0024449877750611247
s(S'later'
p1331
S'served'
p1332
S'for'
p1333
tp1334
F0.0024449877750611247
s(S'was'
p1335
S'member'
p1336
S'[[det]]'
p1337
tp1338
F0.0024449877750611247
s(S'[[num]]'
p1339
S'years'
p1340
S'later'
p1341
tp1342
F0.0024449877750611247
s(S'[[adj]]'
p1343
S'officer'
p1344
S'with'
p1345
tp1346
F0.0024449877750611247
s(S'be'
p1347
S'returned'
p1348
S'to'
p1349
tp1350
F0.0024449877750611247
s(S'was'
p1351
S'transferred'
p1352
S'for'
p1353
tp1354
F0.0024449877750611247
s(S'[[det]]'
p1355
S'member'
p1356
S'for'
p1357
tp1358
F0.0024449877750611247
s(S'[[det]]'
p1359
S'head'
p1360
S'[[det]]'
p1361
tp1362
F0.0024449877750611247
s(S'has'
p1363
S'joined'
p1364
S'[[det]]'
p1365
tp1366
F0.0024449877750611247
s(S'also'
p1367
S'served'
p1368
S'from'
p1369
tp1370
F0.0024449877750611247
s(S'was'
p1371
S'joined'
p1372
S'[[det]]'
p1373
tp1374
F0.0024449877750611247
s(S'became'
p1375
S'member'
p1376
S'of'
p1377
tp1378
F0.0024449877750611247
s(S'was'
p1379
S'commissioned'
p1380
S'[[det]]'
p1381
tp1382
F0.0024449877750611247
s(S'had'
p1383
S'joined'
p1384
S'of'
p1385
tp1386
F0.0024449877750611247
s(S'had'
p1387
S'served'
p1388
S'as'
p1389
tp1390
F0.0024449877750611247
s(S'also'
p1391
S'served'
p1392
S'on'
p1393
tp1394
F0.0024449877750611247
s(S'was'
p1395
S'head'
p1396
S'at'
p1397
tp1398
F0.0024449877750611247
s(g665
g666
S'took'
p1399
tp1400
F0.0024449877750611247
s(S'until'
p1401
S'joined'
p1402
S'[[det]]'
p1403
tp1404
F0.0024449877750611247
s(S'later'
p1405
S'served'
p1406
S'in'
p1407
tp1408
F0.0024449877750611247
s(S'also'
p1409
S'served'
p1410
S'of'
p1411
tp1412
F0.0024449877750611247
s(S'later'
p1413
S'served'
p1414
S'at'
p1415
tp1416
F0.0024449877750611247
s(S'[[adj]]'
p1417
S'distinction'
p1418
S'being'
p1419
tp1420
F0.0024449877750611247
s(S'was'
p1421
S'head'
p1422
S'for'
p1423
tp1424
F0.0024449877750611247
s(S'again'
p1425
S'joined'
p1426
S'[[det]]'
p1427
tp1428
F0.0024449877750611247
s(S'[[adj]]'
p1429
S'head'
p1430
S'[[det]]'
p1431
tp1432
F0.0024449877750611247
s(S'then'
p1433
S'returned'
p1434
S'where'
p1435
tp1436
F0.0024449877750611247
s(S'[[mod]]'
p1437
S'join'
p1438
S'[[adj]]'
p1439
tp1440
F0.0024449877750611247
s.