(dp0
(S'also'
p1
S'appointed'
p2
S'in'
p3
tp4
F0.0008216926869350862
s(S'[[det]]'
p5
S'member'
p6
S'at'
p7
tp8
F0.0008216926869350862
s(S'[[adj]]'
p9
S'captain'
p10
S'in'
p11
tp12
F0.0024650780608052587
s(S'when'
p13
S'served'
p14
S'with'
p15
tp16
F0.0008216926869350862
s(S'[[con]]'
p17
S'served'
p18
S'with'
p19
tp20
F0.003286770747740345
s(S'was'
p21
S'transferred'
p22
S'by'
p23
tp24
F0.0008216926869350862
s(S'[[mod]]'
p25
S'serve'
p26
S'[[num]]'
p27
tp28
F0.0008216926869350862
s(S'then'
p29
S'promoted'
p30
S'at'
p31
tp32
F0.0008216926869350862
s(S'joined'
p33
S'[[con]]'
p34
S'served'
p35
tp36
F0.0016433853738701725
s(S'was'
p37
S'promoted'
p38
S'for'
p39
tp40
F0.0008216926869350862
s(S'[[adj]]'
p41
S'formation'
p42
S'in'
p43
tp44
F0.0008216926869350862
s(S'serve'
p45
S'as'
p46
S'[[det]]'
p47
tp48
F0.0008216926869350862
s(S'be'
p49
S'assigned'
p50
S'to'
p51
tp52
F0.0008216926869350862
s(S'graduated'
p53
S'[[con]]'
p54
S'joined'
p55
tp56
F0.0016433853738701725
s(S'returned'
p57
S'[[con]]'
p58
S'joined'
p59
tp60
F0.003286770747740345
s(S'has'
p61
S'left'
p62
S'[[con]]'
p63
tp64
F0.0008216926869350862
s(S'was'
p65
S'joined'
p66
S'in'
p67
tp68
F0.0008216926869350862
s(S'given'
p69
S'command'
p70
S'[[det]]'
p71
tp72
F0.0008216926869350862
s(S'to'
p73
S'join'
p74
S'up'
p75
tp76
F0.0008216926869350862
s(S'be'
p77
S'transferred'
p78
S'to'
p79
tp80
F0.0008216926869350862
s(S'then'
p81
S'assigned'
p82
S'to'
p83
tp84
F0.0008216926869350862
s(S'[[det]]'
p85
S'retired'
p86
S'in'
p87
tp88
F0.0008216926869350862
s(S'served'
p89
S'as'
p90
S'commander'
p91
tp92
F0.0016433853738701725
s(S'to'
p93
S'[[det]]'
p94
S'member'
p95
tp96
F0.0008216926869350862
s(S'being'
p97
S'transferred'
p98
S'to'
p99
tp100
F0.0008216926869350862
s(S'in'
p101
S'command'
p102
S'[[det]]'
p103
tp104
F0.0008216926869350862
s(S'[[adj]]'
p105
S'transferred'
p106
S'to'
p107
tp108
F0.0008216926869350862
s(S'had'
p109
S'attended'
p110
S'[[con]]'
p111
tp112
F0.0008216926869350862
s(S'later'
p113
S'join'
p114
S'[[det]]'
p115
tp116
F0.0008216926869350862
s(S'was'
p117
S'called'
p118
S'before'
p119
tp120
F0.0008216926869350862
s(S'headed'
p121
S'[[det]]'
p122
S'program'
p123
tp124
F0.0008216926869350862
s(S'prevent'
p125
S'[[det]]'
p126
S'issue'
p127
tp128
F0.0008216926869350862
s(S'[[det]]'
p129
S'unit'
p130
S'of'
p131
tp132
F0.0008216926869350862
s(S'[[adj]]'
p133
S'lieutenant'
p134
S'in'
p135
tp136
F0.0024650780608052587
s(S'is'
p137
S'accepted'
p138
S'into'
p139
tp140
F0.0008216926869350862
s(S'was'
p141
S'called'
p142
S'back'
p143
tp144
F0.0008216926869350862
s(S'[[adj]]'
p145
S'member'
p146
S'[[det]]'
p147
tp148
F0.0008216926869350862
s(S'also'
p149
S'led'
p150
S'[[det]]'
p151
tp152
F0.0008216926869350862
s(S'[[det]]'
p153
S'member'
p154
S'on'
p155
tp156
F0.0008216926869350862
s(S'was'
p157
S'[[det]]'
p158
S'member'
p159
tp160
F0.0008216926869350862
s(S'to'
p161
S'join'
p162
S'[[num]]'
p163
tp164
F0.0008216926869350862
s(S'also'
p165
S'attended'
p166
S'now'
p167
tp168
F0.0008216926869350862
s(S'who'
p169
S'served'
p170
S'with'
p171
tp172
F0.0008216926869350862
s(S'[[adj]]'
p173
S'officer'
p174
S'for'
p175
tp176
F0.0008216926869350862
s(S'instead'
p177
S'appointed'
p178
S'[[pro]]'
p179
tp180
F0.0008216926869350862
s(S'served'
p181
g93
g94
tp182
F0.0008216926869350862
s(S'became'
p183
S'commander'
p184
S'of'
p185
tp186
F0.0008216926869350862
s(S'is'
p187
S'serving'
p188
S'at'
p189
tp190
F0.0008216926869350862
s(S'then'
p191
S'called'
p192
S'[[det]]'
p193
tp194
F0.0008216926869350862
s(S'[[det]]'
p195
S'member'
p196
S'when'
p197
tp198
F0.0008216926869350862
s(S'until'
p199
S'retired'
p200
S'from'
p201
tp202
F0.0008216926869350862
s(S'accepted'
p203
S'[[det]]'
p204
S'commission'
p205
tp206
F0.0024650780608052587
s(S'[[num]]'
p207
S'years'
p208
S'of'
p209
tp210
F0.0008216926869350862
s(S'was'
p211
S'awarded'
p212
S'to'
p213
tp214
F0.0008216926869350862
s(S'[[adj]]'
p215
S'soldier'
p216
S'[[con]]'
p217
tp218
F0.0008216926869350862
s(S'[[det]]'
p219
S'member'
p220
S'until'
p221
tp222
F0.0008216926869350862
s(S'was'
p223
S'called'
p224
S'up'
p225
tp226
F0.0008216926869350862
s(S'had'
p227
S'represented'
p228
S'in'
p229
tp230
F0.0008216926869350862
s(S'then'
p231
S'left'
p232
S'to'
p233
tp234
F0.0008216926869350862
s(S'[[adj]]'
p235
S'captain'
p236
S'at'
p237
tp238
F0.0008216926869350862
s(S'was'
p239
S'returned'
p240
S'by'
p241
tp242
F0.0008216926869350862
s(S'[[con]]'
p243
S'joined'
p244
S'[[det]]'
p245
tp246
F0.0049301561216105174
s(S'been'
p247
S'commissioned'
p248
S'by'
p249
tp250
F0.0008216926869350862
s(S'[[con]]'
p251
S'in'
p252
S'command'
p253
tp254
F0.0008216926869350862
s(S'was'
p255
S'awarded'
p256
S'in'
p257
tp258
F0.0008216926869350862
s(S'[[adj]]'
p259
S'command'
p260
S'of'
p261
tp262
F0.0016433853738701725
s(S'[[num]]'
p263
S'years'
p264
S'with'
p265
tp266
F0.0016433853738701725
s(S'were'
p267
S'awarded'
p268
S'from'
p269
tp270
F0.0008216926869350862
s(S'has'
p271
S'served'
p272
S'[[con]]'
p273
tp274
F0.0024650780608052587
s(S'[[con]]'
p275
S'served'
p276
S'at'
p277
tp278
F0.0008216926869350862
s(S'was'
p279
S'member'
p280
S'for'
p281
tp282
F0.0008216926869350862
s(S'[[con]]'
p283
S'attended'
p284
S'[[det]]'
p285
tp286
F0.0008216926869350862
s(S'[[det]]'
p287
S'component'
p288
S'of'
p289
tp290
F0.0008216926869350862
s(S'is'
p291
S'member'
p292
S'[[con]]'
p293
tp294
F0.0008216926869350862
s(S'was'
p295
S'reassigned'
p296
S'as'
p297
tp298
F0.0008216926869350862
s(S'given'
p299
S'[[det]]'
p300
S'command'
p301
tp302
F0.0008216926869350862
s(S'later'
p303
S'represented'
p304
S'[[det]]'
p305
tp306
F0.0008216926869350862
s(S'[[det]]'
p307
S'officer'
p308
S'[[con]]'
p309
tp310
F0.0016433853738701725
s(S'was'
p311
S'assigned'
p312
S'by'
p313
tp314
F0.0008216926869350862
s(S'then'
p315
S'joined'
p316
S'to'
p317
tp318
F0.0008216926869350862
s(S'assumed'
p319
S'command'
p320
S'as'
p321
tp322
F0.0008216926869350862
s(S'[[det]]'
p323
S'transfer'
p324
S'to'
p325
tp326
F0.0008216926869350862
s(S'again'
p327
S'returned'
p328
S'[[con]]'
p329
tp330
F0.0008216926869350862
s(S'[[adj]]'
p331
S'[[det]]'
p332
S'took'
p333
tp334
F0.0008216926869350862
s(S'was'
p335
S'returned'
p336
S'[[con]]'
p337
tp338
F0.0008216926869350862
s(S'been'
p339
S'promoted'
p340
S'by'
p341
tp342
F0.0008216926869350862
s(S'[[adj]]'
p343
S'officer'
p344
S'of'
p345
tp346
F0.0016433853738701725
s(S'also'
p347
S'appointed'
p348
S'[[con]]'
p349
tp350
F0.0008216926869350862
s(S'been'
p351
S'serving'
p352
S'as'
p353
tp354
F0.0008216926869350862
s(S'then'
p355
S'joined'
p356
S'[[adj]]'
p357
tp358
F0.0008216926869350862
s(g126
g127
S'[[prp]]'
p359
tp360
F0.0008216926869350862
s(S'which'
p361
S'led'
p362
S'at'
p363
tp364
F0.0008216926869350862
s(S'is'
p365
S'serving'
p366
S'in'
p367
tp368
F0.0008216926869350862
s(S'had'
p369
S'joined'
p370
S'from'
p371
tp372
F0.0008216926869350862
s(S'to'
p373
S'join'
p374
S'at'
p375
tp376
F0.0008216926869350862
s(S'to'
p377
S'command'
p378
S'of'
p379
tp380
F0.0008216926869350862
s(S'be'
p381
S'awarded'
p382
S'by'
p383
tp384
F0.0008216926869350862
s(S'was'
p385
S'assigned'
p386
S'[[con]]'
p387
tp388
F0.0008216926869350862
s(S'[[adj]]'
p389
S'served'
p390
S'on'
p391
tp392
F0.0008216926869350862
s(S'[[con]]'
p393
S'member'
p394
S'[[con]]'
p395
tp396
F0.0008216926869350862
s(S'[[num]]'
p397
S'served'
p398
S'as'
p399
tp400
F0.0008216926869350862
s(S'just'
p401
S'left'
p402
S'for'
p403
tp404
F0.0008216926869350862
s(S'became'
p405
S'head'
p406
S'at'
p407
tp408
F0.0008216926869350862
s(S'was'
p409
S'called'
p410
S'of'
p411
tp412
F0.0008216926869350862
s(S'also'
p413
S'served'
p414
S'with'
p415
tp416
F0.0008216926869350862
s(S'[[det]]'
p417
S'lieutenant'
p418
S'in'
p419
tp420
F0.0024650780608052587
s(S'was'
p421
S'commander'
p422
S'[[con]]'
p423
tp424
F0.0008216926869350862
s(S'appointed'
p425
S'commander'
p426
S'[[det]]'
p427
tp428
F0.0008216926869350862
s(S'later'
p429
S'served'
p430
S'on'
p431
tp432
F0.0008216926869350862
s(S'was'
p433
S'assigned'
p434
S'command'
p435
tp436
F0.0008216926869350862
s(S'where'
p437
S'entered'
p438
S'[[det]]'
p439
tp440
F0.0008216926869350862
s(S'[[det]]'
p441
S'number'
p442
S'in'
p443
tp444
F0.0008216926869350862
s(S'[[det]]'
p445
S'pilot'
p446
S'in'
p447
tp448
F0.0008216926869350862
s(S'then'
p449
S'returned'
p450
S'to'
p451
tp452
F0.0008216926869350862
s(S'was'
p453
S'promoted'
p454
S'[[adj]]'
p455
tp456
F0.0008216926869350862
s(S'[[det]]'
p457
S'captain'
p458
S'[[det]]'
p459
tp460
F0.0008216926869350862
s(S'then'
p461
S'joined'
p462
S'side'
p463
tp464
F0.0008216926869350862
s(S'then'
p465
S'began'
p466
S'at'
p467
tp468
F0.0008216926869350862
s(S'when'
p469
S'entered'
p470
S'[[det]]'
p471
tp472
F0.0008216926869350862
s(S'be'
p473
S'awarded'
p474
S'in'
p475
tp476
F0.0008216926869350862
s(S'[[num]]'
p477
S'years'
p478
S'on'
p479
tp480
F0.0016433853738701725
s(S'when'
p481
S'joined'
p482
S'[[det]]'
p483
tp484
F0.0008216926869350862
s(S'became'
p485
S'commander'
p486
S'in'
p487
tp488
F0.0008216926869350862
s(S'[[det]]'
p489
S'formation'
p490
S'[[det]]'
p491
tp492
F0.0008216926869350862
s(S'[[adj]]'
p493
S'member'
p494
S'as'
p495
tp496
F0.0008216926869350862
s(S'[[con]]'
p497
S'then'
p498
S'served'
p499
tp500
F0.0008216926869350862
s(S'also'
p501
S'promoted'
p502
S'at'
p503
tp504
F0.0008216926869350862
s(S'then'
p505
S'served'
p506
S'before'
p507
tp508
F0.0008216926869350862
s(S'given'
p509
S'[[adj]]'
p510
S'command'
p511
tp512
F0.0008216926869350862
s(S'[[adj]]'
p513
S'component'
p514
S'of'
p515
tp516
F0.0008216926869350862
s(S'[[det]]'
p517
S'captain'
p518
S'in'
p519
tp520
F0.0016433853738701725
s(S'has'
p521
S'served'
p522
S'[[adj]]'
p523
tp524
F0.0008216926869350862
s(S'then'
p525
S'attended'
p526
S'now'
p527
tp528
F0.0008216926869350862
s(S'to'
p529
S'serve'
p530
S'for'
p531
tp532
F0.0008216926869350862
s(S'[[num]]'
p533
S'years'
p534
S'as'
p535
tp536
F0.003286770747740345
s(S'that'
p537
S'led'
p538
S'[[det]]'
p539
tp540
F0.0008216926869350862
s(S'[[det]]'
p541
S'captain'
p542
S'at'
p543
tp544
F0.0008216926869350862
s(S'in'
p545
S'[[num]]'
p546
S'thbrigadesupportbattalionuunitedstatesu'
p547
tp548
F0.0008216926869350862
s(S'served'
p549
S'[[num]]'
p550
S'years'
p551
tp552
F0.007395234182415777
s(S'to'
p553
S'head'
p554
S'at'
p555
tp556
F0.0008216926869350862
s(S'also'
p557
S'appointed'
p558
S'on'
p559
tp560
F0.0008216926869350862
s(S'[[adj]]'
p561
S'awarded'
p562
S'by'
p563
tp564
F0.0008216926869350862
s(S'left'
p565
S'[[con]]'
p566
S'enlisted'
p567
tp568
F0.0008216926869350862
s(S'to'
p569
S'command'
p570
S'[[adj]]'
p571
tp572
F0.0008216926869350862
s(S'who'
p573
S'attended'
p574
S'[[det]]'
p575
tp576
F0.0008216926869350862
s(S'be'
p577
S'called'
p578
S'[[det]]'
p579
tp580
F0.0008216926869350862
s(S'then'
p581
S'returned'
p582
S'at'
p583
tp584
F0.0008216926869350862
s(S'be'
p585
S'joining'
p586
S'[[det]]'
p587
tp588
F0.0008216926869350862
s(S'also'
p589
S'served'
p590
S'[[det]]'
p591
tp592
F0.0016433853738701725
s(S'[[det]]'
p593
S'commission'
p594
S'[[con]]'
p595
tp596
F0.0008216926869350862
s(S'was'
p597
S'elevated'
p598
S'to'
p599
tp600
F0.0008216926869350862
s(S'was'
p601
S'awarded'
p602
S'[[prp]]'
p603
tp604
F0.0008216926869350862
s(S'then'
p605
S'returned'
p606
S'in'
p607
tp608
F0.0008216926869350862
s(S'was'
p609
S'transferred'
p610
S'to'
p611
tp612
F0.0008216926869350862
s(S'then'
p613
S'commanded'
p614
S'[[det]]'
p615
tp616
F0.0008216926869350862
s(S'was'
p617
S'called'
p618
S'at'
p619
tp620
F0.0008216926869350862
s(S'later'
p621
S'led'
p622
S'[[det]]'
p623
tp624
F0.0008216926869350862
s(S'being'
p625
S'assigned'
p626
S'to'
p627
tp628
F0.0008216926869350862
s(S'to'
p629
S'command'
p630
S'[[num]]'
p631
tp632
F0.0008216926869350862
s(S'also'
p633
S'served'
p634
S'as'
p635
tp636
F0.0049301561216105174
s(S'twice'
p637
S'served'
p638
S'in'
p639
tp640
F0.0008216926869350862
s(S'in'
p641
S'command'
p642
S'[[con]]'
p643
tp644
F0.0008216926869350862
s(S'was'
p645
S'accepted'
p646
S'by'
p647
tp648
F0.0008216926869350862
s(S'later'
p649
S'transferred'
p650
S'to'
p651
tp652
F0.0008216926869350862
s(S'then'
p653
S'graduated'
p654
S'at'
p655
tp656
F0.0008216926869350862
s(S'is'
p657
S'retired'
p658
S'from'
p659
tp660
F0.0008216926869350862
s(S'also'
p661
S'appointed'
p662
S'of'
p663
tp664
F0.0008216926869350862
s(S'take'
p665
S'command'
p666
S'of'
p667
tp668
F0.0008216926869350862
s(S'later'
p669
S'appointed'
p670
S'at'
p671
tp672
F0.0008216926869350862
s(S'[[con]]'
p673
S'attended'
p674
S'at'
p675
tp676
F0.0008216926869350862
s(S'[[det]]'
p677
S'awarded'
p678
S'for'
p679
tp680
F0.0008216926869350862
s(S'then'
p681
S'transferred'
p682
S'[[con]]'
p683
tp684
F0.0008216926869350862
s(S'was'
p685
S'awarded'
p686
S'after'
p687
tp688
F0.0008216926869350862
s(S'soon'
p689
S'transferred'
p690
S'to'
p691
tp692
F0.0008216926869350862
s(S'[[det]]'
p693
S'pilot'
p694
S'with'
p695
tp696
F0.0008216926869350862
s(S'had'
p697
S'joined'
p698
S'[[det]]'
p699
tp700
F0.0008216926869350862
s(S'[[adj]]'
p701
S'member'
p702
S'from'
p703
tp704
F0.0008216926869350862
s(S'served'
p705
S'[[con]]'
p706
S'[[adj]]'
p707
tp708
F0.0016433853738701725
s(S'[[con]]'
p709
S'attended'
p710
S'[[con]]'
p711
tp712
F0.0008216926869350862
s(S'where'
p713
S'graduated'
p714
S'from'
p715
tp716
F0.0008216926869350862
s(S'was'
p717
S'awarded'
p718
S'with'
p719
tp720
F0.0008216926869350862
s(S'member'
p721
S'[[con]]'
p722
S'has'
p723
tp724
F0.0016433853738701725
s(S'was'
p725
S'appointed'
p726
S'[[det]]'
p727
tp728
F0.0016433853738701725
s(S'as'
p729
S'member'
p730
S'[[det]]'
p731
tp732
F0.0016433853738701725
s(S'[[con]]'
p733
S'began'
p734
S'[[det]]'
p735
tp736
F0.0008216926869350862
s(S'matter'
p737
S'to'
p738
g125
tp739
F0.0008216926869350862
s(S'was'
p740
S'left'
p741
S'out'
p742
tp743
F0.0008216926869350862
s(S'to'
p744
S'head'
p745
S'[[det]]'
p746
tp747
F0.0008216926869350862
s(S'was'
p748
S'graduated'
p749
S'[[con]]'
p750
tp751
F0.0008216926869350862
s(S'was'
p752
S'appointed'
p753
S'during'
p754
tp755
F0.0008216926869350862
s(S'then'
p756
S'served'
p757
S'to'
p758
tp759
F0.0008216926869350862
s(S'also'
p760
S'represented'
p761
S'[[con]]'
p762
tp763
F0.0008216926869350862
s(S'first'
p764
S'served'
p765
S'in'
p766
tp767
F0.0008216926869350862
s(S'been'
p768
S'called'
p769
S'up'
p770
tp771
F0.0008216926869350862
s(g127
g359
S'position'
p772
tp773
F0.0008216926869350862
s(S'was'
p774
S'born'
p775
S'from'
p776
tp777
F0.0008216926869350862
s(S'joined'
p778
S'[[con]]'
p779
S'soon'
p780
tp781
F0.0008216926869350862
s(S'[[adj]]'
p782
S'officer'
p783
S'on'
p784
tp785
F0.0008216926869350862
s(S'was'
p786
S'appointed'
p787
S'as'
p788
tp789
F0.0016433853738701725
s(S'became'
p790
S'captain'
p791
S'of'
p792
tp793
F0.0008216926869350862
s(S'had'
p794
S'left'
p795
S'for'
p796
tp797
F0.0008216926869350862
s(S'[[det]]'
p798
S'head'
p799
S'[[con]]'
p800
tp801
F0.0008216926869350862
s(S'to'
p802
S'transfer'
p803
S'from'
p804
tp805
F0.0008216926869350862
s(S'[[det]]'
p806
g737
g738
tp807
F0.0008216926869350862
s(S'promoted'
p808
S'to'
p809
S'command'
p810
tp811
F0.0008216926869350862
s(S'also'
p812
S'graduated'
p813
S'at'
p814
tp815
F0.0008216926869350862
s(S'was'
p816
S'attached'
p817
S'to'
p818
tp819
F0.0008216926869350862
s(S'graduated'
p820
S'[[con]]'
p821
S'served'
p822
tp823
F0.0024650780608052587
s(S'had'
p824
S'transferred'
p825
S'from'
p826
tp827
F0.0008216926869350862
s(S'is'
p828
S'serving'
p829
S'to'
p830
tp831
F0.0008216926869350862
s(S'then'
p832
S'served'
p833
S'on'
p834
tp835
F0.0008216926869350862
s(S'commissioned'
p836
S'[[det]]'
p837
S'[[adj]]'
p838
tp839
F0.0016433853738701725
s(S'been'
p840
S'called'
p841
S'[[num]]'
p842
tp843
F0.0008216926869350862
s(S'became'
p844
S'commander'
p845
S'[[con]]'
p846
tp847
F0.0008216926869350862
s(S'[[adj]]'
p848
S'sergeant'
p849
S'in'
p850
tp851
F0.0016433853738701725
s(S'soon'
p852
S'joined'
p853
S'[[det]]'
p854
tp855
F0.0008216926869350862
s(S'later'
p856
S'joined'
p857
S'[[con]]'
p858
tp859
F0.0008216926869350862
s(S'currently'
p860
S'serving'
p861
S'at'
p862
tp863
F0.0008216926869350862
s(S'appointed'
p864
S'as'
p865
S'[[det]]'
p866
tp867
F0.0008216926869350862
s(S'then'
p868
S'joined'
p869
S'[[num]]'
p870
tp871
F0.0008216926869350862
s(S'[[adj]]'
p872
S'years'
p873
S'at'
p874
tp875
F0.0008216926869350862
s(S'was'
p876
S'assigned'
p877
S'to'
p878
tp879
F0.0008216926869350862
s(S'[[pro]]'
p880
S'served'
p881
S'in'
p882
tp883
F0.0008216926869350862
s(S'served'
p884
S'for'
p885
S'[[num]]'
p886
tp887
F0.003286770747740345
s(S'also'
p888
S'graduated'
p889
S'from'
p890
tp891
F0.0008216926869350862
s(S'as'
p892
S'[[adj]]'
p893
S'member'
p894
tp895
F0.0016433853738701725
s(S'being'
p896
S'awarded'
p897
S'[[det]]'
p898
tp899
F0.0008216926869350862
s(S'also'
p900
S'attended'
p901
S'from'
p902
tp903
F0.0008216926869350862
s(S'later'
p904
S'graduated'
p905
S'from'
p906
tp907
F0.0008216926869350862
s(S'[[adj]]'
p908
S'command'
p909
S'in'
p910
tp911
F0.0016433853738701725
s(S'also'
p912
S'awarded'
p913
S'of'
p914
tp915
F0.0008216926869350862
s(S'was'
p916
S'called'
p917
S'out'
p918
tp919
F0.0008216926869350862
s(S'be'
p920
S'awarded'
p921
S'[[det]]'
p922
tp923
F0.0008216926869350862
s(S'was'
p924
S'called'
p925
S'for'
p926
tp927
F0.0008216926869350862
s(S'[[num]]'
p928
S'years'
p929
S'at'
p930
tp931
F0.003286770747740345
s(S'soon'
p932
S'left'
p933
S'to'
p934
tp935
F0.0008216926869350862
s(S'[[adj]]'
p936
S'serving'
p937
S'for'
p938
tp939
F0.0008216926869350862
s(S'formerly'
p940
S'served'
p941
S'to'
p942
tp943
F0.0008216926869350862
s(S'was'
p944
S'commissioned'
p945
S'by'
p946
tp947
F0.0008216926869350862
s(S'[[adj]]'
p948
S'serving'
p949
S'in'
p950
tp951
F0.0008216926869350862
s(S'was'
p952
S'promoted'
p953
S'with'
p954
tp955
F0.0008216926869350862
s(S'was'
p956
S'awarded'
p957
S'from'
p958
tp959
F0.0008216926869350862
s(S'being'
p960
S'appointed'
p961
S'to'
p962
tp963
F0.0008216926869350862
s(S'then'
p964
S'returned'
p965
S'for'
p966
tp967
F0.0008216926869350862
s(g550
g551
S'in'
p968
tp969
F0.003286770747740345
s(S'had'
p970
S'appointed'
p971
S'to'
p972
tp973
F0.0008216926869350862
s(S'[[det]]'
p974
S'member'
p975
S'from'
p976
tp977
F0.0008216926869350862
s(S'[[det]]'
p978
S'member'
p979
S'which'
p980
tp981
F0.0008216926869350862
s(S'was'
p982
S'graduated'
p983
S'in'
p984
tp985
F0.0008216926869350862
s(S'[[con]]'
p986
S'joined'
p987
S'from'
p988
tp989
F0.0016433853738701725
s(S'who'
p990
S'graduated'
p991
S'from'
p992
tp993
F0.0008216926869350862
s(S'years'
p994
S'[[adj]]'
p995
S'took'
p996
tp997
F0.0008216926869350862
s(S'[[adj]]'
p998
S'officer'
p999
S'was'
p1000
tp1001
F0.0008216926869350862
s(S'being'
p1002
S'appointed'
p1003
S'of'
p1004
tp1005
F0.0008216926869350862
s(S'[[mod]]'
p1006
S'serve'
p1007
S'on'
p1008
tp1009
F0.0008216926869350862
s(S'[[adj]]'
p1010
S'commander'
p1011
S'of'
p1012
tp1013
F0.0008216926869350862
s(S'was'
p1014
S'served'
p1015
S'as'
p1016
tp1017
F0.0008216926869350862
s(S'were'
p1018
S'awarded'
p1019
S'[[det]]'
p1020
tp1021
F0.0008216926869350862
s(S'joined'
p1022
S'[[con]]'
p1023
S'returned'
p1024
tp1025
F0.0008216926869350862
s(S'been'
p1026
S'awarded'
p1027
S'[[adj]]'
p1028
tp1029
F0.0008216926869350862
s(S'was'
p1030
S'captain'
p1031
S'at'
p1032
tp1033
F0.0008216926869350862
s(S'who'
p1034
S'served'
p1035
S'in'
p1036
tp1037
F0.0008216926869350862
s(S'again'
p1038
S'appointed'
p1039
S'to'
p1040
tp1041
F0.0008216926869350862
s(S'before'
p1042
S'joining'
p1043
S'[[det]]'
p1044
tp1045
F0.0008216926869350862
s(S'where'
p1046
S'attended'
p1047
S'[[det]]'
p1048
tp1049
F0.0008216926869350862
s(S'when'
p1050
S'retired'
p1051
S'from'
p1052
tp1053
F0.0008216926869350862
s(S'also'
p1054
S'member'
p1055
S'[[con]]'
p1056
tp1057
F0.0008216926869350862
s(S'being'
p1058
S'appointed'
p1059
S'at'
p1060
tp1061
F0.0008216926869350862
s(S'before'
p1062
S'returned'
p1063
S'to'
p1064
tp1065
F0.0008216926869350862
s(S'as'
p1066
S'[[adj]]'
p1067
S'lieutenant'
p1068
tp1069
F0.0016433853738701725
s(S'is'
p1070
S'appointed'
p1071
S'of'
p1072
tp1073
F0.0008216926869350862
s(S'in'
p1074
S'command'
p1075
S'of'
p1076
tp1077
F0.0024650780608052587
s(S'[[det]]'
p1078
S'captain'
p1079
S'of'
p1080
tp1081
F0.0008216926869350862
s(S'[[con]]'
p1082
S'appointed'
p1083
S'[[pro]]'
p1084
tp1085
F0.0008216926869350862
s(S'first'
p1086
S'entered'
p1087
S'[[det]]'
p1088
tp1089
F0.0008216926869350862
s(S'was'
p1090
S'left'
p1091
S'with'
p1092
tp1093
F0.0008216926869350862
s(S'have'
p1094
S'served'
p1095
S'in'
p1096
tp1097
F0.0008216926869350862
s(S'has'
p1098
S'commanded'
p1099
S'[[det]]'
p1100
tp1101
F0.0008216926869350862
s(S'who'
p1102
S'joined'
p1103
S'[[det]]'
p1104
tp1105
F0.0008216926869350862
s(S'has'
p1106
S'served'
p1107
S'as'
p1108
tp1109
F0.004108463434675432
s(S'also'
p1110
S'served'
p1111
S'at'
p1112
tp1113
F0.0008216926869350862
s(S'[[con]]'
p1114
S'led'
p1115
S'to'
p1116
tp1117
F0.0008216926869350862
s(S'as'
p1118
S'[[det]]'
p1119
S'lieutenant'
p1120
tp1121
F0.0008216926869350862
s(S'[[det]]'
p1122
S'member'
p1123
S'[[det]]'
p1124
tp1125
F0.005751848808545604
s(S'became'
p1126
S'head'
p1127
S'[[det]]'
p1128
tp1129
F0.0008216926869350862
s(S'then'
p1130
S'left'
p1131
S'for'
p1132
tp1133
F0.0008216926869350862
s(S'later'
p1134
S'served'
p1135
S'with'
p1136
tp1137
F0.0008216926869350862
s(S'instead'
p1138
S'joined'
p1139
S'[[det]]'
p1140
tp1141
F0.0008216926869350862
s(S'also'
p1142
S'served'
p1143
S'in'
p1144
tp1145
F0.0008216926869350862
s(S'[[det]]'
p1146
S'head'
p1147
S'at'
p1148
tp1149
F0.0008216926869350862
s(S'was'
p1150
S'promoted'
p1151
S'in'
p1152
tp1153
F0.0016433853738701725
s(S'[[det]]'
p1154
S'member'
p1155
S'of'
p1156
tp1157
F0.012325390304026294
s(S'[[det]]'
p1158
S'regiment'
p1159
S'of'
p1160
tp1161
F0.0008216926869350862
s(S'formerly'
p1162
S'served'
p1163
S'at'
p1164
tp1165
F0.0008216926869350862
s(S'since'
p1166
S'returned'
p1167
S'to'
p1168
tp1169
F0.0008216926869350862
s(S'[[adj]]'
p1170
S'serving'
p1171
S'as'
p1172
tp1173
F0.0008216926869350862
s(S'was'
p1174
S'commissioned'
p1175
S'to'
p1176
tp1177
F0.0008216926869350862
s(S'[[det]]'
p1178
S'pilot'
p1179
S'for'
p1180
tp1181
F0.0008216926869350862
s(S'served'
p1182
S'[[con]]'
p1183
S'graduated'
p1184
tp1185
F0.0008216926869350862
s(S'then'
p1186
S'commanded'
p1187
S'[[num]]'
p1188
tp1189
F0.0008216926869350862
s(S'[[adj]]'
p1190
S'head'
p1191
S'[[con]]'
p1192
tp1193
F0.0008216926869350862
s(S'then'
p1194
S'commissioned'
p1195
S'as'
p1196
tp1197
F0.0008216926869350862
s(S'as'
p1198
S'[[det]]'
p1199
S'member'
p1200
tp1201
F0.011503697617091208
s(S'had'
p1202
S'served'
p1203
S'at'
p1204
tp1205
F0.0008216926869350862
s(S'as'
p1206
g782
g783
tp1207
F0.0024650780608052587
s(S'is'
p1208
S'appointed'
p1209
S'[[det]]'
p1210
tp1211
F0.0008216926869350862
s(S'[[adj]]'
p1212
S'head'
p1213
S'of'
p1214
tp1215
F0.0008216926869350862
s(S'also'
p1216
S'awarded'
p1217
S'from'
p1218
tp1219
F0.0008216926869350862
s(S'was'
p1220
S'graduated'
p1221
S'now'
p1222
tp1223
F0.0008216926869350862
s(S'[[adj]]'
p1224
S'duty'
p1225
S'in'
p1226
tp1227
F0.0008216926869350862
s(S'became'
p1228
S'head'
p1229
S'of'
p1230
tp1231
F0.0008216926869350862
s(S'been'
p1232
S'awarded'
p1233
S'[[num]]'
p1234
tp1235
F0.0008216926869350862
s(S'become'
p1236
S'head'
p1237
S'at'
p1238
tp1239
F0.0008216926869350862
s(S'was'
p1240
S'head'
p1241
S'[[con]]'
p1242
tp1243
F0.0008216926869350862
s(S'been'
p1244
S'accepted'
p1245
S'at'
p1246
tp1247
F0.0008216926869350862
s(S'[[con]]'
p1248
S'rejoined'
p1249
S'[[det]]'
p1250
tp1251
F0.0008216926869350862
s(S'has'
p1252
S'left'
p1253
S'[[det]]'
p1254
tp1255
F0.0008216926869350862
s(S'[[num]]'
p1256
S'led'
p1257
S'[[det]]'
p1258
tp1259
F0.0008216926869350862
s(S'then'
p1260
S'served'
p1261
S'for'
p1262
tp1263
F0.0008216926869350862
s(S'[[con]]'
p1264
S'transferred'
p1265
S'to'
p1266
tp1267
F0.0008216926869350862
s(S'until'
p1268
S'joining'
p1269
S'[[det]]'
p1270
tp1271
F0.0008216926869350862
s(S'[[con]]'
p1272
S'then'
p1273
S'joined'
p1274
tp1275
F0.0008216926869350862
s(S'[[con]]'
p1276
S'appointed'
p1277
S'as'
p1278
tp1279
F0.0008216926869350862
s(S'[[mod]]'
p1280
S'join'
p1281
S'[[det]]'
p1282
tp1283
F0.0008216926869350862
s(S'[[num]]'
p1284
S'years'
p1285
S'[[con]]'
p1286
tp1287
F0.0008216926869350862
s(S'later'
p1288
S'represented'
p1289
S'in'
p1290
tp1291
F0.0008216926869350862
s(S'[[pro]]'
p1292
S'joined'
p1293
S'[[det]]'
p1294
tp1295
F0.0008216926869350862
s(S'was'
p1296
S'awarded'
p1297
S'[[con]]'
p1298
tp1299
F0.0008216926869350862
s(S'also'
p1300
S'represented'
p1301
S'against'
p1302
tp1303
F0.0008216926869350862
s(S'[[adj]]'
p1304
S'lieutenant'
p1305
S'colonel'
p1306
tp1307
F0.0016433853738701725
s(S'have'
p1308
S'joined'
p1309
S'[[det]]'
p1310
tp1311
F0.0008216926869350862
s(S'was'
p1312
S'accepted'
p1313
S'to'
p1314
tp1315
F0.0008216926869350862
s(S'[[adj]]'
p1316
S'member'
p1317
S'on'
p1318
tp1319
F0.0016433853738701725
s(S'had'
p1320
S'joined'
p1321
S'side'
p1322
tp1323
F0.0008216926869350862
s(S'be'
p1324
S'appointed'
p1325
S'to'
p1326
tp1327
F0.0008216926869350862
s(S'then'
p1328
S'attended'
p1329
S'at'
p1330
tp1331
F0.0008216926869350862
s(S'[[det]]'
p1332
S'member'
p1333
S'as'
p1334
tp1335
F0.0008216926869350862
s(S'was'
p1336
S'born'
p1337
S'served'
p1338
tp1339
F0.0008216926869350862
s(S'where'
p1340
S'joined'
p1341
S'[[det]]'
p1342
tp1343
F0.0016433853738701725
s(S'was'
p1344
S'serving'
p1345
S'in'
p1346
tp1347
F0.0008216926869350862
s(S'to'
p1348
S'serve'
p1349
S'[[con]]'
p1350
tp1351
F0.0008216926869350862
s(S'[[det]]'
p1352
S'lieutenant'
p1353
S'general'
p1354
tp1355
F0.0008216926869350862
s(S'[[det]]'
p1356
S'unit'
p1357
S'[[con]]'
p1358
tp1359
F0.0008216926869350862
s(S'was'
p1360
S'assigned'
p1361
S'for'
p1362
tp1363
F0.0008216926869350862
s(S'as'
p1364
S'[[det]]'
p1365
S'officer'
p1366
tp1367
F0.0024650780608052587
s(S'[[adj]]'
p1368
S'officer'
p1369
S'to'
p1370
tp1371
F0.0008216926869350862
s(S'was'
p1372
S'discharged'
p1373
S'from'
p1374
tp1375
F0.0008216926869350862
s(S'again'
p1376
S'represented'
p1377
S'[[det]]'
p1378
tp1379
F0.0008216926869350862
s(S'who'
p1380
S'served'
p1381
S'[[con]]'
p1382
tp1383
F0.0008216926869350862
s(S'later'
p1384
S'served'
p1385
S'as'
p1386
tp1387
F0.0016433853738701725
s(S'was'
p1388
S'commissioned'
p1389
S'in'
p1390
tp1391
F0.0008216926869350862
s(S'was'
p1392
S'member'
p1393
S'at'
p1394
tp1395
F0.0008216926869350862
s(S'be'
p1396
S'accepted'
p1397
S'into'
p1398
tp1399
F0.0008216926869350862
s(S'had'
p1400
S'called'
p1401
S'[[det]]'
p1402
tp1403
F0.0008216926869350862
s(S'later'
p1404
S'joined'
p1405
S'at'
p1406
tp1407
F0.0008216926869350862
s(S'has'
p1408
S'graduated'
p1409
S'from'
p1410
tp1411
F0.0008216926869350862
s(S'[[adj]]'
p1412
S'officer'
p1413
S'in'
p1414
tp1415
F0.0016433853738701725
s(S'was'
p1416
S'serving'
p1417
S'as'
p1418
tp1419
F0.0008216926869350862
s(S'[[adj]]'
p1420
S'member'
p1421
S'of'
p1422
tp1423
F0.003286770747740345
s(S'also'
p1424
S'awarded'
p1425
S'for'
p1426
tp1427
F0.0008216926869350862
s(S'[[adj]]'
p1428
S'commander'
p1429
S'[[con]]'
p1430
tp1431
F0.0008216926869350862
s(S'also'
p1432
S'appointed'
p1433
S'as'
p1434
tp1435
F0.0008216926869350862
s(S'were'
p1436
S'transferred'
p1437
S'to'
p1438
tp1439
F0.0008216926869350862
s(S'twice'
p1440
S'served'
p1441
S'as'
p1442
tp1443
F0.0008216926869350862
s(S'was'
p1444
S'joined'
p1445
S'on'
p1446
tp1447
F0.0008216926869350862
s(S'again'
p1448
S'called'
p1449
S'up'
p1450
tp1451
F0.0008216926869350862
s(S'[[adj]]'
p1452
S'soldier'
p1453
S'in'
p1454
tp1455
F0.0008216926869350862
s(S'is'
p1456
S'head'
p1457
S'at'
p1458
tp1459
F0.0008216926869350862
s(S'that'
p1460
S'led'
p1461
S'at'
p1462
tp1463
F0.0008216926869350862
s(S'had'
p1464
S'attended'
p1465
S'[[det]]'
p1466
tp1467
F0.0008216926869350862
s(S'to'
p1468
S'join'
p1469
S'[[adj]]'
p1470
tp1471
F0.0008216926869350862
s(S'now'
p1472
S'called'
p1473
S'in'
p1474
tp1475
F0.0008216926869350862
s(S'was'
p1476
S'awarded'
p1477
S'on'
p1478
tp1479
F0.0008216926869350862
s(S'[[con]]'
p1480
S'appointed'
p1481
S'to'
p1482
tp1483
F0.0008216926869350862
s(S'where'
p1484
S'served'
p1485
S'with'
p1486
tp1487
F0.0008216926869350862
s(S'been'
p1488
S'transferred'
p1489
S'to'
p1490
tp1491
F0.0008216926869350862
s(S'graduated'
p1492
S'where'
p1493
S'joined'
p1494
tp1495
F0.0008216926869350862
s(S'until'
p1496
S'returned'
p1497
S'to'
p1498
tp1499
F0.0008216926869350862
s(S'was'
p1500
S'promoted'
p1501
S'[[con]]'
p1502
tp1503
F0.0016433853738701725
s(S'also'
p1504
S'joined'
p1505
S'[[det]]'
p1506
tp1507
F0.0008216926869350862
s(S'[[con]]'
p1508
S'commanded'
p1509
S'[[det]]'
p1510
tp1511
F0.0008216926869350862
s(S'continued'
p1512
S'working'
p1513
S'at'
p1514
tp1515
F0.0008216926869350862
s(S'has'
p1516
S'served'
p1517
S'in'
p1518
tp1519
F0.0008216926869350862
s(S'years'
p1520
S'[[adj]]'
p1521
S'[[num]]'
p1522
tp1523
F0.0016433853738701725
s(S'[[adj]]'
p1524
S'served'
p1525
S'as'
p1526
tp1527
F0.0008216926869350862
s(S'made'
p1528
S'head'
p1529
S'at'
p1530
tp1531
F0.0008216926869350862
s(S'became'
p1532
S'member'
p1533
S'[[det]]'
p1534
tp1535
F0.0008216926869350862
s(S'years'
p1536
g848
g849
tp1537
F0.0008216926869350862
s(S'is'
p1538
S'head'
p1539
S'of'
p1540
tp1541
F0.0008216926869350862
s(S'[[mod]]'
p1542
S'serve'
p1543
S'to'
p1544
tp1545
F0.0008216926869350862
s(S'was'
p1546
S'promoted'
p1547
S'when'
p1548
tp1549
F0.0008216926869350862
s(S'then'
p1550
S'served'
p1551
S'with'
p1552
tp1553
F0.0008216926869350862
s(S'was'
p1554
S'serving'
p1555
S'with'
p1556
tp1557
F0.0008216926869350862
s(S'had'
p1558
S'left'
p1559
S'[[adj]]'
p1560
tp1561
F0.0008216926869350862
s(S'was'
p1562
S'entered'
p1563
S'at'
p1564
tp1565
F0.0008216926869350862
s(S'then'
p1566
S'transferred'
p1567
S'as'
p1568
tp1569
F0.0008216926869350862
s(S'[[adj]]'
p1570
S'[[num]]'
p1571
S'thbrigadesupportbattalionuunitedstatesu'
p1572
tp1573
F0.0008216926869350862
s(S'[[con]]'
p1574
S'served'
p1575
S'as'
p1576
tp1577
F0.003286770747740345
s(S'was'
p1578
S'head'
p1579
S'at'
p1580
tp1581
F0.0008216926869350862
s(S'has'
p1582
S'served'
p1583
S'with'
p1584
tp1585
F0.0008216926869350862
s(S'born'
p1586
S'[[con]]'
p1587
S'joined'
p1588
tp1589
F0.0024650780608052587
s(S'was'
p1590
S'called'
p1591
S'from'
p1592
tp1593
F0.0008216926869350862
s(S'been'
p1594
S'appointed'
p1595
S'at'
p1596
tp1597
F0.0008216926869350862
s(g434
g435
S'of'
p1598
tp1599
F0.0008216926869350862
s(S'who'
p1600
S'left'
p1601
S'[[det]]'
p1602
tp1603
F0.0008216926869350862
s(S'has'
p1604
S'led'
p1605
S'[[det]]'
p1606
tp1607
F0.0008216926869350862
s(S'[[con]]'
p1608
S'head'
p1609
S'of'
p1610
tp1611
F0.0008216926869350862
s(S'was'
p1612
S'represented'
p1613
S'for'
p1614
tp1615
F0.0008216926869350862
s(S'assumed'
p1616
S'command'
p1617
S'[[det]]'
p1618
tp1619
F0.0008216926869350862
s(S'assumed'
p1620
S'command'
p1621
S'[[con]]'
p1622
tp1623
F0.0008216926869350862
s(S'years'
p1624
S'[[adj]]'
p1625
S'captain'
p1626
tp1627
F0.0016433853738701725
s(S'been'
p1628
S'awarded'
p1629
S'[[con]]'
p1630
tp1631
F0.0008216926869350862
s(S'was'
p1632
S'member'
p1633
S'of'
p1634
tp1635
F0.0008216926869350862
s(S'was'
p1636
S'commissioned'
p1637
S'[[adj]]'
p1638
tp1639
F0.0008216926869350862
s(S'was'
p1640
S'appointed'
p1641
S'when'
p1642
tp1643
F0.0008216926869350862
s(S'[[det]]'
p1644
S'member'
p1645
S's'
p1646
tp1647
F0.0008216926869350862
s(S'[[con]]'
p1648
S'awarded'
p1649
S'[[det]]'
p1650
tp1651
F0.0008216926869350862
s(S'also'
p1652
S'awarded'
p1653
S'at'
p1654
tp1655
F0.0008216926869350862
s(S'[[adj]]'
p1656
S'captain'
p1657
S'for'
p1658
tp1659
F0.0008216926869350862
s(S'had'
p1660
S'entered'
p1661
S'[[det]]'
p1662
tp1663
F0.0008216926869350862
s(S'has'
p1664
S'served'
p1665
S'before'
p1666
tp1667
F0.0008216926869350862
s(S'was'
p1668
S'commander'
p1669
S'[[det]]'
p1670
tp1671
F0.0008216926869350862
s(S'is'
p1672
S'member'
p1673
S'of'
p1674
tp1675
F0.0008216926869350862
s(S'then'
p1676
S'promoted'
p1677
S'to'
p1678
tp1679
F0.0008216926869350862
s(S'was'
p1680
S'head'
p1681
S'[[det]]'
p1682
tp1683
F0.0008216926869350862
s(S'have'
p1684
S'left'
p1685
S'[[det]]'
p1686
tp1687
F0.0008216926869350862
s(S'[[det]]'
p1688
S'number'
p1689
S'[[num]]'
p1690
tp1691
F0.0008216926869350862
s(S'[[adj]]'
p1692
S'officers'
p1693
S'of'
p1694
tp1695
F0.0008216926869350862
s(S'then'
p1696
S'joined'
p1697
S'then'
p1698
tp1699
F0.0008216926869350862
s(S'later'
p1700
S'attended'
p1701
S'now'
p1702
tp1703
F0.0008216926869350862
s(S'who'
p1704
S'joined'
p1705
S'from'
p1706
tp1707
F0.0008216926869350862
s(S'also'
p1708
S'served'
p1709
S'until'
p1710
tp1711
F0.0008216926869350862
s(S'again'
p1712
S'appointed'
p1713
S'of'
p1714
tp1715
F0.0008216926869350862
s(S'by'
p1716
S'joining'
p1717
S'[[det]]'
p1718
tp1719
F0.0008216926869350862
s(S'[[num]]'
p1720
S'returned'
p1721
S'to'
p1722
tp1723
F0.0008216926869350862
s(S'was'
p1724
S'elevated'
p1725
S'as'
p1726
tp1727
F0.0008216926869350862
s(S'to'
p1728
S'command'
p1729
S'in'
p1730
tp1731
F0.0008216926869350862
s(S'had'
p1732
S'graduated'
p1733
S'from'
p1734
tp1735
F0.0008216926869350862
s(S'was'
p1736
S'awarded'
p1737
S'[[det]]'
p1738
tp1739
F0.0008216926869350862
s(S'had'
p1740
S'left'
p1741
S'[[con]]'
p1742
tp1743
F0.0008216926869350862
s(S'appointed'
p1744
S'commander'
p1745
S'of'
p1746
tp1747
F0.0008216926869350862
s(S'was'
p1748
S'captain'
p1749
S'[[con]]'
p1750
tp1751
F0.0008216926869350862
s(S'has'
p1752
S'served'
p1753
S'until'
p1754
tp1755
F0.0008216926869350862
s(S'again'
p1756
S'served'
p1757
S'to'
p1758
tp1759
F0.0008216926869350862
s(S'first'
p1760
S'served'
p1761
S'with'
p1762
tp1763
F0.0008216926869350862
s(S'[[det]]'
p1764
S'pilot'
p1765
S'[[con]]'
p1766
tp1767
F0.0008216926869350862
s(S'[[adj]]'
p1768
S'head'
p1769
S'at'
p1770
tp1771
F0.0008216926869350862
s(S'has'
p1772
S'served'
p1773
S'[[det]]'
p1774
tp1775
F0.0008216926869350862
s(S'served'
p1776
S'[[con]]'
p1777
S'later'
p1778
tp1779
F0.0008216926869350862
s(S'is'
p1780
S'head'
p1781
S'[[det]]'
p1782
tp1783
F0.0008216926869350862
s(S'commissioned'
p1784
S'[[det]]'
p1785
S'lieutenant'
p1786
tp1787
F0.0016433853738701725
s(g1626
S'in'
p1788
S'[[adj]]'
p1789
tp1790
F0.0016433853738701725
s(S'later'
p1791
S'left'
p1792
S'[[det]]'
p1793
tp1794
F0.0008216926869350862
s(S'has'
p1795
S'represented'
p1796
S'[[con]]'
p1797
tp1798
F0.0008216926869350862
s(S'was'
p1799
S'appointed'
p1800
S'where'
p1801
tp1802
F0.0008216926869350862
s(g779
g780
S'returned'
p1803
tp1804
F0.0008216926869350862
s(S'then'
p1805
S'returned'
p1806
S'with'
p1807
tp1808
F0.0008216926869350862
s(S'had'
p1809
S'led'
p1810
S'[[det]]'
p1811
tp1812
F0.0008216926869350862
s(S'then'
p1813
S'left'
p1814
S'[[con]]'
p1815
tp1816
F0.0008216926869350862
s(S'[[mod]]'
p1817
S'join'
p1818
S'up'
p1819
tp1820
F0.0008216926869350862
s(S'to'
p1821
S'command'
p1822
S'[[det]]'
p1823
tp1824
F0.0008216926869350862
s(S'served'
p1825
S'as'
p1826
S'officer'
p1827
tp1828
F0.0016433853738701725
s(S'later'
p1829
S'appointed'
p1830
S'[[pro]]'
p1831
tp1832
F0.0008216926869350862
s(S'assumed'
p1833
S'[[adj]]'
p1834
S'command'
p1835
tp1836
F0.0008216926869350862
s(S'is'
p1837
S'appointed'
p1838
S'[[con]]'
p1839
tp1840
F0.0008216926869350862
s(S'also'
p1841
S'attended'
p1842
S'[[det]]'
p1843
tp1844
F0.0008216926869350862
s(S'[[adj]]'
p1845
S'serving'
p1846
S'on'
p1847
tp1848
F0.0008216926869350862
s(S'[[det]]'
p1849
S'returned'
p1850
S'to'
p1851
tp1852
F0.0008216926869350862
s(S'as'
p1853
S'head'
p1854
S'of'
p1855
tp1856
F0.0008216926869350862
s(S'[[num]]'
p1857
S'served'
p1858
S'on'
p1859
tp1860
F0.0008216926869350862
s(S'[[det]]'
p1861
S'commander'
p1862
S'[[con]]'
p1863
tp1864
F0.0008216926869350862
s(S'[[adj]]'
p1865
S'member'
p1866
S'for'
p1867
tp1868
F0.0008216926869350862
s(S'also'
p1869
S'called'
p1870
S'up'
p1871
tp1872
F0.0008216926869350862
s(S'currently'
p1873
S'serving'
p1874
S'on'
p1875
tp1876
F0.0008216926869350862
s(S'[[adj]]'
p1877
S'transfer'
p1878
S'from'
p1879
tp1880
F0.0008216926869350862
s(S'[[pro]]'
p1881
S'led'
p1882
S'[[det]]'
p1883
tp1884
F0.0008216926869350862
s(S'was'
p1885
S'transferred'
p1886
S'as'
p1887
tp1888
F0.0008216926869350862
s(S'has'
p1889
S'served'
p1890
S'for'
p1891
tp1892
F0.0008216926869350862
s(S'was'
p1893
S'joining'
p1894
S'[[det]]'
p1895
tp1896
F0.0008216926869350862
s(S'served'
p1897
g1198
g1199
tp1898
F0.015612161051766639
s(S'first'
p1899
S'called'
p1900
S'up'
p1901
tp1902
F0.0008216926869350862
s(S'also'
p1903
S'served'
p1904
S'[[adj]]'
p1905
tp1906
F0.0008216926869350862
s(S'had'
p1907
S'resigned'
p1908
S'as'
p1909
tp1910
F0.0008216926869350862
s(S'has'
p1911
S'served'
p1912
S'at'
p1913
tp1914
F0.0008216926869350862
s(S'was'
p1915
S'appointed'
p1916
S'[[con]]'
p1917
tp1918
F0.0008216926869350862
s(S'was'
p1919
S'joined'
p1920
S'at'
p1921
tp1922
F0.0008216926869350862
s(g722
g723
S'served'
p1923
tp1924
F0.0016433853738701725
s(S'[[det]]'
p1925
S'served'
p1926
S'in'
p1927
tp1928
F0.0008216926869350862
s(S'[[adj]]'
p1929
S'member'
p1930
S'during'
p1931
tp1932
F0.0008216926869350862
s(S'was'
p1933
S'called'
p1934
S'into'
p1935
tp1936
F0.0008216926869350862
s(S'[[mod]]'
p1937
S'transfer'
p1938
S'to'
p1939
tp1940
F0.0008216926869350862
s(S'been'
p1941
S'appointed'
p1942
S'of'
p1943
tp1944
F0.0008216926869350862
s(S'[[adj]]'
p1945
S'assigned'
p1946
S'as'
p1947
tp1948
F0.0008216926869350862
s(S'been'
p1949
S'serving'
p1950
S'with'
p1951
tp1952
F0.0008216926869350862
s(S'also'
p1953
S'serve'
p1954
S'in'
p1955
tp1956
F0.0008216926869350862
s(S'been'
p1957
S'appointed'
p1958
S'to'
p1959
tp1960
F0.0008216926869350862
s(S'on'
p1961
S'duty'
p1962
S'with'
p1963
tp1964
F0.0008216926869350862
s(S'then'
p1965
S'joined'
p1966
S'with'
p1967
tp1968
F0.0008216926869350862
s(S'then'
p1969
S'appointed'
p1970
S'[[num]]'
p1971
tp1972
F0.0008216926869350862
s(S'was'
p1973
S'member'
p1974
S'[[con]]'
p1975
tp1976
F0.0008216926869350862
s(g1777
g1778
S'joined'
p1977
tp1978
F0.0008216926869350862
s(S'[[con]]'
p1979
S'joined'
p1980
S'of'
p1981
tp1982
F0.0016433853738701725
s(S'sergeant'
p1983
g545
g546
tp1984
F0.0016433853738701725
s(S'made'
p1985
S'head'
p1986
S'of'
p1987
tp1988
F0.0008216926869350862
s(S'then'
p1989
S'appointed'
p1990
S'[[pro]]'
p1991
tp1992
F0.0008216926869350862
s(S'also'
p1993
S'represented'
p1994
S'to'
p1995
tp1996
F0.0008216926869350862
s(S'served'
p1997
S'[[con]]'
p1998
S'[[det]]'
p1999
tp2000
F0.0049301561216105174
s(S'[[adj]]'
p2001
S'number'
p2002
S'[[con]]'
p2003
tp2004
F0.0008216926869350862
s(S'[[adj]]'
p2005
S'attended'
p2006
S'[[det]]'
p2007
tp2008
F0.0008216926869350862
s(S'[[det]]'
p2009
S'years'
p2010
S'of'
p2011
tp2012
F0.0008216926869350862
s(S'[[det]]'
p2013
S'member'
p2014
S'who'
p2015
tp2016
F0.0008216926869350862
s(S'[[con]]'
p2017
S'retired'
p2018
S'from'
p2019
tp2020
F0.0008216926869350862
s(S'later'
p2021
S'appointed'
p2022
S'as'
p2023
tp2024
F0.0008216926869350862
s(S'[[det]]'
p2025
S'commission'
p2026
S'in'
p2027
tp2028
F0.0008216926869350862
s(S'then'
p2029
S'appointed'
p2030
S'to'
p2031
tp2032
F0.0008216926869350862
s(S'been'
p2033
S'accepted'
p2034
S'into'
p2035
tp2036
F0.0008216926869350862
s(S'first'
p2037
S'attended'
p2038
S'[[det]]'
p2039
tp2040
F0.0008216926869350862
s(S'[[num]]'
p2041
S'member'
p2042
S'of'
p2043
tp2044
F0.0008216926869350862
s(S'had'
p2045
S'served'
p2046
S'[[det]]'
p2047
tp2048
F0.0008216926869350862
s(S'was'
p2049
S'promoted'
p2050
S'[[det]]'
p2051
tp2052
F0.0008216926869350862
s(S'[[mod]]'
p2053
S'join'
p2054
S'at'
p2055
tp2056
F0.0008216926869350862
s(S'also'
p2057
S'represented'
p2058
S'while'
p2059
tp2060
F0.0008216926869350862
s(S'been'
p2061
S'appointed'
p2062
S'as'
p2063
tp2064
F0.0008216926869350862
s(S'[[det]]'
p2065
S'head'
p2066
S'in'
p2067
tp2068
F0.0008216926869350862
s(S'was'
p2069
g299
g300
tp2070
F0.0008216926869350862
s(S'[[con]]'
p2071
S'represented'
p2072
S'[[det]]'
p2073
tp2074
F0.0008216926869350862
s(S'years'
p2075
S'[[adj]]'
p2076
S'[[det]]'
p2077
tp2078
F0.009038619556285949
s(S'[[con]]'
p2079
S'served'
p2080
S'in'
p2081
tp2082
F0.004108463434675432
s(S'[[adj]]'
p2083
S'captain'
p2084
S'of'
p2085
tp2086
F0.0008216926869350862
s(S'then'
p2087
S'joined'
p2088
S'[[con]]'
p2089
tp2090
F0.0008216926869350862
s(S'was'
p2091
S'awarded'
p2092
S'at'
p2093
tp2094
F0.0008216926869350862
s(S'also'
p2095
S'awarded'
p2096
S'[[det]]'
p2097
tp2098
F0.0008216926869350862
s(S'then'
p2099
S'accepted'
p2100
S'into'
p2101
tp2102
F0.0008216926869350862
s(S'was'
p2103
S'transferred'
p2104
S'with'
p2105
tp2106
F0.0008216926869350862
s(S'being'
p2107
S'commissioned'
p2108
S'into'
p2109
tp2110
F0.0008216926869350862
s(S'to'
p2111
S'serve'
p2112
S'[[det]]'
p2113
tp2114
F0.0008216926869350862
s(g1305
g1306
S'in'
p2115
tp2116
F0.0008216926869350862
s(S'had'
p2117
S'served'
p2118
S'with'
p2119
tp2120
F0.0008216926869350862
s(S'be'
p2121
S'promoted'
p2122
S'to'
p2123
tp2124
F0.0008216926869350862
s(S'while'
p2125
S'returned'
p2126
S'to'
p2127
tp2128
F0.0008216926869350862
s(S'[[num]]'
p2129
S'transferred'
p2130
S'to'
p2131
tp2132
F0.0008216926869350862
s(S'who'
p2133
S'graduated'
p2134
S'at'
p2135
tp2136
F0.0008216926869350862
s(g1998
g1999
S'member'
p2137
tp2138
F0.0049301561216105174
s(S'was'
p2139
S'born'
p2140
S'[[con]]'
p2141
tp2142
F0.005751848808545604
s(S'[[con]]'
p2143
S'left'
p2144
S'[[det]]'
p2145
tp2146
F0.0008216926869350862
s(S'then'
p2147
S'led'
p2148
S'[[det]]'
p2149
tp2150
F0.0008216926869350862
s(S'been'
p2151
S'appointed'
p2152
S'[[con]]'
p2153
tp2154
F0.0008216926869350862
s(S'then'
p2155
S'appointed'
p2156
S'at'
p2157
tp2158
F0.0008216926869350862
s(S'had'
p2159
S'served'
p2160
S'on'
p2161
tp2162
F0.0008216926869350862
s(S'was'
p2163
S'accepted'
p2164
S'into'
p2165
tp2166
F0.0008216926869350862
s(S'[[con]]'
p2167
S'consisted'
p2168
S'of'
p2169
tp2170
F0.0008216926869350862
s(S'been'
p2171
S'awarded'
p2172
S'at'
p2173
tp2174
F0.0008216926869350862
s(S'[[det]]'
p2175
S'captain'
p2176
S'for'
p2177
tp2178
F0.0008216926869350862
s(S'was'
p2179
S'called'
p2180
S'in'
p2181
tp2182
F0.0008216926869350862
s(S'[[det]]'
p2183
S'commander'
p2184
S'in'
p2185
tp2186
F0.0016433853738701725
s(S'[[con]]'
p2187
S'assumed'
p2188
S'command'
p2189
tp2190
F0.0008216926869350862
s(S'as'
p2191
S'member'
p2192
S'[[con]]'
p2193
tp2194
F0.0008216926869350862
s(S'being'
p2195
S'appointed'
p2196
S'as'
p2197
tp2198
F0.0008216926869350862
s(S'then'
p2199
S'assigned'
p2200
S'as'
p2201
tp2202
F0.0008216926869350862
s(S'[[det]]'
p2203
S'left'
p2204
S'of'
p2205
tp2206
F0.0008216926869350862
s(S'then'
p2207
S'attended'
p2208
S'[[det]]'
p2209
tp2210
F0.0008216926869350862
s(S'[[con]]'
p2211
S'served'
p2212
S'on'
p2213
tp2214
F0.0024650780608052587
s(S'become'
p2215
S'head'
p2216
S'of'
p2217
tp2218
F0.0008216926869350862
s(S'was'
p2219
S'appointed'
p2220
S'at'
p2221
tp2222
F0.0008216926869350862
s(S'took'
p2223
S'[[num]]'
p2224
S'years'
p2225
tp2226
F0.0008216926869350862
s(S'graduated'
p2227
g1272
g1273
tp2228
F0.0016433853738701725
s(S'[[con]]'
p2229
S'returned'
p2230
S'on'
p2231
tp2232
F0.0008216926869350862
s(S'be'
p2233
S'appointed'
p2234
S'at'
p2235
tp2236
F0.0008216926869350862
s(S'then'
p2237
S'rejoined'
p2238
S'[[det]]'
p2239
tp2240
F0.0008216926869350862
s(S'as'
p2241
S'commander'
p2242
S'of'
p2243
tp2244
F0.0016433853738701725
s(S'[[det]]'
p2245
S'member'
p2246
S'[[num]]'
p2247
tp2248
F0.0008216926869350862
s(S'was'
p2249
S'appointed'
p2250
S'in'
p2251
tp2252
F0.0008216926869350862
s(S'later'
p2253
S'awarded'
p2254
S'from'
p2255
tp2256
F0.0008216926869350862
s(S'[[num]]'
p2257
S'awarded'
p2258
S'by'
p2259
tp2260
F0.0008216926869350862
s(S'[[det]]'
p2261
S'soldier'
p2262
S'in'
p2263
tp2264
F0.0008216926869350862
s(S'officer'
p2265
S'[[con]]'
p2266
S'served'
p2267
tp2268
F0.0008216926869350862
s(S'was'
p2269
S'commissioned'
p2270
S'as'
p2271
tp2272
F0.003286770747740345
s(S'again'
p2273
S'returned'
p2274
S'to'
p2275
tp2276
F0.0008216926869350862
s(S'[[det]]'
p2277
S'serving'
p2278
S'in'
p2279
tp2280
F0.0008216926869350862
s(S'had'
p2281
S'resigned'
p2282
S'from'
p2283
tp2284
F0.0008216926869350862
s(S'was'
p2285
S'awarded'
p2286
S'as'
p2287
tp2288
F0.0008216926869350862
s(S'years'
p2289
S'[[adj]]'
p2290
S'thbrigadesupportbattalionuunitedstatesu'
p2291
tp2292
F0.0008216926869350862
s(S'[[adj]]'
p2293
S'pilot'
p2294
S'in'
p2295
tp2296
F0.0008216926869350862
s(S'before'
p2297
S'joining'
p2298
S'[[con]]'
p2299
tp2300
F0.0008216926869350862
s(S'in'
p2301
S'[[num]]'
p2302
S'took'
p2303
tp2304
F0.0008216926869350862
s(S'[[adj]]'
p2305
S'attended'
p2306
S'at'
p2307
tp2308
F0.0008216926869350862
s(g1023
g1024
S'to'
p2309
tp2310
F0.0008216926869350862
s(S'then'
p2311
S'joined'
p2312
S'on'
p2313
tp2314
F0.0008216926869350862
s(S'again'
p2315
S'led'
p2316
S'[[det]]'
p2317
tp2318
F0.0008216926869350862
s(S'was'
p2319
S'awarded'
p2320
S'[[num]]'
p2321
tp2322
F0.0008216926869350862
s(S'later'
p2323
S'appointed'
p2324
S'of'
p2325
tp2326
F0.0008216926869350862
s(S'[[det]]'
p2327
S'unit'
p2328
S'in'
p2329
tp2330
F0.0008216926869350862
s(S'[[adj]]'
p2331
S'appointed'
p2332
S'as'
p2333
tp2334
F0.0008216926869350862
s(S'served'
p2335
S'as'
p2336
S'member'
p2337
tp2338
F0.004108463434675432
s(S'continued'
p2339
S'working'
p2340
S'for'
p2341
tp2342
F0.0008216926869350862
s(S'then'
p2343
S'graduated'
p2344
S'from'
p2345
tp2346
F0.0008216926869350862
s(S'[[num]]'
p2347
S'served'
p2348
S'for'
p2349
tp2350
F0.0008216926869350862
s(S'had'
p2351
S'represented'
p2352
S'[[det]]'
p2353
tp2354
F0.0008216926869350862
s(g300
g301
S'of'
p2355
tp2356
F0.0008216926869350862
s(S'joined'
p2357
S'[[con]]'
p2358
S'later'
p2359
tp2360
F0.0008216926869350862
s(S'is'
p2361
S'returned'
p2362
S'to'
p2363
tp2364
F0.0008216926869350862
s(S'formerly'
p2365
S'served'
p2366
S'for'
p2367
tp2368
F0.0008216926869350862
s(S'[[adj]]'
p2369
S'member'
p2370
S'[[adj]]'
p2371
tp2372
F0.0008216926869350862
s(S'[[adj]]'
p2373
S'joining'
p2374
S'[[det]]'
p2375
tp2376
F0.0008216926869350862
s(S'then'
p2377
S'head'
p2378
S'of'
p2379
tp2380
F0.0008216926869350862
s(S'was'
p2381
g509
g510
tp2382
F0.0008216926869350862
s(S'sergeant'
p2383
S'in'
p2384
S'took'
p2385
tp2386
F0.0008216926869350862
s(S'was'
p2387
S'appointed'
p2388
S'[[adj]]'
p2389
tp2390
F0.0008216926869350862
s(S'also'
p2391
S'served'
p2392
S'for'
p2393
tp2394
F0.0008216926869350862
s(S'then'
p2395
S'joined'
p2396
S'of'
p2397
tp2398
F0.0008216926869350862
s(S'later'
p2399
S'commanded'
p2400
S'[[det]]'
p2401
tp2402
F0.0008216926869350862
s(S'is'
p2403
S'appointed'
p2404
S'at'
p2405
tp2406
F0.0008216926869350862
s(S'also'
p2407
S'served'
p2408
S'[[con]]'
p2409
tp2410
F0.0024650780608052587
s(S'became'
p2411
S'head'
p2412
S'for'
p2413
tp2414
F0.0008216926869350862
s(S'[[adj]]'
p2415
S'unit'
p2416
S'[[det]]'
p2417
tp2418
F0.0008216926869350862
s(S'been'
p2419
S'accepted'
p2420
S'to'
p2421
tp2422
F0.0008216926869350862
s(S'[[det]]'
p2423
S'member'
p2424
S'has'
p2425
tp2426
F0.0008216926869350862
s(S'[[num]]'
p2427
S'represented'
p2428
S'in'
p2429
tp2430
F0.0008216926869350862
s(S'currently'
p2431
S'serving'
p2432
S'[[con]]'
p2433
tp2434
F0.0008216926869350862
s(S'member'
p2435
S'of'
p2436
S'[[det]]'
p2437
tp2438
F0.0008216926869350862
s(S'commissioned'
p2439
g1118
g1119
tp2440
F0.0008216926869350862
s(S'had'
p2441
S'transferred'
p2442
S'to'
p2443
tp2444
F0.0008216926869350862
s(S'then'
p2445
S'accepted'
p2446
S'at'
p2447
tp2448
F0.0008216926869350862
s(S'[[con]]'
p2449
S'led'
p2450
S'[[det]]'
p2451
tp2452
F0.0008216926869350862
s(S'graduated'
p2453
S'then'
p2454
S'served'
p2455
tp2456
F0.0008216926869350862
s(S'be'
p2457
S'appointed'
p2458
S'as'
p2459
tp2460
F0.0008216926869350862
s(S'[[adj]]'
p2461
S'formation'
p2462
S'[[con]]'
p2463
tp2464
F0.0008216926869350862
s(S'where'
p2465
S'served'
p2466
S'in'
p2467
tp2468
F0.0008216926869350862
s(S'was'
p2469
S'captain'
p2470
S'of'
p2471
tp2472
F0.0008216926869350862
s(S'who'
p2473
S'served'
p2474
S'as'
p2475
tp2476
F0.0008216926869350862
s(S'member'
p2477
S'[[con]]'
p2478
S'served'
p2479
tp2480
F0.0024650780608052587
s(S'[[num]]'
p2481
S'years'
p2482
S'for'
p2483
tp2484
F0.0008216926869350862
s(g90
g91
S'with'
p2485
tp2486
F0.0008216926869350862
s(S'was'
p2487
S'promoted'
p2488
S'as'
p2489
tp2490
F0.0008216926869350862
s(S'to'
p2491
S'serve'
p2492
S'with'
p2493
tp2494
F0.0008216926869350862
s(S'then'
p2495
S'attended'
p2496
S'[[con]]'
p2497
tp2498
F0.0008216926869350862
s(S'while'
p2499
S'serving'
p2500
S'in'
p2501
tp2502
F0.0008216926869350862
s(S'was'
p2503
S'awarded'
p2504
S'[[adj]]'
p2505
tp2506
F0.0008216926869350862
s(S'served'
p2507
S'[[con]]'
p2508
S'joined'
p2509
tp2510
F0.0008216926869350862
s(S'has'
p2511
S'attended'
p2512
S'[[det]]'
p2513
tp2514
F0.0008216926869350862
s(S'commissioned'
p2515
S'lieutenant'
p2516
S'in'
p2517
tp2518
F0.0008216926869350862
s(S'was'
p2519
g1744
g1745
tp2520
F0.003286770747740345
s(S'was'
p2521
S'awarded'
p2522
S'during'
p2523
tp2524
F0.0008216926869350862
s(S'[[con]]'
p2525
S'returned'
p2526
S'at'
p2527
tp2528
F0.0008216926869350862
s(S'also'
p2529
S'attended'
p2530
S'[[con]]'
p2531
tp2532
F0.0008216926869350862
s(S'with'
p2533
S'joined'
p2534
S'[[det]]'
p2535
tp2536
F0.0008216926869350862
s(S'[[det]]'
p2537
S'member'
p2538
S'to'
p2539
tp2540
F0.0008216926869350862
s(S'also'
p2541
S'represented'
p2542
S'on'
p2543
tp2544
F0.0008216926869350862
s(S'[[det]]'
p2545
S'commander'
p2546
S'[[det]]'
p2547
tp2548
F0.0008216926869350862
s(S'was'
p2549
S'appointed'
p2550
S'[[prp]]'
p2551
tp2552
F0.0008216926869350862
s(S'assumed'
p2553
S'command'
p2554
S'in'
p2555
tp2556
F0.0008216926869350862
s(g837
g838
S'lieutenant'
p2557
tp2558
F0.0016433853738701725
s(S'[[det]]'
p2559
S'officer'
p2560
S'of'
p2561
tp2562
F0.0016433853738701725
s(S'been'
p2563
S'awarded'
p2564
S'from'
p2565
tp2566
F0.0008216926869350862
s(S'currently'
p2567
S'serving'
p2568
S'as'
p2569
tp2570
F0.0008216926869350862
s(S'later'
p2571
S'awarded'
p2572
S'[[det]]'
p2573
tp2574
F0.0008216926869350862
s(S'was'
p2575
S'promoted'
p2576
S'from'
p2577
tp2578
F0.0008216926869350862
s(S'to'
p2579
S'serve'
p2580
S'in'
p2581
tp2582
F0.0008216926869350862
s(S'[[adj]]'
p2583
S'years'
p2584
S'of'
p2585
tp2586
F0.0008216926869350862
s(S'[[det]]'
p2587
S'number'
p2588
S'for'
p2589
tp2590
F0.0008216926869350862
s(S'then'
p2591
S'transferred'
p2592
S'to'
p2593
tp2594
F0.0008216926869350862
s(S'when'
p2595
S'attended'
p2596
S'[[det]]'
p2597
tp2598
F0.0008216926869350862
s(S'is'
p2599
S'member'
p2600
S'[[det]]'
p2601
tp2602
F0.0008216926869350862
s(S'commissioned'
p2603
g1066
g1067
tp2604
F0.0016433853738701725
s(S'to'
p2605
S'serve'
p2606
S'at'
p2607
tp2608
F0.0008216926869350862
s(S'[[num]]'
p2609
S'served'
p2610
S'in'
p2611
tp2612
F0.0008216926869350862
s(S'which'
p2613
S'returned'
p2614
S'to'
p2615
tp2616
F0.0008216926869350862
s(S'years'
p2617
g133
g134
tp2618
F0.003286770747740345
s(S'born'
p2619
S'[[con]]'
p2620
S'served'
p2621
tp2622
F0.0024650780608052587
s(S'then'
p2623
S'appointed'
p2624
S'of'
p2625
tp2626
F0.0008216926869350862
s(g1788
g1789
S'took'
p2627
tp2628
F0.003286770747740345
s(S'then'
p2629
S'left'
p2630
S'[[det]]'
p2631
tp2632
F0.0008216926869350862
s(S'when'
p2633
S'led'
p2634
S'[[det]]'
p2635
tp2636
F0.0008216926869350862
s(S'then'
p2637
S'joined'
p2638
S'[[det]]'
p2639
tp2640
F0.0016433853738701725
s(S'was'
p2641
S'member'
p2642
S'[[num]]'
p2643
tp2644
F0.0008216926869350862
s(S'for'
p2645
S'[[det]]'
p2646
S'member'
p2647
tp2648
F0.0008216926869350862
s(S'has'
p2649
S'represented'
p2650
S'[[det]]'
p2651
tp2652
F0.0008216926869350862
s(S'[[con]]'
p2653
S'resigned'
p2654
S'from'
p2655
tp2656
F0.0008216926869350862
s(S'was'
p2657
S'transferred'
p2658
S'back'
p2659
tp2660
F0.0008216926869350862
s(S'[[adj]]'
p2661
S'appointed'
p2662
S'to'
p2663
tp2664
F0.0008216926869350862
s(S'also'
p2665
S'attended'
p2666
S'at'
p2667
tp2668
F0.0008216926869350862
s(S'[[adj]]'
p2669
S'unit'
p2670
S'of'
p2671
tp2672
F0.0008216926869350862
s(S'[[det]]'
p2673
S'officer'
p2674
S'in'
p2675
tp2676
F0.0016433853738701725
s(S'was'
p2677
g2515
g2516
tp2678
F0.0008216926869350862
s(S'is'
p2679
S'transferred'
p2680
S'to'
p2681
tp2682
F0.0008216926869350862
s(S'to'
p2683
S'join'
p2684
S'[[det]]'
p2685
tp2686
F0.0008216926869350862
s(S'resigned'
p2687
S'[[con]]'
p2688
S'joined'
p2689
tp2690
F0.0016433853738701725
s(S'had'
p2691
S'left'
p2692
S'[[det]]'
p2693
tp2694
F0.0008216926869350862
s(S'was'
p2695
S'transferred'
p2696
S'from'
p2697
tp2698
F0.0008216926869350862
s(S'been'
p2699
S'assigned'
p2700
S'to'
p2701
tp2702
F0.0008216926869350862
s(S'[[adj]]'
p2703
S'sections'
p2704
S'of'
p2705
tp2706
F0.0008216926869350862
s(S'to'
p2707
S'captain'
p2708
S'[[det]]'
p2709
tp2710
F0.0008216926869350862
s(S'[[det]]'
p2711
S'head'
p2712
S'of'
p2713
tp2714
F0.0008216926869350862
s(S'[[adj]]'
p2715
S'[[det]]'
p2716
S'sergeant'
p2717
tp2718
F0.0049301561216105174
s(S'was'
p2719
S'graduated'
p2720
S'from'
p2721
tp2722
F0.0008216926869350862
s(S'currently'
p2723
S'serving'
p2724
S'in'
p2725
tp2726
F0.0008216926869350862
s(S'has'
p2727
S'served'
p2728
S'where'
p2729
tp2730
F0.0008216926869350862
s(S'appointed'
p2731
S'[[det]]'
p2732
S'commander'
p2733
tp2734
F0.0008216926869350862
s(S'[[det]]'
p2735
S'soldier'
p2736
S'of'
p2737
tp2738
F0.0008216926869350862
s(S'[[con]]'
p2739
S'served'
p2740
S'for'
p2741
tp2742
F0.0016433853738701725
s(S'was'
p2743
S'called'
p2744
S'with'
p2745
tp2746
F0.0008216926869350862
s(S'[[adj]]'
p2747
S'[[det]]'
p2748
S'captain'
p2749
tp2750
F0.0016433853738701725
s(S'[[det]]'
p2751
S'awarded'
p2752
S'by'
p2753
tp2754
F0.0008216926869350862
s(S'was'
p2755
S'appointed'
p2756
S'[[num]]'
p2757
tp2758
F0.0008216926869350862
s(S'first'
p2759
S'joined'
p2760
S'[[con]]'
p2761
tp2762
F0.0008216926869350862
s(S'is'
p2763
S'awarded'
p2764
S'by'
p2765
tp2766
F0.0008216926869350862
s(S'had'
p2767
S'joined'
p2768
S'of'
p2769
tp2770
F0.0008216926869350862
s(S'was'
p2771
S'captain'
p2772
S'in'
p2773
tp2774
F0.0008216926869350862
s(S'[[con]]'
p2775
S'serving'
p2776
S'at'
p2777
tp2778
F0.0008216926869350862
s(S'was'
p2779
S'captain'
p2780
S'for'
p2781
tp2782
F0.0008216926869350862
s(S'also'
p2783
S'attended'
p2784
S'for'
p2785
tp2786
F0.0008216926869350862
s(S'as'
p2787
S'member'
p2788
S'of'
p2789
tp2790
F0.0024650780608052587
s(g566
g567
S'in'
p2791
tp2792
F0.0008216926869350862
s(S'nominated'
p2793
S'to'
p2794
g45
tp2795
F0.0008216926869350862
s(S'was'
p2796
S'retired'
p2797
S'from'
p2798
tp2799
F0.0008216926869350862
s(S'be'
p2800
S'awarded'
p2801
S'during'
p2802
tp2803
F0.0008216926869350862
s(S'which'
p2804
S'led'
p2805
S'[[det]]'
p2806
tp2807
F0.0008216926869350862
s(S'[[adj]]'
p2808
S'regiment'
p2809
S'in'
p2810
tp2811
F0.0008216926869350862
s(S'[[adj]]'
p2812
S'formation'
p2813
S'of'
p2814
tp2815
F0.0008216926869350862
s(S'[[adj]]'
p2816
S'regiment'
p2817
S'of'
p2818
tp2819
F0.0008216926869350862
s(S'[[con]]'
p2820
S'joined'
p2821
S'at'
p2822
tp2823
F0.0008216926869350862
s(S'was'
p2824
S'appointed'
p2825
S'to'
p2826
tp2827
F0.0008216926869350862
s(S'was'
p2828
S'commissioned'
p2829
S'into'
p2830
tp2831
F0.0008216926869350862
s(S'promoted'
p2832
S'in'
p2833
S'command'
p2834
tp2835
F0.0008216926869350862
s(S'then'
p2836
S'served'
p2837
S'as'
p2838
tp2839
F0.0008216926869350862
s(S'later'
p2840
S'appointed'
p2841
S'[[det]]'
p2842
tp2843
F0.0008216926869350862
s(S'was'
p2844
S'appointed'
p2845
S'for'
p2846
tp2847
F0.0008216926869350862
s(S'[[num]]'
p2848
S'graduated'
p2849
S'from'
p2850
tp2851
F0.0008216926869350862
s(S'[[det]]'
p2852
S'serving'
p2853
S'with'
p2854
tp2855
F0.0008216926869350862
s(S'[[adj]]'
p2856
S'member'
p2857
S'in'
p2858
tp2859
F0.0008216926869350862
s(S'[[det]]'
p2860
S'number'
p2861
S'at'
p2862
tp2863
F0.0008216926869350862
s(S'after'
p2864
S'serving'
p2865
S'in'
p2866
tp2867
F0.0008216926869350862
s(S'[[adj]]'
p2868
S'served'
p2869
S'at'
p2870
tp2871
F0.0008216926869350862
s(S'[[adj]]'
p2872
S'member'
p2873
S'[[num]]'
p2874
tp2875
F0.0008216926869350862
s(S'also'
p2876
S'served'
p2877
S'[[num]]'
p2878
tp2879
F0.0024650780608052587
s(S'had'
p2880
S'served'
p2881
S'as'
p2882
tp2883
F0.0008216926869350862
s(S'[[con]]'
p2884
S'served'
p2885
S'[[det]]'
p2886
tp2887
F0.0008216926869350862
s(S'before'
p2888
S'going'
p2889
S'to'
p2890
tp2891
F0.0008216926869350862
s(S'[[adj]]'
p2892
S'member'
p2893
S'at'
p2894
tp2895
F0.0008216926869350862
s(S'never'
p2896
S'left'
p2897
S'[[det]]'
p2898
tp2899
F0.0008216926869350862
s(S'returned'
p2900
S'where'
p2901
S'joined'
p2902
tp2903
F0.0008216926869350862
s(S'now'
p2904
S'called'
p2905
S'[[det]]'
p2906
tp2907
F0.0008216926869350862
s(S'formerly'
p2908
S'served'
p2909
S'in'
p2910
tp2911
F0.0008216926869350862
s(S'later'
p2912
S'attended'
p2913
S'at'
p2914
tp2915
F0.0008216926869350862
s(S'also'
p2916
S'member'
p2917
S'of'
p2918
tp2919
F0.0008216926869350862
s(S'[[num]]'
p2920
S'years'
p2921
S'[[num]]'
p2922
tp2923
F0.0008216926869350862
s(S'appointed'
p2924
S'commander'
p2925
S'[[con]]'
p2926
tp2927
F0.0008216926869350862
s(S'joined'
p2928
S'[[con]]'
p2929
S'graduated'
p2930
tp2931
F0.0008216926869350862
s(S'first'
p2932
S'appointed'
p2933
S'to'
p2934
tp2935
F0.0008216926869350862
s(S'[[det]]'
p2936
S'member'
p2937
S'[[adj]]'
p2938
tp2939
F0.0008216926869350862
s(S'also'
p2940
S'served'
p2941
S'to'
p2942
tp2943
F0.0008216926869350862
s(g849
g850
S'[[adj]]'
p2944
tp2945
F0.0016433853738701725
s(S'also'
p2946
S'awarded'
p2947
S'by'
p2948
tp2949
F0.0008216926869350862
s(S'[[prp]]'
p2950
S'transfer'
p2951
S'to'
p2952
tp2953
F0.0008216926869350862
s(S'first'
p2954
S'represented'
p2955
S'for'
p2956
tp2957
F0.0008216926869350862
s(S'is'
p2958
S'serving'
p2959
S'as'
p2960
tp2961
F0.0008216926869350862
s(S'being'
p2962
S'commissioned'
p2963
S'in'
p2964
tp2965
F0.0008216926869350862
s(S'[[adj]]'
p2966
S'serving'
p2967
S'[[con]]'
p2968
tp2969
F0.0008216926869350862
s(S'later'
p2970
S'entered'
p2971
S'[[det]]'
p2972
tp2973
F0.0008216926869350862
s(S'also'
p2974
S'appointed'
p2975
S'to'
p2976
tp2977
F0.0008216926869350862
s(S'was'
p2978
S'appointed'
p2979
S'was'
p2980
tp2981
F0.0008216926869350862
s(S'then'
p2982
S'returned'
p2983
S'[[con]]'
p2984
tp2985
F0.0008216926869350862
s(S'[[adj]]'
p2986
S'years'
p2987
S'[[con]]'
p2988
tp2989
F0.0008216926869350862
s(g780
g1803
S'to'
p2990
tp2991
F0.0008216926869350862
s(S'has'
p2992
S'joined'
p2993
S'[[det]]'
p2994
tp2995
F0.0008216926869350862
s(S'[[con]]'
p2996
S'joining'
p2997
S'[[det]]'
p2998
tp2999
F0.0008216926869350862
s(S'[[det]]'
p3000
S'officer'
p3001
S'with'
p3002
tp3003
F0.0008216926869350862
s(S'[[con]]'
p3004
S'member'
p3005
S'[[det]]'
p3006
tp3007
F0.0008216926869350862
s(S'to'
p3008
S'serve'
p3009
S'on'
p3010
tp3011
F0.0008216926869350862
s(S'then'
p3012
S'attended'
p3013
S'of'
p3014
tp3015
F0.0008216926869350862
s(S'as'
p3016
S'led'
p3017
S'[[det]]'
p3018
tp3019
F0.0008216926869350862
s(S'[[mod]]'
p3020
S'serve'
p3021
S'[[det]]'
p3022
tp3023
F0.0008216926869350862
s(S'had'
p3024
S'served'
p3025
S'in'
p3026
tp3027
F0.0008216926869350862
s(S'[[con]]'
p3028
S'entered'
p3029
S'[[det]]'
p3030
tp3031
F0.0008216926869350862
s(S'[[det]]'
p3032
S'sergeant'
p3033
S'in'
p3034
tp3035
F0.0049301561216105174
s(g2436
g2437
S'served'
p3036
tp3037
F0.0008216926869350862
s(S'has'
p3038
S'returned'
p3039
S'to'
p3040
tp3041
F0.0008216926869350862
s(S'given'
p3042
S'command'
p3043
S'of'
p3044
tp3045
F0.0008216926869350862
s(S'been'
p3046
S'commissioned'
p3047
S'as'
p3048
tp3049
F0.0008216926869350862
s(S'soon'
p3050
S'left'
p3051
S'[[det]]'
p3052
tp3053
F0.0008216926869350862
s(S'[[con]]'
p3054
S'joined'
p3055
S'[[adj]]'
p3056
tp3057
F0.0008216926869350862
s(S'served'
p3058
g2645
g2646
tp3059
F0.0008216926869350862
s(g2794
g45
g46
tp3060
F0.0008216926869350862
s(S'[[num]]'
p3061
S'years'
p3062
S'[[adj]]'
p3063
tp3064
F0.018898931799506986
s(S'originally'
p3065
S'raised'
p3066
S'as'
p3067
tp3068
F0.0008216926869350862
s(S'later'
p3069
S'joined'
p3070
S'[[det]]'
p3071
tp3072
F0.0016433853738701725
s(S'served'
p3073
S'[[det]]'
p3074
S'member'
p3075
tp3076
F0.0008216926869350862
s(g738
g125
g126
tp3077
F0.0008216926869350862
s(g2358
g2359
S'served'
p3078
tp3079
F0.0008216926869350862
s(S'had'
p3080
S'retired'
p3081
S'from'
p3082
tp3083
F0.0008216926869350862
s(S'later'
p3084
S'returned'
p3085
S'to'
p3086
tp3087
F0.0008216926869350862
s(S'when'
p3088
S'transferred'
p3089
S'to'
p3090
tp3091
F0.0008216926869350862
s(S'[[adj]]'
p3092
S'joined'
p3093
S'[[det]]'
p3094
tp3095
F0.0008216926869350862
s(S'also'
p3096
S'appointed'
p3097
S'for'
p3098
tp3099
F0.0008216926869350862
s(S'[[con]]'
p3100
S'appointed'
p3101
S'of'
p3102
tp3103
F0.0008216926869350862
s(S'have'
p3104
S'attended'
p3105
S'[[det]]'
p3106
tp3107
F0.0008216926869350862
s(S'[[det]]'
p3108
S'commander'
p3109
S'of'
p3110
tp3111
F0.003286770747740345
s(S'been'
p3112
S'appointed'
p3113
S'[[det]]'
p3114
tp3115
F0.0008216926869350862
s(S'later'
p3116
S'assigned'
p3117
S'to'
p3118
tp3119
F0.0008216926869350862
s(S'been'
p3120
S'awarded'
p3121
S'[[det]]'
p3122
tp3123
F0.0008216926869350862
s(S'was'
p3124
S'assigned'
p3125
S'[[det]]'
p3126
tp3127
F0.0008216926869350862
s(S'where'
p3128
S'led'
p3129
S'[[det]]'
p3130
tp3131
F0.0008216926869350862
s(S'then'
p3132
S'promoted'
p3133
S'[[det]]'
p3134
tp3135
F0.0008216926869350862
s(S'was'
p3136
S'head'
p3137
S'to'
p3138
tp3139
F0.0008216926869350862
s(S'was'
p3140
S'commissioned'
p3141
S'from'
p3142
tp3143
F0.0008216926869350862
s(S'[[det]]'
p3144
S'assigned'
p3145
S'to'
p3146
tp3147
F0.0008216926869350862
s(S'was'
p3148
S'born'
p3149
S'into'
p3150
tp3151
F0.0008216926869350862
s(S'been'
p3152
S'appointed'
p3153
S'for'
p3154
tp3155
F0.0008216926869350862
s(S'[[num]]'
p3156
S'joined'
p3157
S'[[det]]'
p3158
tp3159
F0.0008216926869350862
s(S'was'
p3160
S'number'
p3161
S'[[num]]'
p3162
tp3163
F0.0008216926869350862
s(S'served'
p3164
g157
g158
tp3165
F0.0008216926869350862
s(S'was'
p3166
g69
g70
tp3167
F0.0024650780608052587
s(S'later'
p3168
S'attended'
p3169
S'of'
p3170
tp3171
F0.0008216926869350862
s(S'then'
p3172
S'appointed'
p3173
S'as'
p3174
tp3175
F0.0008216926869350862
s(S'[[det]]'
p3176
S'formation'
p3177
S'of'
p3178
tp3179
F0.0008216926869350862
s(g1353
g1354
S'in'
p3180
tp3181
F0.0008216926869350862
s(S'was'
p3182
S'member'
p3183
S'in'
p3184
tp3185
F0.0008216926869350862
s(S'then'
p3186
S'served'
p3187
S'[[det]]'
p3188
tp3189
F0.0008216926869350862
s(S'was'
p3190
S'head'
p3191
S'of'
p3192
tp3193
F0.0008216926869350862
s(S'[[adj]]'
p3194
S'duty'
p3195
S'with'
p3196
tp3197
F0.0008216926869350862
s(S'since'
p3198
S'left'
p3199
S'[[det]]'
p3200
tp3201
F0.0008216926869350862
s(S'[[adj]]'
p3202
S'officer'
p3203
S'at'
p3204
tp3205
F0.0008216926869350862
s(S'was'
p3206
S'assigned'
p3207
S'as'
p3208
tp3209
F0.0008216926869350862
s(S'was'
p3210
S'promoted'
p3211
S'to'
p3212
tp3213
F0.0016433853738701725
s(S'has'
p3214
S'served'
p3215
S'to'
p3216
tp3217
F0.0008216926869350862
s(S'first'
p3218
S'appointed'
p3219
S'as'
p3220
tp3221
F0.0008216926869350862
s(S'has'
p3222
S'attended'
p3223
S'[[con]]'
p3224
tp3225
F0.0008216926869350862
s(S'later'
p3226
S'served'
p3227
S'[[con]]'
p3228
tp3229
F0.0008216926869350862
s(S'was'
p3230
S'awarded'
p3231
S'by'
p3232
tp3233
F0.0008216926869350862
s(S'became'
p3234
S'member'
p3235
S'for'
p3236
tp3237
F0.0008216926869350862
s(S'also'
p3238
S'led'
p3239
S'[[con]]'
p3240
tp3241
F0.0008216926869350862
s(S'[[adj]]'
p3242
S'member'
p3243
S'[[con]]'
p3244
tp3245
F0.0008216926869350862
s(g865
g866
S'commander'
p3246
tp3247
F0.0024650780608052587
s(S'promoted'
p3248
g251
g252
tp3249
F0.0008216926869350862
s(S'was'
p3250
S'resigned'
p3251
S'by'
p3252
tp3253
F0.0008216926869350862
s(g2076
g2077
S'lieutenant'
p3254
tp3255
F0.0016433853738701725
s(g46
g47
S'judge'
p3256
tp3257
F0.0008216926869350862
s(S'first'
p3258
S'represented'
p3259
S'[[det]]'
p3260
tp3261
F0.0008216926869350862
s(S'was'
p3262
S'assigned'
p3263
S'with'
p3264
tp3265
F0.0008216926869350862
s(S'[[det]]'
p3266
S'member'
p3267
S'[[con]]'
p3268
tp3269
F0.00657354149548069
s(S'been'
p3270
S'awarded'
p3271
S'by'
p3272
tp3273
F0.0008216926869350862
s(S'then'
p3274
S'called'
p3275
S'up'
p3276
tp3277
F0.0008216926869350862
s(g359
g772
S'as'
p3278
tp3279
F0.0008216926869350862
s(S'to'
p3280
S'enlist'
p3281
S'in'
p3282
tp3283
F0.0008216926869350862
s(S'[[con]]'
p3284
S'left'
p3285
S'to'
p3286
tp3287
F0.0008216926869350862
s(S'be'
p3288
S'appointed'
p3289
S'of'
p3290
tp3291
F0.0008216926869350862
s(S'was'
p3292
S'promoted'
p3293
S'at'
p3294
tp3295
F0.0008216926869350862
s(S'was'
p3296
S'separated'
p3297
S'from'
p3298
tp3299
F0.0008216926869350862
s(S'were'
p3300
S'promoted'
p3301
S'as'
p3302
tp3303
F0.0008216926869350862
s(S'first'
p3304
S'joined'
p3305
S'[[det]]'
p3306
tp3307
F0.0008216926869350862
s(S'when'
p3308
S'left'
p3309
S'[[det]]'
p3310
tp3311
F0.0008216926869350862
s(S'then'
p3312
S'appointed'
p3313
S'[[adj]]'
p3314
tp3315
F0.0008216926869350862
s(S'then'
p3316
S'entered'
p3317
S'[[det]]'
p3318
tp3319
F0.0008216926869350862
s(S'[[adj]]'
p3320
S'years'
p3321
S'with'
p3322
tp3323
F0.0008216926869350862
s(S'[[con]]'
p3324
S'commander'
p3325
S'of'
p3326
tp3327
F0.0008216926869350862
s(S'then'
p3328
S'served'
p3329
S'at'
p3330
tp3331
F0.0008216926869350862
s(S'been'
p3332
S'appointed'
p3333
S'in'
p3334
tp3335
F0.0008216926869350862
s(S'has'
p3336
S'served'
p3337
S'on'
p3338
tp3339
F0.0016433853738701725
s(S'then'
p3340
S'served'
p3341
S'in'
p3342
tp3343
F0.0024650780608052587
s(S'made'
p3344
S'commander'
p3345
S'of'
p3346
tp3347
F0.0008216926869350862
s(S'again'
p3348
S'served'
p3349
S'with'
p3350
tp3351
F0.0008216926869350862
s(S'later'
p3352
S'served'
p3353
S'for'
p3354
tp3355
F0.0008216926869350862
s(S'was'
p3356
S'member'
p3357
S'[[det]]'
p3358
tp3359
F0.0008216926869350862
s(S'[[num]]'
p3360
S'years'
p3361
S'later'
p3362
tp3363
F0.0008216926869350862
s(S'was'
p3364
S'appointed'
p3365
S'on'
p3366
tp3367
F0.0008216926869350862
s(S'currently'
p3368
S'serving'
p3369
S'to'
p3370
tp3371
F0.0008216926869350862
s(S'then'
p3372
S'awarded'
p3373
S'[[det]]'
p3374
tp3375
F0.0008216926869350862
s(S'[[adj]]'
p3376
S'unit'
p3377
S'in'
p3378
tp3379
F0.0008216926869350862
s(S'was'
p3380
S'accepted'
p3381
S'as'
p3382
tp3383
F0.0008216926869350862
s(S'[[adj]]'
p3384
S'officer'
p3385
S'with'
p3386
tp3387
F0.0008216926869350862
s(S'as'
p3388
S'officer'
p3389
S'for'
p3390
tp3391
F0.0008216926869350862
s(S'be'
p3392
S'returned'
p3393
S'to'
p3394
tp3395
F0.0008216926869350862
s(S'[[mod]]'
p3396
S'serve'
p3397
S'in'
p3398
tp3399
F0.0008216926869350862
s(S'be'
p3400
S'called'
p3401
S'up'
p3402
tp3403
F0.0008216926869350862
s(S'was'
p3404
S'appointed'
p3405
S'before'
p3406
tp3407
F0.0008216926869350862
s(S'was'
p3408
S'transferred'
p3409
S'for'
p3410
tp3411
F0.0008216926869350862
s(S'[[det]]'
p3412
S'member'
p3413
S'for'
p3414
tp3415
F0.0008216926869350862
s(S'also'
p3416
S'commanded'
p3417
S'[[det]]'
p3418
tp3419
F0.0008216926869350862
s(S'also'
p3420
S'appointed'
p3421
S'[[det]]'
p3422
tp3423
F0.0008216926869350862
s(S'also'
p3424
S'represented'
p3425
S'[[det]]'
p3426
tp3427
F0.0008216926869350862
s(S'[[det]]'
p3428
S'head'
p3429
S'[[det]]'
p3430
tp3431
F0.0008216926869350862
s(S'while'
p3432
S'joined'
p3433
S'[[det]]'
p3434
tp3435
F0.0008216926869350862
s(S'later'
p3436
S'served'
p3437
S'[[adj]]'
p3438
tp3439
F0.0008216926869350862
s(S'also'
p3440
S'served'
p3441
S'from'
p3442
tp3443
F0.0008216926869350862
s(S'was'
p3444
S'joined'
p3445
S'[[det]]'
p3446
tp3447
F0.0008216926869350862
s(S'became'
p3448
S'member'
p3449
S'of'
p3450
tp3451
F0.0008216926869350862
s(S'[[adj]]'
p3452
S'officer'
p3453
S'[[det]]'
p3454
tp3455
F0.0008216926869350862
s(S'[[con]]'
p3456
S'graduated'
p3457
S'at'
p3458
tp3459
F0.0008216926869350862
s(S'also'
p3460
S'appointed'
p3461
S'at'
p3462
tp3463
F0.0008216926869350862
s(S'was'
p3464
S'commissioned'
p3465
S'[[det]]'
p3466
tp3467
F0.004108463434675432
s(S'year'
p3468
g2888
g2889
tp3469
F0.0008216926869350862
s(S'was'
p3470
S'appointed'
p3471
S'of'
p3472
tp3473
F0.0008216926869350862
s(g2929
g2930
S'from'
p3474
tp3475
F0.0024650780608052587
s(g885
g886
S'years'
p3476
tp3477
F0.003286770747740345
s(S'later'
p3478
S'left'
p3479
S'for'
p3480
tp3481
F0.0008216926869350862
s(S'then'
p3482
g549
g550
tp3483
F0.0008216926869350862
s(S'[[pro]]'
p3484
S'graduated'
p3485
S'from'
p3486
tp3487
F0.0008216926869350862
s(S'been'
p3488
S'promoted'
p3489
S'to'
p3490
tp3491
F0.0008216926869350862
s(S'[[adj]]'
p3492
S'served'
p3493
S'for'
p3494
tp3495
F0.0008216926869350862
s(S'[[con]]'
p3496
S'member'
p3497
S'of'
p3498
tp3499
F0.0008216926869350862
s(S'also'
p3500
S'served'
p3501
S'on'
p3502
tp3503
F0.0008216926869350862
s(S'later'
p3504
S'attended'
p3505
S'[[con]]'
p3506
tp3507
F0.0008216926869350862
s(g1521
g1522
S'took'
p3508
tp3509
F0.0008216926869350862
s(S'until'
p3510
S'joined'
p3511
S'[[det]]'
p3512
tp3513
F0.0008216926869350862
s(S'was'
p3514
S'commander'
p3515
S'of'
p3516
tp3517
F0.0008216926869350862
s(S'returned'
p3518
S'when'
p3519
S'joined'
p3520
tp3521
F0.0008216926869350862
s(S'was'
p3522
S'accepted'
p3523
S'at'
p3524
tp3525
F0.0008216926869350862
s(g47
g3256
S'of'
p3526
tp3527
F0.0008216926869350862
s(S'later'
p3528
S'served'
p3529
S'in'
p3530
tp3531
F0.0016433853738701725
s(g1337
g1338
S'in'
p3532
tp3533
F0.0008216926869350862
s(S'also'
p3534
S'served'
p3535
S'of'
p3536
tp3537
F0.0008216926869350862
s(S'made'
p3538
S'captain'
p3539
S'of'
p3540
tp3541
F0.0008216926869350862
s(S'was'
p3542
S'awarded'
p3543
S'of'
p3544
tp3545
F0.0008216926869350862
s(S'later'
p3546
S'attended'
p3547
S'[[det]]'
p3548
tp3549
F0.0008216926869350862
s(g706
g707
S'member'
p3550
tp3551
F0.0016433853738701725
s(S'later'
p3552
S'served'
p3553
S'at'
p3554
tp3555
F0.0008216926869350862
s(g2188
g2189
S'of'
p3556
tp3557
F0.0016433853738701725
s(g1826
g1827
S'in'
p3558
tp3559
F0.0008216926869350862
s(S'was'
p3560
S'head'
p3561
S'for'
p3562
tp3563
F0.0008216926869350862
s(S'again'
p3564
S'joined'
p3565
S'[[det]]'
p3566
tp3567
F0.0008216926869350862
s(S'served'
p3568
g892
g893
tp3569
F0.004108463434675432
s(S'was'
p3570
g3065
g3066
tp3571
F0.0008216926869350862
s(S'[[adj]]'
p3572
S'head'
p3573
S'[[det]]'
p3574
tp3575
F0.0008216926869350862
s(S'then'
p3576
S'returned'
p3577
S'where'
p3578
tp3579
F0.0008216926869350862
s(S'[[mod]]'
p3580
S'join'
p3581
S'[[adj]]'
p3582
tp3583
F0.0008216926869350862
s(S'was'
p3584
S'reassigned'
p3585
S'to'
p3586
tp3587
F0.0008216926869350862
s.