(dp0
(S'comedy'
p1
S'film'
p2
S'produced'
p3
tp4
F0.00101010101010101
s(S'also'
p5
S'known'
p6
S'as'
p7
tp8
F0.000505050505050505
s(S'road'
p9
S'movie'
p10
S'directed'
p11
tp12
F0.00101010101010101
s(S'released'
p13
S'in'
p14
S'[[num]]'
p15
tp16
F0.000505050505050505
s(S'thriller'
p17
S'film'
p18
S'starring'
p19
tp20
F0.005050505050505051
s(S'[[num]]'
p21
S'crime'
p22
S'film'
p23
tp24
F0.0065656565656565654
s(S'television'
p25
S'drama'
p26
S'film'
p27
tp28
F0.000505050505050505
s(S'horror'
p29
S'film'
p30
S'starring'
p31
tp32
F0.0035353535353535356
s(S'by'
p33
S'produced'
p34
S'[[con]]'
p35
tp36
F0.000505050505050505
s(S'directed'
p37
S'starring'
p38
S'[[con]]'
p39
tp40
F0.005050505050505051
s(S'thriller'
p41
S'film'
p42
S'directed'
p43
tp44
F0.011111111111111112
s(S'is'
p45
S'[[num]]'
p46
g25
tp47
F0.000505050505050505
s(S'comedy'
p48
S'film'
p49
S'featuring'
p50
tp51
F0.0015151515151515152
s(S'mystery'
p52
S'film'
p53
S'starring'
p54
tp55
F0.000505050505050505
s(S'feature'
p56
S'film'
p57
S'starring'
p58
tp59
F0.0035353535353535356
s(S'[[num]]'
p60
S'film'
p61
S'[[adj]]'
p62
tp63
F0.000505050505050505
s(S'film'
p64
S'directed'
p65
S'written'
p66
tp67
F0.005050505050505051
s(S'gentleman'
p68
S'[[num]]'
p69
S'movie'
p70
tp71
F0.000505050505050505
s(S'produced'
p72
S'by'
p73
S'starring'
p74
tp75
F0.000505050505050505
s(S'[[adj]]'
p76
S'arts'
p77
S'film'
p78
tp79
F0.0015151515151515152
s(S'[[det]]'
p80
S'feature'
p81
S'film'
p82
tp83
F0.00202020202020202
s(S'film'
p84
S'directed'
p85
S'by'
p86
tp87
F0.06111111111111111
s(S'was'
p88
S'directed'
p89
S'produced'
p90
tp91
F0.0015151515151515152
s(S'is'
p92
S'[[adj]]'
p93
S'arts'
p94
tp95
F0.000505050505050505
s(S'adapted'
p96
S'[[num]]'
p97
S'movie'
p98
tp99
F0.000505050505050505
s(g61
g62
S'[[con]]'
p100
tp101
F0.00101010101010101
s(S'action'
p102
S'film'
p103
S'[[con]]'
p104
tp105
F0.000505050505050505
s(S'crime'
p106
S'film'
p107
S'starring'
p108
tp109
F0.00202020202020202
s(S'directed'
p110
g33
g34
tp111
F0.000505050505050505
s(S'film'
p112
S'from'
p113
S'directed'
p114
tp115
F0.000505050505050505
s(g14
g15
S'starring'
p116
tp117
F0.00101010101010101
s(S'[[con]]'
p118
S'action'
p119
S'film'
p120
tp121
F0.000505050505050505
s(S'directed'
p122
S'with'
p123
S'[[det]]'
p124
tp125
F0.0015151515151515152
s(S'[[num]]'
p126
S'film'
p127
S'starring'
p128
tp129
F0.0015151515151515152
s(S'[[det]]'
p130
S'thriller'
p131
S'directed'
p132
tp133
F0.000505050505050505
s(S'[[num]]'
p134
S'film'
p135
S'that'
p136
tp137
F0.000505050505050505
s(S'by'
p138
S'starring'
p139
S'[[con]]'
p140
tp141
F0.00404040404040404
s(S'is'
p142
S'written'
p143
S'[[con]]'
p144
tp145
F0.000505050505050505
s(S'is'
p146
S'[[num]]'
p147
S'thriller'
p148
tp149
F0.000505050505050505
s(S'[[num]]'
p150
S'fantasy'
p151
S'film'
p152
tp153
F0.0015151515151515152
s(S'[[num]]'
p154
S'movie'
p155
S'produced'
p156
tp157
F0.000505050505050505
s(S'directed'
p158
S'starring'
p159
S'as'
p160
tp161
F0.000505050505050505
s(S'[[num]]'
p162
S'detective'
p163
S'film'
p164
tp165
F0.00101010101010101
s(S'into'
p166
S'[[det]]'
p167
S'film'
p168
tp169
F0.000505050505050505
s(S'[[con]]'
p170
S'based'
p171
S'by'
p172
tp173
F0.000505050505050505
s(S'film'
p174
S'starring'
p175
S'directed'
p176
tp177
F0.00101010101010101
s(S'[[num]]'
p178
S'drama'
p179
S'film'
p180
tp181
F0.015656565656565657
s(S'created'
p182
S'[[con]]'
p183
S'written'
p184
tp185
F0.000505050505050505
s(S'[[adj]]'
p186
S'movie'
p187
S'directed'
p188
tp189
F0.000505050505050505
s(S'[[adj]]'
p190
g29
g30
tp191
F0.0025252525252525255
s(S'documentary'
p192
S'directed'
p193
S'[[con]]'
p194
tp195
F0.00101010101010101
s(S'directed'
p196
S'starring'
p197
S'[[det]]'
p198
tp199
F0.000505050505050505
s(S'[[num]]'
p200
S'film'
p201
S'directed'
p202
tp203
F0.016666666666666666
s(S'television'
p204
S'film'
p205
S'starring'
p206
tp207
F0.00101010101010101
s(S'[[con]]'
p208
S'directed'
p209
S'by'
p210
tp211
F0.029292929292929294
s(S'[[num]]'
p212
S'film'
p213
S'produced'
p214
tp215
F0.00101010101010101
s(S'was'
p216
S'directed'
p217
S'with'
p218
tp219
F0.000505050505050505
s(S'[[adj]]'
p220
S'written'
p221
S'[[con]]'
p222
tp223
F0.0015151515151515152
s(S'documentary'
p224
S'film'
p225
S'produced'
p226
tp227
F0.000505050505050505
s(S'adventure'
p228
g13
g14
tp229
F0.000505050505050505
s(S'comedy'
p230
S'family'
p231
S'film'
p232
tp233
F0.000505050505050505
s(S'was'
p234
S'scored'
p235
S'by'
p236
tp237
F0.000505050505050505
s(S'action'
p238
S'comedy'
p239
S'film'
p240
tp241
F0.0025252525252525255
s(S'[[num]]'
p242
S'directed'
p243
S'by'
p244
tp245
F0.000505050505050505
s(S'adventure'
p246
S'film'
p247
S'directed'
p248
tp249
F0.0025252525252525255
s(S'horror'
p250
S'film'
p251
S'written'
p252
tp253
F0.0030303030303030303
s(S'[[con]]'
p254
S'directed'
p255
S'[[con]]'
p256
tp257
F0.011111111111111112
s(S'directed'
p258
S'produced'
p259
S'[[con]]'
p260
tp261
F0.0015151515151515152
s(g69
g70
S'directed'
p262
tp263
F0.00202020202020202
s(S'was'
p264
g96
g97
tp265
F0.000505050505050505
s(S'cult'
p266
S'[[num]]'
p267
S'drama'
p268
tp269
F0.000505050505050505
s(S'[[adj]]'
p270
S'action'
p271
S'film'
p272
tp273
F0.00202020202020202
s(S'[[con]]'
p274
S'starring'
p275
S'as'
p276
tp277
F0.00101010101010101
s(g123
g124
S'screenplay'
p278
tp279
F0.00101010101010101
s(S'family'
p280
S'comedy'
p281
S'film'
p282
tp283
F0.00101010101010101
s(S'crime'
p284
S'film'
p285
S'directed'
p286
tp287
F0.007575757575757576
s(S'titled'
p288
S'is'
p289
S'[[num]]'
p290
tp291
F0.000505050505050505
s(S'[[det]]'
p292
S'mystery'
p293
S'film'
p294
tp295
F0.000505050505050505
s(S'of'
p296
S'directed'
p297
S'[[con]]'
p298
tp299
F0.000505050505050505
s(S'directed'
p300
S'produced'
p301
S'by'
p302
tp303
F0.0015151515151515152
s(S'[[num]]'
p304
S'film'
p305
S'noir'
p306
tp307
F0.0015151515151515152
s(g6
g7
S'[[num]]'
p308
tp309
F0.000505050505050505
s(S'[[num]]'
p310
S'drama'
p311
S'directed'
p312
tp313
F0.000505050505050505
s(S'drama'
p314
S'directed'
p315
S'[[con]]'
p316
tp317
F0.0015151515151515152
s(S'[[adj]]'
p318
S'drama'
p319
S'[[adj]]'
p320
tp321
F0.000505050505050505
s(S'[[num]]'
p322
g280
g281
tp323
F0.00101010101010101
s(S'comedy'
p324
S'horror'
p325
S'film'
p326
tp327
F0.000505050505050505
s(S'television'
p328
S'film'
p329
S'written'
p330
tp331
F0.000505050505050505
s(S'noir'
p332
S'directed'
p333
S'[[con]]'
p334
tp335
F0.000505050505050505
s(S'drama'
p336
S'film'
p337
S'based'
p338
tp339
F0.000505050505050505
s(S'released'
p340
S'is'
p341
S'[[num]]'
p342
tp343
F0.000505050505050505
s(S'[[num]]'
p344
S'fantasy'
p345
S'adventure'
p346
tp347
F0.000505050505050505
s(g65
g66
S'[[con]]'
p348
tp349
F0.0035353535353535356
s(g77
g78
S'directed'
p350
tp351
F0.0015151515151515152
s(S'action'
p352
S'written'
p353
S'[[con]]'
p354
tp355
F0.00101010101010101
s(S'[[num]]'
p356
S'action'
p357
S'thriller'
p358
tp359
F0.00202020202020202
s(S'produced'
p360
S'with'
p361
S'[[det]]'
p362
tp363
F0.000505050505050505
s(S'movie'
p364
S'directed'
p365
S'[[con]]'
p366
tp367
F0.00202020202020202
s(S'[[con]]'
p368
g360
g361
tp369
F0.00101010101010101
s(S'drama'
p370
S'directed'
p371
S'by'
p372
tp373
F0.000505050505050505
s(S'film'
p374
g370
g371
tp375
F0.000505050505050505
s(S'starring'
p376
S'[[con]]'
p377
S'featuring'
p378
tp379
F0.00202020202020202
s(S'[[adj]]'
p380
S'feature'
p381
S'film'
p382
tp383
F0.00101010101010101
s(S'[[num]]'
p384
S'language'
p385
S'film'
p386
tp387
F0.00202020202020202
s(S'[[num]]'
p388
S'comedy'
p389
S'directed'
p390
tp391
F0.00101010101010101
s(g256
S'written'
p392
S'by'
p393
tp394
F0.010101010101010102
s(S'color'
p395
S'film'
p396
S'was'
p397
tp398
F0.000505050505050505
s(S'screenplay'
p399
S'written'
p400
S'by'
p401
tp402
F0.000505050505050505
s(S'[[adj]]'
p403
S'drama'
p404
S'film'
p405
tp406
F0.010101010101010102
s(S'[[adj]]'
p407
S'comedy'
p408
S'drama'
p409
tp410
F0.000505050505050505
s(S'[[con]]'
p411
g158
g159
tp412
F0.00404040404040404
s(S'comedy'
p413
S'film'
p414
S'from'
p415
tp416
F0.000505050505050505
s(S'[[num]]'
p417
S'movie'
p418
S'[[con]]'
p419
tp420
F0.000505050505050505
s(g22
g23
S'based'
p421
tp422
F0.000505050505050505
s(S'as'
p423
S'[[det]]'
p424
S'film'
p425
tp426
F0.000505050505050505
s(S'comedy'
p427
S'film'
p428
S'written'
p429
tp430
F0.007575757575757576
s(S'[[det]]'
p431
S'drama'
p432
S'thriller'
p433
tp434
F0.000505050505050505
s(S'[[adj]]'
p435
S'drama'
p436
S'directed'
p437
tp438
F0.000505050505050505
s(S'fantasy'
p439
S'action'
p440
S'film'
p441
tp442
F0.000505050505050505
s(S'[[adj]]'
p443
g324
g325
tp444
F0.000505050505050505
s(S'aka'
p445
g92
g93
tp446
F0.000505050505050505
s(S'[[con]]'
p447
S'directed'
p448
S'with'
p449
tp450
F0.00101010101010101
s(S'[[num]]'
p451
S'horror'
p452
g112
tp453
F0.0065656565656565654
s(g396
g397
S'released'
p454
tp455
F0.000505050505050505
s(S'[[det]]'
p456
S'film'
p457
S'written'
p458
tp459
F0.000505050505050505
s(S'adapted'
p460
g166
g167
tp461
F0.000505050505050505
s(S'thriller'
p462
S'written'
p463
S'[[con]]'
p464
tp465
F0.000505050505050505
s(g440
g441
S'starring'
p466
tp467
F0.0025252525252525255
s(S'comedy'
p468
S'crime'
p469
S'film'
p470
tp471
F0.000505050505050505
s(S'written'
p472
S'directed'
p473
S'by'
p474
tp475
F0.00101010101010101
s(S'adapted'
p476
S'into'
p477
S'[[num]]'
p478
tp479
F0.000505050505050505
s(S'[[adj]]'
p480
S'film'
p481
S'produced'
p482
tp483
F0.000505050505050505
s(S'[[con]]'
p484
S'directed'
p485
S'gt'
p486
tp487
F0.000505050505050505
s(S'edited'
p488
S'[[con]]'
p489
S'starring'
p490
tp491
F0.000505050505050505
s(S'thriller'
p492
S'film'
p493
S'written'
p494
tp495
F0.00101010101010101
s(S'film'
p496
S'made'
p497
S'by'
p498
tp499
F0.000505050505050505
s(S'was'
p500
S'written'
p501
S'directed'
p502
tp503
F0.00101010101010101
s(S'[[num]]'
p504
g246
g247
tp505
F0.0035353535353535356
s(S'about'
p506
S'directed'
p507
S'[[con]]'
p508
tp509
F0.00101010101010101
s(S'[[det]]'
p510
g228
g13
tp511
F0.000505050505050505
s(S'comedy'
p512
S'film'
p513
S'starring'
p514
tp515
F0.006060606060606061
s(S'was'
p516
S'directed'
p517
S'written'
p518
tp519
F0.000505050505050505
s(g501
g502
S'[[con]]'
p520
tp521
F0.0015151515151515152
s(g131
g132
S'[[con]]'
p522
tp523
F0.00101010101010101
s(S'was'
p524
S'adapted'
p525
g423
tp526
F0.000505050505050505
s(g175
g176
S'by'
p527
tp528
F0.00101010101010101
s(g477
g478
S'film'
p529
tp530
F0.000505050505050505
s(S'written'
p531
S'[[con]]'
p532
S'starring'
p533
tp534
F0.006060606060606061
s(g104
S'crime'
p535
g314
tp536
F0.000505050505050505
s(S'action'
p537
S'film'
p538
S'about'
p539
tp540
F0.000505050505050505
s(g414
g415
S'written'
p541
tp542
F0.000505050505050505
s(S'drama'
p543
S'film'
p544
S'produced'
p545
tp546
F0.0015151515151515152
s(g306
S'starring'
p547
S'[[con]]'
p548
tp549
F0.000505050505050505
s(S'[[num]]'
p550
S'crime'
p551
S'drama'
p552
tp553
F0.00404040404040404
s(S'comedydrama'
p554
S'film'
p555
S'directed'
p556
tp557
F0.0025252525252525255
s(g408
g409
g84
tp558
F0.0015151515151515152
s(S'film'
p559
S'written'
p560
S'by'
p561
tp562
F0.0030303030303030303
s(S'film'
p563
g37
g38
tp564
F0.012121212121212121
s(S'directed'
p565
S'by'
p566
S'[[con]]'
p567
tp568
F0.024747474747474747
s(S'drama'
p569
S'film'
p570
S'featuring'
p571
tp572
F0.000505050505050505
s(S'[[con]]'
p573
S'starring'
p574
S'[[con]]'
p575
tp576
F0.015151515151515152
s(S'crime'
p577
S'thriller'
p578
S'film'
p579
tp580
F0.00202020202020202
s(S'[[det]]'
p581
S'horror'
p582
S'film'
p583
tp584
F0.0015151515151515152
s(S'thriller'
p585
S'film'
p586
S'released'
p587
tp588
F0.000505050505050505
s(S'[[det]]'
p589
S'language'
p590
S'film'
p591
tp592
F0.00101010101010101
s(S'is'
p593
S'directed'
p594
S'by'
p595
tp596
F0.000505050505050505
s(S'[[adj]]'
p597
S'comedy'
p598
S'starring'
p599
tp600
F0.000505050505050505
s(S'[[num]]'
p601
S'family'
p602
S'film'
p603
tp604
F0.00101010101010101
s(g46
g25
g26
tp605
F0.000505050505050505
s(g424
g425
S'in'
p606
tp607
F0.000505050505050505
s(S'film'
p608
S'[[adj]]'
p609
S'starring'
p610
tp611
F0.000505050505050505
s(S'written'
p612
S'by'
p613
S'[[con]]'
p614
tp615
F0.000505050505050505
s(S'[[num]]'
p616
S'documentary'
p617
S'film'
p618
tp619
F0.0030303030303030303
s(S'was'
p620
S'produced'
p621
S'directed'
p622
tp623
F0.000505050505050505
s(S'[[det]]'
p624
S'directed'
p625
S'by'
p626
tp627
F0.000505050505050505
s(S'film'
p628
S'[[con]]'
p629
S'[[adj]]'
p630
tp631
F0.000505050505050505
s(g551
g552
S'film'
p632
tp633
F0.0030303030303030303
s(S'comedy'
p634
S'film'
p635
S'released'
p636
tp637
F0.000505050505050505
s(g255
g256
g392
tp638
F0.012121212121212121
s(S'[[det]]'
p639
S'documentary'
p640
S'film'
p641
tp642
F0.000505050505050505
s(S'[[num]]'
p643
S'romance'
p644
S'film'
p645
tp646
F0.0025252525252525255
s(S'directed'
p647
S'[[con]]'
p648
S'starred'
p649
tp650
F0.000505050505050505
s(S'film'
p651
g45
g46
tp652
F0.000505050505050505
s(S'[[det]]'
p653
g266
g267
tp654
F0.000505050505050505
s(S'[[num]]'
p655
S'mystery'
p656
S'thriller'
p657
tp658
F0.000505050505050505
s(S'film'
p659
S'starring'
p660
g254
tp661
F0.01717171717171717
s(S'cast'
p662
S'comedydrama'
p663
S'film'
p664
tp665
F0.000505050505050505
s(S'war'
p666
S'film'
p667
S'directed'
p668
tp669
F0.00202020202020202
s(S'horror'
p670
S'film'
p671
S'directed'
p672
tp673
F0.006060606060606061
s(S'movie'
p674
S'directed'
p675
S'starring'
p676
tp677
F0.000505050505050505
s(S'assassination'
p678
g118
g119
tp679
F0.000505050505050505
s(S'[[det]]'
p680
S'drama'
p681
S'film'
p682
tp683
F0.00101010101010101
s(S'film'
p684
g300
g301
tp685
F0.0015151515151515152
s(S'[[num]]'
p686
S'thriller'
p687
S'film'
p688
tp689
F0.008585858585858586
s(S'[[num]]'
p690
S'written'
p691
S'[[con]]'
p692
tp693
F0.000505050505050505
s(S'[[det]]'
p694
S'film'
p695
S'directed'
p696
tp697
F0.0035353535353535356
s(S'[[num]]'
p698
g238
g239
tp699
F0.0025252525252525255
s(g630
S'comedy'
p700
S'written'
p701
tp702
F0.000505050505050505
s(S'[[det]]'
p703
S'thriller'
p704
S'film'
p705
tp706
F0.00101010101010101
s(S'film'
p707
S'directed'
p708
S'as'
p709
tp710
F0.000505050505050505
s(S'[[det]]'
p711
g678
g118
tp712
F0.000505050505050505
s(S'known'
p713
S'is'
p714
S'[[adj]]'
p715
tp716
F0.000505050505050505
s(S'drama'
p717
S'film'
p718
S'[[adj]]'
p719
tp720
F0.00101010101010101
s(S'by'
p721
S'film'
p722
S'stars'
p723
tp724
F0.000505050505050505
s(g635
g636
S'starring'
p725
tp726
F0.0015151515151515152
s(S'crime'
p727
S'drama'
p728
S'starring'
p729
tp730
F0.000505050505050505
s(S'[[con]]'
p731
S'was'
p732
S'directed'
p733
tp734
F0.000505050505050505
s(S'[[num]]'
p735
S'action'
p736
S'film'
p737
tp738
F0.0065656565656565654
s(S'comedy'
p739
S'directed'
p740
g531
tp741
F0.000505050505050505
s(S'film'
p742
S'[[adj]]'
p743
S'directed'
p744
tp745
F0.00101010101010101
s(S'directed'
p746
g573
g574
tp747
F0.04191919191919192
s(S'film'
p748
S'directed'
p749
S'that'
p750
tp751
F0.000505050505050505
s(g415
g541
S'[[con]]'
p752
tp753
F0.000505050505050505
s(g259
g260
S'starring'
p754
tp755
F0.00101010101010101
s(S'film'
p756
g746
g573
tp757
F0.04292929292929293
s(S'[[num]]'
p758
g666
g667
tp759
F0.0025252525252525255
s(S'directed'
p760
S'by'
p761
S'starring'
p762
tp763
F0.015656565656565657
s(S'by'
p764
S'starring'
p765
S'[[det]]'
p766
tp767
F0.000505050505050505
s(S'[[num]]'
p768
g56
g57
tp769
F0.0035353535353535356
s(S'adventure'
p770
S'film'
p771
S'starring'
p772
tp773
F0.00202020202020202
s(g660
g254
g255
tp774
F0.00404040404040404
s(S'[[adj]]'
p775
S'comedy'
p776
g756
tp777
F0.010606060606060607
s(g602
g603
S'directed'
p778
tp779
F0.0015151515151515152
s(S'[[con]]'
p780
S'directed'
p781
S'which'
p782
tp783
F0.000505050505050505
s(S'is'
p784
S'directed'
p785
S'[[con]]'
p786
tp787
F0.00101010101010101
s(S'[[det]]'
p788
S'war'
p789
S'film'
p790
tp791
F0.000505050505050505
s(g486
S'[[con]]'
p792
S'starring'
p793
tp794
F0.000505050505050505
s(S'[[det]]'
p795
S'film'
p796
S'comedy'
p797
tp798
F0.000505050505050505
s(S'[[num]]'
p799
g374
g370
tp800
F0.000505050505050505
s(S'written'
p801
S'by'
p802
S'starring'
p803
tp804
F0.000505050505050505
s(S'[[num]]'
p805
g512
g513
tp806
F0.013636363636363636
s(S'was'
p807
S'directed'
p808
S'by'
p809
tp810
F0.00101010101010101
s(S'was'
p811
S'written'
p812
S'produced'
p813
tp814
F0.000505050505050505
s(g180
S'directed'
p815
S'based'
p816
tp817
F0.00101010101010101
s(S'produced'
p818
S'directed'
p819
S'by'
p820
tp821
F0.00202020202020202
s(S'was'
p822
S'produced'
p823
S'[[con]]'
p824
tp825
F0.00101010101010101
s(g135
g136
S'was'
p826
tp827
F0.000505050505050505
s(g599
S'[[con]]'
p828
S'written'
p829
tp830
F0.000505050505050505
s(S'was'
p831
S'directed'
p832
S'[[con]]'
p833
tp834
F0.0025252525252525255
s(g781
g782
S'starred'
p835
tp836
F0.000505050505050505
s(S'[[adj]]'
p837
S'documentary'
p838
S'film'
p839
tp840
F0.000505050505050505
s(S'[[num]]'
p841
S'mystery'
p842
S'crime'
p843
tp844
F0.000505050505050505
s(g179
g180
g815
tp845
F0.020202020202020204
s(g385
g386
S'starring'
p846
tp847
F0.0015151515151515152
s(S'feature'
p848
S'film'
p849
S'directed'
p850
tp851
F0.00404040404040404
s(g345
g346
S'film'
p852
tp853
F0.000505050505050505
s(g842
g843
S'film'
p854
tp855
F0.000505050505050505
s(g535
g314
g315
tp856
F0.000505050505050505
s(S'film'
p857
g296
g297
tp858
F0.000505050505050505
s(S'directed'
p859
S'[[con]]'
p860
S'stars'
p861
tp862
F0.0025252525252525255
s(S'[[det]]'
p863
S'crime'
p864
S'film'
p865
tp866
F0.000505050505050505
s(S'written'
p867
g731
g732
tp868
F0.000505050505050505
s(S'[[adj]]'
p869
S'mystery'
p870
S'film'
p871
tp872
F0.000505050505050505
s(g289
g290
S'drama'
p873
tp874
F0.000505050505050505
s(S'directed'
p875
g721
g722
tp876
F0.000505050505050505
s(S'[[adj]]'
p877
S'film'
p878
S'directed'
p879
tp880
F0.010101010101010102
s(S'[[num]]'
p881
S'produced'
p882
S'[[con]]'
p883
tp884
F0.000505050505050505
s(S'known'
p885
S'is'
p886
S'film'
p887
tp888
F0.000505050505050505
s(g3
S'[[con]]'
p889
S'directed'
p890
tp891
F0.007575757575757576
s(S'crime'
p892
S'drama'
p893
S'written'
p894
tp895
F0.000505050505050505
s(S'[[det]]'
p896
g68
g69
tp897
F0.000505050505050505
s(S'[[num]]'
p898
g230
g231
tp899
F0.000505050505050505
s(g155
g156
S'[[con]]'
p900
tp901
F0.000505050505050505
s(g305
g306
g547
tp902
F0.000505050505050505
s(S'language'
p903
S'film'
p904
S'written'
p905
tp906
F0.000505050505050505
s(S'[[num]]'
p907
S'drama'
p908
S'[[adj]]'
p909
tp910
F0.000505050505050505
s(S'by'
p911
S'[[con]]'
p912
S'featuring'
p913
tp914
F0.000505050505050505
s(S'[[adj]]'
p915
S'comedy'
p916
S'[[adj]]'
p917
tp918
F0.00101010101010101
s(S'[[adj]]'
p919
S'romance'
p920
S'film'
p921
tp922
F0.000505050505050505
s(g90
S'[[con]]'
p923
S'written'
p924
tp925
F0.000505050505050505
s(g397
g454
S'starring'
p926
tp927
F0.000505050505050505
s(g525
g423
g424
tp928
F0.000505050505050505
s(g425
g606
S'[[num]]'
p929
tp930
F0.000505050505050505
s(g893
g894
S'[[con]]'
p931
tp932
F0.000505050505050505
s(S'[[det]]'
p933
S'written'
p934
S'produced'
p935
tp936
F0.000505050505050505
s(S'directed'
p937
S'written'
p938
S'by'
p939
tp940
F0.0025252525252525255
s(S'[[det]]'
p941
S'film'
p942
S'released'
p943
tp944
F0.000505050505050505
s(g644
g645
S'directed'
p945
tp946
F0.00202020202020202
s(S'romance'
p947
S'film'
p948
S'starring'
p949
tp950
F0.00101010101010101
s(S'[[det]]'
p951
g857
g296
tp952
F0.000505050505050505
s(S'film'
p953
g506
g507
tp954
F0.00101010101010101
s(S'[[adj]]'
p955
S'fantasy'
p956
S'film'
p957
tp958
F0.000505050505050505
s(g749
g750
S'starred'
p959
tp960
F0.000505050505050505
s(g648
g649
S'by'
p961
tp962
F0.000505050505050505
s(g617
g618
S'directed'
p963
tp964
F0.0025252525252525255
s(S'also'
p965
g713
g714
tp966
F0.00404040404040404
s(S'film'
p967
S'written'
p968
S'directed'
p969
tp970
F0.0015151515151515152
s(S'[[num]]'
p971
g352
g353
tp972
F0.00101010101010101
s(S's'
p973
S'written'
p974
S'[[con]]'
p975
tp976
F0.000505050505050505
s(g826
S'written'
p977
S'[[con]]'
p978
tp979
F0.00202020202020202
s(S'[[adj]]'
p980
g284
g285
tp981
F0.0025252525252525255
s(S'action'
p982
g742
g743
tp983
F0.000505050505050505
s(S'[[num]]'
p984
g577
g578
tp985
F0.00202020202020202
s(g812
g813
S'[[con]]'
p986
tp987
F0.00101010101010101
s(g969
S'[[con]]'
p988
g488
tp989
F0.00101010101010101
s(g419
g818
g819
tp990
F0.000505050505050505
s(S'war'
p991
S'film'
p992
S'starring'
p993
tp994
F0.0015151515151515152
s(S'[[det]]'
p995
S'color'
p996
S'film'
p997
tp998
F0.00101010101010101
s(S'[[adj]]'
p999
g462
g463
tp1000
F0.000505050505050505
s(S'comedy'
p1001
g608
g609
tp1002
F0.000505050505050505
s(g341
g342
S'adventure'
p1003
tp1004
F0.000505050505050505
s(S'is'
p1005
S'directed'
p1006
S'at'
p1007
tp1008
F0.000505050505050505
s(S'[[num]]'
p1009
S'mystery'
p1010
S'film'
p1011
tp1012
F0.0025252525252525255
s(g485
g486
g792
tp1013
F0.000505050505050505
s(S'known'
p1014
S'is'
p1015
g126
tp1016
F0.00404040404040404
s(S'documentary'
p1017
S'film'
p1018
S'starring'
p1019
tp1020
F0.000505050505050505
s(S'[[num]]'
p1021
S'comedy'
p1022
S'drama'
p1023
tp1024
F0.00101010101010101
s(g113
g114
S'by'
p1025
tp1026
F0.000505050505050505
s(g497
g498
S'starring'
p1027
tp1028
F0.000505050505050505
s(S'[[adj]]'
p1029
g41
g42
tp1030
F0.0030303030303030303
s(S'[[det]]'
p1031
g399
g400
tp1032
F0.000505050505050505
s(g62
g100
S'directed'
p1033
tp1034
F0.00101010101010101
s(g776
g756
g746
tp1035
F0.01616161616161616
s(g700
g701
S'[[con]]'
p1036
tp1037
F0.000505050505050505
s(S'[[adj]]'
p1038
S'comedy'
p1039
S'directed'
p1040
tp1041
F0.00101010101010101
s(S'[[adj]]'
p1042
g468
g469
tp1043
F0.000505050505050505
s(g23
g421
S'directed'
p1044
tp1045
F0.000505050505050505
s(g815
g816
S'by'
p1046
tp1047
F0.00101010101010101
s(S'[[con]]'
p1048
S'written'
p1049
S'[[con]]'
p1050
tp1051
F0.0025252525252525255
s(S'[[det]]'
p1052
S'comedy'
p1053
S'action'
p1054
tp1055
F0.000505050505050505
s(g481
g482
S'directed'
p1056
tp1057
F0.00101010101010101
s(S'[[num]]'
p1058
g9
g10
tp1059
F0.00101010101010101
s(S'[[adj]]'
p1060
S'produced'
p1061
S'[[con]]'
p1062
tp1063
F0.000505050505050505
s(S'[[adj]]'
p1064
g659
g660
tp1065
F0.0030303030303030303
s(g743
g744
S'by'
p1066
tp1067
F0.0015151515151515152
s(S'comedydrama'
p1068
S'film'
p1069
S'starring'
p1070
tp1071
F0.0025252525252525255
s(g860
g861
S'[[con]]'
p1072
tp1073
F0.00101010101010101
s(g598
g599
g828
tp1074
F0.000505050505050505
s(g1053
g1054
S'film'
p1075
tp1076
F0.000505050505050505
s(g544
g545
S'by'
p1077
tp1078
F0.000505050505050505
s(g418
g419
g818
tp1079
F0.000505050505050505
s(g520
S'produced'
p1080
S'by'
p1081
tp1082
F0.007575757575757576
s(g736
g737
S'directed'
p1083
tp1084
F0.005050505050505051
s(g714
g715
S'film'
p1085
tp1086
F0.000505050505050505
s(S'is'
p1087
g200
g201
tp1088
F0.0035353535353535356
s(g49
g50
S'[[con]]'
p1089
tp1090
F0.000505050505050505
s(S'[[adj]]'
p1091
S'thriller'
p1092
S'directed'
p1093
tp1094
F0.000505050505050505
s(S'documentary'
p1095
S'film'
p1096
S'written'
p1097
tp1098
F0.000505050505050505
s(S'directed'
p1099
g170
g171
tp1100
F0.000505050505050505
s(S'[[det]]'
p1101
g634
g635
tp1102
F0.00202020202020202
s(S'film'
p1103
g332
g333
tp1104
F0.0015151515151515152
s(g629
g630
g700
tp1105
F0.000505050505050505
s(S'sports'
p1106
S'drama'
p1107
S'film'
p1108
tp1109
F0.000505050505050505
s(S'article'
p1110
g1087
g200
tp1111
F0.000505050505050505
s(g389
g390
S'[[con]]'
p1112
tp1113
F0.0015151515151515152
s(g2
g3
g889
tp1114
F0.0035353535353535356
s(S'[[num]]'
p1115
S'thriller'
p1116
S'directed'
p1117
tp1118
F0.000505050505050505
s(S'[[adj]]'
p1119
g662
g663
tp1120
F0.000505050505050505
s(S'language'
p1121
S'film'
p1122
S'directed'
p1123
tp1124
F0.00101010101010101
s(g421
g1044
S'[[con]]'
p1125
tp1126
F0.000505050505050505
s(S'[[adj]]'
p1127
g496
g497
tp1128
F0.000505050505050505
s(S'was'
p1129
g476
g477
tp1130
F0.00101010101010101
s(g552
g632
S'starring'
p1131
tp1132
F0.00404040404040404
s(S'[[num]]'
p1133
S'comedy'
p1134
S'[[adj]]'
p1135
tp1136
F0.00101010101010101
s(g656
g657
S'film'
p1137
tp1138
F0.000505050505050505
s(g357
g358
S'film'
p1139
tp1140
F0.00202020202020202
s(S'comedy'
p1141
g1064
g659
tp1142
F0.0025252525252525255
s(S'film'
p1143
g122
g123
tp1144
F0.00101010101010101
s(S'directed'
p1145
S'[[con]]'
p1146
S'featuring'
p1147
tp1148
F0.0015151515151515152
s(S'comedydrama'
p1149
g559
g560
tp1150
F0.0025252525252525255
s(S'[[det]]'
p1151
g192
g193
tp1152
F0.00101010101010101
s(S'[[num]]'
p1153
S'family'
p1154
S'adventure'
p1155
tp1156
F0.000505050505050505
s(g361
g362
S'starring'
p1157
tp1158
F0.000505050505050505
s(g1154
g1155
S'film'
p1159
tp1160
F0.000505050505050505
s(g1010
g1011
S'directed'
p1161
tp1162
F0.0030303030303030303
s(S'written'
p1163
g411
g158
tp1164
F0.03383838383838384
s(S'[[num]]'
p1165
g439
g440
tp1166
F0.000505050505050505
s(S'action'
p1167
S'film'
p1168
S'written'
p1169
tp1170
F0.00101010101010101
s(S'noir'
p1171
S'directed'
p1172
S'by'
p1173
tp1174
F0.00101010101010101
s(g66
g348
S'produced'
p1175
tp1176
F0.000505050505050505
s(g10
g11
S'by'
p1177
tp1178
F0.0015151515151515152
s(S'[[adj]]'
p1179
S'film'
p1180
S'written'
p1181
tp1182
F0.0015151515151515152
s(g163
g164
S'directed'
p1183
tp1184
F0.00101010101010101
s(g1092
g1093
S'by'
p1185
tp1186
F0.000505050505050505
s(S'[[con]]'
p1187
S'edited'
p1188
S'by'
p1189
tp1190
F0.000505050505050505
s(S'[[num]]'
p1191
g328
g329
tp1192
F0.0015151515151515152
s(g103
g104
g535
tp1193
F0.000505050505050505
s(S'[[adj]]'
p1194
S'adventure'
p1195
S'film'
p1196
tp1197
F0.00101010101010101
s(S'[[det]]'
p1198
S'film'
p1199
g1171
tp1200
F0.000505050505050505
s(S'[[num]]'
p1201
g651
g45
tp1202
F0.000505050505050505
s(g452
g112
g113
tp1203
F0.000505050505050505
s(g886
g887
S'starring'
p1204
tp1205
F0.000505050505050505
s(S'crime'
p1206
S'film'
p1207
S'written'
p1208
tp1209
F0.000505050505050505
s(g151
g152
S'directed'
p1210
tp1211
F0.00202020202020202
s(g136
g826
g977
tp1212
F0.000505050505050505
s(g988
g488
g489
tp1213
F0.000505050505050505
s(S'directed'
p1214
S'starring'
p1215
S'with'
p1216
tp1217
F0.00101010101010101
s(g7
g308
S'comedy'
p1218
tp1219
F0.000505050505050505
s(S'[[adj]]'
p1220
g628
g629
tp1221
F0.000505050505050505
s(g502
g520
g1080
tp1222
F0.008585858585858586
s(S'film'
p1223
g1163
g411
tp1224
F0.026262626262626262
s(S'[[det]]'
p1225
g1106
g1107
tp1226
F0.000505050505050505
s(g319
g320
S'film'
p1227
tp1228
F0.00101010101010101
s(S'is'
p1229
S'[[num]]'
p1230
S'mystery'
p1231
tp1232
F0.000505050505050505
s(g796
g797
S'starring'
p1233
tp1234
F0.000505050505050505
s(S'[[num]]'
p1235
g554
g555
tp1236
F0.004545454545454545
s(S'aka'
p1237
S'is'
p1238
S'[[num]]'
p1239
tp1240
F0.00101010101010101
s(S'drama'
p1241
S'film'
p1242
S'written'
p1243
tp1244
F0.005050505050505051
s(S'is'
p1245
S'[[num]]'
p1246
S'crime'
p1247
tp1248
F0.00101010101010101
s(S'adventure'
p1249
S'film'
p1250
S'written'
p1251
tp1252
F0.00101010101010101
s(S'[[num]]'
p1253
S'film'
p1254
S'written'
p1255
tp1256
F0.00404040404040404
s(S'with'
p1257
S'[[det]]'
p1258
S'script'
p1259
tp1260
F0.000505050505050505
s(g432
g433
S'film'
p1261
tp1262
F0.000505050505050505
s(g566
g567
S'starring'
p1263
tp1264
F0.024747474747474747
s(S'[[det]]'
p1265
g1141
g1064
tp1266
F0.000505050505050505
s(g996
g997
S'starring'
p1267
tp1268
F0.000505050505050505
s.