(dp0
(S'[[adj]]'
p1
S'song'
p2
S'written'
p3
tp4
F0.004232804232804233
s(S'[[det]]'
p5
S'song'
p6
S'[[mod]]'
p7
tp8
F0.0010582010582010583
s(S'album'
p9
S'by'
p10
S'thrash'
p11
tp12
F0.0010582010582010583
s(S'by'
p13
S'country'
p14
S'music'
p15
tp16
F0.014814814814814815
s(S'song'
p17
S'pop'
p18
S'singer'
p19
tp20
F0.0010582010582010583
s(S'[[det]]'
p21
S'song'
p22
S'[[det]]'
p23
tp24
F0.0010582010582010583
s(S'[[det]]'
p25
S'metal'
p26
S'band'
p27
tp28
F0.0010582010582010583
s(S'[[adj]]'
p29
S'band'
p30
S'album'
p31
tp32
F0.0010582010582010583
s(S'[[adj]]'
p33
S'album'
p34
S'rock'
p35
tp36
F0.0010582010582010583
s(S'[[det]]'
p37
S'title'
p38
S'of'
p39
tp40
F0.006349206349206349
s(S'released'
p41
S'by'
p42
S'indie'
p43
tp44
F0.0010582010582010583
s(S'[[adj]]'
p45
S'released'
p46
S'by'
p47
tp48
F0.010582010582010581
s(S'was'
p49
S'written'
p50
S'as'
p51
tp52
F0.0010582010582010583
s(S'[[con]]'
p53
S'is'
p54
S'composed'
p55
tp56
F0.0010582010582010583
s(S'was'
p57
S'released'
p58
S'on'
p59
tp60
F0.0010582010582010583
s(S'album'
p61
S'by'
p62
S'country'
p63
tp64
F0.007407407407407408
s(S'not'
p65
S'included'
p66
S'on'
p67
tp68
F0.0010582010582010583
s(S'recorded'
p69
g13
g14
tp70
F0.008465608465608466
s(S'recorded'
p71
S'by'
p72
S'pop'
p73
tp74
F0.0010582010582010583
s(S'was'
p75
S'released'
p76
S'from'
p77
tp78
F0.0010582010582010583
s(S'by'
p79
S'[[adj]]'
p80
S'rock'
p81
tp82
F0.010582010582010581
s(S'[[adj]]'
p83
S'released'
p84
S'[[con]]'
p85
tp86
F0.0010582010582010583
s(S'compilation'
p87
S'album'
p88
S'by'
p89
tp90
F0.0031746031746031746
s(S'was'
p91
S'written'
p92
S'about'
p93
tp94
F0.0010582010582010583
s(S'was'
p95
S'performed'
p96
S'by'
p97
tp98
F0.0010582010582010583
s(S'then'
p99
S'performed'
p100
S'by'
p101
tp102
F0.0010582010582010583
s(S'was'
p103
S'composed'
p104
S'by'
p105
tp106
F0.0010582010582010583
s(g80
g81
S'band'
p107
tp108
F0.012698412698412698
s(S'was'
p109
S'released'
p110
S'[[con]]'
p111
tp112
F0.0010582010582010583
s(S'[[det]]'
p113
S'alternative'
p114
S'rock'
p115
tp116
F0.0031746031746031746
s(S'released'
p117
S'by'
p118
S'power'
p119
tp120
F0.0010582010582010583
s(S'later'
p121
S'released'
p122
S'in'
p123
tp124
F0.0010582010582010583
s(S'rock'
p125
S'[[con]]'
p126
S'roll'
p127
tp128
F0.0010582010582010583
s(S'was'
p129
S'released'
p130
S'with'
p131
tp132
F0.0010582010582010583
s(S'[[adj]]'
p133
S'performed'
p134
S'by'
p135
tp136
F0.0010582010582010583
s(S'album'
p137
S'by'
p138
S'punk'
p139
tp140
F0.0021164021164021165
s(S'written'
p141
S'[[con]]'
p142
S'performed'
p143
tp144
F0.0031746031746031746
s(S'released'
p145
S'as'
p146
S'[[det]]'
p147
tp148
F0.0010582010582010583
s(S'[[adj]]'
p149
S'hit'
p150
S'for'
p151
tp152
F0.0010582010582010583
s(S'released'
p153
S'by'
p154
S'singer'
p155
tp156
F0.0021164021164021165
s(S'[[det]]'
p157
S'rock'
p158
S'group'
p159
tp160
F0.0010582010582010583
s(S'by'
p161
S'power'
p162
S'metal'
p163
tp164
F0.004232804232804233
s(S'[[num]]'
p165
S'released'
p166
S'by'
p167
tp168
F0.0010582010582010583
s(S'band'
p169
S'released'
p170
S'on'
p171
tp172
F0.0010582010582010583
s(S'be'
p173
S'released'
p174
S'by'
p175
tp176
F0.0010582010582010583
s(S'music'
p177
S'singer'
p178
S'[[con]]'
p179
tp180
F0.0021164021164021165
s(S'song'
p181
S'written'
p182
S'[[con]]'
p183
tp184
F0.01798941798941799
s(S'known'
p185
S'is'
p186
S'[[det]]'
p187
tp188
F0.0010582010582010583
s(S'not'
p189
S'written'
p190
S'by'
p191
tp192
F0.0010582010582010583
s(S'been'
p193
S'recorded'
p194
S'[[con]]'
p195
tp196
F0.0010582010582010583
s(S'as'
p197
S'[[det]]'
p198
S'duet'
p199
tp200
F0.0010582010582010583
s(S'[[adj]]'
p201
S'song'
p202
S'that'
p203
tp204
F0.0010582010582010583
s(S'by'
p205
S'recording'
p206
S'artist'
p207
tp208
F0.0031746031746031746
s(S'is'
p209
S'performed'
p210
S'with'
p211
tp212
F0.0010582010582010583
s(S'song'
p213
S'by'
p214
S'country'
p215
tp216
F0.0010582010582010583
s(S'[[adj]]'
p217
S'written'
p218
S'[[con]]'
p219
tp220
F0.0010582010582010583
s(S'also'
p221
S'features'
p222
S'[[con]]'
p223
tp224
F0.0010582010582010583
s(S'song'
p225
g53
g54
tp226
F0.0010582010582010583
s(S'been'
p227
S'recorded'
p228
S'with'
p229
tp230
F0.0010582010582010583
s(g218
g219
S'recorded'
p231
tp232
F0.010582010582010581
s(S's'
p233
S'released'
p234
S'by'
p235
tp236
F0.0010582010582010583
s(S'[[adj]]'
p237
S'recorded'
p238
S'by'
p239
tp240
F0.0010582010582010583
s(S'pop'
p241
S'song'
p242
S'written'
p243
tp244
F0.004232804232804233
s(S'was'
p245
S'sung'
p246
S'by'
p247
tp248
F0.0010582010582010583
s(S'by'
p249
S'pop'
p250
S'group'
p251
tp252
F0.0010582010582010583
s(S'song'
p253
S'composed'
p254
S'by'
p255
tp256
F0.0031746031746031746
s(S'track'
p257
S'on'
p258
S'album'
p259
tp260
F0.0010582010582010583
s(S'[[con]]'
p261
S'produced'
p262
S'[[con]]'
p263
tp264
F0.0010582010582010583
s(S'[[det]]'
p265
g87
g88
tp266
F0.0031746031746031746
s(S'was'
p267
S'written'
p268
S'by'
p269
tp270
F0.0021164021164021165
s(S'song'
p271
S'by'
p272
S'band'
p273
tp274
F0.0010582010582010583
s(S'song'
p275
S'by'
p276
S'rapper'
p277
tp278
F0.0010582010582010583
s(g146
g147
S'album'
p279
tp280
F0.0010582010582010583
s(g34
g35
S'band'
p281
tp282
F0.0010582010582010583
s(S'released'
p283
S'by'
p284
S'band'
p285
tp286
F0.0010582010582010583
s(S'written'
p287
S'produced'
p288
S'by'
p289
tp290
F0.0010582010582010583
s(g233
S'written'
p291
S'by'
p292
tp293
F0.0010582010582010583
s(S'[[con]]'
p294
S'was'
p295
S'produced'
p296
tp297
F0.0010582010582010583
s(S'been'
p298
S'released'
p299
S'by'
p300
tp301
F0.0010582010582010583
s(S'by'
p302
S'rock'
p303
S'musician'
p304
tp305
F0.0010582010582010583
s(S'reached'
p306
S'number'
p307
S'[[num]]'
p308
tp309
F0.0010582010582010583
s(S'[[adj]]'
p310
S'taken'
p311
S'from'
p312
tp313
F0.0010582010582010583
s(g178
g179
S'songwriter'
p314
tp315
F0.0010582010582010583
s(S'[[con]]'
p316
S'released'
p317
S'in'
p318
tp319
F0.0010582010582010583
s(S'[[det]]'
p320
S'punk'
p321
S'rock'
p322
tp323
F0.0031746031746031746
s(S'from'
p324
S'[[adj]]'
p325
S'rock'
p326
tp327
F0.0021164021164021165
s(g35
g281
S'released'
p328
tp329
F0.0010582010582010583
s(S'[[num]]'
p330
S'hit'
p331
S'by'
p332
tp333
F0.0010582010582010583
s(S'album'
p334
S'by'
p335
S'metal'
p336
tp337
F0.0031746031746031746
s(S'[[adj]]'
p338
S'released'
p339
S'after'
p340
tp341
F0.0010582010582010583
s(S'rock'
p342
S'song'
p343
S'by'
p344
tp345
F0.0010582010582010583
s(S'studio'
p346
S'album'
p347
S'by'
p348
tp349
F0.022222222222222223
s(S'is'
p350
S'written'
p351
S'that'
p352
tp353
F0.0010582010582010583
s(S'song'
p354
S'released'
p355
S'by'
p356
tp357
F0.0021164021164021165
s(S'by'
p358
S'[[adj]]'
p359
S'artist'
p360
tp361
F0.0010582010582010583
s(S'[[adj]]'
p362
S'song'
p363
S'composed'
p364
tp365
F0.0010582010582010583
s(S'by'
p366
S'[[det]]'
p367
S'thrash'
p368
tp369
F0.0010582010582010583
s(S'[[adj]]'
p370
S'death'
p371
S'metal'
p372
tp373
F0.0031746031746031746
s(g347
g348
S'[[adj]]'
p374
tp375
F0.020105820105820106
s(g18
g19
S'written'
p376
tp377
F0.0010582010582010583
s(S'[[det]]'
p378
S'power'
p379
S'metal'
p380
tp381
F0.0021164021164021165
s(S'by'
p382
S'rock'
p383
S'group'
p384
tp385
F0.0010582010582010583
s(S'also'
p386
S'features'
p387
S'[[det]]'
p388
tp389
F0.0010582010582010583
s(S'was'
p390
S'recorded'
p391
S'during'
p392
tp393
F0.0010582010582010583
s(S'was'
p394
S'performed'
p395
S'with'
p396
tp397
F0.0010582010582010583
s(g243
S'by'
p398
S'singer'
p399
tp400
F0.0021164021164021165
s(S'[[det]]'
p401
S'song'
p402
S'by'
p403
tp404
F0.03597883597883598
s(S'recorded'
p405
S'[[det]]'
p406
S'song'
p407
tp408
F0.0010582010582010583
s(S'[[det]]'
p409
S'debut'
p410
S'[[adj]]'
p411
tp412
F0.0010582010582010583
s(S'[[det]]'
p413
S'country'
p414
S'music'
p415
tp416
F0.0010582010582010583
s(S'[[con]]'
p417
S'written'
p418
S'by'
p419
tp420
F0.0031746031746031746
s(S'pop'
p421
S'rock'
p422
S'song'
p423
tp424
F0.0010582010582010583
s(S'also'
p425
g405
g406
tp426
F0.0021164021164021165
s(S'[[con]]'
p427
S'released'
p428
S'by'
p429
tp430
F0.0010582010582010583
s(S'[[det]]'
p431
S'song'
p432
S'[[con]]'
p433
tp434
F0.0021164021164021165
s(S'song'
p435
S'written'
p436
S'for'
p437
tp438
F0.0021164021164021165
s(S'[[det]]'
p439
S'album'
p440
S'by'
p441
tp442
F0.01164021164021164
s(S'song'
p443
S'by'
p444
S'recording'
p445
tp446
F0.0010582010582010583
s(S'performed'
p447
g79
g80
tp448
F0.0021164021164021165
s(S'also'
p449
S'included'
p450
S'on'
p451
tp452
F0.0010582010582010583
s(S'[[det]]'
p453
S'written'
p454
S'by'
p455
tp456
F0.0010582010582010583
s(S'song'
p457
S'by'
p458
S'indie'
p459
tp460
F0.0010582010582010583
s(S'song'
p461
S'by'
p462
S'alternative'
p463
tp464
F0.0010582010582010583
s(S'recorded'
p465
S'by'
p466
S'[[det]]'
p467
tp468
F0.0010582010582010583
s(S'[[det]]'
p469
g435
g436
tp470
F0.01904761904761905
s(S'debut'
p471
S'studio'
p472
S'album'
p473
tp474
F0.0010582010582010583
s(g10
g11
S'metal'
p475
tp476
F0.0010582010582010583
s(S'was'
p477
S'written'
p478
S'for'
p479
tp480
F0.0010582010582010583
s(S'was'
p481
S'included'
p482
S'on'
p483
tp484
F0.0010582010582010583
s(S'album'
p485
S'by'
p486
S'band'
p487
tp488
F0.004232804232804233
s(S'been'
p489
S'included'
p490
S'on'
p491
tp492
F0.0010582010582010583
s(S'[[det]]'
p493
S'hit'
p494
S'on'
p495
tp496
F0.0010582010582010583
s(S'[[det]]'
p497
S'rock'
p498
S'band'
p499
tp500
F0.004232804232804233
s(S'[[adj]]'
p501
g137
g138
tp502
F0.02328042328042328
s(S'also'
p503
S'released'
p504
S'on'
p505
tp506
F0.0010582010582010583
s(S'[[adj]]'
p507
S'from'
p508
S'album'
p509
tp510
F0.0010582010582010583
s(S'[[adj]]'
p511
S'song'
p512
S'performed'
p513
tp514
F0.0010582010582010583
s(S'by'
p515
S'punk'
p516
S'band'
p517
tp518
F0.0010582010582010583
s(S'been'
p519
S'performed'
p520
S'by'
p521
tp522
F0.0010582010582010583
s(S'[[adj]]'
p523
S'pop'
p524
S'group'
p525
tp526
F0.0021164021164021165
s(S'released'
p527
S'by'
p528
S'metal'
p529
tp530
F0.0010582010582010583
s(S'is'
p531
S'sung'
p532
S'by'
p533
tp534
F0.0010582010582010583
s(S'was'
p535
S'performed'
p536
S'[[con]]'
p537
tp538
F0.0010582010582010583
s(S'by'
p539
g320
g321
tp540
F0.0031746031746031746
s(S'[[adj]]'
p541
S'rock'
p542
S'group'
p543
tp544
F0.0010582010582010583
s(S'not'
p545
S'released'
p546
S'by'
p547
tp548
F0.0010582010582010583
s(S'is'
p549
S'[[adj]]'
p550
S'song'
p551
tp552
F0.0010582010582010583
s(S'released'
p553
S'by'
p554
S'[[adj]]'
p555
tp556
F0.004232804232804233
s(S'later'
p557
S'included'
p558
S'on'
p559
tp560
F0.0010582010582010583
s(S'song'
p561
S'by'
p562
S'singersongwriter'
p563
tp564
F0.0010582010582010583
s(S'from'
p565
S'debut'
p566
S'album'
p567
tp568
F0.0010582010582010583
s(S'[[det]]'
p569
S'song'
p570
S'[[adj]]'
p571
tp572
F0.0010582010582010583
s(S'[[det]]'
p573
S'debut'
p574
S'album'
p575
tp576
F0.01164021164021164
s(S'[[adj]]'
p577
S'song'
p578
S'recorded'
p579
tp580
F0.0010582010582010583
s(S'song'
p581
S'performed'
p582
S'[[con]]'
p583
tp584
F0.0010582010582010583
s(S'album'
p585
S'from'
p586
S'band'
p587
tp588
F0.0010582010582010583
s(S'[[det]]'
p589
S'title'
p590
S'[[con]]'
p591
tp592
F0.0021164021164021165
s(g582
g583
S'written'
p593
tp594
F0.0010582010582010583
s(S'[[adj]]'
p595
S'debut'
p596
S'of'
p597
tp598
F0.0010582010582010583
s(S'song'
p599
S'by'
p600
g497
tp601
F0.012698412698412698
s(S'recorded'
p602
g197
g198
tp603
F0.0010582010582010583
s(S'song'
p604
g71
g72
tp605
F0.008465608465608466
s(S'[[num]]'
p606
S'song'
p607
S'by'
p608
tp609
F0.0031746031746031746
s(S'had'
p610
S'recorded'
p611
S'with'
p612
tp613
F0.0010582010582010583
s(S'was'
p614
S'released'
p615
S'which'
p616
tp617
F0.0010582010582010583
s(S'by'
p618
S'[[det]]'
p619
S'vocalist'
p620
tp621
F0.0010582010582010583
s(S'was'
p622
S'recorded'
p623
S'by'
p624
tp625
F0.0021164021164021165
s(S'from'
p626
S'[[det]]'
p627
S'band'
p628
tp629
F0.0021164021164021165
s(S'song'
p630
g447
g79
tp631
F0.006349206349206349
s(S'by'
p632
S'[[det]]'
p633
S'based'
p634
tp635
F0.0010582010582010583
s(S'album'
p636
g626
g627
tp637
F0.0021164021164021165
s(S'[[det]]'
p638
S'song'
p639
S'composed'
p640
tp641
F0.0010582010582010583
s(S'[[det]]'
p642
S'death'
p643
S'metal'
p644
tp645
F0.0031746031746031746
s(S'were'
p646
S'released'
p647
S'in'
p648
tp649
F0.0010582010582010583
s(S'was'
p650
S'recorded'
p651
S'with'
p652
tp653
F0.0010582010582010583
s(S'[[det]]'
p654
g421
g422
tp655
F0.0010582010582010583
s(g415
S'singer'
p656
S'in'
p657
tp658
F0.0010582010582010583
s(g219
g231
S'by'
p659
tp660
F0.012698412698412698
s(g555
S'metal'
p661
S'band'
p662
tp663
F0.012698412698412698
s(S'written'
p664
S'for'
p665
S'album'
p666
tp667
F0.0010582010582010583
s(g335
g336
S'band'
p668
tp669
F0.004232804232804233
s(S'[[det]]'
p670
S'hit'
p671
S'for'
p672
tp673
F0.0010582010582010583
s(S'[[adj]]'
p674
S'released'
p675
S'on'
p676
tp677
F0.0010582010582010583
s(S'was'
p678
S'sung'
p679
S'with'
p680
tp681
F0.0010582010582010583
s(S'song'
p682
S'by'
p683
S'pop'
p684
tp685
F0.0031746031746031746
s(S'was'
p686
S'released'
p687
S'[[adj]]'
p688
tp689
F0.0010582010582010583
s(S'be'
p690
S'released'
p691
S'from'
p692
tp693
F0.0010582010582010583
s(S'[[adj]]'
p694
S'song'
p695
S'[[con]]'
p696
tp697
F0.0010582010582010583
s(S'by'
p698
g25
g26
tp699
F0.0010582010582010583
s(g138
g139
S'rock'
p700
tp701
F0.0010582010582010583
s(S'by'
p702
g113
g114
tp703
F0.0021164021164021165
s(S'by'
p704
S'country'
p705
S'artist'
p706
tp707
F0.0010582010582010583
s(S'recorded'
p708
S'by'
p709
S'singer'
p710
tp711
F0.0021164021164021165
s(S'not'
p712
S'released'
p713
S'in'
p714
tp715
F0.0010582010582010583
s(S'[[det]]'
p716
g169
g170
tp717
F0.0010582010582010583
s(S'known'
p718
g549
g550
tp719
F0.0010582010582010583
s(S'be'
p720
S'written'
p721
S'by'
p722
tp723
F0.0010582010582010583
s(S'[[adj]]'
p724
S'hit'
p725
S'[[con]]'
p726
tp727
F0.0010582010582010583
s(S'as'
p728
S'from'
p729
S'album'
p730
tp731
F0.0010582010582010583
s(S'song'
p732
S'by'
p733
S'rock'
p734
tp735
F0.004232804232804233
s(S'be'
p736
S'taken'
p737
S'from'
p738
tp739
F0.0010582010582010583
s(S'performed'
p740
S'by'
p741
S'singer'
p742
tp743
F0.0010582010582010583
s(S'[[con]]'
p744
S'originally'
p745
S'recorded'
p746
tp747
F0.0010582010582010583
s(S'was'
p748
S'released'
p749
S'by'
p750
tp751
F0.0010582010582010583
s(S'[[det]]'
p752
S'song'
p753
g233
tp754
F0.0010582010582010583
s(S'[[det]]'
p755
g241
g242
tp756
F0.004232804232804233
s(S'by'
p757
S'[[det]]'
p758
S'singersongwriter'
p759
tp760
F0.0010582010582010583
s(S'[[num]]'
p761
S'hit'
p762
S'for'
p763
tp764
F0.0010582010582010583
s(S'by'
p765
g642
g643
tp766
F0.0031746031746031746
s(S'was'
p767
S'released'
p768
g728
tp769
F0.0031746031746031746
s(S'be'
p770
S'released'
p771
S'with'
p772
tp773
F0.0010582010582010583
s(S'album'
p774
S'from'
p775
S'rock'
p776
tp777
F0.0021164021164021165
s(g19
g376
S'by'
p778
tp779
F0.0010582010582010583
s(S'[[num]]'
p780
g253
g254
tp781
F0.0010582010582010583
s(S'[[det]]'
p782
S'recorded'
p783
S'by'
p784
tp785
F0.0010582010582010583
s(S'thrash'
p786
S'metal'
p787
S'band'
p788
tp789
F0.0031746031746031746
s(S'[[adj]]'
p790
S'released'
p791
S'as'
p792
tp793
F0.0021164021164021165
s(g295
g296
S'by'
p794
tp795
F0.0010582010582010583
s(S'[[con]]'
p796
S'number'
p797
S'[[num]]'
p798
tp799
F0.0010582010582010583
s(S'by'
p800
S'[[det]]'
p801
S'band'
p802
tp803
F0.010582010582010581
s(S'was'
p804
g287
g288
tp805
F0.0010582010582010583
s(S'[[det]]'
p806
S'lead'
p807
g507
tp808
F0.0010582010582010583
s(S'[[adj]]'
p809
S'released'
p810
S'from'
p811
tp812
F0.0021164021164021165
s(g142
g143
S'by'
p813
tp814
F0.0031746031746031746
s(S'song'
p815
S'by'
p816
S'musician'
p817
tp818
F0.0010582010582010583
s(S'where'
p819
g306
g307
tp820
F0.0010582010582010583
s(S'been'
p821
S'recorded'
p822
S'by'
p823
tp824
F0.0010582010582010583
s(S'was'
p825
S'written'
p826
S'to'
p827
tp828
F0.0010582010582010583
s(S'was'
p829
S'written'
p830
S'that'
p831
tp832
F0.0010582010582010583
s(S'[[det]]'
p833
g354
g355
tp834
F0.0021164021164021165
s(g2
g3
S'by'
p835
tp836
F0.013756613756613757
s(S'also'
p837
S'performed'
p838
S'[[adj]]'
p839
tp840
F0.0010582010582010583
s(S'also'
p841
S'performed'
p842
S'by'
p843
tp844
F0.0010582010582010583
s(S'by'
p845
S'rock'
p846
S'singer'
p847
tp848
F0.0010582010582010583
s(S'been'
p849
S'recorded'
p850
S'as'
p851
tp852
F0.0010582010582010583
s(g633
g634
S'band'
p853
tp854
F0.0010582010582010583
s(S'[[adj]]'
p855
S'written'
p856
S'by'
p857
tp858
F0.0010582010582010583
s(S'was'
p859
S'produced'
p860
S'[[con]]'
p861
tp862
F0.0010582010582010583
s(g733
g734
S'band'
p863
tp864
F0.008465608465608466
s(S'not'
p865
S'released'
p866
S'as'
p867
tp868
F0.0010582010582010583
s(S'released'
p869
S'by'
p870
S'[[det]]'
p871
tp872
F0.0031746031746031746
s(S'was'
p873
S'written'
p874
S'in'
p875
tp876
F0.0010582010582010583
s(S'is'
p877
S'written'
p878
S'by'
p879
tp880
F0.0010582010582010583
s(S'album'
p881
g765
g642
tp882
F0.01904761904761905
s(S'debut'
p883
S'album'
p884
S'from'
p885
tp886
F0.0010582010582010583
s(S'by'
p887
g523
g524
tp888
F0.0021164021164021165
s(S'written'
p889
g294
g295
tp890
F0.0010582010582010583
s(g554
g555
g661
tp891
F0.01164021164021164
s(g162
g163
S'band'
p892
tp893
F0.006349206349206349
s(S'performed'
p894
S'by'
p895
S'recording'
p896
tp897
F0.0010582010582010583
s(S'[[det]]'
p898
S'songs'
p899
S'with'
p900
tp901
F0.0010582010582010583
s(g59
S'[[det]]'
p902
S'album'
p903
tp904
F0.0010582010582010583
s(S'song'
p905
S'by'
p906
S'singer'
p907
tp908
F0.0021164021164021165
s(S'[[adj]]'
p909
S'composed'
p910
S'by'
p911
tp912
F0.0010582010582010583
s(g570
g571
S'released'
p913
tp914
F0.0010582010582010583
s(S'reached'
p915
S'[[num]]'
p916
g796
tp917
F0.0010582010582010583
s(S'[[det]]'
p918
g17
g18
tp919
F0.0010582010582010583
s(S'be'
p920
S'released'
p921
S'as'
p922
tp923
F0.0010582010582010583
s(S'later'
p924
S'released'
p925
S'to'
p926
tp927
F0.0010582010582010583
s(S'[[adj]]'
p928
S'sung'
p929
S'by'
p930
tp931
F0.0010582010582010583
s(S'as'
p932
S'performed'
p933
S'by'
p934
tp935
F0.0010582010582010583
s(g860
g861
S'written'
p936
tp937
F0.0010582010582010583
s(S'by'
p938
g378
g379
tp939
F0.0021164021164021165
s(S'released'
p940
S'by'
p941
S'pop'
p942
tp943
F0.0010582010582010583
s(g466
g467
S'singer'
p944
tp945
F0.0031746031746031746
s(S'[[det]]'
p946
g630
g447
tp947
F0.006349206349206349
s(S'been'
p948
S'written'
p949
S'by'
p950
tp951
F0.0010582010582010583
s(S'album'
p952
g324
g325
tp953
F0.0021164021164021165
s(S'also'
p954
g185
g186
tp955
F0.0021164021164021165
s(S'length'
p956
S'album'
p957
S'by'
p958
tp959
F0.0010582010582010583
s(g600
g497
g498
tp960
F0.004232804232804233
s(S'was'
p961
S'written'
p962
S'[[con]]'
p963
tp964
F0.004232804232804233
s(g7
S'written'
p965
S'by'
p966
tp967
F0.0010582010582010583
s(S'song'
p968
S'from'
p969
S'album'
p970
tp971
F0.0010582010582010583
s(S'was'
p972
S'originally'
p973
S'recorded'
p974
tp975
F0.0010582010582010583
s(S'be'
p976
S'released'
p977
S'in'
p978
tp979
F0.0010582010582010583
s(S'[[adj]]'
p980
g257
g258
tp981
F0.0010582010582010583
s(S'released'
p982
S'which'
p983
S'[[adj]]'
p984
tp985
F0.0010582010582010583
s(S'[[adj]]'
p986
g774
g775
tp987
F0.004232804232804233
s(g367
g368
S'metal'
p988
tp989
F0.0010582010582010583
s(g745
g746
S'by'
p990
tp991
F0.0031746031746031746
s(g39
S'[[det]]'
p992
S'song'
p993
tp994
F0.006349206349206349
s(S'[[det]]'
p995
g604
g71
tp996
F0.005291005291005291
s(g281
g328
S'by'
p997
tp998
F0.0010582010582010583
s(S'[[adj]]'
p999
g956
g957
tp1000
F0.0010582010582010583
s(S'[[adj]]'
p1001
S'album'
p1002
g527
tp1003
F0.0010582010582010583
s(S'[[adj]]'
p1004
S'song'
p1005
S'[[det]]'
p1006
tp1007
F0.0010582010582010583
s(g916
g796
g797
tp1008
F0.0010582010582010583
s(S'album'
p1009
S'by'
p1010
S'alternative'
p1011
tp1012
F0.0021164021164021165
s(S'was'
p1013
S'performed'
p1014
S'from'
p1015
tp1016
F0.0010582010582010583
s(S'also'
p1017
S'released'
p1018
S'by'
p1019
tp1020
F0.0010582010582010583
s(S'by'
p1021
S'[[det]]'
p1022
S'musician'
p1023
tp1024
F0.0010582010582010583
s(S'by'
p1025
S'country'
p1026
S'singer'
p1027
tp1028
F0.0021164021164021165
s(S'by'
p1029
S'indie'
p1030
S'rock'
p1031
tp1032
F0.006349206349206349
s(S'by'
p1033
g370
g371
tp1034
F0.0031746031746031746
s(g6
g7
g965
tp1035
F0.0010582010582010583
s(S'[[det]]'
p1036
S'song'
p1037
S'with'
p1038
tp1039
F0.0010582010582010583
s(S'[[adj]]'
p1040
S'recorded'
p1041
S'in'
p1042
tp1043
F0.0010582010582010583
s(S'was'
p1044
S'included'
p1045
S'to'
p1046
tp1047
F0.0010582010582010583
s(S'by'
p1048
S'[[det]]'
p1049
S'group'
p1050
tp1051
F0.0010582010582010583
s(S'[[det]]'
p1052
S'song'
p1053
S'that'
p1054
tp1055
F0.0010582010582010583
s(g14
g15
S'singer'
p1056
tp1057
F0.01164021164021164
s(g983
g984
S'album'
p1058
tp1059
F0.0010582010582010583
s(S'album'
p1060
S'by'
p1061
S'death'
p1062
tp1063
F0.0021164021164021165
s(g463
S'rock'
p1064
S'band'
p1065
tp1066
F0.008465608465608466
s(g72
g73
S'singer'
p1067
tp1068
F0.0031746031746031746
s(g147
g279
g233
tp1069
F0.0010582010582010583
s(S'[[adj]]'
p1070
S'song'
p1071
S'of'
p1072
tp1073
F0.0010582010582010583
s(S'released'
p1074
S'by'
p1075
S'rock'
p1076
tp1077
F0.0010582010582010583
s(g590
g591
S'recorded'
p1078
tp1079
F0.0021164021164021165
s(S'recorded'
p1080
g413
g414
tp1081
F0.0010582010582010583
s(S'[[det]]'
p1082
S'song'
p1083
S'from'
p1084
tp1085
F0.0021164021164021165
s(S'[[adj]]'
p1086
S'song'
p1087
S'on'
p1088
tp1089
F0.0010582010582010583
s(g1061
g1062
S'metal'
p1090
tp1091
F0.0021164021164021165
s(g54
g55
S'by'
p1092
tp1093
F0.0021164021164021165
s(S'[[det]]'
p1094
g471
g472
tp1095
F0.0010582010582010583
s(g58
g59
g902
tp1096
F0.0010582010582010583
s(S'country'
p1097
S'music'
p1098
S'artist'
p1099
tp1100
F0.004232804232804233
s(S'written'
p1101
g744
g745
tp1102
F0.0010582010582010583
s(S'recorded'
p1103
g205
g206
tp1104
F0.0010582010582010583
s(g186
g187
S'pop'
p1105
tp1106
F0.0010582010582010583
s(S'[[det]]'
p1107
S'album'
p1108
g283
tp1109
F0.0010582010582010583
s(g126
g127
S'song'
p1110
tp1111
F0.0010582010582010583
s(g643
g644
S'band'
p1112
tp1113
F0.009523809523809525
s(g321
g322
S'band'
p1114
tp1115
F0.004232804232804233
s(S'studio'
p1116
S'album'
p1117
g117
tp1118
F0.0021164021164021165
s(S'album'
p1119
S'by'
p1120
S'indie'
p1121
tp1122
F0.0031746031746031746
s(S'was'
p1123
S'written'
p1124
S'with'
p1125
tp1126
F0.0010582010582010583
s(S'studio'
p1127
g636
g626
tp1128
F0.0021164021164021165
s(g127
g1110
S'written'
p1129
tp1130
F0.0010582010582010583
s(S'released'
p1131
S'by'
p1132
S'alternative'
p1133
tp1134
F0.0010582010582010583
s(S'was'
p1135
S'written'
p1136
S'after'
p1137
tp1138
F0.0010582010582010583
s(g1002
g527
g528
tp1139
F0.004232804232804233
s(S'written'
p1140
S'[[con]]'
p1141
S'produced'
p1142
tp1143
F0.005291005291005291
s(S'[[det]]'
p1144
S'rock'
p1145
S'song'
p1146
tp1147
F0.0021164021164021165
s(S'also'
p1148
S'recorded'
p1149
S'by'
p1150
tp1151
F0.0010582010582010583
s(S'[[num]]'
p1152
S'written'
p1153
S'by'
p1154
tp1155
F0.0010582010582010583
s(S'released'
p1156
S'from'
p1157
S'album'
p1158
tp1159
F0.0031746031746031746
s(S'[[det]]'
p1160
g125
g126
tp1161
F0.0010582010582010583
s(S'[[adj]]'
p1162
g346
g347
tp1163
F0.025396825396825397
s(g1053
g1054
g267
tp1164
F0.0010582010582010583
s(S'[[det]]'
p1165
g553
g554
tp1166
F0.0031746031746031746
s(S'[[adj]]'
p1167
S'song'
p1168
S'by'
p1169
tp1170
F0.0021164021164021165
s(g348
g374
S'band'
p1171
tp1172
F0.006349206349206349
s(g1054
g267
g268
tp1173
F0.0010582010582010583
s(S'[[num]]'
p1174
S'song'
p1175
S'written'
p1176
tp1177
F0.0031746031746031746
s(g807
g507
g508
tp1178
F0.0010582010582010583
s(S'[[num]]'
p1179
S'song'
p1180
g465
tp1181
F0.0021164021164021165
s(S'was'
p1182
g602
g197
tp1183
F0.0010582010582010583
s(S'album'
p1184
g161
g162
tp1185
F0.0031746031746031746
s(S'also'
p1186
S'sung'
p1187
S'by'
p1188
tp1189
F0.0010582010582010583
s(g406
g407
S'in'
p1190
tp1191
F0.0010582010582010583
s(g768
g728
g729
tp1192
F0.0010582010582010583
s(g462
g463
g1064
tp1193
F0.005291005291005291
s(S'song'
p1194
S'by'
p1195
S'[[adj]]'
p1196
tp1197
F0.008465608465608466
s(g574
g575
S'by'
p1198
tp1199
F0.010582010582010581
s(g775
g776
S'band'
p1200
tp1201
F0.0021164021164021165
s(S'were'
p1202
S'written'
p1203
S'by'
p1204
tp1205
F0.0010582010582010583
s(g1030
g1031
S'band'
p1206
tp1207
F0.006349206349206349
s(S'also'
p1208
S'released'
p1209
S'in'
p1210
tp1211
F0.0010582010582010583
s(g575
g1198
S'rock'
p1212
tp1213
F0.005291005291005291
s(S'[[num]]'
p1214
S'album'
p1215
S'by'
p1216
tp1217
F0.0021164021164021165
s(S'later'
p1218
S'recorded'
p1219
S'by'
p1220
tp1221
F0.0010582010582010583
s(g38
g39
g992
tp1222
F0.006349206349206349
s(S'metal'
p1223
S'band'
p1224
S'album'
p1225
tp1226
F0.0010582010582010583
s(g1141
g1142
S'by'
p1227
tp1228
F0.004232804232804233
s(S'later'
p1229
S'performed'
p1230
S'by'
p1231
tp1232
F0.0010582010582010583
s(S'was'
p1233
S'performed'
p1234
S'[[adj]]'
p1235
tp1236
F0.0010582010582010583
s(g1145
g1146
S'written'
p1237
tp1238
F0.0021164021164021165
s.