(dp0
(S'is'
p1
S'located'
p2
S'of'
p3
tp4
F0.07692307692307693
s(S'was'
p5
S'located'
p6
S'[[adj]]'
p7
tp8
F0.07692307692307693
s(S'[[adj]]'
p9
S'park'
p10
S'of'
p11
tp12
F0.07692307692307693
s(S'[[adj]]'
p13
S'located'
p14
S'in'
p15
tp16
F0.07692307692307693
s(S'formerly'
p17
S'located'
p18
S'in'
p19
tp20
F0.07692307692307693
s(S'[[adj]]'
p21
S'park'
p22
S'in'
p23
tp24
F0.07692307692307693
s(S'[[det]]'
p25
S'located'
p26
S'in'
p27
tp28
F0.07692307692307693
s(S'now'
p29
S'located'
p30
S'at'
p31
tp32
F0.07692307692307693
s(S'is'
p33
S'located'
p34
S'[[det]]'
p35
tp36
F0.07692307692307693
s(S'was'
p37
S'located'
p38
S'just'
p39
tp40
F0.07692307692307693
s(S'is'
p41
S'located'
p42
S'in'
p43
tp44
F0.07692307692307693
s(S'[[det]]'
p45
S'park'
p46
S'in'
p47
tp48
F0.07692307692307693
s(S'was'
p49
S'located'
p50
S'in'
p51
tp52
F0.07692307692307693
s.