(dp0
(S'is'
p1
S'shown'
p2
S'on'
p3
tp4
F0.009523809523809525
s(S'been'
p5
S'broadcast'
p6
S'on'
p7
tp8
F0.009523809523809525
s(S'be'
p9
S'broadcast'
p10
S'on'
p11
tp12
F0.009523809523809525
s(S's'
p13
S'television'
p14
S'series'
p15
tp16
F0.009523809523809525
s(S'was'
p17
S'canceled'
p18
S'by'
p19
tp20
F0.009523809523809525
s(S'also'
p21
S'shown'
p22
S'at'
p23
tp24
F0.009523809523809525
s(S'being'
p25
S'shown'
p26
S'on'
p27
tp28
F0.009523809523809525
s(S'[[adj]]'
p29
S'shown'
p30
S'on'
p31
tp32
F0.009523809523809525
s(S'also'
p33
S'produced'
p34
S'by'
p35
tp36
F0.009523809523809525
s(S'also'
p37
S'broadcast'
p38
S'on'
p39
tp40
F0.009523809523809525
s(S'[[det]]'
p41
S'children'
p42
g13
tp43
F0.009523809523809525
s(S'is'
p44
S'broadcast'
p45
S'on'
p46
tp47
F0.009523809523809525
s(S'[[adj]]'
p48
S'aired'
p49
S'on'
p50
tp51
F0.009523809523809525
s(S'[[det]]'
p52
S'drama'
p53
S'series'
p54
tp55
F0.009523809523809525
s(S'[[adj]]'
p56
S'shown'
p57
S'at'
p58
tp59
F0.009523809523809525
s(S'produced'
p60
S'[[con]]'
p61
S'screened'
p62
tp63
F0.009523809523809525
s(S'is'
p64
S'produced'
p65
S'by'
p66
tp67
F0.009523809523809525
s(S'was'
p68
S'contested'
p69
S'by'
p70
tp71
F0.009523809523809525
s(S'then'
p72
S'produced'
p73
S'by'
p74
tp75
F0.009523809523809525
s(S'first'
p76
S'aired'
p77
S'in'
p78
tp79
F0.009523809523809525
s(S'drama'
p80
S'produced'
p81
S'by'
p82
tp83
F0.009523809523809525
s(S'[[det]]'
p84
S'sitcom'
p85
S'that'
p86
tp87
F0.009523809523809525
s(S'was'
p88
S'played'
p89
S'with'
p90
tp91
F0.009523809523809525
s(S'drama'
p92
S'series'
p93
S'produced'
p94
tp95
F0.01904761904761905
s(g69
g70
S'[[det]]'
p96
tp97
F0.009523809523809525
s(S'be'
p98
S'produced'
p99
S'for'
p100
tp101
F0.009523809523809525
s(S'also'
p102
S'aired'
p103
S'on'
p104
tp105
F0.009523809523809525
s(S'[[num]]'
p106
S'played'
p107
S'between'
p108
tp109
F0.009523809523809525
s(S'[[con]]'
p110
S'produced'
p111
S'by'
p112
tp113
F0.009523809523809525
s(S'television'
p114
g92
g93
tp115
F0.009523809523809525
s(S'created'
p116
g110
g111
tp117
F0.009523809523809525
s(S'of'
p118
S'[[adj]]'
p119
S'anime'
p120
tp121
F0.009523809523809525
s(S'was'
p122
S'aired'
p123
S'on'
p124
tp125
F0.009523809523809525
s(S'television'
p126
S'series'
p127
S'produced'
p128
tp129
F0.047619047619047616
s(g61
g62
S'on'
p130
tp131
F0.009523809523809525
s(S'[[det]]'
p132
S'television'
p133
g80
tp134
F0.009523809523809525
s(S'was'
p135
S'played'
p136
S'on'
p137
tp138
F0.009523809523809525
s(S'was'
p139
S'produced'
p140
S'[[con]]'
p141
tp142
F0.01904761904761905
s(S'was'
p143
S'broadcast'
p144
S'on'
p145
tp146
F0.009523809523809525
s(S'[[adj]]'
p147
S'television'
p148
S'series'
p149
tp150
F0.01904761904761905
s(S'[[adj]]'
p151
S'series'
p152
S'between'
p153
tp154
F0.009523809523809525
s(S'[[adj]]'
p155
S'broadcast'
p156
S'on'
p157
tp158
F0.009523809523809525
s(S'also'
p159
S'airs'
p160
S'on'
p161
tp162
F0.009523809523809525
s(g96
S'defending'
p163
S'champion'
p164
tp165
F0.009523809523809525
s(S'[[det]]'
p166
S'drama'
p167
S'television'
p168
tp169
F0.009523809523809525
s(S'[[det]]'
p170
S'product'
p171
g118
tp172
F0.009523809523809525
s(g93
g94
S'by'
p173
tp174
F0.06666666666666667
s(g148
g149
g116
tp175
F0.009523809523809525
s(S'was'
p176
S'played'
p177
S'between'
p178
tp179
F0.009523809523809525
s(S'was'
p180
S'shown'
p181
S'on'
p182
tp183
F0.009523809523809525
s(S'been'
p184
S'played'
p185
S'at'
p186
tp187
F0.009523809523809525
s(S'was'
p188
S'broadcast'
p189
S'[[adj]]'
p190
tp191
F0.009523809523809525
s(S'is'
p192
S'broadcast'
p193
S'by'
p194
tp195
F0.009523809523809525
s(S'was'
p196
S'premiered'
p197
S'at'
p198
tp199
F0.009523809523809525
s(g85
g86
S'aired'
p200
tp201
F0.009523809523809525
s(S'that'
p202
S'aired'
p203
S'on'
p204
tp205
F0.01904761904761905
s(S'is'
p206
S'shown'
p207
S'in'
p208
tp209
F0.009523809523809525
s(S'[[num]]'
p210
S'produced'
p211
S'by'
p212
tp213
F0.009523809523809525
s(S'also'
p214
S'shown'
p215
S'on'
p216
tp217
F0.009523809523809525
s(g167
g168
S'series'
p218
tp219
F0.009523809523809525
s(S'first'
p220
S'aired'
p221
S'on'
p222
tp223
F0.009523809523809525
s(S'was'
p224
S'shown'
p225
S'[[adj]]'
p226
tp227
F0.009523809523809525
s(S'[[det]]'
p228
S'television'
p229
S'show'
p230
tp231
F0.009523809523809525
s(S'was'
p232
S'broadcast'
p233
S'by'
p234
tp235
F0.009523809523809525
s(S'[[adj]]'
p236
g114
g92
tp237
F0.009523809523809525
s(S'is'
p238
S'played'
p239
S'in'
p240
tp241
F0.009523809523809525
s(S'show'
p242
S'aired'
p243
S'on'
p244
tp245
F0.009523809523809525
s(g149
g116
g110
tp246
F0.009523809523809525
s(S'began'
p247
S'airing'
p248
S'on'
p249
tp250
F0.009523809523809525
s(g171
g118
g119
tp251
F0.009523809523809525
s(S'was'
p252
S'shown'
p253
S'at'
p254
tp255
F0.009523809523809525
s(S'was'
p256
S'produced'
p257
S'for'
p258
tp259
F0.009523809523809525
s(g70
g96
g163
tp260
F0.009523809523809525
s(S'still'
p261
S'played'
p262
S'in'
p263
tp264
F0.009523809523809525
s(S'was'
p265
S'played'
p266
S'against'
p267
tp268
F0.009523809523809525
s(S'[[adj]]'
p269
S'played'
p270
S'at'
p271
tp272
F0.009523809523809525
s(S'is'
p273
S'aired'
p274
S'on'
p275
tp276
F0.009523809523809525
s(S'television'
p277
S'series'
p278
S'made'
p279
tp280
F0.009523809523809525
s(S'is'
p281
S'broadcast'
p282
S'from'
p283
tp284
F0.009523809523809525
s(S'[[det]]'
p285
S'produced'
p286
S'by'
p287
tp288
F0.009523809523809525
s(S'also'
p289
S'produced'
p290
S'in'
p291
tp292
F0.009523809523809525
s(S'is'
p293
S'played'
p294
S'between'
p295
tp296
F0.009523809523809525
s(S'[[det]]'
p297
g126
g127
tp298
F0.01904761904761905
s(S'[[num]]'
p299
S'television'
p300
S'series'
p301
tp302
F0.009523809523809525
s(S'been'
p303
S'shown'
p304
S'at'
p305
tp306
F0.009523809523809525
s(g42
g13
g14
tp307
F0.009523809523809525
s(S'was'
p308
S'played'
p309
S'at'
p310
tp311
F0.009523809523809525
s(S'is'
p312
S'produced'
p313
S'with'
p314
tp315
F0.009523809523809525
s(S'been'
p316
S'shown'
p317
S'on'
p318
tp319
F0.009523809523809525
s(g133
g80
g81
tp320
F0.009523809523809525
s.