(dp0
(S'[[det]]'
p1
S'station'
p2
S'[[con]]'
p3
tp4
F0.00558659217877095
s(S'is'
p5
S'served'
p6
S'[[adj]]'
p7
tp8
F0.00558659217877095
s(S'was'
p9
S'served'
p10
S'by'
p11
tp12
F0.00558659217877095
s(S'currently'
p13
S'owned'
p14
S'[[con]]'
p15
tp16
F0.00558659217877095
s(S'currently'
p17
S'operated'
p18
S'by'
p19
tp20
F0.00558659217877095
s(S'was'
p21
S'built'
p22
S'with'
p23
tp24
F0.00558659217877095
s(S'subway'
p25
S'station'
p26
S'operated'
p27
tp28
F0.00558659217877095
s(S'[[con]]'
p29
S'built'
p30
S'by'
p31
tp32
F0.00558659217877095
s(S'was'
p33
S'built'
p34
S'for'
p35
tp36
F0.00558659217877095
s(S'been'
p37
S'operated'
p38
S'by'
p39
tp40
F0.00558659217877095
s(S'developed'
p41
S'jointly'
p42
S'by'
p43
tp44
F0.00558659217877095
s(S'is'
p45
S'operated'
p46
S'by'
p47
tp48
F0.0223463687150838
s(S'served'
p49
S'[[con]]'
p50
S'is'
p51
tp52
F0.00558659217877095
s(S'are'
p53
S'operated'
p54
S'by'
p55
tp56
F0.00558659217877095
s(S'is'
p57
S'operated'
p58
S'with'
p59
tp60
F0.00558659217877095
s(S'located'
p61
S'[[con]]'
p62
S'operated'
p63
tp64
F0.00558659217877095
s(S'[[num]]'
p65
S'built'
p66
S'for'
p67
tp68
F0.00558659217877095
s(S'was'
p69
S'taken'
p70
S'into'
p71
tp72
F0.00558659217877095
s(S'[[det]]'
p73
S'station'
p74
S'served'
p75
tp76
F0.00558659217877095
s(S'be'
p77
S'served'
p78
S'by'
p79
tp80
F0.00558659217877095
s(S'railway'
p81
S'station'
p82
S'[[con]]'
p83
tp84
F0.00558659217877095
s(S'[[con]]'
p85
S'is'
p86
S'served'
p87
tp88
F0.0111731843575419
s(S'is'
p89
S'served'
p90
S'operated'
p91
tp92
F0.00558659217877095
s(S'[[det]]'
p93
S'operated'
p94
S'by'
p95
tp96
F0.01675977653631285
s(S'[[adj]]'
p97
S'station'
p98
S'for'
p99
tp100
F0.00558659217877095
s(S'is'
p101
S'managed'
p102
S'[[con]]'
p103
tp104
F0.00558659217877095
s(S'of'
p105
S'[[det]]'
p106
S'line'
p107
tp108
F0.00558659217877095
s(S'[[con]]'
p109
S'is'
p110
S'operated'
p111
tp112
F0.01675977653631285
s(S'is'
p113
S'operated'
p114
S'on'
p115
tp116
F0.00558659217877095
s(S'[[adj]]'
p117
S'station'
p118
S'served'
p119
tp120
F0.00558659217877095
s(S'was'
p121
S'built'
p122
S'as'
p123
tp124
F0.00558659217877095
s(S'came'
p125
S'under'
p126
S'[[adj]]'
p127
tp128
F0.00558659217877095
s(S'train'
p129
S'station'
p130
S'located'
p131
tp132
F0.00558659217877095
s(S'railway'
p133
S'is'
p134
S'[[det]]'
p135
tp136
F0.00558659217877095
s(S'came'
p137
S'under'
p138
S'[[det]]'
p139
tp140
F0.00558659217877095
s(S'was'
p141
S'built'
p142
S'after'
p143
tp144
F0.00558659217877095
s(S'automobile'
p145
S'was'
p146
g41
tp147
F0.00558659217877095
s(S'was'
p148
S'built'
p149
S'by'
p150
tp151
F0.00558659217877095
s(S'is'
p152
S'managed'
p153
S'by'
p154
tp155
F0.0111731843575419
s(S'was'
p156
S'opened'
p157
S'[[num]]'
p158
tp159
F0.00558659217877095
s(S'[[det]]'
p160
S'built'
p161
S'in'
p162
tp163
F0.00558659217877095
s(S'is'
p164
S'served'
p165
S'[[det]]'
p166
tp167
F0.00558659217877095
s(S'[[adj]]'
p168
S'built'
p169
S'for'
p170
tp171
F0.00558659217877095
s(S'is'
p172
S'built'
p173
S'by'
p174
tp175
F0.00558659217877095
s(g165
g166
S'operated'
p176
tp177
F0.00558659217877095
s(S'be'
p178
S'built'
p179
S'by'
p180
tp181
F0.00558659217877095
s(S'[[det]]'
p182
S'managed'
p183
S'by'
p184
tp185
F0.00558659217877095
s(S'[[adj]]'
p186
S'operated'
p187
S'by'
p188
tp189
F0.00558659217877095
s(g134
g135
S'railway'
p190
tp191
F0.00558659217877095
s(S'located'
p192
g109
g110
tp193
F0.0223463687150838
s(S'[[det]]'
p194
g145
g146
tp195
F0.00558659217877095
s(S'station'
p196
S'that'
p197
S'is'
p198
tp199
F0.00558659217877095
s(S'was'
p200
S'built'
p201
S'[[con]]'
p202
tp203
F0.00558659217877095
s(S'been'
p204
S'served'
p205
S'in'
p206
tp207
F0.00558659217877095
s(S'[[det]]'
p208
S'station'
p209
S'along'
p210
tp211
F0.00558659217877095
s(g7
S'services'
p212
S'operated'
p213
tp214
F0.00558659217877095
s(S'station'
p215
S'operated'
p216
S'by'
p217
tp218
F0.0111731843575419
s(S'is'
p219
S'served'
p220
S'only'
p221
tp222
F0.00558659217877095
s(g130
g131
S'[[con]]'
p223
tp224
F0.00558659217877095
s(S'[[num]]'
p225
S'operated'
p226
S'by'
p227
tp228
F0.00558659217877095
s(g139
S'control'
p229
S'of'
p230
tp231
F0.00558659217877095
s(S'[[det]]'
p232
g196
g197
tp233
F0.00558659217877095
s(g6
g7
g212
tp234
F0.00558659217877095
s(S'[[det]]'
p235
S'built'
p236
S'for'
p237
tp238
F0.00558659217877095
s(S'been'
p239
S'owned'
p240
S'[[con]]'
p241
tp242
F0.00558659217877095
s(S'was'
p243
S'opened'
p244
S'with'
p245
tp246
F0.00558659217877095
s(S'[[adj]]'
p247
S'railway'
p248
S'station'
p249
tp250
F0.00558659217877095
s(g138
g139
g229
tp251
F0.00558659217877095
s(g90
g91
S'by'
p252
tp253
F0.00558659217877095
s(S'station'
p254
S'on'
p255
S'[[det]]'
p256
tp257
F0.00558659217877095
s(S'which'
p258
S'served'
p259
S'with'
p260
tp261
F0.00558659217877095
s(S'serve'
p262
S'[[det]]'
p263
S'tracks'
p264
tp265
F0.00558659217877095
s(S'[[adj]]'
p266
S'taken'
p267
S'by'
p268
tp269
F0.00558659217877095
s(g255
g256
S'operated'
p270
tp271
F0.00558659217877095
s(S'were'
p272
S'built'
p273
S'for'
p274
tp275
F0.00558659217877095
s(S'[[det]]'
p276
g25
g26
tp277
F0.00558659217877095
s(S'[[con]]'
p278
S'is'
p279
S'managed'
p280
tp281
F0.00558659217877095
s(S'[[adj]]'
p282
S'service'
p283
S'operated'
p284
tp285
F0.00558659217877095
s(S'[[det]]'
p286
S'station'
p287
S'of'
p288
tp289
F0.00558659217877095
s(g74
g75
S'by'
p290
tp291
F0.0111731843575419
s(S'was'
p292
S'shared'
p293
S'between'
p294
tp295
F0.00558659217877095
s(S'was'
p296
S'taken'
p297
S'over'
p298
tp299
F0.00558659217877095
s(S'owned'
p300
S'[[con]]'
p301
S'is'
p302
tp303
F0.00558659217877095
s(S'[[det]]'
p304
S'station'
p305
S'after'
p306
tp307
F0.00558659217877095
s(S'is'
p308
g192
g109
tp309
F0.0223463687150838
s(S'be'
p310
S'built'
p311
S'as'
p312
tp313
F0.00558659217877095
s(S'[[det]]'
p314
S'owned'
p315
S'[[con]]'
p316
tp317
F0.00558659217877095
s(S'[[det]]'
p318
S'train'
p319
S'station'
p320
tp321
F0.0223463687150838
s(g62
g63
S'by'
p322
tp323
F0.0335195530726257
s(S'also'
p324
S'built'
p325
S'by'
p326
tp327
F0.00558659217877095
s(g50
g51
S'located'
p328
tp329
F0.00558659217877095
s(S'was'
p330
S'operated'
p331
S'by'
p332
tp333
F0.00558659217877095
s(S'formerly'
p334
S'operated'
p335
S'by'
p336
tp337
F0.00558659217877095
s(S'also'
p338
S'served'
p339
S'by'
p340
tp341
F0.00558659217877095
s(S'[[adj]]'
p342
S'station'
p343
S'of'
p344
tp345
F0.00558659217877095
s(S'[[det]]'
p346
S'terminus'
p347
g105
tp348
F0.00558659217877095
s(S'also'
p349
S'operated'
p350
S'with'
p351
tp352
F0.00558659217877095
s(g51
g328
S'in'
p353
tp354
F0.00558659217877095
s(S'[[det]]'
p355
S'station'
p356
S'on'
p357
tp358
F0.00558659217877095
s(S'[[det]]'
p359
S'built'
p360
S'by'
p361
tp362
F0.00558659217877095
s(S'is'
p363
S'owned'
p364
S'[[con]]'
p365
tp366
F0.01675977653631285
s(g127
S'control'
p367
S'of'
p368
tp369
F0.00558659217877095
s(S'is'
p370
S'served'
p371
S'by'
p372
tp373
F0.0223463687150838
s(S'is'
p374
S'shared'
p375
S'by'
p376
tp377
F0.00558659217877095
s(g197
g198
S'served'
p378
tp379
F0.00558659217877095
s(S'[[num]]'
p380
S'built'
p381
S'by'
p382
tp383
F0.00558659217877095
s(S'that'
p384
S'served'
p385
S'in'
p386
tp387
F0.00558659217877095
s(g347
g105
g106
tp388
F0.00558659217877095
s(S'is'
p389
S'taken'
p390
S'over'
p391
tp392
F0.00558659217877095
s(S'was'
p393
S'opened'
p394
S'by'
p395
tp396
F0.00558659217877095
s(S'now'
p397
S'operated'
p398
S'by'
p399
tp400
F0.00558659217877095
s(S'[[adj]]'
p401
S'station'
p402
S'on'
p403
tp404
F0.00558659217877095
s(S'train'
p405
g215
g216
tp406
F0.00558659217877095
s(S'been'
p407
S'built'
p408
S'for'
p409
tp410
F0.00558659217877095
s(g212
g213
S'by'
p411
tp412
F0.00558659217877095
s(S'be'
p413
S'operated'
p414
S'by'
p415
tp416
F0.00558659217877095
s(S'of'
p417
g262
g263
tp418
F0.00558659217877095
s(S'is'
p419
g49
g50
tp420
F0.00558659217877095
s(S'train'
p421
S'station'
p422
S'on'
p423
tp424
F0.0111731843575419
s(S'is'
p425
S'built'
p426
S'at'
p427
tp428
F0.00558659217877095
s(g248
g249
S'on'
p429
tp430
F0.01675977653631285
s(S'[[adj]]'
p431
S'opened'
p432
S'by'
p433
tp434
F0.00558659217877095
s(S'station'
p435
g85
g86
tp436
F0.00558659217877095
s(S'consists'
p437
g417
g262
tp438
F0.00558659217877095
s(S'only'
p439
S'served'
p440
S'by'
p441
tp442
F0.00558659217877095
s(g283
g284
S'by'
p443
tp444
F0.00558659217877095
s(S'is'
p445
S'built'
p446
S'up'
p447
tp448
F0.00558659217877095
s(g14
g15
S'operated'
p449
tp450
F0.0335195530726257
s(S'[[con]]'
p451
S'operated'
p452
S'with'
p453
tp454
F0.00558659217877095
s(S'was'
p455
S'opened'
p456
S'[[con]]'
p457
tp458
F0.00558659217877095
s(S'was'
p459
S'built'
p460
S'around'
p461
tp462
F0.00558659217877095
s(g146
g41
g42
tp463
F0.00558659217877095
s(g319
g320
S'of'
p464
tp465
F0.00558659217877095
s(S'[[det]]'
p466
S'railway'
p467
S'station'
p468
tp469
F0.0223463687150838
s(g467
g468
S'of'
p470
tp471
F0.00558659217877095
s(S'was'
p472
S'owned'
p473
S'[[con]]'
p474
tp475
F0.00558659217877095
s(g126
g127
g367
tp476
F0.00558659217877095
s(S'is'
p477
S'operated'
p478
S'[[con]]'
p479
tp480
F0.00558659217877095
s.