(dp0
(S'[[num]]'
p1
S'version'
p2
S'of'
p3
tp4
F0.14285714285714285
s(S'[[det]]'
p5
S'version'
p6
S'of'
p7
tp8
F0.14285714285714285
s(S's'
p9
S'version'
p10
S'of'
p11
tp12
F0.14285714285714285
s(S'[[adj]]'
p13
S'version'
p14
S'of'
p15
tp16
F0.14285714285714285
s(S'now'
p17
S'runs'
p18
S'on'
p19
tp20
F0.14285714285714285
s(S'[[adj]]'
p21
S'version'
p22
S'is'
p23
tp24
F0.14285714285714285
s(S'[[adj]]'
p25
S'version'
p26
S'[[con]]'
p27
tp28
F0.14285714285714285
s.