(dp0
(S'[[det]]'
p1
S'home'
p2
S'for'
p3
tp4
F0.00510204081632653
s(S'was'
p5
S'sold'
p6
S'[[con]]'
p7
tp8
F0.00510204081632653
s(S's'
p9
S'home'
p10
S'of'
p11
tp12
F0.00510204081632653
s(S'was'
p13
S'built'
p14
S'for'
p15
tp16
F0.00510204081632653
s(S'[[adj]]'
p17
S'base'
p18
S'for'
p19
tp20
F0.00510204081632653
s(S'currently'
p21
S'owned'
p22
S'[[con]]'
p23
tp24
F0.00510204081632653
s(S'being'
p25
S'used'
p26
S'by'
p27
tp28
F0.00510204081632653
s(S'[[num]]'
p29
S'built'
p30
S'for'
p31
tp32
F0.00510204081632653
s(S'was'
p33
S'built'
p34
S'with'
p35
tp36
F0.00510204081632653
s(S'ferry'
p37
S'operated'
p38
S'by'
p39
tp40
F0.01020408163265306
s(S'[[adj]]'
p41
S'home'
p42
S'[[det]]'
p43
tp44
F0.00510204081632653
s(S'[[con]]'
p45
S'built'
p46
S'by'
p47
tp48
F0.00510204081632653
s(S'also'
p49
S'home'
p50
S'of'
p51
tp52
F0.00510204081632653
s(S'been'
p53
S'operated'
p54
S'by'
p55
tp56
F0.00510204081632653
s(S'be'
p57
S'sold'
p58
S'in'
p59
tp60
F0.00510204081632653
s(S'was'
p61
S'home'
p62
S'to'
p63
tp64
F0.00510204081632653
s(S'[[det]]'
p65
S'used'
p66
S'by'
p67
tp68
F0.00510204081632653
s(S'was'
p69
S'sold'
p70
S'by'
p71
tp72
F0.00510204081632653
s(S'was'
p73
S'chartered'
p74
S'to'
p75
tp76
F0.00510204081632653
s(S'been'
p77
S'sold'
p78
S'in'
p79
tp80
F0.00510204081632653
s(S'was'
p81
S'handed'
p82
S'over'
p83
tp84
F0.00510204081632653
s(S'was'
p85
S'entered'
p86
S'[[con]]'
p87
tp88
F0.00510204081632653
s(S'are'
p89
S'operated'
p90
S'by'
p91
tp92
F0.00510204081632653
s(S'[[det]]'
p93
S'ferry'
p94
S'owned'
p95
tp96
F0.00510204081632653
s(S'is'
p97
S'operated'
p98
S'with'
p99
tp100
F0.00510204081632653
s(S'[[det]]'
p101
S'home'
p102
S'[[det]]'
p103
tp104
F0.00510204081632653
s(S'was'
p105
S'sold'
p106
S'for'
p107
tp108
F0.00510204081632653
s(S'later'
p109
S'purchased'
p110
S'by'
p111
tp112
F0.00510204081632653
s(S'was'
p113
S'home'
p114
S'of'
p115
tp116
F0.00510204081632653
s(S'was'
p117
S'sold'
p118
S'[[det]]'
p119
tp120
F0.00510204081632653
s(S'mainly'
p121
S'used'
p122
S'by'
p123
tp124
F0.00510204081632653
s(S'be'
p125
S'sold'
p126
S'to'
p127
tp128
F0.00510204081632653
s(S'was'
p129
S'owned'
p130
S'[[con]]'
p131
tp132
F0.00510204081632653
s(S'was'
p133
S'purchased'
p134
S'by'
p135
tp136
F0.00510204081632653
s(S'[[det]]'
p137
S'base'
p138
S'of'
p139
tp140
F0.00510204081632653
s(S'[[det]]'
p141
S'operated'
p142
S'by'
p143
tp144
F0.00510204081632653
s(S'was'
p145
S'sold'
p146
S'off'
p147
tp148
F0.00510204081632653
s(S'became'
p149
S'home'
p150
S'to'
p151
tp152
F0.00510204081632653
s(S'was'
p153
S'delivered'
p154
S'to'
p155
tp156
F0.00510204081632653
s(S'still'
p157
S'used'
p158
S'by'
p159
tp160
F0.00510204081632653
s(S'was'
p161
S'handed'
p162
S'to'
p163
tp164
F0.00510204081632653
s(S'[[con]]'
p165
S'is'
p166
S'operated'
p167
tp168
F0.00510204081632653
s(S'been'
p169
S'used'
p170
S'at'
p171
tp172
F0.00510204081632653
s(S'is'
p173
S'operated'
p174
S'on'
p175
tp176
F0.00510204081632653
s(S'was'
p177
S'chartered'
p178
S'by'
p179
tp180
F0.00510204081632653
s(S'was'
p181
S'built'
p182
S'as'
p183
tp184
F0.00510204081632653
s(S'later'
p185
S'used'
p186
S'by'
p187
tp188
F0.00510204081632653
s(S'is'
p189
S'used'
p190
S'on'
p191
tp192
F0.00510204081632653
s(S'be'
p193
S'home'
p194
S'to'
p195
tp196
F0.00510204081632653
s(S'was'
p197
S'owned'
p198
S'by'
p199
tp200
F0.00510204081632653
s(S'is'
p201
S'sold'
p202
S'by'
p203
tp204
F0.00510204081632653
s(S'cruise'
p205
S'ship'
p206
S'owned'
p207
tp208
F0.015306122448979591
s(S'entered'
p209
S'service'
p210
S'with'
p211
tp212
F0.00510204081632653
s(g206
g207
S'[[con]]'
p213
tp214
F0.01020408163265306
s(S'was'
p215
S'built'
p216
S'by'
p217
tp218
F0.00510204081632653
s(S'formerly'
p219
S'owned'
p220
S'by'
p221
tp222
F0.00510204081632653
s(S'[[det]]'
p223
S'built'
p224
S'in'
p225
tp226
F0.00510204081632653
s(S'[[adj]]'
p227
S'home'
p228
S'[[num]]'
p229
tp230
F0.00510204081632653
s(S'also'
p231
S'owned'
p232
S'by'
p233
tp234
F0.00510204081632653
s(S'be'
p235
S'sold'
p236
S'by'
p237
tp238
F0.00510204081632653
s(S'[[adj]]'
p239
S'built'
p240
S'for'
p241
tp242
F0.00510204081632653
s(S'is'
p243
S'built'
p244
S'by'
p245
tp246
F0.00510204081632653
s(S'be'
p247
S'built'
p248
S'by'
p249
tp250
F0.00510204081632653
s(S'[[con]]'
p251
S'owned'
p252
S'by'
p253
tp254
F0.00510204081632653
s(S'currently'
p255
S'used'
p256
S'by'
p257
tp258
F0.00510204081632653
s(S'now'
p259
S'owned'
p260
S'by'
p261
tp262
F0.00510204081632653
s(S'[[adj]]'
p263
S'operated'
p264
S'by'
p265
tp266
F0.00510204081632653
s(S'were'
p267
S'sold'
p268
S'to'
p269
tp270
F0.00510204081632653
s(S'cruise'
p271
S'ship'
p272
S'operated'
p273
tp274
F0.00510204081632653
s(S'is'
p275
S'owned'
p276
S'[[num]]'
p277
tp278
F0.00510204081632653
s(S'also'
p279
S'used'
p280
S'by'
p281
tp282
F0.00510204081632653
s(S'[[adj]]'
p283
S'home'
p284
S'to'
p285
tp286
F0.00510204081632653
s(S'entered'
p287
S'service'
p288
S'for'
p289
tp290
F0.00510204081632653
s(S'[[det]]'
p291
S'class'
p292
g205
tp293
F0.00510204081632653
s(S'ship'
p294
S'owned'
p295
S'by'
p296
tp297
F0.00510204081632653
s(S'was'
p298
S'built'
p299
S'[[con]]'
p300
tp301
F0.00510204081632653
s(S'been'
p302
S'owned'
p303
S'by'
p304
tp305
F0.00510204081632653
s(S'formerly'
p306
S'operated'
p307
S'by'
p308
tp309
F0.00510204081632653
s(S'[[num]]'
p310
S'operated'
p311
S'by'
p312
tp313
F0.00510204081632653
s(S'were'
p314
S'sold'
p315
S'off'
p316
tp317
F0.00510204081632653
s(S'[[con]]'
p318
S'used'
p319
S'by'
p320
tp321
F0.00510204081632653
s(S'were'
p322
S'purchased'
p323
S'by'
p324
tp325
F0.00510204081632653
s(S'are'
p326
S'owned'
p327
S'by'
p328
tp329
F0.00510204081632653
s(S'still'
p330
S'owned'
p331
S'by'
p332
tp333
F0.00510204081632653
s(S'was'
p334
S'used'
p335
S'on'
p336
tp337
F0.00510204081632653
s(S'[[det]]'
p338
S'built'
p339
S'for'
p340
tp341
F0.00510204081632653
s(S'been'
p342
S'owned'
p343
S'[[con]]'
p344
tp345
F0.00510204081632653
s(S'[[adj]]'
p346
S'base'
p347
S'of'
p348
tp349
F0.00510204081632653
s(S'[[det]]'
p350
S'home'
p351
S'of'
p352
tp353
F0.00510204081632653
s(S'is'
p354
S'home'
p355
S'[[con]]'
p356
tp357
F0.00510204081632653
s(S'not'
p358
S'owned'
p359
S'by'
p360
tp361
F0.00510204081632653
s(S'now'
p362
S'used'
p363
S'by'
p364
tp365
F0.00510204081632653
s(S'was'
p366
S'built'
p367
S'after'
p368
tp369
F0.00510204081632653
s(S'[[adj]]'
p370
S'sold'
p371
S'in'
p372
tp373
F0.00510204081632653
s(S'being'
p374
S'sold'
p375
S'to'
p376
tp377
F0.00510204081632653
s(S'not'
p378
S'used'
p379
S'by'
p380
tp381
F0.00510204081632653
s(S'[[det]]'
p382
S'home'
p383
S'to'
p384
tp385
F0.00510204081632653
s(S'was'
p386
S'used'
p387
S'by'
p388
tp389
F0.00510204081632653
s(S'were'
p390
S'built'
p391
S'for'
p392
tp393
F0.00510204081632653
s(S'[[det]]'
p394
S'home'
p395
S'when'
p396
tp397
F0.00510204081632653
s(S'been'
p398
S'used'
p399
S'for'
p400
tp401
F0.00510204081632653
s(S'was'
p402
S'sold'
p403
S'to'
p404
tp405
F0.00510204081632653
s(S'[[adj]]'
p406
S'home'
p407
S'of'
p408
tp409
F0.00510204081632653
s(S'image'
p410
S'operated'
p411
S'by'
p412
tp413
F0.00510204081632653
s(S'[[det]]'
p414
S'home'
p415
S'[[con]]'
p416
tp417
F0.00510204081632653
s(S'was'
p418
S'home'
p419
S'[[det]]'
p420
tp421
F0.00510204081632653
s(S'was'
p422
S'purchased'
p423
S'for'
p424
tp425
F0.00510204081632653
s(S'is'
p426
S'home'
p427
S'[[det]]'
p428
tp429
F0.00510204081632653
s(S'then'
p430
S'used'
p431
S'by'
p432
tp433
F0.00510204081632653
s(S'was'
p434
S'home'
p435
S'[[con]]'
p436
tp437
F0.00510204081632653
s(S'currently'
p438
S'operated'
p439
S'by'
p440
tp441
F0.00510204081632653
s(S'been'
p442
S'home'
p443
S'to'
p444
tp445
F0.00510204081632653
s(S'was'
p446
S'used'
p447
S'[[con]]'
p448
tp449
F0.00510204081632653
s(S'now'
p450
S'home'
p451
S'to'
p452
tp453
F0.00510204081632653
s(S'[[det]]'
p454
S'ferry'
p455
S'operated'
p456
tp457
F0.00510204081632653
s(S'be'
p458
S'used'
p459
S'by'
p460
tp461
F0.00510204081632653
s(S'was'
p462
S'transferred'
p463
S'to'
p464
tp465
F0.00510204081632653
s(S'be'
p466
S'built'
p467
S'as'
p468
tp469
F0.00510204081632653
s(S'[[det]]'
p470
S'owned'
p471
S'[[con]]'
p472
tp473
F0.00510204081632653
s(S'once'
p474
S'used'
p475
S'by'
p476
tp477
F0.00510204081632653
s(g213
S'operated'
p478
S'by'
p479
tp480
F0.03571428571428571
s(S'also'
p481
S'built'
p482
S'by'
p483
tp484
F0.00510204081632653
s(S'was'
p485
S'operated'
p486
S'by'
p487
tp488
F0.00510204081632653
s(S'ship'
p489
g410
g411
tp490
F0.00510204081632653
s(S'only'
p491
S'used'
p492
S'by'
p493
tp494
F0.00510204081632653
s(S'been'
p495
S'used'
p496
S'by'
p497
tp498
F0.00510204081632653
s(S'also'
p499
S'sold'
p500
S'[[adj]]'
p501
tp502
F0.00510204081632653
s(S'also'
p503
S'operated'
p504
S'with'
p505
tp506
F0.00510204081632653
s(S'[[adj]]'
p507
g37
g38
tp508
F0.00510204081632653
s(S'is'
p509
S'built'
p510
S'up'
p511
tp512
F0.00510204081632653
s(S'had'
p513
S'purchased'
p514
S'[[det]]'
p515
tp516
F0.00510204081632653
s(S'is'
p517
S'owned'
p518
S'[[con]]'
p519
tp520
F0.02040816326530612
s(S'[[det]]'
p521
S'owned'
p522
S'by'
p523
tp524
F0.00510204081632653
s(S'then'
p525
S'purchased'
p526
S'by'
p527
tp528
F0.00510204081632653
s(S'[[num]]'
p529
S'built'
p530
S'by'
p531
tp532
F0.00510204081632653
s(S'[[adj]]'
p533
S'ferry'
p534
S'owned'
p535
tp536
F0.00510204081632653
s(S'[[det]]'
p537
S'built'
p538
S'by'
p539
tp540
F0.00510204081632653
s(g86
g87
g462
tp541
F0.00510204081632653
s(S'be'
p542
S'used'
p543
S'from'
p544
tp545
F0.00510204081632653
s(g94
g95
S'by'
p546
tp547
F0.01020408163265306
s(S'now'
p548
S'operated'
p549
S'by'
p550
tp551
F0.00510204081632653
s(S'is'
p552
S'used'
p553
S'by'
p554
tp555
F0.00510204081632653
s(S'[[det]]'
p556
g271
g272
tp557
F0.025510204081632654
s(S'is'
p558
S'home'
p559
S'to'
p560
tp561
F0.00510204081632653
s(S'being'
p562
S'sold'
p563
S'in'
p564
tp565
F0.00510204081632653
s(S'was'
p566
S'used'
p567
S'as'
p568
tp569
F0.00510204081632653
s(S'[[det]]'
p570
S'base'
p571
S'for'
p572
tp573
F0.00510204081632653
s(S'be'
p574
S'operated'
p575
S'by'
p576
tp577
F0.00510204081632653
s(g87
g462
g463
tp578
F0.00510204081632653
s(S'is'
p579
S'operated'
p580
S'by'
p581
tp582
F0.015306122448979591
s(S'is'
p583
S'built'
p584
S'at'
p585
tp586
F0.00510204081632653
s(g292
g205
g206
tp587
F0.00510204081632653
s(S'currently'
p588
S'home'
p589
S'to'
p590
tp591
F0.00510204081632653
s(S'was'
p592
S'chartered'
p593
S'[[con]]'
p594
tp595
F0.00510204081632653
s(S'is'
p596
S'owned'
p597
S'by'
p598
tp599
F0.00510204081632653
s(S'been'
p600
S'built'
p601
S'for'
p602
tp603
F0.00510204081632653
s(g207
g213
g478
tp604
F0.04081632653061224
s(S'image'
p605
S'is'
p606
S'operated'
p607
tp608
F0.00510204081632653
s(S'[[con]]'
p609
S'operated'
p610
S'with'
p611
tp612
F0.00510204081632653
s(S'currently'
p613
S'owned'
p614
S'by'
p615
tp616
F0.00510204081632653
s(S'[[adj]]'
p617
S'home'
p618
S'for'
p619
tp620
F0.00510204081632653
s(S'was'
p621
S'built'
p622
S'around'
p623
tp624
F0.00510204081632653
s(g272
g273
S'by'
p625
tp626
F0.00510204081632653
s(S'ship'
p627
g605
g606
tp628
F0.00510204081632653
s(S'cruise'
p629
S'ship'
p630
S'for'
p631
tp632
F0.00510204081632653
s(S'is'
p633
S'operated'
p634
S'[[con]]'
p635
tp636
F0.00510204081632653
s(S'owned'
p637
g165
g166
tp638
F0.00510204081632653
s(S'also'
p639
S'used'
p640
S'on'
p641
tp642
F0.00510204081632653
s(S'also'
p643
S'sold'
p644
S'by'
p645
tp646
F0.00510204081632653
s.