(dp0
(S'flows'
p1
S'northwest'
p2
S'from'
p3
tp4
F0.028985507246376812
s(S'[[det]]'
p5
S'river'
p6
S'on'
p7
tp8
F0.014492753623188406
s(S'[[det]]'
p9
S'slopes'
p10
S'of'
p11
tp12
F0.014492753623188406
s(S'[[det]]'
p13
S'river'
p14
S'[[con]]'
p15
tp16
F0.014492753623188406
s(S'being'
p17
S'used'
p18
S'by'
p19
tp20
F0.014492753623188406
s(S'rises'
p21
S'in'
p22
S'[[adj]]'
p23
tp24
F0.014492753623188406
s(S'then'
p25
S'used'
p26
S'by'
p27
tp28
F0.014492753623188406
s(S'on'
p29
S'[[adj]]'
p30
S'slopes'
p31
tp32
F0.014492753623188406
s(S'from'
p33
S'[[det]]'
p34
S'confluence'
p35
tp36
F0.014492753623188406
s(S'is'
p37
S'used'
p38
S'on'
p39
tp40
F0.014492753623188406
s(S'[[det]]'
p41
S'confluence'
p42
S'[[con]]'
p43
tp44
F0.014492753623188406
s(S'be'
p45
S'used'
p46
S'from'
p47
tp48
F0.014492753623188406
s(S'[[con]]'
p49
S'adopted'
p50
S'by'
p51
tp52
F0.014492753623188406
s(S'also'
p53
S'used'
p54
S'on'
p55
tp56
F0.014492753623188406
s(S'[[det]]'
p57
S'confluence'
p58
S'of'
p59
tp60
F0.043478260869565216
s(S'is'
p61
S'used'
p62
S'by'
p63
tp64
F0.014492753623188406
s(S'formed'
p65
g33
g34
tp66
F0.014492753623188406
s(S'[[adj]]'
p67
S'river'
p68
S'in'
p69
tp70
F0.014492753623188406
s(S'was'
p71
S'used'
p72
S'as'
p73
tp74
F0.014492753623188406
s(S'was'
p75
S'used'
p76
S'by'
p77
tp78
F0.014492753623188406
s(g30
g31
S'of'
p79
tp80
F0.028985507246376812
s(S'was'
p81
S'used'
p82
S'on'
p83
tp84
F0.014492753623188406
s(S'been'
p85
S'used'
p86
S'for'
p87
tp88
F0.014492753623188406
s(S'now'
p89
S'used'
p90
S'by'
p91
tp92
F0.014492753623188406
s(S'by'
p93
g41
g42
tp94
F0.028985507246376812
s(S'also'
p95
S'used'
p96
S'by'
p97
tp98
F0.014492753623188406
s(S'[[det]]'
p99
S'border'
p100
S'river'
p101
tp102
F0.014492753623188406
s(g100
g101
S'between'
p103
tp104
F0.014492753623188406
s(S'from'
p105
S'[[prp]]'
p106
S'sources'
p107
tp108
F0.014492753623188406
s(S'once'
p109
S'used'
p110
S'by'
p111
tp112
F0.014492753623188406
s(S'formed'
p113
g93
g41
tp114
F0.028985507246376812
s(S'was'
p115
S'adopted'
p116
S'[[con]]'
p117
tp118
F0.014492753623188406
s(S'currently'
p119
S'used'
p120
S'by'
p121
tp122
F0.014492753623188406
s(g106
g107
S'in'
p123
tp124
F0.014492753623188406
s(S'formed'
p125
S'at'
p126
g57
tp127
F0.014492753623188406
s(S'[[adj]]'
p128
S'river'
p129
S'of'
p130
tp131
F0.014492753623188406
s(g126
g57
g58
tp132
F0.014492753623188406
s(S'[[det]]'
p133
S'river'
p134
S'in'
p135
tp136
F0.014492753623188406
s(S'mainly'
p137
S'used'
p138
S'by'
p139
tp140
F0.014492753623188406
s(S'was'
p141
S'used'
p142
S'[[con]]'
p143
tp144
F0.014492753623188406
s(S'rises'
p145
g29
g30
tp146
F0.014492753623188406
s(S'be'
p147
S'used'
p148
S'by'
p149
tp150
F0.014492753623188406
s(S'not'
p151
S'used'
p152
S'by'
p153
tp154
F0.014492753623188406
s(S'rises'
p155
S'on'
p156
g9
tp157
F0.014492753623188406
s(S'is'
p158
g125
g126
tp159
F0.014492753623188406
s(S'[[det]]'
p160
S'river'
p161
S'of'
p162
tp163
F0.014492753623188406
s(S'flows'
p164
S'west'
p165
S'from'
p166
tp167
F0.014492753623188406
s(S'was'
p168
S'adopted'
p169
S'by'
p170
tp171
F0.014492753623188406
s(S'[[det]]'
p172
S'river'
p173
S'[[det]]'
p174
tp175
F0.014492753623188406
s(S'is'
p176
g113
g93
tp177
F0.028985507246376812
s(S'is'
p178
g65
g33
tp179
F0.014492753623188406
s(S'[[det]]'
p180
S'used'
p181
S'by'
p182
tp183
F0.014492753623188406
s(S'been'
p184
S'used'
p185
S'by'
p186
tp187
F0.014492753623188406
s(S'still'
p188
S'used'
p189
S'by'
p190
tp191
F0.014492753623188406
s(S'[[con]]'
p192
S'used'
p193
S'by'
p194
tp195
F0.014492753623188406
s(S'northwest'
p196
g105
g106
tp197
F0.014492753623188406
s(S'been'
p198
S'used'
p199
S'at'
p200
tp201
F0.014492753623188406
s(g156
g9
g10
tp202
F0.014492753623188406
s(S'only'
p203
S'used'
p204
S'by'
p205
tp206
F0.014492753623188406
s(S'flows'
p207
S'south'
p208
S'from'
p209
tp210
F0.014492753623188406
s(g22
g23
S'slopes'
p211
tp212
F0.014492753623188406
s(S'later'
p213
S'used'
p214
S'by'
p215
tp216
F0.014492753623188406
s.