(dp0
(S'[[det]]'
p1
S'station'
p2
S'[[con]]'
p3
tp4
F0.0021008403361344537
s(S'was'
p5
S'built'
p6
S'for'
p7
tp8
F0.0021008403361344537
s(S'[[adj]]'
p9
S'base'
p10
S'for'
p11
tp12
F0.0021008403361344537
s(S'be'
p13
S'purchased'
p14
S'by'
p15
tp16
F0.0021008403361344537
s(S'currently'
p17
S'operated'
p18
S'by'
p19
tp20
F0.0021008403361344537
s(S'was'
p21
S'built'
p22
S'with'
p23
tp24
F0.0021008403361344537
s(S'also'
p25
S'home'
p26
S'of'
p27
tp28
F0.0021008403361344537
s(S'be'
p29
S'acquired'
p30
S'by'
p31
tp32
F0.0063025210084033615
s(S'in'
p33
S'service'
p34
S'with'
p35
tp36
F0.0021008403361344537
s(S'was'
p37
S'merged'
p38
S'into'
p39
tp40
F0.0021008403361344537
s(S'was'
p41
S'sold'
p42
S'by'
p43
tp44
F0.0021008403361344537
s(S'were'
p45
S'purchased'
p46
S'from'
p47
tp48
F0.0021008403361344537
s(S'wordnetkilohertz'
p49
S'ownership'
p50
S'of'
p51
tp52
F0.0021008403361344537
s(S'also'
p53
S'built'
p54
S'by'
p55
tp56
F0.0021008403361344537
s(S'ocean'
p57
S'liner'
p58
S'built'
p59
tp60
F0.0021008403361344537
s(S'was'
p61
S'taken'
p62
S'into'
p63
tp64
F0.0021008403361344537
s(S'[[adj]]'
p65
S'form'
p66
S'as'
p67
tp68
F0.0021008403361344537
s(S'had'
p69
S'purchased'
p70
S'from'
p71
tp72
F0.0021008403361344537
s(S'was'
p73
S'established'
p74
S'under'
p75
tp76
F0.0021008403361344537
s(S'[[det]]'
p77
S'base'
p78
S'of'
p79
tp80
F0.0021008403361344537
s(S'[[det]]'
p81
S'operated'
p82
S'by'
p83
tp84
F0.0021008403361344537
s(S'is'
p85
S'sold'
p86
S'by'
p87
tp88
F0.0021008403361344537
s(S'[[con]]'
p89
S'is'
p90
S'operated'
p91
tp92
F0.0021008403361344537
s(S'was'
p93
S'merged'
p94
S'to'
p95
tp96
F0.0021008403361344537
s(S'also'
p97
S'sold'
p98
S'to'
p99
tp100
F0.0021008403361344537
s(S'ship'
p101
S'owned'
p102
S'[[con]]'
p103
tp104
F0.004201680672268907
s(S'is'
p105
S'managed'
p106
S'by'
p107
tp108
F0.0021008403361344537
s(S'[[adj]]'
p109
S'service'
p110
S'[[con]]'
p111
tp112
F0.0021008403361344537
s(S'cruise'
p113
S'ship'
p114
S'operated'
p115
tp116
F0.0021008403361344537
s(S'[[det]]'
p117
S'built'
p118
S'in'
p119
tp120
F0.0021008403361344537
s(S'also'
p121
S'owned'
p122
S'by'
p123
tp124
F0.0021008403361344537
s(S'was'
p125
S'purchased'
p126
S'[[con]]'
p127
tp128
F0.0021008403361344537
s(S'[[adj]]'
p129
S'built'
p130
S'for'
p131
tp132
F0.0021008403361344537
s(S'is'
p133
S'built'
p134
S'by'
p135
tp136
F0.0021008403361344537
s(S'[[adj]]'
p137
S'terminus'
p138
S'for'
p139
tp140
F0.0021008403361344537
s(S'[[det]]'
p141
S'managed'
p142
S'by'
p143
tp144
F0.0021008403361344537
s(S'currently'
p145
S'used'
p146
S'by'
p147
tp148
F0.0021008403361344537
s(S'[[adj]]'
p149
S'operated'
p150
S'by'
p151
tp152
F0.0021008403361344537
s(S'[[adj]]'
p153
S'home'
p154
S'to'
p155
tp156
F0.0021008403361344537
s(S'ship'
p157
S'owned'
p158
S'by'
p159
tp160
F0.0021008403361344537
s(S'was'
p161
S'built'
p162
S'[[con]]'
p163
tp164
F0.0021008403361344537
s(S'of'
p165
S'is'
p166
S'owned'
p167
tp168
F0.0021008403361344537
s(S'[[det]]'
p169
S'station'
p170
S'on'
p171
tp172
F0.0021008403361344537
s(S'formerly'
p173
S'operated'
p174
S'by'
p175
tp176
F0.0021008403361344537
s(S'were'
p177
S'purchased'
p178
S'by'
p179
tp180
F0.0021008403361344537
s(S'was'
p181
S'established'
p182
S'by'
p183
tp184
F0.0021008403361344537
s(S'[[det]]'
p185
S'established'
p186
S'in'
p187
tp188
F0.0021008403361344537
s(S'[[adj]]'
p189
S'affiliate'
p190
S'for'
p191
tp192
F0.0021008403361344537
s(S'is'
p193
S'used'
p194
S'on'
p195
tp196
F0.0021008403361344537
s(S'was'
p197
S'built'
p198
S'after'
p199
tp200
F0.0021008403361344537
s(S'was'
p201
S'established'
p202
S'when'
p203
tp204
F0.0021008403361344537
s(S'[[con]]'
p205
S'merged'
p206
S'with'
p207
tp208
F0.0021008403361344537
s(S'of'
p209
S'based'
p210
S'in'
p211
tp212
F0.0021008403361344537
s(S'was'
p213
S'sold'
p214
S'to'
p215
tp216
F0.0021008403361344537
s(S'mainly'
p217
S'used'
p218
S'by'
p219
tp220
F0.0021008403361344537
s(S'once'
p221
S'used'
p222
S'by'
p223
tp224
F0.0021008403361344537
s(S'been'
p225
S'home'
p226
S'to'
p227
tp228
F0.0021008403361344537
s(S'now'
p229
S'home'
p230
S'to'
p231
tp232
F0.0021008403361344537
s(S'[[det]]'
p233
S'station'
p234
S'after'
p235
tp236
F0.0021008403361344537
s(S'was'
p237
S'transferred'
p238
S'to'
p239
tp240
F0.0021008403361344537
s(S'is'
p241
S'published'
p242
S'[[adj]]'
p243
tp244
F0.0021008403361344537
s(S'wholly'
p245
S'owned'
p246
S'subsidiary'
p247
tp248
F0.014705882352941176
s(S'to'
p249
S'form'
p250
S'[[con]]'
p251
tp252
F0.0021008403361344537
s(S'still'
p253
S'owned'
p254
S'by'
p255
tp256
F0.0021008403361344537
s(S'which'
p257
S'served'
p258
S'with'
p259
tp260
F0.0021008403361344537
s(S'is'
p261
S'published'
p262
S'with'
p263
tp264
F0.0021008403361344537
s(S'be'
p265
S'used'
p266
S'from'
p267
tp268
F0.0021008403361344537
s(S'was'
p269
S'acquired'
p270
S'[[con]]'
p271
tp272
F0.0063025210084033615
s(S'had'
p273
S'purchased'
p274
S'[[det]]'
p275
tp276
F0.0021008403361344537
s(S'were'
p277
S'bought'
p278
S'by'
p279
tp280
F0.0021008403361344537
s(S'[[adj]]'
p281
S'affiliate'
p282
S'of'
p283
tp284
F0.0021008403361344537
s(S'[[con]]'
p285
S'merged'
p286
S'into'
p287
tp288
F0.0021008403361344537
s(S'of'
p289
S'serve'
p290
S'[[det]]'
p291
tp292
F0.0021008403361344537
s(S'only'
p293
S'served'
p294
S'by'
p295
tp296
F0.0021008403361344537
s(S'were'
p297
S'merged'
p298
S'into'
p299
tp300
F0.0021008403361344537
s(S'was'
p301
S'originally'
p302
S'built'
p303
tp304
F0.01050420168067227
s(S'[[pro]]'
p305
S'acquired'
p306
S'by'
p307
tp308
F0.0021008403361344537
s(S'was'
p309
S'merged'
p310
S'[[con]]'
p311
tp312
F0.0021008403361344537
s(S'also'
p313
S'operated'
p314
S'[[det]]'
p315
tp316
F0.0021008403361344537
s(S'[[det]]'
p317
S'wholly'
p318
S'owned'
p319
tp320
F0.01050420168067227
s(S'had'
p321
S'acquired'
p322
S'from'
p323
tp324
F0.0021008403361344537
s(S'later'
p325
S'bought'
p326
S'by'
p327
tp328
F0.0021008403361344537
s(S'by'
p329
S'[[det]]'
p330
S'subsidiary'
p331
tp332
F0.004201680672268907
s(S'was'
p333
S'established'
p334
S'at'
p335
tp336
F0.0021008403361344537
s(S'cruise'
p337
S'ship'
p338
S'for'
p339
tp340
F0.0021008403361344537
s(S'is'
p341
S'operated'
p342
S'[[con]]'
p343
tp344
F0.0021008403361344537
s(S'also'
p345
S'used'
p346
S'on'
p347
tp348
F0.0021008403361344537
s(S'also'
p349
S'sold'
p350
S'by'
p351
tp352
F0.0021008403361344537
s(S'[[det]]'
p353
S'home'
p354
S'for'
p355
tp356
F0.0021008403361344537
s(S'wholly'
p357
S'owned'
p358
S'by'
p359
tp360
F0.004201680672268907
s(S'currently'
p361
S'owned'
p362
S'[[con]]'
p363
tp364
F0.004201680672268907
s(S'being'
p365
S'used'
p366
S'by'
p367
tp368
F0.0021008403361344537
s(S'was'
p369
S'home'
p370
S'of'
p371
tp372
F0.0021008403361344537
s(S'then'
p373
S'merged'
p374
S'with'
p375
tp376
F0.0021008403361344537
s(S'been'
p377
S'operated'
p378
S'by'
p379
tp380
F0.0021008403361344537
s(S'was'
p381
S'home'
p382
S'to'
p383
tp384
F0.0021008403361344537
s(S'was'
p385
S'used'
p386
S'on'
p387
tp388
F0.0021008403361344537
s(S'owned'
p389
S'[[con]]'
p390
S'run'
p391
tp392
F0.0021008403361344537
s(S'originally'
p393
S'built'
p394
S'as'
p395
tp396
F0.0021008403361344537
s(S'was'
p397
S'entered'
p398
S'[[con]]'
p399
tp400
F0.0021008403361344537
s(S'are'
p401
S'operated'
p402
S'by'
p403
tp404
F0.0021008403361344537
s(S'is'
p405
S'operated'
p406
S'with'
p407
tp408
F0.0021008403361344537
s(S'[[det]]'
p409
S'home'
p410
S'[[det]]'
p411
tp412
F0.0021008403361344537
s(g58
g59
S'for'
p413
tp414
F0.0021008403361344537
s(S'[[det]]'
p415
S'subsidiary'
p416
S'of'
p417
tp418
F0.008403361344537815
s(S'currently'
p419
S'owned'
p420
S'by'
p421
tp422
F0.0021008403361344537
s(S'[[det]]'
p423
S'ship'
p424
S'built'
p425
tp426
F0.0021008403361344537
s(S'be'
p427
S'sold'
p428
S'to'
p429
tp430
F0.0021008403361344537
s(S'[[adj]]'
p431
S'terminus'
p432
S'at'
p433
tp434
F0.0021008403361344537
s(S'is'
p435
g357
g358
tp436
F0.0021008403361344537
s(S'was'
p437
S'sold'
p438
S'off'
p439
tp440
F0.0021008403361344537
s(S'student'
p441
S'newspaper'
p442
S'of'
p443
tp444
F0.004201680672268907
s(S'is'
p445
S'operated'
p446
S'on'
p447
tp448
F0.0021008403361344537
s(S'later'
p449
S'used'
p450
S'by'
p451
tp452
F0.0021008403361344537
s(S'[[adj]]'
p453
S'published'
p454
S'[[con]]'
p455
tp456
F0.0021008403361344537
s(S'ship'
p457
S'built'
p458
S'at'
p459
tp460
F0.0021008403361344537
s(S'cruise'
p461
g101
g102
tp462
F0.0063025210084033615
s(S'later'
p463
S'owned'
p464
S'by'
p465
tp466
F0.0021008403361344537
s(S'is'
p467
S'home'
p468
S'to'
p469
tp470
F0.0021008403361344537
s(S'subsidiary'
p471
S'[[con]]'
p472
S'were'
p473
tp474
F0.0021008403361344537
s(S'had'
p475
S'acquired'
p476
S'[[det]]'
p477
tp478
F0.0021008403361344537
s(S'was'
p479
S'announced'
p480
S'on'
p481
tp482
F0.0021008403361344537
s(S'is'
p483
S'operated'
p484
S'[[adj]]'
p485
tp486
F0.0021008403361344537
s(S'been'
p487
S'published'
p488
S'by'
p489
tp490
F0.0021008403361344537
s(S'[[adj]]'
p491
S'display'
p492
S'at'
p493
tp494
F0.0021008403361344537
s(S'[[mod]]'
p495
S'sell'
p496
S'to'
p497
tp498
F0.0021008403361344537
s(S'been'
p499
S'owned'
p500
S'by'
p501
tp502
F0.0021008403361344537
s(S'on'
p503
S'display'
p504
S'at'
p505
tp506
F0.0021008403361344537
s(S'is'
p507
S'published'
p508
S'[[con]]'
p509
tp510
F0.0021008403361344537
s(S'[[adj]]'
p511
S'stadium'
p512
S'in'
p513
tp514
F0.0021008403361344537
s(S'[[det]]'
p515
S'passenger'
p516
S'operated'
p517
tp518
F0.0021008403361344537
s(S'on'
p519
S'display'
p520
S'in'
p521
tp522
F0.0021008403361344537
s(S'are'
p523
S'owned'
p524
S'by'
p525
tp526
F0.0021008403361344537
s(S'was'
p527
S'acquired'
p528
S'by'
p529
tp530
F0.004201680672268907
s(S'[[det]]'
p531
S'built'
p532
S'for'
p533
tp534
F0.0021008403361344537
s(g362
g363
S'operated'
p535
tp536
F0.018907563025210083
s(S'been'
p537
S'owned'
p538
S'[[con]]'
p539
tp540
F0.0021008403361344537
s(S'is'
p541
S'home'
p542
S'[[con]]'
p543
tp544
F0.0021008403361344537
s(S'entered'
p545
S'service'
p546
S'with'
p547
tp548
F0.0021008403361344537
s(S'then'
p549
S'bought'
p550
S'[[con]]'
p551
tp552
F0.0021008403361344537
s(S'been'
p553
S'purchased'
p554
S'by'
p555
tp556
F0.0021008403361344537
s(S'now'
p557
S'used'
p558
S'by'
p559
tp560
F0.0021008403361344537
s(S'owned'
p561
g329
g330
tp562
F0.0021008403361344537
s(S'was'
p563
S'announced'
p564
S'that'
p565
tp566
F0.0063025210084033615
s(S'subsidiary'
p567
g209
g210
tp568
F0.0021008403361344537
s(S'was'
p569
S'taken'
p570
S'over'
p571
tp572
F0.0021008403361344537
s(S'owned'
p573
g89
g90
tp574
F0.0021008403361344537
s(S'be'
p575
S'used'
p576
S'by'
p577
tp578
F0.0021008403361344537
s(S'be'
p579
S'built'
p580
S'as'
p581
tp582
F0.0021008403361344537
s(S'[[det]]'
p583
S'owned'
p584
S'[[con]]'
p585
tp586
F0.0021008403361344537
s(g363
g535
S'by'
p587
tp588
F0.018907563025210083
s(S'also'
p589
S'acquired'
p590
S'[[det]]'
p591
tp592
F0.0021008403361344537
s(S'[[adj]]'
p593
S'station'
p594
S'of'
p595
tp596
F0.0021008403361344537
s(S'[[det]]'
p597
S'student'
p598
S'newspaper'
p599
tp600
F0.004201680672268907
s(S'[[det]]'
p601
S'terminus'
p602
S'of'
p603
tp604
F0.0021008403361344537
s(S'also'
p605
S'operated'
p606
S'with'
p607
tp608
F0.0021008403361344537
s(S'ship'
p609
S'built'
p610
S'by'
p611
tp612
F0.0021008403361344537
s(S'was'
p613
S'merged'
p614
S'with'
p615
tp616
F0.0021008403361344537
s(S'[[mod]]'
p617
S'sell'
p618
S'[[prp]]'
p619
tp620
F0.0021008403361344537
s(S'managed'
p621
S'[[con]]'
p622
S'owned'
p623
tp624
F0.0021008403361344537
s(S'[[det]]'
p625
S'owned'
p626
S'by'
p627
tp628
F0.0021008403361344537
s(S'is'
p629
S'served'
p630
S'by'
p631
tp632
F0.0021008403361344537
s(S'originally'
p633
S'built'
p634
S'by'
p635
tp636
F0.0021008403361344537
s(S'[[num]]'
p637
S'built'
p638
S'by'
p639
tp640
F0.0021008403361344537
s(S'when'
p641
S'merged'
p642
S'with'
p643
tp644
F0.0021008403361344537
s(g398
g399
g237
tp645
F0.0021008403361344537
s(g472
g473
S'acquired'
p646
tp647
F0.0021008403361344537
s(S'on'
p648
S'[[num]]'
p649
g49
tp650
F0.0021008403361344537
s(S'[[adj]]'
p651
S'station'
p652
S'on'
p653
tp654
F0.0021008403361344537
s(S'been'
p655
S'built'
p656
S'for'
p657
tp658
F0.0021008403361344537
s(S'[[det]]'
p659
S'home'
p660
S'field'
p661
tp662
F0.004201680672268907
s(S'was'
p663
S'published'
p664
S'by'
p665
tp666
F0.0021008403361344537
s(S'be'
p667
S'merged'
p668
S'into'
p669
tp670
F0.0021008403361344537
s(S'[[con]]'
p671
S'managed'
p672
S'by'
p673
tp674
F0.004201680672268907
s(S'to'
p675
S'sell'
p676
S'[[prp]]'
p677
tp678
F0.0021008403361344537
s(S'class'
p679
g461
g101
tp680
F0.0021008403361344537
s(S'[[adj]]'
p681
S'venture'
p682
S'between'
p683
tp684
F0.0021008403361344537
s(S'was'
p685
S'announced'
p686
S'[[con]]'
p687
tp688
F0.0021008403361344537
s(S'also'
p689
S'sold'
p690
S'[[det]]'
p691
tp692
F0.0021008403361344537
s(S'been'
p693
S'built'
p694
S'[[det]]'
p695
tp696
F0.0021008403361344537
s(S'was'
p697
S'selling'
p698
S'to'
p699
tp700
F0.0021008403361344537
s(S'[[adj]]'
p701
S'home'
p702
S'for'
p703
tp704
F0.0021008403361344537
s(S'later'
p705
S'acquired'
p706
S'by'
p707
tp708
F0.0021008403361344537
s(S'that'
p709
S'be'
p710
S'acquired'
p711
tp712
F0.004201680672268907
s(S'operates'
p713
S'[[con]]'
p714
S'ownership'
p715
tp716
F0.0021008403361344537
s(S'was'
p717
S'sold'
p718
S'[[con]]'
p719
tp720
F0.0021008403361344537
s(S'to'
p721
S'form'
p722
S'[[det]]'
p723
tp724
F0.0021008403361344537
s(g660
g661
S'for'
p725
tp726
F0.0021008403361344537
s(S'[[num]]'
p727
S'built'
p728
S'for'
p729
tp730
F0.0021008403361344537
s(S'is'
p731
S'published'
p732
S'at'
p733
tp734
F0.0021008403361344537
s(S'[[adj]]'
p735
S'home'
p736
S'[[det]]'
p737
tp738
F0.0021008403361344537
s(S'later'
p739
S'merged'
p740
S'with'
p741
tp742
F0.0021008403361344537
s(S'be'
p743
S'built'
p744
S'by'
p745
tp746
F0.0021008403361344537
s(S'[[adj]]'
p747
S'ship'
p748
S'built'
p749
tp750
F0.0063025210084033615
s(S'were'
p751
S'acquired'
p752
S'by'
p753
tp754
F0.004201680672268907
s(S'later'
p755
S'sold'
p756
S'to'
p757
tp758
F0.0021008403361344537
s(S'to'
p759
S'form'
p760
S'[[num]]'
p761
tp762
F0.0021008403361344537
s(S'later'
p763
S'purchased'
p764
S'by'
p765
tp766
F0.0021008403361344537
s(S'being'
p767
S'acquired'
p768
S'by'
p769
tp770
F0.0021008403361344537
s(S'had'
p771
S'merged'
p772
S'with'
p773
tp774
F0.0021008403361344537
s(S'be'
p775
S'served'
p776
S'by'
p777
tp778
F0.0021008403361344537
s(S'[[con]]'
p779
S'is'
p780
S'owned'
p781
tp782
F0.0021008403361344537
s(S'was'
p783
S'owned'
p784
S'[[con]]'
p785
tp786
F0.004201680672268907
s(S'was'
p787
S'announced'
p788
S'[[det]]'
p789
tp790
F0.0021008403361344537
s(S'was'
p791
S'purchased'
p792
S'by'
p793
tp794
F0.0021008403361344537
s(S'is'
p795
S'managed'
p796
S'[[con]]'
p797
tp798
F0.004201680672268907
s(S'was'
p799
S'delivered'
p800
S'to'
p801
tp802
F0.0021008403361344537
s(S'to'
p803
S'sell'
p804
S'to'
p805
tp806
F0.0021008403361344537
s(S'was'
p807
S'built'
p808
S'as'
p809
tp810
F0.0021008403361344537
s(S'were'
p811
S'sold'
p812
S'[[con]]'
p813
tp814
F0.0021008403361344537
s(S'be'
p815
S'home'
p816
S'to'
p817
tp818
F0.0021008403361344537
s(g302
g303
S'in'
p819
tp820
F0.0021008403361344537
s(S'was'
p821
S'owned'
p822
S'by'
p823
tp824
F0.0021008403361344537
s(S'been'
p825
S'acquired'
p826
S'by'
p827
tp828
F0.0021008403361344537
s(S'was'
p829
S'selling'
p830
S'[[prp]]'
p831
tp832
F0.0021008403361344537
s(S'known'
p833
S'is'
p834
S'owned'
p835
tp836
F0.0021008403361344537
s(S'was'
p837
S'built'
p838
S'by'
p839
tp840
F0.0021008403361344537
s(S'subsidiary'
p841
g165
g166
tp842
F0.0021008403361344537
s(S'also'
p843
S'acquired'
p844
S'from'
p845
tp846
F0.0021008403361344537
s(S'[[adj]]'
p847
S'home'
p848
S'[[num]]'
p849
tp850
F0.0021008403361344537
s(S's'
p851
S'home'
p852
S'of'
p853
tp854
F0.0021008403361344537
s(S'been'
p855
S'sold'
p856
S'in'
p857
tp858
F0.0021008403361344537
s(S'[[adj]]'
p859
S'established'
p860
S'as'
p861
tp862
F0.0021008403361344537
s(S'[[con]]'
p863
S'owned'
p864
S'by'
p865
tp866
F0.004201680672268907
s(S'now'
p867
S'owned'
p868
S'by'
p869
tp870
F0.0021008403361344537
s(S'were'
p871
S'sold'
p872
S'to'
p873
tp874
F0.0021008403361344537
s(S'later'
p875
S'merged'
p876
S'into'
p877
tp878
F0.0021008403361344537
s(S'is'
p879
S'owned'
p880
S'[[num]]'
p881
tp882
F0.0021008403361344537
s(S'also'
p883
S'used'
p884
S'by'
p885
tp886
F0.0021008403361344537
s(S'[[det]]'
p887
S'ocean'
p888
S'liner'
p889
tp890
F0.004201680672268907
s(S'be'
p891
S'established'
p892
S'after'
p893
tp894
F0.0021008403361344537
s(S'[[det]]'
p895
g679
g461
tp896
F0.0021008403361344537
s(S'to'
p897
S'form'
p898
S'of'
p899
tp900
F0.0021008403361344537
s(S'then'
p901
S'sold'
p902
S'to'
p903
tp904
F0.0021008403361344537
s(S'not'
p905
S'used'
p906
S'by'
p907
tp908
F0.0021008403361344537
s(g889
S'owned'
p909
S'by'
p910
tp911
F0.0021008403361344537
s(S'had'
p912
S'sold'
p913
S'to'
p914
tp915
F0.0021008403361344537
s(S'had'
p916
S'originally'
p917
g693
tp918
F0.0021008403361344537
s(S'also'
p919
S'operated'
p920
S'[[num]]'
p921
tp922
F0.0021008403361344537
s(S'was'
p923
S'bought'
p924
S'[[con]]'
p925
tp926
F0.0021008403361344537
s(S'is'
p927
S'served'
p928
S'only'
p929
tp930
F0.0021008403361344537
s(S'[[num]]'
p931
S'operated'
p932
S'by'
p933
tp934
F0.0021008403361344537
s(S'[[con]]'
p935
S'used'
p936
S'by'
p937
tp938
F0.0021008403361344537
s(S'announced'
p939
S'had'
p940
S'acquired'
p941
tp942
F0.0021008403361344537
s(S'[[adj]]'
p943
S'base'
p944
S'of'
p945
tp946
F0.0021008403361344537
s(S'was'
p947
S'published'
p948
S'[[adj]]'
p949
tp950
F0.0021008403361344537
s(S'not'
p951
S'owned'
p952
S'by'
p953
tp954
F0.0021008403361344537
s(g290
g291
S'tracks'
p955
tp956
F0.0021008403361344537
s(g748
g749
S'for'
p957
tp958
F0.004201680672268907
s(S'[[con]]'
p959
S'sold'
p960
S'to'
p961
tp962
F0.0021008403361344537
s(S'were'
p963
S'built'
p964
S'for'
p965
tp966
F0.0021008403361344537
s(S'affiliate'
p967
g779
g780
tp968
F0.0021008403361344537
s(S'was'
p969
S'bought'
p970
S'by'
p971
tp972
F0.0021008403361344537
s(S'been'
p973
S'used'
p974
S'for'
p975
tp976
F0.0021008403361344537
s(S'is'
p977
S'jointly'
p978
S'owned'
p979
tp980
F0.0021008403361344537
s(S'was'
p981
S'sold'
p982
S'for'
p983
tp984
F0.0021008403361344537
s(S'acquired'
p985
S'[[con]]'
p986
S'[[det]]'
p987
tp988
F0.004201680672268907
s(S'was'
p989
S'home'
p990
S'[[det]]'
p991
tp992
F0.0021008403361344537
s(S'was'
p993
S'established'
p994
S'[[con]]'
p995
tp996
F0.0021008403361344537
s(S'is'
p997
S'home'
p998
S'[[det]]'
p999
tp1000
F0.0021008403361344537
s(S'[[det]]'
p1001
S'station'
p1002
S'of'
p1003
tp1004
F0.0021008403361344537
s(S'[[det]]'
p1005
S'home'
p1006
S'of'
p1007
tp1008
F0.0021008403361344537
s(S'[[adj]]'
p1009
S'student'
p1010
S'newspaper'
p1011
tp1012
F0.004201680672268907
s(g888
g889
g909
tp1013
F0.0021008403361344537
s(S'was'
p1014
S'home'
p1015
S'[[con]]'
p1016
tp1017
F0.0021008403361344537
s(g851
S'parent'
p1018
S'company'
p1019
tp1020
F0.0021008403361344537
s(S'was'
p1021
S'bought'
p1022
S'out'
p1023
tp1024
F0.0021008403361344537
s(S'been'
p1025
S'announced'
p1026
S'that'
p1027
tp1028
F0.0021008403361344537
s(S'also'
p1029
S'served'
p1030
S'by'
p1031
tp1032
F0.0021008403361344537
s(g516
g517
S'by'
p1033
tp1034
F0.0021008403361344537
s(S'was'
p1035
S'published'
p1036
S'from'
p1037
tp1038
F0.0021008403361344537
s(S'is'
p1039
S'built'
p1040
S'up'
p1041
tp1042
F0.0021008403361344537
s(S'[[det]]'
p1043
S'built'
p1044
S'by'
p1045
tp1046
F0.0021008403361344537
s(S'is'
p1047
S'owned'
p1048
S'[[con]]'
p1049
tp1050
F0.014705882352941176
s(S'was'
p1051
S'owned'
p1052
S'[[num]]'
p1053
tp1054
F0.0021008403361344537
s(S'then'
p1055
S'purchased'
p1056
S'by'
p1057
tp1058
F0.0021008403361344537
s(S'that'
p1059
S'served'
p1060
S'in'
p1061
tp1062
F0.0021008403361344537
s(S'[[num]]'
p1063
S'sold'
p1064
S'to'
p1065
tp1066
F0.0021008403361344537
s(S'now'
p1067
S'operated'
p1068
S'by'
p1069
tp1070
F0.0021008403361344537
s(S'is'
p1071
S'used'
p1072
S'by'
p1073
tp1074
F0.0021008403361344537
s(S'[[det]]'
p1075
g113
g114
tp1076
F0.01050420168067227
s(S'being'
p1077
S'sold'
p1078
S'in'
p1079
tp1080
F0.0021008403361344537
s(S'be'
p1081
S'operated'
p1082
S'by'
p1083
tp1084
F0.0021008403361344537
s(g399
g237
g238
tp1085
F0.0021008403361344537
s(S'then'
p1086
S'owned'
p1087
S'by'
p1088
tp1089
F0.0021008403361344537
s(g90
g91
S'by'
p1090
tp1091
F0.004201680672268907
s(S'is'
p1092
S'built'
p1093
S'at'
p1094
tp1095
F0.0021008403361344537
s(S'broadcasts'
p1096
S'[[con]]'
p1097
S'ownership'
p1098
tp1099
F0.0021008403361344537
s(g978
g979
S'by'
p1100
tp1101
F0.004201680672268907
s(S'consists'
p1102
g289
g290
tp1103
F0.0021008403361344537
s(g390
g391
S'by'
p1104
tp1105
F0.0021008403361344537
s(g714
g715
S'of'
p1106
tp1107
F0.004201680672268907
s(S'is'
p1108
S'owned'
p1109
S'by'
p1110
tp1111
F0.01050420168067227
s(S'[[adj]]'
p1112
S'venture'
p1113
S'of'
p1114
tp1115
F0.0021008403361344537
s(S'had'
p1116
S'merged'
p1117
S'into'
p1118
tp1119
F0.0021008403361344537
s(S'[[con]]'
p1120
S'acquired'
p1121
S'by'
p1122
tp1123
F0.0021008403361344537
s(S'[[con]]'
p1124
S'operated'
p1125
S'with'
p1126
tp1127
F0.0021008403361344537
s(g114
g115
S'by'
p1128
tp1129
F0.0021008403361344537
s(S'announced'
p1130
S'that'
p1131
S'acquired'
p1132
tp1133
F0.004201680672268907
s(S'has'
p1134
S'announced'
p1135
S'that'
p1136
tp1137
F0.0021008403361344537
s(S'[[con]]'
p1138
S'[[det]]'
p1139
S'affiliate'
p1140
tp1141
F0.0021008403361344537
s(S'cruiseferry'
p1142
S'owned'
p1143
S'[[con]]'
p1144
tp1145
F0.0021008403361344537
s(S'was'
p1146
S'served'
p1147
S'by'
p1148
tp1149
F0.0021008403361344537
s(S'originally'
p1150
S'built'
p1151
S'for'
p1152
tp1153
F0.0021008403361344537
s(S'[[con]]'
p1154
S'built'
p1155
S'by'
p1156
tp1157
F0.0021008403361344537
s(S'wholly'
p1158
g841
g165
tp1159
F0.0021008403361344537
s(S'be'
p1160
S'sold'
p1161
S'in'
p1162
tp1163
F0.0021008403361344537
s(S'[[det]]'
p1164
S'used'
p1165
S'by'
p1166
tp1167
F0.0021008403361344537
s(S'[[det]]'
p1168
S'stadium'
p1169
S'in'
p1170
tp1171
F0.0021008403361344537
s(S'be'
p1172
S'sold'
p1173
S'by'
p1174
tp1175
F0.0021008403361344537
s(S'was'
p1176
S'sold'
p1177
S'[[det]]'
p1178
tp1179
F0.0021008403361344537
s(S'[[adj]]'
p1180
S'published'
p1181
S'by'
p1182
tp1183
F0.0021008403361344537
s(S'later'
p1184
S'merged'
p1185
S'[[con]]'
p1186
tp1187
F0.0021008403361344537
s(S'[[adj]]'
p1188
S'station'
p1189
S'for'
p1190
tp1191
F0.0021008403361344537
s(S'[[adj]]'
p1192
S'venture'
p1193
S'[[con]]'
p1194
tp1195
F0.0021008403361344537
s(S'which'
p1196
S'merged'
p1197
S'with'
p1198
tp1199
F0.0021008403361344537
s(S'became'
p1200
S'home'
p1201
S'to'
p1202
tp1203
F0.0021008403361344537
s(S'was'
p1204
S'established'
p1205
S'[[det]]'
p1206
tp1207
F0.0021008403361344537
s(S'still'
p1208
S'used'
p1209
S'by'
p1210
tp1211
F0.0021008403361344537
s(S'[[det]]'
p1212
S'campus'
p1213
S'of'
p1214
tp1215
F0.0021008403361344537
s(S'owned'
p1216
g671
g672
tp1217
F0.004201680672268907
s(S'been'
p1218
S'used'
p1219
S'at'
p1220
tp1221
F0.0021008403361344537
s(S'[[det]]'
p1222
g471
g472
tp1223
F0.0021008403361344537
s(S'also'
p1224
S'published'
p1225
S'by'
p1226
tp1227
F0.0021008403361344537
s(S'formerly'
p1228
S'owned'
p1229
S'[[con]]'
p1230
tp1231
F0.0021008403361344537
s(g1139
g1140
S'of'
p1232
tp1233
F0.004201680672268907
s(S'established'
p1234
S'as'
p1235
S'[[det]]'
p1236
tp1237
F0.0021008403361344537
s(S'[[det]]'
p1238
g967
g779
tp1239
F0.0021008403361344537
s(S'[[adj]]'
p1240
S'venture'
p1241
S'with'
p1242
tp1243
F0.0021008403361344537
s(S'to'
p1244
S'form'
p1245
S'in'
p1246
tp1247
F0.0021008403361344537
s(S'acquired'
p1248
S'by'
p1249
S'[[det]]'
p1250
tp1251
F0.0021008403361344537
s(S'later'
p1252
S'acquired'
p1253
S'[[num]]'
p1254
tp1255
F0.0021008403361344537
s(S'formerly'
p1256
S'owned'
p1257
S'by'
p1258
tp1259
F0.0021008403361344537
s(S'[[det]]'
p1260
g1142
g1143
tp1261
F0.0021008403361344537
s(S'home'
p1262
S'field'
p1263
S'of'
p1264
tp1265
F0.0021008403361344537
s(S'entered'
p1266
S'service'
p1267
S'for'
p1268
tp1269
F0.0021008403361344537
s(S'be'
p1270
S'merged'
p1271
S'with'
p1272
tp1273
F0.0021008403361344537
s(S'been'
p1274
S'served'
p1275
S'in'
p1276
tp1277
F0.0021008403361344537
s(S'[[det]]'
p1278
S'station'
p1279
S'along'
p1280
tp1281
F0.0021008403361344537
s(S'were'
p1282
S'sold'
p1283
S'off'
p1284
tp1285
F0.0021008403361344537
s(S'[[adj]]'
p1286
S'subsidiary'
p1287
S'of'
p1288
tp1289
F0.0021008403361344537
s(S'announced'
p1290
g709
g710
tp1291
F0.004201680672268907
s(g986
g987
S'wholly'
p1292
tp1293
F0.0021008403361344537
s(S'had'
p1294
S'acquired'
p1295
S'[[con]]'
p1296
tp1297
F0.0021008403361344537
s(S'[[det]]'
p1298
g1158
g841
tp1299
F0.0021008403361344537
s(g1235
g1236
S'wholly'
p1300
tp1301
F0.0021008403361344537
s(S'to'
p1302
S'form'
p1303
S'part'
p1304
tp1305
F0.0021008403361344537
s(S'is'
p1306
S'published'
p1307
S'by'
p1308
tp1309
F0.0021008403361344537
s(g649
g49
g50
tp1310
F0.0021008403361344537
s(S'was'
p1311
S'established'
p1312
S'as'
p1313
tp1314
F0.004201680672268907
s(S'owned'
p1315
g1138
g1139
tp1316
F0.0021008403361344537
s(S'[[adj]]'
p1317
S'sold'
p1318
S'in'
p1319
tp1320
F0.0021008403361344537
s(S'[[adj]]'
p1321
S'taken'
p1322
S'by'
p1323
tp1324
F0.0021008403361344537
s(S'[[det]]'
p1325
S'home'
p1326
S'to'
p1327
tp1328
F0.0021008403361344537
s(S'was'
p1329
S'used'
p1330
S'by'
p1331
tp1332
F0.0021008403361344537
s(S'[[det]]'
p1333
S'home'
p1334
S'when'
p1335
tp1336
F0.0021008403361344537
s(S'[[adj]]'
p1337
S'home'
p1338
S'of'
p1339
tp1340
F0.0021008403361344537
s(S'[[num]]'
p1341
S'owned'
p1342
S'by'
p1343
tp1344
F0.0021008403361344537
s(S'[[det]]'
p1345
S'home'
p1346
S'[[con]]'
p1347
tp1348
F0.0021008403361344537
s(S'was'
p1349
S'purchased'
p1350
S'for'
p1351
tp1352
F0.0021008403361344537
s(S'[[con]]'
p1353
S'[[det]]'
p1354
S'subsidiary'
p1355
tp1356
F0.0021008403361344537
s(S'[[adj]]'
p1357
S'terminus'
p1358
S'of'
p1359
tp1360
F0.0021008403361344537
s(S'to'
p1361
S'sell'
p1362
S'[[det]]'
p1363
tp1364
F0.0021008403361344537
s(S'was'
p1365
S'used'
p1366
S'[[con]]'
p1367
tp1368
F0.0021008403361344537
s(S'was'
p1369
S'purchased'
p1370
S'in'
p1371
tp1372
F0.0021008403361344537
s(S'[[det]]'
p1373
S'terminus'
p1374
S'for'
p1375
tp1376
F0.0021008403361344537
s(g917
g693
g694
tp1377
F0.0021008403361344537
s(S'was'
p1378
S'operated'
p1379
S'by'
p1380
tp1381
F0.0021008403361344537
s(g246
g247
S'of'
p1382
tp1383
F0.01050420168067227
s(S'only'
p1384
S'used'
p1385
S'by'
p1386
tp1387
F0.0021008403361344537
s(S'announced'
p1388
S'that'
p1389
S'had'
p1390
tp1391
F0.0021008403361344537
s(S'been'
p1392
S'used'
p1393
S'by'
p1394
tp1395
F0.0021008403361344537
s(S'also'
p1396
S'sold'
p1397
S'[[adj]]'
p1398
tp1399
F0.0021008403361344537
s(S'was'
p1400
S'announced'
p1401
S'by'
p1402
tp1403
F0.0021008403361344537
s(S'[[det]]'
p1404
S'affiliate'
p1405
S'for'
p1406
tp1407
F0.0021008403361344537
s(S'was'
p1408
S'published'
p1409
S'as'
p1410
tp1411
F0.0021008403361344537
s(g1389
g1390
S'acquired'
p1412
tp1413
F0.0021008403361344537
s(S'[[adj]]'
p1414
S'stadium'
p1415
S'of'
p1416
tp1417
F0.0021008403361344537
s(S'is'
p1418
S'taken'
p1419
S'over'
p1420
tp1421
F0.0021008403361344537
s(S'broadcasts'
p1422
g648
g649
tp1423
F0.0021008403361344537
s(S'then'
p1424
S'used'
p1425
S'by'
p1426
tp1427
F0.0021008403361344537
s(S'was'
p1428
S'used'
p1429
S'as'
p1430
tp1431
F0.0021008403361344537
s(S'[[det]]'
p1432
S'base'
p1433
S'for'
p1434
tp1435
F0.0021008403361344537
s(S'commonly'
p1436
g833
g834
tp1437
F0.0021008403361344537
s(S'currently'
p1438
S'home'
p1439
S'to'
p1440
tp1441
F0.0021008403361344537
s(S'being'
p1442
S'sold'
p1443
S'to'
p1444
tp1445
F0.0021008403361344537
s(S'was'
p1446
S'built'
p1447
S'around'
p1448
tp1449
F0.0021008403361344537
s(S'is'
p1450
S'sold'
p1451
S'at'
p1452
tp1453
F0.0021008403361344537
s(S'[[con]]'
p1454
S'merged'
p1455
S'to'
p1456
tp1457
F0.0021008403361344537
s.