(dp0
(S'was'
p1
S'sold'
p2
S'[[con]]'
p3
tp4
F0.004166666666666667
s(S'to'
p5
S'form'
p6
S'[[det]]'
p7
tp8
F0.004166666666666667
s(S'wholly'
p9
S'owned'
p10
S'by'
p11
tp12
F0.008333333333333333
s(S'be'
p13
S'purchased'
p14
S'by'
p15
tp16
F0.004166666666666667
s(S'had'
p17
S'merged'
p18
S'with'
p19
tp20
F0.004166666666666667
s(S'later'
p21
S'merged'
p22
S'[[con]]'
p23
tp24
F0.004166666666666667
s(S'later'
p25
S'merged'
p26
S'with'
p27
tp28
F0.004166666666666667
s(S'be'
p29
S'acquired'
p30
S'by'
p31
tp32
F0.0125
s(S'was'
p33
S'merged'
p34
S'into'
p35
tp36
F0.004166666666666667
s(S'wholly'
p37
S'subsidiary'
p38
S'of'
p39
tp40
F0.004166666666666667
s(S'be'
p41
S'sold'
p42
S'in'
p43
tp44
F0.004166666666666667
s(S'[[det]]'
p45
S'wholly'
p46
S'owned'
p47
tp48
F0.020833333333333332
s(S'is'
p49
g9
g10
tp50
F0.004166666666666667
s(S'was'
p51
S'sold'
p52
S'by'
p53
tp54
F0.004166666666666667
s(S'parent'
p55
S'company'
p56
S'of'
p57
tp58
F0.008333333333333333
s(S'acquired'
p59
S'by'
p60
S'[[det]]'
p61
tp62
F0.004166666666666667
s(S'was'
p63
S'announced'
p64
S'[[det]]'
p65
tp66
F0.004166666666666667
s(S'were'
p67
S'acquired'
p68
S'by'
p69
tp70
F0.008333333333333333
s(S'were'
p71
S'purchased'
p72
S'from'
p73
tp74
F0.004166666666666667
s(S'currently'
p75
S'owned'
p76
S'[[con]]'
p77
tp78
F0.004166666666666667
s(S'owned'
p79
S'jointly'
p80
S'by'
p81
tp82
F0.004166666666666667
s(S'broadcasting'
p83
S'locally'
p84
S'as'
p85
tp86
F0.004166666666666667
s(S'was'
p87
S'offered'
p88
S'in'
p89
tp90
F0.004166666666666667
s(S'to'
p91
S'form'
p92
S'[[num]]'
p93
tp94
F0.004166666666666667
s(S'later'
p95
S'purchased'
p96
S'by'
p97
tp98
F0.004166666666666667
s(S'being'
p99
S'acquired'
p100
S'by'
p101
tp102
F0.004166666666666667
s(S'[[det]]'
p103
S'subsidiary'
p104
S'of'
p105
tp106
F0.0125
s(S'currently'
p107
S'owned'
p108
S'by'
p109
tp110
F0.004166666666666667
s(S'was'
p111
S'sold'
p112
S'[[det]]'
p113
tp114
F0.004166666666666667
s(S'is'
p115
S'offered'
p116
S'in'
p117
tp118
F0.004166666666666667
s(S'be'
p119
S'sold'
p120
S'to'
p121
tp122
F0.004166666666666667
s(S'then'
p123
S'merged'
p124
S'with'
p125
tp126
F0.004166666666666667
s(S'[[adj]]'
p127
S'form'
p128
S'as'
p129
tp130
F0.004166666666666667
s(S'was'
p131
S'owned'
p132
S'[[con]]'
p133
tp134
F0.008333333333333333
s(S'had'
p135
S'purchased'
p136
S'from'
p137
tp138
F0.004166666666666667
s(S'was'
p139
S'purchased'
p140
S'by'
p141
tp142
F0.004166666666666667
s(S'was'
p143
S'established'
p144
S'under'
p145
tp146
F0.004166666666666667
s(S'[[adj]]'
p147
S'venture'
p148
S'[[con]]'
p149
tp150
F0.004166666666666667
s(S'was'
p151
S'sold'
p152
S'off'
p153
tp154
F0.004166666666666667
s(S'owned'
p155
S'subsidiary'
p156
S'of'
p157
tp158
F0.020833333333333332
s(S'is'
p159
S'sold'
p160
S'by'
p161
tp162
F0.004166666666666667
s(S'was'
p163
S'established'
p164
S'[[det]]'
p165
tp166
F0.004166666666666667
s(S'to'
p167
S'sell'
p168
S'to'
p169
tp170
F0.004166666666666667
s(S'[[con]]'
p171
S'is'
p172
S'operated'
p173
tp174
F0.004166666666666667
s(S'[[det]]'
p175
S'subsidiary'
p176
S'[[con]]'
p177
tp178
F0.004166666666666667
s(S'were'
p179
S'sold'
p180
S'[[con]]'
p181
tp182
F0.004166666666666667
s(S'later'
p183
S'acquired'
p184
S'[[num]]'
p185
tp186
F0.004166666666666667
s(S'formerly'
p187
S'owned'
p188
S'[[con]]'
p189
tp190
F0.004166666666666667
s(S'was'
p191
S'merged'
p192
S'to'
p193
tp194
F0.004166666666666667
s(S'which'
p195
S'merged'
p196
S'with'
p197
tp198
F0.004166666666666667
s(S'was'
p199
S'owned'
p200
S'by'
p201
tp202
F0.004166666666666667
s(S'also'
p203
S'sold'
p204
S'to'
p205
tp206
F0.004166666666666667
s(S'been'
p207
S'acquired'
p208
S'by'
p209
tp210
F0.004166666666666667
s(S'later'
p211
S'owned'
p212
S'by'
p213
tp214
F0.004166666666666667
s(S'[[det]]'
p215
S'affiliate'
p216
S'of'
p217
tp218
F0.004166666666666667
s(S'were'
p219
S'bought'
p220
S'by'
p221
tp222
F0.004166666666666667
s(g38
g39
S'is'
p223
tp224
F0.004166666666666667
s(S'station'
p225
g83
g84
tp226
F0.004166666666666667
s(S'also'
p227
S'acquired'
p228
S'from'
p229
tp230
F0.004166666666666667
s(g176
g177
S'were'
p231
tp232
F0.004166666666666667
s(S'also'
p233
S'owned'
p234
S'by'
p235
tp236
F0.004166666666666667
s(S'was'
p237
S'purchased'
p238
S'[[con]]'
p239
tp240
F0.004166666666666667
s(S'[[adj]]'
p241
S'venture'
p242
S'with'
p243
tp244
F0.004166666666666667
s(S'had'
p245
S'acquired'
p246
S'[[det]]'
p247
tp248
F0.004166666666666667
s(S'to'
p249
S'form'
p250
S'in'
p251
tp252
F0.004166666666666667
s(S'[[adj]]'
p253
S'venture'
p254
S'between'
p255
tp256
F0.004166666666666667
s(S'been'
p257
S'sold'
p258
S'in'
p259
tp260
F0.004166666666666667
s(S'[[adj]]'
p261
S'established'
p262
S'as'
p263
tp264
F0.004166666666666667
s(S'[[con]]'
p265
S'owned'
p266
S'by'
p267
tp268
F0.004166666666666667
s(S'were'
p269
S'merged'
p270
S'into'
p271
tp272
F0.004166666666666667
s(S'established'
p273
S'as'
p274
S'[[det]]'
p275
tp276
F0.004166666666666667
s(S'now'
p277
S'owned'
p278
S'by'
p279
tp280
F0.004166666666666667
s(S'were'
p281
S'sold'
p282
S'to'
p283
tp284
F0.004166666666666667
s(S'formerly'
p285
S'owned'
p286
S'by'
p287
tp288
F0.004166666666666667
s(S'is'
p289
S'owned'
p290
S'[[num]]'
p291
tp292
F0.004166666666666667
s(S'[[mod]]'
p293
S'sell'
p294
S'to'
p295
tp296
F0.004166666666666667
s(S'be'
p297
S'established'
p298
S'after'
p299
tp300
F0.004166666666666667
s(S'announced'
p301
S'had'
p302
S'acquired'
p303
tp304
F0.004166666666666667
s(S'to'
p305
S'form'
p306
S'of'
p307
tp308
F0.004166666666666667
s(S'[[con]]'
p309
S'merged'
p310
S'with'
p311
tp312
F0.004166666666666667
s(S'be'
p313
S'merged'
p314
S'with'
p315
tp316
F0.004166666666666667
s(S'been'
p317
S'owned'
p318
S'by'
p319
tp320
F0.004166666666666667
s(S'had'
p321
S'sold'
p322
S'to'
p323
tp324
F0.004166666666666667
s(S'turn'
p325
S'owned'
p326
S'by'
p327
tp328
F0.004166666666666667
s(S'[[det]]'
p329
S'parent'
p330
S'of'
p331
tp332
F0.004166666666666667
s(S'was'
p333
S'bought'
p334
S'[[con]]'
p335
tp336
F0.004166666666666667
s(S'is'
p337
S'offered'
p338
S'by'
p339
tp340
F0.004166666666666667
s(S'were'
p341
S'sold'
p342
S'off'
p343
tp344
F0.004166666666666667
s(S'[[adj]]'
p345
S'subsidiary'
p346
S'of'
p347
tp348
F0.004166666666666667
s(S'were'
p349
S'purchased'
p350
S'by'
p351
tp352
F0.004166666666666667
s(S'are'
p353
S'owned'
p354
S'by'
p355
tp356
F0.004166666666666667
s(S'of'
p357
S'based'
p358
S'in'
p359
tp360
F0.004166666666666667
s(S'was'
p361
S'established'
p362
S'by'
p363
tp364
F0.004166666666666667
s(S'[[con]]'
p365
S'[[det]]'
p366
S'wholly'
p367
tp368
F0.004166666666666667
s(S'had'
p369
S'acquired'
p370
S'[[con]]'
p371
tp372
F0.004166666666666667
s(S'[[det]]'
p373
g37
g38
tp374
F0.004166666666666667
s(S'parent'
p375
S'company'
p376
S'for'
p377
tp378
F0.004166666666666667
s(g274
g275
S'wholly'
p379
tp380
F0.004166666666666667
s(S'also'
p381
S'sold'
p382
S'[[det]]'
p383
tp384
F0.004166666666666667
s(S'been'
p385
S'owned'
p386
S'[[con]]'
p387
tp388
F0.004166666666666667
s(S'to'
p389
S'form'
p390
S'part'
p391
tp392
F0.004166666666666667
s(S'be'
p393
S'sold'
p394
S'by'
p395
tp396
F0.004166666666666667
s(S'not'
p397
S'owned'
p398
S'by'
p399
tp400
F0.004166666666666667
s(S'was'
p401
S'established'
p402
S'as'
p403
tp404
F0.008333333333333333
s(S'then'
p405
S'sold'
p406
S'to'
p407
tp408
F0.004166666666666667
s(S'later'
p409
S'sold'
p410
S'to'
p411
tp412
F0.004166666666666667
s(S'[[adj]]'
p413
S'sold'
p414
S'in'
p415
tp416
F0.004166666666666667
s(S'then'
p417
S'bought'
p418
S'[[con]]'
p419
tp420
F0.004166666666666667
s(S'was'
p421
S'established'
p422
S'when'
p423
tp424
F0.004166666666666667
s(S'[[con]]'
p425
S'sold'
p426
S'to'
p427
tp428
F0.004166666666666667
s(S'been'
p429
S'purchased'
p430
S'by'
p431
tp432
F0.004166666666666667
s(S'[[adj]]'
p433
S'offered'
p434
S'by'
p435
tp436
F0.004166666666666667
s(S'is'
p437
g79
g80
tp438
F0.004166666666666667
s(g39
g223
S'owned'
p439
tp440
F0.004166666666666667
s(S'was'
p441
S'bought'
p442
S'by'
p443
tp444
F0.004166666666666667
s(S'was'
p445
S'sold'
p446
S'to'
p447
tp448
F0.004166666666666667
s(S'[[num]]'
p449
S'owned'
p450
S'by'
p451
tp452
F0.004166666666666667
s(S'is'
p453
S'jointly'
p454
S'owned'
p455
tp456
F0.004166666666666667
s(S'was'
p457
S'sold'
p458
S'for'
p459
tp460
F0.004166666666666667
s(S'[[adj]]'
p461
S'television'
p462
g225
tp463
F0.004166666666666667
s(S'was'
p464
S'purchased'
p465
S'for'
p466
tp467
F0.004166666666666667
s(g84
g85
g215
tp468
F0.004166666666666667
s(S'subsidiary'
p469
g357
g358
tp470
F0.004166666666666667
s(S'was'
p471
S'established'
p472
S'[[con]]'
p473
tp474
F0.004166666666666667
s(S'[[con]]'
p475
S'[[det]]'
p476
S'subsidiary'
p477
tp478
F0.004166666666666667
s(g462
g225
g83
tp479
F0.004166666666666667
s(S'to'
p480
S'sell'
p481
S'[[det]]'
p482
tp483
F0.004166666666666667
s(S's'
p484
S'parent'
p485
S'company'
p486
tp487
F0.004166666666666667
s(S'acquired'
p488
g365
g366
tp489
F0.008333333333333333
s(S'owned'
p490
g171
g172
tp491
F0.004166666666666667
s(S'[[prp]]'
p492
S'parent'
p493
S'company'
p494
tp495
F0.004166666666666667
s(S'is'
p496
S'sold'
p497
S'at'
p498
tp499
F0.004166666666666667
s(S'[[det]]'
p500
S'owned'
p501
S'[[con]]'
p502
tp503
F0.004166666666666667
s(S'was'
p504
S'bought'
p505
S'out'
p506
tp507
F0.004166666666666667
s(g77
S'operated'
p508
S'by'
p509
tp510
F0.020833333333333332
s(S'was'
p511
S'offered'
p512
S'as'
p513
tp514
F0.004166666666666667
s(S'also'
p515
S'acquired'
p516
S'[[det]]'
p517
tp518
F0.004166666666666667
s(S'wholly'
p519
g155
g156
tp520
F0.029166666666666667
s(S'was'
p521
S'announced'
p522
S'that'
p523
tp524
F0.0125
s(S'announced'
p525
S'that'
p526
S'had'
p527
tp528
F0.004166666666666667
s(S'to'
p529
S'form'
p530
S'[[con]]'
p531
tp532
F0.004166666666666667
s(S'also'
p533
S'sold'
p534
S'[[adj]]'
p535
tp536
F0.004166666666666667
s(S'[[adj]]'
p537
S'parent'
p538
S'company'
p539
tp540
F0.004166666666666667
s(S'later'
p541
S'merged'
p542
S'into'
p543
tp544
F0.004166666666666667
s(S'was'
p545
S'merged'
p546
S'with'
p547
tp548
F0.004166666666666667
s(S'still'
p549
S'owned'
p550
S'by'
p551
tp552
F0.004166666666666667
s(S'[[mod]]'
p553
S'sell'
p554
S'[[prp]]'
p555
tp556
F0.004166666666666667
s(S'is'
p557
S'owned'
p558
S'[[con]]'
p559
tp560
F0.016666666666666666
s(S'[[det]]'
p561
S'owned'
p562
S'by'
p563
tp564
F0.004166666666666667
s(S'was'
p565
S'owned'
p566
S'[[num]]'
p567
tp568
F0.004166666666666667
s(S'then'
p569
S'purchased'
p570
S'by'
p571
tp572
F0.004166666666666667
s(g526
g527
S'acquired'
p573
tp574
F0.004166666666666667
s(S'[[num]]'
p575
S'sold'
p576
S'to'
p577
tp578
F0.004166666666666667
s(S'when'
p579
S'merged'
p580
S'with'
p581
tp582
F0.004166666666666667
s(S'was'
p583
S'acquired'
p584
S'[[con]]'
p585
tp586
F0.0125
s(S'had'
p587
S'purchased'
p588
S'[[det]]'
p589
tp590
F0.004166666666666667
s(S'[[det]]'
p591
g375
g376
tp592
F0.0125
s(g177
g231
S'acquired'
p593
tp594
F0.004166666666666667
s(S'being'
p595
S'sold'
p596
S'in'
p597
tp598
F0.004166666666666667
s(S'[[con]]'
p599
S'merged'
p600
S'into'
p601
tp602
F0.004166666666666667
s(S'was'
p603
S'jointly'
p604
S'owned'
p605
tp606
F0.004166666666666667
s(S'was'
p607
S'offered'
p608
S'to'
p609
tp610
F0.004166666666666667
s(S'then'
p611
S'owned'
p612
S'by'
p613
tp614
F0.004166666666666667
s(g172
g173
S'by'
p615
tp616
F0.004166666666666667
s(S'be'
p617
S'merged'
p618
S'into'
p619
tp620
F0.004166666666666667
s(S'in'
p621
g325
g326
tp622
F0.004166666666666667
s(S'to'
p623
S'sell'
p624
S'[[prp]]'
p625
tp626
F0.004166666666666667
s(g604
g605
S'by'
p627
tp628
F0.0125
s(S'announced'
p629
S'that'
p630
S'be'
p631
tp632
F0.008333333333333333
s(S'is'
p633
S'owned'
p634
S'by'
p635
tp636
F0.008333333333333333
s(S'[[pro]]'
p637
S'acquired'
p638
S'by'
p639
tp640
F0.004166666666666667
s(S'was'
p641
S'merged'
p642
S'[[con]]'
p643
tp644
F0.004166666666666667
s(S'[[adj]]'
p645
S'venture'
p646
S'of'
p647
tp648
F0.004166666666666667
s(S'had'
p649
S'merged'
p650
S'into'
p651
tp652
F0.004166666666666667
s(S'[[con]]'
p653
S'acquired'
p654
S'by'
p655
tp656
F0.004166666666666667
s(S'was'
p657
S'acquired'
p658
S'by'
p659
tp660
F0.008333333333333333
s(g76
g77
g508
tp661
F0.025
s(S'being'
p662
S'sold'
p663
S'to'
p664
tp665
F0.004166666666666667
s(S'later'
p666
S'acquired'
p667
S'by'
p668
tp669
F0.004166666666666667
s(S'had'
p670
S'acquired'
p671
S'from'
p672
tp673
F0.004166666666666667
s(S'was'
p674
S'purchased'
p675
S'in'
p676
tp677
F0.004166666666666667
s(S'announced'
p678
S'that'
p679
S'acquired'
p680
tp681
F0.008333333333333333
s(g630
g631
S'acquired'
p682
tp683
F0.008333333333333333
s(S'later'
p684
S'bought'
p685
S'by'
p686
tp687
F0.004166666666666667
s(g60
g61
S'subsidiary'
p688
tp689
F0.004166666666666667
s(S'was'
p690
S'established'
p691
S'at'
p692
tp693
F0.004166666666666667
s(g85
g215
g216
tp694
F0.004166666666666667
s(S'[[con]]'
p695
S'merged'
p696
S'to'
p697
tp698
F0.004166666666666667
s(S'has'
p699
S'announced'
p700
S'that'
p701
tp702
F0.004166666666666667
s(S'[[det]]'
p703
S'established'
p704
S'in'
p705
tp706
F0.004166666666666667
s(S'also'
p707
S'sold'
p708
S'by'
p709
tp710
F0.004166666666666667
s.