(dp0
(S'also'
p1
S'appointed'
p2
S'in'
p3
tp4
F0.0005494505494505495
s(S'candidate'
p5
S'[[adj]]'
p6
S'member'
p7
tp8
F0.0005494505494505495
s(S'[[det]]'
p9
S'member'
p10
S'at'
p11
tp12
F0.001098901098901099
s(S'later'
p13
S'founded'
p14
S'[[det]]'
p15
tp16
F0.0005494505494505495
s(S'when'
p17
S'served'
p18
S'with'
p19
tp20
F0.0005494505494505495
s(S'[[con]]'
p21
S'served'
p22
S'with'
p23
tp24
F0.0005494505494505495
s(S'[[adj]]'
p25
S'seat'
p26
S'for'
p27
tp28
F0.001098901098901099
s(S'to'
p29
S'lead'
p30
S'[[con]]'
p31
tp32
F0.0005494505494505495
s(S'succeeded'
p33
S'as'
p34
S'leader'
p35
tp36
F0.001098901098901099
s(S'[[det]]'
p37
S'politician'
p38
S'[[con]]'
p39
tp40
F0.002197802197802198
s(S'was'
p41
S'moved'
p42
S'after'
p43
tp44
F0.0005494505494505495
s(S'also'
p45
S'won'
p46
S'from'
p47
tp48
F0.0005494505494505495
s(S'serve'
p49
S'as'
p50
S'[[det]]'
p51
tp52
F0.0005494505494505495
s(S'was'
p53
S'named'
p54
S'for'
p55
tp56
F0.0005494505494505495
s(S'graduated'
p57
S'[[con]]'
p58
S'joined'
p59
tp60
F0.001098901098901099
s(S'of'
p61
S'representing'
p62
S'[[det]]'
p63
tp64
F0.0005494505494505495
s(S'of'
p65
S'committee'
p66
S'for'
p67
tp68
F0.0005494505494505495
s(S'while'
p69
S'moved'
p70
S'to'
p71
tp72
F0.0005494505494505495
s(S'was'
p73
S'joined'
p74
S'in'
p75
tp76
F0.0005494505494505495
s(S'which'
p77
S'had'
p78
S'formed'
p79
tp80
F0.0005494505494505495
s(S'is'
p81
S'cofounder'
p82
S'[[con]]'
p83
tp84
F0.0005494505494505495
s(S'to'
p85
S'join'
p86
S'up'
p87
tp88
F0.001098901098901099
s(S'was'
p89
S'involved'
p90
S'on'
p91
tp92
F0.0005494505494505495
s(S'was'
p93
S'named'
p94
S'at'
p95
tp96
F0.0005494505494505495
s(S'when'
p97
S'left'
p98
S'to'
p99
tp100
F0.0005494505494505495
s(S'who'
p101
S'[[det]]'
p102
S'member'
p103
tp104
F0.0005494505494505495
s(S'then'
p105
S'moved'
p106
S'[[con]]'
p107
tp108
F0.0005494505494505495
s(S'left'
p109
S'to'
p110
S'join'
p111
tp112
F0.0038461538461538464
s(S'[[con]]'
p113
S'candidate'
p114
S'of'
p115
tp116
F0.0005494505494505495
s(S'was'
p117
S'elected'
p118
S'for'
p119
tp120
F0.0005494505494505495
s(S'also'
p121
S'chairman'
p122
S'[[det]]'
p123
tp124
F0.0005494505494505495
s(S'bid'
p125
S'to'
p126
S'become'
p127
tp128
F0.0005494505494505495
s(S'to'
p129
S'[[det]]'
p130
S'member'
p131
tp132
F0.0016483516483516484
s(S'[[prp]]'
p133
S'position'
p134
S'at'
p135
tp136
F0.0005494505494505495
s(S'[[det]]'
p137
S'chairman'
p138
S'[[det]]'
p139
tp140
F0.0005494505494505495
s(S'served'
p141
S'representing'
p142
S'[[num]]'
p143
tp144
F0.0005494505494505495
s(S'[[det]]'
p145
S'work'
p146
S'in'
p147
tp148
F0.0005494505494505495
s(S'later'
p149
S'join'
p150
S'[[det]]'
p151
tp152
F0.0005494505494505495
s(S'[[adj]]'
p153
S'campaign'
p154
S'[[con]]'
p155
tp156
F0.0005494505494505495
s(S'became'
p157
S'involved'
p158
S'in'
p159
tp160
F0.0005494505494505495
s(S'be'
p161
S'named'
p162
S'[[det]]'
p163
tp164
F0.0005494505494505495
s(S'prevent'
p165
S'[[det]]'
p166
S'issue'
p167
tp168
F0.0005494505494505495
s(S'[[det]]'
p169
S'representative'
p170
S'[[con]]'
p171
tp172
F0.0005494505494505495
s(S'also'
p173
S'involved'
p174
S'[[con]]'
p175
tp176
F0.0005494505494505495
s(S'then'
p177
S'moved'
p178
S'for'
p179
tp180
F0.0005494505494505495
s(S'[[adj]]'
p181
S'member'
p182
S'[[det]]'
p183
tp184
F0.0016483516483516484
s(S'also'
p185
S'led'
p186
S'[[det]]'
p187
tp188
F0.0005494505494505495
s(S'was'
p189
S'head'
p190
S'[[con]]'
p191
tp192
F0.0005494505494505495
s(S'had'
p193
S'founded'
p194
S'[[det]]'
p195
tp196
F0.0005494505494505495
s(S'to'
p197
S'join'
p198
S'[[num]]'
p199
tp200
F0.0005494505494505495
s(S'who'
p201
S'served'
p202
S'with'
p203
tp204
F0.0005494505494505495
s(S'elected'
p205
S'representing'
p206
S'[[det]]'
p207
tp208
F0.0005494505494505495
s(S'instead'
p209
S'appointed'
p210
S'[[pro]]'
p211
tp212
F0.0005494505494505495
s(S'elected'
p213
S'member'
p214
S'[[det]]'
p215
tp216
F0.001098901098901099
s(S'served'
p217
S'to'
p218
S'[[det]]'
p219
tp220
F0.0005494505494505495
s(S'[[det]]'
p221
S'seat'
p222
S'for'
p223
tp224
F0.0016483516483516484
s(S's'
p225
S'group'
p226
S'[[det]]'
p227
tp228
F0.0005494505494505495
s(S'was'
p229
S'reelected'
p230
S'[[con]]'
p231
tp232
F0.0005494505494505495
s(S'[[det]]'
p233
S'member'
p234
S'when'
p235
tp236
F0.0005494505494505495
s(S'[[det]]'
p237
S'moved'
p238
S'to'
p239
tp240
F0.0005494505494505495
s(S'as'
p241
S'[[det]]'
p242
S'leader'
p243
tp244
F0.0016483516483516484
s(S'graduated'
p245
S'where'
p246
S'joined'
p247
tp248
F0.0005494505494505495
s(S'[[adj]]'
p249
S'elected'
p250
S'as'
p251
tp252
F0.0005494505494505495
s(S'member'
p253
S'[[con]]'
p254
S'[[det]]'
p255
tp256
F0.0005494505494505495
s(S'[[det]]'
p257
S'candidate'
p258
S'for'
p259
tp260
F0.0032967032967032967
s(S'[[det]]'
p261
S'member'
p262
S'until'
p263
tp264
F0.0005494505494505495
s(S'elected'
p265
S'as'
p266
S'chairman'
p267
tp268
F0.0005494505494505495
s(S'had'
p269
S'represented'
p270
S'in'
p271
tp272
F0.0005494505494505495
s(S'then'
p273
S'left'
p274
S'to'
p275
tp276
F0.001098901098901099
s(S'[[det]]'
p277
S'group'
p278
S'of'
p279
tp280
F0.0005494505494505495
s(S'which'
p281
S'ran'
p282
S'to'
p283
tp284
F0.0005494505494505495
s(S'[[num]]'
p285
S'members'
p286
S'of'
p287
tp288
F0.0005494505494505495
s(S'[[det]]'
p289
S'candidate'
p290
S'[[con]]'
p291
tp292
F0.0005494505494505495
s(S'[[det]]'
p293
g25
g26
tp294
F0.002197802197802198
s(S'born'
p295
S'is'
p296
S'[[det]]'
p297
tp298
F0.002197802197802198
s(S'[[con]]'
p299
S'joined'
p300
S'[[det]]'
p301
tp302
F0.0016483516483516484
s(S'[[det]]'
p303
S'positions'
p304
S'at'
p305
tp306
F0.0005494505494505495
s(S'was'
p307
S'president'
p308
S'[[det]]'
p309
tp310
F0.0005494505494505495
s(S'represented'
p311
S'from'
p312
S'[[det]]'
p313
tp314
F0.0005494505494505495
s(g254
g255
S'leader'
p315
tp316
F0.0005494505494505495
s(S'again'
p317
S'elected'
p318
S'as'
p319
tp320
F0.0005494505494505495
s(S'[[det]]'
p321
S'candidate'
p322
S'[[det]]'
p323
tp324
F0.0005494505494505495
s(S'is'
p325
S'president'
p326
S'[[det]]'
p327
tp328
F0.0005494505494505495
s(S'[[det]]'
p329
S'constituency'
p330
S'[[det]]'
p331
tp332
F0.0005494505494505495
s(S'[[det]]'
p333
S'chair'
p334
S'at'
p335
tp336
F0.0005494505494505495
s(S'as'
p337
S'won'
p338
S'[[det]]'
p339
tp340
F0.0005494505494505495
s(S'in'
p341
S'[[det]]'
p342
S'representing'
p343
tp344
F0.0005494505494505495
s(S'again'
p345
S'[[det]]'
p346
S'member'
p347
tp348
F0.0005494505494505495
s(S'has'
p349
S'served'
p350
S'[[con]]'
p351
tp352
F0.0016483516483516484
s(S'as'
p353
S'[[adj]]'
p354
S'head'
p355
tp356
F0.0005494505494505495
s(S'[[con]]'
p357
S'served'
p358
S'at'
p359
tp360
F0.0005494505494505495
s(S'was'
p361
S'member'
p362
S'for'
p363
tp364
F0.0005494505494505495
s(S'ran'
p365
g345
g346
tp366
F0.0005494505494505495
s(S'when'
p367
S'moved'
p368
S'from'
p369
tp370
F0.0005494505494505495
s(S'[[det]]'
p371
S'chair'
p372
S'in'
p373
tp374
F0.0005494505494505495
s(S'became'
p375
S'chairman'
p376
S'of'
p377
tp378
F0.0005494505494505495
s(S'[[det]]'
p379
S'patron'
p380
S'of'
p381
tp382
F0.0005494505494505495
s(S'also'
p383
S'named'
p384
S'for'
p385
tp386
F0.0005494505494505495
s(S'from'
p387
S'[[adj]]'
p388
S'district'
p389
tp390
F0.001098901098901099
s(S'had'
p391
S'appointed'
p392
S'to'
p393
tp394
F0.0005494505494505495
s(S'[[det]]'
p395
S'position'
p396
S'in'
p397
tp398
F0.0005494505494505495
s(S'[[adj]]'
p399
S'district'
p400
S'[[con]]'
p401
tp402
F0.001098901098901099
s(S'was'
p403
S'secretary'
p404
S'of'
p405
tp406
F0.0005494505494505495
s(S'is'
p407
S'member'
p408
S'[[con]]'
p409
tp410
F0.0005494505494505495
s(S'[[num]]'
p411
S'[[con]]'
p412
S'politician'
p413
tp414
F0.0005494505494505495
s(S'as'
p415
S'[[adj]]'
p416
S'leader'
p417
tp418
F0.001098901098901099
s(S'[[num]]'
p419
S'founder'
p420
S'of'
p421
tp422
F0.0005494505494505495
s(S'later'
p423
S'represented'
p424
S'[[det]]'
p425
tp426
F0.0005494505494505495
s(S'committee'
p427
S'member'
p428
S'of'
p429
tp430
F0.001098901098901099
s(S'became'
p431
S'secretary'
p432
S'[[det]]'
p433
tp434
F0.0005494505494505495
s(S'to'
p435
S'run'
p436
S'for'
p437
tp438
F0.0005494505494505495
s(S'[[con]]'
p439
S'leader'
p440
S'of'
p441
tp442
F0.001098901098901099
s(S'[[det]]'
p443
S'riding'
p444
S'of'
p445
tp446
F0.0005494505494505495
s(S'then'
p447
S'joined'
p448
S'to'
p449
tp450
F0.0005494505494505495
s(S'then'
p451
S'moved'
p452
S'[[num]]'
p453
tp454
F0.0005494505494505495
s(S'[[adj]]'
p455
S'list'
p456
S'of'
p457
tp458
F0.001098901098901099
s(S'was'
p459
S'named'
p460
S'by'
p461
tp462
F0.0005494505494505495
s(S'as'
p463
S'head'
p464
S'[[det]]'
p465
tp466
F0.0005494505494505495
s(S'bid'
p467
S'to'
p468
S'lead'
p469
tp470
F0.0027472527472527475
s(S'[[det]]'
p471
S'fundraiser'
p472
S'for'
p473
tp474
F0.0005494505494505495
s(S'also'
p475
S'nominated'
p476
S'[[num]]'
p477
tp478
F0.0005494505494505495
s(S'also'
p479
S'appointed'
p480
S'[[con]]'
p481
tp482
F0.0005494505494505495
s(S'[[adj]]'
p483
S'run'
p484
S'for'
p485
tp486
F0.0005494505494505495
s(S'remained'
p487
S'[[det]]'
p488
S'[[adj]]'
p489
tp490
F0.0005494505494505495
s(S'then'
p491
S'joined'
p492
S'[[adj]]'
p493
tp494
F0.0005494505494505495
s(S'was'
p495
S'defeated'
p496
S'on'
p497
tp498
F0.0005494505494505495
s(g166
g167
S'[[prp]]'
p499
tp500
F0.0005494505494505495
s(S'later'
p501
S'moved'
p502
S'at'
p503
tp504
F0.0005494505494505495
s(S'which'
p505
S'led'
p506
S'at'
p507
tp508
F0.0005494505494505495
s(S'[[adj]]'
p509
S'served'
p510
S'for'
p511
tp512
F0.0005494505494505495
s(S'had'
p513
S'joined'
p514
S'from'
p515
tp516
F0.0005494505494505495
s(S'to'
p517
S'join'
p518
S'at'
p519
tp520
F0.0005494505494505495
s(S'has'
p521
S'run'
p522
S'as'
p523
tp524
F0.0005494505494505495
s(g225
S'won'
p525
S'[[det]]'
p526
tp527
F0.0005494505494505495
s(g312
g313
S'member'
p528
tp529
F0.0005494505494505495
s(S'before'
p530
S'joining'
p531
S'[[con]]'
p532
tp533
F0.0005494505494505495
s(S'was'
p534
S'reelected'
p535
S'to'
p536
tp537
F0.0005494505494505495
s(S'as'
p538
S'chairman'
p539
S'of'
p540
tp541
F0.001098901098901099
s(S'which'
p542
S'lead'
p543
S'to'
p544
tp545
F0.0005494505494505495
s(S'[[adj]]'
p546
S'served'
p547
S'on'
p548
tp549
F0.0005494505494505495
s(S'elected'
p550
S'as'
p551
S'[[adj]]'
p552
tp553
F0.001098901098901099
s(S'became'
p554
S'president'
p555
S'[[det]]'
p556
tp557
F0.0005494505494505495
s(S'elected'
p558
S'[[det]]'
p559
S'member'
p560
tp561
F0.0038461538461538464
s(S'[[num]]'
p562
S'served'
p563
S'as'
p564
tp565
F0.0005494505494505495
s(S'[[adj]]'
p566
S'president'
p567
S'[[num]]'
p568
tp569
F0.0005494505494505495
s(S'[[adj]]'
p570
S'leader'
p571
S'for'
p572
tp573
F0.0005494505494505495
s(S'became'
p574
S'head'
p575
S'at'
p576
tp577
F0.0005494505494505495
s(S'[[det]]'
p578
S'chair'
p579
S'of'
p580
tp581
F0.0005494505494505495
s(S'was'
p582
S'representing'
p583
S'[[det]]'
p584
tp585
F0.0005494505494505495
s(S'had'
p586
S'formed'
p587
S'[[det]]'
p588
tp589
F0.0005494505494505495
s(S'represented'
p590
S'[[det]]'
p591
S'constituency'
p592
tp593
F0.0016483516483516484
s(S'held'
p594
S'[[det]]'
p595
S'positions'
p596
tp597
F0.0016483516483516484
s(S'been'
p598
S'president'
p599
S'[[det]]'
p600
tp601
F0.0005494505494505495
s(S'also'
p602
S'served'
p603
S'with'
p604
tp605
F0.0005494505494505495
s(S'represented'
p606
S'[[det]]'
p607
S'[[adj]]'
p608
tp609
F0.001098901098901099
s(g591
g592
S'[[con]]'
p610
tp611
F0.001098901098901099
s(S'[[adj]]'
p612
S'work'
p613
S'as'
p614
tp615
F0.0005494505494505495
s(S'succeeded'
p616
S'as'
p617
S'[[adj]]'
p618
tp619
F0.0005494505494505495
s(S'[[adj]]'
p620
S'work'
p621
S'for'
p622
tp623
F0.0005494505494505495
s(S'had'
p624
S'won'
p625
S'[[pro]]'
p626
tp627
F0.0005494505494505495
s(S'[[pro]]'
p628
S'joined'
p629
S'[[det]]'
p630
tp631
F0.0005494505494505495
s(S'also'
p632
S'represents'
p633
S'[[det]]'
p634
tp635
F0.0005494505494505495
s(S'for'
p636
S'[[det]]'
p637
S'leadership'
p638
tp639
F0.0027472527472527475
s(S'[[det]]'
p640
S'representative'
p641
S'at'
p642
tp643
F0.0005494505494505495
s(S'to'
p644
S'establish'
p645
S'[[pro]]'
p646
tp647
F0.0005494505494505495
s(S'later'
p648
S'elected'
p649
S'[[det]]'
p650
tp651
F0.0005494505494505495
s(S'as'
p652
S'head'
p653
S'of'
p654
tp655
F0.0016483516483516484
s(S'been'
p656
S'appointed'
p657
S'to'
p658
tp659
F0.0005494505494505495
s(S'was'
p660
S'involved'
p661
S'in'
p662
tp663
F0.0005494505494505495
s(S'then'
p664
S'joined'
p665
S'side'
p666
tp667
F0.0005494505494505495
s(S'as'
p668
S'president'
p669
S'of'
p670
tp671
F0.0005494505494505495
s(S'then'
p672
S'founded'
p673
S'[[det]]'
p674
tp675
F0.0005494505494505495
s(S'as'
p676
S'leader'
p677
S'of'
p678
tp679
F0.006593406593406593
s(S'with'
p680
S'formed'
p681
S'[[det]]'
p682
tp683
F0.0005494505494505495
s(S'[[det]]'
p684
S'secretary'
p685
S'for'
p686
tp687
F0.0005494505494505495
s(S'when'
p688
S'joined'
p689
S'[[det]]'
p690
tp691
F0.0005494505494505495
s(S'[[adj]]'
p692
S'secretary'
p693
S'at'
p694
tp695
F0.0005494505494505495
s(S'again'
p696
S'named'
p697
S'as'
p698
tp699
F0.0005494505494505495
s(S'was'
p700
S'chosen'
p701
S'[[num]]'
p702
tp703
F0.0005494505494505495
s(S'was'
p704
S'defeated'
p705
S'for'
p706
tp707
F0.0005494505494505495
s(S'have'
p708
S'won'
p709
S'with'
p710
tp711
F0.0005494505494505495
s(S'was'
p712
S'suspended'
p713
S'by'
p714
tp715
F0.0005494505494505495
s(S'was'
p716
S'chair'
p717
S'[[det]]'
p718
tp719
F0.0005494505494505495
s(S'[[con]]'
p720
S'moved'
p721
S'on'
p722
tp723
F0.0005494505494505495
s(S'also'
p724
S'involved'
p725
S'for'
p726
tp727
F0.0005494505494505495
s(S'then'
p728
S'served'
p729
S'before'
p730
tp731
F0.0005494505494505495
s(S'won'
p732
g293
g25
tp733
F0.001098901098901099
s(S'now'
p734
S'serves'
p735
S'at'
p736
tp737
F0.0005494505494505495
s(S'[[adj]]'
p738
S'member'
p739
S'on'
p740
tp741
F0.001098901098901099
s(S'has'
p742
S'served'
p743
S'[[adj]]'
p744
tp745
F0.0005494505494505495
s(S'member'
p746
g65
g66
tp747
F0.0005494505494505495
s(S'currently'
p748
S'serves'
p749
S'at'
p750
tp751
F0.0005494505494505495
s(S'when'
p752
S'defeated'
p753
S'[[det]]'
p754
tp755
F0.0005494505494505495
s(S'be'
p756
S'nominated'
p757
S'for'
p758
tp759
F0.0005494505494505495
s(S'remained'
p760
S'[[det]]'
p761
S'member'
p762
tp763
F0.001098901098901099
s(S'was'
p764
S'chosen'
p765
S'because'
p766
tp767
F0.0005494505494505495
s(S'had'
p768
S'established'
p769
S'[[pro]]'
p770
tp771
F0.0005494505494505495
s(S'that'
p772
S'led'
p773
S'[[det]]'
p774
tp775
F0.0005494505494505495
s(S'[[det]]'
p776
S'seat'
p777
S'of'
p778
tp779
F0.001098901098901099
s(S'became'
p780
S'involved'
p781
S'as'
p782
tp783
F0.0005494505494505495
s(S'then'
p784
S'appointed'
p785
S'[[num]]'
p786
tp787
F0.0005494505494505495
s(S'had'
p788
S'entered'
p789
S'[[det]]'
p790
tp791
F0.0005494505494505495
s(S'again'
p792
S'served'
p793
S'with'
p794
tp795
F0.0005494505494505495
s(S'also'
p796
S'appointed'
p797
S'on'
p798
tp799
F0.0005494505494505495
s(S'who'
p800
S'won'
p801
S'with'
p802
tp803
F0.0005494505494505495
s(S'[[det]]'
p804
g5
g6
tp805
F0.0005494505494505495
s(S'while'
p806
S'joined'
p807
S'[[det]]'
p808
tp809
F0.0005494505494505495
s(S'[[num]]'
p810
S'leading'
p811
S'[[det]]'
p812
tp813
F0.0005494505494505495
s(S'elected'
p814
S'as'
p815
S'member'
p816
tp817
F0.001098901098901099
s(S'served'
p818
S'[[con]]'
p819
S'was'
p820
tp821
F0.0005494505494505495
s(S'[[adj]]'
p822
S'candidate'
p823
S'on'
p824
tp825
F0.0005494505494505495
s(S'also'
p826
S'served'
p827
S'[[det]]'
p828
tp829
F0.001098901098901099
s(S'sat'
p830
S'[[con]]'
p831
S'[[det]]'
p832
tp833
F0.0005494505494505495
s(S'contested'
p834
S'[[det]]'
p835
S'seat'
p836
tp837
F0.001098901098901099
s(S'[[det]]'
p838
S'wing'
p839
S'of'
p840
tp841
F0.0005494505494505495
s(S'[[det]]'
p842
S'members'
p843
S'of'
p844
tp845
F0.0005494505494505495
s(S'[[con]]'
p846
S'belongs'
p847
S'to'
p848
tp849
F0.0005494505494505495
s(S'was'
p850
S'involved'
p851
S'to'
p852
tp853
F0.0005494505494505495
s(S'also'
p854
S'serves'
p855
S'[[num]]'
p856
tp857
F0.0005494505494505495
s(S'[[mod]]'
p858
S'lead'
p859
S'[[det]]'
p860
tp861
F0.0005494505494505495
s(S'was'
p862
S'elected'
p863
g129
tp864
F0.0032967032967032967
s(S'again'
p865
S'ran'
p866
S'for'
p867
tp868
F0.0005494505494505495
s(S'[[adj]]'
p869
S'position'
p870
S'at'
p871
tp872
F0.0005494505494505495
s(S'also'
p873
S'held'
p874
S'[[adj]]'
p875
tp876
F0.002197802197802198
s(S'later'
p877
S'led'
p878
S'[[det]]'
p879
tp880
F0.0005494505494505495
s(S'was'
p881
S'moved'
p882
S'to'
p883
tp884
F0.0005494505494505495
s(S'member'
p885
S'[[con]]'
p886
g648
tp887
F0.0005494505494505495
s(S'was'
p888
S'appointed'
p889
S'[[det]]'
p890
tp891
F0.0005494505494505495
s(S'also'
p892
S'served'
p893
S'as'
p894
tp895
F0.004945054945054945
s(S'been'
p896
S'named'
p897
S'at'
p898
tp899
F0.0005494505494505495
s(S'twice'
p900
S'served'
p901
S'in'
p902
tp903
F0.0005494505494505495
s(S'[[det]]'
p904
S'chairman'
p905
S'[[con]]'
p906
tp907
F0.0005494505494505495
s(S'became'
p908
S'chairman'
p909
S'at'
p910
tp911
F0.0005494505494505495
s(S'was'
p912
S'moved'
p913
S'for'
p914
tp915
F0.0005494505494505495
s(S'was'
p916
S'elected'
p917
S'[[con]]'
p918
tp919
F0.002197802197802198
s(S'[[det]]'
p920
S'chairman'
p921
S'for'
p922
tp923
F0.0005494505494505495
s(S'also'
p924
S'appointed'
p925
S'of'
p926
tp927
F0.0005494505494505495
s(S'[[det]]'
p928
S'[[adj]]'
p929
S'chairman'
p930
tp931
F0.0005494505494505495
s(S'later'
p932
S'appointed'
p933
S'at'
p934
tp935
F0.0005494505494505495
s(S'[[det]]'
p936
S'founders'
p937
S'[[con]]'
p938
tp939
F0.0005494505494505495
s(S'candidacy'
p940
g636
g637
tp941
F0.0005494505494505495
s(S'being'
p942
S'elected'
p943
S'of'
p944
tp945
F0.0005494505494505495
s(S'was'
p946
S'chair'
p947
S'at'
p948
tp949
F0.0005494505494505495
s(S'held'
p950
S'positions'
p951
S'as'
p952
tp953
F0.001098901098901099
s(S'[[adj]]'
p954
S'member'
p955
S'as'
p956
tp957
F0.0005494505494505495
s(S'[[con]]'
p958
S'led'
p959
S'to'
p960
tp961
F0.0005494505494505495
s(S'[[adj]]'
p962
S'member'
p963
S'from'
p964
tp965
F0.0005494505494505495
s(S'held'
p966
S'[[adj]]'
p967
S'positions'
p968
tp969
F0.007692307692307693
s(S'[[det]]'
p970
S'seat'
p971
S'on'
p972
tp973
F0.0005494505494505495
s(S'also'
p974
S'established'
p975
S'[[pro]]'
p976
tp977
F0.0005494505494505495
s(S'member'
p978
S'[[con]]'
p979
S'has'
p980
tp981
F0.001098901098901099
s(S'had'
p982
S'joined'
p983
S'[[det]]'
p984
tp985
F0.0005494505494505495
s(S'been'
p986
S'nominated'
p987
S'to'
p988
tp989
F0.0005494505494505495
s(S'matter'
p990
S'to'
p991
g165
tp992
F0.0005494505494505495
s(S'was'
p993
S'left'
p994
S'out'
p995
tp996
F0.0005494505494505495
s(S'had'
p997
S'left'
p998
S'for'
p999
tp1000
F0.0005494505494505495
s(S'also'
p1001
S'remained'
p1002
S'[[adj]]'
p1003
tp1004
F0.0005494505494505495
s(S'was'
p1005
S'cofounder'
p1006
S'[[con]]'
p1007
tp1008
F0.0005494505494505495
s(S'then'
p1009
S'served'
p1010
S'to'
p1011
tp1012
F0.0005494505494505495
s(S'of'
p1013
S'[[det]]'
p1014
S'served'
p1015
tp1016
F0.0005494505494505495
s(S'has'
p1017
S'run'
p1018
S'for'
p1019
tp1020
F0.0005494505494505495
s(S'first'
p1021
S'served'
p1022
S'in'
p1023
tp1024
F0.0005494505494505495
s(S'also'
p1025
S'formed'
p1026
S'[[det]]'
p1027
tp1028
F0.0005494505494505495
s(S'also'
p1029
S'cofounded'
p1030
S'[[det]]'
p1031
tp1032
F0.0005494505494505495
s(S'succeed'
p1033
S'as'
p1034
S'leader'
p1035
tp1036
F0.0016483516483516484
s(S'also'
p1037
S'president'
p1038
S'[[det]]'
p1039
tp1040
F0.0005494505494505495
s(S'was'
p1041
S'appointed'
p1042
S'as'
p1043
tp1044
F0.0005494505494505495
s(S'[[det]]'
p1045
S'official'
p1046
S'in'
p1047
tp1048
F0.0005494505494505495
s(S'then'
p1049
S'held'
p1050
S'positions'
p1051
tp1052
F0.0005494505494505495
s(S'[[adj]]'
p1053
S'position'
p1054
S'in'
p1055
tp1056
F0.0005494505494505495
s(S'to'
p1057
S'head'
p1058
S'[[det]]'
p1059
tp1060
F0.0005494505494505495
s(S'left'
p1061
S'[[det]]'
p1062
S'join'
p1063
tp1064
F0.0005494505494505495
s(S'has'
p1065
S'won'
p1066
S'[[adj]]'
p1067
tp1068
F0.0005494505494505495
s(S'[[det]]'
p1069
S'head'
p1070
S'[[con]]'
p1071
tp1072
F0.0005494505494505495
s(S'also'
p1073
S'appointed'
p1074
S'as'
p1075
tp1076
F0.0005494505494505495
s(S'later'
p1077
S'moved'
p1078
S'with'
p1079
tp1080
F0.0005494505494505495
s(S'also'
p1081
S'founded'
p1082
S'at'
p1083
tp1084
F0.0005494505494505495
s(S'selected'
p1085
S'as'
p1086
S'[[det]]'
p1087
tp1088
F0.0005494505494505495
s(S'[[det]]'
p1089
g990
g991
tp1090
F0.0005494505494505495
s(S'[[con]]'
p1091
S'won'
p1092
S'for'
p1093
tp1094
F0.0005494505494505495
s(S'was'
p1095
S'elected'
p1096
S'chairman'
p1097
tp1098
F0.0016483516483516484
s(S'was'
p1099
S'candidate'
p1100
S'of'
p1101
tp1102
F0.0005494505494505495
s(S'[[det]]'
p1103
S'politician'
p1104
g101
tp1105
F0.001098901098901099
s(S'soon'
p1106
S'moved'
p1107
S'on'
p1108
tp1109
F0.0005494505494505495
s(S'is'
p1110
S'named'
p1111
S'as'
p1112
tp1113
F0.0005494505494505495
s(S'was'
p1114
S'president'
p1115
S'[[con]]'
p1116
tp1117
F0.0005494505494505495
s(S'is'
p1118
S'president'
p1119
S'[[con]]'
p1120
tp1121
F0.0005494505494505495
s(S'then'
p1122
S'served'
p1123
S'on'
p1124
tp1125
F0.0005494505494505495
s(S'people'
p1126
S'who'
p1127
S'confirmed'
p1128
tp1129
F0.0005494505494505495
s(S'[[det]]'
p1130
S'elected'
p1131
S'member'
p1132
tp1133
F0.0016483516483516484
s(S'currently'
p1134
S'represents'
p1135
S'[[det]]'
p1136
tp1137
F0.0005494505494505495
s(S'[[con]]'
p1138
S'leading'
p1139
S'[[det]]'
p1140
tp1141
F0.0005494505494505495
s(S'elected'
p1142
S'[[con]]'
p1143
S'[[adj]]'
p1144
tp1145
F0.0005494505494505495
s(g477
g1126
g1127
tp1146
F0.0005494505494505495
s(S'soon'
p1147
S'joined'
p1148
S'[[det]]'
p1149
tp1150
F0.0005494505494505495
s(S'later'
p1151
S'joined'
p1152
S'[[con]]'
p1153
tp1154
F0.0005494505494505495
s(S'became'
p1155
S'leader'
p1156
S'of'
p1157
tp1158
F0.0005494505494505495
s(S'[[num]]'
p1159
S'[[det]]'
p1160
S'politician'
p1161
tp1162
F0.001098901098901099
s(S'again'
p1163
S'moved'
p1164
S'to'
p1165
tp1166
F0.0005494505494505495
s(S'then'
p1167
S'joined'
p1168
S'[[num]]'
p1169
tp1170
F0.0005494505494505495
s(S'has'
p1171
S'served'
p1172
S'with'
p1173
tp1174
F0.0005494505494505495
s(S'[[pro]]'
p1175
S'served'
p1176
S'in'
p1177
tp1178
F0.0005494505494505495
s(g476
g477
g1126
tp1179
F0.0005494505494505495
s(S'currently'
p1180
S'serves'
p1181
S'to'
p1182
tp1183
F0.0005494505494505495
s(S'[[det]]'
p1184
S'[[adj]]'
p1185
S'committee'
p1186
tp1187
F0.0005494505494505495
s(S'later'
p1188
S'served'
p1189
S'as'
p1190
tp1191
F0.001098901098901099
s(S'now'
p1192
S'serves'
p1193
S'for'
p1194
tp1195
F0.0005494505494505495
s(S'with'
p1196
S'established'
p1197
S'[[det]]'
p1198
tp1199
F0.0005494505494505495
s(S'[[adj]]'
p1200
S'party'
p1201
S'[[con]]'
p1202
tp1203
F0.0005494505494505495
s(S'served'
p1204
g463
g464
tp1205
F0.002197802197802198
s(g863
g129
g130
tp1206
F0.001098901098901099
s(S'[[det]]'
p1207
S'position'
p1208
S'with'
p1209
tp1210
F0.0005494505494505495
s(S'[[prp]]'
p1211
g940
g636
tp1212
F0.0005494505494505495
s(S'endorsed'
p1213
S'for'
p1214
S'[[det]]'
p1215
tp1216
F0.0005494505494505495
s(S'also'
p1217
S'appointed'
p1218
S'[[det]]'
p1219
tp1220
F0.0005494505494505495
s(S'[[adj]]'
p1221
S'member'
p1222
S'during'
p1223
tp1224
F0.0005494505494505495
s(S'become'
p1225
S'chairman'
p1226
S'of'
p1227
tp1228
F0.0005494505494505495
s(S'formerly'
p1229
S'served'
p1230
S'to'
p1231
tp1232
F0.0005494505494505495
s(S'[[det]]'
p1233
S'to'
p1234
S'join'
p1235
tp1236
F0.001098901098901099
s(S'being'
p1237
S'appointed'
p1238
S'to'
p1239
tp1240
F0.0005494505494505495
s(g225
S'group'
p1241
S'at'
p1242
tp1243
F0.0005494505494505495
s(S'to'
p1244
S'work'
p1245
S'from'
p1246
tp1247
F0.0005494505494505495
s(S'is'
p1248
S'involved'
p1249
S'with'
p1250
tp1251
F0.0005494505494505495
s(S'been'
p1252
S'expelled'
p1253
S'from'
p1254
tp1255
F0.0005494505494505495
s(S'[[det]]'
p1256
S'committee'
p1257
S'of'
p1258
tp1259
F0.0005494505494505495
s(S'been'
p1260
S'involved'
p1261
S'as'
p1262
tp1263
F0.0005494505494505495
s(S'later'
p1264
S'appointed'
p1265
S'as'
p1266
tp1267
F0.0005494505494505495
s(g824
S'[[det]]'
p1268
S'list'
p1269
tp1270
F0.0005494505494505495
s(S'[[det]]'
p1271
S'member'
p1272
S'from'
p1273
tp1274
F0.0005494505494505495
s(S'also'
p1275
S'president'
p1276
S'in'
p1277
tp1278
F0.0005494505494505495
s(S'[[det]]'
p1279
S'member'
p1280
S'which'
p1281
tp1282
F0.0005494505494505495
s(S'become'
p1283
S'chairman'
p1284
S'to'
p1285
tp1286
F0.0005494505494505495
s(S'[[con]]'
p1287
S'joined'
p1288
S'from'
p1289
tp1290
F0.0005494505494505495
s(S'[[det]]'
p1291
S'chair'
p1292
S'[[det]]'
p1293
tp1294
F0.0005494505494505495
s(g918
S'[[det]]'
p1295
S'member'
p1296
tp1297
F0.00989010989010989
s(S'[[con]]'
p1298
S'chair'
p1299
S'of'
p1300
tp1301
F0.0005494505494505495
s(S'being'
p1302
S'appointed'
p1303
S'of'
p1304
tp1305
F0.0005494505494505495
s(S'[[det]]'
p1306
S'candidate'
p1307
S'member'
p1308
tp1309
F0.0016483516483516484
s(S'elected'
p1310
S'secretary'
p1311
S'of'
p1312
tp1313
F0.0005494505494505495
s(S'[[det]]'
p1314
S'chairman'
p1315
S'in'
p1316
tp1317
F0.0005494505494505495
s(S'was'
p1318
S'served'
p1319
S'as'
p1320
tp1321
F0.0005494505494505495
s(S'was'
p1322
S'suspended'
p1323
S'from'
p1324
tp1325
F0.0005494505494505495
s(S'now'
p1326
S'serves'
p1327
S'as'
p1328
tp1329
F0.0005494505494505495
s(S'elected'
p1330
S'at'
p1331
S'[[adj]]'
p1332
tp1333
F0.0005494505494505495
s(S'become'
p1334
S'chairman'
p1335
S'[[con]]'
p1336
tp1337
F0.0005494505494505495
s(S'[[adj]]'
p1338
S'founder'
p1339
S'of'
p1340
tp1341
F0.0005494505494505495
s(S'selected'
p1342
S'as'
p1343
S'candidate'
p1344
tp1345
F0.0005494505494505495
s(S'was'
p1346
S'leader'
p1347
S'[[con]]'
p1348
tp1349
F0.0005494505494505495
s(S'[[adj]]'
p1350
S'group'
p1351
S'at'
p1352
tp1353
F0.0005494505494505495
s(S'then'
p1354
S'appointed'
p1355
S'to'
p1356
tp1357
F0.0005494505494505495
s(S'member'
p1358
S'of'
p1359
S'[[det]]'
p1360
tp1361
F0.0032967032967032967
s(S'that'
p1362
S'won'
p1363
S'against'
p1364
tp1365
F0.0005494505494505495
s(S'who'
p1366
S'served'
p1367
S'in'
p1368
tp1369
F0.0005494505494505495
s(S'as'
p1370
S'[[det]]'
p1371
S'critic'
p1372
tp1373
F0.0005494505494505495
s(S'again'
p1374
S'appointed'
p1375
S'to'
p1376
tp1377
F0.0005494505494505495
s(S'before'
p1378
S'joining'
p1379
S'[[det]]'
p1380
tp1381
F0.0005494505494505495
s(S'of'
p1382
S'[[det]]'
p1383
S'representing'
p1384
tp1385
F0.0005494505494505495
s(S'has'
p1386
S'moved'
p1387
S'from'
p1388
tp1389
F0.0005494505494505495
s(g225
S'group'
p1390
S'[[con]]'
p1391
tp1392
F0.0005494505494505495
s(S'[[con]]'
p1393
S'was'
p1394
S'chairman'
p1395
tp1396
F0.0005494505494505495
s(S'been'
p1397
S'involved'
p1398
S'[[num]]'
p1399
tp1400
F0.0005494505494505495
s(S'also'
p1401
S'stood'
p1402
S'for'
p1403
tp1404
F0.0005494505494505495
s(S'also'
p1405
S'named'
p1406
S'[[con]]'
p1407
tp1408
F0.0005494505494505495
s(S'also'
p1409
S'member'
p1410
S'[[con]]'
p1411
tp1412
F0.0005494505494505495
s(S'was'
p1413
S'chair'
p1414
S'[[con]]'
p1415
tp1416
F0.0005494505494505495
s(S'being'
p1417
S'appointed'
p1418
S'at'
p1419
tp1420
F0.0005494505494505495
s(S'also'
p1421
S'stood'
p1422
S'against'
p1423
tp1424
F0.0005494505494505495
s(S'then'
p1425
S'moved'
p1426
S'on'
p1427
tp1428
F0.0005494505494505495
s(S'politician'
p1429
S'[[con]]'
p1430
S'[[det]]'
p1431
tp1432
F0.0005494505494505495
s(S'then'
p1433
S'moved'
p1434
S'into'
p1435
tp1436
F0.0005494505494505495
s(S'is'
p1437
S'appointed'
p1438
S'of'
p1439
tp1440
F0.0005494505494505495
s(S'[[det]]'
p1441
S'chairman'
p1442
S'of'
p1443
tp1444
F0.0016483516483516484
s(S'[[det]]'
p1445
S'riding'
p1446
S'[[det]]'
p1447
tp1448
F0.001098901098901099
s(S'[[con]]'
p1449
S'appointed'
p1450
S'[[pro]]'
p1451
tp1452
F0.0005494505494505495
s(S'also'
p1453
S'established'
p1454
S'[[det]]'
p1455
tp1456
F0.0005494505494505495
s(S'first'
p1457
S'entered'
p1458
S'[[det]]'
p1459
tp1460
F0.0005494505494505495
s(S'before'
p1461
S'moved'
p1462
S'to'
p1463
tp1464
F0.0005494505494505495
s(S'been'
p1465
S'elected'
p1466
S'as'
p1467
tp1468
F0.0005494505494505495
s(S'was'
p1469
S'left'
p1470
S'with'
p1471
tp1472
F0.0005494505494505495
s(S'have'
p1473
S'served'
p1474
S'in'
p1475
tp1476
F0.0005494505494505495
s(S'was'
p1477
S'involved'
p1478
S'with'
p1479
tp1480
F0.0005494505494505495
s(S'who'
p1481
S'joined'
p1482
S'[[det]]'
p1483
tp1484
F0.0005494505494505495
s(S'has'
p1485
S'served'
p1486
S'as'
p1487
tp1488
F0.0027472527472527475
s(S'also'
p1489
S'served'
p1490
S'at'
p1491
tp1492
F0.0005494505494505495
s(S'were'
p1493
S'expelled'
p1494
S'from'
p1495
tp1496
F0.0005494505494505495
s(S'then'
p1497
S'moved'
p1498
S'at'
p1499
tp1500
F0.0005494505494505495
s(S'[[adj]]'
p1501
S'president'
p1502
S'of'
p1503
tp1504
F0.0005494505494505495
s(S'[[det]]'
p1505
S'member'
p1506
S'[[det]]'
p1507
tp1508
F0.006593406593406593
s(S'became'
p1509
S'head'
p1510
S'[[det]]'
p1511
tp1512
F0.0005494505494505495
s(S'then'
p1513
S'left'
p1514
S'for'
p1515
tp1516
F0.0005494505494505495
s(S'also'
p1517
S'serves'
p1518
S'to'
p1519
tp1520
F0.0005494505494505495
s(S'later'
p1521
S'served'
p1522
S'with'
p1523
tp1524
F0.0005494505494505495
s(S'then'
p1525
S'moved'
p1526
S'with'
p1527
tp1528
F0.0005494505494505495
s(S'instead'
p1529
S'joined'
p1530
S'[[det]]'
p1531
tp1532
F0.0005494505494505495
s(S'was'
p1533
S'chosen'
p1534
S'in'
p1535
tp1536
F0.0005494505494505495
s(S'also'
p1537
S'served'
p1538
S'in'
p1539
tp1540
F0.0005494505494505495
s(S'[[det]]'
p1541
S'head'
p1542
S'at'
p1543
tp1544
F0.0005494505494505495
s(S'was'
p1545
S'involved'
p1546
S'[[adj]]'
p1547
tp1548
F0.0005494505494505495
s(S'also'
p1549
S'named'
p1550
S'of'
p1551
tp1552
F0.0005494505494505495
s(S'[[det]]'
p1553
S'member'
p1554
S'of'
p1555
tp1556
F0.02912087912087912
s(S'[[det]]'
p1557
S'representative'
p1558
S'to'
p1559
tp1560
F0.0005494505494505495
s(S'formerly'
p1561
S'served'
p1562
S'at'
p1563
tp1564
F0.0005494505494505495
s(S'[[det]]'
p1565
S'group'
p1566
S'which'
p1567
tp1568
F0.0005494505494505495
s(S'announced'
p1569
S'that'
p1570
S'[[mod]]'
p1571
tp1572
F0.001098901098901099
s(S'to'
p1573
S'chair'
p1574
S'[[det]]'
p1575
tp1576
F0.0005494505494505495
s(S'elected'
p1577
S'[[det]]'
p1578
S'[[adj]]'
p1579
tp1580
F0.002197802197802198
s(S'remained'
p1581
S'as'
p1582
S'[[det]]'
p1583
tp1584
F0.0005494505494505495
s(S'also'
p1585
S'affiliated'
p1586
S'with'
p1587
tp1588
F0.0005494505494505495
s(S'[[adj]]'
p1589
S'chairman'
p1590
S'[[con]]'
p1591
tp1592
F0.0005494505494505495
s(S'served'
p1593
S'representing'
p1594
S'[[det]]'
p1595
tp1596
F0.001098901098901099
s(S'[[det]]'
p1597
S'chairman'
p1598
S'on'
p1599
tp1600
F0.0005494505494505495
s(S'[[adj]]'
p1601
S'head'
p1602
S'[[con]]'
p1603
tp1604
F0.0005494505494505495
s(S'remained'
p1605
S'[[con]]'
p1606
S'[[det]]'
p1607
tp1608
F0.0005494505494505495
s(S'[[pro]]'
p1609
S'ran'
p1610
S'for'
p1611
tp1612
F0.0005494505494505495
s(S'founded'
p1613
S'[[det]]'
p1614
S'party'
p1615
tp1616
F0.0005494505494505495
s(S'had'
p1617
S'served'
p1618
S'at'
p1619
tp1620
F0.0005494505494505495
s(S'is'
p1621
S'appointed'
p1622
S'[[det]]'
p1623
tp1624
F0.0005494505494505495
s(S'later'
p1625
S'formed'
p1626
S'[[det]]'
p1627
tp1628
F0.0005494505494505495
s(S'later'
p1629
S'renamed'
p1630
S'[[det]]'
p1631
tp1632
F0.0005494505494505495
s(g225
S'work'
p1633
S'for'
p1634
tp1635
F0.0005494505494505495
s(S'been'
p1636
S'named'
p1637
S'by'
p1638
tp1639
F0.0005494505494505495
s(S'[[adj]]'
p1640
S'head'
p1641
S'of'
p1642
tp1643
F0.001098901098901099
s(S'[[det]]'
p1644
S'page'
p1645
S'at'
p1646
tp1647
F0.0005494505494505495
s(S'[[adj]]'
p1648
S'work'
p1649
S'at'
p1650
tp1651
F0.0005494505494505495
s(S'to'
p1652
S'work'
p1653
S'among'
p1654
tp1655
F0.0005494505494505495
s(S'when'
p1656
S'won'
p1657
S'in'
p1658
tp1659
F0.0005494505494505495
s(S'then'
p1660
S'moved'
p1661
S'[[det]]'
p1662
tp1663
F0.0005494505494505495
s(S'who'
p1664
S'moved'
p1665
S'from'
p1666
tp1667
F0.0005494505494505495
s(g886
g648
g649
tp1668
F0.0005494505494505495
s(S'became'
p1669
S'head'
p1670
S'of'
p1671
tp1672
F0.0005494505494505495
s(S'becoming'
p1673
S'president'
p1674
S'of'
p1675
tp1676
F0.0005494505494505495
s(S'become'
p1677
S'head'
p1678
S'at'
p1679
tp1680
F0.0005494505494505495
s(S'was'
p1681
S'endorsed'
p1682
S'by'
p1683
tp1684
F0.0005494505494505495
s(S'became'
p1685
S'president'
p1686
S'[[con]]'
p1687
tp1688
F0.0005494505494505495
s(S'[[det]]'
p1689
S'member'
p1690
S'on'
p1691
tp1692
F0.0005494505494505495
s(S'[[adj]]'
p1693
S'candidate'
p1694
S'[[det]]'
p1695
tp1696
F0.0005494505494505495
s(S'held'
p1697
S'positions'
p1698
S'at'
p1699
tp1700
F0.0027472527472527475
s(S'help'
p1701
S'establish'
p1702
S'[[det]]'
p1703
tp1704
F0.0005494505494505495
s(S'[[con]]'
p1705
S'rejoined'
p1706
S'[[det]]'
p1707
tp1708
F0.0005494505494505495
s(S'[[det]]'
p1709
S'patron'
p1710
S'[[det]]'
p1711
tp1712
F0.0005494505494505495
s(S'has'
p1713
S'left'
p1714
S'[[det]]'
p1715
tp1716
F0.0005494505494505495
s(S'[[det]]'
p1717
S'candidate'
p1718
S'of'
p1719
tp1720
F0.0027472527472527475
s(S'then'
p1721
S'served'
p1722
S'for'
p1723
tp1724
F0.0005494505494505495
s(S'was'
p1725
S'cofounder'
p1726
S'of'
p1727
tp1728
F0.0005494505494505495
s(S'until'
p1729
S'joining'
p1730
S'[[det]]'
p1731
tp1732
F0.0005494505494505495
s(S'[[det]]'
p1733
S'group'
p1734
S'for'
p1735
tp1736
F0.0005494505494505495
s(S'announced'
p1737
g1211
g940
tp1738
F0.0005494505494505495
s(S'[[con]]'
p1739
S'then'
p1740
S'joined'
p1741
tp1742
F0.0005494505494505495
s(S'[[con]]'
p1743
S'appointed'
p1744
S'as'
p1745
tp1746
F0.0005494505494505495
s(S'[[mod]]'
p1747
S'join'
p1748
S'[[det]]'
p1749
tp1750
F0.0016483516483516484
s(S'be'
p1751
S'involved'
p1752
S'with'
p1753
tp1754
F0.0005494505494505495
s(S'just'
p1755
S'left'
p1756
S'for'
p1757
tp1758
F0.0005494505494505495
s(S'[[adj]]'
p1759
S'president'
p1760
S'[[con]]'
p1761
tp1762
F0.0005494505494505495
s(S'later'
p1763
S'served'
p1764
S'on'
p1765
tp1766
F0.0005494505494505495
s(S'candidate'
p1767
S'member'
p1768
S'[[det]]'
p1769
tp1770
F0.0005494505494505495
s(S'also'
p1771
S'represented'
p1772
S'against'
p1773
tp1774
F0.0005494505494505495
s(S'have'
p1775
S'joined'
p1776
S'[[det]]'
p1777
tp1778
F0.0005494505494505495
s(S'was'
p1779
S'candidate'
p1780
S'[[det]]'
p1781
tp1782
F0.0005494505494505495
s(S'done'
p1783
S'work'
p1784
S'for'
p1785
tp1786
F0.0005494505494505495
s(S'is'
p1787
S'chairman'
p1788
S'[[det]]'
p1789
tp1790
F0.0005494505494505495
s(S'also'
p1791
S'president'
p1792
S'[[con]]'
p1793
tp1794
F0.0005494505494505495
s(S'had'
p1795
S'joined'
p1796
S'side'
p1797
tp1798
F0.0005494505494505495
s(S'be'
p1799
S'appointed'
p1800
S'to'
p1801
tp1802
F0.0005494505494505495
s(S'[[det]]'
p1803
S'member'
p1804
S'as'
p1805
tp1806
F0.0005494505494505495
s(S'been'
p1807
S'involved'
p1808
S'at'
p1809
tp1810
F0.0005494505494505495
s(g225
S'leadership'
p1811
S'of'
p1812
tp1813
F0.0005494505494505495
s(S'where'
p1814
S'joined'
p1815
S'[[det]]'
p1816
tp1817
F0.0005494505494505495
s(S'[[con]]'
p1818
S'formed'
p1819
S'[[det]]'
p1820
tp1821
F0.0005494505494505495
s(S'became'
p1822
S'involved'
p1823
S'for'
p1824
tp1825
F0.0005494505494505495
s(S'became'
p1826
S'chair'
p1827
S'of'
p1828
tp1829
F0.0005494505494505495
s(S'[[adj]]'
p1830
S'founders'
p1831
S'of'
p1832
tp1833
F0.0005494505494505495
s(S'become'
p1834
S'president'
p1835
S'of'
p1836
tp1837
F0.0005494505494505495
s(S'[[adj]]'
p1838
S'campaign'
p1839
S'for'
p1840
tp1841
F0.0005494505494505495
s(S'was'
p1842
S'elected'
p1843
S'joining'
p1844
tp1845
F0.0005494505494505495
s(S'[[det]]'
p1846
S'secretary'
p1847
S'at'
p1848
tp1849
F0.0005494505494505495
s(S'[[det]]'
p1850
S'founder'
p1851
S'[[det]]'
p1852
tp1853
F0.0005494505494505495
s(S'[[adj]]'
p1854
S'elected'
p1855
S'for'
p1856
tp1857
F0.0005494505494505495
s(S'was'
p1858
S'joined'
p1859
S'on'
p1860
tp1861
F0.0005494505494505495
s(S'[[adj]]'
p1862
S'spokesman'
p1863
S'for'
p1864
tp1865
F0.0005494505494505495
s(S'who'
p1866
S'served'
p1867
S'[[con]]'
p1868
tp1869
F0.0005494505494505495
s(S'[[mod]]'
p1870
S'work'
p1871
S'at'
p1872
tp1873
F0.0005494505494505495
s(g551
g552
S'member'
p1874
tp1875
F0.002197802197802198
s(S'became'
p1876
S'involved'
p1877
S'with'
p1878
tp1879
F0.0005494505494505495
s(S'[[num]]'
p1880
S'members'
p1881
S'[[det]]'
p1882
tp1883
F0.0005494505494505495
s(S'was'
p1884
S'member'
p1885
S'at'
p1886
tp1887
F0.0005494505494505495
s(S'was'
p1888
S'replaced'
p1889
S'as'
p1890
tp1891
F0.0005494505494505495
s(S'[[adj]]'
p1892
S'district'
p1893
S'to'
p1894
tp1895
F0.0005494505494505495
s(g330
g331
S'member'
p1896
tp1897
F0.0005494505494505495
s(S'is'
p1898
S'head'
p1899
S'at'
p1900
tp1901
F0.0005494505494505495
s(S'[[adj]]'
p1902
S'chair'
p1903
S'of'
p1904
tp1905
F0.0005494505494505495
s(S'also'
p1906
S'named'
p1907
S'in'
p1908
tp1909
F0.0005494505494505495
s(S'[[adj]]'
p1910
S'party'
p1911
g77
tp1912
F0.0005494505494505495
s(S'for'
p1913
S'representing'
p1914
S'[[det]]'
p1915
tp1916
F0.0005494505494505495
s(S'also'
p1917
S'chosen'
p1918
S'by'
p1919
tp1920
F0.0005494505494505495
s(S'[[adj]]'
p1921
S'member'
p1922
S'of'
p1923
tp1924
F0.005494505494505495
s(S'elected'
p1925
S'chairman'
p1926
S'[[det]]'
p1927
tp1928
F0.0005494505494505495
s(S'sat'
p1929
S'as'
p1930
S'[[det]]'
p1931
tp1932
F0.0005494505494505495
s(S'as'
p1933
S'[[det]]'
p1934
S'member'
p1935
tp1936
F0.015934065934065933
s(S'had'
p1937
S'held'
p1938
S'positions'
p1939
tp1940
F0.0005494505494505495
s(S'also'
p1941
S'serves'
p1942
S'for'
p1943
tp1944
F0.0005494505494505495
s(S'later'
p1945
S'represented'
p1946
S'in'
p1947
tp1948
F0.0005494505494505495
s(g1160
g1161
S'of'
p1949
tp1950
F0.001098901098901099
s(S'elected'
p1951
S'[[adj]]'
p1952
S'secretary'
p1953
tp1954
F0.0005494505494505495
s(S'twice'
p1955
S'served'
p1956
S'as'
p1957
tp1958
F0.0005494505494505495
s(S'[[det]]'
p1959
S'leader'
p1960
S'to'
p1961
tp1962
F0.0005494505494505495
s(S'later'
p1963
S'joined'
p1964
S'at'
p1965
tp1966
F0.0005494505494505495
s(S'[[adj]]'
p1967
S'wing'
p1968
S'of'
p1969
tp1970
F0.0005494505494505495
s(S'served'
p1971
S'as'
p1972
S'leader'
p1973
tp1974
F0.001098901098901099
s(g225
S'bid'
p1975
S'to'
p1976
tp1977
F0.001098901098901099
s(g38
g39
S'member'
p1978
tp1979
F0.0005494505494505495
s(S'[[con]]'
p1980
S'renamed'
p1981
S'[[det]]'
p1982
tp1983
F0.0005494505494505495
s(S'to'
p1984
S'join'
p1985
S'[[adj]]'
p1986
tp1987
F0.001098901098901099
s(S'elected'
p1988
S'as'
p1989
S'leader'
p1990
tp1991
F0.0005494505494505495
s(S'[[pro]]'
p1992
S'to'
p1993
S'join'
p1994
tp1995
F0.0005494505494505495
s(S'[[con]]'
p1996
S'appointed'
p1997
S'to'
p1998
tp1999
F0.0005494505494505495
s(S'where'
p2000
S'served'
p2001
S'with'
p2002
tp2003
F0.0005494505494505495
s(S'[[det]]'
p2004
S'seat'
p2005
S'by'
p2006
tp2007
F0.0005494505494505495
s(S'[[det]]'
p2008
S'leader'
p2009
S'for'
p2010
tp2011
F0.0005494505494505495
s(g1911
g77
g78
tp2012
F0.0005494505494505495
s(S'later'
p2013
S'entered'
p2014
S'[[det]]'
p2015
tp2016
F0.0005494505494505495
s(S'[[det]]'
p2017
S'[[adj]]'
p2018
S'party'
p2019
tp2020
F0.001098901098901099
s(S'also'
p2021
S'joined'
p2022
S'[[det]]'
p2023
tp2024
F0.0005494505494505495
s(S'to'
p2025
S'lead'
p2026
S'in'
p2027
tp2028
F0.0005494505494505495
s(S'held'
p2029
S'positions'
p2030
S'[[con]]'
p2031
tp2032
F0.0016483516483516484
s(S'to'
p2033
S'represent'
p2034
S'[[det]]'
p2035
tp2036
F0.0005494505494505495
s(S'[[con]]'
p2037
S'remained'
p2038
S'at'
p2039
tp2040
F0.0005494505494505495
s(S'to'
p2041
S'work'
p2042
S'[[det]]'
p2043
tp2044
F0.0005494505494505495
s(S'has'
p2045
S'served'
p2046
S'in'
p2047
tp2048
F0.0005494505494505495
s(S'also'
p2049
S'nominated'
p2050
S'as'
p2051
tp2052
F0.0005494505494505495
s(S'has'
p2053
S'created'
p2054
S'for'
p2055
tp2056
F0.0005494505494505495
s(S'[[adj]]'
p2057
S'served'
p2058
S'as'
p2059
tp2060
F0.0005494505494505495
s(S'made'
p2061
S'head'
p2062
S'at'
p2063
tp2064
F0.0005494505494505495
s(S'to'
p2065
S'work'
p2066
S'at'
p2067
tp2068
F0.0005494505494505495
s(S'served'
p2069
S'as'
p2070
S'[[det]]'
p2071
tp2072
F0.00989010989010989
s(S'is'
p2073
S'head'
p2074
S'of'
p2075
tp2076
F0.0005494505494505495
s(S'was'
p2077
S'named'
p2078
S'[[det]]'
p2079
tp2080
F0.0005494505494505495
s(S'that'
p2081
S'won'
p2082
S'[[prp]]'
p2083
tp2084
F0.0005494505494505495
s(S'had'
p2085
S'represented'
p2086
S'[[det]]'
p2087
tp2088
F0.0005494505494505495
s(S'then'
p2089
S'served'
p2090
S'with'
p2091
tp2092
F0.0005494505494505495
s(S'to'
p2093
S'members'
p2094
S'of'
p2095
tp2096
F0.0005494505494505495
s(S'to'
p2097
S'lead'
p2098
S'[[det]]'
p2099
tp2100
F0.0038461538461538464
s(S'member'
p2101
S'representing'
p2102
S'[[det]]'
p2103
tp2104
F0.0005494505494505495
s(S'[[con]]'
p2105
S'served'
p2106
S'as'
p2107
tp2108
F0.001098901098901099
s(S'was'
p2109
S'head'
p2110
S'at'
p2111
tp2112
F0.0005494505494505495
s(S'has'
p2113
S'served'
p2114
S'representing'
p2115
tp2116
F0.0005494505494505495
s(S'been'
p2117
S'appointed'
p2118
S'at'
p2119
tp2120
F0.0005494505494505495
s(S'[[con]]'
p2121
S'cofounder'
p2122
S'of'
p2123
tp2124
F0.0005494505494505495
s(S'who'
p2125
S'left'
p2126
S'[[det]]'
p2127
tp2128
F0.0005494505494505495
s(g400
g401
S'[[det]]'
p2129
tp2130
F0.001098901098901099
s(S'[[con]]'
p2131
S'head'
p2132
S'of'
p2133
tp2134
F0.0005494505494505495
s(S'was'
p2135
S'defeated'
p2136
S'from'
p2137
tp2138
F0.0005494505494505495
s(S'was'
p2139
S'represented'
p2140
S'for'
p2141
tp2142
F0.0005494505494505495
s(S'to'
p2143
S'run'
p2144
S'as'
p2145
tp2146
F0.0005494505494505495
s(S'currently'
p2147
S'serves'
p2148
S'[[con]]'
p2149
tp2150
F0.0005494505494505495
s(S'[[det]]'
p2151
S'representative'
p2152
S'of'
p2153
tp2154
F0.0005494505494505495
s(S'[[det]]'
p2155
S'president'
p2156
S'[[det]]'
p2157
tp2158
F0.0005494505494505495
s(S'[[adj]]'
p2159
S'candidate'
p2160
S'as'
p2161
tp2162
F0.0005494505494505495
s(S'has'
p2163
S'remained'
p2164
S'[[adj]]'
p2165
tp2166
F0.0005494505494505495
s(S'was'
p2167
S'member'
p2168
S'of'
p2169
tp2170
F0.0005494505494505495
s(S'replaced'
p2171
S'as'
p2172
S'[[det]]'
p2173
tp2174
F0.0005494505494505495
s(S'[[adj]]'
p2175
S'representative'
p2176
S'[[det]]'
p2177
tp2178
F0.0005494505494505495
s(S'has'
p2179
S'held'
p2180
S'[[adj]]'
p2181
tp2182
F0.002197802197802198
s(S'left'
p2183
S'to'
p2184
S'form'
p2185
tp2186
F0.001098901098901099
s(S'was'
p2187
S'appointed'
p2188
S'when'
p2189
tp2190
F0.0005494505494505495
s(S'[[det]]'
p2191
S'member'
p2192
g225
tp2193
F0.0005494505494505495
s(S'currently'
p2194
S'serves'
p2195
S'[[det]]'
p2196
tp2197
F0.0005494505494505495
s(S'[[det]]'
p2198
S'party'
p2199
g225
tp2200
F0.0005494505494505495
s(S'to'
p2201
S'organise'
p2202
S'[[det]]'
p2203
tp2204
F0.0005494505494505495
s(S'as'
p2205
S'[[det]]'
p2206
S'chairman'
p2207
tp2208
F0.0005494505494505495
s(S'has'
p2209
S'served'
p2210
S'before'
p2211
tp2212
F0.0005494505494505495
s(S'resigned'
p2213
S'as'
p2214
S'leader'
p2215
tp2216
F0.0005494505494505495
s(S'is'
p2217
S'involved'
p2218
S'in'
p2219
tp2220
F0.0005494505494505495
s(S'bid'
p2221
S'to'
p2222
g1033
tp2223
F0.0016483516483516484
s(S'is'
p2224
S'member'
p2225
S'of'
p2226
tp2227
F0.0005494505494505495
s(S'also'
p2228
S'represented'
p2229
S'on'
p2230
tp2231
F0.0005494505494505495
s(S'[[adj]]'
p2232
S'candidate'
p2233
S'[[con]]'
p2234
tp2235
F0.0016483516483516484
s(S'was'
p2236
S'head'
p2237
S'[[det]]'
p2238
tp2239
F0.0005494505494505495
s(S'have'
p2240
S'left'
p2241
S'[[det]]'
p2242
tp2243
F0.0005494505494505495
s(S'[[adj]]'
p2244
S'representative'
p2245
S'[[con]]'
p2246
tp2247
F0.0005494505494505495
s(S'then'
p2248
S'president'
p2249
S'[[det]]'
p2250
tp2251
F0.0005494505494505495
s(S'then'
p2252
S'joined'
p2253
S'then'
p2254
tp2255
F0.0005494505494505495
s(S'district'
p2256
S'as'
p2257
S'[[det]]'
p2258
tp2259
F0.001098901098901099
s(S'has'
p2260
S'represented'
p2261
S'as'
p2262
tp2263
F0.0005494505494505495
s(S'who'
p2264
S'joined'
p2265
S'from'
p2266
tp2267
F0.0005494505494505495
s(S'also'
p2268
S'served'
p2269
S'until'
p2270
tp2271
F0.0005494505494505495
s(S'again'
p2272
S'appointed'
p2273
S'of'
p2274
tp2275
F0.0005494505494505495
s(S'by'
p2276
S'joining'
p2277
S'[[det]]'
p2278
tp2279
F0.0005494505494505495
s(S'[[num]]'
p2280
S'campaign'
p2281
S'for'
p2282
tp2283
F0.0005494505494505495
s(S'then'
p2284
S'president'
p2285
S'of'
p2286
tp2287
F0.0005494505494505495
s(S'[[det]]'
p2288
S'chair'
p2289
S'on'
p2290
tp2291
F0.0005494505494505495
s(S'ran'
p2292
S'as'
p2293
S'[[det]]'
p2294
tp2295
F0.0027472527472527475
s(S'elected'
p2296
g1933
g1934
tp2297
F0.006043956043956044
s(S'[[det]]'
p2298
S'representative'
p2299
S'on'
p2300
tp2301
F0.0005494505494505495
s(S'then'
p2302
S'moved'
p2303
S'then'
p2304
tp2305
F0.0005494505494505495
s(S'had'
p2306
S'left'
p2307
S'[[con]]'
p2308
tp2309
F0.0005494505494505495
s(g225
S'page'
p2310
S'on'
p2311
tp2312
F0.0005494505494505495
s(S'[[mod]]'
p2313
S'run'
p2314
S'as'
p2315
tp2316
F0.0005494505494505495
s(S'then'
p2317
S'defeated'
p2318
S'at'
p2319
tp2320
F0.0005494505494505495
s(S'to'
p2321
S'form'
p2322
S'[[det]]'
p2323
tp2324
F0.001098901098901099
s(S'was'
p2325
S'chosen'
p2326
S'at'
p2327
tp2328
F0.0005494505494505495
s(S'born'
p2329
g411
g412
tp2330
F0.0005494505494505495
s(S'has'
p2331
S'served'
p2332
S'until'
p2333
tp2334
F0.0005494505494505495
s(S'[[adj]]'
p2335
S'chairman'
p2336
S'at'
p2337
tp2338
F0.0005494505494505495
s(S'again'
p2339
S'served'
p2340
S'to'
p2341
tp2342
F0.0005494505494505495
s(S'first'
p2343
S'served'
p2344
S'with'
p2345
tp2346
F0.0005494505494505495
s(S'was'
p2347
g550
g551
tp2348
F0.008791208791208791
s(S'[[con]]'
p2349
S'graduated'
p2350
S'from'
p2351
tp2352
F0.0005494505494505495
s(S'[[adj]]'
p2353
S'head'
p2354
S'at'
p2355
tp2356
F0.0005494505494505495
s(S'has'
p2357
S'served'
p2358
S'[[det]]'
p2359
tp2360
F0.0005494505494505495
s(S'[[adj]]'
p2361
S'positions'
p2362
S'for'
p2363
tp2364
F0.0005494505494505495
s(S'served'
p2365
S'for'
p2366
S'[[det]]'
p2367
tp2368
F0.0005494505494505495
s(S'later'
p2369
S'joined'
p2370
S'[[det]]'
p2371
tp2372
F0.0005494505494505495
s(S'was'
p2373
S'joining'
p2374
S'[[det]]'
p2375
tp2376
F0.0005494505494505495
s(S'was'
p2377
S'founder'
p2378
S'of'
p2379
tp2380
F0.0005494505494505495
s(S'then'
p2381
S'moved'
p2382
S'back'
p2383
tp2384
F0.0005494505494505495
s(S'[[adj]]'
p2385
S'position'
p2386
S'as'
p2387
tp2388
F0.0005494505494505495
s(S'later'
p2389
S'left'
p2390
S'[[det]]'
p2391
tp2392
F0.0005494505494505495
s(S'was'
p2393
S'nominated'
p2394
S'to'
p2395
tp2396
F0.0005494505494505495
s(S'has'
p2397
S'represented'
p2398
S'[[con]]'
p2399
tp2400
F0.0005494505494505495
s(g592
g610
S'[[det]]'
p2401
tp2402
F0.001098901098901099
s(S'had'
p2403
S'led'
p2404
S'[[det]]'
p2405
tp2406
F0.0005494505494505495
s(S'been'
p2407
S'nominated'
p2408
S'by'
p2409
tp2410
F0.0005494505494505495
s(S'candidate'
p2411
S'[[con]]'
p2412
S'again'
p2413
tp2414
F0.0005494505494505495
s(S'then'
p2415
S'left'
p2416
S'[[con]]'
p2417
tp2418
F0.0005494505494505495
s(S'[[mod]]'
p2419
S'join'
p2420
S'up'
p2421
tp2422
F0.0005494505494505495
s(S'became'
p2423
S'chairman'
p2424
S'on'
p2425
tp2426
F0.0005494505494505495
s(S'[[adj]]'
p2427
S'group'
p2428
S'of'
p2429
tp2430
F0.0005494505494505495
s(S'been'
p2431
S'recruited'
p2432
S'by'
p2433
tp2434
F0.0005494505494505495
s(g1359
g1360
S'elected'
p2435
tp2436
F0.0005494505494505495
s(g1780
g1781
S'[[adj]]'
p2437
tp2438
F0.0005494505494505495
s(S'later'
p2439
S'appointed'
p2440
S'[[pro]]'
p2441
tp2442
F0.0005494505494505495
s(S'[[num]]'
p2443
S'representing'
p2444
S'[[det]]'
p2445
tp2446
F0.0005494505494505495
s(S'is'
p2447
S'appointed'
p2448
S'[[con]]'
p2449
tp2450
F0.0005494505494505495
s(S'[[con]]'
p2451
S'cofounded'
p2452
S'[[det]]'
p2453
tp2454
F0.0005494505494505495
s(S'became'
p2455
S'member'
p2456
S'of'
p2457
tp2458
F0.0005494505494505495
s(S'also'
p2459
S'served'
p2460
S'to'
p2461
tp2462
F0.0005494505494505495
s(g1127
g1128
S'by'
p2463
tp2464
F0.0005494505494505495
s(S'[[num]]'
p2465
S'served'
p2466
S'on'
p2467
tp2468
F0.0005494505494505495
s(S'[[con]]'
p2469
S'member'
p2470
S'of'
p2471
tp2472
F0.0005494505494505495
s(S'was'
p2473
S'affiliated'
p2474
S'[[con]]'
p2475
tp2476
F0.0005494505494505495
s(S'[[adj]]'
p2477
S'member'
p2478
S'for'
p2479
tp2480
F0.001098901098901099
s(S'then'
p2481
S'appointed'
p2482
S'[[adj]]'
p2483
tp2484
F0.0005494505494505495
s(S'to'
p2485
S'represent'
p2486
S'[[num]]'
p2487
tp2488
F0.0005494505494505495
s(S'has'
p2489
S'served'
p2490
S'for'
p2491
tp2492
F0.0005494505494505495
s(S'was'
p2493
g1577
g1578
tp2494
F0.008241758241758242
s(S'was'
p2495
S'won'
p2496
S'for'
p2497
tp2498
F0.0005494505494505495
s(S'became'
p2499
S'member'
p2500
S'[[det]]'
p2501
tp2502
F0.0005494505494505495
s(S'[[det]]'
p2503
S'chair'
p2504
S'for'
p2505
tp2506
F0.0005494505494505495
s(S'also'
p2507
S'served'
p2508
S'[[adj]]'
p2509
tp2510
F0.0005494505494505495
s(S'been'
p2511
S'affiliated'
p2512
S'with'
p2513
tp2514
F0.0005494505494505495
s(S'[[con]]'
p2515
S'represents'
p2516
S'[[det]]'
p2517
tp2518
F0.0005494505494505495
s(S'had'
p2519
S'resigned'
p2520
S'as'
p2521
tp2522
F0.0005494505494505495
s(S'has'
p2523
S'remained'
p2524
S'with'
p2525
tp2526
F0.0005494505494505495
s(g1104
g101
g102
tp2527
F0.0005494505494505495
s(S'was'
p2528
S'appointed'
p2529
S'[[con]]'
p2530
tp2531
F0.0005494505494505495
s(S'was'
p2532
S'joined'
p2533
S'at'
p2534
tp2535
F0.0005494505494505495
s(g979
g980
S'served'
p2536
tp2537
F0.001098901098901099
s(S'[[det]]'
p2538
S'served'
p2539
S'in'
p2540
tp2541
F0.0005494505494505495
s(S'[[num]]'
p2542
S'led'
p2543
S'[[det]]'
p2544
tp2545
F0.0005494505494505495
s(S'soon'
p2546
S'left'
p2547
S'to'
p2548
tp2549
F0.0005494505494505495
s(S'[[num]]'
p2550
S'president'
p2551
S'of'
p2552
tp2553
F0.0005494505494505495
s(S'then'
p2554
S'elected'
p2555
S'as'
p2556
tp2557
F0.0005494505494505495
s(S'[[det]]'
p2558
S'cofounder'
p2559
S'[[det]]'
p2560
tp2561
F0.0005494505494505495
s(S'[[det]]'
p2562
g427
g428
tp2563
F0.0005494505494505495
s(S'[[det]]'
p2564
S'work'
p2565
S'for'
p2566
tp2567
F0.0005494505494505495
s(S'been'
p2568
S'appointed'
p2569
S'of'
p2570
tp2571
F0.0005494505494505495
s(S'been'
p2572
S'named'
p2573
S'to'
p2574
tp2575
F0.0005494505494505495
s(S'[[det]]'
p2576
S'secretary'
p2577
S'[[con]]'
p2578
tp2579
F0.0005494505494505495
s(S'supported'
p2580
S'[[adj]]'
p2581
S'bid'
p2582
tp2583
F0.0005494505494505495
s(S'[[con]]'
p2584
S'won'
p2585
S'with'
p2586
tp2587
F0.0005494505494505495
s(S'is'
p2588
S'founder'
p2589
S'[[con]]'
p2590
tp2591
F0.0005494505494505495
s(S'been'
p2592
S'president'
p2593
S'of'
p2594
tp2595
F0.0005494505494505495
s(S'currently'
p2596
S'serves'
p2597
S'on'
p2598
tp2599
F0.0005494505494505495
s(S'was'
p2600
S'expelled'
p2601
S'from'
p2602
tp2603
F0.0005494505494505495
s(S'member'
p2604
S'[[con]]'
p2605
S'leader'
p2606
tp2607
F0.0005494505494505495
s(S'then'
p2608
S'joined'
p2609
S'with'
p2610
tp2611
F0.0005494505494505495
s(S'currently'
p2612
S'serves'
p2613
S'for'
p2614
tp2615
F0.0005494505494505495
s(S'be'
p2616
S'appointed'
p2617
S'of'
p2618
tp2619
F0.0005494505494505495
s(S'also'
p2620
S'named'
p2621
S'[[det]]'
p2622
tp2623
F0.0005494505494505495
s(S'was'
p2624
S'member'
p2625
S'[[con]]'
p2626
tp2627
F0.0005494505494505495
s(S'was'
p2628
S'named'
p2629
S'in'
p2630
tp2631
F0.0005494505494505495
s(S'member'
p2632
g113
g114
tp2633
F0.0005494505494505495
s(S'again'
p2634
S'named'
p2635
S'in'
p2636
tp2637
F0.0005494505494505495
s(S'[[con]]'
p2638
S'joined'
p2639
S'of'
p2640
tp2641
F0.0005494505494505495
s(S'made'
p2642
S'head'
p2643
S'of'
p2644
tp2645
F0.0005494505494505495
s(S'was'
p2646
S'suspended'
p2647
S'after'
p2648
tp2649
F0.0005494505494505495
s(S'then'
p2650
S'appointed'
p2651
S'[[pro]]'
p2652
tp2653
F0.0005494505494505495
s(S'founded'
p2654
g2017
g2018
tp2655
F0.001098901098901099
s(g126
g127
S'leader'
p2656
tp2657
F0.0016483516483516484
s(S'also'
p2658
S'represented'
p2659
S'to'
p2660
tp2661
F0.0005494505494505495
s(S'[[adj]]'
p2662
S'established'
p2663
S'[[pro]]'
p2664
tp2665
F0.0005494505494505495
s(S'[[con]]'
p2666
S'was'
p2667
S'elected'
p2668
tp2669
F0.0032967032967032967
s(S'[[adj]]'
p2670
S'candidate'
p2671
S'at'
p2672
tp2673
F0.0005494505494505495
s(S'served'
p2674
S'[[con]]'
p2675
S'[[det]]'
p2676
tp2677
F0.0032967032967032967
s(S'was'
p2678
S'entered'
p2679
S'at'
p2680
tp2681
F0.0005494505494505495
s(S'[[adj]]'
p2682
S'founder'
p2683
S'[[con]]'
p2684
tp2685
F0.0005494505494505495
s(S'[[det]]'
p2686
S'member'
p2687
S'who'
p2688
tp2689
F0.0005494505494505495
s(S'[[pro]]'
p2690
S'won'
p2691
S'[[num]]'
p2692
tp2693
F0.0005494505494505495
s(g2222
g1033
g1034
tp2694
F0.0016483516483516484
s(g225
S'party'
p2695
S'[[det]]'
p2696
tp2697
F0.0005494505494505495
s(S'again'
p2698
S'represented'
p2699
S'[[det]]'
p2700
tp2701
F0.0005494505494505495
s(g967
g968
S'[[con]]'
p2702
tp2703
F0.001098901098901099
s(S'has'
p2704
S'founded'
p2705
S'[[det]]'
p2706
tp2707
F0.0005494505494505495
s(S'[[det]]'
p2708
S'leaders'
p2709
S'of'
p2710
tp2711
F0.0005494505494505495
s(g637
g638
S'of'
p2712
tp2713
F0.0027472527472527475
s(S'[[num]]'
p2714
S'member'
p2715
S'of'
p2716
tp2717
F0.0005494505494505495
s(S'had'
p2718
S'served'
p2719
S'[[det]]'
p2720
tp2721
F0.0005494505494505495
s(S'[[mod]]'
p2722
S'join'
p2723
S'at'
p2724
tp2725
F0.0005494505494505495
s(S'been'
p2726
S'named'
p2727
S'of'
p2728
tp2729
F0.0005494505494505495
s(S'[[adj]]'
p2730
S'official'
p2731
S'of'
p2732
tp2733
F0.0005494505494505495
s(S'also'
p2734
S'represented'
p2735
S'while'
p2736
tp2737
F0.0005494505494505495
s(S'is'
p2738
S'president'
p2739
S'of'
p2740
tp2741
F0.0005494505494505495
s(S'also'
p2742
S'serves'
p2743
S'on'
p2744
tp2745
F0.0005494505494505495
s(S'been'
p2746
S'appointed'
p2747
S'as'
p2748
tp2749
F0.0005494505494505495
s(S'[[adj]]'
p2750
S'members'
p2751
S'[[det]]'
p2752
tp2753
F0.0005494505494505495
s(S'[[det]]'
p2754
S'head'
p2755
S'in'
p2756
tp2757
F0.0005494505494505495
s(S'[[con]]'
p2758
S'represented'
p2759
S'[[det]]'
p2760
tp2761
F0.001098901098901099
s(S'has'
p2762
S'run'
p2763
S'under'
p2764
tp2765
F0.0005494505494505495
s(S'been'
p2766
S'named'
p2767
S'as'
p2768
tp2769
F0.0005494505494505495
s(S'[[con]]'
p2770
S'served'
p2771
S'in'
p2772
tp2773
F0.001098901098901099
s(g1578
g1579
S'member'
p2774
tp2775
F0.002197802197802198
s(S'then'
p2776
S'joined'
p2777
S'[[con]]'
p2778
tp2779
F0.0005494505494505495
s(S'also'
p2780
S'named'
p2781
S'to'
p2782
tp2783
F0.0005494505494505495
s(S'elected'
p2784
S'[[adj]]'
p2785
S'member'
p2786
tp2787
F0.0005494505494505495
s(S'[[det]]'
p2788
S'position'
p2789
S'at'
p2790
tp2791
F0.0005494505494505495
s(S'had'
p2792
S'served'
p2793
S'with'
p2794
tp2795
F0.0005494505494505495
s(S'is'
p2796
S'founder'
p2797
S'of'
p2798
tp2799
F0.0005494505494505495
s(S'had'
p2800
S'left'
p2801
S'[[adj]]'
p2802
tp2803
F0.0005494505494505495
s(S'[[det]]'
p2804
S'leader'
p2805
S'of'
p2806
tp2807
F0.0038461538461538464
s(S'born'
p2808
g1159
g1160
tp2809
F0.001098901098901099
s(S'was'
p2810
S'chairman'
p2811
S'on'
p2812
tp2813
F0.0005494505494505495
s(S'elected'
p2814
S'member'
p2815
S'of'
p2816
tp2817
F0.001098901098901099
s(S'been'
p2818
S'named'
p2819
S'[[con]]'
p2820
tp2821
F0.0005494505494505495
s(S'was'
p2822
S'[[det]]'
p2823
S'member'
p2824
tp2825
F0.0005494505494505495
s(S'[[con]]'
p2826
S'left'
p2827
S'[[det]]'
p2828
tp2829
F0.0005494505494505495
s(S'then'
p2830
S'led'
p2831
S'[[det]]'
p2832
tp2833
F0.0005494505494505495
s(S'been'
p2834
S'appointed'
p2835
S'[[con]]'
p2836
tp2837
F0.0005494505494505495
s(S'then'
p2838
S'appointed'
p2839
S'at'
p2840
tp2841
F0.0005494505494505495
s(g225
S'page'
p2842
S'at'
p2843
tp2844
F0.0005494505494505495
s(S'[[adj]]'
p2845
S'work'
p2846
S'in'
p2847
tp2848
F0.0005494505494505495
s(S'had'
p2849
S'served'
p2850
S'on'
p2851
tp2852
F0.0005494505494505495
s(S'also'
p2853
S'cofounded'
p2854
S'[[con]]'
p2855
tp2856
F0.0005494505494505495
s(S'was'
p2857
S'chosen'
p2858
S'[[det]]'
p2859
tp2860
F0.0005494505494505495
s(S'has'
p2861
S'led'
p2862
S'[[det]]'
p2863
tp2864
F0.0005494505494505495
s(g296
g297
S'politician'
p2865
tp2866
F0.002197802197802198
s(S'represented'
p2867
g1445
g1446
tp2868
F0.0005494505494505495
s(S'was'
p2869
S'representative'
p2870
S'on'
p2871
tp2872
F0.0005494505494505495
s(S'eventually'
p2873
S'joined'
p2874
S'[[det]]'
p2875
tp2876
F0.0005494505494505495
s(S'candidate'
p2877
S'for'
p2878
S'[[det]]'
p2879
tp2880
F0.0005494505494505495
s(S'again'
p2881
S'named'
p2882
S'by'
p2883
tp2884
F0.0005494505494505495
s(S'as'
p2885
S'member'
p2886
S'[[con]]'
p2887
tp2888
F0.0005494505494505495
s(S'[[det]]'
p2889
S'left'
p2890
S'of'
p2891
tp2892
F0.0005494505494505495
s(S'was'
p2893
S'leading'
p2894
S'[[det]]'
p2895
tp2896
F0.0005494505494505495
s(g1096
g1097
S'of'
p2897
tp2898
F0.0005494505494505495
s(S'later'
p2899
S'moved'
p2900
S'on'
p2901
tp2902
F0.0005494505494505495
s(S'[[con]]'
p2903
S'served'
p2904
S'on'
p2905
tp2906
F0.001098901098901099
s(S'become'
p2907
S'head'
p2908
S'of'
p2909
tp2910
F0.0005494505494505495
s(S'is'
p2911
S'chairman'
p2912
S'of'
p2913
tp2914
F0.0005494505494505495
s(S'was'
p2915
S'appointed'
p2916
S'at'
p2917
tp2918
F0.0005494505494505495
s(g2181
S'positions'
p2919
S'with'
p2920
tp2921
F0.0016483516483516484
s(S'is'
p2922
S'nominated'
p2923
S'by'
p2924
tp2925
F0.0005494505494505495
s(S'graduated'
p2926
g1739
g1740
tp2927
F0.0005494505494505495
s(S'had'
p2928
S'created'
p2929
S'at'
p2930
tp2931
F0.0005494505494505495
s(S'be'
p2932
S'appointed'
p2933
S'at'
p2934
tp2935
F0.0005494505494505495
s(S'joined'
p2936
g2349
g2350
tp2937
F0.0005494505494505495
s(S'then'
p2938
S'rejoined'
p2939
S'[[det]]'
p2940
tp2941
F0.0005494505494505495
s(S'[[det]]'
p2942
S'member'
p2943
S'[[num]]'
p2944
tp2945
F0.0005494505494505495
s(S'was'
p2946
S'appointed'
p2947
S'in'
p2948
tp2949
F0.0005494505494505495
s(S'[[adj]]'
p2950
S'president'
p2951
S'[[det]]'
p2952
tp2953
F0.0005494505494505495
s(S'was'
p2954
g1310
g1311
tp2955
F0.0005494505494505495
s(S'held'
p2956
S'positions'
p2957
S'with'
p2958
tp2959
F0.0016483516483516484
s(S'was'
p2960
S'elected'
p2961
S'again'
p2962
tp2963
F0.0005494505494505495
s(S'in'
p2964
S'control'
p2965
S'of'
p2966
tp2967
F0.0005494505494505495
s(S'left'
p2968
S'[[det]]'
p2969
S'form'
p2970
tp2971
F0.0005494505494505495
s(S'[[adj]]'
p2972
S'group'
p2973
S'[[con]]'
p2974
tp2975
F0.0005494505494505495
s(S'while'
p2976
S'leading'
p2977
S'[[det]]'
p2978
tp2979
F0.0005494505494505495
s(S'be'
p2980
S'named'
p2981
S'of'
p2982
tp2983
F0.0005494505494505495
s(S'won'
p2984
g970
g971
tp2985
F0.002197802197802198
s(S'also'
p2986
S'serves'
p2987
S'as'
p2988
tp2989
F0.0005494505494505495
s(g2581
g2582
S'to'
p2990
tp2991
F0.0005494505494505495
s(S'had'
p2992
S'resigned'
p2993
S'from'
p2994
tp2995
F0.0005494505494505495
s(S'where'
p2996
S'entered'
p2997
S'[[det]]'
p2998
tp2999
F0.0005494505494505495
s(S'has'
p3000
g1697
g1698
tp3001
F0.0032967032967032967
s(S'also'
p3002
S'represented'
p3003
S'[[con]]'
p3004
tp3005
F0.0005494505494505495
s(S'elected'
p3006
S'leader'
p3007
S'of'
p3008
tp3009
F0.001098901098901099
s(S'to'
p3010
S'member'
p3011
S'of'
p3012
tp3013
F0.0005494505494505495
s(S'was'
p3014
S'named'
p3015
S'[[con]]'
p3016
tp3017
F0.0005494505494505495
s(S'also'
p3018
S'involved'
p3019
S'with'
p3020
tp3021
F0.0005494505494505495
s(S'then'
p3022
S'joined'
p3023
S'on'
p3024
tp3025
F0.0005494505494505495
s(S'elected'
p3026
S'[[det]]'
p3027
S'leader'
p3028
tp3029
F0.001098901098901099
s(S'again'
p3030
S'led'
p3031
S'[[det]]'
p3032
tp3033
F0.0005494505494505495
s(S'campaign'
p3034
S'to'
p3035
S'become'
p3036
tp3037
F0.001098901098901099
s(S'later'
p3038
S'appointed'
p3039
S'of'
p3040
tp3041
F0.0005494505494505495
s(S'[[adj]]'
p3042
S'secretary'
p3043
S'in'
p3044
tp3045
F0.0005494505494505495
s(S'been'
p3046
S'named'
p3047
S'[[det]]'
p3048
tp3049
F0.0005494505494505495
s(S'[[adj]]'
p3050
S'appointed'
p3051
S'as'
p3052
tp3053
F0.0005494505494505495
s(S'been'
p3054
S'affiliated'
p3055
S'to'
p3056
tp3057
F0.0005494505494505495
s(S'politician'
p3058
S'[[con]]'
p3059
S'[[adj]]'
p3060
tp3061
F0.0005494505494505495
s(S'[[num]]'
p3062
S'served'
p3063
S'for'
p3064
tp3065
F0.0005494505494505495
s(S'was'
p3066
S'recruited'
p3067
S'to'
p3068
tp3069
F0.0005494505494505495
s(S'[[num]]'
p3070
S'won'
p3071
S'by'
p3072
tp3073
F0.0005494505494505495
s(S'was'
p3074
S'chosen'
p3075
S'for'
p3076
tp3077
F0.0005494505494505495
s(g1889
g1890
S'leader'
p3078
tp3079
F0.001098901098901099
s(S'[[adj]]'
p3080
S'leader'
p3081
S'[[det]]'
p3082
tp3083
F0.0005494505494505495
s(S'was'
p3084
S'chosen'
p3085
S'[[adj]]'
p3086
tp3087
F0.0005494505494505495
s(S'was'
p3088
S'chairman'
p3089
S'at'
p3090
tp3091
F0.0005494505494505495
s(S'formerly'
p3092
S'served'
p3093
S'for'
p3094
tp3095
F0.0005494505494505495
s(S'as'
p3096
S'moved'
p3097
S'to'
p3098
tp3099
F0.0005494505494505495
s(g917
g918
g1295
tp3100
F0.0016483516483516484
s(S'has'
p3101
S'moved'
p3102
S'on'
p3103
tp3104
F0.0005494505494505495
s(S'then'
p3105
S'founded'
p3106
S'for'
p3107
tp3108
F0.0005494505494505495
s(S'later'
p3109
S'named'
p3110
S'of'
p3111
tp3112
F0.0005494505494505495
s(S'[[adj]]'
p3113
S'joining'
p3114
S'[[det]]'
p3115
tp3116
F0.0005494505494505495
s(S'then'
p3117
S'head'
p3118
S'of'
p3119
tp3120
F0.0005494505494505495
s(S'was'
p3121
S'chairman'
p3122
S'in'
p3123
tp3124
F0.0005494505494505495
s(S'then'
p3125
S'named'
p3126
S'[[det]]'
p3127
tp3128
F0.0005494505494505495
s(S'[[adj]]'
p3129
S'representative'
p3130
S'to'
p3131
tp3132
F0.0005494505494505495
s(S'was'
p3133
S'appointed'
p3134
S'[[adj]]'
p3135
tp3136
F0.0005494505494505495
s(S'also'
p3137
S'served'
p3138
S'for'
p3139
tp3140
F0.0005494505494505495
s(S'[[prp]]'
p3141
S'work'
p3142
S'at'
p3143
tp3144
F0.0005494505494505495
s(S'also'
p3145
g594
g595
tp3146
F0.001098901098901099
s(S'then'
p3147
S'joined'
p3148
S'of'
p3149
tp3150
F0.0005494505494505495
s(S'[[det]]'
p3151
S'founders'
p3152
S'of'
p3153
tp3154
F0.0005494505494505495
s(S'was'
p3155
S'president'
p3156
S'[[num]]'
p3157
tp3158
F0.0005494505494505495
s(S'also'
p3159
S'served'
p3160
S'[[con]]'
p3161
tp3162
F0.0016483516483516484
s(S'became'
p3163
S'head'
p3164
S'for'
p3165
tp3166
F0.0005494505494505495
s(S'also'
p3167
S'recruited'
p3168
S'by'
p3169
tp3170
F0.0005494505494505495
s(S'[[num]]'
p3171
S'leaders'
p3172
S'of'
p3173
tp3174
F0.0005494505494505495
s(S'[[det]]'
p3175
S'member'
p3176
S'has'
p3177
tp3178
F0.0005494505494505495
s(S'[[num]]'
p3179
S'represented'
p3180
S'in'
p3181
tp3182
F0.0005494505494505495
s(S'[[det]]'
p3183
S'spokesman'
p3184
S'[[con]]'
p3185
tp3186
F0.0005494505494505495
s(g118
g119
S'[[adj]]'
p3187
tp3188
F0.0005494505494505495
s(S'was'
p3189
S'recruited'
p3190
S'from'
p3191
tp3192
F0.0005494505494505495
s(g823
g824
g1268
tp3193
F0.0005494505494505495
s(S'that'
p3194
S'involved'
p3195
S'[[det]]'
p3196
tp3197
F0.0005494505494505495
s(S'[[con]]'
p3198
S'led'
p3199
S'[[det]]'
p3200
tp3201
F0.0005494505494505495
s(S'resigned'
p3202
S'[[con]]'
p3203
S'joined'
p3204
tp3205
F0.001098901098901099
s(S'represents'
p3206
S'[[con]]'
p3207
S'[[det]]'
p3208
tp3209
F0.0005494505494505495
s(S'[[adj]]'
p3210
S'representative'
p3211
S'of'
p3212
tp3213
F0.0005494505494505495
s(S'then'
p3214
S'moved'
p3215
S'over'
p3216
tp3217
F0.0005494505494505495
s(S'where'
p3218
S'served'
p3219
S'in'
p3220
tp3221
F0.0005494505494505495
s(g2412
g2413
S'elected'
p3222
tp3223
F0.0005494505494505495
s(S'been'
p3224
S'named'
p3225
S'in'
p3226
tp3227
F0.0005494505494505495
s(S'who'
p3228
S'served'
p3229
S'as'
p3230
tp3231
F0.0005494505494505495
s(S'[[det]]'
p3232
S'representative'
p3233
S'[[det]]'
p3234
tp3235
F0.0005494505494505495
s(S'also'
p3236
S'won'
p3237
S'with'
p3238
tp3239
F0.0005494505494505495
s(S'member'
p3240
S'[[con]]'
p3241
S'served'
p3242
tp3243
F0.0016483516483516484
s(S'been'
p3244
S'elected'
p3245
S'[[det]]'
p3246
tp3247
F0.0005494505494505495
s(S'been'
p3248
S'chosen'
p3249
S'at'
p3250
tp3251
F0.0005494505494505495
s(S'succeeded'
p3252
S'as'
p3253
S'[[det]]'
p3254
tp3255
F0.0005494505494505495
s(S'was'
p3256
S'leader'
p3257
S'of'
p3258
tp3259
F0.001098901098901099
s(S'represented'
p3260
S'[[con]]'
p3261
S'[[det]]'
p3262
tp3263
F0.0005494505494505495
s(S'became'
p3264
S'chair'
p3265
S'at'
p3266
tp3267
F0.0005494505494505495
s(g1185
g1186
S'of'
p3268
tp3269
F0.001098901098901099
s(S'became'
p3270
S'affiliated'
p3271
S'with'
p3272
tp3273
F0.0005494505494505495
s(S'was'
p3274
S'involved'
p3275
S'for'
p3276
tp3277
F0.0005494505494505495
s(S'[[con]]'
p3278
S'[[adj]]'
p3279
S'candidate'
p3280
tp3281
F0.001098901098901099
s(S'also'
p3282
S'created'
p3283
S'with'
p3284
tp3285
F0.0005494505494505495
s(S'was'
p3286
S'named'
p3287
S'on'
p3288
tp3289
F0.0005494505494505495
s(S'was'
p3290
S'chosen'
p3291
S'by'
p3292
tp3293
F0.0005494505494505495
s(g225
S'position'
p3294
S'in'
p3295
tp3296
F0.0005494505494505495
s(S'became'
p3297
S'secretary'
p3298
S'at'
p3299
tp3300
F0.0005494505494505495
s(S'being'
p3301
S'recruited'
p3302
S'by'
p3303
tp3304
F0.0005494505494505495
s(S'[[adj]]'
p3305
S'patron'
p3306
S'of'
p3307
tp3308
F0.0005494505494505495
s(S'of'
p3309
S'[[det]]'
p3310
S'party'
p3311
tp3312
F0.0005494505494505495
s(S'member'
p3313
g2666
g2667
tp3314
F0.002197802197802198
s(S'[[adj]]'
p3315
S'control'
p3316
S'of'
p3317
tp3318
F0.0005494505494505495
s(S'with'
p3319
S'joined'
p3320
S'[[det]]'
p3321
tp3322
F0.0005494505494505495
s(S'[[det]]'
p3323
S'member'
p3324
S'to'
p3325
tp3326
F0.0005494505494505495
s(S'larger'
p3327
g1910
g1911
tp3328
F0.0005494505494505495
s(S'as'
p3329
S'[[det]]'
p3330
S'head'
p3331
tp3332
F0.001098901098901099
s(S'also'
p3333
S'involved'
p3334
S'in'
p3335
tp3336
F0.0005494505494505495
s(S'[[adj]]'
p3337
S'representative'
p3338
S'on'
p3339
tp3340
F0.0005494505494505495
s(S'elected'
p3341
g3010
g3011
tp3342
F0.0005494505494505495
s(S'left'
p3343
g1233
g1234
tp3344
F0.0016483516483516484
s(S'was'
p3345
S'reelected'
p3346
S'as'
p3347
tp3348
F0.0005494505494505495
s(S'[[det]]'
p3349
S'founder'
p3350
S'[[con]]'
p3351
tp3352
F0.0005494505494505495
s(g225
S'campaign'
p3353
S'to'
p3354
tp3355
F0.001098901098901099
s(S'[[adj]]'
p3356
S'leader'
p3357
S'in'
p3358
tp3359
F0.0005494505494505495
s(S'as'
p3360
S'member'
p3361
S'[[det]]'
p3362
tp3363
F0.001098901098901099
s(S'was'
p3364
S'affiliated'
p3365
S'with'
p3366
tp3367
F0.0005494505494505495
s(S'also'
p3368
S'named'
p3369
S'at'
p3370
tp3371
F0.0005494505494505495
s(S'[[adj]]'
p3372
S'president'
p3373
S'for'
p3374
tp3375
F0.0005494505494505495
s(S'[[det]]'
p3376
S'secretary'
p3377
S'of'
p3378
tp3379
F0.0005494505494505495
s(S'[[det]]'
p3380
S'founder'
p3381
S'of'
p3382
tp3383
F0.0005494505494505495
s(g119
g3187
S'district'
p3384
tp3385
F0.0005494505494505495
s(S'[[adj]]'
p3386
S'secretary'
p3387
S'[[det]]'
p3388
tp3389
F0.0005494505494505495
s(S'was'
p3390
S'president'
p3391
S'at'
p3392
tp3393
F0.0005494505494505495
s(S'to'
p3394
S'work'
p3395
S'[[adj]]'
p3396
tp3397
F0.0005494505494505495
s(S'stood'
p3398
S'for'
p3399
S'[[det]]'
p3400
tp3401
F0.0005494505494505495
s(S'is'
p3402
S'member'
p3403
S'[[det]]'
p3404
tp3405
F0.0005494505494505495
s(S'of'
p3406
S'[[det]]'
p3407
S'caucus'
p3408
tp3409
F0.0005494505494505495
s(S'member'
p3410
g1256
g1257
tp3411
F0.0005494505494505495
s(S'[[adj]]'
p3412
S'party'
p3413
S'[[det]]'
p3414
tp3415
F0.001098901098901099
s(S'stood'
p3416
S'as'
p3417
S'candidate'
p3418
tp3419
F0.0005494505494505495
s(S'[[det]]'
p3420
S'spokesman'
p3421
S'on'
p3422
tp3423
F0.0005494505494505495
s(S'[[num]]'
p3424
S'served'
p3425
S'in'
p3426
tp3427
F0.0005494505494505495
s(S'[[det]]'
p3428
S'run'
p3429
S'for'
p3430
tp3431
F0.0005494505494505495
s(g2233
g2234
S'was'
p3432
tp3433
F0.001098901098901099
s(S'run'
p3434
S'for'
p3435
S'[[det]]'
p3436
tp3437
F0.0005494505494505495
s(S'is'
p3438
S'involved'
p3439
S'[[con]]'
p3440
tp3441
F0.0005494505494505495
s(S'elected'
p3442
S'[[det]]'
p3443
S'candidate'
p3444
tp3445
F0.0005494505494505495
s(S'take'
p3446
S'control'
p3447
S'of'
p3448
tp3449
F0.0005494505494505495
s(S'elected'
p3450
S'chairman'
p3451
S'on'
p3452
tp3453
F0.0005494505494505495
s(S'then'
p3454
S'appointed'
p3455
S'of'
p3456
tp3457
F0.0005494505494505495
s(S'was'
p3458
S'chosen'
p3459
S'of'
p3460
tp3461
F0.0005494505494505495
s(S'being'
p3462
S'named'
p3463
S'of'
p3464
tp3465
F0.0005494505494505495
s(S'then'
p3466
S'left'
p3467
S'[[det]]'
p3468
tp3469
F0.0005494505494505495
s(S'[[det]]'
p3470
S'president'
p3471
S'of'
p3472
tp3473
F0.0005494505494505495
s(S'when'
p3474
S'led'
p3475
S'[[det]]'
p3476
tp3477
F0.0005494505494505495
s(S'then'
p3478
S'joined'
p3479
S'[[det]]'
p3480
tp3481
F0.001098901098901099
s(S'was'
p3482
S'member'
p3483
S'[[num]]'
p3484
tp3485
F0.0005494505494505495
s(g2366
g2367
S'member'
p3486
tp3487
F0.0005494505494505495
s(S'has'
p3488
S'represented'
p3489
S'[[det]]'
p3490
tp3491
F0.0005494505494505495
s(S'then'
p3492
S'moved'
p3493
S'in'
p3494
tp3495
F0.0005494505494505495
s(S'[[con]]'
p3496
S'resigned'
p3497
S'from'
p3498
tp3499
F0.0005494505494505495
s(S'in'
p3500
S'leading'
p3501
S'[[det]]'
p3502
tp3503
F0.0005494505494505495
s(S'be'
p3504
S'involved'
p3505
S'in'
p3506
tp3507
F0.0005494505494505495
s(S'that'
p3508
S'led'
p3509
S'at'
p3510
tp3511
F0.0005494505494505495
s(g225
S'run'
p3512
S'by'
p3513
tp3514
F0.0005494505494505495
s(S'where'
p3515
S'led'
p3516
S'[[det]]'
p3517
tp3518
F0.0005494505494505495
s(S'[[det]]'
p3519
S'position'
p3520
S'for'
p3521
tp3522
F0.0005494505494505495
s(S'held'
p3523
g2004
g2005
tp3524
F0.0016483516483516484
s(S'also'
p3525
S'held'
p3526
S'positions'
p3527
tp3528
F0.0027472527472527475
s(S'[[con]]'
p3529
S'established'
p3530
S'[[det]]'
p3531
tp3532
F0.0005494505494505495
s(S'had'
p3533
S'moved'
p3534
S'on'
p3535
tp3536
F0.0005494505494505495
s(S'was'
p3537
S'joined'
p3538
S'[[det]]'
p3539
tp3540
F0.0005494505494505495
s(S'stood'
p3541
S'as'
p3542
S'[[det]]'
p3543
tp3544
F0.0016483516483516484
s(S'held'
p3545
S'positions'
p3546
S'in'
p3547
tp3548
F0.001098901098901099
s(S'[[adj]]'
p3549
S'leader'
p3550
S'of'
p3551
tp3552
F0.0016483516483516484
s(S'[[adj]]'
p3553
S'committee'
p3554
S'member'
p3555
tp3556
F0.0005494505494505495
s(S'to'
p3557
S'join'
p3558
S'[[det]]'
p3559
tp3560
F0.0016483516483516484
s(S'was'
p3561
S'involved'
p3562
S'by'
p3563
tp3564
F0.0005494505494505495
s(S'with'
p3565
S'members'
p3566
S'of'
p3567
tp3568
F0.0005494505494505495
s(S'then'
p3569
S'recruited'
p3570
S'to'
p3571
tp3572
F0.0005494505494505495
s(S'had'
p3573
S'left'
p3574
S'[[det]]'
p3575
tp3576
F0.0005494505494505495
s(S'as'
p3577
S'member'
p3578
S'of'
p3579
tp3580
F0.002197802197802198
s(S'also'
p3581
S'established'
p3582
S'at'
p3583
tp3584
F0.0005494505494505495
s(S'[[det]]'
p3585
S'president'
p3586
S'[[con]]'
p3587
tp3588
F0.0005494505494505495
s(S'is'
p3589
g3006
g3007
tp3590
F0.0005494505494505495
s(S'was'
p3591
S'elected'
p3592
g387
tp3593
F0.001098901098901099
s(S'[[det]]'
p3594
S'head'
p3595
S'of'
p3596
tp3597
F0.0016483516483516484
s(S'was'
p3598
S'recruited'
p3599
S'for'
p3600
tp3601
F0.0005494505494505495
s(g1307
g1308
S'of'
p3602
tp3603
F0.0005494505494505495
s(S'for'
p3604
S'leading'
p3605
S'[[det]]'
p3606
tp3607
F0.0005494505494505495
s(S'[[adj]]'
p3608
S'president'
p3609
S'at'
p3610
tp3611
F0.0005494505494505495
s(S'[[adj]]'
p3612
S'candidate'
p3613
S'to'
p3614
tp3615
F0.0005494505494505495
s(S'has'
p3616
S'served'
p3617
S'where'
p3618
tp3619
F0.0005494505494505495
s(S'also'
p3620
S'established'
p3621
S'[[con]]'
p3622
tp3623
F0.0005494505494505495
s(S'represents'
p3624
g443
g444
tp3625
F0.0005494505494505495
s(S'also'
p3626
S'ran'
p3627
S'for'
p3628
tp3629
F0.0005494505494505495
s(S'[[det]]'
p3630
S'government'
p3631
S'[[con]]'
p3632
tp3633
F0.0005494505494505495
s(S'elected'
p3634
S'leader'
p3635
S'[[det]]'
p3636
tp3637
F0.0005494505494505495
s(S'[[con]]'
p3638
S'served'
p3639
S'for'
p3640
tp3641
F0.001098901098901099
s(S'campaign'
p3642
S'to'
p3643
S'lead'
p3644
tp3645
F0.001098901098901099
s(S'[[det]]'
p3646
S'work'
p3647
S'[[con]]'
p3648
tp3649
F0.0005494505494505495
s(g2413
g3222
S'to'
p3650
tp3651
F0.001098901098901099
s(S'also'
p3652
S'founded'
p3653
S'[[det]]'
p3654
tp3655
F0.0005494505494505495
s(S'[[det]]'
p3656
S'chairman'
p3657
S'at'
p3658
tp3659
F0.0005494505494505495
s(S'[[adj]]'
p3660
S'candidate'
p3661
S'of'
p3662
tp3663
F0.0005494505494505495
s(S'was'
p3664
S'appointed'
p3665
S'[[num]]'
p3666
tp3667
F0.0005494505494505495
s(S'[[det]]'
p3668
S'spokesman'
p3669
S'for'
p3670
tp3671
F0.0005494505494505495
s(S'first'
p3672
S'joined'
p3673
S'[[con]]'
p3674
tp3675
F0.0005494505494505495
s(S'elected'
p3676
g1393
g1394
tp3677
F0.0005494505494505495
s(S'was'
p3678
S'appointed'
p3679
S'of'
p3680
tp3681
F0.0005494505494505495
s(S'member'
p3682
S'[[adj]]'
p3683
S'committee'
p3684
tp3685
F0.0005494505494505495
s(S'[[det]]'
p3686
S'founders'
p3687
S'[[det]]'
p3688
tp3689
F0.0005494505494505495
s(S'then'
p3690
S'moved'
p3691
S'onto'
p3692
tp3693
F0.0005494505494505495
s(S'elected'
p3694
S'member'
p3695
S'[[con]]'
p3696
tp3697
F0.001098901098901099
s(S'candidate'
p3698
S'was'
p3699
S'elected'
p3700
tp3701
F0.0005494505494505495
s(S'be'
p3702
S'nominated'
p3703
S'by'
p3704
tp3705
F0.0005494505494505495
s(S'nominated'
p3706
S'to'
p3707
g49
tp3708
F0.0005494505494505495
s(S'[[pro]]'
p3709
S'defeated'
p3710
S'[[det]]'
p3711
tp3712
F0.0005494505494505495
s(S'[[det]]'
p3713
g2321
g2322
tp3714
F0.0005494505494505495
s(S'which'
p3715
S'led'
p3716
S'[[det]]'
p3717
tp3718
F0.0005494505494505495
s(g1843
g1844
S'[[det]]'
p3719
tp3720
F0.0005494505494505495
s(S'[[adj]]'
p3721
S'chairman'
p3722
S'of'
p3723
tp3724
F0.001098901098901099
s(S'became'
p3725
S'chairman'
p3726
S'[[det]]'
p3727
tp3728
F0.0005494505494505495
s(S'first'
p3729
S'ran'
p3730
S'as'
p3731
tp3732
F0.001098901098901099
s(S'be'
p3733
S'renamed'
p3734
S'[[det]]'
p3735
tp3736
F0.0005494505494505495
s(S'[[con]]'
p3737
S'joined'
p3738
S'at'
p3739
tp3740
F0.0005494505494505495
s(S'was'
p3741
S'appointed'
p3742
S'to'
p3743
tp3744
F0.0005494505494505495
s(S'until'
p3745
S'joined'
p3746
S'[[det]]'
p3747
tp3748
F0.0005494505494505495
s(S'as'
p3749
S'representative'
p3750
S'of'
p3751
tp3752
F0.0005494505494505495
s(S'[[adj]]'
p3753
S'secretary'
p3754
S'for'
p3755
tp3756
F0.0005494505494505495
s(S'also'
p3757
S'founded'
p3758
S'for'
p3759
tp3760
F0.0005494505494505495
s(S'then'
p3761
S'served'
p3762
S'as'
p3763
tp3764
F0.0005494505494505495
s(S'[[con]]'
p3765
S'president'
p3766
S'of'
p3767
tp3768
F0.0005494505494505495
s(S'to'
p3769
S'represent'
p3770
S'[[con]]'
p3771
tp3772
F0.0005494505494505495
s(S'also'
p3773
S'serves'
p3774
S'[[det]]'
p3775
tp3776
F0.0005494505494505495
s(S'later'
p3777
S'appointed'
p3778
S'[[det]]'
p3779
tp3780
F0.0005494505494505495
s(S'was'
p3781
S'appointed'
p3782
S'for'
p3783
tp3784
F0.0005494505494505495
s(g2261
g2262
S'[[det]]'
p3785
tp3786
F0.0016483516483516484
s(S'was'
p3787
S'affiliated'
p3788
S'to'
p3789
tp3790
F0.0005494505494505495
s(S'was'
p3791
S'recruited'
p3792
S'by'
p3793
tp3794
F0.0005494505494505495
s(S'was'
p3795
S'chairman'
p3796
S'to'
p3797
tp3798
F0.0005494505494505495
s(S'[[adj]]'
p3799
S'member'
p3800
S'in'
p3801
tp3802
F0.0005494505494505495
s(S'then'
p3803
S'elected'
p3804
S'to'
p3805
tp3806
F0.0005494505494505495
s(S'is'
p3807
S'named'
p3808
S'by'
p3809
tp3810
F0.0005494505494505495
s(S'[[adj]]'
p3811
S'served'
p3812
S'at'
p3813
tp3814
F0.0005494505494505495
s(S'[[adj]]'
p3815
S'member'
p3816
S'[[num]]'
p3817
tp3818
F0.0005494505494505495
s(S'when'
p3819
S'entered'
p3820
S'[[det]]'
p3821
tp3822
F0.0005494505494505495
s(S'also'
p3823
S'served'
p3824
S'[[num]]'
p3825
tp3826
F0.0005494505494505495
s(S'represents'
p3827
S'[[det]]'
p3828
S'[[adj]]'
p3829
tp3830
F0.001098901098901099
s(S'[[con]]'
p3831
S'served'
p3832
S'[[det]]'
p3833
tp3834
F0.0005494505494505495
s(g1570
g1571
S'join'
p3835
tp3836
F0.001098901098901099
s(S'[[adj]]'
p3837
S'member'
p3838
S'at'
p3839
tp3840
F0.001098901098901099
s(S'never'
p3841
S'left'
p3842
S'[[det]]'
p3843
tp3844
F0.0005494505494505495
s(S'[[det]]'
p3845
S'representative'
p3846
S'for'
p3847
tp3848
F0.0005494505494505495
s(S'was'
p3849
S'named'
p3850
S'of'
p3851
tp3852
F0.0005494505494505495
s(S'[[con]]'
p3853
S'chairman'
p3854
S'of'
p3855
tp3856
F0.0005494505494505495
s(S'formerly'
p3857
S'served'
p3858
S'in'
p3859
tp3860
F0.0005494505494505495
s(S'briefly'
p3861
S'[[det]]'
p3862
S'leader'
p3863
tp3864
F0.0005494505494505495
s(S'also'
p3865
S'member'
p3866
S'of'
p3867
tp3868
F0.0005494505494505495
s(S'later'
p3869
S'work'
p3870
S'with'
p3871
tp3872
F0.0005494505494505495
s(g3829
g2256
g2257
tp3873
F0.001098901098901099
s(S'first'
p3874
S'appointed'
p3875
S'to'
p3876
tp3877
F0.0005494505494505495
s(S'[[det]]'
p3878
S'government'
p3879
g225
tp3880
F0.0005494505494505495
s(S'[[det]]'
p3881
S'member'
p3882
S'[[adj]]'
p3883
tp3884
F0.001098901098901099
s(S'to'
p3885
S'work'
p3886
S'for'
p3887
tp3888
F0.0005494505494505495
s(S'[[con]]'
p3889
S'founded'
p3890
S'[[det]]'
p3891
tp3892
F0.0005494505494505495
s(S'was'
p3893
S'chairman'
p3894
S'[[con]]'
p3895
tp3896
F0.0005494505494505495
s(S'has'
p3897
S'won'
p3898
S'with'
p3899
tp3900
F0.0005494505494505495
s(S'first'
p3901
S'represented'
p3902
S'for'
p3903
tp3904
F0.0005494505494505495
s(S'was'
p3905
g3634
g3635
tp3906
F0.001098901098901099
s(S'was'
p3907
S'recruited'
p3908
S'[[con]]'
p3909
tp3910
F0.0005494505494505495
s(S'[[con]]'
p3911
S'founder'
p3912
S'of'
p3913
tp3914
F0.0005494505494505495
s(S'also'
p3915
S'created'
p3916
S'for'
p3917
tp3918
F0.0005494505494505495
s(S'[[con]]'
p3919
S'ran'
p3920
S'for'
p3921
tp3922
F0.0005494505494505495
s(S'[[det]]'
p3923
g2101
g2102
tp3924
F0.001098901098901099
s(S'became'
p3925
S'president'
p3926
S'of'
p3927
tp3928
F0.0005494505494505495
s(S'also'
p3929
S'appointed'
p3930
S'to'
p3931
tp3932
F0.0005494505494505495
s(S'was'
p3933
S'appointed'
p3934
S'was'
p3935
tp3936
F0.0005494505494505495
s(S'were'
p3937
S'named'
p3938
S'as'
p3939
tp3940
F0.0005494505494505495
s(g167
g499
S'position'
p3941
tp3942
F0.0005494505494505495
s(S'has'
p3943
S'joined'
p3944
S'[[det]]'
p3945
tp3946
F0.0005494505494505495
s(S'[[con]]'
p3947
S'joining'
p3948
S'[[det]]'
p3949
tp3950
F0.0005494505494505495
s(S'also'
p3951
S'chairman'
p3952
S'of'
p3953
tp3954
F0.0005494505494505495
s(S'[[det]]'
p3955
S'candidate'
p3956
S'as'
p3957
tp3958
F0.0005494505494505495
s(S'was'
p3959
g1330
g1331
tp3960
F0.0005494505494505495
s(S'[[con]]'
p3961
S'member'
p3962
S'[[det]]'
p3963
tp3964
F0.001098901098901099
s(S'as'
p3965
S'led'
p3966
S'[[det]]'
p3967
tp3968
F0.0005494505494505495
s(S'was'
p3969
S'named'
p3970
S'to'
p3971
tp3972
F0.0005494505494505495
s(S'had'
p3973
S'served'
p3974
S'in'
p3975
tp3976
F0.0005494505494505495
s(S'[[con]]'
p3977
S'entered'
p3978
S'[[det]]'
p3979
tp3980
F0.0005494505494505495
s(g3592
g387
g388
tp3981
F0.001098901098901099
s(S'[[det]]'
p3982
S'official'
p3983
S'of'
p3984
tp3985
F0.0005494505494505495
s(S'that'
p3986
S'won'
p3987
S'for'
p3988
tp3989
F0.0005494505494505495
s(S'has'
p3990
S'left'
p3991
S'[[con]]'
p3992
tp3993
F0.0005494505494505495
s(g1781
g2437
S'list'
p3994
tp3995
F0.0005494505494505495
s(S'member'
p3996
g1184
g1185
tp3997
F0.0005494505494505495
s(S'soon'
p3998
S'left'
p3999
S'[[det]]'
p4000
tp4001
F0.0005494505494505495
s(S'elected'
p4002
S'representing'
p4003
S'in'
p4004
tp4005
F0.0005494505494505495
s(S'[[con]]'
p4006
S'joined'
p4007
S'[[adj]]'
p4008
tp4009
F0.0005494505494505495
s(S'member'
p4010
S'[[con]]'
p4011
S'represented'
p4012
tp4013
F0.001098901098901099
s(S'been'
p4014
S'president'
p4015
S'[[con]]'
p4016
tp4017
F0.0005494505494505495
s(g3707
g49
g50
tp4018
F0.0005494505494505495
s(S'also'
p4019
S'remained'
p4020
S'of'
p4021
tp4022
F0.0005494505494505495
s(S'was'
p4023
S'founder'
p4024
S'[[con]]'
p4025
tp4026
F0.0005494505494505495
s(S'is'
p4027
S'head'
p4028
S'[[det]]'
p4029
tp4030
F0.0005494505494505495
s(S'served'
p4031
S'[[det]]'
p4032
S'member'
p4033
tp4034
F0.0005494505494505495
s(g991
g165
g166
tp4035
F0.0005494505494505495
s(S'[[con]]'
p4036
S'members'
p4037
S'of'
p4038
tp4039
F0.0005494505494505495
s(S'became'
p4040
S'secretary'
p4041
S'[[con]]'
p4042
tp4043
F0.0005494505494505495
s(S'[[det]]'
p4044
g3327
g1910
tp4045
F0.0005494505494505495
s(S'[[adj]]'
p4046
S'joined'
p4047
S'[[det]]'
p4048
tp4049
F0.0005494505494505495
s(S'[[con]]'
p4050
S'appointed'
p4051
S'of'
p4052
tp4053
F0.0005494505494505495
s(S'was'
p4054
S'president'
p4055
S'of'
p4056
tp4057
F0.0005494505494505495
s(S'[[con]]'
p4058
S'member'
p4059
S'[[con]]'
p4060
tp4061
F0.0005494505494505495
s(S'[[det]]'
p4062
S'president'
p4063
S'which'
p4064
tp4065
F0.0005494505494505495
s(S'[[adj]]'
p4066
S'member'
p4067
S'[[adj]]'
p4068
tp4069
F0.0005494505494505495
s(S'also'
p4070
S'elected'
p4071
S'[[con]]'
p4072
tp4073
F0.0005494505494505495
s(S'is'
p4074
S'chairman'
p4075
S'[[con]]'
p4076
tp4077
F0.0005494505494505495
s(S'was'
p4078
S'elected'
p4079
S'member'
p4080
tp4081
F0.002197802197802198
s(S'supported'
p4082
S'bid'
p4083
S'to'
p4084
tp4085
F0.002197802197802198
s(S'as'
p4086
S'candidate'
p4087
S'for'
p4088
tp4089
F0.001098901098901099
s(S'been'
p4090
S'involved'
p4091
S'with'
p4092
tp4093
F0.0005494505494505495
s(g1332
S'district'
p4094
S'for'
p4095
tp4096
F0.0005494505494505495
s(S'[[adj]]'
p4097
S'leaders'
p4098
S'of'
p4099
tp4100
F0.0005494505494505495
s(S'is'
p4101
S'cofounder'
p4102
S'of'
p4103
tp4104
F0.0005494505494505495
s(S'[[adj]]'
p4105
S'chairman'
p4106
S'[[det]]'
p4107
tp4108
F0.0005494505494505495
s(g875
S'positions'
p4109
S'in'
p4110
tp4111
F0.001098901098901099
s(S'member'
p4112
g3278
g3279
tp4113
F0.001098901098901099
s(S'[[det]]'
p4114
S'secretary'
p4115
S'in'
p4116
tp4117
F0.0005494505494505495
s(S'was'
p4118
S'head'
p4119
S'to'
p4120
tp4121
F0.0005494505494505495
s(S'served'
p4122
S'[[con]]'
p4123
S'[[adj]]'
p4124
tp4125
F0.001098901098901099
s(S'been'
p4126
S'appointed'
p4127
S'for'
p4128
tp4129
F0.0005494505494505495
s(S'[[num]]'
p4130
S'joined'
p4131
S'[[det]]'
p4132
tp4133
F0.0005494505494505495
s(S'that'
p4134
S'won'
p4135
S'[[num]]'
p4136
tp4137
F0.0005494505494505495
s(S'served'
p4138
g2822
g2823
tp4139
F0.0005494505494505495
s(S'announced'
p4140
S'[[mod]]'
p4141
S'join'
p4142
tp4143
F0.0005494505494505495
s(S'later'
p4144
S'won'
p4145
S'[[det]]'
p4146
tp4147
F0.0005494505494505495
s(S'was'
p4148
S'member'
p4149
S'in'
p4150
tp4151
F0.0005494505494505495
s(S'[[con]]'
p4152
S'serves'
p4153
S'on'
p4154
tp4155
F0.0005494505494505495
s(S'also'
p4156
S'endorsed'
p4157
S'by'
p4158
tp4159
F0.0005494505494505495
s(S'then'
p4160
S'served'
p4161
S'[[det]]'
p4162
tp4163
F0.0005494505494505495
s(S'was'
p4164
S'head'
p4165
S'of'
p4166
tp4167
F0.0005494505494505495
s(S'was'
p4168
S'recruited'
p4169
S'as'
p4170
tp4171
F0.0005494505494505495
s(S'[[adj]]'
p4172
S'seat'
p4173
S'of'
p4174
tp4175
F0.001098901098901099
s(g1446
g1447
S'member'
p4176
tp4177
F0.001098901098901099
s(S'was'
p4178
g3861
g3862
tp4179
F0.0005494505494505495
s(S'also'
p4180
S'cofounder'
p4181
S'of'
p4182
tp4183
F0.0005494505494505495
s(S'also'
p4184
S'serves'
p4185
S'in'
p4186
tp4187
F0.0005494505494505495
s(S'was'
p4188
g1342
g1343
tp4189
F0.001098901098901099
s(S'[[adj]]'
p4190
S'candidate'
p4191
S'for'
p4192
tp4193
F0.0016483516483516484
s(S'is'
p4194
S'president'
p4195
S'in'
p4196
tp4197
F0.0005494505494505495
s(S'[[adj]]'
p4198
S'positions'
p4199
S'at'
p4200
tp4201
F0.0016483516483516484
s(S'ran'
p4202
g4086
g4087
tp4203
F0.001098901098901099
s(S'has'
p4204
S'served'
p4205
S'to'
p4206
tp4207
F0.0005494505494505495
s(S'[[adj]]'
p4208
S'official'
p4209
S'in'
p4210
tp4211
F0.0005494505494505495
s(S'also'
p4212
S'serves'
p4213
S'[[con]]'
p4214
tp4215
F0.0005494505494505495
s(S'later'
p4216
S'served'
p4217
S'[[con]]'
p4218
tp4219
F0.0005494505494505495
s(S'became'
p4220
S'member'
p4221
S'for'
p4222
tp4223
F0.0005494505494505495
s(S'was'
p4224
S'nominated'
p4225
S'of'
p4226
tp4227
F0.0005494505494505495
s(g388
g389
S'of'
p4228
tp4229
F0.001098901098901099
s(S'has'
p4230
S'established'
p4231
S'[[pro]]'
p4232
tp4233
F0.0005494505494505495
s(S'[[det]]'
p4234
S'riding'
p4235
S'for'
p4236
tp4237
F0.0005494505494505495
s(S'also'
p4238
S'led'
p4239
S'[[con]]'
p4240
tp4241
F0.0005494505494505495
s(S'[[adj]]'
p4242
S'member'
p4243
S'[[con]]'
p4244
tp4245
F0.001098901098901099
s(S'with'
p4246
S'founded'
p4247
S'[[det]]'
p4248
tp4249
F0.0005494505494505495
s(S'[[adj]]'
p4250
S'run'
p4251
S'in'
p4252
tp4253
F0.0005494505494505495
s(S'as'
p4254
S'defeated'
p4255
S'[[det]]'
p4256
tp4257
F0.0005494505494505495
s(S'later'
p4258
S'elected'
p4259
S'to'
p4260
tp4261
F0.0005494505494505495
s(S'candidate'
p4262
S'member'
p4263
S'for'
p4264
tp4265
F0.0005494505494505495
s(S'[[mod]]'
p4266
S'work'
p4267
S'for'
p4268
tp4269
F0.0005494505494505495
s(S'[[adj]]'
p4270
S'members'
p4271
S'of'
p4272
tp4273
F0.0005494505494505495
s(S'was'
p4274
S'resigned'
p4275
S'by'
p4276
tp4277
F0.0005494505494505495
s(g50
g51
S'judge'
p4278
tp4279
F0.0005494505494505495
s(S'first'
p4280
S'represented'
p4281
S'[[det]]'
p4282
tp4283
F0.0005494505494505495
s(S'[[det]]'
p4284
S'leader'
p4285
S'[[con]]'
p4286
tp4287
F0.0005494505494505495
s(S'[[det]]'
p4288
S'position'
p4289
S'to'
p4290
tp4291
F0.0005494505494505495
s(S'[[det]]'
p4292
S'member'
p4293
S'[[con]]'
p4294
tp4295
F0.01098901098901099
s(S'found'
p4296
S'work'
p4297
S'for'
p4298
tp4299
F0.0005494505494505495
s(S'to'
p4300
S'establish'
p4301
S'[[det]]'
p4302
tp4303
F0.0005494505494505495
s(S'was'
p4304
S'named'
p4305
S'with'
p4306
tp4307
F0.0005494505494505495
s(g499
g3941
S'as'
p4308
tp4309
F0.0005494505494505495
s(g1331
g1332
g4094
tp4310
F0.0005494505494505495
s(S'member'
p4311
g341
g342
tp4312
F0.0005494505494505495
s(S'found'
p4313
S'work'
p4314
S'at'
p4315
tp4316
F0.0005494505494505495
s(S'[[con]]'
p4317
S'left'
p4318
S'to'
p4319
tp4320
F0.001098901098901099
s(S'was'
p4321
S'recruited'
p4322
S'into'
p4323
tp4324
F0.0005494505494505495
s(S'was'
p4325
g2784
g2785
tp4326
F0.001098901098901099
s(g225
S'work'
p4327
S'at'
p4328
tp4329
F0.0005494505494505495
s(S'has'
p4330
S'founded'
p4331
S'[[con]]'
p4332
tp4333
F0.0005494505494505495
s(S'[[det]]'
p4334
S'president'
p4335
S'[[adj]]'
p4336
tp4337
F0.0005494505494505495
s(S'first'
p4338
S'joined'
p4339
S'[[det]]'
p4340
tp4341
F0.0005494505494505495
s(S'[[det]]'
p4342
S'cofounders'
p4343
S'of'
p4344
tp4345
F0.0005494505494505495
s(S'to'
p4346
S'represent'
p4347
S'[[adj]]'
p4348
tp4349
F0.0005494505494505495
s(S'was'
p4350
S'defeated'
p4351
S'to'
p4352
tp4353
F0.0005494505494505495
s(S'as'
p4354
S'[[det]]'
p4355
S'candidate'
p4356
tp4357
F0.006043956043956044
s(S'when'
p4358
S'left'
p4359
S'[[det]]'
p4360
tp4361
F0.0005494505494505495
s(S'[[pro]]'
p4362
S'led'
p4363
S'[[det]]'
p4364
tp4365
F0.0005494505494505495
s(S'then'
p4366
S'entered'
p4367
S'[[det]]'
p4368
tp4369
F0.0005494505494505495
s(S'contested'
p4370
S'[[det]]'
p4371
S'[[adj]]'
p4372
tp4373
F0.001098901098901099
s(S'has'
p4374
S'served'
p4375
S'at'
p4376
tp4377
F0.0005494505494505495
s(S'was'
p4378
S'chairman'
p4379
S'of'
p4380
tp4381
F0.001098901098901099
s(S'also'
p4382
S'president'
p4383
S'of'
p4384
tp4385
F0.0005494505494505495
s(S'was'
p4386
S'named'
p4387
S'as'
p4388
tp4389
F0.0005494505494505495
s(S'then'
p4390
S'served'
p4391
S'at'
p4392
tp4393
F0.0005494505494505495
s(S'was'
p4394
g33
g34
tp4395
F0.0005494505494505495
s(S'been'
p4396
S'appointed'
p4397
S'in'
p4398
tp4399
F0.0005494505494505495
s(S'is'
p4400
S'appointed'
p4401
S'at'
p4402
tp4403
F0.0005494505494505495
s(S'has'
p4404
S'served'
p4405
S'on'
p4406
tp4407
F0.001098901098901099
s(S'was'
p4408
S'chair'
p4409
S'of'
p4410
tp4411
F0.0005494505494505495
s(S'for'
p4412
S'control'
p4413
S'of'
p4414
tp4415
F0.0005494505494505495
s(S'ran'
p4416
S'as'
p4417
S'[[adj]]'
p4418
tp4419
F0.0005494505494505495
s(S'became'
p4420
S'involved'
p4421
S'at'
p4422
tp4423
F0.0005494505494505495
s(S'then'
p4424
S'served'
p4425
S'in'
p4426
tp4427
F0.0005494505494505495
s(S'was'
p4428
S'created'
p4429
S'under'
p4430
tp4431
F0.0005494505494505495
s(S'to'
p4432
S'head'
p4433
S'at'
p4434
tp4435
F0.0005494505494505495
s(S'later'
p4436
S'served'
p4437
S'for'
p4438
tp4439
F0.0005494505494505495
s(S'was'
p4440
S'member'
p4441
S'[[det]]'
p4442
tp4443
F0.0005494505494505495
s(S'being'
p4444
S'appointed'
p4445
S'as'
p4446
tp4447
F0.0005494505494505495
s(S'was'
p4448
S'chairman'
p4449
S'[[det]]'
p4450
tp4451
F0.0005494505494505495
s(S'was'
p4452
S'appointed'
p4453
S'on'
p4454
tp4455
F0.0005494505494505495
s(S'[[adj]]'
p4456
S'secretary'
p4457
S'of'
p4458
tp4459
F0.001098901098901099
s(g819
g820
S'leader'
p4460
tp4461
F0.0005494505494505495
s(S'was'
p4462
S'representative'
p4463
S'to'
p4464
tp4465
F0.0005494505494505495
s(S'served'
p4466
S'as'
p4467
S'member'
p4468
tp4469
F0.0027472527472527475
s(S'then'
p4470
S'moved'
p4471
S'to'
p4472
tp4473
F0.0005494505494505495
s(S'[[det]]'
p4474
S'secretary'
p4475
S'[[det]]'
p4476
tp4477
F0.0005494505494505495
s(S'was'
p4478
S'moved'
p4479
S'as'
p4480
tp4481
F0.0005494505494505495
s(S'was'
p4482
S'appointed'
p4483
S'before'
p4484
tp4485
F0.0005494505494505495
s(S'later'
p4486
S'named'
p4487
S'[[det]]'
p4488
tp4489
F0.0005494505494505495
s(S'[[det]]'
p4490
S'member'
p4491
S'for'
p4492
tp4493
F0.0016483516483516484
s(S'again'
p4494
S'named'
p4495
S'[[det]]'
p4496
tp4497
F0.0005494505494505495
s(S'is'
p4498
S'named'
p4499
S'of'
p4500
tp4501
F0.0005494505494505495
s(S'since'
p4502
S'left'
p4503
S'[[det]]'
p4504
tp4505
F0.0005494505494505495
s(S'held'
p4506
S'positions'
p4507
S'for'
p4508
tp4509
F0.001098901098901099
s(S'also'
p4510
S'represented'
p4511
S'[[det]]'
p4512
tp4513
F0.0005494505494505495
s(S'[[adj]]'
p4514
S'list'
p4515
S'[[con]]'
p4516
tp4517
F0.0005494505494505495
s(g4079
g4080
S'for'
p4518
tp4519
F0.0005494505494505495
s(S'[[det]]'
p4520
S'head'
p4521
S'[[det]]'
p4522
tp4523
F0.0005494505494505495
s(S'[[mod]]'
p4524
g3434
g3435
tp4525
F0.001098901098901099
s(S'then'
p4526
S'moved'
p4527
S'up'
p4528
tp4529
F0.0005494505494505495
s(g3828
g3829
g2256
tp4530
F0.002197802197802198
s(S'[[det]]'
p4531
S'cofounder'
p4532
S'[[con]]'
p4533
tp4534
F0.0005494505494505495
s(S'was'
p4535
S'elected'
p4536
S'representing'
p4537
tp4538
F0.0016483516483516484
s(S'later'
p4539
S'served'
p4540
S'[[adj]]'
p4541
tp4542
F0.0005494505494505495
s(S'also'
p4543
S'served'
p4544
S'from'
p4545
tp4546
F0.0005494505494505495
s(S'[[det]]'
p4547
S'candidate'
p4548
S'at'
p4549
tp4550
F0.0005494505494505495
s(S'was'
p4551
g1569
g1570
tp4552
F0.0005494505494505495
s(S'to'
p4553
S'run'
p4554
S'at'
p4555
tp4556
F0.0005494505494505495
s(S'held'
p4557
S'positions'
p4558
S'to'
p4559
tp4560
F0.0005494505494505495
s(S'also'
p4561
S'appointed'
p4562
S'at'
p4563
tp4564
F0.0005494505494505495
s(S'won'
p4565
g4234
g4235
tp4566
F0.0005494505494505495
s(S'had'
p4567
S'joined'
p4568
S'of'
p4569
tp4570
F0.0005494505494505495
s(S'later'
p4571
S'renamed'
p4572
S'[[con]]'
p4573
tp4574
F0.0005494505494505495
s(S'left'
p4575
g1992
g1993
tp4576
F0.0005494505494505495
s(S'[[det]]'
p4577
S'candidate'
p4578
S'in'
p4579
tp4580
F0.0005494505494505495
s(S'also'
p4581
S'elected'
p4582
S'[[det]]'
p4583
tp4584
F0.0005494505494505495
s(S'later'
p4585
S'left'
p4586
S'for'
p4587
tp4588
F0.0005494505494505495
s(S'[[adj]]'
p4589
g3698
g3699
tp4590
F0.0005494505494505495
s(S'had'
p4591
S'served'
p4592
S'as'
p4593
tp4594
F0.0005494505494505495
s(S'of'
p4595
S'[[det]]'
p4596
S'committee'
p4597
tp4598
F0.0005494505494505495
s(S'currently'
p4599
S'serves'
p4600
S'as'
p4601
tp4602
F0.0005494505494505495
s(S'joined'
p4603
g4044
g3327
tp4604
F0.0005494505494505495
s(S'also'
p4605
S'served'
p4606
S'on'
p4607
tp4608
F0.0005494505494505495
s(S'be'
p4609
S'joining'
p4610
S'[[det]]'
p4611
tp4612
F0.0005494505494505495
s(S'[[det]]'
p4613
S'cofounder'
p4614
S'of'
p4615
tp4616
F0.0005494505494505495
s(S'elected'
p4617
S'[[det]]'
p4618
S'chairman'
p4619
tp4620
F0.0005494505494505495
s(g78
g79
S'out'
p4621
tp4622
F0.0005494505494505495
s(S'also'
p4623
S'serves'
p4624
S'at'
p4625
tp4626
F0.0005494505494505495
s(S'[[det]]'
p4627
S'elected'
p4628
S'representing'
p4629
tp4630
F0.0005494505494505495
s(S'become'
p4631
S'leader'
p4632
S'of'
p4633
tp4634
F0.002197802197802198
s(S'were'
p4635
S'members'
p4636
S'of'
p4637
tp4638
F0.0005494505494505495
s(S'to'
p4639
S'run'
p4640
S'[[det]]'
p4641
tp4642
F0.0005494505494505495
s(S'[[adj]]'
p4643
S'position'
p4644
S'with'
p4645
tp4646
F0.0005494505494505495
s(S'was'
p4647
S'reelected'
p4648
S'for'
p4649
tp4650
F0.0005494505494505495
s(g51
g4278
S'of'
p4651
tp4652
F0.0005494505494505495
s(S'[[adj]]'
p4653
S'appointed'
p4654
S'to'
p4655
tp4656
F0.0005494505494505495
s(S'later'
p4657
S'served'
p4658
S'in'
p4659
tp4660
F0.0005494505494505495
s(S'been'
p4661
S'involved'
p4662
S'in'
p4663
tp4664
F0.0005494505494505495
s(S'[[mod]]'
p4665
S'join'
p4666
S'[[adj]]'
p4667
tp4668
F0.0005494505494505495
s(g4417
g4418
S'candidate'
p4669
tp4670
F0.0005494505494505495
s(S'was'
p4671
S'moved'
p4672
S'back'
p4673
tp4674
F0.0005494505494505495
s(S'[[det]]'
p4675
S'leader'
p4676
S'at'
p4677
tp4678
F0.0005494505494505495
s(g1143
g1144
S'member'
p4679
tp4680
F0.002197802197802198
s(S'[[det]]'
p4681
S'representing'
p4682
S'[[det]]'
p4683
tp4684
F0.001098901098901099
s(S'later'
p4685
S'served'
p4686
S'at'
p4687
tp4688
F0.0005494505494505495
s(S'has'
p4689
S'remained'
p4690
S'at'
p4691
tp4692
F0.0005494505494505495
s(S'not'
p4693
S'run'
p4694
S'for'
p4695
tp4696
F0.0005494505494505495
s(S'became'
p4697
S'secretary'
p4698
S'of'
p4699
tp4700
F0.0005494505494505495
s(S'was'
p4701
S'head'
p4702
S'for'
p4703
tp4704
F0.0005494505494505495
s(S'became'
p4705
S'president'
p4706
S'at'
p4707
tp4708
F0.0005494505494505495
s(S'again'
p4709
S'joined'
p4710
S'[[det]]'
p4711
tp4712
F0.0005494505494505495
s(S'served'
p4713
S'as'
p4714
S'[[adj]]'
p4715
tp4716
F0.002197802197802198
s(S'[[det]]'
p4717
S'leader'
p4718
S'in'
p4719
tp4720
F0.0005494505494505495
s(S'[[adj]]'
p4721
S'head'
p4722
S'[[det]]'
p4723
tp4724
F0.0005494505494505495
s(S'[[det]]'
p4725
S'member'
p4726
S'in'
p4727
tp4728
F0.001098901098901099
s(S'being'
p4729
S'recruited'
p4730
S'to'
p4731
tp4732
F0.0005494505494505495
s(g225
S'party'
p4733
S'[[con]]'
p4734
tp4735
F0.0005494505494505495
s(S'also'
p4736
S'served'
p4737
S'of'
p4738
tp4739
F0.0005494505494505495
s(g595
g596
S'of'
p4740
tp4741
F0.0005494505494505495
s(S'then'
p4742
S'ran'
p4743
S'for'
p4744
tp4745
F0.0005494505494505495
s(S'[[con]]'
p4746
S'serves'
p4747
S'in'
p4748
tp4749
F0.0005494505494505495
s.