(dp0
(S'worked'
p1
S'as'
p2
S'[[det]]'
p3
tp4
F0.004651162790697674
s(S'well'
p5
S'known'
p6
S'especially'
p7
tp8
F0.004651162790697674
s(S'[[det]]'
p9
S'partner'
p10
S'of'
p11
tp12
F0.004651162790697674
s(S'also'
p13
S'known'
p14
S'as'
p15
tp16
F0.004651162790697674
s(S'is'
p17
S'known'
p18
S'[[det]]'
p19
tp20
F0.004651162790697674
s(S'is'
p21
S'known'
p22
S'as'
p23
tp24
F0.004651162790697674
s(S'first'
p25
S'met'
p26
S'at'
p27
tp28
F0.004651162790697674
s(S'best'
p29
S'known'
p30
S'as'
p31
tp32
F0.004651162790697674
s(S'best'
p33
S'known'
p34
S'[[num]]'
p35
tp36
F0.004651162790697674
s(S'also'
p37
S'starred'
p38
S'[[adj]]'
p39
tp40
F0.004651162790697674
s(S'also'
p41
S'starred'
p42
S'[[con]]'
p43
tp44
F0.004651162790697674
s(S'been'
p45
S'known'
p46
S'as'
p47
tp48
F0.004651162790697674
s(S'became'
p49
S'known'
p50
S'[[con]]'
p51
tp52
F0.004651162790697674
s(S'not'
p53
S'known'
p54
S'to'
p55
tp56
F0.004651162790697674
s(S'[[adj]]'
p57
S'partner'
p58
S'of'
p59
tp60
F0.004651162790697674
s(S'then'
p61
S'starred'
p62
S'[[adj]]'
p63
tp64
F0.004651162790697674
s(S'also'
p65
S'known'
p66
S'with'
p67
tp68
F0.004651162790697674
s(S'became'
p69
S'known'
p70
S'with'
p71
tp72
F0.004651162790697674
s(S'[[det]]'
p73
S'partner'
p74
S'[[con]]'
p75
tp76
F0.004651162790697674
s(S'is'
p77
S'known'
p78
S'[[con]]'
p79
tp80
F0.004651162790697674
s(S'[[adj]]'
p81
S'relationship'
p82
S'with'
p83
tp84
F0.004651162790697674
s(S'also'
p85
S'met'
p86
S'from'
p87
tp88
F0.004651162790697674
s(S'was'
p89
S'buried'
p90
S'with'
p91
tp92
F0.004651162790697674
s(S'not'
p93
S'known'
p94
S'when'
p95
tp96
F0.004651162790697674
s(S'[[adj]]'
p97
S'actress'
p98
S'in'
p99
tp100
F0.004651162790697674
s(S'best'
p101
S'known'
p102
S'of'
p103
tp104
F0.004651162790697674
s(S'become'
p105
S'known'
p106
S'for'
p107
tp108
F0.004651162790697674
s(S'[[con]]'
p109
S'starred'
p110
S'with'
p111
tp112
F0.004651162790697674
s(S'[[con]]'
p113
S'known'
p114
S'as'
p115
tp116
F0.004651162790697674
s(S'also'
p117
S'starred'
p118
S'by'
p119
tp120
F0.004651162790697674
s(S's'
p121
S'relationship'
p122
S'with'
p123
tp124
F0.004651162790697674
s(S'had'
p125
S'met'
p126
S'[[det]]'
p127
tp128
F0.004651162790697674
s(S'[[det]]'
p129
S'relationship'
p130
S'[[con]]'
p131
tp132
F0.004651162790697674
s(S'best'
p133
S'known'
p134
S'where'
p135
tp136
F0.004651162790697674
s(S'also'
p137
S'met'
p138
S'[[con]]'
p139
tp140
F0.004651162790697674
s(S'had'
p141
S'known'
p142
S'since'
p143
tp144
F0.004651162790697674
s(S'was'
p145
S'known'
p146
S'[[con]]'
p147
tp148
F0.004651162790697674
s(S'had'
p149
S'met'
p150
S'when'
p151
tp152
F0.004651162790697674
s(S'first'
p153
S'met'
p154
S'[[det]]'
p155
tp156
F0.004651162790697674
s(S'well'
p157
S'known'
p158
S'for'
p159
tp160
F0.004651162790697674
s(S'have'
p161
S'met'
p162
S'with'
p163
tp164
F0.004651162790697674
s(S'[[con]]'
p165
S'met'
p166
S'up'
p167
tp168
F0.004651162790697674
s(S'which'
p169
S'starred'
p170
S'[[con]]'
p171
tp172
F0.004651162790697674
s(S'[[con]]'
p173
S'met'
p174
S'with'
p175
tp176
F0.004651162790697674
s(S'also'
p177
S'known'
p178
S'[[con]]'
p179
tp180
F0.004651162790697674
s(S'[[prp]]'
p181
S'relationship'
p182
S'with'
p183
tp184
F0.004651162790697674
s(S'is'
p185
S'known'
p186
S'with'
p187
tp188
F0.004651162790697674
s(S'is'
p189
S'known'
p190
S'only'
p191
tp192
F0.004651162790697674
s(S'of'
p193
S'known'
p194
S'as'
p195
tp196
F0.004651162790697674
s(S'is'
p197
S'known'
p198
S'of'
p199
tp200
F0.004651162790697674
s(S'later'
p201
S'known'
p202
S'as'
p203
tp204
F0.004651162790697674
s(S'is'
p205
S'buried'
p206
S'there'
p207
tp208
F0.004651162790697674
s(S'has'
p209
S'starred'
p210
S'as'
p211
tp212
F0.004651162790697674
s(S'not'
p213
S'known'
p214
S'as'
p215
tp216
F0.004651162790697674
s(S'was'
p217
S'known'
p218
S'as'
p219
tp220
F0.004651162790697674
s(S'[[adj]]'
p221
S'known'
p222
S'as'
p223
tp224
F0.004651162790697674
s(S'[[adj]]'
p225
S'partner'
p226
S'[[con]]'
p227
tp228
F0.004651162790697674
s(S'[[det]]'
p229
S'relationship'
p230
S'with'
p231
tp232
F0.004651162790697674
s(S'best'
p233
S'known'
p234
S'[[prp]]'
p235
tp236
F0.004651162790697674
s(g121
S'partner'
p237
S'[[con]]'
p238
tp239
F0.004651162790697674
s(S'met'
p240
S'[[prp]]'
p241
S'partner'
p242
tp243
F0.004651162790697674
s(S'[[con]]'
p244
S'met'
p245
S'[[adj]]'
p246
tp247
F0.004651162790697674
s(S'[[num]]'
p248
S'known'
p249
S'as'
p250
tp251
F0.004651162790697674
s(S'became'
p252
S'known'
p253
S'to'
p254
tp255
F0.004651162790697674
s(S'is'
p256
S'known'
p257
S'except'
p258
tp259
F0.004651162790697674
s(S'was'
p260
S'known'
p261
S'by'
p262
tp263
F0.004651162790697674
s(S'where'
p264
S'met'
p265
S'[[adj]]'
p266
tp267
F0.004651162790697674
s(S'also'
p268
S'met'
p269
S'with'
p270
tp271
F0.004651162790697674
s(S'best'
p272
S'known'
p273
S'along'
p274
tp275
F0.004651162790697674
s(S'was'
p276
S'buried'
p277
S'[[adj]]'
p278
tp279
F0.004651162790697674
s(S'is'
p280
S'known'
p281
S'after'
p282
tp283
F0.004651162790697674
s(S'had'
p284
S'known'
p285
S'[[con]]'
p286
tp287
F0.004651162790697674
s(S'then'
p288
S'starred'
p289
S'as'
p290
tp291
F0.004651162790697674
s(S'have'
p292
S'known'
p293
S'among'
p294
tp295
F0.004651162790697674
s(S'where'
p296
S'met'
p297
S'with'
p298
tp299
F0.004651162790697674
s(S'became'
p300
S'known'
p301
S'for'
p302
tp303
F0.004651162790697674
s(S'later'
p304
S'starred'
p305
S'[[con]]'
p306
tp307
F0.004651162790697674
s(S'then'
p308
S'starred'
p309
S'with'
p310
tp311
F0.004651162790697674
s(S'to'
p312
S'[[det]]'
p313
S'winter'
p314
tp315
F0.004651162790697674
s(S'had'
p316
S'met'
p317
S'while'
p318
tp319
F0.004651162790697674
s(S'also'
p320
S'known'
p321
S'by'
p322
tp323
F0.004651162790697674
s(S'was'
p324
S'known'
p325
S'especially'
p326
tp327
F0.004651162790697674
s(S'was'
p328
S'known'
p329
S'being'
p330
tp331
F0.004651162790697674
s(S'best'
p332
S'known'
p333
S'[[adj]]'
p334
tp335
F0.004651162790697674
s(S'is'
p336
S'known'
p337
S'about'
p338
tp339
F0.004651162790697674
s(S'also'
p340
S'starred'
p341
S'with'
p342
tp343
F0.004651162790697674
s(S'also'
p344
S'known'
p345
S'to'
p346
tp347
F0.004651162790697674
s(S'is'
p348
S'known'
p349
S'though'
p350
tp351
F0.004651162790697674
s(g121
S'relationship'
p352
S'to'
p353
tp354
F0.004651162790697674
s(S'which'
p355
S'starred'
p356
S'as'
p357
tp358
F0.004651162790697674
s(S'first'
p359
S'met'
p360
S'[[con]]'
p361
tp362
F0.004651162790697674
s(S'also'
p363
S'known'
p364
S'[[adj]]'
p365
tp366
F0.004651162790697674
s(S'later'
p367
S'starred'
p368
S'as'
p369
tp370
F0.004651162790697674
s(S'[[det]]'
p371
S'partner'
p372
S'with'
p373
tp374
F0.004651162790697674
s(S'later'
p375
S'met'
p376
S'with'
p377
tp378
F0.004651162790697674
s(S'is'
p379
S'known'
p380
S'from'
p381
tp382
F0.004651162790697674
s(S'also'
p383
S'costarred'
p384
S'[[con]]'
p385
tp386
F0.004651162790697674
s(S'usually'
p387
S'known'
p388
S'as'
p389
tp390
F0.004651162790697674
s(S'best'
p391
S'known'
p392
S'being'
p393
tp394
F0.004651162790697674
s(S'became'
p395
S'engaged'
p396
S'to'
p397
tp398
F0.004651162790697674
s(S'well'
p399
S'known'
p400
S'[[con]]'
p401
tp402
F0.004651162790697674
s(S'is'
p403
S'known'
p404
S'[[adj]]'
p405
tp406
F0.004651162790697674
s(S'[[det]]'
p407
S'relationship'
p408
S'between'
p409
tp410
F0.004651162790697674
s(S'was'
p411
S'known'
p412
S'for'
p413
tp414
F0.004651162790697674
s(S'[[adj]]'
p415
S'starred'
p416
S'as'
p417
tp418
F0.004651162790697674
s(S'was'
p419
S'met'
p420
S'by'
p421
tp422
F0.004651162790697674
s(S'most'
p423
S'known'
p424
S'for'
p425
tp426
F0.004651162790697674
s(S'sometimes'
p427
S'known'
p428
S'as'
p429
tp430
F0.004651162790697674
s(S'best'
p431
S'known'
p432
S'that'
p433
tp434
F0.004651162790697674
s(S'most'
p435
S'known'
p436
S'with'
p437
tp438
F0.004651162790697674
s(S'which'
p439
S'costarred'
p440
S'with'
p441
tp442
F0.004651162790697674
s(S'was'
p443
S'buried'
p444
S'[[con]]'
p445
tp446
F0.004651162790697674
s(S'was'
p447
S'partner'
p448
S'of'
p449
tp450
F0.004651162790697674
s(S'also'
p451
S'known'
p452
S'of'
p453
tp454
F0.004651162790697674
s(S'had'
p455
S'met'
p456
S'with'
p457
tp458
F0.004651162790697674
s(S'also'
p459
S'known'
p460
S'was'
p461
tp462
F0.004651162790697674
s(S'[[con]]'
p463
S'met'
p464
S'[[con]]'
p465
tp466
F0.004651162790697674
s(S'also'
p467
S'known'
p468
S'on'
p469
tp470
F0.004651162790697674
s(S'[[adj]]'
p471
S'relationship'
p472
S'between'
p473
tp474
F0.004651162790697674
s(S'also'
p475
S'starred'
p476
S'to'
p477
tp478
F0.004651162790697674
s(S'best'
p479
S'known'
p480
S'among'
p481
tp482
F0.004651162790697674
s(S'have'
p483
S'known'
p484
S'that'
p485
tp486
F0.004651162790697674
s(S'has'
p487
S'starred'
p488
S'with'
p489
tp490
F0.004651162790697674
s(S'also'
p491
S'costarred'
p492
S'on'
p493
tp494
F0.004651162790697674
s(S'was'
p495
S'known'
p496
S'with'
p497
tp498
F0.004651162790697674
s(S'were'
p499
S'known'
p500
S'as'
p501
tp502
F0.004651162790697674
s(S'met'
p503
S'[[prp]]'
p504
S'[[adj]]'
p505
tp506
F0.004651162790697674
s(S'[[adj]]'
p507
S'met'
p508
S'while'
p509
tp510
F0.004651162790697674
s(S'[[adj]]'
p511
S'partner'
p512
S'with'
p513
tp514
F0.004651162790697674
s(S'well'
p515
S'known'
p516
S'about'
p517
tp518
F0.004651162790697674
s(S'also'
p519
S'starred'
p520
S'along'
p521
tp522
F0.004651162790697674
s(S'first'
p523
S'met'
p524
S'when'
p525
tp526
F0.004651162790697674
s(S'best'
p527
S'known'
p528
S'with'
p529
tp530
F0.004651162790697674
s(S'be'
p531
S'known'
p532
S'as'
p533
tp534
F0.004651162790697674
s(S'[[adj]]'
p535
S'partner'
p536
S'at'
p537
tp538
F0.004651162790697674
s(S'often'
p539
S'known'
p540
S'as'
p541
tp542
F0.004651162790697674
s(S'became'
p543
S'known'
p544
S'after'
p545
tp546
F0.004651162790697674
s(S'which'
p547
S'starred'
p548
S'[[adj]]'
p549
tp550
F0.004651162790697674
s(S'also'
p551
S'starred'
p552
S'for'
p553
tp554
F0.004651162790697674
s(S'become'
p555
S'known'
p556
S'to'
p557
tp558
F0.004651162790697674
s(S'[[adj]]'
p559
S'partner'
p560
S'in'
p561
tp562
F0.004651162790697674
s(g3
S'assistant'
p563
g312
tp564
F0.004651162790697674
s(S'has'
p565
S'met'
p566
S'with'
p567
tp568
F0.004651162790697674
s(S'best'
p569
S'known'
p570
S'from'
p571
tp572
F0.004651162790697674
s(S'[[con]]'
p573
S'starred'
p574
S'as'
p575
tp576
F0.004651162790697674
s(S'[[pro]]'
p577
S'relationship'
p578
S'with'
p579
tp580
F0.004651162790697674
s(S'was'
p581
S'engaged'
p582
S'to'
p583
tp584
F0.004651162790697674
s(S'is'
p585
S'known'
p586
S'to'
p587
tp588
F0.004651162790697674
s(S'particularly'
p589
S'known'
p590
S'in'
p591
tp592
F0.004651162790697674
s(S'[[det]]'
p593
S'partner'
p594
S'at'
p595
tp596
F0.004651162790697674
s(S'was'
p597
S'known'
p598
S'[[adj]]'
p599
tp600
F0.004651162790697674
s(S'became'
p601
S'known'
p602
S'when'
p603
tp604
F0.004651162790697674
s(S'is'
p605
S'known'
p606
S'for'
p607
tp608
F0.004651162790697674
s(S'[[con]]'
p609
S'met'
p610
S'[[det]]'
p611
tp612
F0.004651162790697674
s(S'later'
p613
S'starred'
p614
S'with'
p615
tp616
F0.004651162790697674
s(S'also'
p617
S'met'
p618
S'[[det]]'
p619
tp620
F0.004651162790697674
s(S'also'
p621
S'met'
p622
S'[[prp]]'
p623
tp624
F0.004651162790697674
s(S'[[det]]'
p625
S'partner'
p626
S'in'
p627
tp628
F0.004651162790697674
s(S'soon'
p629
S'met'
p630
S'[[con]]'
p631
tp632
F0.004651162790697674
s(S'is'
p633
S'known'
p634
S'although'
p635
tp636
F0.004651162790697674
s(S'better'
p637
S'known'
p638
S'as'
p639
tp640
F0.004651162790697674
s(S'[[adj]]'
p641
S'actress'
p642
S'[[con]]'
p643
tp644
F0.004651162790697674
s(S'has'
p645
S'met'
p646
S'[[con]]'
p647
tp648
F0.004651162790697674
s(S'then'
p649
S'met'
p650
S'with'
p651
tp652
F0.004651162790697674
s(S'also'
p653
S'costarred'
p654
S'with'
p655
tp656
F0.004651162790697674
s(S'was'
p657
S'buried'
p658
S'near'
p659
tp660
F0.004651162790697674
s(S'[[det]]'
p661
S'known'
p662
S'as'
p663
tp664
F0.004651162790697674
s(S'also'
p665
S'known'
p666
S'along'
p667
tp668
F0.004651162790697674
s(S'be'
p669
S'known'
p670
S'that'
p671
tp672
F0.004651162790697674
s(S'well'
p673
S'known'
p674
S'as'
p675
tp676
F0.004651162790697674
s(S'become'
p677
S'known'
p678
S'as'
p679
tp680
F0.004651162790697674
s(S'where'
p681
S'met'
p682
S'[[con]]'
p683
tp684
F0.004651162790697674
s(S'also'
p685
S'known'
p686
S'[[num]]'
p687
tp688
F0.004651162790697674
s(S'first'
p689
S'met'
p690
S'with'
p691
tp692
F0.004651162790697674
s(S'[[adj]]'
p693
S'relationship'
p694
S'to'
p695
tp696
F0.004651162790697674
s(S'was'
p697
S'known'
p698
S'while'
p699
tp700
F0.004651162790697674
s(S'best'
p701
S'known'
p702
S'to'
p703
tp704
F0.004651162790697674
s(g504
g505
S'partner'
p705
tp706
F0.004651162790697674
s(S'is'
p707
S'buried'
p708
S'near'
p709
tp710
F0.004651162790697674
s(S'best'
p711
S'known'
p712
S'by'
p713
tp714
F0.004651162790697674
s(g582
g583
S'actor'
p715
tp716
F0.009302325581395349
s(S'became'
p717
S'known'
p718
S'as'
p719
tp720
F0.004651162790697674
s(S'mostly'
p721
S'known'
p722
S'for'
p723
tp724
F0.004651162790697674
s(S'[[adj]]'
p725
S'met'
p726
S'[[det]]'
p727
tp728
F0.004651162790697674
s(g2
g3
g563
tp729
F0.004651162790697674
s(S'well'
p730
S'known'
p731
S'with'
p732
tp733
F0.004651162790697674
s(S'also'
p734
S'starred'
p735
S'as'
p736
tp737
F0.004651162790697674
s(S'then'
p738
S'known'
p739
S'as'
p740
tp741
F0.004651162790697674
s(S'was'
p742
S'known'
p743
S'[[det]]'
p744
tp745
F0.004651162790697674
s(S'[[adj]]'
p746
S'actress'
p747
S'[[adj]]'
p748
tp749
F0.004651162790697674
s(S'where'
p750
S'met'
p751
S'[[det]]'
p752
tp753
F0.004651162790697674
s(S'also'
p754
S'met'
p755
S'[[adj]]'
p756
tp757
F0.004651162790697674
s(S'[[adj]]'
p758
S'partner'
p759
S'to'
p760
tp761
F0.004651162790697674
s(S'met'
p762
S'[[adj]]'
p763
S'partner'
p764
tp765
F0.004651162790697674
s(g563
g312
g313
tp766
F0.004651162790697674
s(S'is'
p767
S'buried'
p768
S'[[adj]]'
p769
tp770
F0.004651162790697674
s(S'better'
p771
S'known'
p772
S'[[det]]'
p773
tp774
F0.004651162790697674
s(g313
g314
S'[[con]]'
p775
tp776
F0.004651162790697674
s(S'also'
p777
S'known'
p778
S'for'
p779
tp780
F0.004651162790697674
s(S'is'
p781
S'met'
p782
S'by'
p783
tp784
F0.004651162790697674
s(S'has'
p785
S'starred'
p786
S'[[adj]]'
p787
tp788
F0.004651162790697674
s(S'became'
p789
S'known'
p790
S'by'
p791
tp792
F0.004651162790697674
s(S'is'
p793
S'known'
p794
S'also'
p795
tp796
F0.004651162790697674
s(S'mostly'
p797
S'known'
p798
S'as'
p799
tp800
F0.004651162790697674
s(S'was'
p801
S'known'
p802
S'after'
p803
tp804
F0.004651162790697674
s(S'best'
p805
S'known'
p806
S'for'
p807
tp808
F0.004651162790697674
s(S'have'
p809
S'met'
p810
S'[[con]]'
p811
tp812
F0.004651162790697674
s(S'was'
p813
S'known'
p814
S'to'
p815
tp816
F0.004651162790697674
s(S'is'
p817
S'known'
p818
S'by'
p819
tp820
F0.004651162790697674
s(S'best'
p821
S'known'
p822
S'[[con]]'
p823
tp824
F0.004651162790697674
s(S'[[adj]]'
p825
S'relationship'
p826
S'[[con]]'
p827
tp828
F0.004651162790697674
s(S'had'
p829
S'met'
p830
S'through'
p831
tp832
F0.004651162790697674
s(S'well'
p833
S'known'
p834
S'that'
p835
tp836
F0.004651162790697674
s(S'had'
p837
S'met'
p838
S'[[con]]'
p839
tp840
F0.004651162790697674
s.