(dp0
(S'then'
p1
S'played'
p2
S'with'
p3
tp4
F0.005154639175257732
s(S'on'
p5
S'[[det]]'
p6
S'drama'
p7
tp8
F0.005154639175257732
s(S'has'
p9
S'performed'
p10
S'for'
p11
tp12
F0.005154639175257732
s(S'was'
p13
S'played'
p14
S'by'
p15
tp16
F0.005154639175257732
s(S'[[con]]'
p17
S'played'
p18
S'[[con]]'
p19
tp20
F0.005154639175257732
s(S'[[adj]]'
p21
S'character'
p22
S'[[con]]'
p23
tp24
F0.010309278350515464
s(S'also'
p25
S'played'
p26
S'[[con]]'
p27
tp28
F0.005154639175257732
s(S'first'
p29
S'performed'
p30
S'in'
p31
tp32
F0.005154639175257732
s(S'had'
p33
S'played'
p34
S'[[con]]'
p35
tp36
F0.005154639175257732
s(S'in'
p37
S'voiced'
p38
S'by'
p39
tp40
F0.005154639175257732
s(S'also'
p41
S'performed'
p42
S'along'
p43
tp44
F0.005154639175257732
s(S'[[adj]]'
p45
S'played'
p46
S'by'
p47
tp48
F0.005154639175257732
s(S'was'
p49
S'played'
p50
S'[[con]]'
p51
tp52
F0.005154639175257732
s(S'first'
p53
S'performed'
p54
S'with'
p55
tp56
F0.005154639175257732
s(S'is'
p57
S'voiced'
p58
S'in'
p59
tp60
F0.005154639175257732
s(S'[[con]]'
p61
S'played'
p62
S'as'
p63
tp64
F0.005154639175257732
s(S'also'
p65
S'portrayed'
p66
S'in'
p67
tp68
F0.005154639175257732
s(S'has'
p69
S'performed'
p70
S'as'
p71
tp72
F0.005154639175257732
s(S'character'
p73
S'[[con]]'
p74
S'is'
p75
tp76
F0.005154639175257732
s(S's'
p77
S'performed'
p78
S'by'
p79
tp80
F0.005154639175257732
s(S'has'
p81
S'performed'
p82
S'under'
p83
tp84
F0.005154639175257732
s(S'character'
p85
S'portrayed'
p86
S'by'
p87
tp88
F0.005154639175257732
s(S'still'
p89
S'played'
p90
S'for'
p91
tp92
F0.005154639175257732
s(S'[[adj]]'
p93
S'character'
p94
g5
tp95
F0.010309278350515464
s(S'then'
p96
S'played'
p97
S'as'
p98
tp99
F0.005154639175257732
s(S'[[con]]'
p100
S'played'
p101
S'with'
p102
tp103
F0.005154639175257732
s(S'was'
p104
S'portrayed'
p105
S'[[det]]'
p106
tp107
F0.005154639175257732
s(S'[[con]]'
p108
S'voiced'
p109
S'by'
p110
tp111
F0.005154639175257732
s(S'was'
p112
S'voiced'
p113
S'by'
p114
tp115
F0.005154639175257732
s(S'as'
p116
S'played'
p117
S'by'
p118
tp119
F0.005154639175257732
s(S'also'
p120
S'performed'
p121
S'to'
p122
tp123
F0.005154639175257732
s(S'[[con]]'
p124
S'played'
p125
S'[[adj]]'
p126
tp127
F0.005154639175257732
s(S'[[det]]'
p128
S'character'
p129
S'played'
p130
tp131
F0.005154639175257732
s(S'character'
p132
S'from'
p133
S'[[det]]'
p134
tp135
F0.005154639175257732
s(S'[[det]]'
p136
S'[[adj]]'
p137
S'character'
p138
tp139
F0.020618556701030927
s(S'[[con]]'
p140
S'played'
p141
S'[[det]]'
p142
tp143
F0.010309278350515464
s(S'then'
p144
S'played'
p145
S'by'
p146
tp147
F0.005154639175257732
s(S'is'
p148
S'played'
p149
S'by'
p150
tp151
F0.005154639175257732
s(S'[[adj]]'
p152
S'character'
p153
S'played'
p154
tp155
F0.010309278350515464
s(S'later'
p156
S'performed'
p157
S'with'
p158
tp159
F0.005154639175257732
s(S'has'
p160
S'performed'
p161
S'[[con]]'
p162
tp163
F0.005154639175257732
s(S'[[adj]]'
p164
S'character'
p165
S'of'
p166
tp167
F0.005154639175257732
s(S'also'
p168
S'performed'
p169
S'by'
p170
tp171
F0.005154639175257732
s(S'been'
p172
S'played'
p173
S'by'
p174
tp175
F0.005154639175257732
s(S'was'
p176
S'portrayed'
p177
S'in'
p178
tp179
F0.005154639175257732
s(S'portrayed'
p180
S'[[det]]'
p181
S'character'
p182
tp183
F0.010309278350515464
s(S'[[con]]'
p184
S'performed'
p185
S'for'
p186
tp187
F0.005154639175257732
s(S'also'
p188
S'performed'
p189
S'for'
p190
tp191
F0.005154639175257732
s(S'[[det]]'
p192
S'performed'
p193
S'by'
p194
tp195
F0.005154639175257732
s(S'already'
p196
S'played'
p197
S'with'
p198
tp199
F0.005154639175257732
s(S'also'
p200
S'performed'
p201
S'as'
p202
tp203
F0.005154639175257732
s(S'has'
p204
S'performed'
p205
S'to'
p206
tp207
F0.005154639175257732
s(S'television'
p208
S'series'
p209
S'played'
p210
tp211
F0.005154639175257732
s(S'who'
p212
S'played'
p213
S'[[adj]]'
p214
tp215
F0.005154639175257732
s(S'also'
p216
S'played'
p217
S'[[pro]]'
p218
tp219
F0.005154639175257732
s(S'is'
p220
S'voiced'
p221
S'by'
p222
tp223
F0.005154639175257732
s(S'has'
p224
S'performed'
p225
S'with'
p226
tp227
F0.005154639175257732
s(S'[[adj]]'
p228
g85
g86
tp229
F0.005154639175257732
s(S'also'
p230
S'played'
p231
S'under'
p232
tp233
F0.005154639175257732
s(S'portrayed'
p234
S'by'
p235
S'[[adj]]'
p236
tp237
F0.010309278350515464
s(S'where'
p238
S'played'
p239
S'with'
p240
tp241
F0.005154639175257732
s(S'as'
p242
S'played'
p243
S'with'
p244
tp245
F0.005154639175257732
s(S'played'
p246
g136
g137
tp247
F0.020618556701030927
s(g26
g27
S'played'
p248
tp249
F0.005154639175257732
s(S'had'
p250
S'performed'
p251
S'on'
p252
tp253
F0.005154639175257732
s(S'[[con]]'
p254
S'performed'
p255
S'by'
p256
tp257
F0.005154639175257732
s(S'also'
p258
S'played'
p259
S'along'
p260
tp261
F0.005154639175257732
s(S'is'
p262
S'portrayed'
p263
S'as'
p264
tp265
F0.005154639175257732
s(S'have'
p266
S'performed'
p267
S'[[det]]'
p268
tp269
F0.005154639175257732
s(S'also'
p270
S'portrayed'
p271
S'[[det]]'
p272
tp273
F0.005154639175257732
s(S'also'
p274
S'performed'
p275
S'with'
p276
tp277
F0.005154639175257732
s(S'[[adj]]'
p278
S'character'
p279
S'[[det]]'
p280
tp281
F0.005154639175257732
s(S'was'
p282
S'voiced'
p283
S'in'
p284
tp285
F0.005154639175257732
s(g74
g75
S'portrayed'
p286
tp287
F0.005154639175257732
s(S'[[det]]'
p288
S'character'
p289
S'of'
p290
tp291
F0.010309278350515464
s(S'first'
p292
S'played'
p293
S'[[con]]'
p294
tp295
F0.005154639175257732
s(S'on'
p296
S'[[det]]'
p297
g208
tp298
F0.005154639175257732
s(S'also'
p299
S'performed'
p300
S'[[adj]]'
p301
tp302
F0.005154639175257732
s(S'then'
p303
S'performed'
p304
S'[[det]]'
p305
tp306
F0.005154639175257732
s(S'has'
p307
S'played'
p308
S'by'
p309
tp310
F0.005154639175257732
s(S'is'
p311
S'voiced'
p312
S'[[con]]'
p313
tp314
F0.005154639175257732
s(S'be'
p315
S'played'
p316
S'by'
p317
tp318
F0.005154639175257732
s(S'also'
p319
S'portrayed'
p320
S'[[con]]'
p321
tp322
F0.005154639175257732
s(S'[[det]]'
p323
S'played'
p324
S'by'
p325
tp326
F0.010309278350515464
s(S'had'
p327
S'performed'
p328
S'for'
p329
tp330
F0.005154639175257732
s(g77
S'played'
p331
S'by'
p332
tp333
F0.005154639175257732
s(S'then'
p334
S'played'
p335
S'under'
p336
tp337
F0.005154639175257732
s(S'later'
p338
S'played'
p339
S'[[det]]'
p340
tp341
F0.005154639175257732
s(S'had'
p342
S'performed'
p343
S'with'
p344
tp345
F0.005154639175257732
s(S'then'
p346
S'played'
p347
S'[[adj]]'
p348
tp349
F0.005154639175257732
s(S'also'
p350
S'performed'
p351
S'[[det]]'
p352
tp353
F0.005154639175257732
s(S'[[det]]'
p354
S'of'
p355
S'character'
p356
tp357
F0.005154639175257732
s(S'has'
p358
S'played'
p359
S'as'
p360
tp361
F0.005154639175257732
s(S'where'
p362
S'played'
p363
S'[[det]]'
p364
tp365
F0.005154639175257732
s(S'often'
p366
S'performed'
p367
S'by'
p368
tp369
F0.005154639175257732
s(S'is'
p370
S'portrayed'
p371
S'by'
p372
tp373
F0.015463917525773196
s(S'have'
p374
S'played'
p375
S'[[num]]'
p376
tp377
F0.005154639175257732
s(S'is'
p378
S'portrayed'
p379
S'[[con]]'
p380
tp381
F0.005154639175257732
s(S'[[pro]]'
p382
S'played'
p383
S'[[det]]'
p384
tp385
F0.005154639175257732
s(S'[[adj]]'
p386
g132
g133
tp387
F0.005154639175257732
s(S'also'
p388
S'played'
p389
S'together'
p390
tp391
F0.005154639175257732
s(S'been'
p392
S'portrayed'
p393
S'by'
p394
tp395
F0.010309278350515464
s(S'also'
p396
S'performed'
p397
S'[[con]]'
p398
tp399
F0.005154639175257732
s(S'has'
p400
S'performed'
p401
S'from'
p402
tp403
F0.005154639175257732
s(S'have'
p404
S'played'
p405
S'along'
p406
tp407
F0.005154639175257732
s(S'has'
p408
S'performed'
p409
S'together'
p410
tp411
F0.005154639175257732
s(S'also'
p412
S'performed'
p413
S'before'
p414
tp415
F0.005154639175257732
s(S'played'
p416
g354
g355
tp417
F0.005154639175257732
s(g94
g5
g6
tp418
F0.010309278350515464
s(S'has'
p419
S'played'
p420
S'from'
p421
tp422
F0.005154639175257732
s(S'[[con]]'
p423
S'performed'
p424
S'with'
p425
tp426
F0.005154639175257732
s(g77
S'performed'
p427
S'in'
p428
tp429
F0.005154639175257732
s(g235
g236
S'actors'
p430
tp431
F0.010309278350515464
s(S'was'
p432
S'portrayed'
p433
S'[[con]]'
p434
tp435
F0.005154639175257732
s(S'have'
p436
S'played'
p437
S'[[adj]]'
p438
tp439
F0.005154639175257732
s(S'as'
p440
S'portrayed'
p441
S'by'
p442
tp443
F0.005154639175257732
s(g133
g134
S'played'
p444
tp445
F0.005154639175257732
s(S'[[det]]'
p446
S'voiced'
p447
S'by'
p448
tp449
F0.005154639175257732
s(S'[[num]]'
p450
S'performed'
p451
S'by'
p452
tp453
F0.005154639175257732
s(S'had'
p454
S'played'
p455
S'with'
p456
tp457
F0.005154639175257732
s(S'where'
p458
S'played'
p459
S'[[con]]'
p460
tp461
F0.005154639175257732
s(S'was'
p462
S'portrayed'
p463
S'as'
p464
tp465
F0.005154639175257732
s(S'also'
p466
S'played'
p467
S'with'
p468
tp469
F0.005154639175257732
s(S'also'
p470
S'performed'
p471
S'together'
p472
tp473
F0.005154639175257732
s(S'has'
p474
S'played'
p475
S'with'
p476
tp477
F0.005154639175257732
s(S'was'
p478
S'portrayed'
p479
S'by'
p480
tp481
F0.005154639175257732
s(S'where'
p482
S'performed'
p483
S'with'
p484
tp485
F0.005154639175257732
s(S'[[con]]'
p486
S'portrayed'
p487
S'by'
p488
tp489
F0.005154639175257732
s(S'has'
p490
S'performed'
p491
S'by'
p492
tp493
F0.005154639175257732
s(S'have'
p494
S'played'
p495
S'with'
p496
tp497
F0.005154639175257732
s(S'also'
p498
S'played'
p499
S'[[det]]'
p500
tp501
F0.015463917525773196
s(S'played'
p502
S'[[det]]'
p503
S'character'
p504
tp505
F0.020618556701030927
s(S'played'
p506
S'by'
p507
S'actor'
p508
tp509
F0.010309278350515464
s(S'[[con]]'
p510
S'performed'
p511
S'[[det]]'
p512
tp513
F0.005154639175257732
s(S'also'
p514
S'played'
p515
S'before'
p516
tp517
F0.005154639175257732
s(S'also'
p518
S'played'
p519
S'[[adj]]'
p520
tp521
F0.005154639175257732
s(S'[[num]]'
p522
S'performed'
p523
S'with'
p524
tp525
F0.005154639175257732
s(g209
g210
S'by'
p526
tp527
F0.005154639175257732
s(g6
g7
g506
tp528
F0.005154639175257732
s(S'often'
p529
S'played'
p530
S'with'
p531
tp532
F0.005154639175257732
s(S'also'
p533
S'portrayed'
p534
S'by'
p535
tp536
F0.005154639175257732
s(S'often'
p537
S'performed'
p538
S'with'
p539
tp540
F0.005154639175257732
s(S'were'
p541
S'played'
p542
S'by'
p543
tp544
F0.005154639175257732
s(g153
g154
S'by'
p545
tp546
F0.020618556701030927
s(S'has'
p547
S'performed'
p548
S'before'
p549
tp550
F0.005154639175257732
s(g7
g506
g507
tp551
F0.005154639175257732
s(S'has'
p552
S'performed'
p553
S'[[adj]]'
p554
tp555
F0.005154639175257732
s(g297
g208
g209
tp556
F0.005154639175257732
s(S'also'
p557
S'portrayed'
p558
S'[[adj]]'
p559
tp560
F0.005154639175257732
s(S'been'
p561
S'portrayed'
p562
S'in'
p563
tp564
F0.005154639175257732
s(S'[[num]]'
p565
S'played'
p566
S'with'
p567
tp568
F0.005154639175257732
s(g236
g430
S'including'
p569
tp570
F0.010309278350515464
s(S'[[con]]'
p571
S'played'
p572
S'by'
p573
tp574
F0.005154639175257732
s(S'since'
p575
S'performed'
p576
S'with'
p577
tp578
F0.005154639175257732
s(S'also'
p579
S'played'
p580
g77
tp581
F0.005154639175257732
s(S'with'
p582
S'played'
p583
S'by'
p584
tp585
F0.005154639175257732
s(S'has'
p586
S'portrayed'
p587
S'[[adj]]'
p588
tp589
F0.005154639175257732
s(S'often'
p590
S'performed'
p591
S'[[con]]'
p592
tp593
F0.005154639175257732
s(S'also'
p594
S'played'
p595
S'by'
p596
tp597
F0.005154639175257732
s(S'is'
p598
S'portrayed'
p599
S'in'
p600
tp601
F0.005154639175257732
s(S'have'
p602
S'played'
p603
S'[[det]]'
p604
tp605
F0.005154639175257732
s(S'had'
p606
S'played'
p607
S'by'
p608
tp609
F0.005154639175257732
s(S'was'
p610
S'portrayed'
p611
S'with'
p612
tp613
F0.005154639175257732
s(g503
g504
S'in'
p614
tp615
F0.005154639175257732
s(S'[[con]]'
p616
S'performed'
p617
S'on'
p618
tp619
F0.005154639175257732
s.