(dp0
(S'be'
p1
S'appointed'
p2
S'[[det]]'
p3
tp4
F0.0008230452674897119
s(S'is'
p5
S'defeated'
p6
S'[[con]]'
p7
tp8
F0.0008230452674897119
s(S'[[prp]]'
p9
S'son'
p10
S'who'
p11
tp12
F0.0008230452674897119
s(S'younger'
p13
S'son'
p14
S'of'
p15
tp16
F0.0016460905349794238
s(S'be'
p17
S'forced'
p18
S'to'
p19
tp20
F0.0008230452674897119
s(S'is'
p21
S'[[det]]'
p22
S'son'
p23
tp24
F0.0008230452674897119
s(S'[[det]]'
p25
S'youngest'
p26
S'son'
p27
tp28
F0.0008230452674897119
s(S'was'
p29
S'formed'
p30
S'from'
p31
tp32
F0.0008230452674897119
s(S'to'
p33
S'marry'
p34
S'[[adj]]'
p35
tp36
F0.0008230452674897119
s(S'older'
p37
S'brother'
p38
S'to'
p39
tp40
F0.0008230452674897119
s(S'[[con]]'
p41
S'entered'
p42
S'with'
p43
tp44
F0.0008230452674897119
s(S'was'
p45
S'merged'
p46
S'into'
p47
tp48
F0.0008230452674897119
s(S'[[pro]]'
p49
S'son'
p50
S'of'
p51
tp52
F0.0008230452674897119
s(S'had'
p53
S'appointed'
p54
S'in'
p55
tp56
F0.0008230452674897119
s(S'had'
p57
S'succeeded'
p58
S'in'
p59
tp60
F0.0008230452674897119
s(S'later'
p61
S'wrote'
p62
S'that'
p63
tp64
F0.0008230452674897119
s(S'which'
p65
S'wrote'
p66
S'with'
p67
tp68
F0.0008230452674897119
s(S'older'
p69
S'brother'
p70
S'of'
p71
tp72
F0.0008230452674897119
s(S'[[con]]'
p73
S'youngest'
p74
S'son'
p75
tp76
F0.0008230452674897119
s(S'was'
p77
S'[[det]]'
p78
S'eldest'
p79
tp80
F0.0008230452674897119
s(S'[[det]]'
p81
S'son'
p82
S'with'
p83
tp84
F0.0008230452674897119
s(S'[[det]]'
p85
S'father'
p86
S'[[det]]'
p87
tp88
F0.0008230452674897119
s(S'is'
p89
S'son'
p90
S'of'
p91
tp92
F0.0008230452674897119
s(S'was'
p93
S'deposed'
p94
S'as'
p95
tp96
F0.0008230452674897119
s(S'is'
p97
S'born'
p98
S'[[num]]'
p99
tp100
F0.0008230452674897119
s(S'born'
p101
S'in'
p102
S'son'
p103
tp104
F0.0008230452674897119
s(S'[[con]]'
p105
S'suggested'
p106
S'that'
p107
tp108
F0.0008230452674897119
s(S'[[adj]]'
p109
S'brother'
p110
S'in'
p111
tp112
F0.0008230452674897119
s(S'[[adj]]'
p113
S'recognized'
p114
S'by'
p115
tp116
F0.0008230452674897119
s(S'eldest'
p117
S'son'
p118
S'[[adj]]'
p119
tp120
F0.0008230452674897119
s(S'assistant'
p121
S'to'
p122
S'[[det]]'
p123
tp124
F0.0008230452674897119
s(S'born'
p125
S'on'
p126
S'[[adj]]'
p127
tp128
F0.0008230452674897119
s(S'at'
p129
S'[[det]]'
p130
S'eldest'
p131
tp132
F0.0008230452674897119
s(S'at'
p133
S'[[det]]'
p134
S'son'
p135
tp136
F0.0008230452674897119
s(S'by'
p137
S'winning'
p138
S'[[det]]'
p139
tp140
F0.0008230452674897119
s(S'[[det]]'
p141
S'throne'
p142
S'as'
p143
tp144
F0.0008230452674897119
s(S'was'
p145
S'commissioned'
p146
S'for'
p147
tp148
F0.0008230452674897119
s(S'[[adj]]'
p149
S'king'
p150
S'[[con]]'
p151
tp152
F0.0008230452674897119
s(S's'
p153
S'defeated'
p154
S'[[num]]'
p155
tp156
F0.0008230452674897119
s(g153
S'brother'
p157
S'of'
p158
tp159
F0.0008230452674897119
s(S'[[det]]'
p160
S'brother'
p161
S'of'
p162
tp163
F0.00411522633744856
s(S'had'
p164
S'killed'
p165
S'[[adj]]'
p166
tp167
F0.0008230452674897119
s(S'[[det]]'
p168
S'son'
p169
S'by'
p170
tp171
F0.0008230452674897119
s(S'been'
p172
S'recognized'
p173
S'in'
p174
tp175
F0.0008230452674897119
s(S'[[det]]'
p176
S'throne'
p177
S'[[con]]'
p178
tp179
F0.0008230452674897119
s(S'[[num]]'
p180
S'led'
p181
S'by'
p182
tp183
F0.0008230452674897119
s(S'first'
p184
S'came'
p185
S'as'
p186
tp187
F0.0008230452674897119
s(g153
S'mother'
p188
S'that'
p189
tp190
F0.0008230452674897119
s(g153
S'brother'
p191
S'who'
p192
tp193
F0.0008230452674897119
s(S'was'
p194
S'succeeded'
p195
S'in'
p196
tp197
F0.0008230452674897119
s(g153
S'older'
p198
S'brother'
p199
tp200
F0.0024691358024691358
s(S'born'
p201
g21
g22
tp202
F0.0008230452674897119
s(S'been'
p203
S'appointed'
p204
S'by'
p205
tp206
F0.0008230452674897119
s(S'who'
p207
S'led'
p208
S'for'
p209
tp210
F0.0008230452674897119
s(S'son'
p211
S'who'
p212
S'[[det]]'
p213
tp214
F0.0008230452674897119
s(S'[[prp]]'
p215
S'father'
p216
S'as'
p217
tp218
F0.0024691358024691358
s(S'also'
p219
S'lost'
p220
S'to'
p221
tp222
F0.0008230452674897119
s(S'were'
p223
S'replaced'
p224
S'with'
p225
tp226
F0.0008230452674897119
s(S'was'
p227
S'merged'
p228
S'to'
p229
tp230
F0.0008230452674897119
s(S'by'
p231
S'[[prp]]'
p232
S'father'
p233
tp234
F0.0008230452674897119
s(S'is'
p235
S'sold'
p236
S'as'
p237
tp238
F0.0008230452674897119
s(S'[[prp]]'
p239
S'son'
p240
S'by'
p241
tp242
F0.0008230452674897119
s(S'when'
p243
S'wrote'
p244
S'to'
p245
tp246
F0.0008230452674897119
s(S'is'
p247
S'killed'
p248
S'by'
p249
tp250
F0.0008230452674897119
s(S'[[con]]'
p251
S'defeated'
p252
S'[[det]]'
p253
tp254
F0.0008230452674897119
s(S'had'
p255
S'heard'
p256
S'about'
p257
tp258
F0.0008230452674897119
s(S'also'
p259
S'commissioned'
p260
S'to'
p261
tp262
F0.0008230452674897119
s(g153
S'younger'
p263
S'brother'
p264
tp265
F0.0032921810699588477
s(S'was'
p266
S'sold'
p267
S'as'
p268
tp269
F0.0008230452674897119
s(S'was'
p270
S'born'
p271
S'at'
p272
tp273
F0.0032921810699588477
s(S'had'
p274
S'succeeded'
p275
S'[[prp]]'
p276
tp277
F0.0008230452674897119
s(S'[[adj]]'
p278
S'cousin'
p279
S'of'
p280
tp281
F0.0008230452674897119
s(S'first'
p282
S'heard'
p283
S'of'
p284
tp285
F0.0008230452674897119
s(S'died'
p286
S'[[con]]'
p287
S'succeeded'
p288
tp289
F0.0024691358024691358
s(S'oldest'
p290
S'son'
p291
S'[[det]]'
p292
tp293
F0.0008230452674897119
s(S'is'
p294
S'cousin'
p295
S'of'
p296
tp297
F0.0008230452674897119
s(g122
g123
S'winter'
p298
tp299
F0.0008230452674897119
s(S'eldest'
p300
S'[[adj]]'
p301
S'son'
p302
tp303
F0.0008230452674897119
s(S'[[det]]'
p304
S'cousin'
p305
S'who'
p306
tp307
F0.0008230452674897119
s(S'be'
p308
S'recognized'
p309
S'as'
p310
tp311
F0.0008230452674897119
s(S'also'
p312
S'appointed'
p313
S'[[con]]'
p314
tp315
F0.0008230452674897119
s(S'was'
p316
S'heard'
p317
S'as'
p318
tp319
F0.0008230452674897119
s(S'[[det]]'
p320
S'son'
p321
S'to'
p322
tp323
F0.0008230452674897119
s(S'[[pro]]'
p324
S'younger'
p325
S'brother'
p326
tp327
F0.0008230452674897119
s(S'been'
p328
S'killed'
p329
S'by'
p330
tp331
F0.0008230452674897119
s(S'[[det]]'
p332
S'cousin'
p333
S'of'
p334
tp335
F0.0008230452674897119
s(S'brother'
p336
S'[[con]]'
p337
S'father'
p338
tp339
F0.0008230452674897119
s(S'[[prp]]'
p340
S'father'
p341
S'[[num]]'
p342
tp343
F0.0008230452674897119
s(S'was'
p344
S'kept'
p345
S'by'
p346
tp347
F0.0008230452674897119
s(S'[[adj]]'
p348
S'son'
p349
S'in'
p350
tp351
F0.0008230452674897119
s(S'passed'
p352
S'[[con]]'
p353
S'set'
p354
tp355
F0.0008230452674897119
s(S'was'
p356
S'convinced'
p357
S'that'
p358
tp359
F0.0008230452674897119
s(S'succeeds'
p360
S'[[prp]]'
p361
S'father'
p362
tp363
F0.0024691358024691358
s(S'born'
p364
S'[[det]]'
p365
S'son'
p366
tp367
F0.0008230452674897119
s(g153
S'death'
p368
S'[[det]]'
p369
tp370
F0.0008230452674897119
s(S'[[det]]'
p371
S'sons'
p372
S'of'
p373
tp374
F0.0008230452674897119
s(g212
g213
S'grandson'
p375
tp376
F0.0008230452674897119
s(S'is'
p377
S'brother'
p378
S'of'
p379
tp380
F0.0008230452674897119
s(S'of'
p381
S'born'
p382
S'[[num]]'
p383
tp384
F0.0008230452674897119
s(g361
g362
S'[[pro]]'
p385
tp386
F0.0008230452674897119
s(S'[[det]]'
p387
S'son'
p388
S'born'
p389
tp390
F0.0008230452674897119
s(S'[[adj]]'
p391
S'father'
p392
S'in'
p393
tp394
F0.0008230452674897119
s(S'is'
p395
S'brother'
p396
S'to'
p397
tp398
F0.0008230452674897119
s(S'on'
p399
S'[[det]]'
p400
S'son'
p401
tp402
F0.0008230452674897119
s(S'[[det]]'
p403
S'cousin'
p404
S'[[con]]'
p405
tp406
F0.0008230452674897119
s(S'[[prp]]'
p407
S'cousin'
p408
S'[[con]]'
p409
tp410
F0.0008230452674897119
s(S'[[adj]]'
p411
S'heard'
p412
S'of'
p413
tp414
F0.0008230452674897119
s(S'[[det]]'
p415
S'child'
p416
S'[[con]]'
p417
tp418
F0.0008230452674897119
s(S'had'
p419
S'appointed'
p420
S'as'
p421
tp422
F0.0008230452674897119
s(S'[[num]]'
p423
S'[[det]]'
p424
S'eldest'
p425
tp426
F0.0008230452674897119
s(S'[[con]]'
p427
S'wife'
p428
S'of'
p429
tp430
F0.0008230452674897119
s(S'to'
p431
S'replace'
p432
S'as'
p433
tp434
F0.0008230452674897119
s(S'was'
p435
S'kept'
p436
S'out'
p437
tp438
F0.0008230452674897119
s(S'born'
p439
S'in'
p440
S'[[adj]]'
p441
tp442
F0.0016460905349794238
s(S'[[num]]'
p443
S'sons'
p444
S'who'
p445
tp446
F0.0008230452674897119
s(S'[[mod]]'
p447
S'serve'
p448
S'under'
p449
tp450
F0.0008230452674897119
s(S'[[det]]'
p451
S'son'
p452
S'was'
p453
tp454
F0.0008230452674897119
s(S'also'
p455
S'wrote'
p456
S'[[num]]'
p457
tp458
F0.0008230452674897119
s(S'[[con]]'
p459
S'wrote'
p460
S'[[det]]'
p461
tp462
F0.0008230452674897119
s(S'became'
p463
S'king'
p464
S'[[con]]'
p465
tp466
F0.0008230452674897119
s(S'[[con]]'
p467
S'lost'
p468
S'with'
p469
tp470
F0.0008230452674897119
s(S'were'
p471
S'killed'
p472
S'by'
p473
tp474
F0.0008230452674897119
s(S'[[mod]]'
p475
S'serve'
p476
S'in'
p477
tp478
F0.0008230452674897119
s(S'[[con]]'
p479
S'merged'
p480
S'with'
p481
tp482
F0.0008230452674897119
s(g153
S'reign'
p483
S'[[con]]'
p484
tp485
F0.0008230452674897119
s(S'by'
p486
S'merger'
p487
S'of'
p488
tp489
F0.0008230452674897119
s(S'later'
p490
S'wrote'
p491
S'[[adj]]'
p492
tp493
F0.0008230452674897119
s(S'to'
p494
S'serve'
p495
S'[[num]]'
p496
tp497
F0.0008230452674897119
s(g153
S'son'
p498
S'as'
p499
tp500
F0.0008230452674897119
s(S'to'
p501
S'replace'
p502
S'[[con]]'
p503
tp504
F0.0008230452674897119
s(S'was'
p505
S'killed'
p506
S'after'
p507
tp508
F0.0008230452674897119
s(S'be'
p509
S'crowned'
p510
S'as'
p511
tp512
F0.0008230452674897119
s(S'son'
p513
S'[[det]]'
p514
S'younger'
p515
tp516
F0.0016460905349794238
s(S'[[pro]]'
p517
S'came'
p518
S'to'
p519
tp520
F0.0008230452674897119
s(S'[[pro]]'
p521
S'defeated'
p522
S'[[con]]'
p523
tp524
F0.0008230452674897119
s(S'[[mod]]'
p525
S'replace'
p526
S'[[con]]'
p527
tp528
F0.0008230452674897119
s(S'brother'
p529
S'[[con]]'
p530
S'[[det]]'
p531
tp532
F0.0032921810699588477
s(S'[[pro]]'
p533
S'son'
p534
S'as'
p535
tp536
F0.0008230452674897119
s(S'younger'
p537
S'brother'
p538
S'[[pro]]'
p539
tp540
F0.0008230452674897119
s(S'younger'
p541
S'son'
p542
S'[[con]]'
p543
tp544
F0.0008230452674897119
s(S'son'
p545
S'[[con]]'
p546
S'younger'
p547
tp548
F0.0016460905349794238
s(S'in'
p549
S'[[num]]'
p550
S'son'
p551
tp552
F0.0008230452674897119
s(S'[[det]]'
p553
S'title'
p554
S'of'
p555
tp556
F0.0024691358024691358
s(S'[[prp]]'
p557
S'son'
p558
S'is'
p559
tp560
F0.0008230452674897119
s(S'which'
p561
S'wrote'
p562
S'that'
p563
tp564
F0.0008230452674897119
s(S'[[det]]'
p565
S'son'
p566
S'of'
p567
tp568
F0.01728395061728395
s(S'[[num]]'
p569
S'wrote'
p570
S'on'
p571
tp572
F0.0008230452674897119
s(S'of'
p573
S'[[prp]]'
p574
S'father'
p575
tp576
F0.0008230452674897119
s(S'where'
p577
S'came'
p578
S'across'
p579
tp580
F0.0008230452674897119
s(S'also'
p581
S'wrote'
p582
S'at'
p583
tp584
F0.0008230452674897119
s(S'when'
p585
S'lost'
p586
S'to'
p587
tp588
F0.0008230452674897119
s(S'son'
p589
S'grandson'
p590
S'of'
p591
tp592
F0.0008230452674897119
s(S'once'
p593
S'wrote'
p594
S'that'
p595
tp596
F0.0008230452674897119
s(S'was'
p597
S'killed'
p598
S'while'
p599
tp600
F0.0008230452674897119
s(S'born'
p601
g549
g550
tp602
F0.0008230452674897119
s(g126
g127
S'son'
p603
tp604
F0.0008230452674897119
s(S'be'
p605
S'killed'
p606
S'by'
p607
tp608
F0.0008230452674897119
s(S'eldest'
p609
S'son'
p610
S'[[con]]'
p611
tp612
F0.0024691358024691358
s(S'was'
p613
S'appointed'
p614
S'first'
p615
tp616
F0.0008230452674897119
s(S'was'
p617
S'appointed'
p618
S'by'
p619
tp620
F0.0008230452674897119
s(g271
g272
S'son'
p621
tp622
F0.0008230452674897119
s(S'[[det]]'
p623
S'death'
p624
S'[[con]]'
p625
tp626
F0.0008230452674897119
s(g153
S'brother'
p627
S'[[pro]]'
p628
tp629
F0.0008230452674897119
s(S'[[con]]'
p630
S'ahead'
p631
S'of'
p632
tp633
F0.0008230452674897119
s(S'born'
p634
S'was'
p635
S'[[det]]'
p636
tp637
F0.0016460905349794238
s(S'getting'
p638
S'ahead'
p639
S'of'
p640
tp641
F0.0008230452674897119
s(S'later'
p642
S'wrote'
p643
S'[[num]]'
p644
tp645
F0.0008230452674897119
s(S'then'
p646
S'appointed'
p647
S'[[det]]'
p648
tp649
F0.0008230452674897119
s(S'has'
p650
S'suggested'
p651
S'that'
p652
tp653
F0.0008230452674897119
s(g272
g621
S'of'
p654
tp655
F0.0008230452674897119
s(S'which'
p656
S'led'
p657
S'to'
p658
tp659
F0.0008230452674897119
s(S'was'
p660
S'merged'
p661
S'with'
p662
tp663
F0.0008230452674897119
s(S'older'
p664
S'brother'
p665
S'[[con]]'
p666
tp667
F0.0024691358024691358
s(S'also'
p668
S'wrote'
p669
S'of'
p670
tp671
F0.0008230452674897119
s(S'in'
p672
S'was'
p673
S'followed'
p674
tp675
F0.0008230452674897119
s(S'[[num]]'
p676
S'sons'
p677
S'[[num]]'
p678
tp679
F0.0008230452674897119
s(S'[[num]]'
p680
S'son'
p681
S'who'
p682
tp683
F0.0008230452674897119
s(S'was'
p684
S'appointed'
p685
S'[[det]]'
p686
tp687
F0.0008230452674897119
s(S'whose'
p688
S'father'
p689
S'was'
p690
tp691
F0.0008230452674897119
s(S'[[adj]]'
p692
S'eldest'
p693
S'son'
p694
tp695
F0.0016460905349794238
s(g153
S'son'
p696
S'[[pro]]'
p697
tp698
F0.0008230452674897119
s(S'also'
p699
S'wrote'
p700
S'under'
p701
tp702
F0.0008230452674897119
s(S'[[con]]'
p703
S'merged'
p704
S'into'
p705
tp706
F0.0008230452674897119
s(S'worked'
p707
S'as'
p708
S'[[det]]'
p709
tp710
F0.0008230452674897119
s(S'was'
p711
S'replaced'
p712
S'to'
p713
tp714
F0.0008230452674897119
s(S'son'
p715
g336
g337
tp716
F0.0008230452674897119
s(S'[[adj]]'
p717
S'father'
p718
S'[[con]]'
p719
tp720
F0.0008230452674897119
s(S'was'
p721
S'appointed'
p722
S'as'
p723
tp724
F0.0008230452674897119
s(S'born'
p725
S'[[num]]'
p726
S'born'
p727
tp728
F0.0008230452674897119
s(S'[[adj]]'
p729
S'wife'
p730
S'to'
p731
tp732
F0.0008230452674897119
s(S'also'
p733
S'wrote'
p734
S'[[adj]]'
p735
tp736
F0.0008230452674897119
s(S'son'
p737
S'of'
p738
S'[[prp]]'
p739
tp740
F0.0008230452674897119
s(S'was'
p741
S'son'
p742
S'to'
p743
tp744
F0.0008230452674897119
s(g153
S'son'
p745
S'whom'
p746
tp747
F0.0008230452674897119
s(S'were'
p748
S'merged'
p749
S'into'
p750
tp751
F0.0008230452674897119
s(S'eldest'
p752
S'son'
p753
S'of'
p754
tp755
F0.007407407407407408
s(g30
g31
S'[[det]]'
p756
tp757
F0.0008230452674897119
s(g153
S'death'
p758
S'in'
p759
tp760
F0.0008230452674897119
s(g153
S'death'
p761
S'when'
p762
tp763
F0.0008230452674897119
s(S'with'
p764
S'[[det]]'
p765
S'merger'
p766
tp767
F0.0016460905349794238
s(S'[[det]]'
p768
S'grandson'
p769
S'[[det]]'
p770
tp771
F0.0016460905349794238
s(S'had'
p772
S'defeated'
p773
S'[[adj]]'
p774
tp775
F0.0008230452674897119
s(S'[[con]]'
p776
S'lost'
p777
S'to'
p778
tp779
F0.0008230452674897119
s(S'in'
p780
S'[[det]]'
p781
S'son'
p782
tp783
F0.0049382716049382715
s(S'formed'
p784
S'as'
p785
S'[[det]]'
p786
tp787
F0.0008230452674897119
s(S'son'
p788
S'[[con]]'
p789
g160
tp790
F0.006584362139917695
s(S'[[adj]]'
p791
S'ahead'
p792
S'of'
p793
tp794
F0.0008230452674897119
s(g153
S'sons'
p795
S'[[con]]'
p796
tp797
F0.0008230452674897119
s(S'becomes'
p798
S'convinced'
p799
S'that'
p800
tp801
F0.0008230452674897119
s(S'brother'
p802
S'[[con]]'
p803
S'younger'
p804
tp805
F0.0008230452674897119
s(S'[[det]]'
p806
S'oldest'
p807
S'son'
p808
tp809
F0.0008230452674897119
s(S'[[prp]]'
p810
S'father'
p811
S'in'
p812
tp813
F0.0008230452674897119
s(S'was'
p814
S'succeeded'
p815
S'to'
p816
tp817
F0.0008230452674897119
s(S'then'
p818
S'appointed'
p819
S'[[con]]'
p820
tp821
F0.0008230452674897119
s(S'[[adj]]'
p822
S'wife'
p823
S'of'
p824
tp825
F0.0008230452674897119
s(S'son'
p826
S'[[det]]'
p827
S'widower'
p828
tp829
F0.0008230452674897119
s(S'was'
p830
S'crowned'
p831
S'[[con]]'
p832
tp833
F0.0008230452674897119
s(S'was'
p834
S'forced'
p835
S'by'
p836
tp837
F0.0008230452674897119
s(S'brother'
p838
S'[[det]]'
p839
S'son'
p840
tp841
F0.0016460905349794238
s(g139
S'match'
p842
S'at'
p843
tp844
F0.0008230452674897119
s(S'[[mod]]'
p845
S'serve'
p846
S'as'
p847
tp848
F0.0008230452674897119
s(S'was'
p849
S'born'
p850
S'[[det]]'
p851
tp852
F0.0024691358024691358
s(S'[[adj]]'
p853
S'son'
p854
S'born'
p855
tp856
F0.0008230452674897119
s(S'near'
p857
S'[[det]]'
p858
S'son'
p859
tp860
F0.0008230452674897119
s(S'was'
p861
S'defeated'
p862
S'by'
p863
tp864
F0.0008230452674897119
s(S'was'
p865
S'commissioned'
p866
S'by'
p867
tp868
F0.0008230452674897119
s(S'who'
p869
S'killed'
p870
S'[[num]]'
p871
tp872
F0.0008230452674897119
s(S'[[mod]]'
p873
S'marry'
p874
S'[[prp]]'
p875
tp876
F0.0008230452674897119
s(S'[[prp]]'
p877
S'son'
p878
S'to'
p879
tp880
F0.0008230452674897119
s(S'being'
p881
S'appointed'
p882
S'to'
p883
tp884
F0.0008230452674897119
s(g854
g855
S'to'
p885
tp886
F0.0008230452674897119
s(S'also'
p887
S'succeeded'
p888
g215
tp889
F0.0008230452674897119
s(S'[[det]]'
p890
S'county'
p891
S'margin'
p892
tp893
F0.0008230452674897119
s(g153
S'son'
p894
S'[[det]]'
p895
tp896
F0.0008230452674897119
s(g440
g441
S'son'
p897
tp898
F0.0016460905349794238
s(S'then'
p899
S'appointed'
p900
S'by'
p901
tp902
F0.0008230452674897119
s(S'[[num]]'
p903
S'son'
p904
S'born'
p905
tp906
F0.0008230452674897119
s(S'is'
p907
S'succeeded'
p908
S'by'
p909
tp910
F0.0008230452674897119
s(S'[[prp]]'
p911
S'brother'
p912
S'[[det]]'
p913
tp914
F0.0008230452674897119
s(S'was'
p915
S'killed'
p916
S'along'
p917
tp918
F0.0008230452674897119
s(S'is'
p919
S'appointed'
p920
S'after'
p921
tp922
F0.0008230452674897119
s(S'born'
p923
S'[[num]]'
p924
S'[[det]]'
p925
tp926
F0.0016460905349794238
s(S'[[adj]]'
p927
S'oldest'
p928
S'son'
p929
tp930
F0.0008230452674897119
s(S'[[det]]'
p931
S'reign'
p932
S'of'
p933
tp934
F0.0008230452674897119
s(S'was'
p935
S'granted'
p936
S'[[det]]'
p937
tp938
F0.0024691358024691358
s(S'[[det]]'
p939
S'lead'
p940
S'with'
p941
tp942
F0.0008230452674897119
s(S'however'
p943
S'lost'
p944
S'to'
p945
tp946
F0.0008230452674897119
s(S'was'
p947
S'succeeded'
p948
S'on'
p949
tp950
F0.0008230452674897119
s(S'also'
p951
S'defeated'
p952
S'[[num]]'
p953
tp954
F0.0008230452674897119
s(S'also'
p955
S'came'
p956
S'[[adj]]'
p957
tp958
F0.0008230452674897119
s(S'[[pro]]'
p959
S'came'
p960
S'through'
p961
tp962
F0.0008230452674897119
s(S'has'
p963
S'lost'
p964
S'to'
p965
tp966
F0.0008230452674897119
s(S'[[det]]'
p967
S'son'
p968
S'later'
p969
tp970
F0.0008230452674897119
s(S'born'
p971
g399
g400
tp972
F0.0008230452674897119
s(S'younger'
p973
S'son'
p974
S'was'
p975
tp976
F0.0008230452674897119
s(S'[[con]]'
p977
S'was'
p978
S'born'
p979
tp980
F0.0008230452674897119
s(S'[[det]]'
p981
S'grandson'
p982
S'son'
p983
tp984
F0.0008230452674897119
s(S'with'
p985
S'younger'
p986
S'brother'
p987
tp988
F0.0008230452674897119
s(g153
S'reign'
p989
S'as'
p990
tp991
F0.0008230452674897119
s(S'[[con]]'
p992
S'defeated'
p993
S'[[adj]]'
p994
tp995
F0.0008230452674897119
s(S'born'
p996
S'in'
p997
S'as'
p998
tp999
F0.0008230452674897119
s(S'succeeded'
p1000
g231
g232
tp1001
F0.0008230452674897119
s(S'[[adj]]'
p1002
S'son'
p1003
S'with'
p1004
tp1005
F0.0008230452674897119
s(S'then'
p1006
S'succeeded'
p1007
S'by'
p1008
tp1009
F0.0008230452674897119
s(S'now'
p1010
S'led'
p1011
S'from'
p1012
tp1013
F0.0008230452674897119
s(S'[[prp]]'
p1014
S'son'
p1015
S'with'
p1016
tp1017
F0.0008230452674897119
s(S'to'
p1018
S'serve'
p1019
S'[[adj]]'
p1020
tp1021
F0.0008230452674897119
s(S'born'
p1022
S'at'
p1023
S'[[adj]]'
p1024
tp1025
F0.0008230452674897119
s(S'eldest'
p1026
S'son'
p1027
S'[[num]]'
p1028
tp1029
F0.0008230452674897119
s(S'is'
p1030
S'killed'
p1031
S'while'
p1032
tp1033
F0.0008230452674897119
s(g827
g828
S'[[det]]'
p1034
tp1035
F0.0008230452674897119
s(S'[[det]]'
p1036
g69
g70
tp1037
F0.00411522633744856
s(S'later'
p1038
S'appointed'
p1039
S'by'
p1040
tp1041
F0.0008230452674897119
s(S'[[det]]'
p1042
S'son'
p1043
S'[[con]]'
p1044
tp1045
F0.012345679012345678
s(S'[[det]]'
p1046
S'wife'
p1047
S'of'
p1048
tp1049
F0.0008230452674897119
s(S'was'
p1050
S'born'
p1051
S'into'
p1052
tp1053
F0.0008230452674897119
s(S'older'
p1054
S'brother'
p1055
S'[[num]]'
p1056
tp1057
F0.0008230452674897119
s(S'also'
p1058
S'killed'
p1059
S'[[con]]'
p1060
tp1061
F0.0008230452674897119
s(S'was'
p1062
S'father'
p1063
S'to'
p1064
tp1065
F0.0008230452674897119
s(S'[[mod]]'
p1066
S'serve'
p1067
S'with'
p1068
tp1069
F0.0008230452674897119
s(g153
S'grandson'
p1070
S'[[det]]'
p1071
tp1072
F0.0008230452674897119
s(S'was'
p1073
S'deposed'
p1074
S'by'
p1075
tp1076
F0.0008230452674897119
s(S'[[num]]'
p1077
S'child'
p1078
S'with'
p1079
tp1080
F0.0008230452674897119
s(S'which'
p1081
S'lost'
p1082
S'to'
p1083
tp1084
F0.0008230452674897119
s(S'[[prp]]'
p1085
S'father'
p1086
g153
tp1087
F0.0008230452674897119
s(S'were'
p1088
S'defeated'
p1089
S'by'
p1090
tp1091
F0.0008230452674897119
s(S'is'
p1092
S'appointed'
p1093
S'[[det]]'
p1094
tp1095
F0.0008230452674897119
s(g153
S'father'
p1096
S'[[det]]'
p1097
tp1098
F0.0008230452674897119
s(S'[[con]]'
p1099
S'grandson'
p1100
S'[[con]]'
p1101
tp1102
F0.0008230452674897119
s(S'[[adj]]'
p1103
S'child'
p1104
S'[[con]]'
p1105
tp1106
F0.0008230452674897119
s(S'again'
p1107
S'defeated'
p1108
S'[[con]]'
p1109
tp1110
F0.0008230452674897119
s(S'also'
p1111
S'came'
p1112
S'with'
p1113
tp1114
F0.0008230452674897119
s(S'[[adj]]'
p1115
S'son'
p1116
S'of'
p1117
tp1118
F0.009876543209876543
s(S'[[prp]]'
p1119
S'son'
p1120
S'born'
p1121
tp1122
F0.0008230452674897119
s(S'formed'
p1123
S'through'
p1124
S'[[det]]'
p1125
tp1126
F0.0008230452674897119
s(S'younger'
p1127
S'brother'
p1128
S'of'
p1129
tp1130
F0.006584362139917695
s(S'was'
p1131
S'killed'
p1132
S'as'
p1133
tp1134
F0.0008230452674897119
s(S'[[det]]'
p1135
S'grandson'
p1136
S'[[con]]'
p1137
tp1138
F0.0032921810699588477
s(S'later'
p1139
S'succeeded'
p1140
S'as'
p1141
tp1142
F0.0008230452674897119
s(g153
S'father'
p1143
S'as'
p1144
tp1145
F0.0008230452674897119
s(g673
g674
S'by'
p1146
tp1147
F0.0008230452674897119
s(S'then'
p1148
S'succeeded'
p1149
S'as'
p1150
tp1151
F0.0008230452674897119
s(S'[[con]]'
p1152
S'lost'
p1153
S'[[det]]'
p1154
tp1155
F0.0008230452674897119
s(g153
S'wife'
p1156
S'[[det]]'
p1157
tp1158
F0.0008230452674897119
s(S'also'
p1159
S'commissioned'
p1160
S'by'
p1161
tp1162
F0.0008230452674897119
s(S'near'
p1163
S'[[adj]]'
p1164
S'son'
p1165
tp1166
F0.0008230452674897119
s(S'had'
p1167
S'lost'
p1168
S'[[det]]'
p1169
tp1170
F0.0008230452674897119
s(S'was'
p1171
S'merged'
p1172
S'[[con]]'
p1173
tp1174
F0.0008230452674897119
s(S'[[prp]]'
p1175
S'father'
p1176
S'[[det]]'
p1177
tp1178
F0.0008230452674897119
s(S'[[con]]'
p1179
S'appointed'
p1180
S'as'
p1181
tp1182
F0.0008230452674897119
s(S'[[adj]]'
p1183
S'power'
p1184
S'[[con]]'
p1185
tp1186
F0.0008230452674897119
s(S'also'
p1187
S'appointed'
p1188
S'as'
p1189
tp1190
F0.0008230452674897119
s(S'be'
p1191
S'succeeded'
p1192
S'by'
p1193
tp1194
F0.0008230452674897119
s(S'born'
p1195
S'as'
p1196
S'[[adj]]'
p1197
tp1198
F0.0008230452674897119
s(S'is'
p1199
S'cousin'
p1200
S'to'
p1201
tp1202
F0.0008230452674897119
s(S'be'
p1203
S'appointed'
p1204
S'to'
p1205
tp1206
F0.0008230452674897119
s(S'was'
p1207
S'brother'
p1208
S'[[con]]'
p1209
tp1210
F0.0008230452674897119
s(S'eldest'
p1211
S'son'
p1212
S'[[det]]'
p1213
tp1214
F0.0016460905349794238
s(S'to'
p1215
S'serve'
p1216
S'[[con]]'
p1217
tp1218
F0.0008230452674897119
s(S'[[det]]'
p1219
S'son'
p1220
S'brother'
p1221
tp1222
F0.0024691358024691358
s(S'is'
p1223
S'killed'
p1224
S'[[con]]'
p1225
tp1226
F0.0008230452674897119
s(S'[[num]]'
p1227
S'older'
p1228
S'brother'
p1229
tp1230
F0.0008230452674897119
s(S'[[adj]]'
p1231
S'cousin'
p1232
S'[[con]]'
p1233
tp1234
F0.0008230452674897119
s(S'[[con]]'
p1235
S'[[det]]'
p1236
S'grandson'
p1237
tp1238
F0.0032921810699588477
s(S'to'
p1239
S'succeed'
p1240
S'[[det]]'
p1241
tp1242
F0.0008230452674897119
s(S'born'
p1243
S'on'
p1244
S'[[num]]'
p1245
tp1246
F0.0008230452674897119
s(S'was'
p1247
S'born'
p1248
g77
tp1249
F0.0008230452674897119
s(S'son'
p1250
S'[[con]]'
p1251
S'brother'
p1252
tp1253
F0.0049382716049382715
s(S'then'
p1254
S'defeated'
p1255
S'[[con]]'
p1256
tp1257
F0.0008230452674897119
s(g153
S'father'
p1258
S'[[con]]'
p1259
tp1260
F0.0008230452674897119
s(S'was'
p1261
S'killed'
p1262
S'[[con]]'
p1263
tp1264
F0.0008230452674897119
s(S'[[pro]]'
p1265
g553
g554
tp1266
F0.0008230452674897119
s(S'being'
p1267
S'succeeded'
p1268
S'by'
p1269
tp1270
F0.0008230452674897119
s(S'[[det]]'
p1271
S'reign'
p1272
S'[[con]]'
p1273
tp1274
F0.0008230452674897119
s(S'had'
p1275
S'lost'
p1276
S'to'
p1277
tp1278
F0.0008230452674897119
s(S'[[det]]'
p1279
g589
g590
tp1280
F0.0008230452674897119
s(S'[[det]]'
p1281
S'son'
p1282
S'who'
p1283
tp1284
F0.0024691358024691358
s(g635
g636
S'son'
p1285
tp1286
F0.0008230452674897119
s(S'born'
p1287
S'[[con]]'
p1288
S'[[det]]'
p1289
tp1290
F0.0024691358024691358
s(S'then'
p1291
S'defeated'
p1292
S'by'
p1293
tp1294
F0.0008230452674897119
s(S'is'
p1295
S'killed'
p1296
S'after'
p1297
tp1298
F0.0008230452674897119
s(S'been'
p1299
S'formed'
p1300
S'with'
p1301
tp1302
F0.0008230452674897119
s(S'[[adj]]'
p1303
S'father'
p1304
S'of'
p1305
tp1306
F0.0008230452674897119
s(S'[[con]]'
p1307
S'lost'
p1308
S'[[num]]'
p1309
tp1310
F0.0008230452674897119
s(S'[[det]]'
p1311
S'throne'
p1312
S'to'
p1313
tp1314
F0.0008230452674897119
s(S'[[det]]'
p1315
S'father'
p1316
S'[[con]]'
p1317
tp1318
F0.0008230452674897119
s(S'[[pro]]'
p1319
S'death'
p1320
S'[[con]]'
p1321
tp1322
F0.0008230452674897119
s(S'was'
p1323
S'killed'
p1324
S'by'
p1325
tp1326
F0.0008230452674897119
s(g851
S'[[adj]]'
p1327
S'son'
p1328
tp1329
F0.0008230452674897119
s(S'being'
p1330
S'defeated'
p1331
S'by'
p1332
tp1333
F0.0008230452674897119
s(S'be'
p1334
S'heard'
p1335
S'in'
p1336
tp1337
F0.0008230452674897119
s(S'son'
p1338
S'of'
p1339
S'[[con]]'
p1340
tp1341
F0.0008230452674897119
s(S'to'
p1342
S'serve'
p1343
S'under'
p1344
tp1345
F0.0008230452674897119
s(S'to'
p1346
S'replace'
p1347
S'[[adj]]'
p1348
tp1349
F0.0008230452674897119
s(S'of'
p1350
S'led'
p1351
S'by'
p1352
tp1353
F0.0008230452674897119
s(S'son'
p1354
S'[[det]]'
p1355
S'grandson'
p1356
tp1357
F0.0008230452674897119
s(S'[[con]]'
p1358
S'lost'
p1359
S'out'
p1360
tp1361
F0.0008230452674897119
s(S'[[mod]]'
p1362
S'serve'
p1363
S'to'
p1364
tp1365
F0.0008230452674897119
s(S'[[adj]]'
p1366
S'wife'
p1367
S'in'
p1368
tp1369
F0.0008230452674897119
s(S'then'
p1370
S'wrote'
p1371
S'to'
p1372
tp1373
F0.0008230452674897119
s(S'was'
p1374
S'brother'
p1375
S'of'
p1376
tp1377
F0.0008230452674897119
s(S'son'
p1378
S'[[con]]'
p1379
S'grandson'
p1380
tp1381
F0.00411522633744856
s(S'[[con]]'
p1382
S'came'
p1383
S'with'
p1384
tp1385
F0.0008230452674897119
s(S'[[det]]'
p1386
S'cousin'
p1387
S'to'
p1388
tp1389
F0.0008230452674897119
s(g153
S'mother'
p1390
S'of'
p1391
tp1392
F0.0008230452674897119
s(S'was'
p1393
S'kept'
p1394
S'on'
p1395
tp1396
F0.0008230452674897119
s(S'[[prp]]'
p1397
S'wife'
p1398
S'as'
p1399
tp1400
F0.0008230452674897119
s(S'[[det]]'
p1401
S'king'
p1402
g153
tp1403
F0.0008230452674897119
s(S'was'
p1404
S'son'
p1405
S'[[con]]'
p1406
tp1407
F0.0024691358024691358
s(S'was'
p1408
S'wife'
p1409
S'of'
p1410
tp1411
F0.0008230452674897119
s(S'to'
p1412
S'succeed'
p1413
S'[[pro]]'
p1414
tp1415
F0.0008230452674897119
s(S'was'
p1416
S'grandson'
p1417
S'to'
p1418
tp1419
F0.0008230452674897119
s(S'took'
p1420
S'[[det]]'
p1421
S'lead'
p1422
tp1423
F0.0016460905349794238
s(S'to'
p1424
S'marry'
p1425
S'[[pro]]'
p1426
tp1427
F0.0008230452674897119
s(S'also'
p1428
S'lost'
p1429
S'with'
p1430
tp1431
F0.0008230452674897119
s(S'[[det]]'
p1432
S'father'
p1433
S'to'
p1434
tp1435
F0.0008230452674897119
s(S'also'
p1436
S'appointed'
p1437
S'[[adj]]'
p1438
tp1439
F0.0008230452674897119
s(S'was'
p1440
S'appointed'
p1441
S'when'
p1442
tp1443
F0.0008230452674897119
s(S'[[pro]]'
p1444
S'entered'
p1445
S'[[det]]'
p1446
tp1447
F0.0008230452674897119
s(S'when'
p1448
S'merged'
p1449
S'with'
p1450
tp1451
F0.0008230452674897119
s(S'[[adj]]'
p1452
S'wife'
p1453
S'[[adj]]'
p1454
tp1455
F0.0008230452674897119
s(S'was'
p1456
S'defeated'
p1457
S'for'
p1458
tp1459
F0.0008230452674897119
s(S'[[adj]]'
p1460
S'son'
p1461
S'[[con]]'
p1462
tp1463
F0.007407407407407408
s(g102
g103
S'of'
p1464
tp1465
F0.0008230452674897119
s(S'[[adj]]'
p1466
S'son'
p1467
S'later'
p1468
tp1469
F0.0008230452674897119
s(S'[[prp]]'
p1470
S'oldest'
p1471
S'son'
p1472
tp1473
F0.0008230452674897119
s(S'was'
p1474
S'appointed'
p1475
S'after'
p1476
tp1477
F0.0008230452674897119
s(S'[[det]]'
p1478
S'son'
p1479
S'[[num]]'
p1480
tp1481
F0.0016460905349794238
s(S'younger'
p1482
S'son'
p1483
S'[[det]]'
p1484
tp1485
F0.0008230452674897119
s(S'later'
p1486
S'wrote'
p1487
S'to'
p1488
tp1489
F0.0008230452674897119
s(g153
S'wife'
p1490
S'in'
p1491
tp1492
F0.0008230452674897119
s(S'is'
p1493
S'killed'
p1494
S'when'
p1495
tp1496
F0.0008230452674897119
s(g153
S'eldest'
p1497
S'son'
p1498
tp1499
F0.0016460905349794238
s(S'to'
p1500
S'serve'
p1501
S'after'
p1502
tp1503
F0.0008230452674897119
s(S'was'
p1504
S'kept'
p1505
S'[[adj]]'
p1506
tp1507
F0.0008230452674897119
s(S'be'
p1508
S'merged'
p1509
S'into'
p1510
tp1511
F0.0008230452674897119
s(S'[[adj]]'
p1512
S'brother'
p1513
S'to'
p1514
tp1515
F0.0016460905349794238
s(g708
g709
g121
tp1516
F0.0008230452674897119
s(S'was'
p1517
S'son'
p1518
S'by'
p1519
tp1520
F0.0008230452674897119
s(g153
S'son'
p1521
S'by'
p1522
tp1523
F0.0008230452674897119
s(S'be'
p1524
S'heard'
p1525
S'by'
p1526
tp1527
F0.0008230452674897119
s(S'is'
p1528
S'son'
p1529
S'to'
p1530
tp1531
F0.0008230452674897119
s(g1220
g1221
S'of'
p1532
tp1533
F0.0016460905349794238
s(S'[[con]]'
p1534
S'father'
p1535
S'of'
p1536
tp1537
F0.0016460905349794238
s(S'have'
p1538
S'killed'
p1539
S'[[det]]'
p1540
tp1541
F0.0008230452674897119
s(S'[[prp]]'
p1542
S'father'
p1543
S'was'
p1544
tp1545
F0.0008230452674897119
s(S'younger'
p1546
S'brother'
p1547
S'to'
p1548
tp1549
F0.0016460905349794238
s(g153
S'sons'
p1550
S'[[num]]'
p1551
tp1552
F0.0008230452674897119
s(S'was'
p1553
S'appointed'
p1554
S'where'
p1555
tp1556
F0.0008230452674897119
s(S'also'
p1557
S'succeeded'
p1558
S'as'
p1559
tp1560
F0.0008230452674897119
s(S'had'
p1561
S'heard'
p1562
S'from'
p1563
tp1564
F0.0008230452674897119
s(S'of'
p1565
g1512
g1513
tp1566
F0.0008230452674897119
s(S'son'
p1567
S'of'
p1568
S'son'
p1569
tp1570
F0.0008230452674897119
s(S'[[det]]'
p1571
S'mother'
p1572
S'[[det]]'
p1573
tp1574
F0.0008230452674897119
s(S'born'
p1575
g780
g781
tp1576
F0.006584362139917695
s(S'[[det]]'
p1577
g838
g839
tp1578
F0.0016460905349794238
s(S'[[con]]'
p1579
S'[[adj]]'
p1580
S'brother'
p1581
tp1582
F0.0008230452674897119
s(S'[[det]]'
p1583
S'son'
p1584
S'younger'
p1585
tp1586
F0.0008230452674897119
s(S'later'
p1587
S'lost'
p1588
S'to'
p1589
tp1590
F0.0008230452674897119
s(S'is'
p1591
S'appointed'
p1592
S'[[con]]'
p1593
tp1594
F0.0008230452674897119
s(S'was'
p1595
S'mother'
p1596
S'to'
p1597
tp1598
F0.0008230452674897119
s(S'been'
p1599
S'killed'
p1600
S'with'
p1601
tp1602
F0.0008230452674897119
s(S'[[adj]]'
p1603
S'wife'
p1604
S'[[con]]'
p1605
tp1606
F0.0008230452674897119
s(S'younger'
p1607
S'son'
p1608
S'[[num]]'
p1609
tp1610
F0.0008230452674897119
s(S'later'
p1611
S'entered'
p1612
S'[[con]]'
p1613
tp1614
F0.0008230452674897119
s(S'[[adj]]'
p1615
S'death'
p1616
S'of'
p1617
tp1618
F0.0008230452674897119
s(S'born'
p1619
g1163
g1164
tp1620
F0.0008230452674897119
s(S'[[con]]'
p1621
S'was'
p1622
S'succeeded'
p1623
tp1624
F0.0024691358024691358
s(S'[[adj]]'
p1625
S'son'
p1626
S'de'
p1627
tp1628
F0.0008230452674897119
s(S'was'
p1629
S'sold'
p1630
S'[[con]]'
p1631
tp1632
F0.0008230452674897119
s(g1023
g1024
S'son'
p1633
tp1634
F0.0008230452674897119
s(S'[[det]]'
p1635
S'replacement'
p1636
S'for'
p1637
tp1638
F0.0008230452674897119
s(S'[[num]]'
p1639
S'ahead'
p1640
S'of'
p1641
tp1642
F0.0008230452674897119
s(S'also'
p1643
S'wrote'
p1644
S'on'
p1645
tp1646
F0.0008230452674897119
s(S'had'
p1647
S'suggested'
p1648
S'that'
p1649
tp1650
F0.0008230452674897119
s(g153
S'wife'
p1651
S'who'
p1652
tp1653
F0.0008230452674897119
s(S'was'
p1654
S'defeated'
p1655
S'[[num]]'
p1656
tp1657
F0.0008230452674897119
s(S'[[mod]]'
p1658
S'marry'
p1659
S'[[adj]]'
p1660
tp1661
F0.0008230452674897119
s(S'[[adj]]'
p1662
S'emperor'
p1663
S'as'
p1664
tp1665
F0.0008230452674897119
s(S'[[adj]]'
p1666
S'heir'
p1667
S'[[con]]'
p1668
tp1669
F0.0008230452674897119
s(g924
g925
S'son'
p1670
tp1671
F0.0008230452674897119
s(S'was'
p1672
S'appointed'
p1673
S'[[con]]'
p1674
tp1675
F0.0008230452674897119
s(S'[[det]]'
p1676
S'son'
p1677
S'[[det]]'
p1678
tp1679
F0.005761316872427984
s(S'was'
p1680
S'brother'
p1681
S'to'
p1682
tp1683
F0.0008230452674897119
s(S'been'
p1684
S'born'
p1685
S'to'
p1686
tp1687
F0.0008230452674897119
s(S'later'
p1688
S'merged'
p1689
S'with'
p1690
tp1691
F0.0008230452674897119
s(g1584
g1585
S'brother'
p1692
tp1693
F0.0008230452674897119
s(S'[[det]]'
p1694
S'heir'
p1695
S'[[adj]]'
p1696
tp1697
F0.0008230452674897119
s(S'[[det]]'
p1698
S'heir'
p1699
S'of'
p1700
tp1701
F0.0008230452674897119
s(S'was'
p1702
g784
g785
tp1703
F0.0008230452674897119
s(S'succeeded'
p1704
S'[[prp]]'
p1705
S'father'
p1706
tp1707
F0.005761316872427984
s(S'also'
p1708
S'came'
p1709
S'up'
p1710
tp1711
F0.0008230452674897119
s(S'has'
p1712
S'replaced'
p1713
S'[[det]]'
p1714
tp1715
F0.0008230452674897119
s(g153
S'mother'
p1716
S'[[con]]'
p1717
tp1718
F0.0008230452674897119
s(S'[[det]]'
p1719
S'heir'
p1720
S'to'
p1721
tp1722
F0.0008230452674897119
s(g153
S'brother'
p1723
S'in'
p1724
tp1725
F0.0008230452674897119
s(S'[[det]]'
p1726
S'father'
p1727
S'when'
p1728
tp1729
F0.0008230452674897119
s(S'was'
p1730
S'heard'
p1731
S'by'
p1732
tp1733
F0.0008230452674897119
s(S'been'
p1734
S'ordered'
p1735
S'by'
p1736
tp1737
F0.0008230452674897119
s(S'been'
p1738
S'appointed'
p1739
S'to'
p1740
tp1741
F0.0008230452674897119
s(S'being'
p1742
S'appointed'
p1743
S'[[det]]'
p1744
tp1745
F0.0008230452674897119
s(S'has'
p1746
S'heard'
p1747
S'that'
p1748
tp1749
F0.0008230452674897119
s(S'[[det]]'
p1750
S'power'
p1751
S'of'
p1752
tp1753
F0.0008230452674897119
s(S'was'
p1754
S'convinced'
p1755
S'to'
p1756
tp1757
F0.0008230452674897119
s(S'was'
p1758
S'ordered'
p1759
S'by'
p1760
tp1761
F0.0008230452674897119
s(S'[[det]]'
p1762
S'wife'
p1763
S'to'
p1764
tp1765
F0.0008230452674897119
s(S'[[con]]'
p1766
S'brother'
p1767
S'of'
p1768
tp1769
F0.0032921810699588477
s(S'[[adj]]'
p1770
S'sons'
p1771
S'[[con]]'
p1772
tp1773
F0.0008230452674897119
s(S'[[prp]]'
p1774
S'son'
p1775
S'[[con]]'
p1776
tp1777
F0.0008230452674897119
s(g803
g804
S'brother'
p1778
tp1779
F0.0024691358024691358
s(S'[[det]]'
p1780
S'model'
p1781
S'of'
p1782
tp1783
F0.0008230452674897119
s(S'[[det]]'
p1784
S'child'
p1785
S'of'
p1786
tp1787
F0.0008230452674897119
s(S'is'
p1788
S'defeated'
p1789
S'by'
p1790
tp1791
F0.0008230452674897119
s(g153
S'death'
p1792
S'by'
p1793
tp1794
F0.0008230452674897119
s(S'[[det]]'
p1795
S'child'
p1796
S'with'
p1797
tp1798
F0.0008230452674897119
s(S'had'
p1799
S'merged'
p1800
S'with'
p1801
tp1802
F0.0008230452674897119
s(S'as'
p1803
S'son'
p1804
S'of'
p1805
tp1806
F0.0016460905349794238
s(g1244
g1245
S'son'
p1807
tp1808
F0.0008230452674897119
s(g153
S'son'
p1809
S'in'
p1810
tp1811
F0.0008230452674897119
s(S'to'
p1812
S'succeed'
p1813
S'as'
p1814
tp1815
F0.0008230452674897119
s(S'[[prp]]'
p1816
S'wife'
p1817
S'had'
p1818
tp1819
F0.0008230452674897119
s(S'later'
p1820
S'came'
p1821
S'with'
p1822
tp1823
F0.0008230452674897119
s(S'had'
p1824
S'appointed'
p1825
S'to'
p1826
tp1827
F0.0008230452674897119
s(S'then'
p1828
S'merged'
p1829
S'with'
p1830
tp1831
F0.0008230452674897119
s(S'then'
p1832
S'appointed'
p1833
S'to'
p1834
tp1835
F0.0008230452674897119
s(S'[[adj]]'
p1836
S'wife'
p1837
S'[[det]]'
p1838
tp1839
F0.0008230452674897119
s(S'[[det]]'
p1840
S'brother'
p1841
S'[[adj]]'
p1842
tp1843
F0.0008230452674897119
s(S'as'
p1844
S'wrote'
p1845
S'to'
p1846
tp1847
F0.0008230452674897119
s(S'were'
p1848
S'commissioned'
p1849
S'by'
p1850
tp1851
F0.0008230452674897119
s(S'have'
p1852
S'succeeded'
p1853
S'as'
p1854
tp1855
F0.0008230452674897119
s(S'succeeded'
p1856
S'when'
p1857
S'died'
p1858
tp1859
F0.0008230452674897119
s(S'only'
p1860
S'son'
p1861
S'of'
p1862
tp1863
F0.0008230452674897119
s(S'to'
p1864
S'succeed'
p1865
S'[[con]]'
p1866
tp1867
F0.0008230452674897119
s(S'was'
p1868
S'appointed'
p1869
S'under'
p1870
tp1871
F0.0008230452674897119
s(S'been'
p1872
S'appointed'
p1873
S'as'
p1874
tp1875
F0.0008230452674897119
s(S'to'
p1876
S'serve'
p1877
S'when'
p1878
tp1879
F0.0008230452674897119
s(S'[[det]]'
p1880
S'father'
p1881
S'of'
p1882
tp1883
F0.0032921810699588477
s(S'[[adj]]'
p1884
S'son'
p1885
S'who'
p1886
tp1887
F0.0008230452674897119
s(S'[[prp]]'
p1888
S'wife'
p1889
S'[[num]]'
p1890
tp1891
F0.0008230452674897119
s(g891
g892
S'over'
p1892
tp1893
F0.0008230452674897119
s(S'was'
p1894
S'killed'
p1895
S'when'
p1896
tp1897
F0.0008230452674897119
s(S'younger'
p1898
S'brother'
p1899
S'who'
p1900
tp1901
F0.0008230452674897119
s(S'to'
p1902
S'serve'
p1903
S'[[det]]'
p1904
tp1905
F0.0008230452674897119
s(S'[[adj]]'
p1906
S'cousin'
p1907
S'to'
p1908
tp1909
F0.0008230452674897119
s(S'[[con]]'
p1910
S'ordered'
p1911
S'that'
p1912
tp1913
F0.0008230452674897119
s(S'[[prp]]'
p1914
S'sons'
p1915
S'[[con]]'
p1916
tp1917
F0.0008230452674897119
s(g153
S'death'
p1918
S'[[con]]'
p1919
tp1920
F0.0008230452674897119
s(S'[[adj]]'
p1921
S'mother'
p1922
S'of'
p1923
tp1924
F0.0008230452674897119
s(g153
S'father'
p1925
S'who'
p1926
tp1927
F0.0008230452674897119
s(S'also'
p1928
S'wrote'
p1929
S'to'
p1930
tp1931
F0.0008230452674897119
s(S'[[det]]'
p1932
S'heir'
p1933
S'[[con]]'
p1934
tp1935
F0.0008230452674897119
s(S'championship'
p1936
g137
g138
tp1937
F0.0008230452674897119
s(g153
S'son'
p1938
S'de'
p1939
tp1940
F0.0008230452674897119
s(S'[[prp]]'
p1941
S'brother'
p1942
S'who'
p1943
tp1944
F0.0008230452674897119
s(S'[[con]]'
p1945
S'defeated'
p1946
S'after'
p1947
tp1948
F0.0008230452674897119
s(S'as'
p1949
S'[[det]]'
p1950
S'son'
p1951
tp1952
F0.0008230452674897119
s(S'[[adj]]'
p1953
S'heir'
p1954
S'of'
p1955
tp1956
F0.0008230452674897119
s(S'to'
p1957
S'replace'
p1958
S'with'
p1959
tp1960
F0.0008230452674897119
s(S'[[adj]]'
p1961
S'son'
p1962
S'[[adj]]'
p1963
tp1964
F0.0008230452674897119
s(S'is'
p1965
S'succeeded'
p1966
S'as'
p1967
tp1968
F0.0008230452674897119
s(g153
S'wife'
p1969
S'[[con]]'
p1970
tp1971
F0.0008230452674897119
s(S'was'
p1972
g1575
g780
tp1973
F0.010699588477366255
s(g153
S'son'
p1974
S'[[adj]]'
p1975
tp1976
F0.0008230452674897119
s(S'[[con]]'
p1977
S'defeated'
p1978
S'with'
p1979
tp1980
F0.0008230452674897119
s(S'[[det]]'
p1981
S'mother'
p1982
S'from'
p1983
tp1984
F0.0008230452674897119
s(S'to'
p1985
S'marry'
p1986
S'[[det]]'
p1987
tp1988
F0.0008230452674897119
s(g1196
g1197
S'son'
p1989
tp1990
F0.0008230452674897119
s(S'were'
p1991
S'appointed'
p1992
S'by'
p1993
tp1994
F0.0008230452674897119
s(S'to'
p1995
S'replace'
p1996
S'[[det]]'
p1997
tp1998
F0.0008230452674897119
s(S'never'
p1999
S'heard'
p2000
S'of'
p2001
tp2002
F0.0008230452674897119
s(g198
g199
S'[[det]]'
p2003
tp2004
F0.0008230452674897119
s(g786
S'merger'
p2005
S'of'
p2006
tp2007
F0.005761316872427984
s(S'later'
p2008
S'wrote'
p2009
S'while'
p2010
tp2011
F0.0008230452674897119
s(S'in'
p2012
S'[[det]]'
p2013
S'eldest'
p2014
tp2015
F0.0016460905349794238
s(S'[[adj]]'
p2016
S'child'
p2017
S'[[det]]'
p2018
tp2019
F0.0008230452674897119
s(S'[[adj]]'
p2020
S'wife'
p2021
S'[[num]]'
p2022
tp2023
F0.0008230452674897119
s(S'[[num]]'
p2024
S'sons'
p2025
S'[[con]]'
p2026
tp2027
F0.0008230452674897119
s(S'son'
p2028
g977
g978
tp2029
F0.0008230452674897119
s(g785
g786
g2005
tp2030
F0.0008230452674897119
s(S'[[con]]'
p2031
S'[[det]]'
p2032
S'younger'
p2033
tp2034
F0.0016460905349794238
s(S'[[num]]'
p2035
S'sons'
p2036
S'of'
p2037
tp2038
F0.0008230452674897119
s(S'is'
p2039
S'convinced'
p2040
S'that'
p2041
tp2042
F0.0008230452674897119
s(S'[[con]]'
p2043
S'killed'
p2044
S'[[det]]'
p2045
tp2046
F0.0008230452674897119
s(S'is'
p2047
S'forced'
p2048
S'by'
p2049
tp2050
F0.0008230452674897119
s(S'also'
p2051
S'appointed'
p2052
S'by'
p2053
tp2054
F0.0008230452674897119
s(S'[[det]]'
p2055
S'mother'
p2056
S'of'
p2057
tp2058
F0.0008230452674897119
s(S'with'
p2059
S'son'
p2060
S'of'
p2061
tp2062
F0.0008230452674897119
s(S'son'
p2063
S'of'
p2064
S'born'
p2065
tp2066
F0.0008230452674897119
s(S'had'
p2067
S'succeeded'
p2068
S'[[pro]]'
p2069
tp2070
F0.0008230452674897119
s(S'grandson'
p2071
S'[[adj]]'
p2072
S'son'
p2073
tp2074
F0.0008230452674897119
s(S'[[prp]]'
p2075
S'younger'
p2076
S'son'
p2077
tp2078
F0.0008230452674897119
s(g1422
S'ahead'
p2079
S'of'
p2080
tp2081
F0.0008230452674897119
s(S'[[det]]'
p2082
S'grandson'
p2083
S'of'
p2084
tp2085
F0.00411522633744856
s(S'[[adj]]'
p2086
S'child'
p2087
S'to'
p2088
tp2089
F0.0008230452674897119
s(S'[[adj]]'
p2090
S'mother'
p2091
S'[[con]]'
p2092
tp2093
F0.0008230452674897119
s(S'later'
p2094
S'appointed'
p2095
S'of'
p2096
tp2097
F0.0008230452674897119
s(S'is'
p2098
S'son'
p2099
S'[[con]]'
p2100
tp2101
F0.0008230452674897119
s(S'also'
p2102
S'wrote'
p2103
S'about'
p2104
tp2105
F0.0008230452674897119
s(S'[[con]]'
p2106
S'appointed'
p2107
S'[[pro]]'
p2108
tp2109
F0.0008230452674897119
s(S'later'
p2110
S'defeated'
p2111
S'by'
p2112
tp2113
F0.0008230452674897119
s(S'[[con]]'
p2114
S'wrote'
p2115
S'for'
p2116
tp2117
F0.0008230452674897119
s(g941
g638
g639
tp2118
F0.0008230452674897119
s(g153
S'father'
p2119
S'[[num]]'
p2120
tp2121
F0.0008230452674897119
s(S'then'
p2122
S'killed'
p2123
S'by'
p2124
tp2125
F0.0008230452674897119
s(S'formed'
p2126
g486
g487
tp2127
F0.0008230452674897119
s(g153
S'son'
p2128
S'grandson'
p2129
tp2130
F0.0008230452674897119
s(g153
S'wife'
p2131
S'with'
p2132
tp2133
F0.0008230452674897119
s(g153
S'son'
p2134
S'who'
p2135
tp2136
F0.0008230452674897119
s(S'[[adj]]'
p2137
S'heir'
p2138
S'to'
p2139
tp2140
F0.0008230452674897119
s(S'was'
p2141
g1619
g1163
tp2142
F0.0016460905349794238
s(S'[[prp]]'
p2143
S'brother'
p2144
S'was'
p2145
tp2146
F0.0008230452674897119
s(S'also'
p2147
S'wrote'
p2148
S'[[con]]'
p2149
tp2150
F0.0008230452674897119
s(S'grandson'
p2151
S'[[con]]'
p2152
S'[[det]]'
p2153
tp2154
F0.0008230452674897119
s(S'[[adj]]'
p2155
S'son'
p2156
S'brother'
p2157
tp2158
F0.0008230452674897119
s(S'was'
p2159
S'appointed'
p2160
S'[[adj]]'
p2161
tp2162
F0.0008230452674897119
s(S'to'
p2163
S'marry'
p2164
S'[[con]]'
p2165
tp2166
F0.0008230452674897119
s(S'as'
p2167
g1635
g1636
tp2168
F0.0008230452674897119
s(S'born'
p2169
S'[[adj]]'
p2170
S'son'
p2171
tp2172
F0.0008230452674897119
s(S'is'
p2173
S'recognized'
p2174
S'[[det]]'
p2175
tp2176
F0.0008230452674897119
s(S'was'
p2177
S'sold'
p2178
S'for'
p2179
tp2180
F0.0008230452674897119
s(S'born'
p2181
S'son'
p2182
S'of'
p2183
tp2184
F0.0016460905349794238
s(S'[[prp]]'
p2185
S'brother'
p2186
S'to'
p2187
tp2188
F0.0008230452674897119
s(S'was'
p2189
S'formed'
p2190
S'by'
p2191
tp2192
F0.0008230452674897119
s(S'then'
p2193
S'defeated'
p2194
S'[[adj]]'
p2195
tp2196
F0.0008230452674897119
s(g153
S'father'
p2197
S'to'
p2198
tp2199
F0.0008230452674897119
s(S'[[mod]]'
p2200
S'succeed'
p2201
S'as'
p2202
tp2203
F0.0008230452674897119
s(S'[[det]]'
p2204
S'brother'
p2205
S'had'
p2206
tp2207
F0.0008230452674897119
s(S'was'
p2208
g2169
g2170
tp2209
F0.0008230452674897119
s(g353
g354
S'off'
p2210
tp2211
F0.0008230452674897119
s(S'was'
p2212
S'killed'
p2213
S'to'
p2214
tp2215
F0.0008230452674897119
s(S'[[adj]]'
p2216
S'mother'
p2217
S'to'
p2218
tp2219
F0.0008230452674897119
s(g1580
g1581
S'of'
p2220
tp2221
F0.0016460905349794238
s(S'be'
p2222
S'appointed'
p2223
S'as'
p2224
tp2225
F0.0008230452674897119
s(g709
g121
g122
tp2226
F0.0008230452674897119
s(S'was'
p2227
S'formed'
p2228
g764
tp2229
F0.0008230452674897119
s(S'[[det]]'
p2230
S'brother'
p2231
S'to'
p2232
tp2233
F0.0008230452674897119
s(S'also'
p2234
S'wrote'
p2235
S'as'
p2236
tp2237
F0.0008230452674897119
s(S'regained'
p2238
S'[[det]]'
p2239
g1936
tp2240
F0.0008230452674897119
s(S'[[det]]'
p2241
S'sons'
p2242
S'[[con]]'
p2243
tp2244
F0.0008230452674897119
s(S'born'
p2245
S'[[num]]'
p2246
S'son'
p2247
tp2248
F0.0008230452674897119
s(S'is'
p2249
S'born'
p2250
S'to'
p2251
tp2252
F0.0008230452674897119
s(S'[[num]]'
p2253
S'son'
p2254
S'of'
p2255
tp2256
F0.0032921810699588477
s(S'[[mod]]'
p2257
S'replace'
p2258
S'as'
p2259
tp2260
F0.0008230452674897119
s(S'was'
p2261
S'recognized'
p2262
S'in'
p2263
tp2264
F0.0008230452674897119
s(g31
g756
S'merger'
p2265
tp2266
F0.0008230452674897119
s(S'son'
p2267
g1565
g1512
tp2268
F0.0008230452674897119
s(S'[[con]]'
p2269
S'mother'
p2270
S'of'
p2271
tp2272
F0.0008230452674897119
s(g153
S'son'
p2273
S'[[con]]'
p2274
tp2275
F0.0032921810699588477
s(S'[[adj]]'
p2276
S'reign'
p2277
S'of'
p2278
tp2279
F0.0008230452674897119
s(S'carried'
p2280
g890
g891
tp2281
F0.0008230452674897119
s(S'[[det]]'
p2282
S'son'
p2283
S'became'
p2284
tp2285
F0.0008230452674897119
s(S'[[con]]'
p2286
S'succeeded'
p2287
S'[[pro]]'
p2288
tp2289
F0.0008230452674897119
s(g2228
g764
g765
tp2290
F0.0016460905349794238
s(S'[[adj]]'
p2291
S'son'
p2292
S'[[pro]]'
p2293
tp2294
F0.0008230452674897119
s(S'[[det]]'
p2295
S'throne'
p2296
S'from'
p2297
tp2298
F0.0008230452674897119
s(S'[[prp]]'
p2299
S'brother'
p2300
S'[[con]]'
p2301
tp2302
F0.0008230452674897119
s(S'also'
p2303
S'entered'
p2304
S'with'
p2305
tp2306
F0.0008230452674897119
s(g153
S'mother'
p2307
S'who'
p2308
tp2309
F0.0008230452674897119
s(S'became'
p2310
S'emperor'
p2311
S'as'
p2312
tp2313
F0.0008230452674897119
s(S'[[prp]]'
p2314
S'mother'
p2315
g153
tp2316
F0.0008230452674897119
s(S'[[num]]'
p2317
S'appointed'
p2318
S'by'
p2319
tp2320
F0.0008230452674897119
s(S'was'
p2321
S'appointed'
p2322
S'[[prp]]'
p2323
tp2324
F0.0008230452674897119
s(S'then'
p2325
S'came'
p2326
S'out'
p2327
tp2328
F0.0008230452674897119
s(S'[[adj]]'
p2329
S'led'
p2330
S'by'
p2331
tp2332
F0.0008230452674897119
s(S'be'
p2333
S'appointed'
p2334
S'by'
p2335
tp2336
F0.0008230452674897119
s(S'[[num]]'
p2337
S'son'
p2338
S'[[det]]'
p2339
tp2340
F0.0008230452674897119
s(S'was'
p2341
S'born'
p2342
S'with'
p2343
tp2344
F0.0008230452674897119
s(g1339
g1340
S'brother'
p2345
tp2346
F0.0008230452674897119
s(g153
S'brother'
p2347
S'[[num]]'
p2348
tp2349
F0.0008230452674897119
s(S'had'
p2350
S'suggested'
p2351
S'to'
p2352
tp2353
F0.0008230452674897119
s(S'have'
p2354
S'killed'
p2355
S'[[con]]'
p2356
tp2357
F0.0008230452674897119
s(S'[[adj]]'
p2358
S'appointed'
p2359
S'by'
p2360
tp2361
F0.0008230452674897119
s(g789
g160
g161
tp2362
F0.0016460905349794238
s(S'born'
p2363
g1949
g1950
tp2364
F0.0008230452674897119
s(S'first'
p2365
S'appointed'
p2366
S'when'
p2367
tp2368
F0.0008230452674897119
s(S'be'
p2369
S'defeated'
p2370
S'by'
p2371
tp2372
F0.0008230452674897119
s(S'[[num]]'
p2373
S'sons'
p2374
S'[[det]]'
p2375
tp2376
F0.0008230452674897119
s(S'was'
p2377
S'appointed'
p2378
S'with'
p2379
tp2380
F0.0008230452674897119
s(S'[[prp]]'
p2381
S'brother'
p2382
S'[[adj]]'
p2383
tp2384
F0.0008230452674897119
s(S'death'
p2385
g573
g574
tp2386
F0.0016460905349794238
s(S'[[det]]'
p2387
S'prince'
p2388
S'[[con]]'
p2389
tp2390
F0.0008230452674897119
s(S'[[con]]'
p2391
S'lost'
p2392
S'[[prp]]'
p2393
tp2394
F0.0008230452674897119
s(S'was'
p2395
g2363
g1949
tp2396
F0.0032921810699588477
s(g153
S'wife'
p2397
S'[[adj]]'
p2398
tp2399
F0.0008230452674897119
s(S'been'
p2400
S'suggested'
p2401
S'that'
p2402
tp2403
F0.0008230452674897119
s(S'[[det]]'
p2404
S'son'
p2405
S'[[pro]]'
p2406
tp2407
F0.0008230452674897119
s(S'had'
p2408
S'merged'
p2409
S'into'
p2410
tp2411
F0.0008230452674897119
s(S'first'
p2412
S'appointed'
p2413
S'by'
p2414
tp2415
F0.0008230452674897119
s(S'[[det]]'
p2416
S'death'
p2417
S'of'
p2418
tp2419
F0.0024691358024691358
s(g153
S'cousin'
p2420
S'[[con]]'
p2421
tp2422
F0.0008230452674897119
s(S'[[con]]'
p2423
S'son'
p2424
S'of'
p2425
tp2426
F0.0032921810699588477
s(S'born'
p2427
S'[[con]]'
p2428
S'[[adj]]'
p2429
tp2430
F0.0008230452674897119
s(S'was'
p2431
S'defeated'
p2432
S'[[con]]'
p2433
tp2434
F0.0008230452674897119
s(S'[[det]]'
p2435
S'mother'
p2436
S'[[con]]'
p2437
tp2438
F0.0008230452674897119
s(S'also'
p2439
S'replaced'
p2440
S'[[det]]'
p2441
tp2442
F0.0008230452674897119
s(S'[[adj]]'
p2443
S'emperor'
p2444
S'[[con]]'
p2445
tp2446
F0.0008230452674897119
s(S'[[con]]'
p2447
S'succeeded'
p2448
S'as'
p2449
tp2450
F0.0016460905349794238
s(S'born'
p2451
S'[[det]]'
p2452
S'eldest'
p2453
tp2454
F0.0008230452674897119
s(S'died'
p2455
S'[[num]]'
p2456
S'succeeded'
p2457
tp2458
F0.0008230452674897119
s(S'again'
p2459
S'appointed'
p2460
S'as'
p2461
tp2462
F0.0008230452674897119
s(S'[[con]]'
p2463
S'defeated'
p2464
S'[[con]]'
p2465
tp2466
F0.0008230452674897119
s(S'[[det]]'
p2467
S'led'
p2468
S'by'
p2469
tp2470
F0.0008230452674897119
s(S'[[det]]'
p2471
S'father'
p2472
S'in'
p2473
tp2474
F0.0008230452674897119
s(S'[[adj]]'
p2475
S'son'
p2476
S'[[num]]'
p2477
tp2478
F0.0008230452674897119
s(S'also'
p2479
S'entered'
p2480
S'as'
p2481
tp2482
F0.0008230452674897119
s(S'granted'
p2483
g1265
g553
tp2484
F0.0008230452674897119
s(S'be'
p2485
S'led'
p2486
S'by'
p2487
tp2488
F0.0008230452674897119
s(S'later'
p2489
S'serve'
p2490
S'as'
p2491
tp2492
F0.0008230452674897119
s(S'is'
p2493
S'appointed'
p2494
S'as'
p2495
tp2496
F0.0008230452674897119
s(S'who'
p2497
S'lost'
p2498
S'to'
p2499
tp2500
F0.0008230452674897119
s(S'son'
p2501
S'of'
p2502
S'brother'
p2503
tp2504
F0.0008230452674897119
s(S'also'
p2505
S'suggested'
p2506
S'that'
p2507
tp2508
F0.0008230452674897119
s(S'[[det]]'
p2509
S'brother'
p2510
S'[[num]]'
p2511
tp2512
F0.0008230452674897119
s(S'death'
p2513
S'[[prp]]'
p2514
S'brother'
p2515
tp2516
F0.0008230452674897119
s(S'younger'
p2517
S'brother'
p2518
S'[[con]]'
p2519
tp2520
F0.006584362139917695
s(S'is'
p2521
S'ordered'
p2522
S'by'
p2523
tp2524
F0.0008230452674897119
s(S'succeeds'
p2525
S'[[prp]]'
p2526
S'brother'
p2527
tp2528
F0.0008230452674897119
s(S'[[adj]]'
p2529
S'wrote'
p2530
S'to'
p2531
tp2532
F0.0008230452674897119
s(S'[[adj]]'
p2533
S'son'
p2534
S'[[det]]'
p2535
tp2536
F0.0016460905349794238
s(S'was'
p2537
S'crowned'
p2538
S'by'
p2539
tp2540
F0.0008230452674897119
s(S'[[adj]]'
p2541
S'child'
p2542
S'of'
p2543
tp2544
F0.0008230452674897119
s(g2190
g2191
S'[[det]]'
p2545
tp2546
F0.0016460905349794238
s(S'also'
p2547
S'wrote'
p2548
S'by'
p2549
tp2550
F0.0008230452674897119
s(S'[[con]]'
p2551
S'ordered'
p2552
S'[[pro]]'
p2553
tp2554
F0.0008230452674897119
s(S'later'
p2555
S'appointed'
p2556
S'[[con]]'
p2557
tp2558
F0.0008230452674897119
s(S'[[prp]]'
p2559
S'son'
p2560
S'was'
p2561
tp2562
F0.0008230452674897119
s(S'be'
p2563
S'replaced'
p2564
S'with'
p2565
tp2566
F0.0008230452674897119
s(S'[[prp]]'
p2567
S'older'
p2568
S'brother'
p2569
tp2570
F0.0016460905349794238
s(S'[[con]]'
p2571
S'[[adj]]'
p2572
S'grandson'
p2573
tp2574
F0.0008230452674897119
s(S'eldest'
p2575
S'son'
p2576
S'to'
p2577
tp2578
F0.0008230452674897119
s(g153
S'son'
p2579
S'with'
p2580
tp2581
F0.0008230452674897119
s(S'[[con]]'
p2582
S'wrote'
p2583
S'to'
p2584
tp2585
F0.0008230452674897119
s(S'[[adj]]'
p2586
S'wife'
p2587
S'[[pro]]'
p2588
tp2589
F0.0008230452674897119
s(S'[[pro]]'
p2590
S'wrote'
p2591
S'to'
p2592
tp2593
F0.0008230452674897119
s(S'is'
p2594
S'father'
p2595
S'to'
p2596
tp2597
F0.0008230452674897119
s(S'is'
p2598
S'killed'
p2599
S'at'
p2600
tp2601
F0.0008230452674897119
s(S'to'
p2602
S'replace'
p2603
S'[[prp]]'
p2604
tp2605
F0.0008230452674897119
s(g153
S'death'
p2606
S'to'
p2607
tp2608
F0.0008230452674897119
s(S'[[pro]]'
p2609
S'brother'
p2610
S'[[con]]'
p2611
tp2612
F0.0008230452674897119
s(S'was'
p2613
g923
g924
tp2614
F0.0008230452674897119
s(S'first'
p2615
S'entered'
p2616
S'as'
p2617
tp2618
F0.0008230452674897119
s(S'was'
p2619
S'mother'
p2620
S'of'
p2621
tp2622
F0.0008230452674897119
s(S'[[det]]'
p2623
S'eldest'
p2624
S'son'
p2625
tp2626
F0.011522633744855968
s(S'[[det]]'
p2627
S'wife'
p2628
S'[[con]]'
p2629
tp2630
F0.0008230452674897119
s(S'was'
p2631
S'son'
p2632
S'of'
p2633
tp2634
F0.0008230452674897119
s(g2191
g2545
S'merger'
p2635
tp2636
F0.0016460905349794238
s(S'[[det]]'
p2637
S'father'
p2638
S'[[num]]'
p2639
tp2640
F0.0008230452674897119
s(S'later'
p2641
S'merged'
p2642
S'[[con]]'
p2643
tp2644
F0.0008230452674897119
s(S'later'
p2645
S'appointed'
p2646
S'[[det]]'
p2647
tp2648
F0.0008230452674897119
s(S'been'
p2649
S'defeated'
p2650
S'by'
p2651
tp2652
F0.0008230452674897119
s(S'[[adj]]'
p2653
S'model'
p2654
S'[[det]]'
p2655
tp2656
F0.0008230452674897119
s(g123
g298
S'[[con]]'
p2657
tp2658
F0.0008230452674897119
s(S'was'
p2659
g1123
g1124
tp2660
F0.0008230452674897119
s(S'[[pro]]'
p2661
S'came'
p2662
S'back'
p2663
tp2664
F0.0008230452674897119
s(S'[[con]]'
p2665
S'[[det]]'
p2666
S'father'
p2667
tp2668
F0.0016460905349794238
s(S'was'
p2669
S'deposed'
p2670
S'[[con]]'
p2671
tp2672
F0.0008230452674897119
s(S'to'
p2673
S'replace'
p2674
S'who'
p2675
tp2676
F0.0008230452674897119
s(S'which'
p2677
S'merged'
p2678
S'with'
p2679
tp2680
F0.0008230452674897119
s(g850
g851
g1327
tp2681
F0.0008230452674897119
s(S'[[mod]]'
p2682
S'replace'
p2683
S'at'
p2684
tp2685
F0.0008230452674897119
s(g153
S'oldest'
p2686
S'son'
p2687
tp2688
F0.0016460905349794238
s(S'born'
p2689
g1803
g1804
tp2690
F0.0008230452674897119
s(S'[[con]]'
p2691
S'grandson'
p2692
S'of'
p2693
tp2694
F0.0032921810699588477
s(S'[[det]]'
p2695
S'cousin'
p2696
S'[[det]]'
p2697
tp2698
F0.0008230452674897119
s(g74
g75
S'of'
p2699
tp2700
F0.0016460905349794238
s(g937
S'title'
p2701
S'by'
p2702
tp2703
F0.0008230452674897119
s(S'is'
p2704
S'father'
p2705
S'[[con]]'
p2706
tp2707
F0.0008230452674897119
s(S'have'
p2708
S'heard'
p2709
S'[[det]]'
p2710
tp2711
F0.0008230452674897119
s(g738
g739
S'brother'
p2712
tp2713
F0.0016460905349794238
s(S'[[con]]'
p2714
S'[[det]]'
p2715
S'eldest'
p2716
tp2717
F0.0008230452674897119
s(S'[[det]]'
p2718
S'brother'
p2719
S'who'
p2720
tp2721
F0.0008230452674897119
s(S'was'
p2722
S'grandson'
p2723
S'of'
p2724
tp2725
F0.0008230452674897119
s(g807
g808
S'of'
p2726
tp2727
F0.0016460905349794238
s(g1340
g2345
S'to'
p2728
tp2729
F0.0024691358024691358
s(g1124
g1125
S'merger'
p2730
tp2731
F0.0008230452674897119
s(S'nearly'
p2732
S'killed'
p2733
S'by'
p2734
tp2735
F0.0008230452674897119
s(g153
S'son'
p2736
S'[[num]]'
p2737
tp2738
F0.0008230452674897119
s(g828
g1034
S'father'
p2739
tp2740
F0.0008230452674897119
s(S'[[adj]]'
p2741
S'version'
p2742
S'[[det]]'
p2743
tp2744
F0.0008230452674897119
s(g153
S'father'
p2745
S'of'
p2746
tp2747
F0.0008230452674897119
s(S'[[det]]'
p2748
S'son'
p2749
S'whom'
p2750
tp2751
F0.0008230452674897119
s(S'[[mod]]'
p2752
S'marry'
p2753
S'[[det]]'
p2754
tp2755
F0.0008230452674897119
s(S'[[con]]'
p2756
S'defeated'
p2757
S'in'
p2758
tp2759
F0.0008230452674897119
s(S'was'
p2760
S'killed'
p2761
S'with'
p2762
tp2763
F0.0008230452674897119
s(S'grandson'
p2764
S'[[con]]'
p2765
S'son'
p2766
tp2767
F0.0008230452674897119
s(S'younger'
p2768
S'brother'
p2769
S'[[det]]'
p2770
tp2771
F0.0024691358024691358
s(g153
S'wife'
p2772
S'as'
p2773
tp2774
F0.0008230452674897119
s(S'who'
p2775
S'appointed'
p2776
S'[[det]]'
p2777
tp2778
F0.0008230452674897119
s(S'[[num]]'
p2779
g802
g803
tp2780
F0.0008230452674897119
s(S'was'
p2781
S'born'
p2782
S'after'
p2783
tp2784
F0.0008230452674897119
s(g153
S'brother'
p2785
S'[[det]]'
p2786
tp2787
F0.0008230452674897119
s(S'was'
p2788
S'crowned'
p2789
S'as'
p2790
tp2791
F0.0008230452674897119
s(S'also'
p2792
S'wrote'
p2793
S'[[det]]'
p2794
tp2795
F0.0008230452674897119
s(S'first'
p2796
S'came'
p2797
S'when'
p2798
tp2799
F0.0008230452674897119
s(S'born'
p2800
g857
g858
tp2801
F0.0008230452674897119
s(S'was'
p2802
S'replaced'
p2803
S'[[det]]'
p2804
tp2805
F0.0008230452674897119
s(S'[[det]]'
p2806
S'son'
p2807
S'[[adj]]'
p2808
tp2809
F0.0008230452674897119
s(S'again'
p2810
S'defeated'
p2811
S'by'
p2812
tp2813
F0.0008230452674897119
s(g978
g979
S'of'
p2814
tp2815
F0.0016460905349794238
s(g997
g998
S'son'
p2816
tp2817
F0.0008230452674897119
s(S'be'
p2818
S'merged'
p2819
S'with'
p2820
tp2821
F0.0008230452674897119
s(S'[[prp]]'
p2822
S'eldest'
p2823
S'son'
p2824
tp2825
F0.0016460905349794238
s(S'[[prp]]'
p2826
S'father'
p2827
S'[[con]]'
p2828
tp2829
F0.0016460905349794238
s(S'[[adj]]'
p2830
S'grandson'
p2831
S'of'
p2832
tp2833
F0.0016460905349794238
s(g153
S'grandson'
p2834
S'[[con]]'
p2835
tp2836
F0.0008230452674897119
s(g153
S'death'
p2837
S'as'
p2838
tp2839
F0.0008230452674897119
s(g153
S'brother'
p2840
S'[[con]]'
p2841
tp2842
F0.0016460905349794238
s(S'was'
p2843
S'succeeded'
p2844
S'[[pro]]'
p2845
tp2846
F0.0008230452674897119
s(S'[[adj]]'
p2847
S'child'
p2848
S'with'
p2849
tp2850
F0.0008230452674897119
s(S'was'
p2851
S'born'
p2852
S'when'
p2853
tp2854
F0.0008230452674897119
s(S'then'
p2855
S'appointed'
p2856
S'as'
p2857
tp2858
F0.0008230452674897119
s(S'born'
p2859
g133
g134
tp2860
F0.0016460905349794238
s(S'[[con]]'
p2861
S'brother'
p2862
S'[[con]]'
p2863
tp2864
F0.0008230452674897119
s(g153
S'younger'
p2865
S'son'
p2866
tp2867
F0.0016460905349794238
s(S'also'
p2868
S'wrote'
p2869
S'with'
p2870
tp2871
F0.0008230452674897119
s(S'to'
p2872
S'replace'
p2873
S'[[pro]]'
p2874
tp2875
F0.0008230452674897119
s(S'[[det]]'
p2876
g2071
g2072
tp2877
F0.0008230452674897119
s(S'[[det]]'
p2878
S'younger'
p2879
S'brother'
p2880
tp2881
F0.012345679012345678
s(S'[[num]]'
p2882
S'younger'
p2883
S'brother'
p2884
tp2885
F0.0008230452674897119
s(g982
g983
S'of'
p2886
tp2887
F0.0008230452674897119
s(S'[[adj]]'
p2888
S'cousin'
p2889
S'[[det]]'
p2890
tp2891
F0.0008230452674897119
s(S'died'
p2892
g1621
g1622
tp2893
F0.0024691358024691358
s(S'grandson'
p2894
S'[[det]]'
p2895
S'son'
p2896
tp2897
F0.0008230452674897119
s(S'was'
p2898
g1243
g1244
tp2899
F0.0024691358024691358
s(S'had'
p2900
S'succeeded'
p2901
S'as'
p2902
tp2903
F0.0008230452674897119
s(g153
S'youngest'
p2904
S'son'
p2905
tp2906
F0.0008230452674897119
s(S'[[prp]]'
p2907
g2517
g2518
tp2908
F0.0016460905349794238
s(S'[[det]]'
p2909
S'appointed'
p2910
S'[[con]]'
p2911
tp2912
F0.0008230452674897119
s(S'is'
p2913
S'mother'
p2914
S'of'
p2915
tp2916
F0.0008230452674897119
s(S'also'
p2917
S'killed'
p2918
S'along'
p2919
tp2920
F0.0008230452674897119
s(S'just'
p2921
S'ahead'
p2922
S'of'
p2923
tp2924
F0.0008230452674897119
s(S'also'
p2925
S'led'
p2926
S'[[con]]'
p2927
tp2928
F0.0008230452674897119
s(S'was'
p2929
S'defeated'
p2930
S'while'
p2931
tp2932
F0.0008230452674897119
s(S'later'
p2933
S'wrote'
p2934
S'of'
p2935
tp2936
F0.0008230452674897119
s(S'to'
p2937
S'succeed'
p2938
S'in'
p2939
tp2940
F0.0008230452674897119
s(g153
S'mother'
p2941
S'[[det]]'
p2942
tp2943
F0.0008230452674897119
s(S'[[prp]]'
p2944
S'son'
p2945
S'[[det]]'
p2946
tp2947
F0.0008230452674897119
s(g153
S'son'
p2948
S'of'
p2949
tp2950
F0.0008230452674897119
s(S'whose'
p2951
S'mother'
p2952
S'was'
p2953
tp2954
F0.0008230452674897119
s(S'son'
p2955
S'[[con]]'
p2956
S'son'
p2957
tp2958
F0.0008230452674897119
s(S'was'
p2959
S'introduced'
p2960
g2167
tp2961
F0.0008230452674897119
s(S'[[det]]'
p2962
S'father'
p2963
S'was'
p2964
tp2965
F0.0008230452674897119
s(g2239
g1936
g137
tp2966
F0.0008230452674897119
s(S'[[adj]]'
p2967
S'cousin'
p2968
S'[[num]]'
p2969
tp2970
F0.0008230452674897119
s(S'[[det]]'
p2971
S'appointed'
p2972
S'by'
p2973
tp2974
F0.0008230452674897119
s(S'to'
p2975
S'serve'
p2976
S'as'
p2977
tp2978
F0.0008230452674897119
s(S'was'
p2979
S'convinced'
p2980
S'by'
p2981
tp2982
F0.0008230452674897119
s(S'who'
p2983
S'led'
p2984
S'[[det]]'
p2985
tp2986
F0.0008230452674897119
s(S'[[adj]]'
p2987
S'prince'
p2988
S'of'
p2989
tp2990
F0.0008230452674897119
s(S'was'
p2991
S'defeated'
p2992
S'to'
p2993
tp2994
F0.0008230452674897119
s(S'[[det]]'
p2995
g529
g530
tp2996
F0.0024691358024691358
s(S'being'
p2997
S'killed'
p2998
S'by'
p2999
tp3000
F0.0008230452674897119
s(S'being'
p3001
S'appointed'
p3002
S'by'
p3003
tp3004
F0.0008230452674897119
s(S'to'
p3005
S'serve'
p3006
S'until'
p3007
tp3008
F0.0008230452674897119
s(S'was'
p3009
S'born'
p3010
S'to'
p3011
tp3012
F0.0008230452674897119
s(S'was'
p3013
S'succeeded'
p3014
S'as'
p3015
tp3016
F0.0016460905349794238
s(S'again'
p3017
S'appointed'
p3018
S'[[det]]'
p3019
tp3020
F0.0008230452674897119
s(g153
S'death'
p3021
S'[[num]]'
p3022
tp3023
F0.0008230452674897119
s(S'been'
p3024
S'born'
p3025
S'[[det]]'
p3026
tp3027
F0.0008230452674897119
s(S'was'
p3028
S'born'
p3029
S'son'
p3030
tp3031
F0.0008230452674897119
s(S'first'
p3032
S'heard'
p3033
S'about'
p3034
tp3035
F0.0008230452674897119
s(S'[[adj]]'
p3036
S'version'
p3037
S'of'
p3038
tp3039
F0.0008230452674897119
s(g2960
g2167
g1635
tp3040
F0.0008230452674897119
s(g153
S'cousin'
p3041
S'[[num]]'
p3042
tp3043
F0.0008230452674897119
s(S'was'
p3044
g1000
g231
tp3045
F0.0024691358024691358
s(S'was'
p3046
g1287
g1288
tp3047
F0.00411522633744856
s(S'be'
p3048
S'appointed'
p3049
S'[[con]]'
p3050
tp3051
F0.0008230452674897119
s(S'being'
p3052
S'appointed'
p3053
S'as'
p3054
tp3055
F0.0008230452674897119
s(S'also'
p3056
S'serve'
p3057
S'as'
p3058
tp3059
F0.0008230452674897119
s(S'later'
p3060
S'merged'
p3061
S'into'
p3062
tp3063
F0.0008230452674897119
s(S'is'
p3064
g2126
g486
tp3065
F0.0016460905349794238
s(S'son'
p3066
g1579
g1580
tp3067
F0.0016460905349794238
s(S'was'
p3068
S'father'
p3069
S'of'
p3070
tp3071
F0.0008230452674897119
s(S'[[det]]'
p3072
S'king'
p3073
S'[[con]]'
p3074
tp3075
F0.0008230452674897119
s(S'won'
p3076
g672
g673
tp3077
F0.0008230452674897119
s(S'[[det]]'
p3078
g300
g301
tp3079
F0.0008230452674897119
s(S'[[prp]]'
p3080
S'mother'
p3081
S'[[con]]'
p3082
tp3083
F0.0008230452674897119
s(S'[[prp]]'
p3084
S'son'
p3085
S'[[num]]'
p3086
tp3087
F0.0008230452674897119
s(S'[[adj]]'
p3088
S'sons'
p3089
S'of'
p3090
tp3091
F0.0008230452674897119
s(S'[[prp]]'
p3092
S'wife'
p3093
S'[[con]]'
p3094
tp3095
F0.0008230452674897119
s(S'was'
p3096
S'appointed'
p3097
S'before'
p3098
tp3099
F0.0008230452674897119
s(S'then'
p3100
S'lost'
p3101
S'to'
p3102
tp3103
F0.0008230452674897119
s(S'[[det]]'
p3104
S'killing'
p3105
S'of'
p3106
tp3107
F0.0008230452674897119
s(S'also'
p3108
S'appointed'
p3109
S'[[det]]'
p3110
tp3111
F0.0008230452674897119
s(S'son'
p3112
S'[[det]]'
p3113
S'brother'
p3114
tp3115
F0.0016460905349794238
s(S'later'
p3116
S'appointed'
p3117
S'as'
p3118
tp3119
F0.0008230452674897119
s(S'also'
p3120
S'wrote'
p3121
S'that'
p3122
tp3123
F0.0008230452674897119
s(g153
S'cousin'
p3124
S'[[det]]'
p3125
tp3126
F0.0008230452674897119
s(S'brother'
p3127
S'[[con]]'
p3128
S'son'
p3129
tp3130
F0.0032921810699588477
s(g1288
g1289
S'son'
p3131
tp3132
F0.00411522633744856
s(g153
S'father'
p3133
S'was'
p3134
tp3135
F0.0008230452674897119
s(S'also'
p3136
S'sold'
p3137
S'as'
p3138
tp3139
F0.0008230452674897119
s(S'is'
p3140
S'led'
p3141
S'to'
p3142
tp3143
F0.0008230452674897119
s(S'[[adj]]'
p3144
S'son'
p3145
S'to'
p3146
tp3147
F0.0008230452674897119
s(S'soon'
p3148
S'came'
p3149
S'with'
p3150
tp3151
F0.0008230452674897119
s(S'had'
p3152
S'appointed'
p3153
S'[[det]]'
p3154
tp3155
F0.0008230452674897119
s(S'[[det]]'
p3156
S'prince'
p3157
S'of'
p3158
tp3159
F0.0008230452674897119
s(g153
S'death'
p3160
S'which'
p3161
tp3162
F0.0008230452674897119
s(S'where'
p3163
S'lost'
p3164
S'to'
p3165
tp3166
F0.0008230452674897119
s(g1421
g1422
g2079
tp3167
F0.0008230452674897119
s(g940
g941
g638
tp3168
F0.0008230452674897119
s(S'was'
p3169
S'killed'
p3170
S'because'
p3171
tp3172
F0.0008230452674897119
s(S'was'
p3173
S'succeeded'
p3174
S'[[con]]'
p3175
tp3176
F0.0008230452674897119
s(S'again'
p3177
S'lost'
p3178
S'to'
p3179
tp3180
F0.0008230452674897119
s(S'be'
p3181
S'crowned'
p3182
S'by'
p3183
tp3184
F0.0008230452674897119
s(S'[[adj]]'
p3185
S'son'
p3186
S'was'
p3187
tp3188
F0.0008230452674897119
s(S'is'
p3189
S'appointed'
p3190
S'to'
p3191
tp3192
F0.0008230452674897119
s(g2456
g2457
S'[[con]]'
p3193
tp3194
F0.0008230452674897119
s(S'is'
p3195
S'appointed'
p3196
S'by'
p3197
tp3198
F0.0008230452674897119
s(g936
g937
g2701
tp3199
F0.00411522633744856
s(S'[[adj]]'
p3200
S'lost'
p3201
S'to'
p3202
tp3203
F0.0008230452674897119
s(S'was'
p3204
S'forced'
p3205
S'to'
p3206
tp3207
F0.0008230452674897119
s(g138
g139
g842
tp3208
F0.0008230452674897119
s(S'[[mod]]'
p3209
S'replace'
p3210
S'[[det]]'
p3211
tp3212
F0.0008230452674897119
s(S'[[num]]'
p3213
S'son'
p3214
S'[[con]]'
p3215
tp3216
F0.0008230452674897119
s(g153
g2513
g2514
tp3217
F0.0008230452674897119
s(S'[[num]]'
p3218
S'born'
p3219
S'[[num]]'
p3220
tp3221
F0.0008230452674897119
s(g2428
g2429
S'son'
p3222
tp3223
F0.0008230452674897119
s(g153
S'wife'
p3224
S'of'
p3225
tp3226
F0.0008230452674897119
s(S'[[det]]'
p3227
S'younger'
p3228
S'son'
p3229
tp3230
F0.0032921810699588477
s(S'[[adj]]'
p3231
S'younger'
p3232
S'brother'
p3233
tp3234
F0.0008230452674897119
s(S'[[adj]]'
p3235
S'son'
p3236
S'by'
p3237
tp3238
F0.0008230452674897119
s(S'[[prp]]'
p3239
S'youngest'
p3240
S'son'
p3241
tp3242
F0.0008230452674897119
s(S'had'
p3243
S'killed'
p3244
S'[[con]]'
p3245
tp3246
F0.0008230452674897119
s(S'was'
p3247
S'forced'
p3248
S'out'
p3249
tp3250
F0.0008230452674897119
s(S'[[con]]'
p3251
S'appointed'
p3252
S'[[det]]'
p3253
tp3254
F0.0008230452674897119
s(S'that'
p3255
S'sold'
p3256
S'[[det]]'
p3257
tp3258
F0.0008230452674897119
s(S'instead'
p3259
S'appointed'
p3260
S'as'
p3261
tp3262
F0.0008230452674897119
s(S'[[prp]]'
p3263
S'father'
p3264
S'to'
p3265
tp3266
F0.0008230452674897119
s(S'was'
p3267
S'succeeded'
p3268
S'who'
p3269
tp3270
F0.0008230452674897119
s(S'first'
p3271
S'appointed'
p3272
S'in'
p3273
tp3274
F0.0008230452674897119
s(S'[[con]]'
p3275
S'merged'
p3276
S'to'
p3277
tp3278
F0.0008230452674897119
s(S'[[num]]'
p3279
S'son'
p3280
S'by'
p3281
tp3282
F0.0008230452674897119
s(S'[[mod]]'
p3283
S'succeed'
p3284
S'[[pro]]'
p3285
tp3286
F0.0008230452674897119
s.