(dp0
(S'during'
p1
S'[[det]]'
p2
S'administration'
p3
tp4
F0.0008710801393728223
s(S'be'
p5
S'appointed'
p6
S'[[det]]'
p7
tp8
F0.0008710801393728223
s(S'has'
p9
S'said'
p10
S'of'
p11
tp12
F0.0008710801393728223
s(S'when'
p13
S'resigned'
p14
S'to'
p15
tp16
F0.0008710801393728223
s(S'had'
p17
S'told'
p18
S'that'
p19
tp20
F0.0008710801393728223
s(S'be'
p21
S'led'
p22
S'by'
p23
tp24
F0.0008710801393728223
s(S'also'
p25
S'accompanied'
p26
S'[[adj]]'
p27
tp28
F0.0008710801393728223
s(S'was'
p29
S'sworn'
p30
S'[[con]]'
p31
tp32
F0.0008710801393728223
s(S'[[con]]'
p33
S'served'
p34
S'with'
p35
tp36
F0.0008710801393728223
s(S'[[con]]'
p37
S'supporter'
p38
S'of'
p39
tp40
F0.0008710801393728223
s(S'[[con]]'
p41
S'worked'
p42
S'later'
p43
tp44
F0.0008710801393728223
s(S'much'
p45
S'like'
p46
S'[[con]]'
p47
tp48
F0.0008710801393728223
s(S'ahead'
p49
S'of'
p50
S'home'
p51
tp52
F0.0008710801393728223
s(S'was'
p53
S'reunited'
p54
S'with'
p55
tp56
F0.0008710801393728223
s(S'[[con]]'
p57
S'took'
p58
S'[[pro]]'
p59
tp60
F0.0008710801393728223
s(S'later'
p61
S'said'
p62
S'of'
p63
tp64
F0.0008710801393728223
s(S'[[num]]'
p65
S'ahead'
p66
S'of'
p67
tp68
F0.0008710801393728223
s(S'[[det]]'
p69
S'influence'
p70
S'on'
p71
tp72
F0.0008710801393728223
s(S'later'
p73
S'did'
p74
S'[[det]]'
p75
tp76
F0.0008710801393728223
s(S'wrote'
p77
S'[[det]]'
p78
S'[[adj]]'
p79
tp80
F0.0017421602787456446
s(S'candidates'
p81
S'in'
p82
S'[[adj]]'
p83
tp84
F0.0008710801393728223
s(S'under'
p85
S'[[det]]'
p86
S'presidency'
p87
tp88
F0.0008710801393728223
s(S'later'
p89
S'joined'
p90
S'with'
p91
tp92
F0.0008710801393728223
s(S'[[pro]]'
p93
S'replaced'
p94
S'by'
p95
tp96
F0.0008710801393728223
s(S'was'
p97
S'supported'
p98
S'by'
p99
tp100
F0.0008710801393728223
s(S'was'
p101
S'asked'
p102
S'about'
p103
tp104
F0.0008710801393728223
s(S'had'
p105
S'appointed'
p106
S'in'
p107
tp108
F0.0008710801393728223
s(S'had'
p109
S'suggested'
p110
S'that'
p111
tp112
F0.0008710801393728223
s(S'is'
p113
S'replaced'
p114
S'as'
p115
tp116
F0.0008710801393728223
s(S'was'
p117
S'chosen'
p118
S'as'
p119
tp120
F0.0008710801393728223
s(S'was'
p121
S'removed'
p122
S'[[con]]'
p123
tp124
F0.0008710801393728223
s(S'which'
p125
S'wrote'
p126
S'with'
p127
tp128
F0.0008710801393728223
s(S'is'
p129
S'joined'
p130
S'with'
p131
tp132
F0.0008710801393728223
s(S'[[det]]'
p133
S'secretary'
p134
S'for'
p135
tp136
F0.0008710801393728223
s(S'was'
p137
S'elected'
p138
S'to'
p139
tp140
F0.0008710801393728223
s(S'to'
p141
S'break'
p142
S'up'
p143
tp144
F0.0008710801393728223
s(S'[[pro]]'
p145
S'came'
p146
S'to'
p147
tp148
F0.0008710801393728223
s(S'[[adj]]'
p149
S'figures'
p150
S'[[con]]'
p151
tp152
F0.0008710801393728223
s(S'that'
p153
S'worked'
p154
S'with'
p155
tp156
F0.0008710801393728223
s(S'also'
p157
S'wrote'
p158
S'at'
p159
tp160
F0.0008710801393728223
s(S'[[det]]'
p161
S'person'
p162
S'to'
p163
tp164
F0.0008710801393728223
s(S'briefly'
p165
S'served'
p166
S'as'
p167
tp168
F0.0008710801393728223
s(S'also'
p169
S'portrayed'
p170
S'in'
p171
tp172
F0.0008710801393728223
s(S'[[con]]'
p173
S'won'
p174
S'over'
p175
tp176
F0.0008710801393728223
s(S's'
p177
S'government'
p178
S'[[con]]'
p179
tp180
F0.0008710801393728223
s(S'mainly'
p181
S'worked'
p182
S'under'
p183
tp184
F0.0008710801393728223
s(S'[[con]]'
p185
S'served'
p186
S'[[num]]'
p187
tp188
F0.0008710801393728223
s(S'also'
p189
S'served'
p190
S'briefly'
p191
tp192
F0.0008710801393728223
s(S'[[prp]]'
p193
S'support'
p194
S'to'
p195
tp196
F0.0008710801393728223
s(S'also'
p197
S'took'
p198
S'[[con]]'
p199
tp200
F0.0008710801393728223
s(S'[[adj]]'
p201
S'wife'
p202
S'of'
p203
tp204
F0.0008710801393728223
s(S'by'
p205
S'winning'
p206
S'[[det]]'
p207
tp208
F0.0008710801393728223
s(S'served'
p209
S'serving'
p210
S'[[con]]'
p211
tp212
F0.0008710801393728223
s(S'when'
p213
S'lost'
p214
S'to'
p215
tp216
F0.0008710801393728223
s(S'[[con]]'
p217
S'replaced'
p218
S'by'
p219
tp220
F0.0008710801393728223
s(S'career'
p221
S'where'
p222
S'worked'
p223
tp224
F0.0008710801393728223
s(S'then'
p225
S'joined'
p226
S'as'
p227
tp228
F0.0008710801393728223
s(S'have'
p229
S'served'
p230
S'with'
p231
tp232
F0.0008710801393728223
s(S'where'
p233
S'worked'
p234
S'for'
p235
tp236
F0.0008710801393728223
s(S'[[num]]'
p237
S'led'
p238
S'by'
p239
tp240
F0.0008710801393728223
s(S'first'
p241
S'came'
p242
S'as'
p243
tp244
F0.0008710801393728223
s(S'then'
p245
S'worked'
p246
S'before'
p247
tp248
F0.0008710801393728223
s(S'[[det]]'
p249
S'government'
p250
S'[[con]]'
p251
tp252
F0.0008710801393728223
s(S'was'
p253
S'removed'
p254
S'by'
p255
tp256
F0.0008710801393728223
s(S'where'
p257
S'worked'
p258
S'under'
p259
tp260
F0.0008710801393728223
s(S'often'
p261
S'worked'
p262
S'with'
p263
tp264
F0.0008710801393728223
s(S'had'
p265
S'joined'
p266
S'[[con]]'
p267
tp268
F0.0008710801393728223
s(S'being'
p269
S'replaced'
p270
S'by'
p271
tp272
F0.0008710801393728223
s(S'[[con]]'
p273
S'remained'
p274
S'[[det]]'
p275
tp276
F0.0008710801393728223
s(S'served'
p277
S'through'
p278
S'administrations'
p279
tp280
F0.0008710801393728223
s(S'been'
p281
S'appointed'
p282
S'by'
p283
tp284
F0.0008710801393728223
s(S'who'
p285
S'led'
p286
S'for'
p287
tp288
F0.0008710801393728223
s(S'was'
p289
S'disappointed'
p290
S'that'
p291
tp292
F0.0008710801393728223
s(S'was'
p293
S'named'
p294
S'while'
p295
tp296
F0.0008710801393728223
s(S'also'
p297
S'lost'
p298
S'to'
p299
tp300
F0.0008710801393728223
s(S'were'
p301
S'replaced'
p302
S'with'
p303
tp304
F0.0008710801393728223
s(S'were'
p305
S'chosen'
p306
S'to'
p307
tp308
F0.0008710801393728223
s(S'also'
p309
S'worked'
p310
S'[[adj]]'
p311
tp312
F0.0008710801393728223
s(S'[[adj]]'
p313
S'person'
p314
S'[[con]]'
p315
tp316
F0.0008710801393728223
s(S'later'
p317
S'said'
p318
S'[[det]]'
p319
tp320
F0.0008710801393728223
s(S'had'
p321
S'asked'
p322
S'[[det]]'
p323
tp324
F0.0008710801393728223
s(S'has'
p325
S'left'
p326
S'[[det]]'
p327
tp328
F0.0008710801393728223
s(g177
S'wife'
p329
S'as'
p330
tp331
F0.0008710801393728223
s(S'has'
p332
S'served'
p333
S'[[con]]'
p334
tp335
F0.0008710801393728223
s(S'since'
p336
S'left'
p337
S'[[con]]'
p338
tp339
F0.0008710801393728223
s(S'also'
p340
S'worked'
p341
S'with'
p342
tp343
F0.0008710801393728223
s(S'while'
p344
S'served'
p345
S'as'
p346
tp347
F0.0008710801393728223
s(S'[[adj]]'
p348
S'named'
p349
S'after'
p350
tp351
F0.0008710801393728223
s(S'first'
p352
S'served'
p353
S'as'
p354
tp355
F0.0008710801393728223
s(S'when'
p356
S'wrote'
p357
S'to'
p358
tp359
F0.0008710801393728223
s(S'was'
p360
S'portrayed'
p361
S'in'
p362
tp363
F0.0008710801393728223
s(S'also'
p364
S'named'
p365
S'for'
p366
tp367
F0.0008710801393728223
s(S'be'
p368
S'named'
p369
S'by'
p370
tp371
F0.0008710801393728223
s(S'[[pro]]'
p372
S'[[det]]'
p373
S'opportunity'
p374
tp375
F0.0008710801393728223
s(S'[[con]]'
p376
S'was'
p377
S'appointed'
p378
tp379
F0.002613240418118467
s(S'had'
p380
S'lost'
p381
S'[[det]]'
p382
tp383
F0.0008710801393728223
s(S'been'
p384
S'portrayed'
p385
S'in'
p386
tp387
F0.0008710801393728223
s(S'[[adj]]'
p388
S'advisor'
p389
S'of'
p390
tp391
F0.0008710801393728223
s(S'[[det]]'
p392
S'ticket'
p393
S'of'
p394
tp395
F0.0008710801393728223
s(S'has'
p396
S'worked'
p397
S'among'
p398
tp399
F0.0008710801393728223
s(S'[[adj]]'
p400
S'wife'
p401
S'[[det]]'
p402
tp403
F0.0008710801393728223
s(S'then'
p404
S'joined'
p405
S'by'
p406
tp407
F0.0008710801393728223
s(g138
g139
S'replace'
p408
tp409
F0.0008710801393728223
s(S'later'
p410
S'named'
p411
S'[[con]]'
p412
tp413
F0.0008710801393728223
s(S'later'
p414
S'worked'
p415
S'as'
p416
tp417
F0.0008710801393728223
s(S'was'
p418
S'resigned'
p419
S'to'
p420
tp421
F0.0008710801393728223
s(S'again'
p422
S'worked'
p423
S'with'
p424
tp425
F0.0008710801393728223
s(S'had'
p426
S'won'
p427
S'[[con]]'
p428
tp429
F0.0008710801393728223
s(S'[[prp]]'
p430
S'work'
p431
S'on'
p432
tp433
F0.0008710801393728223
s(S'was'
p434
S'selected'
p435
S'[[con]]'
p436
tp437
F0.0008710801393728223
s(S'then'
p438
S'traveled'
p439
S'with'
p440
tp441
F0.0008710801393728223
s(S'was'
p442
S'sworn'
p443
S'in'
p444
tp445
F0.0008710801393728223
s(g177
S'support'
p446
S'[[con]]'
p447
tp448
F0.0008710801393728223
s(S'also'
p449
S'appointed'
p450
S'[[con]]'
p451
tp452
F0.0008710801393728223
s(S'[[det]]'
p453
S'ticket'
p454
S'with'
p455
tp456
F0.0008710801393728223
s(S'also'
p457
S'said'
p458
S'[[mod]]'
p459
tp460
F0.0008710801393728223
s(S'[[adj]]'
p461
S'wife'
p462
S'[[adj]]'
p463
tp464
F0.0008710801393728223
s(S'[[det]]'
p465
S'successor'
p466
S'[[con]]'
p467
tp468
F0.0008710801393728223
s(S'that'
p469
S'did'
p470
S'not'
p471
tp472
F0.0008710801393728223
s(S'was'
p473
S'thought'
p474
S'to'
p475
tp476
F0.0008710801393728223
s(S'where'
p477
S'worked'
p478
S'as'
p479
tp480
F0.0008710801393728223
s(S'[[adj]]'
p481
S'served'
p482
S'for'
p483
tp484
F0.0008710801393728223
s(S'had'
p485
S'nominated'
p486
S'[[con]]'
p487
tp488
F0.0008710801393728223
s(S'then'
p489
S'worked'
p490
S'[[adj]]'
p491
tp492
F0.0008710801393728223
s(S'was'
p493
S'joined'
p494
S'in'
p495
tp496
F0.0008710801393728223
s(S'first'
p497
S'worked'
p498
S'to'
p499
tp500
F0.0008710801393728223
s(S'has'
p501
S'said'
p502
S'[[det]]'
p503
tp504
F0.0008710801393728223
s(S'[[con]]'
p505
S'took'
p506
S'[[det]]'
p507
tp508
F0.0008710801393728223
s(S'also'
p509
S'won'
p510
S'by'
p511
tp512
F0.0008710801393728223
s(S'then'
p513
S'traveled'
p514
S'where'
p515
tp516
F0.0008710801393728223
s(S'was'
p517
S'reappointed'
p518
S'[[con]]'
p519
tp520
F0.0008710801393728223
s(S'of'
p521
S'led'
p522
S'by'
p523
tp524
F0.0008710801393728223
s(S'away'
p525
S'[[con]]'
p526
S'led'
p527
tp528
F0.0008710801393728223
s(S'[[adj]]'
p529
S'appointed'
p530
S'by'
p531
tp532
F0.0008710801393728223
s(S'was'
p533
S'selected'
p534
S'as'
p535
tp536
F0.0008710801393728223
s(S'[[con]]'
p537
S'told'
p538
S'[[pro]]'
p539
tp540
F0.0008710801393728223
s(S'then'
p541
S'worked'
p542
S'to'
p543
tp544
F0.0008710801393728223
s(S'has'
p545
S'served'
p546
S'under'
p547
tp548
F0.0008710801393728223
s(S'also'
p549
S'wrote'
p550
S'[[num]]'
p551
tp552
F0.0008710801393728223
s(S'[[con]]'
p553
S'work'
p554
S'with'
p555
tp556
F0.0008710801393728223
s(S'[[adj]]'
p557
S'given'
p558
S'by'
p559
tp560
F0.0008710801393728223
s(S'[[det]]'
p561
S'advisor'
p562
S'[[con]]'
p563
tp564
F0.0008710801393728223
s(S'also'
p565
S'named'
p566
S'along'
p567
tp568
F0.0008710801393728223
s(S'also'
p569
S'won'
p570
S'as'
p571
tp572
F0.0008710801393728223
s(S'away'
p573
S'followed'
p574
S'by'
p575
tp576
F0.0008710801393728223
s(S'later'
p577
S'wrote'
p578
S'that'
p579
tp580
F0.0008710801393728223
s(S'[[adj]]'
p581
S'figures'
p582
S'[[adj]]'
p583
tp584
F0.0008710801393728223
s(S'resigned'
p585
S'when'
p586
S'was'
p587
tp588
F0.0008710801393728223
s(S'had'
p589
S'appointed'
p590
S'as'
p591
tp592
F0.0008710801393728223
s(S'also'
p593
S'portrayed'
p594
S'[[con]]'
p595
tp596
F0.0008710801393728223
s(S'[[mod]]'
p597
S'stay'
p598
S'on'
p599
tp600
F0.0008710801393728223
s(S'[[con]]'
p601
S'served'
p602
S'where'
p603
tp604
F0.0008710801393728223
s(S'[[con]]'
p605
S'gave'
p606
S'up'
p607
tp608
F0.0008710801393728223
s(S'where'
p609
S'worked'
p610
S'with'
p611
tp612
F0.002613240418118467
s(S'also'
p613
S'joined'
p614
S'along'
p615
tp616
F0.0008710801393728223
s(S'was'
p617
S'nominated'
p618
S'with'
p619
tp620
F0.0008710801393728223
s(S'[[con]]'
p621
S'served'
p622
S'to'
p623
tp624
F0.0008710801393728223
s(S'not'
p625
S'support'
p626
S'[[con]]'
p627
tp628
F0.0008710801393728223
s(S'[[con]]'
p629
S'accompanied'
p630
S'by'
p631
tp632
F0.0008710801393728223
s(S'was'
p633
S'chosen'
p634
S'[[num]]'
p635
tp636
F0.0008710801393728223
s(S'[[con]]'
p637
S'lost'
p638
S'with'
p639
tp640
F0.0008710801393728223
s(S'[[con]]'
p641
S'replaced'
p642
S'[[con]]'
p643
tp644
F0.0008710801393728223
s(S'then'
p645
S'took'
p646
S'on'
p647
tp648
F0.0008710801393728223
s(S'then'
p649
S'joined'
p650
S'with'
p651
tp652
F0.0008710801393728223
s(S'[[adj]]'
p653
S'advisor'
p654
S'[[con]]'
p655
tp656
F0.0008710801393728223
s(S'[[mod]]'
p657
S'serve'
p658
S'in'
p659
tp660
F0.0008710801393728223
s(S'then'
p661
S'served'
p662
S'before'
p663
tp664
F0.0008710801393728223
s(S'in'
p665
S'[[det]]'
p666
S'administration'
p667
tp668
F0.0008710801393728223
s(S'has'
p669
S'traveled'
p670
S'with'
p671
tp672
F0.0008710801393728223
s(S'was'
p673
S'selected'
p674
S'after'
p675
tp676
F0.0008710801393728223
s(S'also'
p677
S'wrote'
p678
S'with'
p679
tp680
F0.0008710801393728223
s(S'was'
p681
S'told'
p682
S'by'
p683
tp684
F0.0008710801393728223
s(S'later'
p685
S'wrote'
p686
S'[[adj]]'
p687
tp688
F0.0008710801393728223
s(S'to'
p689
S'serve'
p690
S'[[num]]'
p691
tp692
F0.0008710801393728223
s(g278
g279
S'of'
p693
tp694
F0.0008710801393728223
s(S'be'
p695
S'nominated'
p696
S'for'
p697
tp698
F0.0008710801393728223
s(S'[[det]]'
p699
S'team'
p700
S'by'
p701
tp702
F0.0008710801393728223
s(S'to'
p703
S'support'
p704
S'[[prp]]'
p705
tp706
F0.0008710801393728223
s(S'[[prp]]'
p707
S'work'
p708
S'[[con]]'
p709
tp710
F0.0008710801393728223
s(g177
S'work'
p711
S'with'
p712
tp713
F0.0008710801393728223
s(S'also'
p714
S'accompanied'
p715
S'[[con]]'
p716
tp717
F0.0008710801393728223
s(S'[[det]]'
p718
S'stage'
p719
g221
tp720
F0.0008710801393728223
s(S'also'
p721
S'supported'
p722
S'by'
p723
tp724
F0.0008710801393728223
s(S'resigned'
p725
g376
g377
tp726
F0.002613240418118467
s(S'[[det]]'
p727
S'secretary'
p728
S'to'
p729
tp730
F0.0008710801393728223
s(S'[[adj]]'
p731
S'candidates'
p732
S'for'
p733
tp734
F0.0008710801393728223
s(S'which'
p735
S'wrote'
p736
S'that'
p737
tp738
F0.0008710801393728223
s(S'has'
p739
S'won'
p740
S'with'
p741
tp742
F0.0008710801393728223
s(S'when'
p743
S'took'
p744
S'over'
p745
tp746
F0.0008710801393728223
s(S'has'
p747
S'served'
p748
S'twice'
p749
tp750
F0.0008710801393728223
s(S'[[det]]'
p751
S'supporter'
p752
S'[[det]]'
p753
tp754
F0.0008710801393728223
s(S'later'
p755
S'replaced'
p756
S'by'
p757
tp758
F0.0008710801393728223
s(S'been'
p759
S'replaced'
p760
S'by'
p761
tp762
F0.0008710801393728223
s(S'[[con]]'
p763
S'served'
p764
S'when'
p765
tp766
F0.0008710801393728223
s(S'once'
p767
S'wrote'
p768
S'that'
p769
tp770
F0.0008710801393728223
s(g177
S'successor'
p771
S'as'
p772
tp773
F0.0008710801393728223
s(S'[[adj]]'
p774
S'person'
p775
S'to'
p776
tp777
F0.0008710801393728223
s(S'also'
p778
S'accompanied'
p779
S'by'
p780
tp781
F0.0008710801393728223
s(S'also'
p782
S'served'
p783
S'as'
p784
tp785
F0.0008710801393728223
s(S'was'
p786
S'named'
p787
S'when'
p788
tp789
F0.0008710801393728223
s(S'been'
p790
S'chosen'
p791
S'to'
p792
tp793
F0.0008710801393728223
s(S'was'
p794
S'appointed'
p795
S'first'
p796
tp797
F0.0008710801393728223
s(S'wrote'
p798
S'[[det]]'
p799
S'article'
p800
tp801
F0.002613240418118467
s(S'also'
p802
S'wrote'
p803
S'of'
p804
tp805
F0.0008710801393728223
s(S'was'
p806
S'portrayed'
p807
S'as'
p808
tp809
F0.0008710801393728223
s(S'later'
p810
S'replaced'
p811
S'as'
p812
tp813
F0.0008710801393728223
s(S'[[con]]'
p814
S'ahead'
p815
S'of'
p816
tp817
F0.0008710801393728223
s(S'later'
p818
S'wrote'
p819
S'[[num]]'
p820
tp821
F0.0008710801393728223
s(S'[[con]]'
p822
S'worked'
p823
S'as'
p824
tp825
F0.0008710801393728223
s(g177
S'support'
p826
S'for'
p827
tp828
F0.0008710801393728223
s(S'then'
p829
S'appointed'
p830
S'[[det]]'
p831
tp832
F0.0008710801393728223
s(S'[[con]]'
p833
S'gave'
p834
S'to'
p835
tp836
F0.0008710801393728223
s(S'[[mod]]'
p837
S'serve'
p838
S'under'
p839
tp840
F0.0008710801393728223
s(S'[[con]]'
p841
S'wrote'
p842
S'[[det]]'
p843
tp844
F0.0008710801393728223
s(S'which'
p845
S'led'
p846
S'to'
p847
tp848
F0.0008710801393728223
s(S'was'
p849
S'nominated'
p850
S'as'
p851
tp852
F0.0008710801393728223
s(S'awards'
p853
S'that'
p854
S'gave'
p855
tp856
F0.0008710801393728223
s(S'in'
p857
S'was'
p858
S'followed'
p859
tp860
F0.0008710801393728223
s(S'had'
p861
S'remained'
p862
S'[[adj]]'
p863
tp864
F0.0008710801393728223
s(S'[[det]]'
p865
S'work'
p866
S'on'
p867
tp868
F0.0008710801393728223
s(S'was'
p869
S'appointed'
p870
S'[[det]]'
p871
tp872
F0.0017421602787456446
s(S'was'
p873
S'credited'
p874
S'with'
p875
tp876
F0.0008710801393728223
s(S'[[con]]'
p877
S'worked'
p878
S'mainly'
p879
tp880
F0.0008710801393728223
s(S'who'
p881
S'served'
p882
S'under'
p883
tp884
F0.0008710801393728223
s(S'were'
p885
S'given'
p886
S'to'
p887
tp888
F0.0008710801393728223
s(S'later'
p889
S'told'
p890
S'that'
p891
tp892
F0.0008710801393728223
s(S'[[det]]'
p893
S'influence'
p894
S'in'
p895
tp896
F0.0008710801393728223
s(S'later'
p897
S'won'
p898
S'for'
p899
tp900
F0.0008710801393728223
s(S'first'
p901
S'worked'
p902
S'with'
p903
tp904
F0.0008710801393728223
s(S'then'
p905
S'served'
p906
S'to'
p907
tp908
F0.0008710801393728223
s(S'also'
p909
S'worked'
p910
S'under'
p911
tp912
F0.0008710801393728223
s(S'world'
p913
S'champion'
p914
S'[[adj]]'
p915
tp916
F0.0008710801393728223
s(S'to'
p917
S'advise'
p918
S'[[det]]'
p919
tp920
F0.0008710801393728223
s(S'also'
p921
S'wrote'
p922
S'under'
p923
tp924
F0.0008710801393728223
s(g799
g800
S'about'
p925
tp926
F0.0008710801393728223
s(S'[[adj]]'
p927
S'work'
p928
S'[[con]]'
p929
tp930
F0.0008710801393728223
s(S'had'
p931
S'said'
p932
S'to'
p933
tp934
F0.0008710801393728223
s(S'[[det]]'
p935
S'lead'
p936
S'[[con]]'
p937
tp938
F0.0008710801393728223
s(g177
S'named'
p939
S'for'
p940
tp941
F0.0008710801393728223
s(g177
S'work'
p942
S'[[adj]]'
p943
tp944
F0.0008710801393728223
s(S'was'
p945
S'left'
p946
S'out'
p947
tp948
F0.0008710801393728223
s(S'was'
p949
S'appointed'
p950
S'as'
p951
tp952
F0.0017421602787456446
s(S'who'
p953
S'took'
p954
S'over'
p955
tp956
F0.0008710801393728223
s(S'also'
p957
S'served'
p958
S'twice'
p959
tp960
F0.0008710801393728223
s(S'had'
p961
S'told'
p962
S'[[prp]]'
p963
tp964
F0.0008710801393728223
s(g373
g374
S'to'
p965
tp966
F0.0008710801393728223
s(S'then'
p967
S'replaced'
p968
S'as'
p969
tp970
F0.0008710801393728223
s(S'[[det]]'
p971
S'lead'
p972
S'in'
p973
tp974
F0.0008710801393728223
s(S'[[adj]]'
p975
S'wife'
p976
S'to'
p977
tp978
F0.0008710801393728223
s(S'[[det]]'
p979
S'person'
p980
S'[[con]]'
p981
tp982
F0.0008710801393728223
s(S'[[adj]]'
p983
S'person'
p984
S'[[adj]]'
p985
tp986
F0.0008710801393728223
s(S'also'
p987
S'wrote'
p988
S'[[adj]]'
p989
tp990
F0.0008710801393728223
s(S'[[adj]]'
p991
S'influence'
p992
S'over'
p993
tp994
F0.0008710801393728223
s(S'[[con]]'
p995
S'secretary'
p996
S'to'
p997
tp998
F0.0008710801393728223
s(S'has'
p999
S'told'
p1000
S'[[pro]]'
p1001
tp1002
F0.0008710801393728223
s(S'where'
p1003
S'served'
p1004
S'to'
p1005
tp1006
F0.0008710801393728223
s(S'as'
p1007
S'did'
p1008
S'[[det]]'
p1009
tp1010
F0.0008710801393728223
s(S'is'
p1011
S'named'
p1012
S'as'
p1013
tp1014
F0.0008710801393728223
s(S'[[con]]'
p1015
S'wife'
p1016
S'of'
p1017
tp1018
F0.0008710801393728223
s(S'in'
p1019
S'support'
p1020
S'of'
p1021
tp1022
F0.0008710801393728223
s(S'was'
p1023
S'given'
p1024
S'[[num]]'
p1025
tp1026
F0.0008710801393728223
s(S'off'
p1027
S'[[det]]'
p1028
S'lead'
p1029
tp1030
F0.0008710801393728223
s(S'later'
p1031
S'worked'
p1032
S'with'
p1033
tp1034
F0.0008710801393728223
s(S'[[con]]'
p1035
S'replaced'
p1036
S'with'
p1037
tp1038
F0.0008710801393728223
s(S'to'
p1039
S'succeed'
p1040
S'[[det]]'
p1041
tp1042
F0.0008710801393728223
s(S'also'
p1043
S'worked'
p1044
S'as'
p1045
tp1046
F0.0008710801393728223
s(S'[[adj]]'
p1047
S'figures'
p1048
S'as'
p1049
tp1050
F0.0008710801393728223
s(S'once'
p1051
S'said'
p1052
S'about'
p1053
tp1054
F0.0008710801393728223
s(S'[[adj]]'
p1055
S'wife'
p1056
S'[[num]]'
p1057
tp1058
F0.0008710801393728223
s(S'[[det]]'
p1059
S'administrations'
p1060
S'of'
p1061
tp1062
F0.004355400696864111
s(S'is'
p1063
S'credited'
p1064
S'on'
p1065
tp1066
F0.0008710801393728223
s(S'is'
p1067
S'named'
p1068
S'with'
p1069
tp1070
F0.0008710801393728223
s(S'again'
p1071
S'served'
p1072
S'under'
p1073
tp1074
F0.0008710801393728223
s(S'was'
p1075
S'removed'
p1076
S'after'
p1077
tp1078
F0.0008710801393728223
s(S'then'
p1079
S'appointed'
p1080
S'[[con]]'
p1081
tp1082
F0.0008710801393728223
s(S'was'
p1083
S'driven'
p1084
S'to'
p1085
tp1086
F0.0008710801393728223
s(S'during'
p1087
S'[[det]]'
p1088
S'administrations'
p1089
tp1090
F0.0008710801393728223
s(S'[[num]]'
p1091
S'like'
p1092
S'[[con]]'
p1093
tp1094
F0.0008710801393728223
s(S'been'
p1095
S'given'
p1096
S'by'
p1097
tp1098
F0.0008710801393728223
s(g207
S'match'
p1099
S'at'
p1100
tp1101
F0.0008710801393728223
s(S'later'
p1102
S'served'
p1103
S'from'
p1104
tp1105
F0.0008710801393728223
s(S'[[mod]]'
p1106
S'serve'
p1107
S'as'
p1108
tp1109
F0.0008710801393728223
s(S'took'
p1110
S'pole'
p1111
S'[[prp]]'
p1112
tp1113
F0.0008710801393728223
s(S'had'
p1114
S'asked'
p1115
S'[[con]]'
p1116
tp1117
F0.0008710801393728223
s(S'done'
p1118
S'work'
p1119
S'[[adj]]'
p1120
tp1121
F0.0008710801393728223
s(S'also'
p1122
S'did'
p1123
S'not'
p1124
tp1125
F0.0008710801393728223
s(S'[[prp]]'
p1126
S'wife'
p1127
S'had'
p1128
tp1129
F0.0008710801393728223
s(S'being'
p1130
S'appointed'
p1131
S'to'
p1132
tp1133
F0.0008710801393728223
s(S'then'
p1134
S'told'
p1135
S'that'
p1136
tp1137
F0.0008710801393728223
s(S'had'
p1138
S'said'
p1139
S'that'
p1140
tp1141
F0.0008710801393728223
s(S'[[num]]'
p1142
S'wrote'
p1143
S'on'
p1144
tp1145
F0.0008710801393728223
s(S'also'
p1146
S'said'
p1147
S'of'
p1148
tp1149
F0.0008710801393728223
s(S'also'
p1150
S'took'
p1151
S'on'
p1152
tp1153
F0.0008710801393728223
s(S'later'
p1154
S'appointed'
p1155
S'as'
p1156
tp1157
F0.0008710801393728223
s(S'then'
p1158
S'appointed'
p1159
S'by'
p1160
tp1161
F0.0008710801393728223
s(S'also'
p1162
S'left'
p1163
S'[[det]]'
p1164
tp1165
F0.0008710801393728223
s(S'also'
p1166
S'served'
p1167
S'under'
p1168
tp1169
F0.0008710801393728223
s(S'was'
p1170
S'asked'
p1171
S'by'
p1172
tp1173
F0.0008710801393728223
s(S'was'
p1174
S'joined'
p1175
S'while'
p1176
tp1177
F0.0008710801393728223
s(S'[[adj]]'
p1178
S'influence'
p1179
S'on'
p1180
tp1181
F0.0008710801393728223
s(S'had'
p1182
S'traveled'
p1183
S'with'
p1184
tp1185
F0.0008710801393728223
s(S'is'
p1186
S'appointed'
p1187
S'after'
p1188
tp1189
F0.0008710801393728223
s(S'be'
p1190
S'joined'
p1191
S'by'
p1192
tp1193
F0.0008710801393728223
s(S'also'
p1194
S'traveled'
p1195
S'with'
p1196
tp1197
F0.0008710801393728223
s(S'was'
p1198
S'served'
p1199
S'as'
p1200
tp1201
F0.0008710801393728223
s(S'to'
p1202
S'break'
p1203
S'[[con]]'
p1204
tp1205
F0.0008710801393728223
s(S'[[adj]]'
p1206
S'person'
p1207
S'as'
p1208
tp1209
F0.0008710801393728223
s(S'resigned'
p1210
S'when'
p1211
S'appointed'
p1212
tp1213
F0.0008710801393728223
s(S'[[con]]'
p1214
S'like'
p1215
S'[[adj]]'
p1216
tp1217
F0.0008710801393728223
s(S'pole'
p1218
g49
g50
tp1219
F0.002613240418118467
s(S'later'
p1220
S'commented'
p1221
S'that'
p1222
tp1223
F0.0008710801393728223
s(S'[[con]]'
p1224
S'replaced'
p1225
S'[[pro]]'
p1226
tp1227
F0.0008710801393728223
s(g177
S'worked'
p1228
S'as'
p1229
tp1230
F0.0008710801393728223
s(S'were'
p1231
S'named'
p1232
S'to'
p1233
tp1234
F0.0008710801393728223
s(S'also'
p1235
S'won'
p1236
S'over'
p1237
tp1238
F0.0008710801393728223
s(S'[[adj]]'
p1239
S'successor'
p1240
S'as'
p1241
tp1242
F0.0008710801393728223
s(S'[[pro]]'
p1243
S'came'
p1244
S'through'
p1245
tp1246
F0.0008710801393728223
s(S'[[adj]]'
p1247
S'article'
p1248
S'about'
p1249
tp1250
F0.0008710801393728223
s(S'is'
p1251
S'said'
p1252
S'by'
p1253
tp1254
F0.0008710801393728223
s(S'[[det]]'
p1255
S'work'
p1256
S'to'
p1257
tp1258
F0.0008710801393728223
s(S'had'
p1259
S'joined'
p1260
S'with'
p1261
tp1262
F0.0008710801393728223
s(S'also'
p1263
S'replaced'
p1264
S'by'
p1265
tp1266
F0.0008710801393728223
s(S'in'
p1267
g1059
g1060
tp1268
F0.0017421602787456446
s(S'also'
p1269
S'asked'
p1270
S'by'
p1271
tp1272
F0.0008710801393728223
s(S'has'
p1273
S'worked'
p1274
S'by'
p1275
tp1276
F0.0008710801393728223
s(S'have'
p1277
S'worked'
p1278
S'as'
p1279
tp1280
F0.0008710801393728223
s(S'was'
p1281
S'joined'
p1282
S'by'
p1283
tp1284
F0.0008710801393728223
s(S'have'
p1285
S'said'
p1286
S'to'
p1287
tp1288
F0.0008710801393728223
s(S'took'
p1289
S'off'
p1290
S'while'
p1291
tp1292
F0.0008710801393728223
s(S'then'
p1293
S'did'
p1294
S'[[det]]'
p1295
tp1296
F0.0008710801393728223
s(S'been'
p1297
S'selected'
p1298
S'by'
p1299
tp1300
F0.0008710801393728223
s(S'did'
p1301
S'nt'
p1302
S'help'
p1303
tp1304
F0.0008710801393728223
s(S'also'
p1305
S'joined'
p1306
S'by'
p1307
tp1308
F0.0008710801393728223
s(S'[[adj]]'
p1309
S'successor'
p1310
S'of'
p1311
tp1312
F0.0008710801393728223
s(S'to'
p1313
S'serve'
p1314
S'[[adj]]'
p1315
tp1316
F0.0008710801393728223
s(S'also'
p1317
S'served'
p1318
S'when'
p1319
tp1320
F0.0008710801393728223
s(S'[[adj]]'
p1321
S'president'
p1322
S'who'
p1323
tp1324
F0.0008710801393728223
s(S'did'
p1325
S'nt'
p1326
S'think'
p1327
tp1328
F0.0008710801393728223
s(S'was'
p1329
S'left'
p1330
S'with'
p1331
tp1332
F0.0008710801393728223
s(S'have'
p1333
S'served'
p1334
S'in'
p1335
tp1336
F0.0008710801393728223
s(S'first'
p1337
S'served'
p1338
S'[[con]]'
p1339
tp1340
F0.0008710801393728223
s(S'appointed'
p1341
S'when'
p1342
S'resigned'
p1343
tp1344
F0.0008710801393728223
s(S'have'
p1345
S'said'
p1346
S'that'
p1347
tp1348
F0.0008710801393728223
s(S'had'
p1349
S'left'
p1350
S'off'
p1351
tp1352
F0.0008710801393728223
s(S'has'
p1353
S'served'
p1354
S'as'
p1355
tp1356
F0.0008710801393728223
s(S'[[num]]'
p1357
S'given'
p1358
S'by'
p1359
tp1360
F0.0008710801393728223
s(S'once'
p1361
S'said'
p1362
S'in'
p1363
tp1364
F0.0008710801393728223
s(S'was'
p1365
S'elevated'
p1366
S'to'
p1367
tp1368
F0.0008710801393728223
s(S'then'
p1369
S'worked'
p1370
S'under'
p1371
tp1372
F0.0008710801393728223
s(S'later'
p1373
S'appointed'
p1374
S'by'
p1375
tp1376
F0.0008710801393728223
s(S'[[con]]'
p1377
S'resigned'
p1378
S'[[adj]]'
p1379
tp1380
F0.0008710801393728223
s(S'[[det]]'
p1381
S'wife'
p1382
S'of'
p1383
tp1384
F0.0008710801393728223
s(S'[[con]]'
p1385
S'gave'
p1386
S'[[adj]]'
p1387
tp1388
F0.0008710801393728223
s(S'often'
p1389
S'credited'
p1390
S'[[con]]'
p1391
tp1392
F0.0008710801393728223
s(S'[[con]]'
p1393
S'thought'
p1394
S'that'
p1395
tp1396
F0.0008710801393728223
s(S'later'
p1397
S'left'
p1398
S'[[con]]'
p1399
tp1400
F0.0008710801393728223
s(S'friends'
p1401
S'with'
p1402
S'[[adj]]'
p1403
tp1404
F0.0008710801393728223
s(S'is'
p1405
S'credited'
p1406
S'[[con]]'
p1407
tp1408
F0.0008710801393728223
s(S'[[mod]]'
p1409
S'serve'
p1410
S'with'
p1411
tp1412
F0.0008710801393728223
s(S'[[adj]]'
p1413
S'person'
p1414
S'who'
p1415
tp1416
F0.0008710801393728223
s(S'found'
p1417
S'work'
p1418
S'for'
p1419
tp1420
F0.0008710801393728223
s(S'[[adj]]'
p1421
S'class'
p1422
S'as'
p1423
tp1424
F0.0008710801393728223
s(S'then'
p1425
S'won'
p1426
S'over'
p1427
tp1428
F0.0008710801393728223
s(S'have'
p1429
S'given'
p1430
S'[[prp]]'
p1431
tp1432
F0.0008710801393728223
s(S'received'
p1433
g853
g854
tp1434
F0.0008710801393728223
s(S'[[adj]]'
p1435
S'secretary'
p1436
S'to'
p1437
tp1438
F0.0008710801393728223
s(S'which'
p1439
S'lost'
p1440
S'to'
p1441
tp1442
F0.0008710801393728223
s(S'later'
p1443
S'worked'
p1444
S'to'
p1445
tp1446
F0.0008710801393728223
s(S'is'
p1447
S'appointed'
p1448
S'[[det]]'
p1449
tp1450
F0.0008710801393728223
s(S'[[con]]'
p1451
S'remained'
p1452
S'[[adj]]'
p1453
tp1454
F0.0008710801393728223
s(S'[[adj]]'
p1455
S'influence'
p1456
S'with'
p1457
tp1458
F0.0008710801393728223
s(S'to'
p1459
S'work'
p1460
S'again'
p1461
tp1462
F0.0008710801393728223
s(S'was'
p1463
S'portrayed'
p1464
S'with'
p1465
tp1466
F0.0008710801393728223
s(S'is'
p1467
S'credited'
p1468
S'as'
p1469
tp1470
F0.0008710801393728223
s(S'later'
p1471
S'told'
p1472
S'[[pro]]'
p1473
tp1474
F0.0008710801393728223
s(S'had'
p1475
S'left'
p1476
S'[[prp]]'
p1477
tp1478
F0.0008710801393728223
s(S'[[con]]'
p1479
S'served'
p1480
S'under'
p1481
tp1482
F0.0008710801393728223
s(S'be'
p1483
S'replaced'
p1484
S'by'
p1485
tp1486
F0.0008710801393728223
s(g858
g859
S'by'
p1487
tp1488
F0.0008710801393728223
s(S'[[num]]'
p1489
S'worked'
p1490
S'with'
p1491
tp1492
F0.0008710801393728223
s(S'[[adj]]'
p1493
S'support'
p1494
S'of'
p1495
tp1496
F0.0008710801393728223
s(S'was'
p1497
S'elevated'
p1498
S'[[con]]'
p1499
tp1500
F0.0008710801393728223
s(g177
S'wife'
p1501
S'[[det]]'
p1502
tp1503
F0.0008710801393728223
s(S'just'
p1504
S'ahead'
p1505
S'of'
p1506
tp1507
F0.0008710801393728223
s(S'[[det]]'
p1508
S'work'
p1509
S'of'
p1510
tp1511
F0.0008710801393728223
s(S'[[con]]'
p1512
S'accompanied'
p1513
S'[[pro]]'
p1514
tp1515
F0.0008710801393728223
s(S'is'
p1516
S'credited'
p1517
S'with'
p1518
tp1519
F0.0008710801393728223
s(S'also'
p1520
S'replaced'
p1521
S'as'
p1522
tp1523
F0.0008710801393728223
s(S'soon'
p1524
S'joined'
p1525
S'[[con]]'
p1526
tp1527
F0.0008710801393728223
s(S'was'
p1528
S'asked'
p1529
S'whether'
p1530
tp1531
F0.0008710801393728223
s(S'[[con]]'
p1532
S'appointed'
p1533
S'as'
p1534
tp1535
F0.0008710801393728223
s(S'[[det]]'
p1536
S'county'
p1537
S'margin'
p1538
tp1539
F0.0008710801393728223
s(g177
S'support'
p1540
S'of'
p1541
tp1542
F0.0008710801393728223
s(g177
S'influence'
p1543
S'on'
p1544
tp1545
F0.0008710801393728223
s(S'later'
p1546
S'wrote'
p1547
S'to'
p1548
tp1549
F0.0008710801393728223
s(S'singing'
p1550
S'[[con]]'
p1551
S'followed'
p1552
tp1553
F0.0008710801393728223
s(S'on'
p1554
g392
g393
tp1555
F0.0017421602787456446
s(S'is'
p1556
S'finally'
p1557
S'[[adj]]'
p1558
tp1559
F0.0008710801393728223
s(S'also'
p1560
S'worked'
p1561
S'along'
p1562
tp1563
F0.0008710801393728223
s(S'also'
p1564
S'took'
p1565
S'over'
p1566
tp1567
F0.0008710801393728223
s(S'was'
p1568
S'given'
p1569
S'[[prp]]'
p1570
tp1571
F0.0008710801393728223
s(S'be'
p1572
S'appointed'
p1573
S'to'
p1574
tp1575
F0.0008710801393728223
s(S'to'
p1576
S'stay'
p1577
S'on'
p1578
tp1579
F0.0008710801393728223
s(S'was'
p1580
S'joined'
p1581
S'[[con]]'
p1582
tp1583
F0.0008710801393728223
s(S'was'
p1584
S'elevated'
p1585
S'as'
p1586
tp1587
F0.0008710801393728223
s(S'was'
p1588
S'replaced'
p1589
S'by'
p1590
tp1591
F0.0008710801393728223
s(S'to'
p1592
S'serve'
p1593
S'[[con]]'
p1594
tp1595
F0.0008710801393728223
s(S'be'
p1596
S'reunited'
p1597
S'with'
p1598
tp1599
F0.0008710801393728223
s(S'has'
p1600
S'suggested'
p1601
S'that'
p1602
tp1603
F0.0008710801393728223
s(S'to'
p1604
S'work'
p1605
S'as'
p1606
tp1607
F0.0008710801393728223
s(S'was'
p1608
S'chosen'
p1609
S'[[con]]'
p1610
tp1611
F0.0008710801393728223
s(g177
S'worked'
p1612
S'on'
p1613
tp1614
F0.0008710801393728223
s(S'was'
p1615
S'removed'
p1616
S'as'
p1617
tp1618
F0.0008710801393728223
s(S'[[adj]]'
p1619
S'like'
p1620
S'[[adj]]'
p1621
tp1622
F0.0008710801393728223
s(S'[[det]]'
p1623
S'leader'
p1624
S'to'
p1625
tp1626
F0.0008710801393728223
s(S'[[adj]]'
p1627
S'leader'
p1628
S'with'
p1629
tp1630
F0.0008710801393728223
s(S'to'
p1631
S'support'
p1632
S'[[con]]'
p1633
tp1634
F0.0008710801393728223
s(S'not'
p1635
S'selected'
p1636
S'with'
p1637
tp1638
F0.0008710801393728223
s(S'later'
p1639
S'served'
p1640
S'as'
p1641
tp1642
F0.0008710801393728223
s(S'had'
p1643
S'replaced'
p1644
S'with'
p1645
tp1646
F0.0008710801393728223
s(S'has'
p1647
S'commented'
p1648
S'on'
p1649
tp1650
F0.0008710801393728223
s(S'later'
p1651
S'joined'
p1652
S'along'
p1653
tp1654
F0.0008710801393728223
s(S'was'
p1655
S'replaced'
p1656
S'as'
p1657
tp1658
F0.0008710801393728223
s(S'was'
p1659
S'reappointed'
p1660
S'as'
p1661
tp1662
F0.0008710801393728223
s(S'took'
p1663
S'pole'
p1664
S'ahead'
p1665
tp1666
F0.0017421602787456446
s(S'is'
p1667
S'selected'
p1668
S'by'
p1669
tp1670
F0.0008710801393728223
s(S'[[con]]'
p1671
S'replaced'
p1672
S'[[adj]]'
p1673
tp1674
F0.0008710801393728223
s(S'appointed'
p1675
S'after'
p1676
S'resigned'
p1677
tp1678
F0.0008710801393728223
s(S'[[det]]'
p1679
S'lead'
p1680
S'ahead'
p1681
tp1682
F0.0008710801393728223
s(S'[[adj]]'
p1683
S'worked'
p1684
S'as'
p1685
tp1686
F0.0008710801393728223
s(S'[[adj]]'
p1687
S'ahead'
p1688
S'of'
p1689
tp1690
F0.0008710801393728223
s(S'had'
p1691
S'lost'
p1692
S'to'
p1693
tp1694
F0.0008710801393728223
s(S'once'
p1695
S'said'
p1696
S'to'
p1697
tp1698
F0.0008710801393728223
s(S'had'
p1699
S'replaced'
p1700
S'[[det]]'
p1701
tp1702
F0.0008710801393728223
s(S'was'
p1703
S'assisted'
p1704
S'[[con]]'
p1705
tp1706
F0.0008710801393728223
s(S'was'
p1707
S'left'
p1708
S'behind'
p1709
tp1710
F0.0008710801393728223
s(S'also'
p1711
S'appointed'
p1712
S'as'
p1713
tp1714
F0.0008710801393728223
s(S'later'
p1715
S'said'
p1716
S'[[con]]'
p1717
tp1718
F0.0008710801393728223
s(S'was'
p1719
S'secretary'
p1720
S'[[con]]'
p1721
tp1722
F0.0008710801393728223
s(S'twice'
p1723
S'served'
p1724
S'as'
p1725
tp1726
F0.0008710801393728223
s(S'which'
p1727
S'replaced'
p1728
S'[[det]]'
p1729
tp1730
F0.0008710801393728223
s(S'is'
p1731
S'assisted'
p1732
S'by'
p1733
tp1734
F0.0008710801393728223
s(S'where'
p1735
S'worked'
p1736
S'along'
p1737
tp1738
F0.0008710801393728223
s(S'is'
p1739
S'given'
p1740
S'[[det]]'
p1741
tp1742
F0.0008710801393728223
s(S'to'
p1743
S'serve'
p1744
S'[[det]]'
p1745
tp1746
F0.0008710801393728223
s(S'held'
p1747
S'[[det]]'
p1748
S'press'
p1749
tp1750
F0.0008710801393728223
s(S'later'
p1751
S'joined'
p1752
S'[[con]]'
p1753
tp1754
F0.0008710801393728223
s(S'be'
p1755
S'replaced'
p1756
S'as'
p1757
tp1758
F0.0008710801393728223
s(S'then'
p1759
S'replaced'
p1760
S'by'
p1761
tp1762
F0.0008710801393728223
s(S'was'
p1763
S'chosen'
p1764
S'by'
p1765
tp1766
F0.0008710801393728223
s(S'[[adj]]'
p1767
S'world'
p1768
S'champion'
p1769
tp1770
F0.0008710801393728223
s(S'[[mod]]'
p1771
S'work'
p1772
S'with'
p1773
tp1774
F0.0008710801393728223
s(S'also'
p1775
S'told'
p1776
S'that'
p1777
tp1778
F0.0008710801393728223
s(S'then'
p1779
S'told'
p1780
S'[[det]]'
p1781
tp1782
F0.0008710801393728223
s(S'also'
p1783
S'did'
p1784
S'[[det]]'
p1785
tp1786
F0.0008710801393728223
s(S'to'
p1787
S'serve'
p1788
S'under'
p1789
tp1790
F0.0008710801393728223
s(g1112
S'career'
p1791
S'ahead'
p1792
tp1793
F0.0008710801393728223
s(S'was'
p1794
S'secretary'
p1795
S'to'
p1796
tp1797
F0.0008710801393728223
s(S'also'
p1798
S'nominated'
p1799
S'as'
p1800
tp1801
F0.0008710801393728223
s(S'also'
p1802
S'said'
p1803
S'[[det]]'
p1804
tp1805
F0.0008710801393728223
s(S'[[adj]]'
p1806
S'served'
p1807
S'as'
p1808
tp1809
F0.0008710801393728223
s(S'formerly'
p1810
S'served'
p1811
S'as'
p1812
tp1813
F0.0008710801393728223
s(S'then'
p1814
S'asked'
p1815
S'[[pro]]'
p1816
tp1817
F0.0008710801393728223
s(S'[[con]]'
p1818
S'lost'
p1819
S'out'
p1820
tp1821
F0.0008710801393728223
s(S'served'
p1822
S'as'
p1823
S'[[det]]'
p1824
tp1825
F0.0008710801393728223
s(S'had'
p1826
S'given'
p1827
S'[[det]]'
p1828
tp1829
F0.0008710801393728223
s(S'[[mod]]'
p1830
S'serve'
p1831
S'to'
p1832
tp1833
F0.0008710801393728223
s(S'as'
p1834
S'portrayed'
p1835
S'by'
p1836
tp1837
F0.0008710801393728223
s(S'[[adj]]'
p1838
S'wife'
p1839
S'in'
p1840
tp1841
F0.0008710801393728223
s(S'also'
p1842
S'credited'
p1843
S'as'
p1844
tp1845
F0.0008710801393728223
s(S'found'
p1846
S'work'
p1847
S'with'
p1848
tp1849
F0.0008710801393728223
s(g78
g79
S'article'
p1850
tp1851
F0.0017421602787456446
s(S'[[con]]'
p1852
S'came'
p1853
S'with'
p1854
tp1855
F0.0008710801393728223
s(S'served'
p1856
S'in'
p1857
S'[[adj]]'
p1858
tp1859
F0.0008710801393728223
s(S'[[con]]'
p1860
S'gave'
p1861
S'[[pro]]'
p1862
tp1863
F0.0008710801393728223
s(S'[[con]]'
p1864
S'said'
p1865
S'that'
p1866
tp1867
F0.0008710801393728223
s(S'[[con]]'
p1868
S'served'
p1869
S'as'
p1870
tp1871
F0.0008710801393728223
s(S'also'
p1872
S'named'
p1873
S'[[adj]]'
p1874
tp1875
F0.0008710801393728223
s(S'has'
p1876
S'portrayed'
p1877
S'[[adj]]'
p1878
tp1879
F0.0008710801393728223
s(S'[[prp]]'
p1880
S'wife'
p1881
S'as'
p1882
tp1883
F0.0008710801393728223
s(S'was'
p1884
S'accompanied'
p1885
S'by'
p1886
tp1887
F0.0008710801393728223
s(S'[[con]]'
p1888
S'worked'
p1889
S'with'
p1890
tp1891
F0.0008710801393728223
s(S'[[adj]]'
p1892
S'support'
p1893
S'for'
p1894
tp1895
F0.0008710801393728223
s(S'began'
p1896
g1550
g1551
tp1897
F0.0008710801393728223
s(S'[[det]]'
p1898
S'leader'
p1899
S'was'
p1900
tp1901
F0.0008710801393728223
s(S'was'
p1902
S'wife'
p1903
S'of'
p1904
tp1905
F0.0008710801393728223
s(S'[[det]]'
p1906
S'leader'
p1907
S'is'
p1908
tp1909
F0.0008710801393728223
s(S'[[adj]]'
p1910
S'influence'
p1911
S'as'
p1912
tp1913
F0.0008710801393728223
s(S'been'
p1914
S'credited'
p1915
S'as'
p1916
tp1917
F0.0008710801393728223
s(S'has'
p1918
S'remained'
p1919
S'[[adj]]'
p1920
tp1921
F0.0008710801393728223
s(S'took'
p1922
g1679
g1680
tp1923
F0.005226480836236934
s(S'[[det]]'
p1924
S'article'
p1925
S'on'
p1926
tp1927
F0.0008710801393728223
s(S'[[con]]'
p1928
S'took'
p1929
S'up'
p1930
tp1931
F0.0008710801393728223
s(S'also'
p1932
S'lost'
p1933
S'with'
p1934
tp1935
F0.0008710801393728223
s(S'later'
p1936
S'took'
p1937
S'[[det]]'
p1938
tp1939
F0.0008710801393728223
s(S'also'
p1940
S'appointed'
p1941
S'[[adj]]'
p1942
tp1943
F0.0008710801393728223
s(S'was'
p1944
S'nominated'
p1945
S'by'
p1946
tp1947
F0.0008710801393728223
s(S'be'
p1948
S'given'
p1949
S'to'
p1950
tp1951
F0.0008710801393728223
s(S'to'
p1952
S'work'
p1953
S'together'
p1954
tp1955
F0.0008710801393728223
s(S'has'
p1956
S'named'
p1957
S'as'
p1958
tp1959
F0.0008710801393728223
s(S'is'
p1960
S'named'
p1961
S'[[det]]'
p1962
tp1963
F0.0008710801393728223
s(S'who'
p1964
S'led'
p1965
S'[[det]]'
p1966
tp1967
F0.0008710801393728223
s(g1551
g1552
g718
tp1968
F0.0008710801393728223
s(S'led'
p1969
S'[[det]]'
p1970
S'driver'
p1971
tp1972
F0.0008710801393728223
s(g965
S'continue'
p1973
S'[[prp]]'
p1974
tp1975
F0.0008710801393728223
s(S'have'
p1976
S'remained'
p1977
S'with'
p1978
tp1979
F0.0008710801393728223
s(S'is'
p1980
S'accompanied'
p1981
S'by'
p1982
tp1983
F0.0008710801393728223
s(S'[[det]]'
p1984
S'successor'
p1985
S'to'
p1986
tp1987
F0.0008710801393728223
s(S'be'
p1988
S'appointed'
p1989
S'by'
p1990
tp1991
F0.0008710801393728223
s(S'was'
p1992
S'driven'
p1993
S'back'
p1994
tp1995
F0.0008710801393728223
s(S'was'
p1996
S'appointed'
p1997
S'after'
p1998
tp1999
F0.0017421602787456446
s(S'later'
p2000
S'worked'
p2001
S'[[con]]'
p2002
tp2003
F0.0008710801393728223
s(S'has'
p2004
S'worked'
p2005
S'as'
p2006
tp2007
F0.0008710801393728223
s(S'generation'
p2008
S'member'
p2009
S'along'
p2010
tp2011
F0.0008710801393728223
s(S'where'
p2012
S'took'
p2013
S'part'
p2014
tp2015
F0.0008710801393728223
s(S'is'
p2016
S'driven'
p2017
S'by'
p2018
tp2019
F0.0008710801393728223
s(S'been'
p2020
S'joined'
p2021
S'by'
p2022
tp2023
F0.0008710801393728223
s(S'later'
p2024
S'serve'
p2025
S'as'
p2026
tp2027
F0.0008710801393728223
s(S'[[con]]'
p2028
S'took'
p2029
S'over'
p2030
tp2031
F0.0008710801393728223
s(S'be'
p2032
S'named'
p2033
S'[[det]]'
p2034
tp2035
F0.0008710801393728223
s(S'[[prp]]'
p2036
S'leader'
p2037
S'when'
p2038
tp2039
F0.0008710801393728223
s(S'[[adj]]'
p2040
S'successor'
p2041
S'to'
p2042
tp2043
F0.0008710801393728223
s(S'[[pro]]'
p2044
S'wrote'
p2045
S'to'
p2046
tp2047
F0.0008710801393728223
s(S'also'
p2048
S'wrote'
p2049
S'to'
p2050
tp2051
F0.0008710801393728223
s(S'then'
p2052
S'gave'
p2053
S'[[pro]]'
p2054
tp2055
F0.0008710801393728223
s(S'to'
p2056
S'work'
p2057
S'[[adj]]'
p2058
tp2059
F0.0008710801393728223
s(S'also'
p2060
S'worked'
p2061
S'[[con]]'
p2062
tp2063
F0.0008710801393728223
s(S'has'
p2064
S'worked'
p2065
S'with'
p2066
tp2067
F0.0008710801393728223
s(S'soon'
p2068
S'joined'
p2069
S'by'
p2070
tp2071
F0.0008710801393728223
s(S'had'
p2072
S'said'
p2073
S'about'
p2074
tp2075
F0.0008710801393728223
s(g1974
S'studies'
p2076
S'in'
p2077
tp2078
F0.0008710801393728223
s(S'was'
p2079
S'nominated'
p2080
S'to'
p2081
tp2082
F0.0008710801393728223
s(S'then'
p2083
S'appointed'
p2084
S'as'
p2085
tp2086
F0.0008710801393728223
s(S'[[prp]]'
p2087
S'successor'
p2088
S'as'
p2089
tp2090
F0.0008710801393728223
s(S'was'
p2091
S'appointed'
p2092
S'where'
p2093
tp2094
F0.0008710801393728223
s(S'[[adj]]'
p2095
S'advisor'
p2096
S'to'
p2097
tp2098
F0.0008710801393728223
s(S'has'
p2099
S'said'
p2100
S'about'
p2101
tp2102
F0.0008710801393728223
s(S'been'
p2103
S'nominated'
p2104
S'by'
p2105
tp2106
F0.0008710801393728223
s(S'[[det]]'
p2107
g1218
g49
tp2108
F0.0008710801393728223
s(S'was'
p2109
S'replaced'
p2110
S'in'
p2111
tp2112
F0.0008710801393728223
s(S'[[det]]'
p2113
S'person'
p2114
S'who'
p2115
tp2116
F0.0008710801393728223
s(S'to'
p2117
S'succeed'
p2118
S'[[pro]]'
p2119
tp2120
F0.0008710801393728223
s(S'also'
p2121
S'served'
p2122
S'after'
p2123
tp2124
F0.0008710801393728223
s(S'was'
p2125
S'asked'
p2126
S'how'
p2127
tp2128
F0.0008710801393728223
s(S'[[con]]'
p2129
S'left'
p2130
S'with'
p2131
tp2132
F0.0008710801393728223
s(S'later'
p2133
S'lost'
p2134
S'to'
p2135
tp2136
F0.0008710801393728223
s(S'is'
p2137
S'appointed'
p2138
S'[[con]]'
p2139
tp2140
F0.0008710801393728223
s(S'been'
p2141
S'named'
p2142
S'after'
p2143
tp2144
F0.0008710801393728223
s(S'[[adj]]'
p2145
S'wife'
p2146
S'[[con]]'
p2147
tp2148
F0.0008710801393728223
s(S'also'
p2149
S'served'
p2150
S'to'
p2151
tp2152
F0.0008710801393728223
s(S'was'
p2153
S'portrayed'
p2154
S'[[con]]'
p2155
tp2156
F0.0008710801393728223
s(S'[[num]]'
p2157
S'served'
p2158
S'on'
p2159
tp2160
F0.0008710801393728223
s(S'became'
p2161
S'secretary'
p2162
S'to'
p2163
tp2164
F0.0008710801393728223
s(S'be'
p2165
S'named'
p2166
S'later'
p2167
tp2168
F0.0008710801393728223
s(S'was'
p2169
S'assisted'
p2170
S'by'
p2171
tp2172
F0.0008710801393728223
s(S'[[adj]]'
p2173
S'support'
p2174
S'[[con]]'
p2175
tp2176
F0.0008710801393728223
s(S'later'
p2177
S'named'
p2178
S'[[pro]]'
p2179
tp2180
F0.0008710801393728223
s(g177
S'influence'
p2181
S'with'
p2182
tp2183
F0.0008710801393728223
s(S'just'
p2184
S'like'
p2185
S'[[prp]]'
p2186
tp2187
F0.0008710801393728223
s(S'[[pro]]'
p2188
S'did'
p2189
S'[[con]]'
p2190
tp2191
F0.0008710801393728223
s(S'served'
p2192
S'serving'
p2193
S'under'
p2194
tp2195
F0.0008710801393728223
s(S'be'
p2196
S'named'
p2197
S'for'
p2198
tp2199
F0.0008710801393728223
s(S'also'
p2200
S'wrote'
p2201
S'on'
p2202
tp2203
F0.0008710801393728223
s(S'been'
p2204
S'nominated'
p2205
S'[[con]]'
p2206
tp2207
F0.0008710801393728223
s(g177
S'wife'
p2208
S'who'
p2209
tp2210
F0.0008710801393728223
s(S'what'
p2211
S'thought'
p2212
S'was'
p2213
tp2214
F0.0008710801393728223
s(g1791
g1792
S'of'
p2215
tp2216
F0.0008710801393728223
s(S'has'
p2217
S'worked'
p2218
S'until'
p2219
tp2220
F0.0008710801393728223
s(S'again'
p2221
S'nominated'
p2222
S'for'
p2223
tp2224
F0.0008710801393728223
s(S'also'
p2225
S'said'
p2226
S'that'
p2227
tp2228
F0.0008710801393728223
s(S'was'
p2229
S'appointed'
p2230
S'[[con]]'
p2231
tp2232
F0.0008710801393728223
s(S'was'
p2233
S'joined'
p2234
S'at'
p2235
tp2236
F0.0008710801393728223
s(S'then'
p2237
S'worked'
p2238
S'with'
p2239
tp2240
F0.0008710801393728223
s(S'[[det]]'
p2241
g913
g914
tp2242
F0.0017421602787456446
s(S'to'
p2243
S'work'
p2244
S'among'
p2245
tp2246
F0.0008710801393728223
s(S'[[con]]'
p2247
S'work'
p2248
S'on'
p2249
tp2250
F0.0008710801393728223
s(S'served'
p2251
S'briefly'
p2252
S'as'
p2253
tp2254
F0.002613240418118467
s(S'also'
p2255
S'came'
p2256
S'up'
p2257
tp2258
F0.0008710801393728223
s(S'had'
p2259
S'told'
p2260
S'[[pro]]'
p2261
tp2262
F0.0008710801393728223
s(S'was'
p2263
S'named'
p2264
S'as'
p2265
tp2266
F0.0008710801393728223
s(S'[[det]]'
p2267
S'secretary'
p2268
S'[[con]]'
p2269
tp2270
F0.0008710801393728223
s(S'entered'
p2271
S'[[adj]]'
p2272
S'politics'
p2273
tp2274
F0.0008710801393728223
s(S'getting'
p2275
S'ahead'
p2276
S'of'
p2277
tp2278
F0.0008710801393728223
s(S'[[con]]'
p2279
S'won'
p2280
S'with'
p2281
tp2282
F0.0008710801393728223
s(g1552
g718
g719
tp2283
F0.0008710801393728223
s(S'been'
p2284
S'appointed'
p2285
S'to'
p2286
tp2287
F0.0008710801393728223
s(S'[[prp]]'
p2288
S'successor'
p2289
S'in'
p2290
tp2291
F0.0008710801393728223
s(S'been'
p2292
S'nominated'
p2293
S'as'
p2294
tp2295
F0.0008710801393728223
s(g177
S'named'
p2296
S'after'
p2297
tp2298
F0.0008710801393728223
s(S'also'
p2299
S'commented'
p2300
S'on'
p2301
tp2302
F0.0008710801393728223
s(S'again'
p2303
S'served'
p2304
S'as'
p2305
tp2306
F0.0008710801393728223
s(S'been'
p2307
S'given'
p2308
S'[[det]]'
p2309
tp2310
F0.0008710801393728223
s(S'when'
p2311
S'served'
p2312
S'as'
p2313
tp2314
F0.0008710801393728223
s(S'was'
p2315
S'appointed'
p2316
S'by'
p2317
tp2318
F0.002613240418118467
s(S'[[det]]'
p2319
S'thought'
p2320
S'of'
p2321
tp2322
F0.0008710801393728223
s(S'served'
p2323
g1087
g1088
tp2324
F0.002613240418118467
s(S'[[con]]'
p2325
S'set'
p2326
S'off'
p2327
tp2328
F0.0008710801393728223
s(S'also'
p2329
S'credited'
p2330
S'with'
p2331
tp2332
F0.0008710801393728223
s(S'also'
p2333
S'supported'
p2334
S'[[adj]]'
p2335
tp2336
F0.0008710801393728223
s(S'was'
p2337
S'finally'
p2338
S'[[adj]]'
p2339
tp2340
F0.0008710801393728223
s(S'[[adj]]'
p2341
S'class'
p2342
S'of'
p2343
tp2344
F0.0008710801393728223
s(S'[[adj]]'
p2345
g2008
g2009
tp2346
F0.0008710801393728223
s(S'[[con]]'
p2347
S'took'
p2348
S'on'
p2349
tp2350
F0.0008710801393728223
s(S'to'
p2351
S'succeed'
p2352
S'as'
p2353
tp2354
F0.0008710801393728223
s(S'been'
p2355
S'asked'
p2356
S'by'
p2357
tp2358
F0.0008710801393728223
s(S'later'
p2359
S'came'
p2360
S'with'
p2361
tp2362
F0.0008710801393728223
s(S'had'
p2363
S'appointed'
p2364
S'to'
p2365
tp2366
F0.0008710801393728223
s(S'[[det]]'
p2367
S'influence'
p2368
S'[[con]]'
p2369
tp2370
F0.0008710801393728223
s(S'then'
p2371
S'appointed'
p2372
S'to'
p2373
tp2374
F0.0008710801393728223
s(S'has'
p2375
S'served'
p2376
S'by'
p2377
tp2378
F0.0008710801393728223
s(S'later'
p2379
S'traveled'
p2380
S'with'
p2381
tp2382
F0.0008710801393728223
s(S'has'
p2383
S'joined'
p2384
S'with'
p2385
tp2386
F0.0008710801393728223
s(S'as'
p2387
S'wrote'
p2388
S'to'
p2389
tp2390
F0.0008710801393728223
s(S'during'
p2391
S'[[det]]'
p2392
S'presidency'
p2393
tp2394
F0.0008710801393728223
s(S'[[adj]]'
p2395
S'work'
p2396
S'to'
p2397
tp2398
F0.0008710801393728223
s(g177
S'work'
p2399
S'as'
p2400
tp2401
F0.0008710801393728223
s(S'was'
p2402
S'left'
p2403
S'to'
p2404
tp2405
F0.0008710801393728223
s(S'[[pro]]'
p2406
S'said'
p2407
S'that'
p2408
tp2409
F0.0008710801393728223
s(S'to'
p2410
S'succeed'
p2411
S'[[con]]'
p2412
tp2413
F0.0008710801393728223
s(S'was'
p2414
S'appointed'
p2415
S'under'
p2416
tp2417
F0.0008710801393728223
s(S'[[adj]]'
p2418
S'person'
p2419
S'ever'
p2420
tp2421
F0.0008710801393728223
s(S'been'
p2422
S'appointed'
p2423
S'as'
p2424
tp2425
F0.0008710801393728223
s(S'to'
p2426
S'dominate'
p2427
S'[[det]]'
p2428
tp2429
F0.0008710801393728223
s(S'to'
p2430
S'serve'
p2431
S'when'
p2432
tp2433
F0.0008710801393728223
s(S'was'
p2434
S'given'
p2435
S'[[det]]'
p2436
tp2437
F0.0008710801393728223
s(S'[[adj]]'
p2438
S'candidates'
p2439
S'[[con]]'
p2440
tp2441
F0.0008710801393728223
s(S'[[prp]]'
p2442
S'wife'
p2443
S'[[num]]'
p2444
tp2445
F0.0008710801393728223
s(S'[[det]]'
p2446
S'successor'
p2447
S'of'
p2448
tp2449
F0.0008710801393728223
s(S'then'
p2450
S'joined'
p2451
S'[[con]]'
p2452
tp2453
F0.0008710801393728223
s(g1537
g1538
S'over'
p2454
tp2455
F0.0008710801393728223
s(g177
S'successor'
p2456
S'in'
p2457
tp2458
F0.0008710801393728223
s(S'[[prp]]'
p2459
S'work'
p2460
S'with'
p2461
tp2462
F0.0008710801393728223
s(S'also'
p2463
S'worked'
p2464
S'where'
p2465
tp2466
F0.0008710801393728223
s(S'was'
p2467
S'nominated'
p2468
S'[[num]]'
p2469
tp2470
F0.0008710801393728223
s(S'[[con]]'
p2471
S'lost'
p2472
S'[[num]]'
p2473
tp2474
F0.0008710801393728223
s(S'later'
p2475
S'selected'
p2476
S'as'
p2477
tp2478
F0.0008710801393728223
s(S'also'
p2479
S'commented'
p2480
S'to'
p2481
tp2482
F0.0008710801393728223
s(S'[[con]]'
p2483
S'took'
p2484
S'[[num]]'
p2485
tp2486
F0.0008710801393728223
s(S'[[det]]'
p2487
S'support'
p2488
S'of'
p2489
tp2490
F0.0008710801393728223
s(S'is'
p2491
S'named'
p2492
S'to'
p2493
tp2494
F0.0008710801393728223
s(S'was'
p2495
S'told'
p2496
S'[[det]]'
p2497
tp2498
F0.0008710801393728223
s(S'[[con]]'
p2499
S'took'
p2500
S'[[con]]'
p2501
tp2502
F0.0008710801393728223
s(S'is'
p2503
S'told'
p2504
S'that'
p2505
tp2506
F0.0008710801393728223
s(S'also'
p2507
S'won'
p2508
S'to'
p2509
tp2510
F0.0008710801393728223
s(S'[[con]]'
p2511
S'admits'
p2512
S'to'
p2513
tp2514
F0.0008710801393728223
s(S'championship'
p2515
g205
g206
tp2516
F0.0008710801393728223
s(S'had'
p2517
S'served'
p2518
S'on'
p2519
tp2520
F0.0008710801393728223
s(S'has'
p2521
S'supported'
p2522
S'[[con]]'
p2523
tp2524
F0.0008710801393728223
s(S'[[det]]'
p2525
S'advisor'
p2526
S'of'
p2527
tp2528
F0.0008710801393728223
s(S'to'
p2529
S'serve'
p2530
S'after'
p2531
tp2532
F0.0008710801393728223
s(S'was'
p2533
S'credited'
p2534
S'as'
p2535
tp2536
F0.0008710801393728223
s(S'then'
p2537
S'gave'
p2538
S'to'
p2539
tp2540
F0.0008710801393728223
s(S'being'
p2541
S'appointed'
p2542
S'[[det]]'
p2543
tp2544
F0.0008710801393728223
s(S'[[adj]]'
p2545
S'government'
p2546
S'of'
p2547
tp2548
F0.0008710801393728223
s(S'who'
p2549
S'worked'
p2550
S'under'
p2551
tp2552
F0.0008710801393728223
s(S'is'
p2553
S'named'
p2554
S'[[con]]'
p2555
tp2556
F0.0008710801393728223
s(S'was'
p2557
S'given'
p2558
S'by'
p2559
tp2560
F0.0008710801393728223
s(S'being'
p2561
S'appointed'
p2562
S'as'
p2563
tp2564
F0.0008710801393728223
s(S'[[con]]'
p2565
S'left'
p2566
S'in'
p2567
tp2568
F0.0008710801393728223
s(S'had'
p2569
S'given'
p2570
S'[[prp]]'
p2571
tp2572
F0.0008710801393728223
s(g719
g221
g222
tp2573
F0.0008710801393728223
s(S'did'
p2574
S'take'
p2575
S'who'
p2576
tp2577
F0.0008710801393728223
s(S'[[prp]]'
p2578
S'support'
p2579
S'behind'
p2580
tp2581
F0.0008710801393728223
s(S'[[con]]'
p2582
S'worked'
p2583
S'[[prp]]'
p2584
tp2585
F0.0008710801393728223
s(S'is'
p2586
S'nominated'
p2587
S'by'
p2588
tp2589
F0.0008710801393728223
s(S'is'
p2590
S'portrayed'
p2591
S'as'
p2592
tp2593
F0.0008710801393728223
s(S'later'
p2594
S'worked'
p2595
S'on'
p2596
tp2597
F0.0008710801393728223
s(S'took'
p2598
g1027
g1028
tp2599
F0.0008710801393728223
s(S'later'
p2600
S'wrote'
p2601
S'while'
p2602
tp2603
F0.0008710801393728223
s(S'[[det]]'
p2604
S'leader'
p2605
S'as'
p2606
tp2607
F0.0008710801393728223
s(S'later'
p2608
S'replaced'
p2609
S'with'
p2610
tp2611
F0.0008710801393728223
s(S'had'
p2612
S'given'
p2613
S'[[pro]]'
p2614
tp2615
F0.0008710801393728223
s(S'also'
p2616
S'worked'
p2617
S'to'
p2618
tp2619
F0.0008710801393728223
s(S'had'
p2620
S'worked'
p2621
S'before'
p2622
tp2623
F0.0008710801393728223
s(S'had'
p2624
S'left'
p2625
S'[[con]]'
p2626
tp2627
F0.0008710801393728223
s(g1973
g1974
g2076
tp2628
F0.0008710801393728223
s(S'been'
p2629
S'given'
p2630
S'to'
p2631
tp2632
F0.0008710801393728223
s(S'[[adj]]'
p2633
S'support'
p2634
S'from'
p2635
tp2636
F0.0008710801393728223
s(S'[[con]]'
p2637
S'named'
p2638
S'as'
p2639
tp2640
F0.0008710801393728223
s(g177
S'wife'
p2641
S'[[con]]'
p2642
tp2643
F0.0008710801393728223
s(S'also'
p2644
S'appointed'
p2645
S'by'
p2646
tp2647
F0.0008710801393728223
s(S'[[adj]]'
p2648
g81
g82
tp2649
F0.0008710801393728223
s(S'then'
p2650
S'resigned'
p2651
S'as'
p2652
tp2653
F0.0008710801393728223
s(S'was'
p2654
S'portrayed'
p2655
S'by'
p2656
tp2657
F0.0008710801393728223
s(S'have'
p2658
S'won'
p2659
S'more'
p2660
tp2661
F0.0008710801393728223
s(S'[[con]]'
p2662
S'lost'
p2663
S'[[det]]'
p2664
tp2665
F0.0008710801393728223
s(S'later'
p2666
S'joined'
p2667
S'while'
p2668
tp2669
F0.0008710801393728223
s(S'first'
p2670
S'appointed'
p2671
S'by'
p2672
tp2673
F0.0008710801393728223
s(S'carried'
p2674
S'by'
p2675
S'margin'
p2676
tp2677
F0.0008710801393728223
s(S'was'
p2678
S'chosen'
p2679
S'over'
p2680
tp2681
F0.0008710801393728223
s(g666
g667
S'of'
p2682
tp2683
F0.0017421602787456446
s(S'to'
p2684
S'work'
p2685
S'[[num]]'
p2686
tp2687
F0.0008710801393728223
s(g1680
g1681
S'of'
p2688
tp2689
F0.0008710801393728223
s(S'was'
p2690
S'said'
p2691
S'that'
p2692
tp2693
F0.0008710801393728223
s(S'had'
p2694
S'left'
p2695
S'to'
p2696
tp2697
F0.0008710801393728223
s(S'were'
p2698
S'replaced'
p2699
S'by'
p2700
tp2701
F0.0008710801393728223
s(S'then'
p2702
S'served'
p2703
S'briefly'
p2704
tp2705
F0.0008710801393728223
s(S'later'
p2706
S'appointed'
p2707
S'of'
p2708
tp2709
F0.0008710801393728223
s(S'[[adj]]'
p2710
S'secretary'
p2711
S'in'
p2712
tp2713
F0.0008710801393728223
s(S'[[con]]'
p2714
S'successor'
p2715
S'of'
p2716
tp2717
F0.0008710801393728223
s(S'served'
p2718
g1267
g1059
tp2719
F0.002613240418118467
s(S'also'
p2720
S'wrote'
p2721
S'about'
p2722
tp2723
F0.0008710801393728223
s(S'[[det]]'
p2724
S'lead'
p2725
S'with'
p2726
tp2727
F0.0017421602787456446
s(S'[[con]]'
p2728
S'suggested'
p2729
S'that'
p2730
tp2731
F0.0008710801393728223
s(S'had'
p2732
S'worked'
p2733
S'with'
p2734
tp2735
F0.0008710801393728223
s(S'since'
p2736
S'worked'
p2737
S'with'
p2738
tp2739
F0.0008710801393728223
s(S'[[con]]'
p2740
S'wrote'
p2741
S'for'
p2742
tp2743
F0.0008710801393728223
s(g2726
g2275
g2276
tp2744
F0.0008710801393728223
s(S'be'
p2745
S'named'
p2746
S'after'
p2747
tp2748
F0.0008710801393728223
s(S'has'
p2749
S'worked'
p2750
S'along'
p2751
tp2752
F0.0008710801393728223
s(g177
S'wife'
p2753
S'with'
p2754
tp2755
F0.0008710801393728223
s(S'as'
p2756
S'successor'
p2757
S'of'
p2758
tp2759
F0.0008710801393728223
s(S'passed'
p2760
g2325
g2326
tp2761
F0.0008710801393728223
s(S'was'
p2762
S'appointed'
p2763
S'when'
p2764
tp2765
F0.0017421602787456446
s(S'later'
p2766
S'named'
p2767
S'of'
p2768
tp2769
F0.0008710801393728223
s(S'to'
p2770
S'stay'
p2771
S'behind'
p2772
tp2773
F0.0008710801393728223
s(S'also'
p2774
S'served'
p2775
S'against'
p2776
tp2777
F0.0008710801393728223
s(S'[[det]]'
p2778
S'served'
p2779
S'as'
p2780
tp2781
F0.0008710801393728223
s(S'is'
p2782
S'portrayed'
p2783
S'[[con]]'
p2784
tp2785
F0.0008710801393728223
s(S'was'
p2786
S'given'
p2787
S'[[adj]]'
p2788
tp2789
F0.0008710801393728223
s(g177
S'work'
p2790
S'which'
p2791
tp2792
F0.0008710801393728223
s(g82
g83
S'election'
p2793
tp2794
F0.0008710801393728223
s(S'to'
p2795
S'succeed'
p2796
S'in'
p2797
tp2798
F0.0008710801393728223
s(S'[[con]]'
p2799
S'resigned'
p2800
S'as'
p2801
tp2802
F0.0008710801393728223
s(S'formerly'
p2803
S'worked'
p2804
S'as'
p2805
tp2806
F0.0008710801393728223
s(S'sometimes'
p2807
S'credited'
p2808
S'[[con]]'
p2809
tp2810
F0.0008710801393728223
s(S'had'
p2811
S'asked'
p2812
S'to'
p2813
tp2814
F0.0008710801393728223
s(S'also'
p2815
S'served'
p2816
S'[[con]]'
p2817
tp2818
F0.0008710801393728223
s(S'also'
p2819
S'serve'
p2820
S'as'
p2821
tp2822
F0.0008710801393728223
s(S'later'
p2823
S'worked'
p2824
S'under'
p2825
tp2826
F0.0008710801393728223
s(S'who'
p2827
S'gave'
p2828
S'[[prp]]'
p2829
tp2830
F0.0008710801393728223
s(S'was'
p2831
S'appointed'
p2832
S'before'
p2833
tp2834
F0.0008710801393728223
s(S'replaced'
p2835
S'in'
p2836
S'cabinet'
p2837
tp2838
F0.0008710801393728223
s(S'where'
p2839
S'joined'
p2840
S'with'
p2841
tp2842
F0.0008710801393728223
s(S'[[prp]]'
p2843
S'work'
p2844
S'as'
p2845
tp2846
F0.0008710801393728223
s(S'been'
p2847
S'told'
p2848
S'by'
p2849
tp2850
F0.0008710801393728223
s(S'[[adj]]'
p2851
S'work'
p2852
S'on'
p2853
tp2854
F0.0008710801393728223
s(S'[[adj]]'
p2855
S'supporter'
p2856
S'of'
p2857
tp2858
F0.0008710801393728223
s(S'often'
p2859
S'said'
p2860
S'that'
p2861
tp2862
F0.0008710801393728223
s(S'[[det]]'
p2863
S'advisor'
p2864
S'to'
p2865
tp2866
F0.0008710801393728223
s(S'be'
p2867
S'appointed'
p2868
S'as'
p2869
tp2870
F0.0008710801393728223
s(S'was'
p2871
S'won'
p2872
S'over'
p2873
tp2874
F0.0008710801393728223
s(S'is'
p2875
S'reunited'
p2876
S'with'
p2877
tp2878
F0.0008710801393728223
s(S'also'
p2879
S'wrote'
p2880
S'as'
p2881
tp2882
F0.0008710801393728223
s(S'who'
p2883
S'served'
p2884
S'as'
p2885
tp2886
F0.0008710801393728223
s(S'also'
p2887
S'won'
p2888
S'with'
p2889
tp2890
F0.0008710801393728223
s(S'then'
p2891
S'worked'
p2892
S'as'
p2893
tp2894
F0.0008710801393728223
s(g1857
g1858
S'administration'
p2895
tp2896
F0.0008710801393728223
s(S'has'
p2897
S'lost'
p2898
S'to'
p2899
tp2900
F0.0008710801393728223
s(S'was'
p2901
S'replaced'
p2902
S'while'
p2903
tp2904
F0.0008710801393728223
s(S'also'
p2905
S'appointed'
p2906
S'[[det]]'
p2907
tp2908
F0.0008710801393728223
s(S'then'
p2909
S'worked'
p2910
S'where'
p2911
tp2912
F0.0008710801393728223
s(S'also'
p2913
S'supported'
p2914
S'[[con]]'
p2915
tp2916
F0.0008710801393728223
s(S'was'
p2917
S'asked'
p2918
S'if'
p2919
tp2920
F0.0008710801393728223
s(S'also'
p2921
S'credited'
p2922
S'for'
p2923
tp2924
F0.0008710801393728223
s(S'then'
p2925
S'worked'
p2926
S'from'
p2927
tp2928
F0.0008710801393728223
s(S'[[adj]]'
p2929
S'influence'
p2930
S'from'
p2931
tp2932
F0.0008710801393728223
s(S'also'
p2933
S'came'
p2934
S'[[adj]]'
p2935
tp2936
F0.0008710801393728223
s(S'was'
p2937
S'named'
p2938
S'on'
p2939
tp2940
F0.0008710801393728223
s(S'[[adj]]'
p2941
S'supporter'
p2942
S'[[con]]'
p2943
tp2944
F0.0008710801393728223
s(S'carried'
p2945
g1536
g1537
tp2946
F0.0008710801393728223
s(S'was'
p2947
S'accompanied'
p2948
S'with'
p2949
tp2950
F0.0008710801393728223
s(S'[[con]]'
p2951
S'remained'
p2952
S'as'
p2953
tp2954
F0.0008710801393728223
s(S'to'
p2955
S'work'
p2956
S'after'
p2957
tp2958
F0.0008710801393728223
s(S'[[con]]'
p2959
S'portrayed'
p2960
S'by'
p2961
tp2962
F0.0008710801393728223
s(S'was'
p2963
S'chosen'
p2964
S'to'
p2965
tp2966
F0.0008710801393728223
s(S'[[prp]]'
p2967
S'work'
p2968
S'in'
p2969
tp2970
F0.0008710801393728223
s(S'to'
p2971
S'work'
p2972
S'where'
p2973
tp2974
F0.0008710801393728223
s(S'also'
p2975
S'traveled'
p2976
S'as'
p2977
tp2978
F0.0008710801393728223
s(S'have'
p2979
S'worked'
p2980
S'under'
p2981
tp2982
F0.0008710801393728223
s(g854
g855
g372
tp2983
F0.0008710801393728223
s(S'[[con]]'
p2984
S'remained'
p2985
S'so'
p2986
tp2987
F0.0008710801393728223
s(g701
S'taking'
p2988
S'ahead'
p2989
tp2990
F0.0008710801393728223
s(S'[[num]]'
p2991
S'appointed'
p2992
S'by'
p2993
tp2994
F0.0008710801393728223
s(S'was'
p2995
S'appointed'
p2996
S'[[prp]]'
p2997
tp2998
F0.0008710801393728223
s(S'then'
p2999
S'came'
p3000
S'out'
p3001
tp3002
F0.0008710801393728223
s(S'[[adj]]'
p3003
S'led'
p3004
S'by'
p3005
tp3006
F0.0008710801393728223
s(S'[[det]]'
p3007
S'support'
p3008
S'[[con]]'
p3009
tp3010
F0.0008710801393728223
s(S'also'
p3011
S'nominated'
p3012
S'by'
p3013
tp3014
F0.0008710801393728223
s(S'where'
p3015
S'came'
p3016
S'across'
p3017
tp3018
F0.0008710801393728223
s(S'was'
p3019
S'left'
p3020
S'[[con]]'
p3021
tp3022
F0.0008710801393728223
s(S'had'
p3023
S'suggested'
p3024
S'to'
p3025
tp3026
F0.0008710801393728223
s(S'was'
p3027
S'reunited'
p3028
S'[[con]]'
p3029
tp3030
F0.0008710801393728223
s(S'also'
p3031
S'portrayed'
p3032
S'by'
p3033
tp3034
F0.0008710801393728223
s(S'has'
p3035
S'worked'
p3036
S'again'
p3037
tp3038
F0.0008710801393728223
s(g177
S'influence'
p3039
S'[[con]]'
p3040
tp3041
F0.0008710801393728223
s(S'first'
p3042
S'appointed'
p3043
S'when'
p3044
tp3045
F0.0008710801393728223
s(S'then'
p3046
S'replaced'
p3047
S'with'
p3048
tp3049
F0.0008710801393728223
s(g700
g701
g2988
tp3050
F0.0008710801393728223
s(S'was'
p3051
S'appointed'
p3052
S'with'
p3053
tp3054
F0.0008710801393728223
s(S'as'
p3055
S'told'
p3056
S'to'
p3057
tp3058
F0.0008710801393728223
s(S'then'
p3059
S'asked'
p3060
S'by'
p3061
tp3062
F0.0008710801393728223
s(S'had'
p3063
S'left'
p3064
S'in'
p3065
tp3066
F0.0008710801393728223
s(S'had'
p3067
S'worked'
p3068
S'under'
p3069
tp3070
F0.0008710801393728223
s(S'who'
p3071
S'took'
p3072
S'[[det]]'
p3073
tp3074
F0.0008710801393728223
s(S'has'
p3075
S'said'
p3076
S'that'
p3077
tp3078
F0.0008710801393728223
s(S'has'
p3079
S'worked'
p3080
S'together'
p3081
tp3082
F0.0008710801393728223
s(S'was'
p3083
S'said'
p3084
S'by'
p3085
tp3086
F0.0008710801393728223
s(S'was'
p3087
S'chosen'
p3088
S'of'
p3089
tp3090
F0.0008710801393728223
s(S'[[adj]]'
p3091
S'secretary'
p3092
S'[[con]]'
p3093
tp3094
F0.0008710801393728223
s(g177
S'wife'
p3095
S'[[adj]]'
p3096
tp3097
F0.0008710801393728223
s(S'been'
p3098
S'suggested'
p3099
S'that'
p3100
tp3101
F0.0008710801393728223
s(S'[[pro]]'
p3102
S'did'
p3103
S'not'
p3104
tp3105
F0.0008710801393728223
s(S'[[det]]'
p3106
S'wife'
p3107
S'[[con]]'
p3108
tp3109
F0.0008710801393728223
s(S'to'
p3110
S'stay'
p3111
S'away'
p3112
tp3113
F0.0008710801393728223
s(S'was'
p3114
S'told'
p3115
S'that'
p3116
tp3117
F0.0008710801393728223
s(S'was'
p3118
S'leader'
p3119
S'[[con]]'
p3120
tp3121
F0.0008710801393728223
s(S'was'
p3122
S'accompanied'
p3123
S'[[con]]'
p3124
tp3125
F0.0008710801393728223
s(S'also'
p3126
S'gave'
p3127
S'[[num]]'
p3128
tp3129
F0.0008710801393728223
s(S'then'
p3130
S'joined'
p3131
S'along'
p3132
tp3133
F0.0008710801393728223
s(S'be'
p3134
S'nominated'
p3135
S'as'
p3136
tp3137
F0.0008710801393728223
s(S'[[con]]'
p3138
S'said'
p3139
S'of'
p3140
tp3141
F0.0008710801393728223
s(S'soon'
p3142
S'replaced'
p3143
S'by'
p3144
tp3145
F0.0008710801393728223
s(S'however'
p3146
S'did'
p3147
S'not'
p3148
tp3149
F0.0008710801393728223
s(S'then'
p3150
S'wrote'
p3151
S'to'
p3152
tp3153
F0.0008710801393728223
s(S'had'
p3154
S'served'
p3155
S'[[con]]'
p3156
tp3157
F0.0008710801393728223
s(S'[[adj]]'
p3158
S'influence'
p3159
S'of'
p3160
tp3161
F0.0008710801393728223
s(S'was'
p3162
S'nominated'
p3163
S'[[adj]]'
p3164
tp3165
F0.0008710801393728223
s(S'since'
p3166
S'joined'
p3167
S'with'
p3168
tp3169
F0.0008710801393728223
s(g2076
g2077
g609
tp3170
F0.0008710801393728223
s(S'been'
p3171
S'chosen'
p3172
S'by'
p3173
tp3174
F0.0008710801393728223
s(S'[[det]]'
p3175
S'supporter'
p3176
S'of'
p3177
tp3178
F0.0008710801393728223
s(S'[[adj]]'
p3179
S'world'
p3180
S'[[adj]]'
p3181
tp3182
F0.0008710801393728223
s(S'again'
p3183
S'appointed'
p3184
S'as'
p3185
tp3186
F0.0008710801393728223
s(S'[[det]]'
p3187
S'president'
p3188
S'[[con]]'
p3189
tp3190
F0.0008710801393728223
s(S'[[det]]'
p3191
S'led'
p3192
S'by'
p3193
tp3194
F0.0008710801393728223
s(S'being'
p3195
S'replaced'
p3196
S'with'
p3197
tp3198
F0.0008710801393728223
s(S'[[mod]]'
p3199
S'like'
p3200
S'to'
p3201
tp3202
F0.0008710801393728223
s(S'was'
p3203
S'joined'
p3204
S'as'
p3205
tp3206
F0.0008710801393728223
s(S'then'
p3207
S'said'
p3208
S'that'
p3209
tp3210
F0.0008710801393728223
s(g177
S'wife'
p3211
S'in'
p3212
tp3213
F0.0008710801393728223
s(S'has'
p3214
S'worked'
p3215
S'[[con]]'
p3216
tp3217
F0.0008710801393728223
s(S'was'
p3218
S'replaced'
p3219
S'from'
p3220
tp3221
F0.0008710801393728223
s(g2576
S'took'
p3222
S'pole'
p3223
tp3224
F0.0008710801393728223
s(S'is'
p3225
S'appointed'
p3226
S'as'
p3227
tp3228
F0.0008710801393728223
s(S'who'
p3229
S'lost'
p3230
S'to'
p3231
tp3232
F0.0008710801393728223
s(S'also'
p3233
S'suggested'
p3234
S'that'
p3235
tp3236
F0.0008710801393728223
s(S'was'
p3237
S'named'
p3238
S'along'
p3239
tp3240
F0.0008710801393728223
s(S'was'
p3241
S'credited'
p3242
S'by'
p3243
tp3244
F0.0008710801393728223
s(S'had'
p3245
S'given'
p3246
S'up'
p3247
tp3248
F0.0008710801393728223
s(S'is'
p3249
S'portrayed'
p3250
S'by'
p3251
tp3252
F0.0008710801393728223
s(S'later'
p3253
S'said'
p3254
S'that'
p3255
tp3256
F0.0008710801393728223
s(S'is'
p3257
S'told'
p3258
S'by'
p3259
tp3260
F0.0008710801393728223
s(S'did'
p3261
S'nt'
p3262
S'get'
p3263
tp3264
F0.0008710801393728223
s(S'[[con]]'
p3265
S'did'
p3266
S'not'
p3267
tp3268
F0.0008710801393728223
s(S'now'
p3269
S'led'
p3270
S'from'
p3271
tp3272
F0.0008710801393728223
s(S'[[adj]]'
p3273
S'wrote'
p3274
S'to'
p3275
tp3276
F0.0008710801393728223
s(S'were'
p3277
S'appointed'
p3278
S'by'
p3279
tp3280
F0.0008710801393728223
s(S'[[adj]]'
p3281
S'person'
p3282
S'that'
p3283
tp3284
F0.0008710801393728223
s(S'later'
p3285
S'joined'
p3286
S'by'
p3287
tp3288
F0.0008710801393728223
s(S'most'
p3289
S'[[det]]'
p3290
S'administrations'
p3291
tp3292
F0.0008710801393728223
s(S'[[det]]'
p3293
S'worked'
p3294
S'for'
p3295
tp3296
F0.0008710801393728223
s(g177
S'government'
p3297
S'as'
p3298
tp3299
F0.0008710801393728223
s(S'also'
p3300
S'won'
p3301
S'twice'
p3302
tp3303
F0.0008710801393728223
s(S'later'
p3304
S'appointed'
p3305
S'[[con]]'
p3306
tp3307
F0.0008710801393728223
s(S'[[con]]'
p3308
S'appointed'
p3309
S'[[pro]]'
p3310
tp3311
F0.0008710801393728223
s(S'also'
p3312
S'joined'
p3313
S'[[con]]'
p3314
tp3315
F0.0008710801393728223
s(S'served'
p3316
S'serving'
p3317
S'as'
p3318
tp3319
F0.0008710801393728223
s(S'[[adj]]'
p3320
S'given'
p3321
S'to'
p3322
tp3323
F0.0008710801393728223
s(S'[[con]]'
p3324
S'wrote'
p3325
S'to'
p3326
tp3327
F0.0008710801393728223
s(S'was'
p3328
S'credited'
p3329
S'[[con]]'
p3330
tp3331
F0.0008710801393728223
s(S'was'
p3332
S'given'
p3333
S'as'
p3334
tp3335
F0.0008710801393728223
s(S'[[con]]'
p3336
S'told'
p3337
S'that'
p3338
tp3339
F0.0008710801393728223
s(S'[[con]]'
p3340
S'did'
p3341
S'[[det]]'
p3342
tp3343
F0.0008710801393728223
s(S'is'
p3344
S'credited'
p3345
S'by'
p3346
tp3347
F0.0008710801393728223
s(S'[[prp]]'
p3348
S'support'
p3349
S'of'
p3350
tp3351
F0.0008710801393728223
s(S'is'
p3352
S'said'
p3353
S'to'
p3354
tp3355
F0.0008710801393728223
s(S'[[con]]'
p3356
S'said'
p3357
S'to'
p3358
tp3359
F0.0008710801393728223
s(S'have'
p3360
S'worked'
p3361
S'with'
p3362
tp3363
F0.0008710801393728223
s(g2077
g609
g610
tp3364
F0.0008710801393728223
s(g2988
g2989
S'of'
p3365
tp3366
F0.0008710801393728223
s(S'[[con]]'
p3367
S'lost'
p3368
S'[[prp]]'
p3369
tp3370
F0.0008710801393728223
s(S'had'
p3371
S'joined'
p3372
S'up'
p3373
tp3374
F0.0008710801393728223
s(S'[[adj]]'
p3375
S'secretary'
p3376
S'for'
p3377
tp3378
F0.0008710801393728223
s(S'[[det]]'
p3379
S'supporter'
p3380
S'[[con]]'
p3381
tp3382
F0.0008710801393728223
s(S'was'
p3383
S'portrayed'
p3384
S'[[det]]'
p3385
tp3386
F0.0008710801393728223
s(S'then'
p3387
S'served'
p3388
S'as'
p3389
tp3390
F0.0008710801393728223
s(S'was'
p3391
S'named'
p3392
S'was'
p3393
tp3394
F0.0008710801393728223
s(S'appointed'
p3395
S'by'
p3396
S'president'
p3397
tp3398
F0.0008710801393728223
s(S'later'
p3399
S'appointed'
p3400
S'[[det]]'
p3401
tp3402
F0.0008710801393728223
s(S'got'
p3403
g525
g526
tp3404
F0.0008710801393728223
s(S'[[con]]'
p3405
S'said'
p3406
S'[[adj]]'
p3407
tp3408
F0.0008710801393728223
s(S'also'
p3409
S'served'
p3410
S'along'
p3411
tp3412
F0.0008710801393728223
s(S'[[pro]]'
p3413
S'came'
p3414
S'back'
p3415
tp3416
F0.0008710801393728223
s(S'is'
p3417
S'named'
p3418
S'by'
p3419
tp3420
F0.0008710801393728223
s(S'has'
p3421
S'worked'
p3422
S'under'
p3423
tp3424
F0.0008710801393728223
s(S'was'
p3425
S'replaced'
p3426
S'after'
p3427
tp3428
F0.0008710801393728223
s(g1748
g1749
S'conference'
p3429
tp3430
F0.0008710801393728223
s(S'also'
p3431
S'served'
p3432
S'[[num]]'
p3433
tp3434
F0.0008710801393728223
s(S'was'
p3435
S'asked'
p3436
S'to'
p3437
tp3438
F0.0008710801393728223
s(S'where'
p3439
S'served'
p3440
S'as'
p3441
tp3442
F0.0008710801393728223
s(S'resigned'
p3443
S'[[con]]'
p3444
S'appointed'
p3445
tp3446
F0.0008710801393728223
s(S'was'
p3447
S'like'
p3448
S'[[det]]'
p3449
tp3450
F0.0008710801393728223
s(S'was'
p3451
S'replaced'
p3452
S'with'
p3453
tp3454
F0.0008710801393728223
s(S'were'
p3455
S'joined'
p3456
S'by'
p3457
tp3458
F0.0008710801393728223
s(S'under'
p3459
S'[[det]]'
p3460
S'administrations'
p3461
tp3462
F0.0008710801393728223
s(S'[[adj]]'
p3463
g1401
g1402
tp3464
F0.0008710801393728223
s(S'[[det]]'
p3465
S'lead'
p3466
S'from'
p3467
tp3468
F0.0008710801393728223
s(S'much'
p3469
S'like'
p3470
S'[[det]]'
p3471
tp3472
F0.0008710801393728223
s(S'was'
p3473
S'named'
p3474
S'[[adj]]'
p3475
tp3476
F0.0008710801393728223
s(S'to'
p3477
S'support'
p3478
S'[[pro]]'
p3479
tp3480
F0.0008710801393728223
s(S'to'
p3481
S'stay'
p3482
S'with'
p3483
tp3484
F0.0008710801393728223
s(S'name'
p3485
S'given'
p3486
S'to'
p3487
tp3488
F0.0008710801393728223
s(g1290
g1291
S'got'
p3489
tp3490
F0.0008710801393728223
s(S'[[con]]'
p3491
S'did'
p3492
S'in'
p3493
tp3494
F0.0008710801393728223
s(S'then'
p3495
S'asked'
p3496
S'if'
p3497
tp3498
F0.0008710801393728223
s(S'[[det]]'
p3499
S'named'
p3500
S'after'
p3501
tp3502
F0.0008710801393728223
s(S'more'
p3503
S'like'
p3504
S'[[con]]'
p3505
tp3506
F0.0008710801393728223
s(S'then'
p3507
S'took'
p3508
S'over'
p3509
tp3510
F0.0008710801393728223
s(g2575
g2576
g3222
tp3511
F0.0008710801393728223
s(S'to'
p3512
S'serve'
p3513
S'until'
p3514
tp3515
F0.0008710801393728223
s(S'also'
p3516
S'joined'
p3517
S'as'
p3518
tp3519
F0.0008710801393728223
s(S'[[adj]]'
p3520
S'work'
p3521
S'with'
p3522
tp3523
F0.0008710801393728223
s(g177
S'work'
p3524
S'[[con]]'
p3525
tp3526
F0.0008710801393728223
s(S'is'
p3527
S'nominated'
p3528
S'for'
p3529
tp3530
F0.0008710801393728223
s(S'often'
p3531
S'credited'
p3532
S'as'
p3533
tp3534
F0.0008710801393728223
s(S'[[adj]]'
p3535
S'work'
p3536
S'of'
p3537
tp3538
F0.0008710801393728223
s(S'also'
p3539
S'gave'
p3540
S'[[adj]]'
p3541
tp3542
F0.0008710801393728223
s(S'also'
p3543
S'thought'
p3544
S'that'
p3545
tp3546
F0.0008710801393728223
s(g3180
g3181
S'champion'
p3547
tp3548
F0.0017421602787456446
s(S'also'
p3549
S'portrayed'
p3550
S'[[adj]]'
p3551
tp3552
F0.0008710801393728223
s(S'then'
p3553
S'joined'
p3554
S'under'
p3555
tp3556
F0.0008710801393728223
s(S'was'
p3557
S'replaced'
p3558
S'[[con]]'
p3559
tp3560
F0.0008710801393728223
s(S'is'
p3561
S'asked'
p3562
S'by'
p3563
tp3564
F0.0008710801393728223
s(S'also'
p3565
S'worked'
p3566
S'together'
p3567
tp3568
F0.0008710801393728223
s(S'was'
p3569
S'given'
p3570
S'to'
p3571
tp3572
F0.0008710801393728223
s(S'is'
p3573
S'replaced'
p3574
S'by'
p3575
tp3576
F0.0008710801393728223
s(S'to'
p3577
S'stay'
p3578
S'[[adj]]'
p3579
tp3580
F0.0008710801393728223
s(S'also'
p3581
S'supported'
p3582
S'against'
p3583
tp3584
F0.0008710801393728223
s(S'took'
p3585
g2107
g1218
tp3586
F0.0008710801393728223
s(g586
g587
S'appointed'
p3587
tp3588
F0.0008710801393728223
s(S'once'
p3589
S'said'
p3590
S'had'
p3591
tp3592
F0.0008710801393728223
s(S'was'
p3593
S'driven'
p3594
S'out'
p3595
tp3596
F0.0008710801393728223
s(S'ran'
p3597
g1554
g392
tp3598
F0.0017421602787456446
s(S'has'
p3599
S'said'
p3600
S'is'
p3601
tp3602
F0.0008710801393728223
s(S'been'
p3603
S'selected'
p3604
S'as'
p3605
tp3606
F0.0008710801393728223
s(S'who'
p3607
S'appointed'
p3608
S'[[det]]'
p3609
tp3610
F0.0008710801393728223
s(S'to'
p3611
S'serve'
p3612
S'as'
p3613
tp3614
F0.0008710801393728223
s(S'[[adj]]'
p3615
S'like'
p3616
S'[[con]]'
p3617
tp3618
F0.0008710801393728223
s(S'became'
p3619
S'leader'
p3620
S'[[con]]'
p3621
tp3622
F0.0008710801393728223
s(S'quickly'
p3623
S'established'
p3624
S'[[pro]]'
p3625
tp3626
F0.0008710801393728223
s(S'were'
p3627
S'given'
p3628
S'by'
p3629
tp3630
F0.0008710801393728223
s(S'became'
p3631
S'secretary'
p3632
S'[[con]]'
p3633
tp3634
F0.0008710801393728223
s(g206
g207
g1099
tp3635
F0.0008710801393728223
s(S'also'
p3636
S'wrote'
p3637
S'[[det]]'
p3638
tp3639
F0.0008710801393728223
s(S'first'
p3640
S'came'
p3641
S'when'
p3642
tp3643
F0.0008710801393728223
s(S'to'
p3644
S'work'
p3645
S'while'
p3646
tp3647
F0.0008710801393728223
s(S'is'
p3648
S'thought'
p3649
S'to'
p3650
tp3651
F0.0008710801393728223
s(S'[[con]]'
p3652
S'joined'
p3653
S'by'
p3654
tp3655
F0.0008710801393728223
s(S'also'
p3656
S'portrayed'
p3657
S'[[det]]'
p3658
tp3659
F0.0008710801393728223
s(S'where'
p3660
S'remained'
p3661
S'until'
p3662
tp3663
F0.0008710801393728223
s(S'got'
p3664
g573
g574
tp3665
F0.0008710801393728223
s(S'[[det]]'
p3666
S'government'
p3667
S'of'
p3668
tp3669
F0.0008710801393728223
s(S'been'
p3670
S'credited'
p3671
S'with'
p3672
tp3673
F0.0008710801393728223
s(S'has'
p3674
S'worked'
p3675
S'from'
p3676
tp3677
F0.0008710801393728223
s(S'[[con]]'
p3678
S'gave'
p3679
S'[[det]]'
p3680
tp3681
F0.0008710801393728223
s(S'to'
p3682
S'work'
p3683
S'by'
p3684
tp3685
F0.0008710801393728223
s(S'also'
p3686
S'joined'
p3687
S'with'
p3688
tp3689
F0.0008710801393728223
s(S'was'
p3690
S'nominated'
p3691
S'again'
p3692
tp3693
F0.0008710801393728223
s(S'[[con]]'
p3694
S'accompanied'
p3695
S'[[det]]'
p3696
tp3697
F0.0008710801393728223
s(S'[[con]]'
p3698
S'joined'
p3699
S'[[adj]]'
p3700
tp3701
F0.0008710801393728223
s(S'was'
p3702
S'elevated'
p3703
S'by'
p3704
tp3705
F0.0008710801393728223
s(S'also'
p3706
S'worked'
p3707
S'among'
p3708
tp3709
F0.0008710801393728223
s(S'[[det]]'
p3710
g2515
g205
tp3711
F0.0008710801393728223
s(S'found'
p3712
S'work'
p3713
S'as'
p3714
tp3715
F0.0008710801393728223
s(S'then'
p3716
S'served'
p3717
S'until'
p3718
tp3719
F0.0008710801393728223
s(S'[[con]]'
p3720
S'joined'
p3721
S'[[con]]'
p3722
tp3723
F0.0008710801393728223
s(S'have'
p3724
S'given'
p3725
S'[[det]]'
p3726
tp3727
F0.0008710801393728223
s(S'to'
p3728
S'work'
p3729
S'under'
p3730
tp3731
F0.0008710801393728223
s(S'[[pro]]'
p3732
S'served'
p3733
S'as'
p3734
tp3735
F0.0008710801393728223
s(S'then'
p3736
S'took'
p3737
S'[[prp]]'
p3738
tp3739
F0.0008710801393728223
s(S'[[adj]]'
p3740
S'wife'
p3741
S'[[pro]]'
p3742
tp3743
F0.0008710801393728223
s(S'once'
p3744
S'said'
p3745
S'of'
p3746
tp3747
F0.0008710801393728223
s(S'[[num]]'
p3748
S'work'
p3749
S'of'
p3750
tp3751
F0.0008710801393728223
s(g1858
g2895
S'of'
p3752
tp3753
F0.0008710801393728223
s(S'to'
p3754
S'work'
p3755
S'[[con]]'
p3756
tp3757
F0.0008710801393728223
s(S'also'
p3758
S'served'
p3759
S'where'
p3760
tp3761
F0.0008710801393728223
s(S'what'
p3762
S'did'
p3763
S'to'
p3764
tp3765
F0.0008710801393728223
s(S'again'
p3766
S'lost'
p3767
S'to'
p3768
tp3769
F0.0008710801393728223
s(S'been'
p3770
S'selected'
p3771
S'to'
p3772
tp3773
F0.0008710801393728223
s(S'[[det]]'
p3774
S'appointed'
p3775
S'[[con]]'
p3776
tp3777
F0.0008710801393728223
s(S'has'
p3778
S'served'
p3779
S'to'
p3780
tp3781
F0.0008710801393728223
s(S'[[pro]]'
p3782
S'did'
p3783
S'to'
p3784
tp3785
F0.0008710801393728223
s(g177
S'wife'
p3786
S'of'
p3787
tp3788
F0.0008710801393728223
s(S'[[prp]]'
p3789
S'support'
p3790
S'for'
p3791
tp3792
F0.0008710801393728223
s(S'later'
p3793
S'served'
p3794
S'[[con]]'
p3795
tp3796
F0.0008710801393728223
s(S'[[det]]'
p3797
S'like'
p3798
S'[[con]]'
p3799
tp3800
F0.0008710801393728223
s(S'was'
p3801
S'asked'
p3802
S'why'
p3803
tp3804
F0.0008710801393728223
s(S'[[con]]'
p3805
S'admits'
p3806
S'that'
p3807
tp3808
F0.0008710801393728223
s(S'once'
p3809
S'said'
p3810
S'that'
p3811
tp3812
F0.0008710801393728223
s(S'also'
p3813
S'led'
p3814
S'[[con]]'
p3815
tp3816
F0.0008710801393728223
s(S'had'
p3817
S'replaced'
p3818
S'[[pro]]'
p3819
tp3820
F0.0008710801393728223
s(S'did'
p3821
S'nt'
p3822
S'see'
p3823
tp3824
F0.0008710801393728223
s(S'later'
p3825
S'wrote'
p3826
S'of'
p3827
tp3828
F0.0008710801393728223
s(S'was'
p3829
S'appointed'
p3830
S'[[adj]]'
p3831
tp3832
F0.0008710801393728223
s(S'served'
p3833
S'serving'
p3834
S'[[num]]'
p3835
tp3836
F0.0008710801393728223
s(S'then'
p3837
S'worked'
p3838
S'along'
p3839
tp3840
F0.0008710801393728223
s(S'[[adj]]'
p3841
S'support'
p3842
S'to'
p3843
tp3844
F0.0008710801393728223
s(S'[[det]]'
p3845
S'leader'
p3846
S'[[con]]'
p3847
tp3848
F0.0008710801393728223
s(S'had'
p3849
S'given'
p3850
S'to'
p3851
tp3852
F0.0008710801393728223
s(S'been'
p3853
S'portrayed'
p3854
S'by'
p3855
tp3856
F0.0008710801393728223
s(S'was'
p3857
S'named'
p3858
S'with'
p3859
tp3860
F0.0008710801393728223
s(S'[[det]]'
p3861
S'appointed'
p3862
S'by'
p3863
tp3864
F0.0008710801393728223
s(S'[[con]]'
p3865
S'named'
p3866
S'[[det]]'
p3867
tp3868
F0.0008710801393728223
s(S'have'
p3869
S'served'
p3870
S'as'
p3871
tp3872
F0.0008710801393728223
s(S'had'
p3873
S'served'
p3874
S'under'
p3875
tp3876
F0.0008710801393728223
s(g2675
g2676
S'over'
p3877
tp3878
F0.0008710801393728223
s(S'[[con]]'
p3879
S'said'
p3880
S'[[pro]]'
p3881
tp3882
F0.0008710801393728223
s(S'[[det]]'
p3883
S'work'
p3884
S'[[adj]]'
p3885
tp3886
F0.0008710801393728223
s(g1402
g1403
S'members'
p3887
tp3888
F0.0008710801393728223
s(S'is'
p3889
S'given'
p3890
S'to'
p3891
tp3892
F0.0008710801393728223
s(S'to'
p3893
S'support'
p3894
S'[[adj]]'
p3895
tp3896
F0.0008710801393728223
s(S'since'
p3897
S'worked'
p3898
S'[[con]]'
p3899
tp3900
F0.0008710801393728223
s(S'have'
p3901
S'remained'
p3902
S'[[adj]]'
p3903
tp3904
F0.0008710801393728223
s(S'being'
p3905
S'appointed'
p3906
S'by'
p3907
tp3908
F0.0008710801393728223
s(S'is'
p3909
S'credited'
p3910
S'for'
p3911
tp3912
F0.0008710801393728223
s(S'also'
p3913
S'named'
p3914
S'[[det]]'
p3915
tp3916
F0.0008710801393728223
s(S'[[det]]'
p3917
S'wife'
p3918
S'to'
p3919
tp3920
F0.0008710801393728223
s(S'again'
p3921
S'appointed'
p3922
S'[[det]]'
p3923
tp3924
F0.0008710801393728223
s(g1111
g1112
g1791
tp3925
F0.0008710801393728223
s(S'also'
p3926
S'came'
p3927
S'with'
p3928
tp3929
F0.0008710801393728223
s(S'had'
p3930
S'said'
p3931
S'[[pro]]'
p3932
tp3933
F0.0008710801393728223
s(S'has'
p3934
S'named'
p3935
S'[[con]]'
p3936
tp3937
F0.0008710801393728223
s(S'has'
p3938
S'commented'
p3939
S'that'
p3940
tp3941
F0.0008710801393728223
s(S'be'
p3942
S'appointed'
p3943
S'[[con]]'
p3944
tp3945
F0.0008710801393728223
s(S'also'
p3946
S'named'
p3947
S'as'
p3948
tp3949
F0.0008710801393728223
s(S'then'
p3950
S'worked'
p3951
S'[[con]]'
p3952
tp3953
F0.0008710801393728223
s(S'who'
p3954
S'said'
p3955
S'that'
p3956
tp3957
F0.0008710801393728223
s(S'to'
p3958
S'work'
p3959
S'with'
p3960
tp3961
F0.0008710801393728223
s(S'later'
p3962
S'served'
p3963
S'under'
p3964
tp3965
F0.0008710801393728223
s(S'[[det]]'
p3966
S'work'
p3967
S'by'
p3968
tp3969
F0.0008710801393728223
s(S'soon'
p3970
S'joined'
p3971
S'with'
p3972
tp3973
F0.0008710801393728223
s(g177
S'influence'
p3974
S'over'
p3975
tp3976
F0.0008710801393728223
s(S'[[adj]]'
p3977
S'figures'
p3978
S'of'
p3979
tp3980
F0.0008710801393728223
s(S'won'
p3981
g857
g858
tp3982
F0.0008710801393728223
s(g86
g87
S'of'
p3983
tp3984
F0.002613240418118467
s(S'[[adj]]'
p3985
S'worked'
p3986
S'for'
p3987
tp3988
F0.0008710801393728223
s(S'prevented'
p3989
g699
g700
tp3990
F0.0008710801393728223
s(S'also'
p3991
S'wrote'
p3992
S'[[con]]'
p3993
tp3994
F0.0008710801393728223
s(S'[[prp]]'
p3995
S'wife'
p3996
S'[[con]]'
p3997
tp3998
F0.0008710801393728223
s(S'[[mod]]'
p3999
S'succeed'
p4000
S'as'
p4001
tp4002
F0.0008710801393728223
s(S'sometimes'
p4003
S'credited'
p4004
S'as'
p4005
tp4006
F0.0008710801393728223
s(S'then'
p4007
S'lost'
p4008
S'to'
p4009
tp4010
F0.0008710801393728223
s(S'also'
p4011
S'worked'
p4012
S'by'
p4013
tp4014
F0.0008710801393728223
s(S'once'
p4015
S'served'
p4016
S'as'
p4017
tp4018
F0.0008710801393728223
s(S'served'
p4019
g3459
g3460
tp4020
F0.0017421602787456446
s(g177
S'successor'
p4021
S'[[con]]'
p4022
tp4023
F0.0008710801393728223
s(S'regained'
p4024
g3710
g2515
tp4025
F0.0008710801393728223
s(S'also'
p4026
S'wrote'
p4027
S'that'
p4028
tp4029
F0.0008710801393728223
s(S'is'
p4030
S'given'
p4031
S'by'
p4032
tp4033
F0.0008710801393728223
s(S'became'
p4034
g2345
g2008
tp4035
F0.0008710801393728223
s(S'was'
p4036
S'chosen'
p4037
S'[[det]]'
p4038
tp4039
F0.0008710801393728223
s(g177
S'influence'
p4040
S'that'
p4041
tp4042
F0.0008710801393728223
s(S'as'
p4043
S'joined'
p4044
S'along'
p4045
tp4046
F0.0008710801393728223
s(S'is'
p4047
S'led'
p4048
S'to'
p4049
tp4050
F0.0008710801393728223
s(S'soon'
p4051
S'came'
p4052
S'with'
p4053
tp4054
F0.0008710801393728223
s(S'had'
p4055
S'appointed'
p4056
S'[[det]]'
p4057
tp4058
F0.0008710801393728223
s(S'where'
p4059
S'lost'
p4060
S'to'
p4061
tp4062
F0.0008710801393728223
s(g374
g965
g1973
tp4063
F0.0008710801393728223
s(S'[[prp]]'
p4064
S'successor'
p4065
S'[[con]]'
p4066
tp4067
F0.0008710801393728223
s(g2725
g2726
g2275
tp4068
F0.0008710801393728223
s(S'also'
p4069
S'wrote'
p4070
S'by'
p4071
tp4072
F0.0008710801393728223
s(S'is'
p4073
S'sworn'
p4074
S'in'
p4075
tp4076
F0.0008710801393728223
s(S'[[det]]'
p4077
S'person'
p4078
S'of'
p4079
tp4080
F0.0008710801393728223
s(S'[[con]]'
p4081
S'told'
p4082
S'[[det]]'
p4083
tp4084
F0.0008710801393728223
s(S'where'
p4085
S'served'
p4086
S'under'
p4087
tp4088
F0.0008710801393728223
s(S'then'
p4089
S'served'
p4090
S'[[num]]'
p4091
tp4092
F0.0008710801393728223
s(S'who'
p4093
S'worked'
p4094
S'with'
p4095
tp4096
F0.0008710801393728223
s(S'[[adj]]'
p4097
S'leader'
p4098
S'[[con]]'
p4099
tp4100
F0.0008710801393728223
s(S'was'
p4101
S'said'
p4102
S'to'
p4103
tp4104
F0.0008710801393728223
s(S'had'
p4105
S'served'
p4106
S'as'
p4107
tp4108
F0.0008710801393728223
s(S'[[con]]'
p4109
S'asked'
p4110
S'[[pro]]'
p4111
tp4112
F0.0008710801393728223
s(S'[[det]]'
p4113
S'joined'
p4114
S'with'
p4115
tp4116
F0.0008710801393728223
s(S'is'
p4117
S'appointed'
p4118
S'to'
p4119
tp4120
F0.0008710801393728223
s(S'was'
p4121
S'left'
p4122
S'[[adj]]'
p4123
tp4124
F0.0008710801393728223
s(S'being'
p4125
S'nominated'
p4126
S'by'
p4127
tp4128
F0.0008710801393728223
s(S'is'
p4129
S'appointed'
p4130
S'by'
p4131
tp4132
F0.0008710801393728223
s(S'was'
p4133
S'named'
p4134
S'[[con]]'
p4135
tp4136
F0.0008710801393728223
s(S'that'
p4137
S'worked'
p4138
S'along'
p4139
tp4140
F0.0008710801393728223
s(S'however'
p4141
S'lost'
p4142
S'to'
p4143
tp4144
F0.0008710801393728223
s(g855
g372
g373
tp4145
F0.0008710801393728223
s(S'then'
p4146
S'served'
p4147
S'under'
p4148
tp4149
F0.0008710801393728223
s(S'became'
p4150
S'president'
p4151
S'[[con]]'
p4152
tp4153
F0.0008710801393728223
s(S'had'
p4154
S'worked'
p4155
S'to'
p4156
tp4157
F0.0008710801393728223
s(S'also'
p4158
S'credited'
p4159
S'by'
p4160
tp4161
F0.0008710801393728223
s(S'as'
p4162
S'did'
p4163
S'[[con]]'
p4164
tp4165
F0.0008710801393728223
s(S'although'
p4166
S'did'
p4167
S'not'
p4168
tp4169
F0.0008710801393728223
s(S'[[adj]]'
p4170
S'influence'
p4171
S'[[con]]'
p4172
tp4173
F0.0008710801393728223
s(S'was'
p4174
S'supported'
p4175
S'[[con]]'
p4176
tp4177
F0.0008710801393728223
s(S'sometimes'
p4178
S'credited'
p4179
S'with'
p4180
tp4181
F0.0008710801393728223
s(S'[[det]]'
p4182
S'influence'
p4183
S'of'
p4184
tp4185
F0.0008710801393728223
s(S'[[con]]'
p4186
S'lost'
p4187
S'to'
p4188
tp4189
F0.0008710801393728223
s(S'then'
p4190
S'asked'
p4191
S'[[det]]'
p4192
tp4193
F0.0008710801393728223
s(S'had'
p4194
S'left'
p4195
S'by'
p4196
tp4197
F0.0008710801393728223
s(S'[[con]]'
p4198
S'appointed'
p4199
S'[[det]]'
p4200
tp4201
F0.0008710801393728223
s(S'instead'
p4202
S'appointed'
p4203
S'as'
p4204
tp4205
F0.0008710801393728223
s(S'is'
p4206
S'portrayed'
p4207
S'in'
p4208
tp4209
F0.0008710801393728223
s(S'first'
p4210
S'appointed'
p4211
S'in'
p4212
tp4213
F0.0008710801393728223
s(S'later'
p4214
S'named'
p4215
S'by'
p4216
tp4217
F0.0008710801393728223
s(S'officially'
p4218
g4034
g2345
tp4219
F0.0008710801393728223
s(S'[[adj]]'
p4220
S'lost'
p4221
S'to'
p4222
tp4223
F0.0008710801393728223
s(S'[[mod]]'
p4224
S'succeed'
p4225
S'[[pro]]'
p4226
tp4227
F0.0008710801393728223
s(S'served'
p4228
g3289
g3290
tp4229
F0.0008710801393728223
s(g1823
g1824
S'administrations'
p4230
tp4231
F0.0008710801393728223
s.