(dp0
(S'was'
p1
S'originally'
p2
S'hosted'
p3
tp4
F0.058823529411764705
s(S'[[adj]]'
p5
S'presented'
p6
S'by'
p7
tp8
F0.058823529411764705
s(S'was'
p9
S'presented'
p10
S'[[adj]]'
p11
tp12
F0.058823529411764705
s(S'was'
p13
S'hosted'
p14
S'was'
p15
tp16
F0.058823529411764705
s(S'was'
p17
S'hosted'
p18
S'with'
p19
tp20
F0.058823529411764705
s(S'is'
p21
S'hosted'
p22
S'by'
p23
tp24
F0.058823529411764705
s(S'show'
p25
S'hosted'
p26
S'by'
p27
tp28
F0.058823529411764705
s(S'is'
p29
S'presented'
p30
S'by'
p31
tp32
F0.058823529411764705
s(g15
S'replaced'
p33
S'by'
p34
tp35
F0.058823529411764705
s(S'[[num]]'
p36
S'hosted'
p37
S'by'
p38
tp39
F0.058823529411764705
s(S'was'
p40
S'hosted'
p41
S'by'
p42
tp43
F0.058823529411764705
s(g14
g15
g33
tp44
F0.058823529411764705
s(S'[[adj]]'
p45
S'hosted'
p46
S'by'
p47
tp48
F0.058823529411764705
s(g2
g3
S'by'
p49
tp50
F0.058823529411764705
s(S'be'
p51
S'presented'
p52
S'by'
p53
tp54
F0.058823529411764705
s(S'was'
p55
S'hosted'
p56
S'[[con]]'
p57
tp58
F0.058823529411764705
s(S'[[con]]'
p59
S'hosted'
p60
S'by'
p61
tp62
F0.058823529411764705
s.