(dp0
(S'[[adj]]'
p1
S'album'
p2
S'that'
p3
tp4
F0.06666666666666667
s(S'[[det]]'
p5
S'album'
p6
S'with'
p7
tp8
F0.06666666666666667
s(S'[[adj]]'
p9
S'album'
p10
S'of'
p11
tp12
F0.06666666666666667
s(S'[[num]]'
p13
S'album'
p14
S'by'
p15
tp16
F0.06666666666666667
s(S'also'
p17
S'contains'
p18
S'[[det]]'
p19
tp20
F0.06666666666666667
s(S'[[det]]'
p21
S'album'
p22
S'from'
p23
tp24
F0.06666666666666667
s(S'[[adj]]'
p25
S'albums'
p26
S'[[con]]'
p27
tp28
F0.06666666666666667
s(S'[[det]]'
p29
S'albums'
p30
S'[[con]]'
p31
tp32
F0.06666666666666667
s(S'[[det]]'
p33
S'album'
p34
S'as'
p35
tp36
F0.06666666666666667
s(S'[[adj]]'
p37
S'album'
p38
S'from'
p39
tp40
F0.06666666666666667
s(S'[[adj]]'
p41
S'album'
p42
S'by'
p43
tp44
F0.06666666666666667
s(S'is'
p45
S'album'
p46
S'by'
p47
tp48
F0.06666666666666667
s(S'[[adj]]'
p49
S'album'
p50
S'with'
p51
tp52
F0.06666666666666667
s(S'[[det]]'
p53
S'album'
p54
S'by'
p55
tp56
F0.06666666666666667
s(S'[[adj]]'
p57
S'album'
p58
S'where'
p59
tp60
F0.06666666666666667
s.