(dp0
(S'be'
p1
S'appointed'
p2
S'[[det]]'
p3
tp4
F0.000970873786407767
s(S'when'
p5
S'resigned'
p6
S'to'
p7
tp8
F0.000970873786407767
s(S'[[det]]'
p9
S'supporter'
p10
S'[[det]]'
p11
tp12
F0.000970873786407767
s(S'is'
p13
S'stated'
p14
S'to'
p15
tp16
F0.000970873786407767
s(S'[[det]]'
p17
S'office'
p18
S'to'
p19
tp20
F0.000970873786407767
s(S'[[con]]'
p21
S'served'
p22
S'with'
p23
tp24
F0.000970873786407767
s(S'[[con]]'
p25
S'supporter'
p26
S'of'
p27
tp28
F0.000970873786407767
s(S'[[con]]'
p29
S'worked'
p30
S'later'
p31
tp32
F0.000970873786407767
s(S'appointed'
p33
S'by'
p34
S'[[det]]'
p35
tp36
F0.000970873786407767
s(S'had'
p37
S'told'
p38
S'[[prp]]'
p39
tp40
F0.000970873786407767
s(S'[[adj]]'
p41
S'rival'
p42
S'to'
p43
tp44
F0.000970873786407767
s(S'[[det]]'
p45
S'letter'
p46
S'to'
p47
tp48
F0.002912621359223301
s(S'[[pro]]'
p49
S'replaced'
p50
S'by'
p51
tp52
F0.000970873786407767
s(S'had'
p53
S'told'
p54
S'that'
p55
tp56
F0.000970873786407767
s(S'mainly'
p57
S'worked'
p58
S'under'
p59
tp60
F0.000970873786407767
s(S'[[num]]'
p61
S'worked'
p62
S'with'
p63
tp64
F0.000970873786407767
s(S'while'
p65
S'moved'
p66
S'to'
p67
tp68
F0.000970873786407767
s(S'had'
p69
S'appointed'
p70
S'in'
p71
tp72
F0.000970873786407767
s(S'had'
p73
S'succeeded'
p74
S'in'
p75
tp76
F0.000970873786407767
s(S'is'
p77
S'replaced'
p78
S'as'
p79
tp80
F0.000970873786407767
s(S'later'
p81
S'wrote'
p82
S'that'
p83
tp84
F0.000970873786407767
s(S'which'
p85
S'wrote'
p86
S'with'
p87
tp88
F0.000970873786407767
s(S'[[det]]'
p89
S'time'
p90
S'with'
p91
tp92
F0.000970873786407767
s(S'[[con]]'
p93
S'held'
p94
S'[[det]]'
p95
tp96
F0.000970873786407767
s(S'who'
p97
S'served'
p98
S'as'
p99
tp100
F0.000970873786407767
s(S'[[pro]]'
p101
S'came'
p102
S'to'
p103
tp104
F0.000970873786407767
s(S'[[det]]'
p105
S'previously'
p106
S'[[adj]]'
p107
tp108
F0.000970873786407767
s(S'when'
p109
S'took'
p110
S'over'
p111
tp112
F0.000970873786407767
s(S'also'
p113
S'wrote'
p114
S'at'
p115
tp116
F0.000970873786407767
s(S'resigned'
p117
S'[[con]]'
p118
S'was'
p119
tp120
F0.001941747572815534
s(S'has'
p121
S'moved'
p122
S'as'
p123
tp124
F0.000970873786407767
s(S'who'
p125
S'worked'
p126
S'with'
p127
tp128
F0.000970873786407767
s(S'[[con]]'
p129
S'suggested'
p130
S'that'
p131
tp132
F0.000970873786407767
s(S's'
p133
S'government'
p134
S'[[con]]'
p135
tp136
F0.000970873786407767
s(S'was'
p137
S'replaced'
p138
S'from'
p139
tp140
F0.000970873786407767
s(S'[[con]]'
p141
S'served'
p142
S'[[num]]'
p143
tp144
F0.000970873786407767
s(S'[[det]]'
p145
S'minister'
p146
S'[[con]]'
p147
tp148
F0.000970873786407767
s(S'is'
p149
S'accepted'
p150
S'into'
p151
tp152
F0.000970873786407767
s(S'assistant'
p153
S'to'
p154
S'[[det]]'
p155
tp156
F0.000970873786407767
s(S'also'
p157
S'took'
p158
S'[[con]]'
p159
tp160
F0.000970873786407767
s(S'was'
p161
S'head'
p162
S'[[con]]'
p163
tp164
F0.000970873786407767
s(S'by'
p165
S'winning'
p166
S'[[det]]'
p167
tp168
F0.000970873786407767
s(S'then'
p169
S'moved'
p170
S'where'
p171
tp172
F0.000970873786407767
s(S'[[con]]'
p173
S'replaced'
p174
S'by'
p175
tp176
F0.000970873786407767
s(S'was'
p177
S'succeeded'
p178
S'in'
p179
tp180
F0.000970873786407767
s(S'have'
p181
S'served'
p182
S'with'
p183
tp184
F0.000970873786407767
s(S'as'
p185
S'stated'
p186
S'by'
p187
tp188
F0.000970873786407767
s(S'where'
p189
S'worked'
p190
S'for'
p191
tp192
F0.000970873786407767
s(S'[[num]]'
p193
S'led'
p194
S'by'
p195
tp196
F0.000970873786407767
s(S'first'
p197
S'came'
p198
S'as'
p199
tp200
F0.000970873786407767
s(S'[[mod]]'
p201
S'replace'
p202
S'as'
p203
tp204
F0.000970873786407767
s(S'[[det]]'
p205
S'government'
p206
S'[[con]]'
p207
tp208
F0.000970873786407767
s(S'[[prp]]'
p209
S'work'
p210
S'with'
p211
tp212
F0.000970873786407767
s(S'where'
p213
S'worked'
p214
S'under'
p215
tp216
F0.000970873786407767
s(S'often'
p217
S'worked'
p218
S'with'
p219
tp220
F0.000970873786407767
s(S'being'
p221
S'replaced'
p222
S'by'
p223
tp224
F0.000970873786407767
s(S'to'
p225
S'serve'
p226
S'as'
p227
tp228
F0.000970873786407767
s(S'been'
p229
S'appointed'
p230
S'by'
p231
tp232
F0.000970873786407767
s(S'who'
p233
S'led'
p234
S'for'
p235
tp236
F0.000970873786407767
s(S'was'
p237
S'named'
p238
S'while'
p239
tp240
F0.000970873786407767
s(S'is'
p241
S'stated'
p242
S'by'
p243
tp244
F0.000970873786407767
s(S'were'
p245
S'replaced'
p246
S'with'
p247
tp248
F0.000970873786407767
s(S'who'
p249
S'believed'
p250
S'that'
p251
tp252
F0.000970873786407767
s(S'[[det]]'
p253
S'rival'
p254
S'of'
p255
tp256
F0.000970873786407767
s(S'also'
p257
S'worked'
p258
S'[[adj]]'
p259
tp260
F0.000970873786407767
s(S'is'
p261
S'told'
p262
S'that'
p263
tp264
F0.000970873786407767
s(S'[[con]]'
p265
S'promoted'
p266
S'to'
p267
tp268
F0.000970873786407767
s(S'to'
p269
S'win'
p270
S'back'
p271
tp272
F0.000970873786407767
s(S'has'
p273
S'served'
p274
S'[[con]]'
p275
tp276
F0.000970873786407767
s(S'also'
p277
S'worked'
p278
S'with'
p279
tp280
F0.000970873786407767
s(S'while'
p281
S'served'
p282
S'as'
p283
tp284
F0.000970873786407767
s(S'[[adj]]'
p285
S'named'
p286
S'after'
p287
tp288
F0.000970873786407767
s(S'first'
p289
S'served'
p290
S'as'
p291
tp292
F0.000970873786407767
s(S'when'
p293
S'wrote'
p294
S'to'
p295
tp296
F0.000970873786407767
s(S'held'
p297
S'under'
p298
S'[[det]]'
p299
tp300
F0.000970873786407767
s(S'also'
p301
S'named'
p302
S'for'
p303
tp304
F0.000970873786407767
s(S'was'
p305
S'named'
p306
S'on'
p307
tp308
F0.000970873786407767
s(S'was'
p309
S'elected'
p310
S'[[con]]'
p311
tp312
F0.000970873786407767
s(S'was'
p313
S'subsequently'
p314
S'made'
p315
tp316
F0.000970873786407767
s(S'[[pro]]'
p317
S'[[det]]'
p318
S'opportunity'
p319
tp320
F0.000970873786407767
s(S'[[num]]'
p321
S'followed'
p322
S'at'
p323
tp324
F0.000970873786407767
s(S'later'
p325
S'followed'
p326
S'[[det]]'
p327
tp328
F0.000970873786407767
s(S'[[det]]'
p329
S'time'
p330
S'under'
p331
tp332
F0.000970873786407767
s(S'has'
p333
S'worked'
p334
S'among'
p335
tp336
F0.000970873786407767
s(S'later'
p337
S'named'
p338
S'[[pro]]'
p339
tp340
F0.000970873786407767
s(S'to'
p341
S'remain'
p342
S'[[det]]'
p343
tp344
F0.000970873786407767
s(S'later'
p345
S'named'
p346
S'[[con]]'
p347
tp348
F0.000970873786407767
s(S'later'
p349
S'worked'
p350
S'as'
p351
tp352
F0.000970873786407767
s(S'[[con]]'
p353
S'followed'
p354
S'by'
p355
tp356
F0.000970873786407767
s(S'again'
p357
S'worked'
p358
S'with'
p359
tp360
F0.000970873786407767
s(g154
g155
S'winter'
p361
tp362
F0.000970873786407767
s(S'[[adj]]'
p363
S'minister'
p364
S'for'
p365
tp366
F0.000970873786407767
s(S'to'
p367
S'win'
p368
S'against'
p369
tp370
F0.000970873786407767
s(g133
S'support'
p371
S'[[con]]'
p372
tp373
F0.000970873786407767
s(S'also'
p374
S'appointed'
p375
S'[[con]]'
p376
tp377
F0.000970873786407767
s(S'[[det]]'
p378
S'cabinet'
p379
S'minister'
p380
tp381
F0.003883495145631068
s(S'was'
p382
S'told'
p383
S'[[det]]'
p384
tp385
F0.000970873786407767
s(S'[[det]]'
p386
S'successor'
p387
S'[[con]]'
p388
tp389
F0.000970873786407767
s(S'where'
p390
S'worked'
p391
S'as'
p392
tp393
F0.000970873786407767
s(S'to'
p394
S'replace'
p395
S'[[det]]'
p396
tp397
F0.000970873786407767
s(S'[[mod]]'
p398
S'run'
p399
S'against'
p400
tp401
F0.000970873786407767
s(S'was'
p402
S'offered'
p403
S'[[det]]'
p404
tp405
F0.001941747572815534
s(S'then'
p406
S'worked'
p407
S'[[adj]]'
p408
tp409
F0.000970873786407767
s(S'[[con]]'
p410
S'took'
p411
S'[[det]]'
p412
tp413
F0.000970873786407767
s(S'[[det]]'
p414
S'time'
p415
S'[[adj]]'
p416
tp417
F0.000970873786407767
s(S'passed'
p418
S'[[con]]'
p419
S'set'
p420
tp421
F0.000970873786407767
s(g419
g420
S'off'
p422
tp423
F0.000970873786407767
s(g133
S'death'
p424
S'[[det]]'
p425
tp426
F0.000970873786407767
s(S'[[det]]'
p427
S'time'
p428
S'of'
p429
tp430
F0.000970873786407767
s(S'[[num]]'
p431
S'ndash'
p432
S'[[num]]'
p433
tp434
F0.000970873786407767
s(S'then'
p435
S'worked'
p436
S'to'
p437
tp438
F0.000970873786407767
s(S'has'
p439
S'served'
p440
S'under'
p441
tp442
F0.000970873786407767
s(S'[[det]]'
p443
S'championship'
p444
g165
tp445
F0.000970873786407767
s(S'[[con]]'
p446
S'work'
p447
S'with'
p448
tp449
F0.000970873786407767
s(S'was'
p450
S'picked'
p451
S'off'
p452
tp453
F0.000970873786407767
s(S'also'
p454
S'named'
p455
S'along'
p456
tp457
F0.000970873786407767
s(g133
S'role'
p458
S'in'
p459
tp460
F0.000970873786407767
s(S'[[adj]]'
p461
S'role'
p462
S'[[con]]'
p463
tp464
F0.000970873786407767
s(S'which'
p465
S'announced'
p466
S'had'
p467
tp468
F0.000970873786407767
s(S'now'
p469
S'retired'
p470
S'[[con]]'
p471
tp472
F0.000970873786407767
s(S'had'
p473
S'appointed'
p474
S'as'
p475
tp476
F0.000970873786407767
s(S'in'
p477
S'[[det]]'
p478
S'governments'
p479
tp480
F0.0048543689320388345
s(S'was'
p481
S'promoted'
p482
S'[[adj]]'
p483
tp484
F0.000970873786407767
s(S'to'
p485
S'replace'
p486
S'as'
p487
tp488
F0.000970873786407767
s(S'[[det]]'
p489
S'minister'
p490
S'in'
p491
tp492
F0.001941747572815534
s(S'had'
p493
S'stated'
p494
S'that'
p495
tp496
F0.000970873786407767
s(S'[[pro]]'
p497
S'came'
p498
S'back'
p499
tp500
F0.000970873786407767
s(S'also'
p501
S'acted'
p502
S'[[con]]'
p503
tp504
F0.000970873786407767
s(S'not'
p505
S'support'
p506
S'[[con]]'
p507
tp508
F0.000970873786407767
s(S'also'
p509
S'wrote'
p510
S'[[num]]'
p511
tp512
F0.000970873786407767
s(S'[[adj]]'
p513
S'time'
p514
S'behind'
p515
tp516
F0.000970873786407767
s(S'[[prp]]'
p517
S'role'
p518
S'of'
p519
tp520
F0.000970873786407767
s(S'worked'
p521
S'as'
p522
S'[[det]]'
p523
tp524
F0.000970873786407767
s(S'then'
p525
S'took'
p526
S'on'
p527
tp528
F0.000970873786407767
s(S'[[det]]'
p529
S'time'
p530
S'on'
p531
tp532
F0.000970873786407767
s(S'[[adj]]'
p533
S'role'
p534
S'as'
p535
tp536
F0.000970873786407767
s(S'[[adj]]'
p537
S'run'
p538
S'with'
p539
tp540
F0.000970873786407767
s(S'then'
p541
S'served'
p542
S'before'
p543
tp544
F0.000970873786407767
s(S'[[det]]'
p545
S'turned'
p546
S'[[adj]]'
p547
tp548
F0.000970873786407767
s(S'also'
p549
S'wrote'
p550
S'with'
p551
tp552
F0.000970873786407767
s(S'was'
p553
S'told'
p554
S'by'
p555
tp556
F0.000970873786407767
s(S'later'
p557
S'wrote'
p558
S'[[adj]]'
p559
tp560
F0.000970873786407767
s(g133
S'named'
p561
S'after'
p562
tp563
F0.000970873786407767
s(S'which'
p564
S'stood'
p565
S'for'
p566
tp567
F0.000970873786407767
s(S'was'
p568
S'moved'
p569
S'by'
p570
tp571
F0.000970873786407767
s(S'[[prp]]'
p572
S'role'
p573
S'as'
p574
tp575
F0.000970873786407767
s(S'that'
p576
S'gave'
p577
g317
tp578
F0.000970873786407767
s(S'to'
p579
S'support'
p580
S'[[prp]]'
p581
tp582
F0.000970873786407767
s(S'[[prp]]'
p583
S'work'
p584
S'[[con]]'
p585
tp586
F0.000970873786407767
s(S'[[adj]]'
p587
S'figure'
p588
S'[[con]]'
p589
tp590
F0.000970873786407767
s(S'also'
p591
S'picked'
p592
S'off'
p593
tp594
F0.000970873786407767
s(S'[[mod]]'
p595
S'replace'
p596
S'[[con]]'
p597
tp598
F0.000970873786407767
s(S'[[det]]'
p599
S'stage'
p600
S'career'
p601
tp602
F0.000970873786407767
s(S'[[mod]]'
p603
S'run'
p604
S'for'
p605
tp606
F0.000970873786407767
s(S'was'
p607
S'subsequently'
p608
S'of'
p609
tp610
F0.000970873786407767
s(S'[[det]]'
p611
S'challenge'
p612
S'from'
p613
tp614
F0.000970873786407767
s(S'then'
p615
S'followed'
p616
S'up'
p617
tp618
F0.000970873786407767
s(S'which'
p619
S'wrote'
p620
S'that'
p621
tp622
F0.000970873786407767
s(S'awards'
p623
g576
g577
tp624
F0.000970873786407767
s(S'[[num]]'
p625
S'wrote'
p626
S'on'
p627
tp628
F0.000970873786407767
s(S'that'
p629
S'worked'
p630
S'with'
p631
tp632
F0.000970873786407767
s(S'has'
p633
S'served'
p634
S'twice'
p635
tp636
F0.000970873786407767
s(S'where'
p637
S'came'
p638
S'across'
p639
tp640
F0.000970873786407767
s(S'later'
p641
S'promoted'
p642
S'to'
p643
tp644
F0.000970873786407767
s(S'later'
p645
S'replaced'
p646
S'by'
p647
tp648
F0.000970873786407767
s(S'been'
p649
S'replaced'
p650
S'by'
p651
tp652
F0.000970873786407767
s(S'[[con]]'
p653
S'served'
p654
S'when'
p655
tp656
F0.000970873786407767
s(S'once'
p657
S'wrote'
p658
S'that'
p659
tp660
F0.000970873786407767
s(S'had'
p661
S'offered'
p662
S'to'
p663
tp664
F0.000970873786407767
s(g133
S'successor'
p665
S'as'
p666
tp667
F0.000970873786407767
s(S'[[mod]]'
p668
S'remain'
p669
S'[[con]]'
p670
tp671
F0.000970873786407767
s(S'also'
p672
S'served'
p673
S'as'
p674
tp675
F0.000970873786407767
s(S'was'
p676
S'named'
p677
S'when'
p678
tp679
F0.000970873786407767
s(S'was'
p680
S'appointed'
p681
S'first'
p682
tp683
F0.000970873786407767
s(S'in'
p684
g45
g46
tp685
F0.000970873786407767
s(S'[[prp]]'
p686
S'support'
p687
S'to'
p688
tp689
F0.000970873786407767
s(S'where'
p690
S'worked'
p691
S'with'
p692
tp693
F0.002912621359223301
s(S'[[det]]'
p694
S'death'
p695
S'[[con]]'
p696
tp697
F0.000970873786407767
s(S'had'
p698
S'acted'
p699
S'as'
p700
tp701
F0.000970873786407767
s(S'later'
p702
S'replaced'
p703
S'as'
p704
tp705
F0.000970873786407767
s(S'[[con]]'
p706
S'ahead'
p707
S'of'
p708
tp709
F0.000970873786407767
s(S'to'
p710
S'replace'
p711
S'[[pro]]'
p712
tp713
F0.000970873786407767
s(S'later'
p714
S'wrote'
p715
S'[[num]]'
p716
tp717
F0.000970873786407767
s(S'[[con]]'
p718
S'worked'
p719
S'as'
p720
tp721
F0.000970873786407767
s(S'was'
p722
S'appointed'
p723
S'[[prp]]'
p724
tp725
F0.000970873786407767
s(S'then'
p726
S'appointed'
p727
S'[[det]]'
p728
tp729
F0.000970873786407767
s(S'has'
p730
S'suggested'
p731
S'that'
p732
tp733
F0.000970873786407767
s(S'[[con]]'
p734
S'wrote'
p735
S'[[det]]'
p736
tp737
F0.000970873786407767
s(S'which'
p738
S'led'
p739
S'to'
p740
tp741
F0.000970873786407767
s(S'also'
p742
S'wrote'
p743
S'under'
p744
tp745
F0.000970873786407767
s(S'also'
p746
S'wrote'
p747
S'of'
p748
tp749
F0.000970873786407767
s(S'in'
p750
S'was'
p751
S'followed'
p752
tp753
F0.000970873786407767
s(S'being'
p754
S'promoted'
p755
S'[[con]]'
p756
tp757
F0.000970873786407767
s(S'[[det]]'
p758
S'work'
p759
S'on'
p760
tp761
F0.000970873786407767
s(S'was'
p762
S'appointed'
p763
S'[[det]]'
p764
tp765
F0.000970873786407767
s(S'[[con]]'
p766
S'worked'
p767
S'mainly'
p768
tp769
F0.000970873786407767
s(S'[[det]]'
p770
S'victory'
p771
S'of'
p772
tp773
F0.000970873786407767
s(S'who'
p774
S'served'
p775
S'under'
p776
tp777
F0.000970873786407767
s(S'[[adj]]'
p778
S'believed'
p779
S'that'
p780
tp781
F0.000970873786407767
s(S'first'
p782
S'worked'
p783
S'with'
p784
tp785
F0.000970873786407767
s(S'then'
p786
S'served'
p787
S'to'
p788
tp789
F0.000970873786407767
s(S'also'
p790
S'worked'
p791
S'under'
p792
tp793
F0.000970873786407767
s(S'served'
p794
S'in'
p795
S'[[adj]]'
p796
tp797
F0.001941747572815534
s(S'being'
p798
S'promoted'
p799
S'to'
p800
tp801
F0.000970873786407767
s(S'[[con]]'
p802
S'replaced'
p803
S'[[con]]'
p804
tp805
F0.000970873786407767
s(g133
S'named'
p806
S'for'
p807
tp808
F0.000970873786407767
s(S'also'
p809
S'took'
p810
S'on'
p811
tp812
F0.000970873786407767
s(S'was'
p813
S'appointed'
p814
S'as'
p815
tp816
F0.000970873786407767
s(S'who'
p817
S'took'
p818
S'over'
p819
tp820
F0.000970873786407767
s(S'also'
p821
S'served'
p822
S'twice'
p823
tp824
F0.000970873786407767
s(S'[[adj]]'
p825
S'role'
p826
S'was'
p827
tp828
F0.000970873786407767
s(g318
g319
S'to'
p829
tp830
F0.000970873786407767
s(S'then'
p831
S'replaced'
p832
S'as'
p833
tp834
F0.000970873786407767
s(S'[[con]]'
p835
S'was'
p836
S'elected'
p837
tp838
F0.000970873786407767
s(S'[[det]]'
p839
S'head'
p840
S'[[con]]'
p841
tp842
F0.000970873786407767
s(S'later'
p843
S'moved'
p844
S'with'
p845
tp846
F0.000970873786407767
s(S'also'
p847
S'wrote'
p848
S'[[adj]]'
p849
tp850
F0.000970873786407767
s(S'not'
p851
S'officially'
p852
S'recognized'
p853
tp854
F0.000970873786407767
s(S'has'
p855
S'told'
p856
S'[[pro]]'
p857
tp858
F0.000970873786407767
s(S'where'
p859
S'served'
p860
S'to'
p861
tp862
F0.000970873786407767
s(S'is'
p863
S'named'
p864
S'as'
p865
tp866
F0.000970873786407767
s(S'in'
p867
S'support'
p868
S'of'
p869
tp870
F0.000970873786407767
s(S'to'
p871
S'run'
p872
S'away'
p873
tp874
F0.000970873786407767
s(g133
S'death'
p875
S'in'
p876
tp877
F0.000970873786407767
s(g133
S'death'
p878
S'when'
p879
tp880
F0.000970873786407767
s(S'later'
p881
S'worked'
p882
S'with'
p883
tp884
F0.000970873786407767
s(S'[[adj]]'
p885
S'time'
p886
S'as'
p887
tp888
F0.000970873786407767
s(S'[[adj]]'
p889
S'cabinet'
p890
S'[[con]]'
p891
tp892
F0.000970873786407767
s(S'to'
p893
S'remain'
p894
S'[[con]]'
p895
tp896
F0.000970873786407767
s(S'to'
p897
S'win'
p898
S'with'
p899
tp900
F0.000970873786407767
s(S'[[con]]'
p901
S'replaced'
p902
S'with'
p903
tp904
F0.000970873786407767
s(S'to'
p905
S'succeed'
p906
S'[[det]]'
p907
tp908
F0.000970873786407767
s(S'also'
p909
S'worked'
p910
S'as'
p911
tp912
F0.000970873786407767
s(S'had'
p913
S'retired'
p914
S'[[con]]'
p915
tp916
F0.000970873786407767
s(S'had'
p917
S'turned'
p918
S'on'
p919
tp920
F0.000970873786407767
s(S'was'
p921
S'succeeded'
p922
S'to'
p923
tp924
F0.000970873786407767
s(S'later'
p925
S'took'
p926
S'[[det]]'
p927
tp928
F0.000970873786407767
s(S'again'
p929
S'served'
p930
S'under'
p931
tp932
F0.000970873786407767
s(S'[[adj]]'
p933
S'minister'
p934
S'[[con]]'
p935
tp936
F0.000970873786407767
s(S'then'
p937
S'appointed'
p938
S'[[con]]'
p939
tp940
F0.000970873786407767
s(S'[[det]]'
p941
S'role'
p942
S'by'
p943
tp944
F0.000970873786407767
s(g133
S'rival'
p945
S'[[con]]'
p946
tp947
F0.000970873786407767
s(S'then'
p948
S'worked'
p949
S'where'
p950
tp951
F0.000970873786407767
s(S'[[adj]]'
p952
S'role'
p953
S'along'
p954
tp955
F0.000970873786407767
s(g167
S'match'
p956
S'at'
p957
tp958
F0.000970873786407767
s(S'later'
p959
S'served'
p960
S'from'
p961
tp962
F0.000970873786407767
s(S'[[mod]]'
p963
S'serve'
p964
S'as'
p965
tp966
F0.000970873786407767
s(S'to'
p967
S'work'
p968
S'[[adj]]'
p969
tp970
F0.000970873786407767
s(S'done'
p971
S'work'
p972
S'[[adj]]'
p973
tp974
F0.000970873786407767
s(g379
g380
g477
tp975
F0.0048543689320388345
s(S'[[adj]]'
p976
S'leader'
p977
S'[[con]]'
p978
tp979
F0.000970873786407767
s(S'being'
p980
S'appointed'
p981
S'to'
p982
tp983
F0.000970873786407767
s(S'[[mod]]'
p984
S'serve'
p985
S'with'
p986
tp987
F0.000970873786407767
s(S'have'
p988
S'succeeded'
p989
S'as'
p990
tp991
F0.000970873786407767
s(S'[[det]]'
p992
S'county'
p993
S'margin'
p994
tp995
F0.000970873786407767
s(g133
S'work'
p996
S'[[adj]]'
p997
tp998
F0.000970873786407767
s(S'had'
p999
S'appointed'
p1000
S'to'
p1001
tp1002
F0.000970873786407767
s(S'then'
p1003
S'appointed'
p1004
S'by'
p1005
tp1006
F0.000970873786407767
s(S'also'
p1007
S'served'
p1008
S'under'
p1009
tp1010
F0.000970873786407767
s(S'wrote'
p1011
S'[[det]]'
p1012
S'[[adj]]'
p1013
tp1014
F0.002912621359223301
s(g133
S'followed'
p1015
S'by'
p1016
tp1017
F0.000970873786407767
s(S'[[con]]'
p1018
S'subsequently'
p1019
S'became'
p1020
tp1021
F0.000970873786407767
s(S'is'
p1022
S'succeeded'
p1023
S'by'
p1024
tp1025
F0.000970873786407767
s(S'to'
p1026
S'win'
p1027
S'to'
p1028
tp1029
F0.000970873786407767
s(S'appointed'
p1030
S'in'
p1031
S'[[adj]]'
p1032
tp1033
F0.000970873786407767
s(S'[[prp]]'
p1034
S'head'
p1035
S'to'
p1036
tp1037
F0.000970873786407767
s(S'is'
p1038
S'appointed'
p1039
S'after'
p1040
tp1041
F0.000970873786407767
s(S'was'
p1042
S'served'
p1043
S'as'
p1044
tp1045
F0.000970873786407767
s(S'[[prp]]'
p1046
S'victory'
p1047
S'over'
p1048
tp1049
F0.000970873786407767
s(S'was'
p1050
S'leader'
p1051
S'[[con]]'
p1052
tp1053
F0.000970873786407767
s(S'[[det]]'
p1054
S'lead'
p1055
S'with'
p1056
tp1057
F0.000970873786407767
s(S'[[con]]'
p1058
S'replaced'
p1059
S'[[pro]]'
p1060
tp1061
F0.000970873786407767
s(S'[[det]]'
p1062
S'election'
p1063
S'of'
p1064
tp1065
F0.000970873786407767
s(S'was'
p1066
S'succeeded'
p1067
S'on'
p1068
tp1069
F0.000970873786407767
s(S'were'
p1070
S'named'
p1071
S'to'
p1072
tp1073
F0.000970873786407767
s(S'to'
p1074
S'challenge'
p1075
S'for'
p1076
tp1077
F0.000970873786407767
s(S'had'
p1078
S'moved'
p1079
S'[[con]]'
p1080
tp1081
F0.000970873786407767
s(S'also'
p1082
S'came'
p1083
S'[[adj]]'
p1084
tp1085
F0.000970873786407767
s(S'[[pro]]'
p1086
S'came'
p1087
S'through'
p1088
tp1089
F0.000970873786407767
s(S'[[con]]'
p1090
S'ndash'
p1091
S'was'
p1092
tp1093
F0.000970873786407767
s(S'[[det]]'
p1094
S'work'
p1095
S'to'
p1096
tp1097
F0.000970873786407767
s(S'also'
p1098
S'replaced'
p1099
S'by'
p1100
tp1101
F0.000970873786407767
s(S'has'
p1102
S'stated'
p1103
S'that'
p1104
tp1105
F0.000970873786407767
s(S'[[det]]'
p1106
S'role'
p1107
S'which'
p1108
tp1109
F0.000970873786407767
s(S'was'
p1110
S'promoted'
p1111
S'[[num]]'
p1112
tp1113
F0.000970873786407767
s(S'who'
p1114
S'took'
p1115
S'[[det]]'
p1116
tp1117
F0.000970873786407767
s(S'have'
p1118
S'worked'
p1119
S'as'
p1120
tp1121
F0.000970873786407767
s(S'as'
p1122
S'told'
p1123
S'to'
p1124
tp1125
F0.000970873786407767
s(S'be'
p1126
S'named'
p1127
S'later'
p1128
tp1129
F0.000970873786407767
s(S'then'
p1130
S'succeeded'
p1131
S'by'
p1132
tp1133
F0.000970873786407767
s(S'now'
p1134
S'led'
p1135
S'from'
p1136
tp1137
F0.000970873786407767
s(S'[[adj]]'
p1138
S'successor'
p1139
S'of'
p1140
tp1141
F0.000970873786407767
s(S'to'
p1142
S'serve'
p1143
S'[[adj]]'
p1144
tp1145
F0.000970873786407767
s(S'also'
p1146
S'served'
p1147
S'when'
p1148
tp1149
F0.000970873786407767
s(S'[[det]]'
p1150
S'work'
p1151
S'of'
p1152
tp1153
F0.000970873786407767
s(S'in'
p1154
S'[[det]]'
p1155
S'government'
p1156
tp1157
F0.003883495145631068
s(S'have'
p1158
S'served'
p1159
S'in'
p1160
tp1161
F0.000970873786407767
s(S'first'
p1162
S'served'
p1163
S'[[con]]'
p1164
tp1165
F0.000970873786407767
s(S'that'
p1166
S'worked'
p1167
S'along'
p1168
tp1169
F0.000970873786407767
s(S'has'
p1170
S'served'
p1171
S'as'
p1172
tp1173
F0.000970873786407767
s(S'then'
p1174
S'worked'
p1175
S'under'
p1176
tp1177
F0.000970873786407767
s(S'later'
p1178
S'appointed'
p1179
S'by'
p1180
tp1181
F0.000970873786407767
s(S'[[con]]'
p1182
S'resigned'
p1183
S'[[adj]]'
p1184
tp1185
F0.000970873786407767
s(g601
S'where'
p1186
S'worked'
p1187
tp1188
F0.000970873786407767
s(S'to'
p1189
S'work'
p1190
S'under'
p1191
tp1192
F0.000970873786407767
s(S'who'
p1193
S'worked'
p1194
S'under'
p1195
tp1196
F0.000970873786407767
s(S'was'
p1197
S'acquainted'
p1198
S'with'
p1199
tp1200
F0.000970873786407767
s(g133
S'victory'
p1201
S'over'
p1202
tp1203
F0.000970873786407767
s(S'then'
p1204
S'worked'
p1205
S'before'
p1206
tp1207
F0.000970873786407767
s(S'[[adj]]'
p1208
S'run'
p1209
S'in'
p1210
tp1211
F0.000970873786407767
s(S'found'
p1212
S'work'
p1213
S'for'
p1214
tp1215
F0.000970873786407767
s(S'[[det]]'
p1216
S'government'
p1217
S'as'
p1218
tp1219
F0.000970873786407767
s(S'announced'
p1220
S'that'
p1221
S'[[mod]]'
p1222
tp1223
F0.000970873786407767
s(S'friends'
p1224
S'with'
p1225
S'[[adj]]'
p1226
tp1227
F0.000970873786407767
s(S'held'
p1228
S'office'
p1229
S'in'
p1230
tp1231
F0.000970873786407767
s(S'received'
p1232
g623
g576
tp1233
F0.000970873786407767
s(S'later'
p1234
S'worked'
p1235
S'to'
p1236
tp1237
F0.000970873786407767
s(S'[[adj]]'
p1238
S'office'
p1239
S'as'
p1240
tp1241
F0.000970873786407767
s(S'is'
p1242
S'appointed'
p1243
S'[[det]]'
p1244
tp1245
F0.000970873786407767
s(S'to'
p1246
S'work'
p1247
S'again'
p1248
tp1249
F0.000970873786407767
s(g133
S'resignation'
p1250
S'as'
p1251
tp1252
F0.000970873786407767
s(S'also'
p1253
S'came'
p1254
S'with'
p1255
tp1256
F0.000970873786407767
s(S'[[prp]]'
p1257
S'victory'
p1258
S'to'
p1259
tp1260
F0.000970873786407767
s(S'later'
p1261
S'told'
p1262
S'[[pro]]'
p1263
tp1264
F0.000970873786407767
s(S'had'
p1265
S'acted'
p1266
S'to'
p1267
tp1268
F0.000970873786407767
s(S'later'
p1269
S'succeeded'
p1270
S'as'
p1271
tp1272
F0.000970873786407767
s(S'be'
p1273
S'replaced'
p1274
S'by'
p1275
tp1276
F0.000970873786407767
s(g751
g752
S'by'
p1277
tp1278
F0.001941747572815534
s(S'then'
p1279
S'succeeded'
p1280
S'as'
p1281
tp1282
F0.000970873786407767
s(S'[[adj]]'
p1283
S'support'
p1284
S'of'
p1285
tp1286
F0.000970873786407767
s(S'[[prp]]'
p1287
S'successor'
p1288
S'[[con]]'
p1289
tp1290
F0.000970873786407767
s(S'opposed'
p1291
g1062
g1063
tp1292
F0.000970873786407767
s(S'also'
p1293
S'replaced'
p1294
S'as'
p1295
tp1296
F0.000970873786407767
s(S'be'
p1297
S'followed'
p1298
S'by'
p1299
tp1300
F0.000970873786407767
s(S'[[det]]'
p1301
S'time'
p1302
S'was'
p1303
tp1304
F0.000970873786407767
s(S'[[con]]'
p1305
S'appointed'
p1306
S'as'
p1307
tp1308
F0.000970873786407767
s(S'to'
p1309
S'serve'
p1310
S'when'
p1311
tp1312
F0.000970873786407767
s(S'later'
p1313
S'wrote'
p1314
S'to'
p1315
tp1316
F0.000970873786407767
s(S'singing'
p1317
S'[[con]]'
p1318
S'followed'
p1319
tp1320
F0.000970873786407767
s(S'also'
p1321
S'worked'
p1322
S'along'
p1323
tp1324
F0.000970873786407767
s(S'be'
p1325
S'succeeded'
p1326
S'by'
p1327
tp1328
F0.000970873786407767
s(S'also'
p1329
S'took'
p1330
S'over'
p1331
tp1332
F0.000970873786407767
s(S'[[adj]]'
p1333
S'followed'
p1334
S'by'
p1335
tp1336
F0.000970873786407767
s(S'be'
p1337
S'appointed'
p1338
S'to'
p1339
tp1340
F0.000970873786407767
s(S'[[prp]]'
p1341
S'resignation'
p1342
S'to'
p1343
tp1344
F0.000970873786407767
s(S'because'
p1345
S'believed'
p1346
S'that'
p1347
tp1348
F0.000970873786407767
s(S'as'
p1349
S'[[det]]'
p1350
S'cabinet'
p1351
tp1352
F0.000970873786407767
s(S'was'
p1353
S'replaced'
p1354
S'by'
p1355
tp1356
F0.000970873786407767
s(S'to'
p1357
S'serve'
p1358
S'[[con]]'
p1359
tp1360
F0.000970873786407767
s(g380
g477
g478
tp1361
F0.005825242718446602
s(S'to'
p1362
S'work'
p1363
S'as'
p1364
tp1365
F0.000970873786407767
s(S'held'
p1366
S'office'
p1367
S'under'
p1368
tp1369
F0.002912621359223301
s(g133
S'worked'
p1370
S'on'
p1371
tp1372
F0.000970873786407767
s(S'[[det]]'
p1373
S'death'
p1374
S'of'
p1375
tp1376
F0.000970873786407767
s(S'[[det]]'
p1377
S'rival'
p1378
S'to'
p1379
tp1380
F0.000970873786407767
s(S'which'
p1381
S'replaced'
p1382
S'[[det]]'
p1383
tp1384
F0.000970873786407767
s(g133
S'time'
p1385
S'as'
p1386
tp1387
F0.000970873786407767
s(S'[[adj]]'
p1388
S'leader'
p1389
S'with'
p1390
tp1391
F0.000970873786407767
s(S'[[det]]'
p1392
S'successor'
p1393
S'of'
p1394
tp1395
F0.000970873786407767
s(g133
S'resignation'
p1396
S'[[con]]'
p1397
tp1398
F0.000970873786407767
s(S'later'
p1399
S'served'
p1400
S'as'
p1401
tp1402
F0.000970873786407767
s(S'had'
p1403
S'replaced'
p1404
S'with'
p1405
tp1406
F0.000970873786407767
s(S'has'
p1407
S'commented'
p1408
S'on'
p1409
tp1410
F0.000970873786407767
s(S'[[prp]]'
p1411
S'work'
p1412
S'as'
p1413
tp1414
F0.000970873786407767
s(S'where'
p1415
S'worked'
p1416
S'along'
p1417
tp1418
F0.000970873786407767
s(S'was'
p1419
S'replaced'
p1420
S'as'
p1421
tp1422
F0.000970873786407767
s(S'[[con]]'
p1423
S'replaced'
p1424
S'[[adj]]'
p1425
tp1426
F0.000970873786407767
s(g133
S'role'
p1427
S'of'
p1428
tp1429
F0.000970873786407767
s(S'[[det]]'
p1430
S'cabinet'
p1431
S'of'
p1432
tp1433
F0.001941747572815534
s(S'to'
p1434
S'challenge'
p1435
S'[[adj]]'
p1436
tp1437
F0.000970873786407767
s(S'[[adj]]'
p1438
S'worked'
p1439
S'as'
p1440
tp1441
F0.000970873786407767
s(S'being'
p1442
S'succeeded'
p1443
S'by'
p1444
tp1445
F0.000970873786407767
s(S'to'
p1446
S'stop'
p1447
S'[[pro]]'
p1448
tp1449
F0.000970873786407767
s(S'[[con]]'
p1450
S'served'
p1451
S'under'
p1452
tp1453
F0.000970873786407767
s(S'had'
p1454
S'replaced'
p1455
S'[[det]]'
p1456
tp1457
F0.000970873786407767
s(S'also'
p1458
S'appointed'
p1459
S'as'
p1460
tp1461
F0.000970873786407767
s(S'is'
p1462
S'promoted'
p1463
S'to'
p1464
tp1465
F0.000970873786407767
s(S'twice'
p1466
S'served'
p1467
S'as'
p1468
tp1469
F0.000970873786407767
s(S'[[det]]'
p1470
S'leader'
p1471
S'to'
p1472
tp1473
F0.000970873786407767
s(S'was'
p1474
S'run'
p1475
S'out'
p1476
tp1477
F0.000970873786407767
s(S'[[det]]'
p1478
S'state'
p1479
g133
tp1480
F0.000970873786407767
s(S'[[adj]]'
p1481
S'time'
p1482
S'[[adj]]'
p1483
tp1484
F0.000970873786407767
s(S'[[adj]]'
p1485
S'ahead'
p1486
S'of'
p1487
tp1488
F0.000970873786407767
s(S'be'
p1489
S'replaced'
p1490
S'as'
p1491
tp1492
F0.000970873786407767
s(S'then'
p1493
S'replaced'
p1494
S'by'
p1495
tp1496
F0.000970873786407767
s(S'began'
p1497
g1317
g1318
tp1498
F0.000970873786407767
s(S'[[pro]]'
p1499
S'death'
p1500
S'[[con]]'
p1501
tp1502
F0.000970873786407767
s(S'was'
p1503
S'promoted'
p1504
S'[[con]]'
p1505
tp1506
F0.000970873786407767
s(g34
g35
S'government'
p1507
tp1508
F0.000970873786407767
s(S'[[adj]]'
p1509
S'minister'
p1510
S'who'
p1511
tp1512
F0.000970873786407767
s(S'[[det]]'
p1513
S'role'
p1514
S'as'
p1515
tp1516
F0.000970873786407767
s(S'also'
p1517
S'acted'
p1518
S'to'
p1519
tp1520
F0.000970873786407767
s(S'[[adj]]'
p1521
S'time'
p1522
S'to'
p1523
tp1524
F0.000970873786407767
s(S'had'
p1525
S'run'
p1526
S'away'
p1527
tp1528
F0.000970873786407767
s(S'of'
p1529
S'led'
p1530
S'by'
p1531
tp1532
F0.000970873786407767
s(S'[[adj]]'
p1533
S'served'
p1534
S'as'
p1535
tp1536
F0.000970873786407767
s(S'formerly'
p1537
S'served'
p1538
S'as'
p1539
tp1540
F0.000970873786407767
s(S'was'
p1541
S'named'
p1542
S'along'
p1543
tp1544
F0.000970873786407767
s(S'entered'
p1545
S'[[det]]'
p1546
S'contest'
p1547
tp1548
F0.000970873786407767
s(S'served'
p1549
g1349
g1350
tp1550
F0.001941747572815534
s(S'to'
p1551
S'win'
p1552
S'since'
p1553
tp1554
F0.000970873786407767
s(S'then'
p1555
S'picked'
p1556
S'up'
p1557
tp1558
F0.000970873786407767
s(S'was'
p1559
S'promoted'
p1560
S'when'
p1561
tp1562
F0.000970873786407767
s(S'found'
p1563
S'work'
p1564
S'with'
p1565
tp1566
F0.000970873786407767
s(S'[[con]]'
p1567
S'told'
p1568
S'that'
p1569
tp1570
F0.000970873786407767
s(S'[[con]]'
p1571
S'acted'
p1572
S'to'
p1573
tp1574
F0.000970873786407767
s(S'[[con]]'
p1575
S'came'
p1576
S'with'
p1577
tp1578
F0.000970873786407767
s(S'[[adj]]'
p1579
S'work'
p1580
S'to'
p1581
tp1582
F0.000970873786407767
s(S'[[con]]'
p1583
S'served'
p1584
S'as'
p1585
tp1586
F0.000970873786407767
s(S'also'
p1587
S'named'
p1588
S'[[adj]]'
p1589
tp1590
F0.000970873786407767
s(S'[[adj]]'
p1591
S'support'
p1592
S'for'
p1593
tp1594
F0.000970873786407767
s(S'[[con]]'
p1595
S'ndash'
p1596
S'[[num]]'
p1597
tp1598
F0.000970873786407767
s(S'also'
p1599
S'told'
p1600
S'that'
p1601
tp1602
F0.000970873786407767
s(S'[[det]]'
p1603
S'leader'
p1604
S'was'
p1605
tp1606
F0.000970873786407767
s(S'later'
p1607
S'worked'
p1608
S'on'
p1609
tp1610
F0.000970873786407767
s(S'[[det]]'
p1611
S'leader'
p1612
S'is'
p1613
tp1614
F0.000970873786407767
s(S'also'
p1615
S'worked'
p1616
S'to'
p1617
tp1618
F0.000970873786407767
s(S'continue'
p1619
S'[[prp]]'
p1620
S'studies'
p1621
tp1622
F0.000970873786407767
s(S'wrote'
p1623
g684
g45
tp1624
F0.000970873786407767
s(S'took'
p1625
S'[[det]]'
p1626
S'lead'
p1627
tp1628
F0.001941747572815534
s(S'be'
p1629
S'named'
p1630
S'by'
p1631
tp1632
F0.000970873786407767
s(S'[[con]]'
p1633
S'took'
p1634
S'up'
p1635
tp1636
F0.000970873786407767
s(S'[[adj]]'
p1637
S'minister'
p1638
S'[[det]]'
p1639
tp1640
F0.000970873786407767
s(S'is'
p1641
S'named'
p1642
S'with'
p1643
tp1644
F0.000970873786407767
s(S'was'
p1645
S'promoted'
p1646
S'by'
p1647
tp1648
F0.000970873786407767
s(S'also'
p1649
S'appointed'
p1650
S'[[adj]]'
p1651
tp1652
F0.000970873786407767
s(S'was'
p1653
S'appointed'
p1654
S'when'
p1655
tp1656
F0.000970873786407767
s(S'to'
p1657
S'work'
p1658
S'together'
p1659
tp1660
F0.000970873786407767
s(S'has'
p1661
S'named'
p1662
S'as'
p1663
tp1664
F0.000970873786407767
s(S'is'
p1665
S'named'
p1666
S'[[det]]'
p1667
tp1668
F0.000970873786407767
s(S'who'
p1669
S'led'
p1670
S'[[det]]'
p1671
tp1672
F0.000970873786407767
s(S'[[con]]'
p1673
S'followed'
p1674
S'[[det]]'
p1675
tp1676
F0.001941747572815534
s(g829
g1619
g1620
tp1677
F0.000970873786407767
s(S'to'
p1678
S'serve'
p1679
S'[[num]]'
p1680
tp1681
F0.000970873786407767
s(S'[[det]]'
p1682
S'successor'
p1683
S'to'
p1684
tp1685
F0.000970873786407767
s(S'be'
p1686
S'appointed'
p1687
S'by'
p1688
tp1689
F0.000970873786407767
s(S'in'
p1690
S'[[det]]'
p1691
S'cabinet'
p1692
tp1693
F0.000970873786407767
s(S'was'
p1694
S'appointed'
p1695
S'after'
p1696
tp1697
F0.000970873786407767
s(S'[[adj]]'
p1698
S'time'
p1699
S'[[det]]'
p1700
tp1701
F0.000970873786407767
s(S'has'
p1702
S'worked'
p1703
S'as'
p1704
tp1705
F0.000970873786407767
s(S'held'
p1706
S'office'
p1707
S'as'
p1708
tp1709
F0.002912621359223301
s(S'where'
p1710
S'took'
p1711
S'part'
p1712
tp1713
F0.000970873786407767
s(S'was'
p1714
S'offered'
p1715
S'by'
p1716
tp1717
F0.000970873786407767
s(S'as'
p1718
S'[[det]]'
p1719
S'government'
p1720
tp1721
F0.000970873786407767
s(g1012
g1013
S'letter'
p1722
tp1723
F0.002912621359223301
s(S'be'
p1724
S'named'
p1725
S'[[det]]'
p1726
tp1727
F0.000970873786407767
s(S'[[prp]]'
p1728
S'leader'
p1729
S'when'
p1730
tp1731
F0.000970873786407767
s(S'again'
p1732
S'appointed'
p1733
S'as'
p1734
tp1735
F0.000970873786407767
s(S'[[pro]]'
p1736
S'wrote'
p1737
S'to'
p1738
tp1739
F0.000970873786407767
s(S'[[prp]]'
p1740
S'support'
p1741
S'of'
p1742
tp1743
F0.000970873786407767
s(S'to'
p1744
S'serve'
p1745
S'under'
p1746
tp1747
F0.000970873786407767
s(S'[[mod]]'
p1748
S'run'
p1749
S'as'
p1750
tp1751
F0.000970873786407767
s(g522
g523
g153
tp1752
F0.000970873786407767
s(S'also'
p1753
S'worked'
p1754
S'[[con]]'
p1755
tp1756
F0.000970873786407767
s(S'has'
p1757
S'worked'
p1758
S'with'
p1759
tp1760
F0.000970873786407767
s(S'[[prp]]'
p1761
S'work'
p1762
S'in'
p1763
tp1764
F0.000970873786407767
s(S'[[adj]]'
p1765
S'role'
p1766
S'to'
p1767
tp1768
F0.000970873786407767
s(S'[[det]]'
p1769
S'work'
p1770
S'[[adj]]'
p1771
tp1772
F0.000970873786407767
s(g133
S'successor'
p1773
S'[[con]]'
p1774
tp1775
F0.000970873786407767
s(S'[[det]]'
p1776
S'time'
p1777
S'[[det]]'
p1778
tp1779
F0.000970873786407767
s(S'then'
p1780
S'appointed'
p1781
S'as'
p1782
tp1783
F0.000970873786407767
s(S'[[prp]]'
p1784
S'successor'
p1785
S'as'
p1786
tp1787
F0.000970873786407767
s(S'was'
p1788
S'appointed'
p1789
S'where'
p1790
tp1791
F0.000970873786407767
s(S'also'
p1792
S'announced'
p1793
S'that'
p1794
tp1795
F0.000970873786407767
s(S'[[det]]'
p1796
S'time'
p1797
S'for'
p1798
tp1799
F0.000970873786407767
s(S'to'
p1800
S'remain'
p1801
S'[[adj]]'
p1802
tp1803
F0.000970873786407767
s(S'not'
p1804
S'run'
p1805
S'for'
p1806
tp1807
F0.000970873786407767
s(S'was'
p1808
S'replaced'
p1809
S'in'
p1810
tp1811
F0.000970873786407767
s(S'to'
p1812
S'succeed'
p1813
S'[[pro]]'
p1814
tp1815
F0.000970873786407767
s(S'held'
p1816
S'[[adj]]'
p1817
S'office'
p1818
tp1819
F0.001941747572815534
s(S'also'
p1820
S'served'
p1821
S'after'
p1822
tp1823
F0.000970873786407767
s(S'[[adj]]'
p1824
S'time'
p1825
S'for'
p1826
tp1827
F0.000970873786407767
s(S'is'
p1828
S'appointed'
p1829
S'[[con]]'
p1830
tp1831
F0.000970873786407767
s(S'been'
p1832
S'named'
p1833
S'after'
p1834
tp1835
F0.000970873786407767
s(S'to'
p1836
S'run'
p1837
S'with'
p1838
tp1839
F0.000970873786407767
s(S'also'
p1840
S'served'
p1841
S'to'
p1842
tp1843
F0.000970873786407767
s(S'[[det]]'
p1844
S'statement'
p1845
S'that'
p1846
tp1847
F0.000970873786407767
s(S'[[adj]]'
p1848
S'retirement'
p1849
S'of'
p1850
tp1851
F0.000970873786407767
s(S'was'
p1852
S'announced'
p1853
S'to'
p1854
tp1855
F0.000970873786407767
s(S'[[adj]]'
p1856
S'support'
p1857
S'[[con]]'
p1858
tp1859
F0.000970873786407767
s(S'[[num]]'
p1860
S'ahead'
p1861
S'of'
p1862
tp1863
F0.000970873786407767
s(S'be'
p1864
S'named'
p1865
S'for'
p1866
tp1867
F0.000970873786407767
s(S'also'
p1868
S'wrote'
p1869
S'on'
p1870
tp1871
F0.000970873786407767
s(S'had'
p1872
S'suggested'
p1873
S'that'
p1874
tp1875
F0.000970873786407767
s(S'to'
p1876
S'serve'
p1877
S'after'
p1878
tp1879
F0.000970873786407767
s(S'was'
p1880
S'appointed'
p1881
S'[[con]]'
p1882
tp1883
F0.000970873786407767
s(S'[[adj]]'
p1884
S'promoted'
p1885
S'to'
p1886
tp1887
F0.000970873786407767
s(S'then'
p1888
S'worked'
p1889
S'with'
p1890
tp1891
F0.000970873786407767
s(S'[[mod]]'
p1892
S'serve'
p1893
S'to'
p1894
tp1895
F0.000970873786407767
s(S'to'
p1896
S'work'
p1897
S'among'
p1898
tp1899
F0.000970873786407767
s(S'[[prp]]'
p1900
S'time'
p1901
S'as'
p1902
tp1903
F0.000970873786407767
s(S'[[con]]'
p1904
S'work'
p1905
S'on'
p1906
tp1907
F0.000970873786407767
s(S'also'
p1908
S'came'
p1909
S'up'
p1910
tp1911
F0.000970873786407767
s(S'had'
p1912
S'told'
p1913
S'[[pro]]'
p1914
tp1915
F0.000970873786407767
s(S'was'
p1916
S'named'
p1917
S'as'
p1918
tp1919
F0.000970873786407767
s(S'getting'
p1920
S'ahead'
p1921
S'of'
p1922
tp1923
F0.000970873786407767
s(g1319
g599
g600
tp1924
F0.000970873786407767
s(S'[[con]]'
p1925
S'served'
p1926
S'where'
p1927
tp1928
F0.000970873786407767
s(S'[[prp]]'
p1929
S'successor'
p1930
S'in'
p1931
tp1932
F0.000970873786407767
s(S'[[det]]'
p1933
S'critic'
p1934
S'of'
p1935
tp1936
F0.000970873786407767
s(S'[[det]]'
p1937
S'role'
p1938
S'with'
p1939
tp1940
F0.000970873786407767
s(S'also'
p1941
S'acted'
p1942
S'[[adj]]'
p1943
tp1944
F0.000970873786407767
s(S'is'
p1945
S'told'
p1946
S'by'
p1947
tp1948
F0.000970873786407767
s(S'also'
p1949
S'named'
p1950
S'[[det]]'
p1951
tp1952
F0.000970873786407767
s(S'again'
p1953
S'served'
p1954
S'as'
p1955
tp1956
F0.000970873786407767
s(S'when'
p1957
S'served'
p1958
S'as'
p1959
tp1960
F0.000970873786407767
s(S'was'
p1961
S'appointed'
p1962
S'by'
p1963
tp1964
F0.001941747572815534
s(S'[[adj]]'
p1965
S'role'
p1966
S'of'
p1967
tp1968
F0.000970873786407767
s(S'was'
p1969
S'promoted'
p1970
S'with'
p1971
tp1972
F0.000970873786407767
s(S'also'
p1973
S'acted'
p1974
S'with'
p1975
tp1976
F0.000970873786407767
s(S'[[con]]'
p1977
S'told'
p1978
S'[[det]]'
p1979
tp1980
F0.000970873786407767
s(g133
S'death'
p1981
S'by'
p1982
tp1983
F0.000970873786407767
s(S'served'
p1984
S'[[con]]'
p1985
S'[[det]]'
p1986
tp1987
F0.000970873786407767
s(S'became'
p1988
S'acquainted'
p1989
S'with'
p1990
tp1991
F0.000970873786407767
s(S'later'
p1992
S'turned'
p1993
S'to'
p1994
tp1995
F0.000970873786407767
s(S'[[prp]]'
p1996
S'work'
p1997
S'on'
p1998
tp1999
F0.000970873786407767
s(S'has'
p2000
S'acted'
p2001
S'as'
p2002
tp2003
F0.000970873786407767
s(S'[[adj]]'
p2004
S'role'
p2005
S'with'
p2006
tp2007
F0.000970873786407767
s(S'[[con]]'
p2008
S'took'
p2009
S'on'
p2010
tp2011
F0.000970873786407767
s(S'to'
p2012
S'succeed'
p2013
S'as'
p2014
tp2015
F0.000970873786407767
s(S'later'
p2016
S'came'
p2017
S'with'
p2018
tp2019
F0.000970873786407767
s(S'later'
p2020
S'appointed'
p2021
S'as'
p2022
tp2023
F0.000970873786407767
s(S'again'
p2024
S'held'
p2025
S'office'
p2026
tp2027
F0.001941747572815534
s(S'was'
p2028
S'run'
p2029
S'over'
p2030
tp2031
F0.000970873786407767
s(S'then'
p2032
S'appointed'
p2033
S'to'
p2034
tp2035
F0.000970873786407767
s(S'has'
p2036
S'served'
p2037
S'by'
p2038
tp2039
F0.000970873786407767
s(S'[[adj]]'
p2040
S'stated'
p2041
S'that'
p2042
tp2043
F0.000970873786407767
s(S'as'
p2044
S'wrote'
p2045
S'to'
p2046
tp2047
F0.000970873786407767
s(S'was'
p2048
S'promoted'
p2049
S'[[det]]'
p2050
tp2051
F0.000970873786407767
s(g133
S'work'
p2052
S'as'
p2053
tp2054
F0.000970873786407767
s(S'more'
p2055
S'time'
p2056
S'with'
p2057
tp2058
F0.000970873786407767
s(S'to'
p2059
S'succeed'
p2060
S'[[con]]'
p2061
tp2062
F0.000970873786407767
s(S'was'
p2063
S'appointed'
p2064
S'under'
p2065
tp2066
F0.000970873786407767
s(S'been'
p2067
S'promoted'
p2068
S'by'
p2069
tp2070
F0.000970873786407767
s(S'been'
p2071
S'appointed'
p2072
S'as'
p2073
tp2074
F0.000970873786407767
s(g133
S'support'
p2075
S'of'
p2076
tp2077
F0.000970873786407767
s(S'was'
p2078
S'rewarded'
p2079
S'by'
p2080
tp2081
F0.000970873786407767
s(S'[[adj]]'
p2082
S'statement'
p2083
S'to'
p2084
tp2085
F0.000970873786407767
s(S'as'
p2086
g587
g588
tp2087
F0.000970873786407767
s(S'member'
p2088
S'[[con]]'
p2089
S'[[det]]'
p2090
tp2091
F0.000970873786407767
s(g993
g994
S'over'
p2092
tp2093
F0.000970873786407767
s(g133
S'successor'
p2094
S'in'
p2095
tp2096
F0.000970873786407767
s(S'[[det]]'
p2097
S'run'
p2098
S'of'
p2099
tp2100
F0.000970873786407767
s(S'[[con]]'
p2101
S'believed'
p2102
S'to'
p2103
tp2104
F0.000970873786407767
s(S'also'
p2105
S'worked'
p2106
S'where'
p2107
tp2108
F0.000970873786407767
s(S'to'
p2109
S'serve'
p2110
S'[[det]]'
p2111
tp2112
F0.000970873786407767
s(S'later'
p2113
S'followed'
p2114
S'by'
p2115
tp2116
F0.000970873786407767
s(S'then'
p2117
S'told'
p2118
S'[[det]]'
p2119
tp2120
F0.000970873786407767
s(S'also'
p2121
S'commented'
p2122
S'to'
p2123
tp2124
F0.000970873786407767
s(g133
S'retirement'
p2125
S'[[con]]'
p2126
tp2127
F0.000970873786407767
s(S'has'
p2128
S'commented'
p2129
S'that'
p2130
tp2131
F0.000970873786407767
s(S'[[det]]'
p2132
S'support'
p2133
S'of'
p2134
tp2135
F0.000970873786407767
s(S'[[con]]'
p2136
S'acted'
p2137
S'in'
p2138
tp2139
F0.000970873786407767
s(S'[[con]]'
p2140
S'took'
p2141
S'[[con]]'
p2142
tp2143
F0.000970873786407767
s(S'became'
p2144
S'acquainted'
p2145
S'[[con]]'
p2146
tp2147
F0.000970873786407767
s(g444
g165
g166
tp2148
F0.000970873786407767
s(S'also'
p2149
S'succeeded'
p2150
S'as'
p2151
tp2152
F0.000970873786407767
s(S'had'
p2153
S'served'
p2154
S'on'
p2155
tp2156
F0.000970873786407767
s(S'to'
p2157
S'replace'
p2158
S'with'
p2159
tp2160
F0.000970873786407767
s(S'is'
p2161
S'succeeded'
p2162
S'as'
p2163
tp2164
F0.000970873786407767
s(S'also'
p2165
S'acted'
p2166
S'as'
p2167
tp2168
F0.000970873786407767
s(S'being'
p2169
S'appointed'
p2170
S'[[det]]'
p2171
tp2172
F0.000970873786407767
s(S'[[adj]]'
p2173
S'government'
p2174
S'of'
p2175
tp2176
F0.002912621359223301
s(S'is'
p2177
S'named'
p2178
S'[[con]]'
p2179
tp2180
F0.000970873786407767
s(S'[[con]]'
p2181
S'offered'
p2182
S'[[det]]'
p2183
tp2184
F0.000970873786407767
s(S'[[adj]]'
p2185
S'rival'
p2186
S'[[con]]'
p2187
tp2188
F0.000970873786407767
s(S'[[adj]]'
p2189
S'role'
p2190
S'[[adj]]'
p2191
tp2192
F0.000970873786407767
s(S'to'
p2193
S'stop'
p2194
S'from'
p2195
tp2196
F0.000970873786407767
s(g600
g601
g1186
tp2197
F0.000970873786407767
s(S'[[prp]]'
p2198
S'support'
p2199
S'behind'
p2200
tp2201
F0.000970873786407767
s(S'[[con]]'
p2202
S'worked'
p2203
S'[[prp]]'
p2204
tp2205
F0.000970873786407767
s(S'[[adj]]'
p2206
S'role'
p2207
S'by'
p2208
tp2209
F0.000970873786407767
s(S'was'
p2210
S'promoted'
p2211
S'after'
p2212
tp2213
F0.000970873786407767
s(S'held'
p2214
g17
g18
tp2215
F0.005825242718446602
s(S'later'
p2216
S'wrote'
p2217
S'while'
p2218
tp2219
F0.000970873786407767
s(S'[[det]]'
p2220
S'leader'
p2221
S'as'
p2222
tp2223
F0.000970873786407767
s(S'to'
p2224
S'remain'
p2225
S'as'
p2226
tp2227
F0.000970873786407767
s(S'later'
p2228
S'replaced'
p2229
S'with'
p2230
tp2231
F0.000970873786407767
s(S'was'
p2232
S'appointed'
p2233
S'in'
p2234
tp2235
F0.002912621359223301
s(S'[[con]]'
p2236
S'announced'
p2237
S'that'
p2238
tp2239
F0.000970873786407767
s(S'became'
p2240
S'leader'
p2241
S'[[con]]'
p2242
tp2243
F0.000970873786407767
s(S'had'
p2244
S'worked'
p2245
S'before'
p2246
tp2247
F0.000970873786407767
s(S'was'
p2248
S'offered'
p2249
S'[[num]]'
p2250
tp2251
F0.000970873786407767
s(S'[[adj]]'
p2252
S'support'
p2253
S'from'
p2254
tp2255
F0.000970873786407767
s(S'[[con]]'
p2256
S'named'
p2257
S'as'
p2258
tp2259
F0.000970873786407767
s(S'also'
p2260
S'appointed'
p2261
S'by'
p2262
tp2263
F0.000970873786407767
s(S'[[det]]'
p2264
S'worked'
p2265
S'for'
p2266
tp2267
F0.000970873786407767
s(S'[[con]]'
p2268
S'took'
p2269
S'[[pro]]'
p2270
tp2271
F0.000970873786407767
s(S'then'
p2272
S'came'
p2273
S'out'
p2274
tp2275
F0.000970873786407767
s(S'[[det]]'
p2276
S'office'
p2277
S'[[det]]'
p2278
tp2279
F0.000970873786407767
s(S'first'
p2280
S'appointed'
p2281
S'by'
p2282
tp2283
F0.000970873786407767
s(S'had'
p2284
S'run'
p2285
S'for'
p2286
tp2287
F0.000970873786407767
s(S'[[adj]]'
p2288
S'run'
p2289
S'for'
p2290
tp2291
F0.000970873786407767
s(S'to'
p2292
S'work'
p2293
S'[[num]]'
p2294
tp2295
F0.000970873786407767
s(g1627
S'ahead'
p2296
S'of'
p2297
tp2298
F0.000970873786407767
s(S'were'
p2299
S'replaced'
p2300
S'by'
p2301
tp2302
F0.000970873786407767
s(S'later'
p2303
S'appointed'
p2304
S'of'
p2305
tp2306
F0.000970873786407767
s(S'[[con]]'
p2307
S'successor'
p2308
S'of'
p2309
tp2310
F0.000970873786407767
s(S'served'
p2311
g1154
g1155
tp2312
F0.002912621359223301
s(S'also'
p2313
S'wrote'
p2314
S'about'
p2315
tp2316
F0.000970873786407767
s(g795
g796
S'government'
p2317
tp2318
F0.001941747572815534
s(S'before'
p2319
S'moved'
p2320
S'along'
p2321
tp2322
F0.000970873786407767
s(S'had'
p2323
S'worked'
p2324
S'with'
p2325
tp2326
F0.000970873786407767
s(S'seen'
p2327
g2086
g587
tp2328
F0.000970873786407767
s(S'[[adj]]'
p2329
S'worked'
p2330
S'for'
p2331
tp2332
F0.000970873786407767
s(S'since'
p2333
S'worked'
p2334
S'with'
p2335
tp2336
F0.000970873786407767
s(S'[[con]]'
p2337
S'wrote'
p2338
S'for'
p2339
tp2340
F0.000970873786407767
s(g1056
g1920
g1921
tp2341
F0.000970873786407767
s(S'be'
p2342
S'named'
p2343
S'after'
p2344
tp2345
F0.000970873786407767
s(S'has'
p2346
S'worked'
p2347
S'along'
p2348
tp2349
F0.000970873786407767
s(S'also'
p2350
S'announced'
p2351
S'as'
p2352
tp2353
F0.000970873786407767
s(S'as'
p2354
S'successor'
p2355
S'of'
p2356
tp2357
F0.000970873786407767
s(S'[[con]]'
p2358
S'stated'
p2359
S'that'
p2360
tp2361
F0.000970873786407767
s(S'later'
p2362
S'named'
p2363
S'of'
p2364
tp2365
F0.000970873786407767
s(S'as'
p2366
S'in'
p2367
S'government'
p2368
tp2369
F0.000970873786407767
s(S'[[det]]'
p2370
S'served'
p2371
S'as'
p2372
tp2373
F0.000970873786407767
s(g133
S'work'
p2374
S'which'
p2375
tp2376
F0.000970873786407767
s(S'to'
p2377
S'succeed'
p2378
S'in'
p2379
tp2380
F0.000970873786407767
s(S'[[con]]'
p2381
S'resigned'
p2382
S'as'
p2383
tp2384
F0.000970873786407767
s(S'also'
p2385
S'held'
p2386
S'[[det]]'
p2387
tp2388
F0.000970873786407767
s(S'then'
p2389
S'told'
p2390
S'that'
p2391
tp2392
F0.000970873786407767
s(S'also'
p2393
S'served'
p2394
S'[[con]]'
p2395
tp2396
F0.000970873786407767
s(S'also'
p2397
S'acted'
p2398
S'by'
p2399
tp2400
F0.000970873786407767
s(S'to'
p2401
S'head'
p2402
S'with'
p2403
tp2404
F0.000970873786407767
s(S'later'
p2405
S'worked'
p2406
S'under'
p2407
tp2408
F0.000970873786407767
s(S'was'
p2409
S'appointed'
p2410
S'before'
p2411
tp2412
F0.000970873786407767
s(S'soon'
p2413
S'came'
p2414
S'with'
p2415
tp2416
F0.000970873786407767
s(S'[[adj]]'
p2417
S'appointed'
p2418
S'by'
p2419
tp2420
F0.000970873786407767
s(S'been'
p2421
S'told'
p2422
S'by'
p2423
tp2424
F0.000970873786407767
s(S'[[adj]]'
p2425
S'work'
p2426
S'on'
p2427
tp2428
F0.000970873786407767
s(S'[[mod]]'
p2429
S'replace'
p2430
S'[[det]]'
p2431
tp2432
F0.000970873786407767
s(S'be'
p2433
S'appointed'
p2434
S'as'
p2435
tp2436
F0.000970873786407767
s(g523
g153
g154
tp2437
F0.000970873786407767
s(g133
S'worked'
p2438
S'as'
p2439
tp2440
F0.000970873786407767
s(S'was'
p2441
S'moved'
p2442
S'[[con]]'
p2443
tp2444
F0.000970873786407767
s(S'also'
p2445
S'wrote'
p2446
S'as'
p2447
tp2448
F0.000970873786407767
s(S'regained'
p2449
g443
g444
tp2450
F0.000970873786407767
s(S'was'
p2451
S'picked'
p2452
S'by'
p2453
tp2454
F0.000970873786407767
s(S'also'
p2455
S'believed'
p2456
S'that'
p2457
tp2458
F0.000970873786407767
s(S'then'
p2459
S'worked'
p2460
S'as'
p2461
tp2462
F0.000970873786407767
s(S'[[det]]'
p2463
S'role'
p2464
S'[[con]]'
p2465
tp2466
F0.000970873786407767
s(S'was'
p2467
S'replaced'
p2468
S'while'
p2469
tp2470
F0.000970873786407767
s(S'once'
p2471
S'served'
p2472
S'as'
p2473
tp2474
F0.000970873786407767
s(S'[[con]]'
p2475
S'subsequently'
p2476
S'[[det]]'
p2477
tp2478
F0.000970873786407767
s(S'[[det]]'
p2479
S'run'
p2480
S'for'
p2481
tp2482
F0.000970873786407767
s(S'[[con]]'
p2483
S'told'
p2484
S'[[pro]]'
p2485
tp2486
F0.000970873786407767
s(g310
g311
S'joined'
p2487
tp2488
F0.000970873786407767
s(S'then'
p2489
S'worked'
p2490
S'from'
p2491
tp2492
F0.000970873786407767
s(S'was'
p2493
S'resigned'
p2494
S'to'
p2495
tp2496
F0.000970873786407767
s(S'[[adj]]'
p2497
S'successor'
p2498
S'as'
p2499
tp2500
F0.000970873786407767
s(S'to'
p2501
S'challenge'
p2502
S'[[det]]'
p2503
tp2504
F0.000970873786407767
s(S'was'
p2505
S'announced'
p2506
S'as'
p2507
tp2508
F0.000970873786407767
s(S'carried'
p2509
g992
g993
tp2510
F0.000970873786407767
s(S'joined'
p2511
g835
g836
tp2512
F0.000970873786407767
s(S'then'
p2513
S'turned'
p2514
S'to'
p2515
tp2516
F0.000970873786407767
s(S'to'
p2517
S'work'
p2518
S'after'
p2519
tp2520
F0.000970873786407767
s(S'[[adj]]'
p2521
S'time'
p2522
S'[[con]]'
p2523
tp2524
F0.000970873786407767
s(S'[[adj]]'
p2525
S'cabinet'
p2526
S'of'
p2527
tp2528
F0.001941747572815534
s(S'to'
p2529
S'work'
p2530
S'where'
p2531
tp2532
F0.000970873786407767
s(S'have'
p2533
S'worked'
p2534
S'under'
p2535
tp2536
F0.000970873786407767
s(S'then'
p2537
S'promoted'
p2538
S'to'
p2539
tp2540
F0.000970873786407767
s(S'served'
p2541
S'in'
p2542
S'government'
p2543
tp2544
F0.001941747572815534
s(S'then'
p2545
S'resigned'
p2546
S'as'
p2547
tp2548
F0.000970873786407767
s(S'[[num]]'
p2549
S'appointed'
p2550
S'by'
p2551
tp2552
F0.000970873786407767
s(g133
S'support'
p2553
S'for'
p2554
tp2555
F0.000970873786407767
s(S'[[adj]]'
p2556
S'led'
p2557
S'by'
p2558
tp2559
F0.000970873786407767
s(S'wrote'
p2560
S'[[det]]'
p2561
S'letter'
p2562
tp2563
F0.002912621359223301
s(S'[[det]]'
p2564
S'support'
p2565
S'[[con]]'
p2566
tp2567
F0.000970873786407767
s(S'[[det]]'
p2568
S'head'
p2569
S'as'
p2570
tp2571
F0.000970873786407767
s(S'had'
p2572
S'suggested'
p2573
S'to'
p2574
tp2575
F0.000970873786407767
s(S'to'
p2576
S'serve'
p2577
S'in'
p2578
tp2579
F0.000970873786407767
s(S'has'
p2580
S'worked'
p2581
S'again'
p2582
tp2583
F0.000970873786407767
s(S'[[det]]'
p2584
S'resignation'
p2585
S'of'
p2586
tp2587
F0.000970873786407767
s(S'[[con]]'
p2588
S'acted'
p2589
S'as'
p2590
tp2591
F0.000970873786407767
s(S'first'
p2592
S'appointed'
p2593
S'when'
p2594
tp2595
F0.000970873786407767
s(S'then'
p2596
S'replaced'
p2597
S'with'
p2598
tp2599
F0.000970873786407767
s(S'was'
p2600
S'appointed'
p2601
S'with'
p2602
tp2603
F0.000970873786407767
s(S'to'
p2604
S'win'
p2605
S'after'
p2606
tp2607
F0.000970873786407767
s(S'[[num]]'
p2608
S'time'
p2609
S'[[det]]'
p2610
tp2611
F0.000970873786407767
s(S'[[det]]'
p2612
S'statement'
p2613
S'to'
p2614
tp2615
F0.000970873786407767
s(S'[[adj]]'
p2616
S'government'
p2617
S'minister'
p2618
tp2619
F0.000970873786407767
s(S'had'
p2620
S'worked'
p2621
S'under'
p2622
tp2623
F0.000970873786407767
s(S'has'
p2624
S'worked'
p2625
S'by'
p2626
tp2627
F0.000970873786407767
s(S'was'
p2628
S'offered'
p2629
S'[[adj]]'
p2630
tp2631
F0.000970873786407767
s(S'has'
p2632
S'worked'
p2633
S'together'
p2634
tp2635
F0.000970873786407767
s(S'was'
p2636
S'told'
p2637
S'that'
p2638
tp2639
F0.000970873786407767
s(S'[[con]]'
p2640
S'turned'
p2641
S'on'
p2642
tp2643
F0.000970873786407767
s(S'to'
p2644
S'work'
p2645
S'with'
p2646
tp2647
F0.000970873786407767
s(S'been'
p2648
S'suggested'
p2649
S'that'
p2650
tp2651
F0.000970873786407767
s(g2387
S'office'
p2652
S'of'
p2653
tp2654
F0.002912621359223301
s(S'[[det]]'
p2655
S'challenge'
p2656
S'to'
p2657
tp2658
F0.000970873786407767
s(S'[[adj]]'
p2659
S'time'
p2660
S'with'
p2661
tp2662
F0.000970873786407767
s(S'[[num]]'
p2663
S'run'
p2664
S'for'
p2665
tp2666
F0.000970873786407767
s(S'[[det]]'
p2667
S'retirement'
p2668
S'of'
p2669
tp2670
F0.000970873786407767
s(S'[[adj]]'
p2671
S'work'
p2672
S'[[con]]'
p2673
tp2674
F0.000970873786407767
s(g1985
g1986
S'cabinet'
p2675
tp2676
F0.001941747572815534
s(S'soon'
p2677
S'replaced'
p2678
S'by'
p2679
tp2680
F0.000970873786407767
s(S'then'
p2681
S'wrote'
p2682
S'to'
p2683
tp2684
F0.000970873786407767
s(S'had'
p2685
S'served'
p2686
S'[[con]]'
p2687
tp2688
F0.000970873786407767
s(S'[[con]]'
p2689
S'worked'
p2690
S'with'
p2691
tp2692
F0.000970873786407767
s(S'later'
p2693
S'announced'
p2694
S'that'
p2695
tp2696
F0.000970873786407767
s(S'[[con]]'
p2697
S'succeeded'
p2698
S'as'
p2699
tp2700
F0.000970873786407767
s(g1621
S'in'
p2701
g690
tp2702
F0.000970873786407767
s(S'[[det]]'
p2703
S'rival'
p2704
S'for'
p2705
tp2706
F0.000970873786407767
s(S'[[det]]'
p2707
S'supporter'
p2708
S'of'
p2709
tp2710
F0.000970873786407767
s(S'to'
p2711
S'support'
p2712
S'[[con]]'
p2713
tp2714
F0.000970873786407767
s(S'[[det]]'
p2715
S'led'
p2716
S'by'
p2717
tp2718
F0.000970873786407767
s(S'being'
p2719
S'replaced'
p2720
S'with'
p2721
tp2722
F0.000970873786407767
s(g2577
g2578
S'government'
p2723
tp2724
F0.000970873786407767
s(g319
g829
g1619
tp2725
F0.000970873786407767
s(S'has'
p2726
S'worked'
p2727
S'[[con]]'
p2728
tp2729
F0.000970873786407767
s(S'be'
p2730
S'led'
p2731
S'by'
p2732
tp2733
F0.000970873786407767
s(S'later'
p2734
S'serve'
p2735
S'as'
p2736
tp2737
F0.000970873786407767
s(S'is'
p2738
S'appointed'
p2739
S'as'
p2740
tp2741
F0.000970873786407767
s(S'also'
p2742
S'suggested'
p2743
S'that'
p2744
tp2745
F0.000970873786407767
s(S'then'
p2746
S'moved'
p2747
S'as'
p2748
tp2749
F0.000970873786407767
s(S'was'
p2750
S'turned'
p2751
S'by'
p2752
tp2753
F0.000970873786407767
s(S'became'
p2754
S'head'
p2755
S'[[con]]'
p2756
tp2757
F0.000970873786407767
s(S'to'
p2758
S'run'
p2759
S'again'
p2760
tp2761
F0.000970873786407767
s(S'[[adj]]'
p2762
S'wrote'
p2763
S'to'
p2764
tp2765
F0.000970873786407767
s(S'were'
p2766
S'appointed'
p2767
S'by'
p2768
tp2769
F0.000970873786407767
s(g1221
g1222
S'appoint'
p2770
tp2771
F0.000970873786407767
s(S'then'
p2772
S'announced'
p2773
S'that'
p2774
tp2775
F0.000970873786407767
s(g133
S'government'
p2776
S'as'
p2777
tp2778
F0.000970873786407767
s(g133
S'death'
p2779
S'[[con]]'
p2780
tp2781
F0.000970873786407767
s(S'later'
p2782
S'appointed'
p2783
S'[[con]]'
p2784
tp2785
F0.000970873786407767
s(S'[[con]]'
p2786
S'appointed'
p2787
S'[[pro]]'
p2788
tp2789
F0.000970873786407767
s(S'is'
p2790
S'named'
p2791
S'to'
p2792
tp2793
F0.000970873786407767
s(S'has'
p2794
S'followed'
p2795
S'[[det]]'
p2796
tp2797
F0.000970873786407767
s(S'to'
p2798
S'challenge'
p2799
S'[[con]]'
p2800
tp2801
F0.000970873786407767
s(g133
S'role'
p2802
S'[[con]]'
p2803
tp2804
F0.000970873786407767
s(S'[[con]]'
p2805
S'took'
p2806
S'over'
p2807
tp2808
F0.000970873786407767
s(S'[[con]]'
p2809
S'wrote'
p2810
S'to'
p2811
tp2812
F0.000970873786407767
s(S'to'
p2813
S'replace'
p2814
S'[[prp]]'
p2815
tp2816
F0.000970873786407767
s(g133
S'death'
p2817
S'to'
p2818
tp2819
F0.000970873786407767
s(S'also'
p2820
S'wrote'
p2821
S'to'
p2822
tp2823
F0.000970873786407767
s(S'[[det]]'
p2824
S'assassination'
p2825
S'of'
p2826
tp2827
F0.000970873786407767
s(S'[[mod]]'
p2828
S'remain'
p2829
S'as'
p2830
tp2831
F0.000970873786407767
s(S'have'
p2832
S'worked'
p2833
S'with'
p2834
tp2835
F0.000970873786407767
s(g2701
g690
g691
tp2836
F0.000970873786407767
s(g133
S'death'
p2837
S'which'
p2838
tp2839
F0.000970873786407767
s(S'[[adj]]'
p2840
S'critic'
p2841
S'of'
p2842
tp2843
F0.000970873786407767
s(S'[[det]]'
p2844
S'supporter'
p2845
S'[[con]]'
p2846
tp2847
F0.000970873786407767
s(S'was'
p2848
S'followed'
p2849
S'as'
p2850
tp2851
F0.000970873786407767
s(S'to'
p2852
S'win'
p2853
S'by'
p2854
tp2855
F0.000970873786407767
s(S'then'
p2856
S'served'
p2857
S'as'
p2858
tp2859
F0.000970873786407767
s(S'was'
p2860
S'named'
p2861
S'was'
p2862
tp2863
F0.000970873786407767
s(S'later'
p2864
S'appointed'
p2865
S'[[det]]'
p2866
tp2867
F0.000970873786407767
s(g155
g361
S'[[con]]'
p2868
tp2869
F0.000970873786407767
s(S'also'
p2870
S'served'
p2871
S'along'
p2872
tp2873
F0.000970873786407767
s(S'[[con]]'
p2874
S'served'
p2875
S'to'
p2876
tp2877
F0.000970873786407767
s(S'is'
p2878
S'named'
p2879
S'by'
p2880
tp2881
F0.000970873786407767
s(S'has'
p2882
S'worked'
p2883
S'under'
p2884
tp2885
F0.000970873786407767
s(S'was'
p2886
S'replaced'
p2887
S'after'
p2888
tp2889
F0.000970873786407767
s(S'to'
p2890
S'replace'
p2891
S'[[adj]]'
p2892
tp2893
F0.000970873786407767
s(S'also'
p2894
S'served'
p2895
S'[[num]]'
p2896
tp2897
F0.000970873786407767
s(S'had'
p2898
S'served'
p2899
S'as'
p2900
tp2901
F0.000970873786407767
s(S'to'
p2902
S'replace'
p2903
S'who'
p2904
tp2905
F0.000970873786407767
s(S'[[con]]'
p2906
S'replacing'
p2907
S'[[con]]'
p2908
tp2909
F0.000970873786407767
s(S'where'
p2910
S'served'
p2911
S'as'
p2912
tp2913
F0.000970873786407767
s(S'appointed'
p2914
S'in'
p2915
S'government'
p2916
tp2917
F0.000970873786407767
s(S'[[mod]]'
p2918
S'replace'
p2919
S'at'
p2920
tp2921
F0.000970873786407767
s(S'was'
p2922
S'replaced'
p2923
S'with'
p2924
tp2925
F0.000970873786407767
s(S'[[adj]]'
p2926
g1224
g1225
tp2927
F0.000970873786407767
s(S'later'
p2928
S'stated'
p2929
S'that'
p2930
tp2931
F0.000970873786407767
s(S'is'
p2932
S'appointed'
p2933
S'to'
p2934
tp2935
F0.000970873786407767
s(S'[[prp]]'
p2936
S'resignation'
p2937
S'as'
p2938
tp2939
F0.000970873786407767
s(g478
g479
S'of'
p2940
tp2941
F0.0048543689320388345
s(S'to'
p2942
S'support'
p2943
S'[[pro]]'
p2944
tp2945
F0.000970873786407767
s(S'then'
p2946
S'worked'
p2947
S'along'
p2948
tp2949
F0.000970873786407767
s(S'[[det]]'
p2950
S'named'
p2951
S'after'
p2952
tp2953
F0.000970873786407767
s(S'then'
p2954
S'took'
p2955
S'over'
p2956
tp2957
F0.000970873786407767
s(S'posts'
p2958
S'[[con]]'
p2959
S'when'
p2960
tp2961
F0.000970873786407767
s(S'had'
p2962
S'previously'
p2963
S'been'
p2964
tp2965
F0.000970873786407767
s(S'to'
p2966
S'serve'
p2967
S'until'
p2968
tp2969
F0.000970873786407767
s(S'had'
p2970
S'moved'
p2971
S'out'
p2972
tp2973
F0.000970873786407767
s(S'[[adj]]'
p2974
S'work'
p2975
S'with'
p2976
tp2977
F0.000970873786407767
s(S'also'
p2978
S'acted'
p2979
S'[[det]]'
p2980
tp2981
F0.000970873786407767
s(g133
S'work'
p2982
S'[[con]]'
p2983
tp2984
F0.000970873786407767
s(S'[[num]]'
p2985
S'time'
p2986
S'[[con]]'
p2987
tp2988
F0.000970873786407767
s(S'[[adj]]'
p2989
S'work'
p2990
S'of'
p2991
tp2992
F0.000970873786407767
s(S'was'
p2993
S'replaced'
p2994
S'[[con]]'
p2995
tp2996
F0.000970873786407767
s(S'also'
p2997
S'worked'
p2998
S'together'
p2999
tp3000
F0.000970873786407767
s(S'was'
p3001
S'succeeded'
p3002
S'by'
p3003
tp3004
F0.001941747572815534
s(S'is'
p3005
S'replaced'
p3006
S'by'
p3007
tp3008
F0.000970873786407767
s(g852
g853
S'as'
p3009
tp3010
F0.000970873786407767
s(S'first'
p3011
S'stood'
p3012
S'to'
p3013
tp3014
F0.000970873786407767
s(S'[[det]]'
p3015
S'time'
p3016
S'[[con]]'
p3017
tp3018
F0.000970873786407767
s(S'[[adj]]'
p3019
S'supporter'
p3020
S'of'
p3021
tp3022
F0.000970873786407767
s(S'[[det]]'
p3023
S'[[adj]]'
p3024
g2958
tp3025
F0.000970873786407767
s(S'also'
p3026
S'promoted'
p3027
S'[[det]]'
p3028
tp3029
F0.000970873786407767
s(S'to'
p3030
S'win'
p3031
S'from'
p3032
tp3033
F0.000970873786407767
s(S'who'
p3034
S'appointed'
p3035
S'[[det]]'
p3036
tp3037
F0.000970873786407767
s(S'[[det]]'
p3038
S'time'
p3039
S'when'
p3040
tp3041
F0.000970873786407767
s(S'[[det]]'
p3042
S'role'
p3043
S'along'
p3044
tp3045
F0.000970873786407767
s(S'formerly'
p3046
S'worked'
p3047
S'as'
p3048
tp3049
F0.000970873786407767
s(S'[[adj]]'
p3050
S'time'
p3051
S'of'
p3052
tp3053
F0.000970873786407767
s(S'served'
p3054
S'in'
p3055
S'cabinet'
p3056
tp3057
F0.000970873786407767
s(S'has'
p3058
S'named'
p3059
S'[[con]]'
p3060
tp3061
F0.000970873786407767
s(S'then'
p3062
S'served'
p3063
S'under'
p3064
tp3065
F0.000970873786407767
s(S'also'
p3066
S'wrote'
p3067
S'[[det]]'
p3068
tp3069
F0.002912621359223301
s(S'first'
p3070
S'came'
p3071
S'when'
p3072
tp3073
F0.000970873786407767
s(S'to'
p3074
S'work'
p3075
S'while'
p3076
tp3077
F0.000970873786407767
s(S'[[adj]]'
p3078
S'minister'
p3079
S'under'
p3080
tp3081
F0.000970873786407767
s(S'later'
p3082
S'told'
p3083
S'that'
p3084
tp3085
F0.000970873786407767
s(S'[[mod]]'
p3086
S'serve'
p3087
S'in'
p3088
tp3089
F0.000970873786407767
s(S'[[det]]'
p3090
S'government'
p3091
S'of'
p3092
tp3093
F0.005825242718446602
s(S'has'
p3094
S'worked'
p3095
S'from'
p3096
tp3097
F0.000970873786407767
s(S'to'
p3098
S'replace'
p3099
S'[[con]]'
p3100
tp3101
F0.000970873786407767
s(S'has'
p3102
S'run'
p3103
S'[[con]]'
p3104
tp3105
F0.000970873786407767
s(S'to'
p3106
S'work'
p3107
S'by'
p3108
tp3109
F0.000970873786407767
s(S'[[det]]'
p3110
S'role'
p3111
S'[[adj]]'
p3112
tp3113
F0.000970873786407767
s(g133
S'death'
p3114
S'as'
p3115
tp3116
F0.000970873786407767
s(S'[[det]]'
p3117
S'state'
p3118
S'[[con]]'
p3119
tp3120
F0.000970873786407767
s(S'also'
p3121
S'worked'
p3122
S'among'
p3123
tp3124
F0.000970873786407767
s(S'later'
p3125
S'commented'
p3126
S'that'
p3127
tp3128
F0.000970873786407767
s(S'was'
p3129
S'succeeded'
p3130
S'[[pro]]'
p3131
tp3132
F0.000970873786407767
s(S'found'
p3133
S'work'
p3134
S'as'
p3135
tp3136
F0.000970873786407767
s(S'then'
p3137
S'served'
p3138
S'until'
p3139
tp3140
F0.000970873786407767
s(S'[[det]]'
p3141
S'head'
p3142
S'with'
p3143
tp3144
F0.000970873786407767
s(g2959
g2960
S'resigned'
p3145
tp3146
F0.000970873786407767
s(S'[[pro]]'
p3147
S'served'
p3148
S'as'
p3149
tp3150
F0.000970873786407767
s(S'to'
p3151
S'win'
p3152
S'over'
p3153
tp3154
F0.000970873786407767
s(S'offered'
p3155
g3023
g3024
tp3156
F0.000970873786407767
s(S'then'
p3157
S'took'
p3158
S'[[prp]]'
p3159
tp3160
F0.000970873786407767
s(S'also'
p3161
S'served'
p3162
S'against'
p3163
tp3164
F0.000970873786407767
s(S'also'
p3165
S'suggests'
p3166
S'that'
p3167
tp3168
F0.000970873786407767
s(S'well'
p3169
S'acquainted'
p3170
S'with'
p3171
tp3172
F0.000970873786407767
s(S'also'
p3173
S'stated'
p3174
S'that'
p3175
tp3176
F0.000970873786407767
s(g298
g299
S'premiership'
p3177
tp3178
F0.000970873786407767
s(S'to'
p3179
S'work'
p3180
S'[[con]]'
p3181
tp3182
F0.000970873786407767
s(S'in'
p3183
S'[[adj]]'
p3184
S'cabinet'
p3185
tp3186
F0.000970873786407767
s(S'also'
p3187
S'served'
p3188
S'where'
p3189
tp3190
F0.000970873786407767
s(S'had'
p3191
S'succeeded'
p3192
S'as'
p3193
tp3194
F0.000970873786407767
s(S'was'
p3195
S'promoted'
p3196
S'to'
p3197
tp3198
F0.000970873786407767
s(S'has'
p3199
S'run'
p3200
S'with'
p3201
tp3202
F0.000970873786407767
s(S'[[det]]'
p3203
S'appointed'
p3204
S'[[con]]'
p3205
tp3206
F0.000970873786407767
s(S'has'
p3207
S'served'
p3208
S'to'
p3209
tp3210
F0.000970873786407767
s(S'later'
p3211
S'worked'
p3212
S'[[con]]'
p3213
tp3214
F0.000970873786407767
s(S'[[num]]'
p3215
S'time'
p3216
S'with'
p3217
tp3218
F0.000970873786407767
s(S'[[prp]]'
p3219
S'support'
p3220
S'for'
p3221
tp3222
F0.000970873786407767
s(S'later'
p3223
S'served'
p3224
S'[[con]]'
p3225
tp3226
F0.000970873786407767
s(S'just'
p3227
S'ahead'
p3228
S'of'
p3229
tp3230
F0.000970873786407767
s(S'also'
p3231
S'led'
p3232
S'[[con]]'
p3233
tp3234
F0.000970873786407767
s(S'when'
p3235
S'retired'
p3236
S'in'
p3237
tp3238
F0.000970873786407767
s(S'[[det]]'
p3239
S'stop'
p3240
S'to'
p3241
tp3242
F0.000970873786407767
s(S'had'
p3243
S'replaced'
p3244
S'[[pro]]'
p3245
tp3246
F0.000970873786407767
s(S'[[mod]]'
p3247
S'win'
p3248
S'[[pro]]'
p3249
tp3250
F0.000970873786407767
s(S'later'
p3251
S'wrote'
p3252
S'of'
p3253
tp3254
F0.000970873786407767
s(S'was'
p3255
S'appointed'
p3256
S'[[adj]]'
p3257
tp3258
F0.000970873786407767
s(S'[[adj]]'
p3259
S'minister'
p3260
S'in'
p3261
tp3262
F0.000970873786407767
s(S'[[mod]]'
p3263
S'work'
p3264
S'with'
p3265
tp3266
F0.000970873786407767
s(S'[[adj]]'
p3267
S'support'
p3268
S'to'
p3269
tp3270
F0.000970873786407767
s(S'[[det]]'
p3271
S'leader'
p3272
S'[[con]]'
p3273
tp3274
F0.000970873786407767
s(S'[[det]]'
p3275
g2088
g2089
tp3276
F0.000970873786407767
s(S'was'
p3277
S'named'
p3278
S'with'
p3279
tp3280
F0.000970873786407767
s(S'minister'
p3281
S'in'
p3282
S'government'
p3283
tp3284
F0.001941747572815534
s(S'[[det]]'
p3285
S'appointed'
p3286
S'by'
p3287
tp3288
F0.000970873786407767
s(S'[[con]]'
p3289
S'named'
p3290
S'[[det]]'
p3291
tp3292
F0.000970873786407767
s(S'have'
p3293
S'served'
p3294
S'as'
p3295
tp3296
F0.000970873786407767
s(S'had'
p3297
S'offered'
p3298
S'[[pro]]'
p3299
tp3300
F0.000970873786407767
s(S'had'
p3301
S'served'
p3302
S'under'
p3303
tp3304
F0.000970873786407767
s(S'was'
p3305
S'announced'
p3306
S'[[con]]'
p3307
tp3308
F0.000970873786407767
s(g1225
g1226
S'members'
p3309
tp3310
F0.000970873786407767
s(g2233
g2234
S'[[det]]'
p3311
tp3312
F0.000970873786407767
s(S'to'
p3313
S'support'
p3314
S'[[adj]]'
p3315
tp3316
F0.000970873786407767
s(S'since'
p3317
S'worked'
p3318
S'[[con]]'
p3319
tp3320
F0.000970873786407767
s(S'being'
p3321
S'appointed'
p3322
S'by'
p3323
tp3324
F0.000970873786407767
s(S'first'
p3325
S'worked'
p3326
S'to'
p3327
tp3328
F0.000970873786407767
s(g133
S'work'
p3329
S'with'
p3330
tp3331
F0.000970873786407767
s(S'also'
p3332
S'commented'
p3333
S'on'
p3334
tp3335
F0.000970873786407767
s(S'was'
p3336
S'succeeded'
p3337
S'as'
p3338
tp3339
F0.001941747572815534
s(S'again'
p3340
S'appointed'
p3341
S'[[det]]'
p3342
tp3343
F0.000970873786407767
s(g133
S'death'
p3344
S'[[num]]'
p3345
tp3346
F0.000970873786407767
s(S'was'
p3347
S'overtaken'
p3348
S'by'
p3349
tp3350
F0.000970873786407767
s(S'[[adj]]'
p3351
S'cabinet'
p3352
S'minister'
p3353
tp3354
F0.000970873786407767
s(S'[[adj]]'
p3355
S'role'
p3356
S'[[num]]'
p3357
tp3358
F0.000970873786407767
s(S'[[con]]'
p3359
S'took'
p3360
S'[[num]]'
p3361
tp3362
F0.000970873786407767
s(S'be'
p3363
S'appointed'
p3364
S'[[con]]'
p3365
tp3366
F0.000970873786407767
s(S'also'
p3367
S'named'
p3368
S'as'
p3369
tp3370
F0.000970873786407767
s(S'then'
p3371
S'worked'
p3372
S'[[con]]'
p3373
tp3374
F0.000970873786407767
s(S'being'
p3375
S'appointed'
p3376
S'as'
p3377
tp3378
F0.000970873786407767
s(S'also'
p3379
S'serve'
p3380
S'as'
p3381
tp3382
F0.000970873786407767
s(S'had'
p3383
S'turned'
p3384
S'to'
p3385
tp3386
F0.000970873786407767
s(S'later'
p3387
S'served'
p3388
S'under'
p3389
tp3390
F0.000970873786407767
s(S'[[det]]'
p3391
S'work'
p3392
S'by'
p3393
tp3394
F0.000970873786407767
s(S'was'
p3395
S'named'
p3396
S'[[con]]'
p3397
tp3398
F0.000970873786407767
s(S'was'
p3399
S'accepted'
p3400
S'as'
p3401
tp3402
F0.000970873786407767
s(S'had'
p3403
S'succeeded'
p3404
S'[[pro]]'
p3405
tp3406
F0.000970873786407767
s(S'won'
p3407
g750
g751
tp3408
F0.000970873786407767
s(S'[[adj]]'
p3409
S'win'
p3410
S'[[con]]'
p3411
tp3412
F0.000970873786407767
s(S'also'
p3413
S'wrote'
p3414
S'[[con]]'
p3415
tp3416
F0.000970873786407767
s(S'[[mod]]'
p3417
S'succeed'
p3418
S'as'
p3419
tp3420
F0.000970873786407767
s(S'was'
p3421
g2327
g2086
tp3422
F0.000970873786407767
s(S'also'
p3423
S'appointed'
p3424
S'[[det]]'
p3425
tp3426
F0.000970873786407767
s(S'served'
p3427
g2366
g2367
tp3428
F0.000970873786407767
s(S'also'
p3429
S'wrote'
p3430
S'that'
p3431
tp3432
F0.000970873786407767
s(S'later'
p3433
S'moved'
p3434
S'where'
p3435
tp3436
F0.000970873786407767
s(S'then'
p3437
S'turned'
p3438
S'up'
p3439
tp3440
F0.000970873786407767
s(S'was'
p3441
S'elected'
p3442
S'deputy'
p3443
tp3444
F0.000970873786407767
s(S'[[adj]]'
p3445
S'rival'
p3446
S'of'
p3447
tp3448
F0.000970873786407767
s(S'is'
p3449
S'led'
p3450
S'to'
p3451
tp3452
F0.000970873786407767
s(S'had'
p3453
S'appointed'
p3454
S'[[det]]'
p3455
tp3456
F0.000970873786407767
s(S'been'
p3457
S'accepted'
p3458
S'as'
p3459
tp3460
F0.000970873786407767
s(S'later'
p3461
g1706
g1707
tp3462
F0.001941747572815534
s(g1626
g1627
g2296
tp3463
F0.000970873786407767
s(S'[[mod]]'
p3464
S'serve'
p3465
S'under'
p3466
tp3467
F0.000970873786407767
s(S'to'
p3468
S'run'
p3469
S'against'
p3470
tp3471
F0.000970873786407767
s(g1055
g1056
g1920
tp3472
F0.000970873786407767
s(S'also'
p3473
S'wrote'
p3474
S'by'
p3475
tp3476
F0.000970873786407767
s(S'was'
p3477
S'succeeded'
p3478
S'[[con]]'
p3479
tp3480
F0.000970873786407767
s(g1013
g1722
S'to'
p3481
tp3482
F0.001941747572815534
s(S'where'
p3483
S'served'
p3484
S'under'
p3485
tp3486
F0.000970873786407767
s(S'then'
p3487
S'served'
p3488
S'[[num]]'
p3489
tp3490
F0.000970873786407767
s(S'[[num]]'
p3491
S'served'
p3492
S'on'
p3493
tp3494
F0.000970873786407767
s(S'been'
p3495
S'promoted'
p3496
S'to'
p3497
tp3498
F0.000970873786407767
s(S'[[adj]]'
p3499
S'served'
p3500
S'for'
p3501
tp3502
F0.000970873786407767
s(S'was'
p3503
S'named'
p3504
S'[[adj]]'
p3505
tp3506
F0.000970873786407767
s(S'in'
p3507
S'government'
p3508
S'as'
p3509
tp3510
F0.000970873786407767
s(S'is'
p3511
S'appointed'
p3512
S'by'
p3513
tp3514
F0.000970873786407767
s(S'also'
p3515
S'acted'
p3516
S'at'
p3517
tp3518
F0.000970873786407767
s(S'[[adj]]'
p3519
S'run'
p3520
S'[[con]]'
p3521
tp3522
F0.000970873786407767
s(g577
g317
g318
tp3523
F0.000970873786407767
s(S'[[adj]]'
p3524
S'successor'
p3525
S'to'
p3526
tp3527
F0.000970873786407767
s(S'[[adj]]'
p3528
S'head'
p3529
S'to'
p3530
tp3531
F0.000970873786407767
s(S'[[adj]]'
p3532
S'death'
p3533
S'of'
p3534
tp3535
F0.000970873786407767
s(g166
g167
g956
tp3536
F0.000970873786407767
s(S'has'
p3537
S'worked'
p3538
S'until'
p3539
tp3540
F0.000970873786407767
s(S'had'
p3541
S'worked'
p3542
S'to'
p3543
tp3544
F0.000970873786407767
s(g1620
g1621
g2701
tp3545
F0.000970873786407767
s(S'accepted'
p3546
S'[[det]]'
p3547
S'resignation'
p3548
tp3549
F0.000970873786407767
s(S'is'
p3550
S'believed'
p3551
S'to'
p3552
tp3553
F0.000970873786407767
s(g133
S'role'
p3554
S'as'
p3555
tp3556
F0.000970873786407767
s(S'was'
p3557
S'moved'
p3558
S'back'
p3559
tp3560
F0.000970873786407767
s(S'[[adj]]'
p3561
S'supporter'
p3562
S'[[con]]'
p3563
tp3564
F0.000970873786407767
s(S'head'
p3565
g2401
g2402
tp3566
F0.000970873786407767
s(S'[[con]]'
p3567
S'appointed'
p3568
S'[[det]]'
p3569
tp3570
F0.000970873786407767
s(g118
g119
S'succeeded'
p3571
tp3572
F0.001941747572815534
s(S'to'
p3573
S'run'
p3574
S'for'
p3575
tp3576
F0.000970873786407767
s(S'instead'
p3577
S'appointed'
p3578
S'as'
p3579
tp3580
F0.000970873786407767
s(S'also'
p3581
S'worked'
p3582
S'by'
p3583
tp3584
F0.000970873786407767
s(g3024
g2958
g2959
tp3585
F0.000970873786407767
s(g1817
g1818
S'for'
p3586
tp3587
F0.000970873786407767
s(S'was'
p3588
S'succeeded'
p3589
S'who'
p3590
tp3591
F0.000970873786407767
s(S'been'
p3592
S'appointed'
p3593
S'to'
p3594
tp3595
F0.000970873786407767
s(S'first'
p3596
S'appointed'
p3597
S'in'
p3598
tp3599
F0.000970873786407767
s(S'later'
p3600
S'named'
p3601
S'by'
p3602
tp3603
F0.000970873786407767
s(S'has'
p3604
S'acted'
p3605
S'with'
p3606
tp3607
F0.000970873786407767
s(S'[[det]]'
p3608
S'role'
p3609
S'of'
p3610
tp3611
F0.000970873786407767
s(S'[[mod]]'
p3612
S'succeed'
p3613
S'[[pro]]'
p3614
tp3615
F0.000970873786407767
s(S'[[num]]'
p3616
S'work'
p3617
S'of'
p3618
tp3619
F0.000970873786407767
s.