(dp0
(S'has'
p1
S'served'
p2
S'for'
p3
tp4
F0.007518796992481203
s(S'[[adj]]'
p5
S'member'
p6
S'during'
p7
tp8
F0.007518796992481203
s(S'formerly'
p9
S'served'
p10
S'to'
p11
tp12
F0.007518796992481203
s(S'also'
p13
S'served'
p14
S'[[adj]]'
p15
tp16
F0.007518796992481203
s(S'when'
p17
S'served'
p18
S'with'
p19
tp20
F0.007518796992481203
s(S'[[con]]'
p21
S'served'
p22
S'with'
p23
tp24
F0.007518796992481203
s(S'[[con]]'
p25
S'served'
p26
S'for'
p27
tp28
F0.007518796992481203
s(S'[[det]]'
p29
S'served'
p30
S'in'
p31
tp32
F0.007518796992481203
s(S'[[det]]'
p33
S'member'
p34
S'at'
p35
tp36
F0.007518796992481203
s(S'[[det]]'
p37
S'member'
p38
S'from'
p39
tp40
F0.007518796992481203
s(S'[[det]]'
p41
S'member'
p42
S'which'
p43
tp44
F0.007518796992481203
s(S'has'
p45
S'served'
p46
S'where'
p47
tp48
F0.007518796992481203
s(S'was'
p49
S'served'
p50
S'as'
p51
tp52
F0.007518796992481203
s(S'then'
p53
S'served'
p54
S'with'
p55
tp56
F0.007518796992481203
s(S'was'
p57
S'member'
p58
S'[[con]]'
p59
tp60
F0.007518796992481203
s(S'[[num]]'
p61
S'member'
p62
S'of'
p63
tp64
F0.007518796992481203
s(S'who'
p65
S'served'
p66
S'in'
p67
tp68
F0.007518796992481203
s(S'twice'
p69
S'served'
p70
S'in'
p71
tp72
F0.007518796992481203
s(S'also'
p73
S'member'
p74
S'[[con]]'
p75
tp76
F0.007518796992481203
s(S'[[adj]]'
p77
S'member'
p78
S'[[det]]'
p79
tp80
F0.007518796992481203
s(S'[[det]]'
p81
S'member'
p82
S'who'
p83
tp84
F0.007518796992481203
s(S'who'
p85
S'served'
p86
S'with'
p87
tp88
F0.007518796992481203
s(S'[[adj]]'
p89
S'served'
p90
S'at'
p91
tp92
F0.007518796992481203
s(S'[[adj]]'
p93
S'member'
p94
S'in'
p95
tp96
F0.007518796992481203
s(S'[[det]]'
p97
S'member'
p98
S'when'
p99
tp100
F0.007518796992481203
s(S'have'
p101
S'served'
p102
S'in'
p103
tp104
F0.007518796992481203
s(S'[[adj]]'
p105
S'member'
p106
S'[[num]]'
p107
tp108
F0.007518796992481203
s(S'also'
p109
S'served'
p110
S'[[num]]'
p111
tp112
F0.007518796992481203
s(S'[[adj]]'
p113
S'served'
p114
S'for'
p115
tp116
F0.007518796992481203
s(S'had'
p117
S'served'
p118
S'[[det]]'
p119
tp120
F0.007518796992481203
s(S'[[con]]'
p121
S'served'
p122
S'[[det]]'
p123
tp124
F0.007518796992481203
s(S'[[det]]'
p125
S'member'
p126
S'until'
p127
tp128
F0.007518796992481203
s(S'has'
p129
S'served'
p130
S'as'
p131
tp132
F0.007518796992481203
s(S'also'
p133
S'served'
p134
S'at'
p135
tp136
F0.007518796992481203
s(S'[[adj]]'
p137
S'member'
p138
S'at'
p139
tp140
F0.007518796992481203
s(S'[[det]]'
p141
S'member'
p142
S'[[det]]'
p143
tp144
F0.007518796992481203
s(S'formerly'
p145
S'served'
p146
S'in'
p147
tp148
F0.007518796992481203
s(S'later'
p149
S'served'
p150
S'with'
p151
tp152
F0.007518796992481203
s(S'[[adj]]'
p153
S'member'
p154
S'of'
p155
tp156
F0.007518796992481203
s(S'also'
p157
S'served'
p158
S'in'
p159
tp160
F0.007518796992481203
s(S'[[con]]'
p161
S'served'
p162
S'in'
p163
tp164
F0.007518796992481203
s(S'[[det]]'
p165
S'member'
p166
S'[[adj]]'
p167
tp168
F0.007518796992481203
s(S'[[det]]'
p169
S'member'
p170
S'of'
p171
tp172
F0.007518796992481203
s(S'formerly'
p173
S'served'
p174
S'at'
p175
tp176
F0.007518796992481203
s(S'had'
p177
S'served'
p178
S'with'
p179
tp180
F0.007518796992481203
s(S'[[con]]'
p181
S'served'
p182
S'at'
p183
tp184
F0.007518796992481203
s(S'again'
p185
S'served'
p186
S'to'
p187
tp188
F0.007518796992481203
s(S'had'
p189
S'served'
p190
S'at'
p191
tp192
F0.007518796992481203
s(S'later'
p193
S'served'
p194
S'[[adj]]'
p195
tp196
F0.007518796992481203
s(S'is'
p197
S'member'
p198
S'[[con]]'
p199
tp200
F0.007518796992481203
s(S'[[con]]'
p201
S'member'
p202
S'[[det]]'
p203
tp204
F0.007518796992481203
s(S'had'
p205
S'served'
p206
S'on'
p207
tp208
F0.007518796992481203
s(S'had'
p209
S'served'
p210
S'in'
p211
tp212
F0.007518796992481203
s(S'[[det]]'
p213
S'member'
p214
S'on'
p215
tp216
F0.007518796992481203
s(S'[[con]]'
p217
S'served'
p218
S'on'
p219
tp220
F0.007518796992481203
s(S'then'
p221
S'served'
p222
S'for'
p223
tp224
F0.007518796992481203
s(S'also'
p225
S'member'
p226
S'of'
p227
tp228
F0.007518796992481203
s(S'[[con]]'
p229
S'member'
p230
S'[[con]]'
p231
tp232
F0.007518796992481203
s(S'was'
p233
S'member'
p234
S'[[num]]'
p235
tp236
F0.007518796992481203
s(S'[[det]]'
p237
S'member'
p238
S'[[num]]'
p239
tp240
F0.007518796992481203
s(S'later'
p241
S'served'
p242
S'on'
p243
tp244
F0.007518796992481203
s(S'[[adj]]'
p245
S'served'
p246
S'on'
p247
tp248
F0.007518796992481203
s(S'[[adj]]'
p249
S'member'
p250
S'on'
p251
tp252
F0.007518796992481203
s(S'[[num]]'
p253
S'served'
p254
S'as'
p255
tp256
F0.007518796992481203
s(S'[[det]]'
p257
S'member'
p258
S'as'
p259
tp260
F0.007518796992481203
s(S'also'
p261
S'served'
p262
S'with'
p263
tp264
F0.007518796992481203
s(S'has'
p265
S'served'
p266
S'[[con]]'
p267
tp268
F0.007518796992481203
s(S'who'
p269
S'served'
p270
S'[[con]]'
p271
tp272
F0.007518796992481203
s(S'later'
p273
S'served'
p274
S'as'
p275
tp276
F0.007518796992481203
s(S'as'
p277
S'member'
p278
S'of'
p279
tp280
F0.007518796992481203
s(S'was'
p281
S'member'
p282
S'at'
p283
tp284
F0.007518796992481203
s(S'[[num]]'
p285
S'served'
p286
S'for'
p287
tp288
F0.007518796992481203
s(S'has'
p289
S'served'
p290
S'to'
p291
tp292
F0.007518796992481203
s(S'later'
p293
S'served'
p294
S'[[con]]'
p295
tp296
F0.007518796992481203
s(S'became'
p297
S'member'
p298
S'for'
p299
tp300
F0.007518796992481203
s(S'formerly'
p301
S'served'
p302
S'for'
p303
tp304
F0.007518796992481203
s(S'[[adj]]'
p305
S'member'
p306
S'[[con]]'
p307
tp308
F0.007518796992481203
s(S'[[adj]]'
p309
S'member'
p310
S'[[adj]]'
p311
tp312
F0.007518796992481203
s(S'then'
p313
S'served'
p314
S'before'
p315
tp316
F0.007518796992481203
s(S'twice'
p317
S'served'
p318
S'as'
p319
tp320
F0.007518796992481203
s(S'has'
p321
S'served'
p322
S'[[adj]]'
p323
tp324
F0.007518796992481203
s(S'also'
p325
S'served'
p326
S'for'
p327
tp328
F0.007518796992481203
s(S'[[det]]'
p329
S'member'
p330
S'[[con]]'
p331
tp332
F0.007518796992481203
s(S'where'
p333
S'served'
p334
S'with'
p335
tp336
F0.007518796992481203
s(S'also'
p337
S'served'
p338
S'[[con]]'
p339
tp340
F0.007518796992481203
s(S'again'
p341
S'served'
p342
S'with'
p343
tp344
F0.007518796992481203
s(S'[[det]]'
p345
S'member'
p346
S's'
p347
tp348
F0.007518796992481203
s(S'[[det]]'
p349
S'member'
p350
S'has'
p351
tp352
F0.007518796992481203
s(S'also'
p353
S'served'
p354
S'until'
p355
tp356
F0.007518796992481203
s(S'has'
p357
S'served'
p358
S'in'
p359
tp360
F0.007518796992481203
s(S'also'
p361
S'served'
p362
S'[[det]]'
p363
tp364
F0.007518796992481203
s(S'was'
p365
S'member'
p366
S'for'
p367
tp368
F0.007518796992481203
s(S'[[adj]]'
p369
S'served'
p370
S'as'
p371
tp372
F0.007518796992481203
s(S'became'
p373
S'member'
p374
S'[[det]]'
p375
tp376
F0.007518796992481203
s(S'where'
p377
S'served'
p378
S'in'
p379
tp380
F0.007518796992481203
s(S'has'
p381
S'served'
p382
S'at'
p383
tp384
F0.007518796992481203
s(S'who'
p385
S'served'
p386
S'as'
p387
tp388
F0.007518796992481203
s(S'then'
p389
S'served'
p390
S'at'
p391
tp392
F0.007518796992481203
s(S'has'
p393
S'served'
p394
S'on'
p395
tp396
F0.007518796992481203
s(S'also'
p397
S'served'
p398
S'as'
p399
tp400
F0.007518796992481203
s(S'then'
p401
S'served'
p402
S'in'
p403
tp404
F0.007518796992481203
s(S'later'
p405
S'served'
p406
S'for'
p407
tp408
F0.007518796992481203
s(S'was'
p409
S'member'
p410
S'[[det]]'
p411
tp412
F0.007518796992481203
s(S'was'
p413
S'member'
p414
S'of'
p415
tp416
F0.007518796992481203
s(S'[[adj]]'
p417
S'member'
p418
S'as'
p419
tp420
F0.007518796992481203
s(S'[[adj]]'
p421
S'member'
p422
S'from'
p423
tp424
F0.007518796992481203
s(S'[[det]]'
p425
S'member'
p426
S'to'
p427
tp428
F0.007518796992481203
s(S'[[det]]'
p429
S'member'
p430
S'for'
p431
tp432
F0.007518796992481203
s(S'has'
p433
S'served'
p434
S'before'
p435
tp436
F0.007518796992481203
s(S'is'
p437
S'member'
p438
S'of'
p439
tp440
F0.007518796992481203
s(S'then'
p441
S'served'
p442
S'to'
p443
tp444
F0.007518796992481203
s(S'also'
p445
S'served'
p446
S'from'
p447
tp448
F0.007518796992481203
s(S'first'
p449
S'served'
p450
S'in'
p451
tp452
F0.007518796992481203
s(S'is'
p453
S'member'
p454
S'[[det]]'
p455
tp456
F0.007518796992481203
s(S'[[num]]'
p457
S'served'
p458
S'in'
p459
tp460
F0.007518796992481203
s(S'had'
p461
S'served'
p462
S'as'
p463
tp464
F0.007518796992481203
s(S'has'
p465
S'served'
p466
S'until'
p467
tp468
F0.007518796992481203
s(S'also'
p469
S'served'
p470
S'on'
p471
tp472
F0.007518796992481203
s(S'first'
p473
S'served'
p474
S'with'
p475
tp476
F0.007518796992481203
s(S'was'
p477
S'member'
p478
S'in'
p479
tp480
F0.007518796992481203
s(S'has'
p481
S'served'
p482
S'[[det]]'
p483
tp484
F0.007518796992481203
s(S'then'
p485
S'served'
p486
S'on'
p487
tp488
F0.007518796992481203
s(S'later'
p489
S'served'
p490
S'in'
p491
tp492
F0.007518796992481203
s(S'has'
p493
S'served'
p494
S'with'
p495
tp496
F0.007518796992481203
s(S'later'
p497
S'served'
p498
S'at'
p499
tp500
F0.007518796992481203
s(S'[[pro]]'
p501
S'served'
p502
S'in'
p503
tp504
F0.007518796992481203
s(S'then'
p505
S'served'
p506
S'[[det]]'
p507
tp508
F0.007518796992481203
s(S'became'
p509
S'member'
p510
S'of'
p511
tp512
F0.007518796992481203
s(S'also'
p513
S'served'
p514
S'to'
p515
tp516
F0.007518796992481203
s(S'[[num]]'
p517
S'served'
p518
S'on'
p519
tp520
F0.007518796992481203
s(S'[[con]]'
p521
S'member'
p522
S'of'
p523
tp524
F0.007518796992481203
s(S'[[adj]]'
p525
S'member'
p526
S'for'
p527
tp528
F0.007518796992481203
s(S'also'
p529
S'served'
p530
S'of'
p531
tp532
F0.007518796992481203
s.