(dp0
(S'is'
p1
S'typically'
p2
S'[[adj]]'
p3
tp4
F0.010869565217391304
s(S'school'
p5
S'[[det]]'
p6
S'located'
p7
tp8
F0.010869565217391304
s(S'located'
p9
S'in'
p10
S'[[det]]'
p11
tp12
F0.010869565217391304
s(S'[[det]]'
p13
S'school'
p14
S'located'
p15
tp16
F0.021739130434782608
s(S'what'
p17
S'today'
p18
S'[[det]]'
p19
tp20
F0.021739130434782608
s(S'became'
p21
S'[[adj]]'
p22
S'producer'
p23
tp24
F0.010869565217391304
s(g6
g7
S'in'
p25
tp26
F0.021739130434782608
s(S'[[det]]'
p27
S'largest'
p28
S'[[adj]]'
p29
tp30
F0.021739130434782608
s(S'as'
p31
S'portions'
p32
S'of'
p33
tp34
F0.010869565217391304
s(S'[[adj]]'
p35
S'school'
p36
S'[[det]]'
p37
tp38
F0.021739130434782608
s(S'number'
p39
S'[[det]]'
p40
S'rest'
p41
tp42
F0.010869565217391304
s(S'is'
p43
S'located'
p44
S'[[det]]'
p45
tp46
F0.010869565217391304
s(g2
g3
S'states'
p47
tp48
F0.010869565217391304
s(S'[[adj]]'
p49
S'schools'
p50
S'in'
p51
tp52
F0.010869565217391304
s(S'grades'
p53
S'[[num]]'
p54
S'located'
p55
tp56
F0.010869565217391304
s(S'[[adj]]'
p57
S'neighborhood'
p58
S'in'
p59
tp60
F0.010869565217391304
s(S's'
p61
S'located'
p62
S'near'
p63
tp64
F0.010869565217391304
s(S'[[adj]]'
p65
S'known'
p66
S'[[det]]'
p67
tp68
F0.010869565217391304
s(S'[[adj]]'
p69
S'school'
p70
S'located'
p71
tp72
F0.06521739130434782
s(g18
g19
S'states'
p73
tp74
F0.021739130434782608
s(g73
g31
g32
tp75
F0.010869565217391304
s(S'had'
p76
S'added'
p77
S'[[det]]'
p78
tp79
F0.021739130434782608
s(S'[[adj]]'
p80
S'school'
p81
S'in'
p82
tp83
F0.03260869565217391
s(S'[[adj]]'
p84
S'largest'
p85
S'[[adj]]'
p86
tp87
F0.010869565217391304
s(S'[[adj]]'
p88
S'school'
p89
g53
tp90
F0.021739130434782608
s(S'miles'
p91
S'including'
p92
g17
tp93
F0.021739130434782608
s(S'contained'
p94
S'[[num]]'
p95
S'states'
p96
tp97
F0.010869565217391304
s(g92
g17
g18
tp98
F0.021739130434782608
s(S'school'
p99
S'located'
p100
S'in'
p101
tp102
F0.043478260869565216
s(S'[[num]]'
p103
S'schools'
p104
S'in'
p105
tp106
F0.010869565217391304
s(g96
S'[[con]]'
p107
S'[[adj]]'
p108
tp109
F0.010869565217391304
s(S'school'
p110
S'located'
p111
S'near'
p112
tp113
F0.010869565217391304
s(S'[[det]]'
p114
g39
g40
tp115
F0.010869565217391304
s(g54
g55
S'in'
p116
tp117
F0.010869565217391304
s(S'school'
p118
S'located'
p119
S'at'
p120
tp121
F0.010869565217391304
s(g40
g41
S'to'
p122
tp123
F0.010869565217391304
s(g10
g11
S'community'
p124
tp125
F0.010869565217391304
s(S'quickly'
p126
g21
g22
tp127
F0.010869565217391304
s(g77
g78
S'[[adj]]'
p128
tp129
F0.021739130434782608
s(S'is'
p130
S'located'
p131
S'in'
p132
tp133
F0.010869565217391304
s(S'[[det]]'
p134
S'school'
p135
S'in'
p136
tp137
F0.010869565217391304
s(g85
g86
S'school'
p138
tp139
F0.03260869565217391
s(g11
g124
S'of'
p140
tp141
F0.010869565217391304
s(S'was'
p142
S'located'
p143
S'in'
p144
tp145
F0.010869565217391304
s(S'[[adj]]'
p146
S'located'
p147
S'at'
p148
tp149
F0.010869565217391304
s(S'school'
p150
S'situated'
p151
S'in'
p152
tp153
F0.010869565217391304
s(S'[[det]]'
p154
S'states'
p155
S'of'
p156
tp157
F0.010869565217391304
s(g95
g96
g107
tp158
F0.010869565217391304
s(g128
g91
g92
tp159
F0.021739130434782608
s(S'been'
p160
S'located'
p161
S'in'
p162
tp163
F0.010869565217391304
s(g66
g67
S'frontier'
p164
tp165
F0.010869565217391304
s(g89
g53
g54
tp166
F0.021739130434782608
s(S'[[adj]]'
p167
S'located'
p168
S'in'
p169
tp170
F0.010869565217391304
s(g107
g108
S'territories'
p171
tp172
F0.010869565217391304
s(S'[[adj]]'
p173
g150
g151
tp174
F0.021739130434782608
s(S'[[adj]]'
p175
S'election'
p176
S'in'
p177
tp178
F0.010869565217391304
s(S'currently'
p179
S'located'
p180
S'in'
p181
tp182
F0.010869565217391304
s(g19
g73
g31
tp183
F0.010869565217391304
s(S'[[con]]'
p184
S'located'
p185
S'in'
p186
tp187
F0.010869565217391304
s(g22
g23
S'with'
p188
tp189
F0.010869565217391304
s(S'[[adj]]'
p190
S'school'
p191
S'on'
p192
tp193
F0.010869565217391304
s(g70
g71
S'on'
p194
tp195
F0.021739130434782608
s(g78
g128
g91
tp196
F0.021739130434782608
s(S'[[adj]]'
p197
S'school'
p198
S'near'
p199
tp200
F0.010869565217391304
s.