(dp0
(S'video'
p1
S'game'
p2
S'that'
p3
tp4
F0.004301075268817204
s(S'was'
p5
S'sold'
p6
S'[[con]]'
p7
tp8
F0.002150537634408602
s(S'[[det]]'
p9
S'game'
p10
S'by'
p11
tp12
F0.002150537634408602
s(S'[[con]]'
p13
S'published'
p14
S'in'
p15
tp16
F0.002150537634408602
s(S'[[adj]]'
p17
S'game'
p18
S'show'
p19
tp20
F0.002150537634408602
s(S'[[con]]'
p21
S'was'
p22
S'released'
p23
tp24
F0.002150537634408602
s(S'published'
p25
S'[[con]]'
p26
S'developed'
p27
tp28
F0.002150537634408602
s(S'[[det]]'
p29
S'action'
p30
S'video'
p31
tp32
F0.002150537634408602
s(S'[[adj]]'
p33
S'game'
p34
S'that'
p35
tp36
F0.002150537634408602
s(S'is'
p37
S'published'
p38
S'at'
p39
tp40
F0.002150537634408602
s(S'[[con]]'
p41
S'was'
p42
S'published'
p43
tp44
F0.004301075268817204
s(S'[[adj]]'
p45
S'game'
p46
S'published'
p47
tp48
F0.002150537634408602
s(S'run'
p49
S'[[con]]'
p50
S'video'
p51
tp52
F0.002150537634408602
s(S'is'
p53
S'developed'
p54
S'[[con]]'
p55
tp56
F0.002150537634408602
s(S'be'
p57
S'sold'
p58
S'in'
p59
tp60
F0.002150537634408602
s(S'computer'
p61
S'game'
p62
S'published'
p63
tp64
F0.002150537634408602
s(S'[[det]]'
p65
S'developed'
p66
S'[[con]]'
p67
tp68
F0.002150537634408602
s(S'action'
p69
S'game'
p70
S'developed'
p71
tp72
F0.002150537634408602
s(S'is'
p73
S'[[det]]'
p74
S'video'
p75
tp76
F0.004301075268817204
s(S'sports'
p77
S'video'
p78
S'game'
p79
tp80
F0.002150537634408602
s(S'is'
p81
S'played'
p82
S'between'
p83
tp84
F0.002150537634408602
s(S'been'
p85
S'developed'
p86
S'by'
p87
tp88
F0.002150537634408602
s(S'[[adj]]'
p89
S'game'
p90
S'between'
p91
tp92
F0.002150537634408602
s(S'puzzle'
p93
S'video'
p94
S'game'
p95
tp96
F0.004301075268817204
s(S'puzzle'
p97
S'game'
p98
S'developed'
p99
tp100
F0.002150537634408602
s(g30
g31
S'game'
p101
tp102
F0.002150537634408602
s(S'were'
p103
S'released'
p104
S'by'
p105
tp106
F0.002150537634408602
s(S'actionadventure'
p107
S'video'
p108
S'game'
p109
tp110
F0.008602150537634409
s(S'racing'
p111
S'game'
p112
S'developed'
p113
tp114
F0.002150537634408602
s(S'currently'
p115
S'owned'
p116
S'by'
p117
tp118
F0.002150537634408602
s(S'was'
p119
S'sold'
p120
S'[[det]]'
p121
tp122
F0.002150537634408602
s(S'[[adj]]'
p123
S'published'
p124
S'by'
p125
tp126
F0.002150537634408602
s(S'be'
p127
S'sold'
p128
S'to'
p129
tp130
F0.002150537634408602
s(S'is'
p131
S'played'
p132
S'in'
p133
tp134
F0.002150537634408602
s(S'is'
p135
S'released'
p136
S'by'
p137
tp138
F0.002150537634408602
s(S'adventure'
p139
S'video'
p140
S'game'
p141
tp142
F0.002150537634408602
s(S'[[det]]'
p143
g97
g98
tp144
F0.002150537634408602
s(S'was'
p145
S'released'
p146
S'by'
p147
tp148
F0.0064516129032258064
s(S'created'
p149
S'[[con]]'
p150
S'released'
p151
tp152
F0.002150537634408602
s(S'[[con]]'
p153
S'released'
p154
S'by'
p155
tp156
F0.008602150537634409
s(S'originally'
p157
S'published'
p158
S'by'
p159
tp160
F0.002150537634408602
s(S'for'
p161
S'[[det]]'
p162
S'released'
p163
tp164
F0.002150537634408602
s(S'later'
p165
S'published'
p166
S'by'
p167
tp168
F0.002150537634408602
s(S'[[det]]'
p169
g107
g108
tp170
F0.004301075268817204
s(S'was'
p171
S'sold'
p172
S'off'
p173
tp174
F0.002150537634408602
s(S'[[con]]'
p175
S'is'
p176
S'published'
p177
tp178
F0.002150537634408602
s(S'was'
p179
S'produced'
p180
S'from'
p181
tp182
F0.002150537634408602
s(S'also'
p183
S'published'
p184
S'by'
p185
tp186
F0.002150537634408602
s(S'is'
p187
S'produced'
p188
S'by'
p189
tp190
F0.002150537634408602
s(S'magazine'
p191
S'published'
p192
S'by'
p193
tp194
F0.0064516129032258064
s(S'[[adj]]'
p195
S'published'
p196
S'[[con]]'
p197
tp198
F0.002150537634408602
s(S'[[adj]]'
p199
S'developed'
p200
S'[[con]]'
p201
tp202
F0.002150537634408602
s(S'was'
p203
S'owned'
p204
S'by'
p205
tp206
F0.002150537634408602
s(S'[[det]]'
p207
S'action'
p208
S'[[adj]]'
p209
tp210
F0.004301075268817204
s(S'is'
p211
S'sold'
p212
S'by'
p213
tp214
F0.002150537634408602
s(S'published'
p215
S'which'
p216
S'is'
p217
tp218
F0.002150537634408602
s(S'[[adj]]'
p219
S'strategy'
p220
S'game'
p221
tp222
F0.004301075268817204
s(S'game'
p223
S'produced'
p224
S'by'
p225
tp226
F0.0064516129032258064
s(S'[[adj]]'
p227
g139
g140
tp228
F0.002150537634408602
s(S'[[adj]]'
p229
S'shooter'
p230
S'video'
p231
tp232
F0.004301075268817204
s(S'that'
p233
S'was'
p234
S'developed'
p235
tp236
F0.002150537634408602
s(S'journal'
p237
S'published'
p238
S'[[adj]]'
p239
tp240
F0.002150537634408602
s(S'be'
p241
S'sold'
p242
S'by'
p243
tp244
F0.002150537634408602
s(S'[[adj]]'
p245
S'magazine'
p246
S'published'
p247
tp248
F0.002150537634408602
s(S'racing'
p249
S'video'
p250
S'game'
p251
tp252
F0.0064516129032258064
s(S'[[num]]'
p253
S'played'
p254
S'between'
p255
tp256
F0.002150537634408602
s(S'console'
p257
S'[[adj]]'
p258
S'game'
p259
tp260
F0.004301075268817204
s(S'firstperson'
p261
S'shooter'
p262
S'video'
p263
tp264
F0.0064516129032258064
s(S'being'
p265
S'sold'
p266
S'in'
p267
tp268
F0.002150537634408602
s(S'[[adj]]'
p269
S'sold'
p270
S'in'
p271
tp272
F0.002150537634408602
s(S'[[adj]]'
p273
S'developed'
p274
S'by'
p275
tp276
F0.002150537634408602
s(S'was'
p277
S'released'
p278
S'[[con]]'
p279
tp280
F0.004301075268817204
s(S'[[det]]'
p281
S'owned'
p282
S'by'
p283
tp284
F0.002150537634408602
s(S'was'
p285
S'contested'
p286
S'by'
p287
tp288
F0.002150537634408602
s(S'[[adj]]'
p289
S'card'
p290
S'game'
p291
tp292
F0.002150537634408602
s(S'founded'
p293
g175
g176
tp294
F0.002150537634408602
s(S'[[con]]'
p295
S'owned'
p296
S'by'
p297
tp298
F0.002150537634408602
s(S'[[adj]]'
p299
S'journal'
p300
S'published'
p301
tp302
F0.004301075268817204
s(S'now'
p303
S'owned'
p304
S'by'
p305
tp306
F0.002150537634408602
s(S'been'
p307
S'published'
p308
S'by'
p309
tp310
F0.002150537634408602
s(S'were'
p311
S'sold'
p312
S'to'
p313
tp314
F0.002150537634408602
s(S'formerly'
p315
S'owned'
p316
S'by'
p317
tp318
F0.002150537634408602
s(S'being'
p319
S'developed'
p320
S'by'
p321
tp322
F0.002150537634408602
s(S'is'
p323
S'owned'
p324
S'[[num]]'
p325
tp326
F0.004301075268817204
s(S'been'
p327
S'sold'
p328
S'in'
p329
tp330
F0.002150537634408602
s(S'game'
p331
S'developed'
p332
S'[[con]]'
p333
tp334
F0.053763440860215055
s(g300
g301
S'by'
p335
tp336
F0.002150537634408602
s(S'was'
p337
S'played'
p338
S'on'
p339
tp340
F0.002150537634408602
s(S'later'
p341
S'released'
p342
S'in'
p343
tp344
F0.002150537634408602
s(S'[[adj]]'
p345
S'strategy'
p346
S'computer'
p347
tp348
F0.004301075268817204
s(S'[[det]]'
p349
S'game'
p350
S'released'
p351
tp352
F0.002150537634408602
s(S'was'
p353
S'published'
p354
S'[[adj]]'
p355
tp356
F0.002150537634408602
s(S'been'
p357
S'owned'
p358
S'by'
p359
tp360
F0.002150537634408602
s(S'[[adj]]'
p361
S'game'
p362
S'released'
p363
tp364
F0.002150537634408602
s(S'[[adj]]'
p365
S'game'
p366
S'by'
p367
tp368
F0.002150537634408602
s(S'[[det]]'
p369
g249
g250
tp370
F0.0064516129032258064
s(S'arcade'
p371
S'game'
p372
S'created'
p373
tp374
F0.002150537634408602
s(S'is'
p375
S'published'
p376
S'[[con]]'
p377
tp378
F0.002150537634408602
s(g287
S'[[det]]'
p379
S'defending'
p380
tp381
F0.002150537634408602
s(S'was'
p382
S'developed'
p383
g41
tp384
F0.012903225806451613
s(g379
g380
S'champion'
p385
tp386
F0.002150537634408602
s(S'game'
p387
g161
g162
tp388
F0.002150537634408602
s(S'were'
p389
S'sold'
p390
S'off'
p391
tp392
F0.002150537634408602
s(g258
g259
S'developed'
p393
tp394
F0.015053763440860216
s(S'are'
p395
S'owned'
p396
S'by'
p397
tp398
F0.002150537634408602
s(S'[[adj]]'
p399
g111
g112
tp400
F0.002150537634408602
s(g383
g41
g42
tp401
F0.004301075268817204
s(S'was'
p402
S'sold'
p403
S'by'
p404
tp405
F0.002150537634408602
s(g333
S'published'
p406
S'by'
p407
tp408
F0.07311827956989247
s(S'[[adj]]'
p409
S'publication'
p410
S'[[det]]'
p411
tp412
F0.002150537634408602
s(S'developed'
p413
g153
g154
tp414
F0.004301075268817204
s(S'was'
p415
g293
g175
tp416
F0.002150537634408602
s(S'video'
p417
S'game'
p418
S'developed'
p419
tp420
F0.05806451612903226
s(g251
S'released'
p421
S'by'
p422
tp423
F0.012903225806451613
s(S'were'
p424
S'produced'
p425
S'by'
p426
tp427
F0.002150537634408602
s(S'is'
p428
S'published'
p429
S'by'
p430
tp431
F0.004301075268817204
s(S'game'
p432
S'developed'
p433
S'by'
p434
tp435
F0.05806451612903226
s(S'not'
p436
S'owned'
p437
S'by'
p438
tp439
F0.002150537634408602
s(S'[[det]]'
p440
g261
g262
tp441
F0.0064516129032258064
s(S'known'
p442
g73
g74
tp443
F0.004301075268817204
s(S'been'
p444
S'played'
p445
S'at'
p446
tp447
F0.002150537634408602
s(S'[[det]]'
p448
g77
g78
tp449
F0.002150537634408602
s(g208
g209
S'game'
p450
tp451
F0.004301075268817204
s(S'were'
p452
S'published'
p453
S'by'
p454
tp455
F0.002150537634408602
s(S'strategy'
p456
S'video'
p457
S'game'
p458
tp459
F0.002150537634408602
s(S'[[det]]'
p460
S'publication'
p461
S'of'
p462
tp463
F0.002150537634408602
s(S'[[det]]'
p464
S'video'
p465
S'game'
p466
tp467
F0.025806451612903226
s(S'video'
p468
g387
g161
tp469
F0.002150537634408602
s(S'[[det]]'
p470
S'adventure'
p471
S'game'
p472
tp473
F0.002150537634408602
s(S'[[det]]'
p474
g69
g70
tp475
F0.002150537634408602
s(S'was'
p476
S'sold'
p477
S'to'
p478
tp479
F0.002150537634408602
s(g278
g279
S'developed'
p480
tp481
F0.002150537634408602
s(S'[[det]]'
p482
S'sports'
p483
S'game'
p484
tp485
F0.004301075268817204
s(g483
g484
S'developed'
p486
tp487
F0.004301075268817204
s(S'[[num]]'
p488
S'produced'
p489
S'by'
p490
tp491
F0.002150537634408602
s(S'owned'
p492
S'[[con]]'
p493
S'published'
p494
tp495
F0.002150537634408602
s(S'[[det]]'
p496
S'game'
p497
S'that'
p498
tp499
F0.002150537634408602
s(g216
g217
S'owned'
p500
tp501
F0.002150537634408602
s(S'video'
p502
S'game'
p503
S'by'
p504
tp505
F0.0064516129032258064
s(S'computer'
p506
g331
g332
tp507
F0.012903225806451613
s(S'was'
p508
S'sold'
p509
S'for'
p510
tp511
F0.002150537634408602
s(g234
g235
S'by'
p512
tp513
F0.004301075268817204
s(S'[[adj]]'
p514
S'series'
p515
S'between'
p516
tp517
F0.002150537634408602
s(g230
g231
g432
tp518
F0.012903225806451613
s(g290
g291
S'published'
p519
tp520
F0.002150537634408602
s(S'written'
p521
S'[[con]]'
p522
S'published'
p523
tp524
F0.002150537634408602
s(S'is'
p525
S'published'
p526
S'[[adj]]'
p527
tp528
F0.002150537634408602
s(S'[[det]]'
p529
g191
g192
tp530
F0.002150537634408602
s(S'video'
p531
g223
g224
tp532
F0.004301075268817204
s(S'[[adj]]'
p533
S'edition'
p534
S'[[num]]'
p535
tp536
F0.002150537634408602
s(g50
g51
S'game'
p537
tp538
F0.002150537634408602
s(g162
g163
S'by'
p539
tp540
F0.002150537634408602
s(g332
g333
g406
tp541
F0.06451612903225806
s(S'being'
p542
S'produced'
p543
S'by'
p544
tp545
F0.002150537634408602
s(S'also'
p546
S'sold'
p547
S'[[adj]]'
p548
tp549
F0.002150537634408602
s(g346
g347
S'game'
p550
tp551
F0.004301075268817204
s(S'was'
p552
S'published'
p553
S'from'
p554
tp555
F0.002150537634408602
s(S'was'
p556
S'announced'
p557
S'by'
p558
tp559
F0.002150537634408602
s(S'was'
p560
S'published'
p561
S'as'
p562
tp563
F0.002150537634408602
s(S'still'
p564
S'owned'
p565
S'by'
p566
tp567
F0.002150537634408602
s(S'was'
p568
g157
g158
tp569
F0.002150537634408602
s(S'[[adj]]'
p570
S'video'
p571
S'game'
p572
tp573
F0.008602150537634409
s(S'is'
p574
S'owned'
p575
S'[[con]]'
p576
tp577
F0.004301075268817204
s(S'was'
p578
S'played'
p579
S'between'
p580
tp581
F0.002150537634408602
s(g372
g373
S'by'
p582
tp583
F0.002150537634408602
s(S'is'
p584
S'published'
p585
S'with'
p586
tp587
F0.002150537634408602
s(S'[[det]]'
p588
S'card'
p589
S'game'
p590
tp591
F0.002150537634408602
s(S'[[det]]'
p592
S'sciencefiction'
p593
S'[[adj]]'
p594
tp595
F0.002150537634408602
s(S'wrestling'
p596
S'video'
p597
S'game'
p598
tp599
F0.002150537634408602
s(S'released'
p600
S'[[con]]'
p601
S'was'
p602
tp603
F0.002150537634408602
s(S'still'
p604
S'played'
p605
S'in'
p606
tp607
F0.002150537634408602
s(g3
g145
g146
tp608
F0.004301075268817204
s(g250
g251
g421
tp609
F0.008602150537634409
s(S'[[adj]]'
p610
S'played'
p611
S'at'
p612
tp613
F0.002150537634408602
s(S'[[adj]]'
p614
g596
g597
tp615
F0.002150537634408602
s(S'was'
p616
S'produced'
p617
S'at'
p618
tp619
F0.002150537634408602
s(g26
g27
S'by'
p620
tp621
F0.004301075268817204
s(S'was'
p622
S'developed'
p623
S'published'
p624
tp625
F0.002150537634408602
s(S'[[det]]'
p626
S'produced'
p627
S'by'
p628
tp629
F0.002150537634408602
s(S'be'
p630
S'produced'
p631
S'by'
p632
tp633
F0.002150537634408602
s(S'was'
p634
S'played'
p635
S'with'
p636
tp637
F0.002150537634408602
s(S'was'
p638
S'published'
p639
S'by'
p640
tp641
F0.0064516129032258064
s(g623
g624
S'by'
p642
tp643
F0.002150537634408602
s(S'was'
p644
S'played'
p645
S'against'
p646
tp647
F0.002150537634408602
s(S'[[det]]'
p648
g506
g331
tp649
F0.0064516129032258064
s(S'created'
p650
S'[[con]]'
p651
S'published'
p652
tp653
F0.004301075268817204
s(g220
g221
S'developed'
p654
tp655
F0.004301075268817204
s(S'[[adj]]'
p656
g456
g457
tp657
F0.002150537634408602
s(S'[[adj]]'
p658
S'game'
p659
S'produced'
p660
tp661
F0.002150537634408602
s(S'[[adj]]'
p662
S'publication'
p663
S'of'
p664
tp665
F0.002150537634408602
s(S'[[adj]]'
p666
g49
g50
tp667
F0.002150537634408602
s(S'also'
p668
S'owned'
p669
S'by'
p670
tp671
F0.002150537634408602
s(S'is'
p672
S'owned'
p673
S'by'
p674
tp675
F0.002150537634408602
s(g593
g594
S'game'
p676
tp677
F0.002150537634408602
s(g589
g590
S'created'
p678
tp679
F0.002150537634408602
s(g590
g678
S'[[con]]'
p680
tp681
F0.002150537634408602
s(S'[[det]]'
p682
S'game'
p683
S'developed'
p684
tp685
F0.004301075268817204
s(S'was'
p686
g650
g651
tp687
F0.004301075268817204
s(S'be'
p688
S'released'
p689
S'by'
p690
tp691
F0.002150537634408602
s(S'also'
p692
S'released'
p693
S'by'
p694
tp695
F0.002150537634408602
s(S'later'
p696
S'released'
p697
S'by'
p698
tp699
F0.002150537634408602
s(g286
g287
g379
tp700
F0.002150537634408602
s(S'being'
p701
S'sold'
p702
S'to'
p703
tp704
F0.002150537634408602
s(S'was'
p705
g25
g26
tp706
F0.004301075268817204
s(S'was'
p707
S'played'
p708
S'at'
p709
tp710
F0.002150537634408602
s(S'was'
p711
g521
g522
tp712
F0.002150537634408602
s(g471
g472
S'developed'
p713
tp714
F0.002150537634408602
s(g465
g466
S'published'
p715
tp716
F0.002150537634408602
s(S'[[det]]'
p717
g257
g258
tp718
F0.004301075268817204
s(S'[[num]]'
p719
S'video'
p720
S'game'
p721
tp722
F0.002150537634408602
s(g466
g715
S'by'
p723
tp724
F0.010752688172043012
s(S'is'
p725
S'developed'
p726
S'by'
p727
tp728
F0.002150537634408602
s(S'[[det]]'
p729
S'game'
p730
S'show'
p731
tp732
F0.002150537634408602
s(S'[[det]]'
p733
g93
g94
tp734
F0.004301075268817204
s(S'is'
p735
g215
g216
tp736
F0.002150537634408602
s(S'also'
p737
S'sold'
p738
S'by'
p739
tp740
F0.002150537634408602
s(g2
g3
g145
tp741
F0.0064516129032258064
s(S'[[num]]'
p742
S'computer'
p743
S'game'
p744
tp745
F0.004301075268817204
s.