(dp0
(S'been'
p1
S'recorded'
p2
S'from'
p3
tp4
F0.08333333333333333
s(S'were'
p5
S'recorded'
p6
S'in'
p7
tp8
F0.08333333333333333
s(S'was'
p9
S'recorded'
p10
S'at'
p11
tp12
F0.08333333333333333
s(S'also'
p13
S'recorded'
p14
S'in'
p15
tp16
F0.08333333333333333
s(S'was'
p17
S'recorded'
p18
S'during'
p19
tp20
F0.08333333333333333
s(S'was'
p21
S'recorded'
p22
S'[[num]]'
p23
tp24
F0.08333333333333333
s(S'was'
p25
S'recorded'
p26
S'for'
p27
tp28
F0.08333333333333333
s(S'was'
p29
S'recorded'
p30
S'on'
p31
tp32
F0.08333333333333333
s(S'was'
p33
S'recorded'
p34
S'[[det]]'
p35
tp36
F0.08333333333333333
s(S'was'
p37
S'recorded'
p38
S'[[con]]'
p39
tp40
F0.08333333333333333
s(S'was'
p41
S'recorded'
p42
S'[[adj]]'
p43
tp44
F0.08333333333333333
s(S'was'
p45
S'recorded'
p46
S'in'
p47
tp48
F0.08333333333333333
s.