(dp0
(S'[[adj]]'
p1
S'albums'
p2
S'as'
p3
tp4
F0.0005627462014631402
s(S'[[adj]]'
p5
S'release'
p6
S'for'
p7
tp8
F0.0005627462014631402
s(S'[[det]]'
p9
S'album'
p10
S'with'
p11
tp12
F0.0005627462014631402
s(S'remastered'
p13
S'[[con]]'
p14
S'reissued'
p15
tp16
F0.0005627462014631402
s(S'[[con]]'
p17
S'was'
p18
S'released'
p19
tp20
F0.0039392234102419805
s(S'[[con]]'
p21
S'switched'
p22
S'to'
p23
tp24
F0.0005627462014631402
s(S'released'
p25
S'with'
p26
S'[[adj]]'
p27
tp28
F0.0005627462014631402
s(S'was'
p29
S'transferred'
p30
S'by'
p31
tp32
F0.0005627462014631402
s(S'[[con]]'
p33
S'received'
p34
S'from'
p35
tp36
F0.0005627462014631402
s(S'has'
p37
S'worked'
p38
S'[[num]]'
p39
tp40
F0.0005627462014631402
s(S'[[adj]]'
p41
S'albums'
p42
S'on'
p43
tp44
F0.0011254924029262803
s(S'[[adj]]'
p45
S'debut'
p46
S'in'
p47
tp48
F0.0005627462014631402
s(S'album'
p49
S'by'
p50
S'thrash'
p51
tp52
F0.0005627462014631402
s(S'be'
p53
S'assigned'
p54
S'to'
p55
tp56
F0.0005627462014631402
s(S'signed'
p57
S'[[det]]'
p58
S'recording'
p59
tp60
F0.0005627462014631402
s(S'first'
p61
S'played'
p62
S'at'
p63
tp64
F0.0005627462014631402
s(S'also'
p65
S'signed'
p66
S'for'
p67
tp68
F0.0005627462014631402
s(S'record'
p69
S'deal'
p70
S'with'
p71
tp72
F0.0028137310073157004
s(S'was'
p73
S'joined'
p74
S'in'
p75
tp76
F0.0005627462014631402
s(S'[[det]]'
p77
S'metal'
p78
S'band'
p79
tp80
F0.0005627462014631402
s(S'later'
p81
S'worked'
p82
S'to'
p83
tp84
F0.0005627462014631402
s(S'artist'
p85
S'released'
p86
S'on'
p87
tp88
F0.0005627462014631402
s(S'had'
p89
S'worked'
p90
S'as'
p91
tp92
F0.0005627462014631402
s(S'be'
p93
S'transferred'
p94
S'to'
p95
tp96
F0.0005627462014631402
s(S'not'
p97
S'offered'
p98
S'[[det]]'
p99
tp100
F0.0005627462014631402
s(S'[[adj]]'
p101
S'album'
p102
S'rock'
p103
tp104
F0.0005627462014631402
s(S'[[pro]]'
p105
S'joined'
p106
S'[[det]]'
p107
tp108
F0.0005627462014631402
s(S'had'
p109
S'signed'
p110
S'from'
p111
tp112
F0.0005627462014631402
s(S'[[adj]]'
p113
S'recording'
p114
S'for'
p115
tp116
F0.0005627462014631402
s(S'being'
p117
S'transferred'
p118
S'to'
p119
tp120
F0.0005627462014631402
s(S'[[con]]'
p121
S'worked'
p122
S'again'
p123
tp124
F0.0005627462014631402
s(S'group'
p125
S'released'
p126
S'by'
p127
tp128
F0.0005627462014631402
s(S'has'
p129
S'released'
p130
S'[[adj]]'
p131
tp132
F0.0005627462014631402
s(S'[[adj]]'
p133
S'released'
p134
S'by'
p135
tp136
F0.0028137310073157004
s(S'studio'
p137
S'album'
p138
S'singer'
p139
tp140
F0.0011254924029262803
s(S'then'
p141
S'received'
p142
S'[[con]]'
p143
tp144
F0.0005627462014631402
s(S'been'
p145
S'released'
p146
S'by'
p147
tp148
F0.0005627462014631402
s(S'was'
p149
S'released'
p150
S'on'
p151
tp152
F0.005064715813168261
s(S'has'
p153
S'worked'
p154
S'for'
p155
tp156
F0.0005627462014631402
s(S'solo'
p157
S'album'
p158
S'on'
p159
tp160
F0.0011254924029262803
s(S'[[det]]'
p161
S'album'
p162
S'as'
p163
tp164
F0.0005627462014631402
s(S'also'
p165
S'appeared'
p166
S'[[pro]]'
p167
tp168
F0.0005627462014631402
s(S'[[adj]]'
p169
g125
g126
tp170
F0.0005627462014631402
s(S'being'
p171
S'assigned'
p172
S'to'
p173
tp174
F0.0005627462014631402
s(S'was'
p175
S'signed'
p176
S'under'
p177
tp178
F0.0005627462014631402
s(S'album'
p179
S'by'
p180
S'recording'
p181
tp182
F0.0005627462014631402
s(S'be'
p183
S'leaving'
p184
S'[[det]]'
p185
tp186
F0.0005627462014631402
s(S'[[det]]'
p187
S'moved'
p188
S'to'
p189
tp190
F0.0005627462014631402
s(S'was'
p191
S'transferred'
p192
S'as'
p193
tp194
F0.0005627462014631402
s(S'not'
p195
S'leave'
p196
S'[[det]]'
p197
tp198
F0.0005627462014631402
s(S'later'
p199
S'signed'
p200
S'with'
p201
tp202
F0.0005627462014631402
s(S'was'
p203
S'released'
p204
S'from'
p205
tp206
F0.0005627462014631402
s(S'then'
p207
S'worked'
p208
S'before'
p209
tp210
F0.0005627462014631402
s(S'[[con]]'
p211
S'joined'
p212
S'during'
p213
tp214
F0.0005627462014631402
s(S'[[mod]]'
p215
S'sign'
p216
S'with'
p217
tp218
F0.0005627462014631402
s(S'then'
p219
S'left'
p220
S'to'
p221
tp222
F0.0005627462014631402
s(S'by'
p223
S'[[adj]]'
p224
S'rock'
p225
tp226
F0.0028137310073157004
s(S'was'
p227
S'returned'
p228
S'by'
p229
tp230
F0.0005627462014631402
s(S'had'
p231
S'received'
p232
S'in'
p233
tp234
F0.0005627462014631402
s(S'[[con]]'
p235
S'joined'
p236
S'[[det]]'
p237
tp238
F0.0005627462014631402
s(S'studio'
p239
S'album'
p240
S'with'
p241
tp242
F0.0005627462014631402
s(S'[[det]]'
p243
S'contract'
p244
S'[[con]]'
p245
tp246
F0.0005627462014631402
s(S'also'
p247
S'worked'
p248
S'[[con]]'
p249
tp250
F0.0005627462014631402
s(S'[[prp]]'
p251
S'debut'
p252
S'album'
p253
tp254
F0.0022509848058525606
s(S'also'
p255
S'worked'
p256
S'[[adj]]'
p257
tp258
F0.0005627462014631402
s(S'[[pro]]'
p259
S'worked'
p260
S'with'
p261
tp262
F0.0005627462014631402
s(S'when'
p263
S'moved'
p264
S'from'
p265
tp266
F0.0005627462014631402
s(S'formerly'
p267
S'worked'
p268
S'for'
p269
tp270
F0.0005627462014631402
s(S'released'
p271
S'[[num]]'
p272
S'more'
p273
tp274
F0.0005627462014631402
s(S'song'
p275
S'by'
p276
S'[[det]]'
p277
tp278
F0.0011254924029262803
s(S'[[con]]'
p279
S'leave'
p280
S'for'
p281
tp282
F0.0005627462014631402
s(S'compilation'
p283
S'album'
p284
S'by'
p285
tp286
F0.0016882386043894203
s(S'by'
p287
S'[[det]]'
p288
S'alternative'
p289
tp290
F0.0005627462014631402
s(S'was'
p291
S'founder'
p292
S'of'
p293
tp294
F0.0005627462014631402
s(S'[[num]]'
p295
S'founder'
p296
S'of'
p297
tp298
F0.0005627462014631402
s(S'[[det]]'
p299
S'joined'
p300
S'[[det]]'
p301
tp302
F0.0005627462014631402
s(S'took'
p303
S'[[prp]]'
p304
S'[[adj]]'
p305
tp306
F0.0005627462014631402
s(S'[[adj]]'
p307
S'record'
p308
S'in'
p309
tp310
F0.0005627462014631402
s(S'was'
p311
S'assigned'
p312
S'by'
p313
tp314
F0.0005627462014631402
s(S'then'
p315
S'joined'
p316
S'to'
p317
tp318
F0.0005627462014631402
s(S'was'
p319
S'released'
p320
S'[[con]]'
p321
tp322
F0.0022509848058525606
s(g288
g289
S'rock'
p323
tp324
F0.0011254924029262803
s(S'be'
p325
S'featured'
p326
S'in'
p327
tp328
F0.0005627462014631402
s(S'later'
p329
S'worked'
p330
S'as'
p331
tp332
F0.0005627462014631402
s(S'album'
p333
S'by'
p334
S'musician'
p335
tp336
F0.0005627462014631402
s(S'who'
p337
S'worked'
p338
S'for'
p339
tp340
F0.0005627462014631402
s(S'[[det]]'
p341
S'album'
p342
S'that'
p343
tp344
F0.0005627462014631402
s(S'released'
p345
S'by'
p346
S'power'
p347
tp348
F0.0005627462014631402
s(S'again'
p349
S'returned'
p350
S'[[con]]'
p351
tp352
F0.0005627462014631402
s(S'then'
p353
S'played'
p354
S'at'
p355
tp356
F0.0005627462014631402
s(S'was'
p357
S'returned'
p358
S'[[con]]'
p359
tp360
F0.0005627462014631402
s(S'released'
p361
g251
g252
tp362
F0.0022509848058525606
s(S'secured'
p363
S'[[det]]'
p364
S'record'
p365
tp366
F0.0005627462014631402
s(S'also'
p367
S'received'
p368
S'[[num]]'
p369
tp370
F0.0005627462014631402
s(S'[[adj]]'
p371
S'record'
p372
S'label'
p373
tp374
F0.0022509848058525606
s(S'also'
p375
S'received'
p376
S'in'
p377
tp378
F0.0005627462014631402
s(S'then'
p379
S'joined'
p380
S'[[adj]]'
p381
tp382
F0.0005627462014631402
s(S'founded'
p383
S'[[prp]]'
p384
S'[[adj]]'
p385
tp386
F0.0005627462014631402
s(S'later'
p387
S'moved'
p388
S'at'
p389
tp390
F0.0005627462014631402
s(S'album'
p391
S'released'
p392
S'in'
p393
tp394
F0.0016882386043894203
s(S'while'
p395
S'moved'
p396
S'to'
p397
tp398
F0.0005627462014631402
s(S'had'
p399
S'joined'
p400
S'from'
p401
tp402
F0.0005627462014631402
s(S'[[adj]]'
p403
S'album'
p404
S'recorded'
p405
tp406
F0.0005627462014631402
s(S'then'
p407
S'switched'
p408
S'to'
p409
tp410
F0.0005627462014631402
s(S'later'
p411
S'released'
p412
S'in'
p413
tp414
F0.0005627462014631402
s(S'[[con]]'
p415
S'received'
p416
S'[[det]]'
p417
tp418
F0.0005627462014631402
s(S'was'
p419
S'assigned'
p420
S'[[con]]'
p421
tp422
F0.0005627462014631402
s(S'that'
p423
S'starred'
p424
S'[[prp]]'
p425
tp426
F0.0005627462014631402
s(S'[[det]]'
p427
S'released'
p428
S'through'
p429
tp430
F0.0005627462014631402
s(S'[[num]]'
p431
S'debut'
p432
S'against'
p433
tp434
F0.0005627462014631402
s(S'been'
p435
S'released'
p436
S'from'
p437
tp438
F0.0005627462014631402
s(S'when'
p439
S'signed'
p440
S'with'
p441
tp442
F0.0005627462014631402
s(S'[[pro]]'
p443
S'appeared'
p444
S'on'
p445
tp446
F0.0005627462014631402
s(S'[[adj]]'
p447
S'assigned'
p448
S'as'
p449
tp450
F0.0005627462014631402
s(S'signed'
p451
S'to'
p452
S'[[adj]]'
p453
tp454
F0.0028137310073157004
s(S'which'
p455
S'returned'
p456
S'to'
p457
tp458
F0.0005627462014631402
s(S'[[det]]'
p459
S'band'
p460
S's'
p461
tp462
F0.0011254924029262803
s(S'[[con]]'
p463
S'played'
p464
S'in'
p465
tp466
F0.0005627462014631402
s(S'to'
p467
S'record'
p468
S'for'
p469
tp470
F0.0005627462014631402
s(S'by'
p471
S'singer'
p472
S'released'
p473
tp474
F0.0005627462014631402
s(S'was'
p475
S'originally'
p476
S'released'
p477
tp478
F0.0022509848058525606
s(S'be'
p479
S'released'
p480
S'as'
p481
tp482
F0.0005627462014631402
s(S'also'
p483
S'featured'
p484
S'to'
p485
tp486
F0.0005627462014631402
s(S'instead'
p487
S'signed'
p488
S'with'
p489
tp490
F0.0005627462014631402
s(S'later'
p491
S'appeared'
p492
S'in'
p493
tp494
F0.0005627462014631402
s(S'first'
p495
S'recorded'
p496
S'for'
p497
tp498
F0.0005627462014631402
s(S'[[con]]'
p499
S'worked'
p500
S'as'
p501
tp502
F0.0005627462014631402
s(S'[[prp]]'
p503
S'debut'
p504
S'in'
p505
tp506
F0.0005627462014631402
s(S'[[con]]'
p507
S'reissued'
p508
S'[[adj]]'
p509
tp510
F0.0005627462014631402
s(S'[[num]]'
p511
S'released'
p512
S'by'
p513
tp514
F0.0005627462014631402
s(S'then'
p515
S'moved'
p516
S'in'
p517
tp518
F0.0005627462014631402
s(S'band'
p519
S'released'
p520
S'on'
p521
tp522
F0.0005627462014631402
s(S'has'
p523
S'received'
p524
S'[[det]]'
p525
tp526
F0.0005627462014631402
s(S'to'
p527
S'leave'
p528
S'[[det]]'
p529
tp530
F0.0005627462014631402
s(S'be'
p531
S'released'
p532
S'by'
p533
tp534
F0.0011254924029262803
s(S'solo'
p535
S'albums'
p536
S'[[num]]'
p537
tp538
F0.0011254924029262803
s(S'later'
p539
S'received'
p540
S'in'
p541
tp542
F0.0005627462014631402
s(S'then'
p543
S'returned'
p544
S'to'
p545
tp546
F0.0005627462014631402
s(S'first'
p547
S'played'
p548
S'in'
p549
tp550
F0.0005627462014631402
s(S'then'
p551
S'joined'
p552
S'side'
p553
tp554
F0.0005627462014631402
s(S'soon'
p555
S'transferred'
p556
S'to'
p557
tp558
F0.0005627462014631402
s(S'only'
p559
S'appeared'
p560
S'in'
p561
tp562
F0.0005627462014631402
s(S'have'
p563
S'joined'
p564
S'[[det]]'
p565
tp566
F0.0005627462014631402
s(S'[[prp]]'
p567
S'[[adj]]'
p568
S'record'
p569
tp570
F0.0011254924029262803
s(S'[[adj]]'
p571
g69
g70
tp572
F0.0011254924029262803
s(S'when'
p573
S'joined'
p574
S'[[det]]'
p575
tp576
F0.0005627462014631402
s(S'[[con]]'
p577
S'founder'
p578
S'of'
p579
tp580
F0.0005627462014631402
s(S'has'
p581
S'signed'
p582
S'[[det]]'
p583
tp584
F0.0016882386043894203
s(S'has'
p585
S'played'
p586
S'[[det]]'
p587
tp588
F0.0005627462014631402
s(S'to'
p589
S'[[det]]'
p590
S'contract'
p591
tp592
F0.0005627462014631402
s(S'then'
p593
S'assigned'
p594
S'to'
p595
tp596
F0.0005627462014631402
s(S'in'
p597
S'[[det]]'
p598
S'including'
p599
tp600
F0.0005627462014631402
s(S'also'
p601
S'remained'
p602
S'of'
p603
tp604
F0.0005627462014631402
s(S'[[adj]]'
p605
S'artist'
p606
S'signed'
p607
tp608
F0.0005627462014631402
s(S'[[det]]'
p609
S'leave'
p610
S'from'
p611
tp612
F0.0005627462014631402
s(S'with'
p613
S'joined'
p614
S'[[det]]'
p615
tp616
F0.0005627462014631402
s(S'when'
p617
S'signed'
p618
S'up'
p619
tp620
F0.0005627462014631402
s(S'being'
p621
S'released'
p622
S'by'
p623
tp624
F0.0005627462014631402
s(S'[[mod]]'
p625
S'stay'
p626
S'at'
p627
tp628
F0.0005627462014631402
s(S'[[adj]]'
p629
S'contract'
p630
S'was'
p631
tp632
F0.0005627462014631402
s(S'landed'
p633
S'[[det]]'
p634
S'deal'
p635
tp636
F0.0005627462014631402
s(S'released'
p637
S'by'
p638
S'[[det]]'
p639
tp640
F0.0005627462014631402
s(S'then'
p641
S'appeared'
p642
S'on'
p643
tp644
F0.0005627462014631402
s(S'title'
p645
S'released'
p646
S'on'
p647
tp648
F0.0005627462014631402
s(S'also'
p649
S'received'
p650
S'to'
p651
tp652
F0.0005627462014631402
s(S'from'
p653
S'[[det]]'
p654
S'band'
p655
tp656
F0.0005627462014631402
s(S'debut'
p657
S'album'
p658
S'with'
p659
tp660
F0.0005627462014631402
s(S'had'
p661
S'received'
p662
S'[[det]]'
p663
tp664
F0.0005627462014631402
s(S'when'
p665
S'signed'
p666
S'for'
p667
tp668
F0.0005627462014631402
s(S'while'
p669
S'joined'
p670
S'[[det]]'
p671
tp672
F0.0005627462014631402
s(S'has'
p673
S'recorded'
p674
S'on'
p675
tp676
F0.0005627462014631402
s(S'then'
p677
S'returned'
p678
S'at'
p679
tp680
F0.0005627462014631402
s(g252
g253
S'in'
p681
tp682
F0.0005627462014631402
s(S'[[con]]'
p683
S'distributed'
p684
S'in'
p685
tp686
F0.0005627462014631402
s(S'then'
p687
S'signed'
p688
S'to'
p689
tp690
F0.0005627462014631402
s(S'was'
p691
S'signed'
p692
S'up'
p693
tp694
F0.0005627462014631402
s(S'by'
p695
S'[[det]]'
p696
S'power'
p697
tp698
F0.0005627462014631402
s(S'then'
p699
S'returned'
p700
S'in'
p701
tp702
F0.0005627462014631402
s(S'was'
p703
S'transferred'
p704
S'to'
p705
tp706
F0.0005627462014631402
s(S'is'
p707
S'album'
p708
S'by'
p709
tp710
F0.0005627462014631402
s(S'made'
p711
S'debut'
p712
S'for'
p713
tp714
F0.0005627462014631402
s(S'had'
p715
S'played'
p716
S'in'
p717
tp718
F0.0005627462014631402
s(S'[[det]]'
p719
S'rock'
p720
S'band'
p721
tp722
F0.0011254924029262803
s(S'[[adj]]'
p723
S'contract'
p724
S'in'
p725
tp726
F0.0011254924029262803
s(S'then'
p727
S'moved'
p728
S'for'
p729
tp730
F0.0005627462014631402
s(S'[[prp]]'
p731
S'debut'
p732
S'when'
p733
tp734
F0.0005627462014631402
s(S'was'
p735
S'moved'
p736
S'to'
p737
tp738
F0.0005627462014631402
s(S'then'
p739
S'joined'
p740
S'for'
p741
tp742
F0.0005627462014631402
s(g461
S'released'
p743
S'by'
p744
tp745
F0.0005627462014631402
s(S'[[con]]'
p746
S'joined'
p747
S'of'
p748
tp749
F0.0005627462014631402
s(S'album'
p750
S'released'
p751
S'under'
p752
tp753
F0.0016882386043894203
s(S'signed'
p754
S'with'
p755
S'[[adj]]'
p756
tp757
F0.0005627462014631402
s(S'[[adj]]'
p758
S'appeared'
p759
S'[[num]]'
p760
tp761
F0.0005627462014631402
s(S'first'
p762
S'appeared'
p763
S'[[con]]'
p764
tp765
F0.0005627462014631402
s(S'later'
p766
S'transferred'
p767
S'to'
p768
tp769
F0.0005627462014631402
s(S'debut'
p770
S'album'
p771
S'from'
p772
tp773
F0.0005627462014631402
s(S'currently'
p774
S'signed'
p775
S'to'
p776
tp777
F0.0005627462014631402
s(S'been'
p778
S'signed'
p779
S'to'
p780
tp781
F0.0005627462014631402
s(S'[[adj]]'
p782
S'debut'
p783
S'with'
p784
tp785
F0.0005627462014631402
s(S'to'
p786
S'be'
p787
S'released'
p788
tp789
F0.0016882386043894203
s(S'were'
p790
S'signed'
p791
S'by'
p792
tp793
F0.0005627462014631402
s(S'recorded'
p794
g597
g598
tp795
F0.0005627462014631402
s(S'then'
p796
S'received'
p797
S'from'
p798
tp799
F0.0005627462014631402
s(S'then'
p800
S'released'
p801
S'by'
p802
tp803
F0.0005627462014631402
s(S'[[det]]'
p804
g645
g646
tp805
F0.0011254924029262803
s(S'then'
p806
S'transferred'
p807
S'[[con]]'
p808
tp809
F0.0005627462014631402
s(S'was'
p810
S'signed'
p811
S'on'
p812
tp813
F0.0005627462014631402
s(S'then'
p814
S'joined'
p815
S'of'
p816
tp817
F0.0005627462014631402
s(S'also'
p818
S'received'
p819
S'[[con]]'
p820
tp821
F0.0005627462014631402
s(S'has'
p822
S'appeared'
p823
S'of'
p824
tp825
F0.0005627462014631402
s(S'[[prp]]'
p826
S'[[adj]]'
p827
S'studio'
p828
tp829
F0.0011254924029262803
s(S'never'
p830
S'appeared'
p831
S'in'
p832
tp833
F0.0005627462014631402
s(S'has'
p834
S'recorded'
p835
S'albums'
p836
tp837
F0.0005627462014631402
s(S'had'
p838
S'joined'
p839
S'[[det]]'
p840
tp841
F0.0005627462014631402
s(g472
g473
S'on'
p842
tp843
F0.0005627462014631402
s(S'was'
p844
S'left'
p845
S'out'
p846
tp847
F0.0005627462014631402
s(S'[[num]]'
p848
S'albums'
p849
S'for'
p850
tp851
F0.0005627462014631402
s(S'also'
p852
S'remained'
p853
S'[[adj]]'
p854
tp855
F0.0005627462014631402
s(S'founded'
p856
S'[[det]]'
p857
S'record'
p858
tp859
F0.0005627462014631402
s(S'had'
p860
S'joined'
p861
S'during'
p862
tp863
F0.0005627462014631402
s(S'had'
p864
S'signed'
p865
S'to'
p866
tp867
F0.0005627462014631402
s(S'[[adj]]'
p868
S'stay'
p869
S'at'
p870
tp871
F0.0005627462014631402
s(S'more'
p872
S'success'
p873
S'in'
p874
tp875
F0.0005627462014631402
s(S'which'
p876
S'played'
p877
S'at'
p878
tp879
F0.0005627462014631402
s(g102
g103
S'band'
p880
tp881
F0.0005627462014631402
s(S'released'
p882
S'[[det]]'
p883
S'[[adj]]'
p884
tp885
F0.0005627462014631402
s(S'released'
p886
S'by'
p887
S'band'
p888
tp889
F0.0005627462014631402
s(S'[[mod]]'
p890
S'leave'
p891
S'[[con]]'
p892
tp893
F0.0005627462014631402
s(S'[[adj]]'
p894
S'played'
p895
S'in'
p896
tp897
F0.0005627462014631402
s(S'[[mod]]'
p898
S'sign'
p899
S'for'
p900
tp901
F0.0005627462014631402
s(S'had'
p902
S'switched'
p903
S'from'
p904
tp905
F0.0005627462014631402
s(S'had'
p906
S'left'
p907
S'for'
p908
tp909
F0.0005627462014631402
s(S'began'
p910
S'recording'
p911
S'for'
p912
tp913
F0.0005627462014631402
s(S'[[prp]]'
p914
S'debut'
p915
S'on'
p916
tp917
F0.0005627462014631402
s(S'then'
p918
S'moved'
p919
S'[[con]]'
p920
tp921
F0.0005627462014631402
s(S'later'
p922
S'moved'
p923
S'with'
p924
tp925
F0.0005627462014631402
s(S'first'
p926
S'worked'
p927
S'at'
p928
tp929
F0.0005627462014631402
s(S'rapper'
p930
S'released'
p931
S'on'
p932
tp933
F0.0011254924029262803
s(S'[[det]]'
p934
S'founder'
p935
S'[[det]]'
p936
tp937
F0.0005627462014631402
s(S'was'
p938
S'dropped'
p939
S'to'
p940
tp941
F0.0005627462014631402
s(g26
g27
S'labels'
p942
tp943
F0.0005627462014631402
s(S'been'
p944
S'released'
p945
S'with'
p946
tp947
F0.0005627462014631402
s(S'on'
p948
S'[[adj]]'
p949
S'label'
p950
tp951
F0.0011254924029262803
s(S'soon'
p952
S'moved'
p953
S'on'
p954
tp955
F0.0005627462014631402
s(S'[[con]]'
p956
S'moved'
p957
S'on'
p958
tp959
F0.0005627462014631402
s(S'only'
p960
S'played'
p961
S'in'
p962
tp963
F0.0005627462014631402
s(S'had'
p964
S'transferred'
p965
S'from'
p966
tp967
F0.0005627462014631402
s(S'[[con]]'
p968
S'distributed'
p969
S'by'
p970
tp971
F0.0005627462014631402
s(S'had'
p972
S'signed'
p973
S'on'
p974
tp975
F0.0005627462014631402
s(S'where'
p976
S'received'
p977
S'in'
p978
tp979
F0.0005627462014631402
s(S'released'
p980
S'on'
p981
S'[[det]]'
p982
tp983
F0.0005627462014631402
s(S'[[det]]'
p984
S'recording'
p985
S'contract'
p986
tp987
F0.0022509848058525606
s(S'[[con]]'
p988
S'released'
p989
S'in'
p990
tp991
F0.0005627462014631402
s(S'then'
p992
S'moved'
p993
S'onto'
p994
tp995
F0.0005627462014631402
s(S'also'
p996
S'started'
p997
S'[[det]]'
p998
tp999
F0.0005627462014631402
s(S'[[det]]'
p1000
S'punk'
p1001
S'rock'
p1002
tp1003
F0.0022509848058525606
s(S'soon'
p1004
S'joined'
p1005
S'[[det]]'
p1006
tp1007
F0.0005627462014631402
s(S'made'
p1008
S'recordings'
p1009
S'for'
p1010
tp1011
F0.0005627462014631402
s(g982
S'division'
p1012
S'of'
p1013
tp1014
F0.0011254924029262803
s(S'also'
p1015
S'worked'
p1016
S'as'
p1017
tp1018
F0.0005627462014631402
s(S'again'
p1019
S'moved'
p1020
S'to'
p1021
tp1022
F0.0005627462014631402
s(S'then'
p1023
S'joined'
p1024
S'[[num]]'
p1025
tp1026
F0.0005627462014631402
s(S'was'
p1027
S'issued'
p1028
S'on'
p1029
tp1030
F0.0005627462014631402
s(S'first'
p1031
S'worked'
p1032
S'[[con]]'
p1033
tp1034
F0.0005627462014631402
s(g1002
S'band'
p1035
S'released'
p1036
tp1037
F0.0011254924029262803
s(S'album'
p1038
S'by'
p1039
S'metal'
p1040
tp1041
F0.0016882386043894203
s(S'also'
p1042
S'formed'
p1043
S'[[det]]'
p1044
tp1045
F0.0005627462014631402
s(S'rock'
p1046
S'song'
p1047
S'by'
p1048
tp1049
F0.0005627462014631402
s(S'been'
p1050
S'hired'
p1051
S'by'
p1052
tp1053
F0.0005627462014631402
s(S'album'
p1054
g786
g787
tp1055
F0.0016882386043894203
s(S'then'
p1056
S'moved'
p1057
S'then'
p1058
tp1059
F0.0005627462014631402
s(S'studio'
p1060
S'album'
p1061
S'by'
p1062
tp1063
F0.015194147439504783
s(S'song'
p1064
S'by'
p1065
S'indie'
p1066
tp1067
F0.0005627462014631402
s(S'has'
p1068
S'appeared'
p1069
S'twice'
p1070
tp1071
F0.0005627462014631402
s(S'been'
p1072
S'signed'
p1073
S'by'
p1074
tp1075
F0.0005627462014631402
s(S'[[det]]'
p1076
S'[[adj]]'
p1077
S'deal'
p1078
tp1079
F0.0039392234102419805
s(S'first'
p1080
S'worked'
p1081
S'[[det]]'
p1082
tp1083
F0.0005627462014631402
s(S'recorded'
p1084
S'for'
p1085
S'labels'
p1086
tp1087
F0.0005627462014631402
s(S'soon'
p1088
S'left'
p1089
S'to'
p1090
tp1091
F0.0005627462014631402
s(S'[[adj]]'
p1092
S'signed'
p1093
S'to'
p1094
tp1095
F0.0005627462014631402
s(S'issued'
p1096
g507
g508
tp1097
F0.0005627462014631402
s(S'by'
p1098
S'[[det]]'
p1099
S'thrash'
p1100
tp1101
F0.0005627462014631402
s(g461
S'debut'
p1102
S'in'
p1103
tp1104
F0.0005627462014631402
s(S'[[adj]]'
p1105
S'death'
p1106
S'metal'
p1107
tp1108
F0.0016882386043894203
s(S'on'
p1109
S'[[det]]'
p1110
S'labels'
p1111
tp1112
F0.0005627462014631402
s(S'album'
p1113
S'by'
p1114
S'[[adj]]'
p1115
tp1116
F0.009566685424873381
s(S'was'
p1117
S'released'
p1118
S'under'
p1119
tp1120
F0.0016882386043894203
s(S'[[det]]'
p1121
S'albums'
p1122
S'[[con]]'
p1123
tp1124
F0.0005627462014631402
s(S'then'
p1125
S'signed'
p1126
S'by'
p1127
tp1128
F0.0005627462014631402
s(S'[[adj]]'
p1129
S'worked'
p1130
S'on'
p1131
tp1132
F0.0005627462014631402
s(S'then'
p1133
S'transferred'
p1134
S'to'
p1135
tp1136
F0.0005627462014631402
s(S'has'
p1137
S'received'
p1138
S'for'
p1139
tp1140
F0.0005627462014631402
s(g461
S'debut'
p1141
S'against'
p1142
tp1143
F0.0005627462014631402
s(S'produced'
p1144
S'[[con]]'
p1145
S'released'
p1146
tp1147
F0.0016882386043894203
s(S'[[det]]'
p1148
S'album'
p1149
S'for'
p1150
tp1151
F0.0011254924029262803
s(S'[[adj]]'
p1152
S'record'
p1153
S'with'
p1154
tp1155
F0.0005627462014631402
s(S'[[det]]'
p1156
S'left'
p1157
S'of'
p1158
tp1159
F0.0005627462014631402
s(S'recorded'
p1160
S'[[det]]'
p1161
S'album'
p1162
tp1163
F0.0011254924029262803
s(S'also'
p1164
S'received'
p1165
S'[[prp]]'
p1166
tp1167
F0.0005627462014631402
s(S'album'
p1168
S'released'
p1169
S'[[num]]'
p1170
tp1171
F0.0011254924029262803
s(S'by'
p1172
S'rock'
p1173
S'band'
p1174
tp1175
F0.0039392234102419805
s(S'[[mod]]'
p1176
S'record'
p1177
S'for'
p1178
tp1179
F0.0005627462014631402
s(S'was'
p1180
S'hired'
p1181
S'at'
p1182
tp1183
F0.0005627462014631402
s(S'when'
p1184
S'joined'
p1185
S'as'
p1186
tp1187
F0.0005627462014631402
s(S'[[adj]]'
p1188
S'founder'
p1189
S'of'
p1190
tp1191
F0.0005627462014631402
s(S'was'
p1192
S'signed'
p1193
S'to'
p1194
tp1195
F0.0039392234102419805
s(S'where'
p1196
S'worked'
p1197
S'as'
p1198
tp1199
F0.0005627462014631402
s(S'then'
p1200
S'received'
p1201
S'[[prp]]'
p1202
tp1203
F0.0005627462014631402
s(S'[[adj]]'
p1204
S'deal'
p1205
S'[[con]]'
p1206
tp1207
F0.0005627462014631402
s(S'first'
p1208
S'worked'
p1209
S'for'
p1210
tp1211
F0.0005627462014631402
s(S'later'
p1212
S'appeared'
p1213
S'for'
p1214
tp1215
F0.0005627462014631402
s(S'has'
p1216
S'featured'
p1217
S'in'
p1218
tp1219
F0.0005627462014631402
s(g755
g756
S'label'
p1220
tp1221
F0.0005627462014631402
s(S'has'
p1222
S'moved'
p1223
S'from'
p1224
tp1225
F0.0005627462014631402
s(S'initially'
p1226
S'released'
p1227
S'[[con]]'
p1228
tp1229
F0.0005627462014631402
s(S'released'
p1230
S'[[num]]'
p1231
g535
tp1232
F0.0011254924029262803
s(S'has'
p1233
S'remained'
p1234
S'[[adj]]'
p1235
tp1236
F0.0005627462014631402
s(S'[[num]]'
p1237
S'contract'
p1238
S'with'
p1239
tp1240
F0.0005627462014631402
s(S'also'
p1241
S'worked'
p1242
S'on'
p1243
tp1244
F0.0005627462014631402
s(S'was'
p1245
S'offered'
p1246
S'[[det]]'
p1247
tp1248
F0.0022509848058525606
s(S'was'
p1249
S'dropped'
p1250
S'in'
p1251
tp1252
F0.0005627462014631402
s(g335
S'released'
p1253
S'on'
p1254
tp1255
F0.0005627462014631402
s(S'then'
p1256
S'hired'
p1257
S'in'
p1258
tp1259
F0.0005627462014631402
s(S'never'
p1260
S'received'
p1261
S'[[det]]'
p1262
tp1263
F0.0005627462014631402
s(S'[[adj]]'
p1264
S'signed'
p1265
S'with'
p1266
tp1267
F0.0005627462014631402
s(S'then'
p1268
S'moved'
p1269
S'on'
p1270
tp1271
F0.0005627462014631402
s(S'before'
p1272
S'returned'
p1273
S'to'
p1274
tp1275
F0.0005627462014631402
s(S'[[num]]'
p1276
S'recordings'
p1277
S'for'
p1278
tp1279
F0.0005627462014631402
s(S'[[num]]'
p1280
S'albums'
p1281
S'on'
p1282
tp1283
F0.0016882386043894203
s(S'have'
p1284
S'released'
p1285
S'music'
p1286
tp1287
F0.0005627462014631402
s(S'where'
p1288
S'received'
p1289
S'from'
p1290
tp1291
F0.0005627462014631402
s(g461
S'worked'
p1292
S'with'
p1293
tp1294
F0.0005627462014631402
s(S'was'
p1295
S'hired'
p1296
S'on'
p1297
tp1298
F0.0005627462014631402
s(S'recorded'
p1299
S'[[num]]'
p1300
S'more'
p1301
tp1302
F0.0005627462014631402
s(S'was'
p1303
S'left'
p1304
S'with'
p1305
tp1306
F0.0005627462014631402
s(S'who'
p1307
S'played'
p1308
S'on'
p1309
tp1310
F0.0005627462014631402
s(g1062
g930
g931
tp1311
F0.0011254924029262803
s(S'recorded'
p1312
S'[[prp]]'
p1313
S'[[adj]]'
p1314
tp1315
F0.0005627462014631402
s(S'[[con]]'
p1316
S'released'
p1317
S'through'
p1318
tp1319
F0.0005627462014631402
s(S'[[con]]'
p1320
S'released'
p1321
S'by'
p1322
tp1323
F0.0022509848058525606
s(S'initially'
p1324
S'released'
p1325
S'by'
p1326
tp1327
F0.0005627462014631402
s(S'has'
p1328
S'released'
p1329
S'[[det]]'
p1330
tp1331
F0.0005627462014631402
s(S'parted'
p1332
S'ways'
p1333
S'with'
p1334
tp1335
F0.0005627462014631402
s(S'was'
p1336
S'signed'
p1337
S'for'
p1338
tp1339
F0.0005627462014631402
s(S'[[num]]'
p1340
S'albums'
p1341
S'with'
p1342
tp1343
F0.0005627462014631402
s(S'then'
p1344
S'left'
p1345
S'for'
p1346
tp1347
F0.0005627462014631402
s(S'[[adj]]'
p1348
S'debut'
p1349
S'against'
p1350
tp1351
F0.0005627462014631402
s(S'then'
p1352
S'moved'
p1353
S'with'
p1354
tp1355
F0.0005627462014631402
s(S'instead'
p1356
S'joined'
p1357
S'[[det]]'
p1358
tp1359
F0.0005627462014631402
s(S'[[det]]'
p1360
g1237
g1238
tp1361
F0.0005627462014631402
s(S'being'
p1362
S'hired'
p1363
S'by'
p1364
tp1365
F0.0005627462014631402
s(S'[[det]]'
p1366
S'album'
p1367
S'by'
p1368
tp1369
F0.0033764772087788407
s(S'[[adj]]'
p1370
S'debut'
p1371
S'for'
p1372
tp1373
F0.0005627462014631402
s(S'by'
p1374
S'punk'
p1375
S'band'
p1376
tp1377
F0.0005627462014631402
s(S'released'
p1378
S'under'
p1379
S'[[det]]'
p1380
tp1381
F0.0011254924029262803
s(S'solo'
p1382
S'album'
p1383
S'for'
p1384
tp1385
F0.0011254924029262803
s(S'since'
p1386
S'returned'
p1387
S'to'
p1388
tp1389
F0.0005627462014631402
s(S'then'
p1390
S'received'
p1391
S'in'
p1392
tp1393
F0.0005627462014631402
s(S'[[num]]'
p1394
S'studio'
p1395
S'album'
p1396
tp1397
F0.0011254924029262803
s(S'studio'
p1398
S'album'
p1399
S'[[adj]]'
p1400
tp1401
F0.0011254924029262803
s(S'then'
p1402
S'moved'
p1403
S'[[det]]'
p1404
tp1405
F0.0005627462014631402
s(S'[[adj]]'
p1406
g1054
g786
tp1407
F0.0016882386043894203
s(S'recorded'
p1408
g1121
g1122
tp1409
F0.0005627462014631402
s(S'has'
p1410
S'recorded'
p1411
S'for'
p1412
tp1413
F0.0011254924029262803
s(S'who'
p1414
S'joined'
p1415
S'[[det]]'
p1416
tp1417
F0.0005627462014631402
s(S'[[num]]'
p1418
S'album'
p1419
S'by'
p1420
tp1421
F0.0011254924029262803
s(S'signed'
p1422
S'[[adj]]'
p1423
S'contract'
p1424
tp1425
F0.0005627462014631402
s(S'[[adj]]'
p1426
S'album'
p1427
S'[[adj]]'
p1428
tp1429
F0.0005627462014631402
s(S'released'
p1430
S'by'
p1431
S'indie'
p1432
tp1433
F0.0005627462014631402
s(S'later'
p1434
S'received'
p1435
S'at'
p1436
tp1437
F0.0005627462014631402
s(S'has'
p1438
S'appeared'
p1439
S'[[num]]'
p1440
tp1441
F0.0005627462014631402
s(S'album'
p1442
S'was'
p1443
S'released'
p1444
tp1445
F0.0005627462014631402
s(S'[[con]]'
p1446
S'was'
p1447
S'signed'
p1448
tp1449
F0.0005627462014631402
s(S'[[adj]]'
p1450
S'transferred'
p1451
S'to'
p1452
tp1453
F0.0005627462014631402
s(S'debut'
p1454
S'studio'
p1455
S'album'
p1456
tp1457
F0.0022509848058525606
s(S'was'
p1458
S'hired'
p1459
S'by'
p1460
tp1461
F0.0005627462014631402
s(g50
g51
S'metal'
p1462
tp1463
F0.0005627462014631402
s(S'was'
p1464
S'featured'
p1465
S'of'
p1466
tp1467
F0.0005627462014631402
s(S'was'
p1468
S'featured'
p1469
S'for'
p1470
tp1471
F0.0005627462014631402
s(S'[[prp]]'
p1472
S'[[adj]]'
p1473
S'album'
p1474
tp1475
F0.0016882386043894203
s(S'[[con]]'
p1476
S'signed'
p1477
S'for'
p1478
tp1479
F0.0011254924029262803
s(S'has'
p1480
S'left'
p1481
S'[[det]]'
p1482
tp1483
F0.0005627462014631402
s(S'had'
p1484
S'signed'
p1485
S'for'
p1486
tp1487
F0.0005627462014631402
s(S'[[con]]'
p1488
S'transferred'
p1489
S'to'
p1490
tp1491
F0.0005627462014631402
s(S'album'
p1492
S'by'
p1493
S'band'
p1494
tp1495
F0.0011254924029262803
s(S'also'
p1496
S'started'
p1497
S'against'
p1498
tp1499
F0.0005627462014631402
s(S'later'
p1500
S'signed'
p1501
S'[[det]]'
p1502
tp1503
F0.0011254924029262803
s(S'soon'
p1504
S'joined'
p1505
S'[[con]]'
p1506
tp1507
F0.0005627462014631402
s(S'was'
p1508
S'hired'
p1509
S'[[det]]'
p1510
tp1511
F0.0005627462014631402
s(S'by'
p1512
g719
g720
tp1513
F0.0011254924029262803
s(S'release'
p1514
S'on'
p1515
S'[[adj]]'
p1516
tp1517
F0.0005627462014631402
s(S'has'
p1518
g25
g26
tp1519
F0.0005627462014631402
s(S'just'
p1520
S'left'
p1521
S'for'
p1522
tp1523
F0.0005627462014631402
s(S'recorded'
p1524
S'including'
p1525
S'[[con]]'
p1526
tp1527
F0.0011254924029262803
s(S'has'
p1528
S'worked'
p1529
S'at'
p1530
tp1531
F0.0005627462014631402
s(S'had'
p1532
S'left'
p1533
S'[[det]]'
p1534
tp1535
F0.0005627462014631402
s(S'[[adj]]'
p1536
S'debut'
p1537
S'[[con]]'
p1538
tp1539
F0.0005627462014631402
s(S'under'
p1540
S'[[adj]]'
p1541
S'label'
p1542
tp1543
F0.0005627462014631402
s(S'[[adj]]'
p1544
S'album'
p1545
S'by'
p1546
tp1547
F0.010692177827799663
s(S'solo'
p1548
S'album'
p1549
S'[[det]]'
p1550
tp1551
F0.0005627462014631402
s(S'had'
p1552
S'joined'
p1553
S'side'
p1554
tp1555
F0.0005627462014631402
s(S'no'
p1556
S'longer'
p1557
S'in'
p1558
tp1559
F0.0005627462014631402
s(g1114
g1115
S'released'
p1560
tp1561
F0.0005627462014631402
s(S'album'
p1562
S'by'
p1563
S'indie'
p1564
tp1565
F0.0016882386043894203
s(S'where'
p1566
S'joined'
p1567
S'[[det]]'
p1568
tp1569
F0.0005627462014631402
s(S'then'
p1570
S'joined'
p1571
S'[[det]]'
p1572
tp1573
F0.0005627462014631402
s(S'instead'
p1574
S'signed'
p1575
S'for'
p1576
tp1577
F0.0005627462014631402
s(S'[[adj]]'
p1578
S'deal'
p1579
S'at'
p1580
tp1581
F0.0005627462014631402
s(g638
g639
S'division'
p1582
tp1583
F0.0005627462014631402
s(S'was'
p1584
S'assigned'
p1585
S'for'
p1586
tp1587
F0.0005627462014631402
s(S'been'
p1588
S'dropped'
p1589
S'by'
p1590
tp1591
F0.0005627462014631402
s(g461
S'worked'
p1592
S'on'
p1593
tp1594
F0.0005627462014631402
s(S'album'
p1595
S'released'
p1596
S'on'
p1597
tp1598
F0.0061902082160945416
s(S'then'
p1599
S'appeared'
p1600
S'as'
p1601
tp1602
F0.0005627462014631402
s(S'[[adj]]'
p1603
S'artist'
p1604
S'of'
p1605
tp1606
F0.0005627462014631402
s(S'to'
p1607
S'sign'
p1608
S'for'
p1609
tp1610
F0.0005627462014631402
s(S'founded'
p1611
S'[[det]]'
p1612
S'[[adj]]'
p1613
tp1614
F0.0005627462014631402
s(S'has'
p1615
S'signed'
p1616
S'with'
p1617
tp1618
F0.0005627462014631402
s(g1300
g1301
S'albums'
p1619
tp1620
F0.0011254924029262803
s(S'was'
p1621
S'received'
p1622
S'[[con]]'
p1623
tp1624
F0.0005627462014631402
s(S'also'
p1625
S'started'
p1626
S'to'
p1627
tp1628
F0.0005627462014631402
s(S'first'
p1629
S'worked'
p1630
S'on'
p1631
tp1632
F0.0005627462014631402
s(S'then'
p1633
S'joined'
p1634
S'where'
p1635
tp1636
F0.0005627462014631402
s(S'was'
p1637
S'assigned'
p1638
S'to'
p1639
tp1640
F0.0005627462014631402
s(S'has'
p1641
S'appeared'
p1642
S'[[det]]'
p1643
tp1644
F0.0005627462014631402
s(S'before'
p1645
S'signing'
p1646
S'with'
p1647
tp1648
F0.0005627462014631402
s(S'was'
p1649
S'dropped'
p1650
S'[[con]]'
p1651
tp1652
F0.0005627462014631402
s(S'has'
p1653
S'received'
p1654
S'in'
p1655
tp1656
F0.0005627462014631402
s(g883
g884
S'album'
p1657
tp1658
F0.0011254924029262803
s(S'was'
p1659
S'eventually'
p1660
S'signed'
p1661
tp1662
F0.0005627462014631402
s(S'released'
p1663
S'by'
p1664
S'metal'
p1665
tp1666
F0.0005627462014631402
s(S'later'
p1667
S'appeared'
p1668
S'[[adj]]'
p1669
tp1670
F0.0005627462014631402
s(S'by'
p1671
S'[[det]]'
p1672
S'punk'
p1673
tp1674
F0.0016882386043894203
s(S'signed'
p1675
S'[[det]]'
p1676
S'record'
p1677
tp1678
F0.0005627462014631402
s(S'[[con]]'
p1679
S'resigned'
p1680
S'from'
p1681
tp1682
F0.0005627462014631402
s(S'[[adj]]'
p1683
S'stay'
p1684
S'with'
p1685
tp1686
F0.0005627462014631402
s(S'recorded'
p1687
S'extensively'
p1688
S'for'
p1689
tp1690
F0.0005627462014631402
s(S'not'
p1691
S'released'
p1692
S'by'
p1693
tp1694
F0.0005627462014631402
s(S'then'
p1695
S'hired'
p1696
S'as'
p1697
tp1698
F0.0005627462014631402
s(S'also'
p1699
S'played'
p1700
S'of'
p1701
tp1702
F0.0005627462014631402
s(S'[[prp]]'
p1703
S'[[adj]]'
p1704
g1548
tp1705
F0.0011254924029262803
s(S'were'
p1706
S'transferred'
p1707
S'to'
p1708
tp1709
F0.0005627462014631402
s(S'released'
p1710
S'by'
p1711
S'[[adj]]'
p1712
tp1713
F0.0022509848058525606
s(S'was'
p1714
g1096
g507
tp1715
F0.0005627462014631402
s(S'was'
p1716
S'joined'
p1717
S'on'
p1718
tp1719
F0.0005627462014631402
s(S'to'
p1720
S'sign'
p1721
S'with'
p1722
tp1723
F0.0005627462014631402
s(S'later'
p1724
S'joined'
p1725
S'at'
p1726
tp1727
F0.0005627462014631402
s(S'signed'
p1728
S'to'
p1729
S'label'
p1730
tp1731
F0.0011254924029262803
s(S'where'
p1732
S'worked'
p1733
S'on'
p1734
tp1735
F0.0005627462014631402
s(S'debut'
p1736
S'album'
p1737
S'having'
p1738
tp1739
F0.0005627462014631402
s(S'was'
p1740
S'released'
p1741
S'distributed'
p1742
tp1743
F0.0005627462014631402
s(S'studio'
p1744
S'album'
p1745
g653
tp1746
F0.0016882386043894203
s(S'later'
p1747
S'joined'
p1748
S'[[con]]'
p1749
tp1750
F0.0005627462014631402
s(S'was'
p1751
S'hired'
p1752
S'as'
p1753
tp1754
F0.0005627462014631402
s(S'[[adj]]'
p1755
S'debut'
p1756
S'on'
p1757
tp1758
F0.0005627462014631402
s(S'[[con]]'
p1759
S'joined'
p1760
S'from'
p1761
tp1762
F0.0005627462014631402
s(S'originally'
p1763
S'released'
p1764
S'[[con]]'
p1765
tp1766
F0.0005627462014631402
s(S'[[prp]]'
p1767
S'debut'
p1768
S'with'
p1769
tp1770
F0.0005627462014631402
s(S'been'
p1771
S'transferred'
p1772
S'to'
p1773
tp1774
F0.0005627462014631402
s(S'until'
p1775
S'returned'
p1776
S'to'
p1777
tp1778
F0.0005627462014631402
s(S'had'
p1779
S'appeared'
p1780
S'in'
p1781
tp1782
F0.0005627462014631402
s(S'again'
p1783
S'appeared'
p1784
S'in'
p1785
tp1786
F0.0005627462014631402
s(S'also'
p1787
S'joined'
p1788
S'[[det]]'
p1789
tp1790
F0.0005627462014631402
s(S'[[con]]'
p1791
S'remained'
p1792
S'at'
p1793
tp1794
F0.0005627462014631402
s(S'album'
p1795
S'singer'
p1796
S'released'
p1797
tp1798
F0.0016882386043894203
s(S'to'
p1799
S'sign'
p1800
S'[[det]]'
p1801
tp1802
F0.0005627462014631402
s(S'[[det]]'
p1803
S'debut'
p1804
S'album'
p1805
tp1806
F0.008441193021947102
s(S'[[det]]'
p1807
S'released'
p1808
S'on'
p1809
tp1810
F0.0005627462014631402
s(S'is'
p1811
S'featured'
p1812
S'in'
p1813
tp1814
F0.0005627462014631402
s(S'[[det]]'
p1815
S'released'
p1816
S'by'
p1817
tp1818
F0.0016882386043894203
s(S'then'
p1819
S'signed'
p1820
S'for'
p1821
tp1822
F0.0005627462014631402
s(S'have'
p1823
S'worked'
p1824
S'at'
p1825
tp1826
F0.0005627462014631402
s(S'then'
p1827
S'played'
p1828
S'[[det]]'
p1829
tp1830
F0.0005627462014631402
s(S'later'
p1831
S'recorded'
p1832
S'on'
p1833
tp1834
F0.0005627462014631402
s(S'had'
p1835
S'played'
p1836
S'during'
p1837
tp1838
F0.0005627462014631402
s(S'has'
p1839
S'returned'
p1840
S'to'
p1841
tp1842
F0.0005627462014631402
s(S'later'
p1843
S'appeared'
p1844
S'on'
p1845
tp1846
F0.0005627462014631402
s(S'[[adj]]'
p1847
S'appeared'
p1848
S'in'
p1849
tp1850
F0.0005627462014631402
s(S'had'
p1851
S'signed'
p1852
S'with'
p1853
tp1854
F0.0005627462014631402
s(S'has'
p1855
S'appeared'
p1856
S'from'
p1857
tp1858
F0.0005627462014631402
s(S'[[con]]'
p1859
S'appeared'
p1860
S'on'
p1861
tp1862
F0.0005627462014631402
s(S'[[num]]'
p1863
S'transferred'
p1864
S'to'
p1865
tp1866
F0.0005627462014631402
s(S'had'
p1867
S'dropped'
p1868
S'out'
p1869
tp1870
F0.0005627462014631402
s(S'[[adj]]'
p1871
S'release'
p1872
S'on'
p1873
tp1874
F0.0016882386043894203
s(S'no'
p1875
S'longer'
p1876
S'[[det]]'
p1877
tp1878
F0.0005627462014631402
s(S'never'
p1879
S'played'
p1880
S'[[det]]'
p1881
tp1882
F0.0005627462014631402
s(g1061
g1062
g930
tp1883
F0.0011254924029262803
s(S'also'
p1884
S'featured'
p1885
S'at'
p1886
tp1887
F0.0005627462014631402
s(S'also'
p1888
S'appeared'
p1889
S'during'
p1890
tp1891
F0.0005627462014631402
s(S'who'
p1892
S'left'
p1893
S'[[det]]'
p1894
tp1895
F0.0005627462014631402
s(S'released'
p1896
g968
g969
tp1897
F0.0011254924029262803
s(S'[[prp]]'
p1898
S'tenth'
p1899
S'studio'
p1900
tp1901
F0.0005627462014631402
s(S'later'
p1902
S'moved'
p1903
S'on'
p1904
tp1905
F0.0005627462014631402
s(S'later'
p1906
S'worked'
p1907
S'on'
p1908
tp1909
F0.0005627462014631402
s(S'has'
p1910
S'remained'
p1911
S'with'
p1912
tp1913
F0.0005627462014631402
s(S'[[con]]'
p1914
S'appeared'
p1915
S'as'
p1916
tp1917
F0.0005627462014631402
s(S'be'
p1918
S'released'
p1919
S'through'
p1920
tp1921
F0.0005627462014631402
s(S'also'
p1922
S'played'
p1923
S'during'
p1924
tp1925
F0.0005627462014631402
s(S'[[det]]'
p1926
S'hit'
p1927
S'show'
p1928
tp1929
F0.0005627462014631402
s(g461
S'stay'
p1930
S'at'
p1931
tp1932
F0.0005627462014631402
s(S'by'
p1933
S'released'
p1934
S'on'
p1935
tp1936
F0.0033764772087788407
s(g1711
g1712
S'label'
p1937
tp1938
F0.0005627462014631402
s(S'album'
p1939
S'released'
p1940
S'[[con]]'
p1941
tp1942
F0.0011254924029262803
s(g828
S'album'
p1943
S'under'
p1944
tp1945
F0.0005627462014631402
s(S'then'
p1946
S'worked'
p1947
S'as'
p1948
tp1949
F0.0005627462014631402
s(g51
g1462
S'band'
p1950
tp1951
F0.0016882386043894203
s(S'also'
p1952
S'played'
p1953
S'[[det]]'
p1954
tp1955
F0.0005627462014631402
s(S'landed'
p1956
S'[[det]]'
p1957
S'recording'
p1958
tp1959
F0.0005627462014631402
s(S'have'
p1960
S'left'
p1961
S'[[det]]'
p1962
tp1963
F0.0005627462014631402
s(S'[[adj]]'
p1964
S'recording'
p1965
S'on'
p1966
tp1967
F0.0005627462014631402
s(S'[[adj]]'
p1968
S'debut'
p1969
S'away'
p1970
tp1971
F0.0005627462014631402
s(S'then'
p1972
S'joined'
p1973
S'then'
p1974
tp1975
F0.0005627462014631402
s(S'released'
p1976
g1394
g1395
tp1977
F0.0005627462014631402
s(S'that'
p1978
S'worked'
p1979
S'for'
p1980
tp1981
F0.0005627462014631402
s(S'who'
p1982
S'joined'
p1983
S'from'
p1984
tp1985
F0.0005627462014631402
s(S'had'
p1986
S'success'
p1987
S'in'
p1988
tp1989
F0.0005627462014631402
s(S'has'
p1990
S'released'
p1991
S'[[num]]'
p1992
tp1993
F0.0011254924029262803
s(S'had'
p1994
S'signed'
p1995
S'up'
p1996
tp1997
F0.0005627462014631402
s(S'[[con]]'
p1998
S'signed'
p1999
S'to'
p2000
tp2001
F0.0005627462014631402
s(S'[[num]]'
p2002
S'returned'
p2003
S'to'
p2004
tp2005
F0.0005627462014631402
s(S'[[num]]'
p2006
S'album'
p2007
S'in'
p2008
tp2009
F0.0005627462014631402
s(S'was'
p2010
S'signed'
p2011
S'with'
p2012
tp2013
F0.0005627462014631402
s(g461
S'debut'
p2014
S'album'
p2015
tp2016
F0.0005627462014631402
s(S'album'
p2017
S'[[det]]'
p2018
S'released'
p2019
tp2020
F0.0005627462014631402
s(S'by'
p2021
S'signing'
p2022
S'with'
p2023
tp2024
F0.0005627462014631402
s(S'where'
p2025
S'signed'
p2026
S'for'
p2027
tp2028
F0.0005627462014631402
s(S'[[adj]]'
p2029
S'debut'
p2030
S'[[det]]'
p2031
tp2032
F0.0005627462014631402
s(S'had'
p2033
S'left'
p2034
S'[[con]]'
p2035
tp2036
F0.0005627462014631402
s(S'were'
p2037
S'released'
p2038
S'in'
p2039
tp2040
F0.0005627462014631402
s(S'[[adj]]'
p2041
S'record'
p2042
S'for'
p2043
tp2044
F0.0005627462014631402
s(S'often'
p2045
S'appeared'
p2046
S'on'
p2047
tp2048
F0.0005627462014631402
s(S'was'
p2049
S'moved'
p2050
S'as'
p2051
tp2052
F0.0005627462014631402
s(S'as'
p2053
S'moved'
p2054
S'to'
p2055
tp2056
F0.0005627462014631402
s(S'been'
p2057
S'featured'
p2058
S'[[adj]]'
p2059
tp2060
F0.0005627462014631402
s(S'first'
p2061
S'appeared'
p2062
S'as'
p2063
tp2064
F0.0005627462014631402
s(g1367
g1368
S'released'
p2065
tp2066
F0.0028137310073157004
s(S'[[adj]]'
p2067
S'signed'
p2068
S'by'
p2069
tp2070
F0.0005627462014631402
s(S'later'
p2071
S'joined'
p2072
S'[[det]]'
p2073
tp2074
F0.0005627462014631402
s(S'then'
p2075
S'worked'
p2076
S'for'
p2077
tp2078
F0.0005627462014631402
s(S'was'
p2079
S'recording'
p2080
S'for'
p2081
tp2082
F0.0005627462014631402
s(S'[[adj]]'
p2083
S'contract'
p2084
S'with'
p2085
tp2086
F0.005627462014631401
s(S'[[prp]]'
p2087
S'debut'
p2088
S'[[num]]'
p2089
tp2090
F0.0005627462014631402
s(g476
g477
S'on'
p2091
tp2092
F0.0005627462014631402
s(S'eventually'
p2093
S'signed'
p2094
S'with'
p2095
tp2096
F0.0005627462014631402
s(S'then'
p2097
S'returned'
p2098
S'with'
p2099
tp2100
F0.0005627462014631402
s(S'[[con]]'
p2101
S'signed'
p2102
S'by'
p2103
tp2104
F0.0005627462014631402
s(S'title'
p2105
S'released'
p2106
S'by'
p2107
tp2108
F0.0005627462014631402
s(S'then'
p2109
S'left'
p2110
S'[[con]]'
p2111
tp2112
F0.0005627462014631402
s(S'[[det]]'
p2113
S'success'
p2114
S'as'
p2115
tp2116
F0.0005627462014631402
s(S'[[adj]]'
p2117
S'metal'
p2118
S'band'
p2119
tp2120
F0.005064715813168261
s(S'also'
p2121
S'recorded'
p2122
S'including'
p2123
tp2124
F0.0011254924029262803
s(S'made'
p2125
S'debut'
p2126
S'against'
p2127
tp2128
F0.0005627462014631402
s(S'who'
p2129
S'joined'
p2130
S'during'
p2131
tp2132
F0.0005627462014631402
s(S'also'
p2133
S'featured'
p2134
S'in'
p2135
tp2136
F0.0005627462014631402
s(S'[[det]]'
p2137
S'played'
p2138
S'in'
p2139
tp2140
F0.0005627462014631402
s(g461
S'appeared'
p2141
S'on'
p2142
tp2143
F0.0005627462014631402
s(S'then'
p2144
S'moved'
p2145
S'up'
p2146
tp2147
F0.0005627462014631402
s(S'[[det]]'
p2148
S'returned'
p2149
S'to'
p2150
tp2151
F0.0005627462014631402
s(S'had'
p2152
S'worked'
p2153
S'at'
p2154
tp2155
F0.0005627462014631402
s(S'song'
p2156
S'by'
p2157
S'rock'
p2158
tp2159
F0.0005627462014631402
s(S'released'
p2160
S'[[num]]'
p2161
S'albums'
p2162
tp2163
F0.0011254924029262803
s(S'have'
p2164
S'signed'
p2165
S'with'
p2166
tp2167
F0.0005627462014631402
s(S'compilation'
p2168
S'album'
p2169
g1710
tp2170
F0.0028137310073157004
s(S'originally'
p2171
S'released'
p2172
S'through'
p2173
tp2174
F0.0005627462014631402
s(S'[[det]]'
p2175
S'studio'
p2176
S'album'
p2177
tp2178
F0.0011254924029262803
s(S'released'
p2179
S'[[det]]'
p2180
g157
tp2181
F0.0005627462014631402
s(S'was'
p2182
S'released'
p2183
S'[[adj]]'
p2184
tp2185
F0.0005627462014631402
s(S'were'
p2186
S'signed'
p2187
S'to'
p2188
tp2189
F0.0005627462014631402
s(S'has'
p2190
S'appeared'
p2191
S'on'
p2192
tp2193
F0.0005627462014631402
s(S'[[prp]]'
p2194
S'debut'
p2195
S'[[det]]'
p2196
tp2197
F0.0005627462014631402
s(S'[[prp]]'
p2198
S'[[adj]]'
p2199
S'recording'
p2200
tp2201
F0.0005627462014631402
s(S'had'
p2202
S'resigned'
p2203
S'as'
p2204
tp2205
F0.0005627462014631402
s(S'released'
p2206
g948
g949
tp2207
F0.0011254924029262803
s(S'[[adj]]'
p2208
S'album'
p2209
S'where'
p2210
tp2211
F0.0005627462014631402
s(S'by'
p2212
g77
g78
tp2213
F0.0005627462014631402
s(S'was'
p2214
S'joined'
p2215
S'at'
p2216
tp2217
F0.0005627462014631402
s(g2180
g157
g158
tp2218
F0.0011254924029262803
s(S'signed'
p2219
S'[[prp]]'
p2220
S'contract'
p2221
tp2222
F0.0005627462014631402
s(S'released'
p2223
g1540
g1541
tp2224
F0.0005627462014631402
s(S'was'
p2225
S'released'
p2226
S'to'
p2227
tp2228
F0.0005627462014631402
s(S'had'
p2229
S'worked'
p2230
S'on'
p2231
tp2232
F0.0005627462014631402
s(S'has'
p2233
S'worked'
p2234
S'[[con]]'
p2235
tp2236
F0.0005627462014631402
s(S'also'
p2237
S'cofounder'
p2238
S'[[con]]'
p2239
tp2240
F0.0005627462014631402
s(S'later'
p2241
S'played'
p2242
S'on'
p2243
tp2244
F0.0005627462014631402
s(S'was'
p2245
S'dropped'
p2246
S'after'
p2247
tp2248
F0.0005627462014631402
s(S'to'
p2249
S'leave'
p2250
S'[[adj]]'
p2251
tp2252
F0.0005627462014631402
s(S'again'
p2253
S'worked'
p2254
S'for'
p2255
tp2256
F0.0005627462014631402
s(S'is'
p2257
S'founder'
p2258
S'[[con]]'
p2259
tp2260
F0.0005627462014631402
s(S'is'
p2261
S'signed'
p2262
S'to'
p2263
tp2264
F0.0005627462014631402
s(S'[[mod]]'
p2265
S'stay'
p2266
S'with'
p2267
tp2268
F0.0005627462014631402
s(g696
g697
S'metal'
p2269
tp2270
F0.0005627462014631402
s(S'[[det]]'
p2271
S'artist'
p2272
S'on'
p2273
tp2274
F0.0005627462014631402
s(S'then'
p2275
S'joined'
p2276
S'with'
p2277
tp2278
F0.0005627462014631402
s(S'not'
p2279
S'released'
p2280
S'in'
p2281
tp2282
F0.0005627462014631402
s(S'after'
p2283
S'leaving'
p2284
S'[[det]]'
p2285
tp2286
F0.0005627462014631402
s(S'then'
p2287
S'joined'
p2288
S'as'
p2289
tp2290
F0.0005627462014631402
s(S'since'
p2291
g1230
g1231
tp2292
F0.0005627462014631402
s(S'[[prp]]'
p2293
S'debut'
p2294
S'away'
p2295
tp2296
F0.0005627462014631402
s(S'[[adj]]'
p2297
S'studio'
p2298
S'album'
p2299
tp2300
F0.027011817670230726
s(g1399
g1400
S'released'
p2301
tp2302
F0.0011254924029262803
s(S'[[det]]'
p2303
g519
g520
tp2304
F0.0005627462014631402
s(S'was'
p2305
S'leaving'
p2306
S'for'
p2307
tp2308
F0.0005627462014631402
s(S'[[det]]'
p2309
S'[[adj]]'
p2310
S'recording'
p2311
tp2312
F0.0005627462014631402
s(S'also'
p2313
S'signed'
p2314
S'by'
p2315
tp2316
F0.0005627462014631402
s(S'[[adj]]'
p2317
S'artist'
p2318
S'on'
p2319
tp2320
F0.0005627462014631402
s(S'signed'
p2321
S'to'
p2322
g984
tp2323
F0.0011254924029262803
s(S'also'
p2324
S'signed'
p2325
S'to'
p2326
tp2327
F0.0005627462014631402
s(S'in'
p2328
g461
S'including'
p2329
tp2330
F0.0005627462014631402
s(S'left'
p2331
S'[[con]]'
p2332
S'signed'
p2333
tp2334
F0.0028137310073157004
s(S'then'
p2335
S'moved'
p2336
S'[[num]]'
p2337
tp2338
F0.0005627462014631402
s(S'signed'
p2339
g2309
g2310
tp2340
F0.010129431626336522
s(S'studio'
p2341
S'album'
p2342
S'on'
p2343
tp2344
F0.0005627462014631402
s(S'[[adj]]'
p2345
S'founder'
p2346
S'[[con]]'
p2347
tp2348
F0.0005627462014631402
s(S'then'
p2349
S'transferred'
p2350
S'as'
p2351
tp2352
F0.0005627462014631402
s(S'[[con]]'
p2353
S'signed'
p2354
S'in'
p2355
tp2356
F0.0005627462014631402
s(S'soon'
p2357
S'signed'
p2358
S'with'
p2359
tp2360
F0.0005627462014631402
s(g835
g836
S'for'
p2361
tp2362
F0.0005627462014631402
s(S'also'
p2363
S'played'
p2364
S'at'
p2365
tp2366
F0.0005627462014631402
s(S'[[con]]'
p2367
S'played'
p2368
S'on'
p2369
tp2370
F0.0005627462014631402
s(S'then'
p2371
S'returned'
p2372
S'for'
p2373
tp2374
F0.0005627462014631402
s(S'who'
p2375
S'worked'
p2376
S'at'
p2377
tp2378
F0.0005627462014631402
s(S'album'
p2379
S'from'
p2380
S'rock'
p2381
tp2382
F0.0011254924029262803
s(S'later'
p2383
S'received'
p2384
S'[[prp]]'
p2385
tp2386
F0.0005627462014631402
s(S'initially'
p2387
S'released'
p2388
S'as'
p2389
tp2390
F0.0005627462014631402
s(S'since'
p2391
S'appeared'
p2392
S'as'
p2393
tp2394
F0.0005627462014631402
s(g304
g305
S'productions'
p2395
tp2396
F0.0005627462014631402
s(g857
g858
S'label'
p2397
tp2398
F0.0005627462014631402
s(S'then'
p2399
S'hired'
p2400
S'by'
p2401
tp2402
F0.0005627462014631402
s(S'was'
p2403
S'released'
p2404
S'by'
p2405
tp2406
F0.0028137310073157004
s(S'then'
p2407
S'signed'
p2408
S'[[det]]'
p2409
tp2410
F0.0011254924029262803
s(g461
S'released'
p2411
S'on'
p2412
tp2413
F0.0005627462014631402
s(S'left'
p2414
g1446
g1447
tp2415
F0.0005627462014631402
s(g1741
g1742
S'by'
p2416
tp2417
F0.0005627462014631402
s(S'[[adj]]'
p2418
S'debut'
p2419
S'album'
p2420
tp2421
F0.0011254924029262803
s(S'who'
p2422
S'moved'
p2423
S'from'
p2424
tp2425
F0.0005627462014631402
s(S'[[pro]]'
p2426
S'signed'
p2427
S'with'
p2428
tp2429
F0.0005627462014631402
s(S'by'
p2430
S'[[det]]'
p2431
S'death'
p2432
tp2433
F0.0016882386043894203
s(g1301
g1619
S'for'
p2434
tp2435
F0.0005627462014631402
s(S'then'
p2436
S'appeared'
p2437
S'in'
p2438
tp2439
F0.0005627462014631402
s(S'then'
p2440
S'joined'
p2441
S'[[con]]'
p2442
tp2443
F0.0005627462014631402
s(S'[[det]]'
p2444
S'success'
p2445
S'of'
p2446
tp2447
F0.0005627462014631402
s(S'also'
p2448
S'recorded'
p2449
S'on'
p2450
tp2451
F0.0005627462014631402
s(S'was'
p2452
S'released'
p2453
S'as'
p2454
tp2455
F0.0005627462014631402
s(S'be'
p2456
S'released'
p2457
S'with'
p2458
tp2459
F0.0005627462014631402
s(S'was'
p2460
S'transferred'
p2461
S'with'
p2462
tp2463
F0.0005627462014631402
s(S'[[prp]]'
p2464
S'debut'
p2465
S'to'
p2466
tp2467
F0.0005627462014631402
s(S'was'
p2468
S'assigned'
p2469
S'with'
p2470
tp2471
F0.0005627462014631402
s(S'then'
p2472
S'signed'
p2473
S'with'
p2474
tp2475
F0.0005627462014631402
s(S'[[adj]]'
p2476
S'album'
p2477
S'from'
p2478
tp2479
F0.0016882386043894203
s(S'is'
p2480
S'founder'
p2481
S'of'
p2482
tp2483
F0.0005627462014631402
s(S'while'
p2484
S'returned'
p2485
S'to'
p2486
tp2487
F0.0005627462014631402
s(S'had'
p2488
S'left'
p2489
S'[[adj]]'
p2490
tp2491
F0.0005627462014631402
s(S'was'
p2492
S'featured'
p2493
S'from'
p2494
tp2495
F0.0005627462014631402
s(S'was'
p2496
S'founder'
p2497
S'[[con]]'
p2498
tp2499
F0.0005627462014631402
s(S'also'
p2500
S'appeared'
p2501
S'to'
p2502
tp2503
F0.0005627462014631402
s(S'by'
p2504
S'punk'
p2505
S'rock'
p2506
tp2507
F0.0005627462014631402
s(S'then'
p2508
S'worked'
p2509
S'on'
p2510
tp2511
F0.0005627462014631402
s(S'[[num]]'
p2512
S'debut'
p2513
S'for'
p2514
tp2515
F0.0005627462014631402
s(S'[[con]]'
p2516
S'worked'
p2517
S'by'
p2518
tp2519
F0.0005627462014631402
s(S'[[con]]'
p2520
S'left'
p2521
S'[[det]]'
p2522
tp2523
F0.0005627462014631402
s(S'also'
p2524
S'started'
p2525
S'in'
p2526
tp2527
F0.0005627462014631402
s(S'then'
p2528
S'signed'
p2529
S'on'
p2530
tp2531
F0.0005627462014631402
s(g99
S'contract'
p2532
S'by'
p2533
tp2534
F0.0011254924029262803
s(S'debut'
p2535
S'album'
p2536
S'on'
p2537
tp2538
F0.0005627462014631402
s(S'[[adj]]'
p2539
S'released'
p2540
S'as'
p2541
tp2542
F0.0005627462014631402
s(g787
g788
S'on'
p2543
tp2544
F0.0005627462014631402
s(S'was'
p2545
S'issued'
p2546
S'in'
p2547
tp2548
F0.0005627462014631402
s(S'[[det]]'
p2549
S'signed'
p2550
S'with'
p2551
tp2552
F0.0005627462014631402
s(S'to'
p2553
S'record'
p2554
S'[[pro]]'
p2555
tp2556
F0.0005627462014631402
s(g2310
g2311
S'contract'
p2557
tp2558
F0.0011254924029262803
s(S'has'
p2559
S'released'
p2560
S'albums'
p2561
tp2562
F0.0005627462014631402
s(S'has'
p2563
S'received'
p2564
S'[[adj]]'
p2565
tp2566
F0.0005627462014631402
s(S'also'
p2567
S'received'
p2568
S'at'
p2569
tp2570
F0.0005627462014631402
s(S'by'
p2571
g2303
g519
tp2572
F0.0022509848058525606
s(g1676
g1677
S'deal'
p2573
tp2574
F0.0016882386043894203
s(S'then'
p2575
S'assigned'
p2576
S'as'
p2577
tp2578
F0.0005627462014631402
s(S'solo'
p2579
S'album'
p2580
S'released'
p2581
tp2582
F0.0005627462014631402
s(S'[[adj]]'
p2583
g1442
g1443
tp2584
F0.0005627462014631402
s(S'recorded'
p2585
g1109
g1110
tp2586
F0.0005627462014631402
s(S'then'
p2587
S'joined'
p2588
S'along'
p2589
tp2590
F0.0005627462014631402
s(S'made'
p2591
S'debut'
p2592
S'with'
p2593
tp2594
F0.0005627462014631402
s(S'[[adj]]'
p2595
S'released'
p2596
S'from'
p2597
tp2598
F0.0005627462014631402
s(S'signed'
p2599
g243
g244
tp2600
F0.005627462014631401
s(S'signed'
p2601
g2198
g2199
tp2602
F0.0033764772087788407
s(S'recorded'
p2603
g2328
g461
tp2604
F0.0005627462014631402
s(S'also'
p2605
S'featured'
p2606
S'[[num]]'
p2607
tp2608
F0.0005627462014631402
s(S'[[con]]'
p2609
S'returned'
p2610
S'on'
p2611
tp2612
F0.0005627462014631402
s(S'before'
p2613
S'signing'
p2614
S'for'
p2615
tp2616
F0.0005627462014631402
s(g224
g225
S'band'
p2617
tp2618
F0.0039392234102419805
s(S'recorded'
p2619
g848
g849
tp2620
F0.0022509848058525606
s(S'had'
p2621
S'worked'
p2622
S'for'
p2623
tp2624
F0.0005627462014631402
s(S'was'
p2625
S'reissued'
p2626
S'on'
p2627
tp2628
F0.0005627462014631402
s(S'[[prp]]'
p2629
S'stay'
p2630
S'with'
p2631
tp2632
F0.0005627462014631402
s(S'when'
p2633
S'played'
p2634
S'in'
p2635
tp2636
F0.0005627462014631402
s(S'has'
p2637
S'signed'
p2638
S'for'
p2639
tp2640
F0.0005627462014631402
s(g1899
g1900
S'album'
p2641
tp2642
F0.0005627462014631402
s(S'was'
p2643
S'originally'
p2644
S'[[adj]]'
p2645
tp2646
F0.0005627462014631402
s(S'again'
p2647
S'returned'
p2648
S'to'
p2649
tp2650
F0.0005627462014631402
s(S'later'
p2651
S'received'
p2652
S'from'
p2653
tp2654
F0.0005627462014631402
s(S'who'
p2655
S'signed'
p2656
S'[[det]]'
p2657
tp2658
F0.0005627462014631402
s(S'was'
p2659
S'leaving'
p2660
S'to'
p2661
tp2662
F0.0005627462014631402
s(S'has'
p2663
S'received'
p2664
S'[[con]]'
p2665
tp2666
F0.0005627462014631402
s(S'later'
p2667
S'signed'
p2668
S'by'
p2669
tp2670
F0.0005627462014631402
s(S'then'
p2671
S'dropped'
p2672
S'out'
p2673
tp2674
F0.0005627462014631402
s(S'recorded'
p2675
g461
S'including'
p2676
tp2677
F0.0005627462014631402
s(S'[[det]]'
p2678
S'success'
p2679
S'in'
p2680
tp2681
F0.0005627462014631402
s(S'also'
p2682
S'worked'
p2683
S'at'
p2684
tp2685
F0.0005627462014631402
s(S'has'
p2686
S'received'
p2687
S'at'
p2688
tp2689
F0.0005627462014631402
s(S'then'
p2690
g1408
g1121
tp2691
F0.0005627462014631402
s(S'[[det]]'
p2692
S'based'
p2693
S'band'
p2694
tp2695
F0.0005627462014631402
s(S'was'
p2696
S'transferred'
p2697
S'from'
p2698
tp2699
F0.0005627462014631402
s(S'[[adj]]'
p2700
S'debut'
p2701
S'[[num]]'
p2702
tp2703
F0.0005627462014631402
s(S'has'
p2704
S'released'
p2705
S'[[con]]'
p2706
tp2707
F0.0005627462014631402
s(S'for'
p2708
S'[[det]]'
p2709
S'labels'
p2710
tp2711
F0.0016882386043894203
s(S'was'
p2712
g1144
g1145
tp2713
F0.0016882386043894203
s(S'then'
p2714
S'moved'
p2715
S'at'
p2716
tp2717
F0.0005627462014631402
s(S'recorded'
p2718
S'[[adj]]'
p2719
S'albums'
p2720
tp2721
F0.0011254924029262803
s(S'[[prp]]'
p2722
S'[[adj]]'
p2723
S'contract'
p2724
tp2725
F0.0022509848058525606
s(S'first'
p2726
S'appeared'
p2727
S'on'
p2728
tp2729
F0.0005627462014631402
s(S'[[det]]'
p2730
S'contract'
p2731
S'with'
p2732
tp2733
F0.004501969611705121
s(S'not'
p2734
S'released'
p2735
S'as'
p2736
tp2737
F0.0005627462014631402
s(S'[[con]]'
p2738
S'released'
p2739
S'[[det]]'
p2740
tp2741
F0.0005627462014631402
s(S'since'
p2742
S'worked'
p2743
S'with'
p2744
tp2745
F0.0005627462014631402
s(g404
g405
S'[[con]]'
p2746
tp2747
F0.0005627462014631402
s(S'is'
p2748
S'returned'
p2749
S'to'
p2750
tp2751
F0.0005627462014631402
s(S'album'
p2752
g1000
g1001
tp2753
F0.0005627462014631402
s(g461
S'success'
p2754
S'on'
p2755
tp2756
F0.0005627462014631402
s(g2220
g2221
S'with'
p2757
tp2758
F0.0005627462014631402
s(S'to'
p2759
S'record'
p2760
S'as'
p2761
tp2762
F0.0005627462014631402
s(S'[[con]]'
p2763
S'received'
p2764
S'[[prp]]'
p2765
tp2766
F0.0005627462014631402
s(S'[[det]]'
p2767
g2083
g2084
tp2768
F0.006752954417557681
s(S'[[adj]]'
p2769
S'length'
p2770
S'album'
p2771
tp2772
F0.0005627462014631402
s(S'debut'
p2773
S'[[con]]'
p2774
S'debut'
p2775
tp2776
F0.0011254924029262803
s(S'had'
p2777
S'switched'
p2778
S'to'
p2779
tp2780
F0.0005627462014631402
s(g1246
g1247
S'contract'
p2781
tp2782
F0.0016882386043894203
s(S'album'
p2783
S'released'
p2784
S'through'
p2785
tp2786
F0.0016882386043894203
s(S'also'
p2787
S'hired'
p2788
S'by'
p2789
tp2790
F0.0005627462014631402
s(S'made'
p2791
S'recordings'
p2792
S'with'
p2793
tp2794
F0.0005627462014631402
s(S'[[adj]]'
p2795
g2579
g2580
tp2796
F0.0022509848058525606
s(S'[[adj]]'
p2797
S'recordings'
p2798
S'for'
p2799
tp2800
F0.0005627462014631402
s(g1745
g653
g654
tp2801
F0.0005627462014631402
s(S'also'
p2802
S'received'
p2803
S'by'
p2804
tp2805
F0.0005627462014631402
s(g342
g343
S'was'
p2806
tp2807
F0.0005627462014631402
s(S'also'
p2808
S'featured'
p2809
S'on'
p2810
tp2811
F0.0005627462014631402
s(S'[[con]]'
p2812
S'worked'
p2813
S'at'
p2814
tp2815
F0.0005627462014631402
s(S'[[prp]]'
p2816
g2773
g2774
tp2817
F0.0016882386043894203
s(S'[[det]]'
p2818
S'solo'
p2819
S'recording'
p2820
tp2821
F0.0005627462014631402
s(S'also'
p2822
S'appeared'
p2823
S'on'
p2824
tp2825
F0.0005627462014631402
s(S'[[det]]'
p2826
S'album'
p2827
S'on'
p2828
tp2829
F0.0022509848058525606
s(S'had'
p2830
S'transferred'
p2831
S'to'
p2832
tp2833
F0.0005627462014631402
s(S'also'
p2834
S'recorded'
p2835
S'[[num]]'
p2836
tp2837
F0.0005627462014631402
s(S'[[det]]'
p2838
S'label'
p2839
S'of'
p2840
tp2841
F0.0005627462014631402
s(S'by'
p2842
g2117
g2118
tp2843
F0.005064715813168261
s(S'[[adj]]'
p2844
S'contract'
p2845
S'at'
p2846
tp2847
F0.0011254924029262803
s(g461
S'record'
p2848
S'of'
p2849
tp2850
F0.0005627462014631402
s(S'[[con]]'
p2851
S'signed'
p2852
S'with'
p2853
tp2854
F0.0011254924029262803
s(S'[[det]]'
p2855
S'deal'
p2856
S'with'
p2857
tp2858
F0.0016882386043894203
s(S'then'
p2859
S'moved'
p2860
S'over'
p2861
tp2862
F0.0005627462014631402
s(S'[[adj]]'
p2863
S'worked'
p2864
S'at'
p2865
tp2866
F0.0005627462014631402
s(S'power'
p2867
S'metal'
p2868
S'band'
p2869
tp2870
F0.0028137310073157004
s(S'had'
p2871
S'worked'
p2872
S'out'
p2873
tp2874
F0.0005627462014631402
s(S'being'
p2875
S'signed'
p2876
S'by'
p2877
tp2878
F0.0005627462014631402
s(S'was'
p2879
g13
g14
tp2880
F0.0005627462014631402
s(g2560
g2561
S'on'
p2881
tp2882
F0.0005627462014631402
s(S'[[adj]]'
p2883
S'album'
p2884
S'on'
p2885
tp2886
F0.0016882386043894203
s(g305
g2395
g423
tp2887
F0.0005627462014631402
s(S'also'
p2888
S'played'
p2889
S'on'
p2890
tp2891
F0.0005627462014631402
s(S'is'
p2892
S'played'
p2893
S'in'
p2894
tp2895
F0.0005627462014631402
s(S'was'
p2896
S'leaving'
p2897
S'[[det]]'
p2898
tp2899
F0.0005627462014631402
s(S'[[adj]]'
p2900
S'album'
p2901
S'after'
p2902
tp2903
F0.0005627462014631402
s(g2395
g423
g424
tp2904
F0.0005627462014631402
s(S'album'
p2905
g2504
g2505
tp2906
F0.0011254924029262803
s(S'[[det]]'
p2907
S'debut'
p2908
S'at'
p2909
tp2910
F0.0005627462014631402
s(S'also'
p2911
S'appeared'
p2912
S'of'
p2913
tp2914
F0.0005627462014631402
s(S'[[con]]'
p2915
S'returned'
p2916
S'at'
p2917
tp2918
F0.0005627462014631402
s(g2719
g2720
S'for'
p2919
tp2920
F0.0011254924029262803
s(S'to'
p2921
S'[[adj]]'
p2922
S'deal'
p2923
tp2924
F0.0005627462014631402
s(S'has'
p2925
S'worked'
p2926
S'on'
p2927
tp2928
F0.0005627462014631402
s(S'had'
p2929
S'started'
p2930
S'at'
p2931
tp2932
F0.0005627462014631402
s(g14
g15
S'by'
p2933
tp2934
F0.0005627462014631402
s(S'be'
p2935
S'signed'
p2936
S'by'
p2937
tp2938
F0.0005627462014631402
s(S'[[num]]'
p2939
S'record'
p2940
S'[[con]]'
p2941
tp2942
F0.0005627462014631402
s(S'[[det]]'
p2943
g1064
g1065
tp2944
F0.0016882386043894203
s(S'[[det]]'
p2945
S'founder'
p2946
S'[[con]]'
p2947
tp2948
F0.0005627462014631402
s(S'also'
p2949
S'featured'
p2950
S'as'
p2951
tp2952
F0.0005627462014631402
s(S'is'
p2953
S'signed'
p2954
S'with'
p2955
tp2956
F0.0005627462014631402
s(S'later'
p2957
S'released'
p2958
S'to'
p2959
tp2960
F0.0005627462014631402
s(g1231
g535
g536
tp2961
F0.0011254924029262803
s(S'have'
p2962
S'played'
p2963
S'in'
p2964
tp2965
F0.0005627462014631402
s(g461
S'debut'
p2966
S'for'
p2967
tp2968
F0.0005627462014631402
s(S'had'
p2969
S'resigned'
p2970
S'from'
p2971
tp2972
F0.0005627462014631402
s(S'[[det]]'
p2973
S'founder'
p2974
S'of'
p2975
tp2976
F0.0005627462014631402
s(S'[[adj]]'
p2977
S'album'
p2978
S'of'
p2979
tp2980
F0.0005627462014631402
s(S'studio'
p2981
S'album'
p2982
S'for'
p2983
tp2984
F0.0005627462014631402
s(S'which'
p2985
S'received'
p2986
S'[[det]]'
p2987
tp2988
F0.0005627462014631402
s(S'was'
p2989
S'hired'
p2990
S'for'
p2991
tp2992
F0.0005627462014631402
s(S'also'
p2993
S'worked'
p2994
S'for'
p2995
tp2996
F0.0005627462014631402
s(g1900
g2641
S'[[con]]'
p2997
tp2998
F0.0028137310073157004
s(S'later'
p2999
S'received'
p3000
S'[[det]]'
p3001
tp3002
F0.0005627462014631402
s(g1085
g1086
S'[[adj]]'
p3003
tp3004
F0.0005627462014631402
s(g1796
g1797
S'by'
p3005
tp3006
F0.0016882386043894203
s(g1427
g1428
S'label'
p3007
tp3008
F0.0005627462014631402
s(S'also'
p3009
S'appeared'
p3010
S'before'
p3011
tp3012
F0.0005627462014631402
s(S'to'
p3013
S'audition'
p3014
S'for'
p3015
tp3016
F0.0005627462014631402
s(g461
S'stay'
p3017
S'with'
p3018
tp3019
F0.0005627462014631402
s(g1660
g1661
S'to'
p3020
tp3021
F0.0011254924029262803
s(S'were'
p3022
S'released'
p3023
S'by'
p3024
tp3025
F0.0005627462014631402
s(S'then'
p3026
S'left'
p3027
S'[[det]]'
p3028
tp3029
F0.0005627462014631402
s(S'has'
p3030
S'appeared'
p3031
S'[[con]]'
p3032
tp3033
F0.0005627462014631402
s(g2819
g2820
S'contract'
p3034
tp3035
F0.0005627462014631402
s(S'album'
p3036
S'from'
p3037
S'[[adj]]'
p3038
tp3039
F0.0011254924029262803
s(S'later'
p3040
S'appeared'
p3041
S'as'
p3042
tp3043
F0.0005627462014631402
s(S'[[det]]'
p3044
S'album'
p3045
S'to'
p3046
tp3047
F0.0005627462014631402
s(S'has'
p3048
S'signed'
p3049
S'on'
p3050
tp3051
F0.0005627462014631402
s(S'was'
p3052
S'dropped'
p3053
S'for'
p3054
tp3055
F0.0005627462014631402
s(S'also'
p3056
S'worked'
p3057
S'during'
p3058
tp3059
F0.0005627462014631402
s(g2774
g2775
S'for'
p3060
tp3061
F0.0005627462014631402
s(S'metal'
p3062
S'band'
p3063
S'album'
p3064
tp3065
F0.0005627462014631402
s(S'was'
p3066
S'released'
p3067
S'through'
p3068
tp3069
F0.0011254924029262803
s(S'[[con]]'
p3070
S'debut'
p3071
S'against'
p3072
tp3073
F0.0005627462014631402
s(S'was'
p3074
S'transferred'
p3075
S'back'
p3076
tp3077
F0.0005627462014631402
s(S'[[num]]'
p3078
S'albums'
p3079
S'[[num]]'
p3080
tp3081
F0.0005627462014631402
s(g2770
g2771
S'by'
p3082
tp3083
F0.0005627462014631402
s(S'then'
p3084
S'moved'
p3085
S'back'
p3086
tp3087
F0.0005627462014631402
s(S'had'
p3088
S'moved'
p3089
S'on'
p3090
tp3091
F0.0005627462014631402
s(S'was'
p3092
S'signed'
p3093
S'from'
p3094
tp3095
F0.0005627462014631402
s(S'was'
p3096
S'featured'
p3097
S'on'
p3098
tp3099
F0.0005627462014631402
s(S'[[adj]]'
p3100
S'release'
p3101
S'with'
p3102
tp3103
F0.0005627462014631402
s(S'[[con]]'
p3104
S'appeared'
p3105
S'in'
p3106
tp3107
F0.0005627462014631402
s(S'later'
p3108
g2675
g461
tp3109
F0.0005627462014631402
s(S'is'
p3110
S'transferred'
p3111
S'to'
p3112
tp3113
F0.0005627462014631402
s(S'had'
p3114
S'[[adj]]'
p3115
S'record'
p3116
tp3117
F0.0005627462014631402
s(S'[[con]]'
p3118
S'worked'
p3119
S'for'
p3120
tp3121
F0.0005627462014631402
s(S'then'
p3122
S'joined'
p3123
S'on'
p3124
tp3125
F0.0005627462014631402
s(S'been'
p3126
S'assigned'
p3127
S'to'
p3128
tp3129
F0.0005627462014631402
s(S'were'
p3130
S'released'
p3131
S'on'
p3132
tp3133
F0.0005627462014631402
s(S'later'
p3134
S'released'
p3135
S'as'
p3136
tp3137
F0.0005627462014631402
s(g1737
g1738
g3114
tp3138
F0.0005627462014631402
s(g509
S'times'
p3139
S'by'
p3140
tp3141
F0.0005627462014631402
s(S'had'
p3142
S'appeared'
p3143
S'on'
p3144
tp3145
F0.0005627462014631402
s(S'then'
p3146
S'worked'
p3147
S'during'
p3148
tp3149
F0.0005627462014631402
s(S'be'
p3150
S'released'
p3151
S'in'
p3152
tp3153
F0.0011254924029262803
s(S'then'
p3154
S'moved'
p3155
S'into'
p3156
tp3157
F0.0005627462014631402
s(S'later'
p3158
S'joined'
p3159
S'as'
p3160
tp3161
F0.0005627462014631402
s(S'[[adj]]'
p3162
S'signing'
p3163
S'for'
p3164
tp3165
F0.0005627462014631402
s(S'[[adj]]'
p3166
S'labels'
p3167
S'[[adj]]'
p3168
tp3169
F0.0011254924029262803
s(S'then'
p3170
S'worked'
p3171
S'[[det]]'
p3172
tp3173
F0.0005627462014631402
s(S'[[adj]]'
p3174
S'contract'
p3175
S'for'
p3176
tp3177
F0.0011254924029262803
s(S'[[adj]]'
p3178
S'success'
p3179
S'with'
p3180
tp3181
F0.0005627462014631402
s(g1099
g1100
S'metal'
p3182
tp3183
F0.0005627462014631402
s(S'signed'
p3184
g2855
g2856
tp3185
F0.0016882386043894203
s(S'had'
p3186
S'worked'
p3187
S'in'
p3188
tp3189
F0.0005627462014631402
s(g2431
g2432
S'metal'
p3190
tp3191
F0.0016882386043894203
s(S'first'
p3192
S'joined'
p3193
S'[[con]]'
p3194
tp3195
F0.0005627462014631402
s(g981
g982
g1012
tp3196
F0.0005627462014631402
s(S'also'
p3197
S'received'
p3198
S'[[det]]'
p3199
tp3200
F0.0005627462014631402
s(S'also'
p3201
S'appeared'
p3202
S'[[con]]'
p3203
tp3204
F0.0005627462014631402
s(g181
g85
g86
tp3205
F0.0005627462014631402
s(g1035
g1036
S'by'
p3206
tp3207
F0.0011254924029262803
s(S'by'
p3208
g1105
g1106
tp3209
F0.0016882386043894203
s(S'was'
p3210
S'moved'
p3211
S'for'
p3212
tp3213
F0.0005627462014631402
s(S'[[num]]'
p3214
S'album'
p3215
S'with'
p3216
tp3217
F0.0005627462014631402
s(S'later'
p3218
S'appeared'
p3219
S'[[con]]'
p3220
tp3221
F0.0005627462014631402
s(S'is'
p3222
S'leaving'
p3223
S'for'
p3224
tp3225
F0.0005627462014631402
s(S'[[adj]]'
p3226
S'released'
p3227
S'through'
p3228
tp3229
F0.0005627462014631402
s(S'was'
p3230
S'hired'
p3231
S'from'
p3232
tp3233
F0.0005627462014631402
s(S'is'
p3234
S'featured'
p3235
S'as'
p3236
tp3237
F0.0005627462014631402
s(S'[[adj]]'
p3238
S'album'
p3239
S'released'
p3240
tp3241
F0.004501969611705121
s(S'also'
p3242
S'appeared'
p3243
g461
tp3244
F0.0005627462014631402
s(S'later'
p3245
S'worked'
p3246
S'for'
p3247
tp3248
F0.0005627462014631402
s(S'recorded'
p3249
S'[[con]]'
p3250
S'released'
p3251
tp3252
F0.0022509848058525606
s(S'[[num]]'
p3253
S'album'
p3254
S'released'
p3255
tp3256
F0.0011254924029262803
s(S'to'
p3257
S'leave'
p3258
S'for'
p3259
tp3260
F0.0005627462014631402
s(S'album'
p3261
S'by'
p3262
S'alternative'
p3263
tp3264
F0.0011254924029262803
s(S'before'
p3265
S'leaving'
p3266
S'[[det]]'
p3267
tp3268
F0.0005627462014631402
s(S'was'
p3269
S'dropped'
p3270
S'from'
p3271
tp3272
F0.0005627462014631402
s(g1804
g1805
S'released'
p3273
tp3274
F0.0028137310073157004
s(S'[[con]]'
p3275
S'joined'
p3276
S'at'
p3277
tp3278
F0.0005627462014631402
s(S'[[adj]]'
p3279
S'contract'
p3280
S'by'
p3281
tp3282
F0.0011254924029262803
s(g3262
g3263
S'rock'
p3283
tp3284
F0.0016882386043894203
s(S'also'
p3285
S'released'
p3286
S'by'
p3287
tp3288
F0.0005627462014631402
s(S'album'
p3289
g17
g18
tp3290
F0.0028137310073157004
s(S'[[adj]]'
p3291
S'appeared'
p3292
S'on'
p3293
tp3294
F0.0005627462014631402
s(S'[[con]]'
p3295
S'appeared'
p3296
S'at'
p3297
tp3298
F0.0005627462014631402
s(S'also'
p3299
S'signed'
p3300
S'with'
p3301
tp3302
F0.0005627462014631402
s(S'later'
p3303
S'received'
p3304
S'[[con]]'
p3305
tp3306
F0.0005627462014631402
s(S'has'
p3307
S'appeared'
p3308
S'in'
p3309
tp3310
F0.0005627462014631402
s(S'also'
p3311
S'recorded'
p3312
S'[[prp]]'
p3313
tp3314
F0.0005627462014631402
s(S'was'
p3315
S'signed'
p3316
S'in'
p3317
tp3318
F0.0005627462014631402
s(S'[[adj]]'
p3319
S'released'
p3320
S'under'
p3321
tp3322
F0.0011254924029262803
s(S'to'
p3323
S'stay'
p3324
S'at'
p3325
tp3326
F0.0005627462014631402
s(g452
g453
S'contract'
p3327
tp3328
F0.0016882386043894203
s(S'never'
p3329
S'left'
p3330
S'[[det]]'
p3331
tp3332
F0.0005627462014631402
s(g461
S'label'
p3333
S'[[con]]'
p3334
tp3335
F0.0005627462014631402
s(g606
g607
S'to'
p3336
tp3337
F0.0005627462014631402
s(g2922
g2923
S'with'
p3338
tp3339
F0.0033764772087788407
s(S'[[adj]]'
p3340
S'recorded'
p3341
S'at'
p3342
tp3343
F0.0005627462014631402
s(S'[[adj]]'
p3344
S'appeared'
p3345
S'as'
p3346
tp3347
F0.0005627462014631402
s(S'later'
p3348
S'recorded'
p3349
S'for'
p3350
tp3351
F0.0005627462014631402
s(S'was'
p3352
S'assigned'
p3353
S'as'
p3354
tp3355
F0.0005627462014631402
s(S'[[adj]]'
p3356
S'issued'
p3357
S'[[con]]'
p3358
tp3359
F0.0005627462014631402
s(S'recorded'
p3360
g2708
g2709
tp3361
F0.0016882386043894203
s(S'then'
p3362
S'received'
p3363
S'at'
p3364
tp3365
F0.0005627462014631402
s(S'[[adj]]'
p3366
S'album'
p3367
S'for'
p3368
tp3369
F0.0028137310073157004
s(g508
g509
g3139
tp3370
F0.0005627462014631402
s(S'again'
p3371
S'appeared'
p3372
S'on'
p3373
tp3374
F0.0005627462014631402
s(S'has'
p3375
S'appeared'
p3376
S'[[adj]]'
p3377
tp3378
F0.0005627462014631402
s(S'now'
p3379
S'signed'
p3380
S'with'
p3381
tp3382
F0.0005627462014631402
s(S'[[adj]]'
p3383
g3289
g17
tp3384
F0.0005627462014631402
s(S'also'
p3385
S'joined'
p3386
S'as'
p3387
tp3388
F0.0005627462014631402
s(S'by'
p3389
S'indie'
p3390
S'rock'
p3391
tp3392
F0.0033764772087788407
s(S'[[prp]]'
p3393
S'debut'
p3394
S'against'
p3395
tp3396
F0.0005627462014631402
s(g461
S'recording'
p3397
S'with'
p3398
tp3399
F0.0005627462014631402
s(g1379
g1380
S'label'
p3400
tp3401
F0.0011254924029262803
s(S'was'
p3402
S'spotted'
p3403
S'by'
p3404
tp3405
F0.0005627462014631402
s(S'[[det]]'
p3406
S'received'
p3407
S'from'
p3408
tp3409
F0.0005627462014631402
s(g461
S'worked'
p3410
S'for'
p3411
tp3412
F0.0005627462014631402
s(S'released'
p3413
g1
g2
tp3414
F0.0016882386043894203
s(g3390
g3391
S'band'
p3415
tp3416
F0.0033764772087788407
s(g461
S'[[adj]]'
p3417
S'release'
p3418
tp3419
F0.0005627462014631402
s(S'before'
p3420
S'moved'
p3421
S'to'
p3422
tp3423
F0.0005627462014631402
s(S'then'
p3424
S'signed'
p3425
S'in'
p3426
tp3427
F0.0005627462014631402
s(S'currently'
p3428
S'signed'
p3429
S'with'
p3430
tp3431
F0.0005627462014631402
s(g3263
g3283
S'band'
p3432
tp3433
F0.0028137310073157004
s(S'[[det]]'
p3434
S'album'
p3435
S'from'
p3436
tp3437
F0.0005627462014631402
s(S'released'
p3438
g3044
g3045
tp3439
F0.0028137310073157004
s(S'was'
p3440
S'moved'
p3441
S'after'
p3442
tp3443
F0.0005627462014631402
s(S'has'
p3444
S'left'
p3445
S'[[con]]'
p3446
tp3447
F0.0005627462014631402
s(S'[[det]]'
p3448
S'album'
p3449
g461
tp3450
F0.0005627462014631402
s(S'also'
p3451
S'worked'
p3452
S'from'
p3453
tp3454
F0.0005627462014631402
s(S'soon'
p3455
S'left'
p3456
S'[[det]]'
p3457
tp3458
F0.0005627462014631402
s(S'who'
p3459
S'appeared'
p3460
S'on'
p3461
tp3462
F0.0005627462014631402
s(S'[[con]]'
p3463
S'joined'
p3464
S'[[adj]]'
p3465
tp3466
F0.0005627462014631402
s(S'then'
p3467
S'dropped'
p3468
S'down'
p3469
tp3470
F0.0005627462014631402
s(S'[[det]]'
p3471
g2168
g2169
tp3472
F0.0033764772087788407
s(S'released'
p3473
S'by'
p3474
S'rock'
p3475
tp3476
F0.0005627462014631402
s(S'has'
p3477
S'appeared'
p3478
S'as'
p3479
tp3480
F0.0005627462014631402
s(g424
g425
S'father'
p3481
tp3482
F0.0005627462014631402
s(S'[[adj]]'
p3483
S'received'
p3484
S'from'
p3485
tp3486
F0.0005627462014631402
s(S'also'
p3487
S'worked'
p3488
S'[[det]]'
p3489
tp3490
F0.0005627462014631402
s(g630
g631
S'signed'
p3491
tp3492
F0.0005627462014631402
s(S'later'
p3493
S'returned'
p3494
S'to'
p3495
tp3496
F0.0005627462014631402
s(S'when'
p3497
S'transferred'
p3498
S'to'
p3499
tp3500
F0.0005627462014631402
s(S'[[adj]]'
p3501
S'joined'
p3502
S'[[det]]'
p3503
tp3504
F0.0005627462014631402
s(S'[[con]]'
p3505
S'signed'
p3506
S'up'
p3507
tp3508
F0.0005627462014631402
s(S'[[det]]'
p3509
S'appeared'
p3510
S'in'
p3511
tp3512
F0.0005627462014631402
s(S'also'
p3513
S'received'
p3514
S'from'
p3515
tp3516
F0.0005627462014631402
s(S'later'
p3517
S'assigned'
p3518
S'to'
p3519
tp3520
F0.0005627462014631402
s(S'was'
p3521
S'assigned'
p3522
S'[[det]]'
p3523
tp3524
F0.0005627462014631402
s(g2014
g2015
S'for'
p3525
tp3526
F0.0005627462014631402
s(g461
S'recording'
p3527
S'contract'
p3528
tp3529
F0.0005627462014631402
s(S'has'
p3530
S'worked'
p3531
S'to'
p3532
tp3533
F0.0005627462014631402
s(g1395
g1396
S'[[det]]'
p3534
tp3535
F0.0011254924029262803
s(S'by'
p3536
g2692
g2693
tp3537
F0.0005627462014631402
s(S'has'
p3538
S'moved'
p3539
S'on'
p3540
tp3541
F0.0005627462014631402
s(g334
g335
g1253
tp3542
F0.0005627462014631402
s(g2820
g3034
S'with'
p3543
tp3544
F0.004501969611705121
s(S'[[con]]'
p3545
S'worked'
p3546
S'on'
p3547
tp3548
F0.0005627462014631402
s(S'be'
p3549
S'offered'
p3550
S'[[det]]'
p3551
tp3552
F0.0005627462014631402
s(S'signed'
p3553
g2818
g2819
tp3554
F0.0005627462014631402
s(S'later'
p3555
S'left'
p3556
S'[[det]]'
p3557
tp3558
F0.0005627462014631402
s(S'[[det]]'
p3559
S'assigned'
p3560
S'to'
p3561
tp3562
F0.0005627462014631402
s(S'has'
p3563
S'released'
p3564
S'on'
p3565
tp3566
F0.0005627462014631402
s(S'[[num]]'
p3567
S'joined'
p3568
S'[[det]]'
p3569
tp3570
F0.0005627462014631402
s(S'later'
p3571
S'hired'
p3572
S'by'
p3573
tp3574
F0.0005627462014631402
s(S'by'
p3575
S'death'
p3576
S'metal'
p3577
tp3578
F0.0011254924029262803
s(S'[[con]]'
p3579
S'signed'
p3580
S'[[det]]'
p3581
tp3582
F0.0011254924029262803
s(S'to'
p3583
S'sign'
p3584
S'[[pro]]'
p3585
tp3586
F0.0005627462014631402
s(S'[[con]]'
p3587
S'joined'
p3588
S'[[con]]'
p3589
tp3590
F0.0005627462014631402
s(S'was'
p3591
S'signed'
p3592
S'[[con]]'
p3593
tp3594
F0.0005627462014631402
s(S'had'
p3595
S'signed'
p3596
S'[[det]]'
p3597
tp3598
F0.0028137310073157004
s(S'since'
p3599
S'worked'
p3600
S'for'
p3601
tp3602
F0.0005627462014631402
s(S'which'
p3603
S'played'
p3604
S'in'
p3605
tp3606
F0.0005627462014631402
s(S'[[det]]'
p3607
g1454
g1455
tp3608
F0.0022509848058525606
s(g3550
g3551
g3279
tp3609
F0.0016882386043894203
s(S'been'
p3610
S'featured'
p3611
S'on'
p3612
tp3613
F0.0005627462014631402
s(S'also'
p3614
S'appeared'
p3615
S'in'
p3616
tp3617
F0.0005627462014631402
s(S'was'
p3618
S'received'
p3619
S'into'
p3620
tp3621
F0.0005627462014631402
s(S'[[adj]]'
p3622
S'success'
p3623
S'at'
p3624
tp3625
F0.0005627462014631402
s(S'album'
p3626
g1172
g1173
tp3627
F0.0028137310073157004
s(S'by'
p3628
S'signing'
p3629
S'to'
p3630
tp3631
F0.0005627462014631402
s(S'also'
p3632
S'recorded'
p3633
S'for'
p3634
tp3635
F0.0011254924029262803
s(S'later'
p3636
S'worked'
p3637
S'[[con]]'
p3638
tp3639
F0.0005627462014631402
s(g3565
g3166
g3167
tp3640
F0.0005627462014631402
s(S'[[det]]'
p3641
g2783
g2784
tp3642
F0.0028137310073157004
s(g2432
g3190
S'band'
p3643
tp3644
F0.005064715813168261
s(S'to'
p3645
S'stay'
p3646
S'with'
p3647
tp3648
F0.0005627462014631402
s(g1001
g1002
g1035
tp3649
F0.0028137310073157004
s(g2298
g2299
S'released'
p3650
tp3651
F0.007315700619020821
s(S'have'
p3652
S'appeared'
p3653
S'on'
p3654
tp3655
F0.0005627462014631402
s(S'was'
p3656
S'signed'
p3657
S'by'
p3658
tp3659
F0.0016882386043894203
s(g180
g181
g85
tp3660
F0.0005627462014631402
s(S'[[adj]]'
p3661
S'record'
p3662
S'while'
p3663
tp3664
F0.0005627462014631402
s(S'[[con]]'
p3665
S'worked'
p3666
S'[[con]]'
p3667
tp3668
F0.0005627462014631402
s(S'been'
p3669
S'signed'
p3670
S'from'
p3671
tp3672
F0.0005627462014631402
s(S'[[det]]'
p3673
S'contract'
p3674
S'at'
p3675
tp3676
F0.0005627462014631402
s(S'was'
p3677
S'resigned'
p3678
S'by'
p3679
tp3680
F0.0005627462014631402
s(S'since'
p3681
S'appeared'
p3682
S'in'
p3683
tp3684
F0.0005627462014631402
s(S'being'
p3685
S'released'
p3686
S'from'
p3687
tp3688
F0.0005627462014631402
s(S'has'
p3689
S'received'
p3690
S'[[num]]'
p3691
tp3692
F0.0005627462014631402
s(S'[[det]]'
p3693
g571
g69
tp3694
F0.0011254924029262803
s(g460
g461
g3417
tp3695
F0.0011254924029262803
s(S'signed'
p3696
g1360
g1237
tp3697
F0.0011254924029262803
s(S'[[prp]]'
p3698
S'debut'
p3699
S'for'
p3700
tp3701
F0.0005627462014631402
s(S'[[adj]]'
p3702
S'album'
p3703
S'at'
p3704
tp3705
F0.0005627462014631402
s(S'[[con]]'
p3706
S'left'
p3707
S'to'
p3708
tp3709
F0.0005627462014631402
s(g3239
g3240
S'by'
p3710
tp3711
F0.009566685424873381
s(S'[[adj]]'
p3712
S'debut'
p3713
S'to'
p3714
tp3715
F0.0005627462014631402
s(S'released'
p3716
S'by'
p3717
S'label'
p3718
tp3719
F0.0005627462014631402
s(S'[[det]]'
p3720
g1046
g1047
tp3721
F0.0005627462014631402
s(S'first'
p3722
S'joined'
p3723
S'[[det]]'
p3724
tp3725
F0.0005627462014631402
s(S'also'
p3726
g1976
g1394
tp3727
F0.0005627462014631402
s(S'was'
p3728
S'issued'
p3729
S'by'
p3730
tp3731
F0.0005627462014631402
s(S'later'
p3732
S'worked'
p3733
S'at'
p3734
tp3735
F0.0005627462014631402
s(S'when'
p3736
S'left'
p3737
S'[[det]]'
p3738
tp3739
F0.0005627462014631402
s(S'[[adj]]'
p3740
S'compilation'
p3741
S'album'
p3742
tp3743
F0.0005627462014631402
s(S'also'
p3744
S'signed'
p3745
S'[[det]]'
p3746
tp3747
F0.0005627462014631402
s(S'recorded'
p3748
S'[[det]]'
p3749
S'[[adj]]'
p3750
tp3751
F0.0005627462014631402
s(S'was'
p3752
S'leaving'
p3753
S'with'
p3754
tp3755
F0.0005627462014631402
s(S'album'
p3756
g2571
g2303
tp3757
F0.008441193021947102
s(S'[[adj]]'
p3758
S'album'
p3759
S'with'
p3760
tp3761
F0.0005627462014631402
s(g3037
g3038
S'rock'
p3762
tp3763
F0.0011254924029262803
s(S'was'
p3764
S'released'
p3765
S'at'
p3766
tp3767
F0.0005627462014631402
s(S'[[det]]'
p3768
S'[[num]]'
p3769
S'deal'
p3770
tp3771
F0.0005627462014631402
s(S'[[adj]]'
p3772
g1795
g1796
tp3773
F0.0005627462014631402
s(g461
S'record'
p3774
S'label'
p3775
tp3776
F0.0005627462014631402
s(S'[[con]]'
p3777
S'started'
p3778
S'[[det]]'
p3779
tp3780
F0.0005627462014631402
s(g1039
g1040
S'band'
p3781
tp3782
F0.0022509848058525606
s(S'was'
p3783
S'reissued'
p3784
S'by'
p3785
tp3786
F0.0005627462014631402
s(g1738
g3114
g3115
tp3787
F0.0005627462014631402
s(S'later'
p3788
S'signed'
p3789
S'for'
p3790
tp3791
F0.0005627462014631402
s(S'then'
p3792
S'worked'
p3793
S'[[con]]'
p3794
tp3795
F0.0005627462014631402
s(S'formerly'
p3796
S'worked'
p3797
S'on'
p3798
tp3799
F0.0005627462014631402
s(S'who'
p3800
S'worked'
p3801
S'in'
p3802
tp3803
F0.0005627462014631402
s(S'not'
p3804
S'played'
p3805
S'in'
p3806
tp3807
F0.0005627462014631402
s(S'by'
p3808
S'[[adj]]'
p3809
S'band'
p3810
tp3811
F0.0011254924029262803
s(S'had'
p3812
S'played'
p3813
S'[[con]]'
p3814
tp3815
F0.0005627462014631402
s(S'originally'
p3816
S'released'
p3817
S'by'
p3818
tp3819
F0.0005627462014631402
s(S'[[num]]'
p3820
S'compilation'
p3821
S'album'
p3822
tp3823
F0.0005627462014631402
s(S'then'
p3824
S'moved'
p3825
S'to'
p3826
tp3827
F0.0005627462014631402
s(S'be'
p3828
S'returned'
p3829
S'to'
p3830
tp3831
F0.0005627462014631402
s(S'was'
p3832
S'transferred'
p3833
S'for'
p3834
tp3835
F0.0005627462014631402
s(g461
S'[[adj]]'
p3836
S'album'
p3837
tp3838
F0.0005627462014631402
s(S'since'
p3839
S'left'
p3840
S'[[det]]'
p3841
tp3842
F0.0005627462014631402
s(S'landed'
p3843
S'[[det]]'
p3844
S'record'
p3845
tp3846
F0.0005627462014631402
s(S'signed'
p3847
S'[[adj]]'
p3848
S'deal'
p3849
tp3850
F0.0005627462014631402
s(S'to'
p3851
S'signing'
p3852
S'for'
p3853
tp3854
F0.0005627462014631402
s(S'had'
p3855
S'played'
p3856
S'[[adj]]'
p3857
tp3858
F0.0005627462014631402
s(g343
g2806
S'released'
p3859
tp3860
F0.0005627462014631402
s(S'released'
p3861
S'[[con]]'
p3862
S'internationally'
p3863
tp3864
F0.0005627462014631402
s(S'[[num]]'
p3865
S'worked'
p3866
S'for'
p3867
tp3868
F0.0005627462014631402
s(S'album'
p3869
S'by'
p3870
g2867
tp3871
F0.0016882386043894203
s(S'[[det]]'
p3872
S'cofounder'
p3873
S'[[con]]'
p3874
tp3875
F0.0005627462014631402
s(S'[[adj]]'
p3876
S'album'
p3877
S'that'
p3878
tp3879
F0.0005627462014631402
s(S'has'
p3880
S'joined'
p3881
S'[[det]]'
p3882
tp3883
F0.0005627462014631402
s(S'has'
p3884
S'worked'
p3885
S'[[det]]'
p3886
tp3887
F0.0005627462014631402
s(S'[[con]]'
p3888
S'played'
p3889
S'at'
p3890
tp3891
F0.0005627462014631402
s(S'was'
p3892
S'joined'
p3893
S'[[det]]'
p3894
tp3895
F0.0005627462014631402
s(S'[[adj]]'
p3896
S'released'
p3897
S'on'
p3898
tp3899
F0.0016882386043894203
s(S'found'
p3900
S'success'
p3901
S'in'
p3902
tp3903
F0.0005627462014631402
s(g1285
g1286
S'on'
p3904
tp3905
F0.0005627462014631402
s(S'were'
p3906
S'signed'
p3907
S'from'
p3908
tp3909
F0.0005627462014631402
s(S'released'
p3910
g1472
g1473
tp3911
F0.0033764772087788407
s(S'was'
p3912
S'signed'
p3913
S'at'
p3914
tp3915
F0.0005627462014631402
s(S'to'
p3916
S'[[adj]]'
p3917
S'record'
p3918
tp3919
F0.0005627462014631402
s(S'had'
p3920
S'joined'
p3921
S'of'
p3922
tp3923
F0.0005627462014631402
s(S'later'
p3924
S'signed'
p3925
S'to'
p3926
tp3927
F0.0005627462014631402
s(S'[[con]]'
p3928
S'received'
p3929
S'at'
p3930
tp3931
F0.0005627462014631402
s(S'has'
p3932
S'played'
p3933
S'on'
p3934
tp3935
F0.0005627462014631402
s(S'later'
p3936
S'left'
p3937
S'for'
p3938
tp3939
F0.0005627462014631402
s(S'has'
p3940
S'appeared'
p3941
S'to'
p3942
tp3943
F0.0005627462014631402
s(S'was'
p3944
g3249
g3250
tp3945
F0.0022509848058525606
s(S'recorded'
p3946
S'[[con]]'
p3947
S'was'
p3948
tp3949
F0.0011254924029262803
s(S'[[adj]]'
p3950
S'released'
p3951
S'at'
p3952
tp3953
F0.0005627462014631402
s(S'[[adj]]'
p3954
g2017
g2018
tp3955
F0.0011254924029262803
s(S'was'
p3956
g1226
g1227
tp3957
F0.0016882386043894203
s(S'also'
p3958
S'appeared'
p3959
S'twice'
p3960
tp3961
F0.0005627462014631402
s(S'[[mod]]'
p3962
S'leave'
p3963
S'[[det]]'
p3964
tp3965
F0.0005627462014631402
s(S'debut'
p3966
S'album'
p3967
S'by'
p3968
tp3969
F0.0061902082160945416
s(g2380
g2381
S'band'
p3970
tp3971
F0.0011254924029262803
s(S'[[adj]]'
p3972
S'recordings'
p3973
S'on'
p3974
tp3975
F0.0005627462014631402
s(S'until'
p3976
S'joined'
p3977
S'[[det]]'
p3978
tp3979
F0.0005627462014631402
s(S'also'
p3980
S'appeared'
p3981
S'[[num]]'
p3982
tp3983
F0.0005627462014631402
s(S'album'
p3984
g3575
g3576
tp3985
F0.0011254924029262803
s(S'also'
p3986
S'released'
p3987
S'in'
p3988
tp3989
F0.0005627462014631402
s(g3870
g2867
g2868
tp3990
F0.0022509848058525606
s(S'has'
p3991
S'received'
p3992
S'from'
p3993
tp3994
F0.0005627462014631402
s(S'[[con]]'
p3995
S'released'
p3996
S'on'
p3997
tp3998
F0.0011254924029262803
s(S'album'
p3999
g471
g472
tp4000
F0.0005627462014631402
s(S'then'
p4001
S'worked'
p4002
S'at'
p4003
tp4004
F0.0005627462014631402
s(S'was'
p4005
S'moved'
p4006
S'back'
p4007
tp4008
F0.0005627462014631402
s(S'also'
p4009
S'appeared'
p4010
S'as'
p4011
tp4012
F0.0005627462014631402
s(g3862
g3863
S'by'
p4013
tp4014
F0.0005627462014631402
s(S'also'
p4015
S'appeared'
p4016
S'[[det]]'
p4017
tp4018
F0.0005627462014631402
s(S'later'
p4019
S'hired'
p4020
S'at'
p4021
tp4022
F0.0005627462014631402
s(S'been'
p4023
S'featured'
p4024
S'[[det]]'
p4025
tp4026
F0.0005627462014631402
s(S'released'
p4027
S'on'
p4028
S'label'
p4029
tp4030
F0.0005627462014631402
s(S'has'
p4031
S'remained'
p4032
S'at'
p4033
tp4034
F0.0005627462014631402
s(S'was'
p4035
S'signed'
p4036
S'as'
p4037
tp4038
F0.0005627462014631402
s(g3769
g3770
S'with'
p4039
tp4040
F0.0005627462014631402
s(S'again'
p4041
S'joined'
p4042
S'[[det]]'
p4043
tp4044
F0.0005627462014631402
s(S'[[det]]'
p4045
S'contract'
p4046
S'for'
p4047
tp4048
F0.0005627462014631402
s(S'recorded'
p4049
S'[[det]]'
p4050
S'solo'
p4051
tp4052
F0.0005627462014631402
s(S'also'
p4053
S'released'
p4054
S'[[det]]'
p4055
tp4056
F0.0011254924029262803
s(S'again'
p4057
S'played'
p4058
S'in'
p4059
tp4060
F0.0005627462014631402
s(S'[[con]]'
p4061
S'received'
p4062
S'in'
p4063
tp4064
F0.0005627462014631402
s(S'[[mod]]'
p4065
S'leave'
p4066
S'for'
p4067
tp4068
F0.0005627462014631402
s(S'then'
p4069
S'returned'
p4070
S'where'
p4071
tp4072
F0.0005627462014631402
s(g2322
g984
g985
tp4073
F0.0005627462014631402
s(S'since'
p4074
S'appeared'
p4075
S'[[num]]'
p4076
tp4077
F0.0005627462014631402
s.