(dp0
(S'[[det]]'
p1
S'member'
p2
S'at'
p3
tp4
F0.0025412960609911056
s(S'as'
p5
S'[[det]]'
p6
S'mayor'
p7
tp8
F0.0012706480304955528
s(S'who'
p9
S'settled'
p10
S'in'
p11
tp12
F0.0012706480304955528
s(S'from'
p13
S'[[det]]'
p14
S'district'
p15
tp16
F0.0012706480304955528
s(S'was'
p17
S'settled'
p18
S'in'
p19
tp20
F0.0012706480304955528
s(S'[[con]]'
p21
S'served'
p22
S'with'
p23
tp24
F0.0012706480304955528
s(S'[[adj]]'
p25
S'seat'
p26
S'for'
p27
tp28
F0.0025412960609911056
s(S'[[det]]'
p29
S'politician'
p30
S'[[con]]'
p31
tp32
F0.0025412960609911056
s(S'commenced'
p33
S'practice'
p34
S'in'
p35
tp36
F0.0012706480304955528
s(S'elected'
p37
S'as'
p38
S'for'
p39
tp40
F0.0012706480304955528
s(S'married'
p41
S'[[con]]'
p42
S'returned'
p43
tp44
F0.0012706480304955528
s(S'of'
p45
S'representing'
p46
S'[[det]]'
p47
tp48
F0.0012706480304955528
s(S'[[adj]]'
p49
S'governor'
p50
S'[[det]]'
p51
tp52
F0.0012706480304955528
s(S'[[det]]'
p53
S'[[adj]]'
p54
S'race'
p55
tp56
F0.0012706480304955528
s(S'was'
p57
S'elected'
p58
S'for'
p59
tp60
F0.005082592121982211
s(S'to'
p61
S'[[det]]'
p62
S'member'
p63
tp64
F0.0025412960609911056
s(S'when'
p65
S'served'
p66
S'with'
p67
tp68
F0.0012706480304955528
s(S'candidate'
p69
S'for'
p70
S'district'
p71
tp72
F0.0012706480304955528
s(S'elected'
p73
S'[[con]]'
p74
S'[[adj]]'
p75
tp76
F0.0012706480304955528
s(S'to'
p77
S'[[adj]]'
p78
S'seat'
p79
tp80
F0.0025412960609911056
s(S'who'
p81
S'served'
p82
S'with'
p83
tp84
F0.0012706480304955528
s(S'elected'
p85
S'member'
p86
S'[[det]]'
p87
tp88
F0.0025412960609911056
s(S'[[det]]'
p89
S'seat'
p90
S'for'
p91
tp92
F0.0038119440914866584
s(S'who'
p93
S'arrived'
p94
S'in'
p95
tp96
F0.0012706480304955528
s(S'[[det]]'
p97
S'bar'
p98
S'at'
p99
tp100
F0.0012706480304955528
s(S'[[det]]'
p101
S'member'
p102
S'when'
p103
tp104
F0.0012706480304955528
s(S'[[adj]]'
p105
S'elected'
p106
S'as'
p107
tp108
F0.0012706480304955528
s(S'[[det]]'
p109
g69
g70
tp110
F0.0038119440914866584
s(S'elected'
p111
S'[[det]]'
p112
S'[[adj]]'
p113
tp114
F0.0038119440914866584
s(S'had'
p115
S'represented'
p116
S'in'
p117
tp118
F0.0012706480304955528
s(S'[[det]]'
p119
g25
g26
tp120
F0.005082592121982211
s(S'born'
p121
S'is'
p122
S'[[det]]'
p123
tp124
F0.007623888182973317
s(S'[[adj]]'
p125
S'campaign'
p126
S'in'
p127
tp128
F0.0012706480304955528
s(S'has'
p129
S'served'
p130
S'[[con]]'
p131
tp132
F0.0012706480304955528
s(S'[[con]]'
p133
S'served'
p134
S'at'
p135
tp136
F0.0012706480304955528
s(S'was'
p137
S'member'
p138
S'for'
p139
tp140
F0.0012706480304955528
s(S'nominee'
p141
S'for'
p142
S'in'
p143
tp144
F0.0012706480304955528
s(g123
S'politician'
p145
S'from'
p146
tp147
F0.0025412960609911056
s(S'since'
p148
S'served'
p149
S'in'
p150
tp151
F0.0012706480304955528
s(S'[[adj]]'
p152
S'elected'
p153
S'governor'
p154
tp155
F0.0012706480304955528
s(S'is'
p156
S'member'
p157
S'[[con]]'
p158
tp159
F0.0012706480304955528
s(S'[[num]]'
p160
S'[[con]]'
p161
S'politician'
p162
tp163
F0.0012706480304955528
s(S'later'
p164
S'represented'
p165
S'[[det]]'
p166
tp167
F0.0012706480304955528
s(S'[[con]]'
p168
S'leader'
p169
S'of'
p170
tp171
F0.0012706480304955528
s(S'[[det]]'
p172
S'byelection'
p173
S'for'
p174
tp175
F0.0012706480304955528
s(S'also'
p176
S'defeated'
p177
S'in'
p178
tp179
F0.0012706480304955528
s(S'[[det]]'
p180
S'constituency'
p181
S'of'
p182
tp183
F0.0012706480304955528
s(S'graduated'
p184
S'[[con]]'
p185
S'moved'
p186
tp187
F0.0012706480304955528
s(S'had'
p188
S'arrived'
p189
S'in'
p190
tp191
F0.0012706480304955528
s(S'[[adj]]'
p192
S'served'
p193
S'on'
p194
tp195
F0.0012706480304955528
s(S'elected'
p196
S'as'
p197
S'[[adj]]'
p198
tp199
F0.0025412960609911056
s(S'elected'
p200
g1
g2
tp201
F0.008894536213468869
s(S'[[num]]'
p202
S'served'
p203
S'as'
p204
tp205
F0.0012706480304955528
s(S'represented'
p206
S'[[det]]'
p207
S'[[adj]]'
p208
tp209
F0.0025412960609911056
s(S'[[adj]]'
p210
S'leader'
p211
S'for'
p212
tp213
F0.0012706480304955528
s(S'for'
p214
S'[[det]]'
p215
S'state'
p216
tp217
F0.0012706480304955528
s(S'was'
p218
S'representing'
p219
S'[[det]]'
p220
tp221
F0.0012706480304955528
s(S'also'
p222
S'served'
p223
S'with'
p224
tp225
F0.0012706480304955528
s(S'was'
p226
S'governor'
p227
S'[[con]]'
p228
tp229
F0.0012706480304955528
s(S'[[adj]]'
p230
S'woman'
p231
S'to'
p232
tp233
F0.0012706480304955528
s(S'where'
p234
S'entered'
p235
S'[[det]]'
p236
tp237
F0.0012706480304955528
s(S'elected'
p238
S'[[con]]'
p239
S'[[det]]'
p240
tp241
F0.0038119440914866584
s(S'[[adj]]'
p242
S'delegate'
p243
S'in'
p244
tp245
F0.0012706480304955528
s(S'[[con]]'
p246
S'served'
p247
S'to'
p248
tp249
F0.0012706480304955528
s(S'when'
p250
S'entered'
p251
S'[[det]]'
p252
tp253
F0.0012706480304955528
s(S'then'
p254
S'served'
p255
S'before'
p256
tp257
F0.0012706480304955528
s(S'has'
p258
S'served'
p259
S'[[adj]]'
p260
tp261
F0.0012706480304955528
s(S'commenced'
p262
S'[[det]]'
p263
S'practice'
p264
tp265
F0.0012706480304955528
s(S'[[con]]'
p266
S'resided'
p267
S'in'
p268
tp269
F0.0012706480304955528
s(S'contested'
p270
S'[[det]]'
p271
S'[[adj]]'
p272
tp273
F0.0025412960609911056
s(g232
S'be'
p274
S'elected'
p275
tp276
F0.0012706480304955528
s(S'again'
p277
S'served'
p278
S'with'
p279
tp280
F0.0012706480304955528
s(S'[[det]]'
p281
S'native'
p282
S'of'
p283
tp284
F0.0012706480304955528
s(S'elected'
p285
S'as'
p286
S'member'
p287
tp288
F0.0025412960609911056
s(S'also'
p289
S'served'
p290
S'[[det]]'
p291
tp292
F0.0012706480304955528
s(S'[[det]]'
p293
S'nominee'
p294
S'in'
p295
tp296
F0.0012706480304955528
s(S'had'
p297
S'served'
p298
S'to'
p299
tp300
F0.0012706480304955528
s(S'[[adj]]'
p301
S'mountain'
p302
S'range'
p303
tp304
F0.0038119440914866584
s(S'was'
p305
S'elected'
p306
g61
tp307
F0.012706480304955527
s(S'member'
p308
S'[[con]]'
p309
S'later'
p310
tp311
F0.0012706480304955528
s(S'also'
p312
S'served'
p313
S'as'
p314
tp315
F0.0012706480304955528
s(S'was'
p316
g238
g239
tp317
F0.0038119440914866584
s(S'born'
p318
S'was'
p319
S'[[det]]'
p320
tp321
F0.0012706480304955528
s(S'[[adj]]'
p322
S'member'
p323
S'as'
p324
tp325
F0.0012706480304955528
s(S'[[adj]]'
p326
S'member'
p327
S'from'
p328
tp329
F0.0012706480304955528
s(S'[[det]]'
p330
S'seat'
p331
S'on'
p332
tp333
F0.0025412960609911056
s(S'was'
p334
S'governor'
p335
S'[[det]]'
p336
tp337
F0.0012706480304955528
s(S'then'
p338
S'served'
p339
S'to'
p340
tp341
F0.0012706480304955528
s(S'is'
p342
S'[[adj]]'
p343
S'member'
p344
tp345
F0.0012706480304955528
s(S'[[num]]'
p346
S'[[adj]]'
p347
S'politician'
p348
tp349
F0.0025412960609911056
s(S'[[det]]'
p350
S'constituency'
p351
S'in'
p352
tp353
F0.0025412960609911056
s(S'then'
p354
S'elected'
p355
S'of'
p356
tp357
F0.0012706480304955528
s(S'was'
p358
S'member'
p359
S'in'
p360
tp361
F0.0012706480304955528
s(S'in'
p362
g172
g173
tp363
F0.0012706480304955528
s(S'represented'
p364
S'[[det]]'
p365
S'seat'
p366
tp367
F0.0025412960609911056
s(S's'
p368
S'campaign'
p369
S'against'
p370
tp371
F0.0012706480304955528
s(S'then'
p372
S'served'
p373
S'on'
p374
tp375
F0.0012706480304955528
s(g368
S'seat'
p376
S'in'
p377
tp378
F0.0012706480304955528
s(S'[[det]]'
p379
S'elected'
p380
S'member'
p381
tp382
F0.0038119440914866584
s(S'[[adj]]'
p383
S'member'
p384
S'[[det]]'
p385
tp386
F0.0038119440914866584
s(S'woman'
p387
S'elected'
p388
S'from'
p389
tp390
F0.0012706480304955528
s(S'became'
p391
S'leader'
p392
S'of'
p393
tp394
F0.0012706480304955528
s(S'[[num]]'
p395
S'[[det]]'
p396
S'politician'
p397
tp398
F0.005082592121982211
s(S'first'
p399
S'served'
p400
S'in'
p401
tp402
F0.0012706480304955528
s(S'has'
p403
S'served'
p404
S'with'
p405
tp406
F0.0012706480304955528
s(S'[[pro]]'
p407
S'served'
p408
S'in'
p409
tp410
F0.0012706480304955528
s(S'[[det]]'
p411
S'bar'
p412
S'in'
p413
tp414
F0.0025412960609911056
s(S'later'
p415
S'served'
p416
S'as'
p417
tp418
F0.0012706480304955528
s(g231
g232
g274
tp419
F0.0012706480304955528
s(g306
g61
g62
tp420
F0.0063532401524777635
s(g185
g186
S'to'
p421
tp422
F0.0012706480304955528
s(S'later'
p423
S'served'
p424
S'from'
p425
tp426
F0.0012706480304955528
s(g58
g59
S'[[det]]'
p427
tp428
F0.005082592121982211
s(S'[[adj]]'
p429
S'member'
p430
S'during'
p431
tp432
F0.0012706480304955528
s(S'[[prp]]'
p433
S'[[adj]]'
p434
S'race'
p435
tp436
F0.0012706480304955528
s(S'formerly'
p437
S'served'
p438
S'to'
p439
tp440
F0.0012706480304955528
s(S'member'
p441
S'for'
p442
S'[[det]]'
p443
tp444
F0.0025412960609911056
s(g368
S'home'
p445
S'state'
p446
tp447
F0.0012706480304955528
s(S'[[det]]'
p448
S'member'
p449
S'from'
p450
tp451
F0.0025412960609911056
s(S'[[det]]'
p452
S'member'
p453
S'which'
p454
tp455
F0.0012706480304955528
s(g239
g240
S'member'
p456
tp457
F0.0038119440914866584
s(S'was'
p458
S'served'
p459
S'as'
p460
tp461
F0.0012706480304955528
s(S'was'
p462
S'leader'
p463
S'[[con]]'
p464
tp465
F0.0012706480304955528
s(S'member'
p466
S'of'
p467
S'[[det]]'
p468
tp469
F0.0025412960609911056
s(S'who'
p470
S'served'
p471
S'in'
p472
tp473
F0.0012706480304955528
s(S'of'
p474
S'[[det]]'
p475
S'representing'
p476
tp477
F0.0012706480304955528
s(S'first'
p478
S'arrived'
p479
S'in'
p480
tp481
F0.0012706480304955528
s(S'also'
p482
S'stood'
p483
S'for'
p484
tp485
F0.0012706480304955528
s(S'also'
p486
S'member'
p487
S'[[con]]'
p488
tp489
F0.0012706480304955528
s(S'also'
p490
S'stood'
p491
S'against'
p492
tp493
F0.0012706480304955528
s(g30
g31
S'[[det]]'
p494
tp495
F0.0012706480304955528
s(S'is'
p496
S'elected'
p497
S'mayor'
p498
tp499
F0.0012706480304955528
s(S'first'
p500
S'entered'
p501
S'[[det]]'
p502
tp503
F0.0012706480304955528
s(S'been'
p504
S'elected'
p505
S'as'
p506
tp507
F0.0012706480304955528
s(S'to'
p508
S'represent'
p509
S'[[con]]'
p510
tp511
F0.0012706480304955528
s(S'have'
p512
S'served'
p513
S'in'
p514
tp515
F0.0012706480304955528
s(S'has'
p516
S'served'
p517
S'as'
p518
tp519
F0.0012706480304955528
s(S'also'
p520
S'served'
p521
S'at'
p522
tp523
F0.0012706480304955528
s(S'home'
p524
S'state'
p525
S'of'
p526
tp527
F0.0038119440914866584
s(S'[[det]]'
p528
S'member'
p529
S'[[det]]'
p530
tp531
F0.007623888182973317
s(S'[[num]]'
p532
S'race'
p533
S'in'
p534
tp535
F0.0012706480304955528
s(S'later'
p536
S'served'
p537
S'with'
p538
tp539
F0.0012706480304955528
s(S'is'
p540
S'elected'
p541
S'[[det]]'
p542
tp543
F0.0012706480304955528
s(g198
S'member'
p544
S'of'
p545
tp546
F0.0063532401524777635
s(S'[[prp]]'
p547
g524
g525
tp548
F0.0012706480304955528
s(S'also'
p549
S'served'
p550
S'in'
p551
tp552
F0.0012706480304955528
s(S'[[det]]'
p553
S'member'
p554
S'of'
p555
tp556
F0.017789072426937738
s(S'formerly'
p557
S'served'
p558
S'at'
p559
tp560
F0.0012706480304955528
s(S'[[det]]'
p561
S'member'
p562
S'until'
p563
tp564
F0.0012706480304955528
s(S'had'
p565
S'served'
p566
S'at'
p567
tp568
F0.0012706480304955528
s(S'interred'
p569
S'in'
p570
S'[[prp]]'
p571
tp572
F0.0012706480304955528
s(S'[[det]]'
p573
S'delegate'
p574
S'[[con]]'
p575
tp576
F0.0012706480304955528
s(S'also'
p577
S'represented'
p578
S'while'
p579
tp580
F0.0012706480304955528
s(g309
g310
S'elected'
p581
tp582
F0.0012706480304955528
s(S'are'
p583
S'located'
p584
S'in'
p585
tp586
F0.0012706480304955528
s(g368
S'seat'
p587
S'of'
p588
tp589
F0.0012706480304955528
s(S'[[det]]'
p590
S'member'
p591
S'on'
p592
tp593
F0.0012706480304955528
s(S'[[det]]'
p594
S'governor'
p595
S'of'
p596
tp597
F0.0012706480304955528
s(S'[[det]]'
p598
S'candidate'
p599
S'of'
p600
tp601
F0.0025412960609911056
s(S'then'
p602
S'served'
p603
S'for'
p604
tp605
F0.0012706480304955528
s(S'[[adj]]'
p606
S'member'
p607
S'[[con]]'
p608
tp609
F0.0025412960609911056
s(S'was'
p610
S'reelected'
p611
S'to'
p612
tp613
F0.0012706480304955528
s(S'later'
p614
S'served'
p615
S'on'
p616
tp617
F0.0012706480304955528
s(S'also'
p618
S'represented'
p619
S'against'
p620
tp621
F0.0012706480304955528
s(S'[[det]]'
p622
S'politician'
p623
S'of'
p624
tp625
F0.0025412960609911056
s(S'[[adj]]'
p626
S'resident'
p627
S'in'
p628
tp629
F0.0012706480304955528
s(S'[[adj]]'
p630
S'member'
p631
S'on'
p632
tp633
F0.0012706480304955528
s(g434
g435
S'in'
p634
tp635
F0.0025412960609911056
s(S'[[det]]'
p636
S'member'
p637
S'as'
p638
tp639
F0.0012706480304955528
s(S'is'
p640
S'elected'
p641
S'of'
p642
tp643
F0.0012706480304955528
s(S'member'
p644
S'[[det]]'
p645
S'seat'
p646
tp647
F0.0012706480304955528
s(S'serve'
p648
S'as'
p649
S'governor'
p650
tp651
F0.0025412960609911056
s(S'who'
p652
S'served'
p653
S'[[con]]'
p654
tp655
F0.0012706480304955528
s(g197
g198
g544
tp656
F0.0025412960609911056
s(S'to'
p657
S'[[det]]'
p658
S'seat'
p659
tp660
F0.0025412960609911056
s(S'was'
p661
S'member'
p662
S'at'
p663
tp664
F0.0012706480304955528
s(S'was'
p665
S'defeated'
p666
S'from'
p667
tp668
F0.0012706480304955528
s(S'born'
p669
g395
g396
tp670
F0.0063532401524777635
s(S'for'
p671
S'representing'
p672
S'[[det]]'
p673
tp674
F0.0012706480304955528
s(S'[[adj]]'
p675
S'elected'
p676
S'for'
p677
tp678
F0.0012706480304955528
s(S'had'
p679
S'arrived'
p680
S'from'
p681
tp682
F0.0012706480304955528
s(S'as'
p683
g553
g554
tp684
F0.012706480304955527
s(S'later'
p685
S'represented'
p686
S'in'
p687
tp688
F0.0012706480304955528
s(S'to'
p689
S'represent'
p690
S'in'
p691
tp692
F0.0012706480304955528
s(S'when'
p693
S'served'
p694
S'in'
p695
tp696
F0.0012706480304955528
s(S'[[det]]'
p697
S'leader'
p698
S'to'
p699
tp700
F0.0012706480304955528
s(S'twice'
p701
S'served'
p702
S'as'
p703
tp704
F0.0012706480304955528
s(S'was'
p705
S'admitted'
p706
S'to'
p707
tp708
F0.007623888182973317
s(S'[[det]]'
p709
S'mountain'
p710
S'range'
p711
tp712
F0.0038119440914866584
s(S'where'
p713
S'served'
p714
S'with'
p715
tp716
F0.0012706480304955528
s(S'[[det]]'
p717
S'leader'
p718
S'for'
p719
tp720
F0.0012706480304955528
s(S'[[det]]'
p721
g532
g533
tp722
F0.0012706480304955528
s(S'was'
p723
S'elected'
p724
S'governor'
p725
tp726
F0.0012706480304955528
s(S'[[det]]'
p727
S'member'
p728
g368
tp729
F0.0012706480304955528
s(S'to'
p730
S'represent'
p731
S'[[det]]'
p732
tp733
F0.0038119440914866584
s(S'elected'
p734
S'as'
p735
S'governor'
p736
tp737
F0.0012706480304955528
s(S'has'
p738
S'served'
p739
S'in'
p740
tp741
F0.0012706480304955528
s(S'[[adj]]'
p742
S'mayor'
p743
S'of'
p744
tp745
F0.0012706480304955528
s(S'[[adj]]'
p746
S'served'
p747
S'as'
p748
tp749
F0.0012706480304955528
s(S'[[prp]]'
p750
S'campaign'
p751
S'in'
p752
tp753
F0.0012706480304955528
s(S'served'
p754
g5
g6
tp755
F0.0012706480304955528
s(S'served'
p756
S'[[num]]'
p757
S'terms'
p758
tp759
F0.0025412960609911056
s(S'[[adj]]'
p760
S'district'
p761
S'in'
p762
tp763
F0.0025412960609911056
s(S'[[mod]]'
p764
S'serve'
p765
S'to'
p766
tp767
F0.0012706480304955528
s(S'had'
p768
S'represented'
p769
S'[[det]]'
p770
tp771
F0.0012706480304955528
s(S'then'
p772
S'served'
p773
S'with'
p774
tp775
F0.0012706480304955528
s(S'was'
p776
S'entered'
p777
S'at'
p778
tp779
F0.0012706480304955528
s(g294
g295
S'district'
p780
tp781
F0.0012706480304955528
s(S'was'
p782
g569
g570
tp783
F0.0012706480304955528
s(S'elected'
p784
S'from'
p785
S'district'
p786
tp787
F0.0012706480304955528
s(S'mountain'
p788
S'range'
p789
S'in'
p790
tp791
F0.0025412960609911056
s(S'candidate'
p792
S'[[con]]'
p793
S'was'
p794
tp795
F0.0025412960609911056
s(S'was'
p796
S'represented'
p797
S'for'
p798
tp799
F0.0012706480304955528
s(S'was'
p800
S'member'
p801
S'of'
p802
tp803
F0.0012706480304955528
s(S'had'
p804
S'entered'
p805
S'[[det]]'
p806
tp807
F0.0012706480304955528
s(S'has'
p808
S'served'
p809
S'before'
p810
tp811
F0.0012706480304955528
s(S'is'
p812
S'member'
p813
S'of'
p814
tp815
F0.0012706480304955528
s(S'also'
p816
S'represented'
p817
S'on'
p818
tp819
F0.0012706480304955528
s(S'[[adj]]'
p820
g792
g793
tp821
F0.0038119440914866584
s(S'stood'
p822
S'for'
p823
S'[[det]]'
p824
tp825
F0.0012706480304955528
s(S'[[adj]]'
p826
S'native'
p827
S'of'
p828
tp829
F0.0012706480304955528
s(S'also'
p830
S'served'
p831
S'until'
p832
tp833
F0.0012706480304955528
s(S'was'
p834
S'elected'
p835
S'from'
p836
tp837
F0.0038119440914866584
s(S'[[num]]'
p838
S'[[det]]'
p839
S'member'
p840
tp841
F0.0012706480304955528
s(S'as'
p842
S'mayor'
p843
S'of'
p844
tp845
F0.0012706480304955528
s(S'born'
p846
g160
g161
tp847
F0.0012706480304955528
s(S'has'
p848
S'served'
p849
S'until'
p850
tp851
F0.0012706480304955528
s(S'again'
p852
S'served'
p853
S'to'
p854
tp855
F0.0012706480304955528
s(S'first'
p856
S'served'
p857
S'with'
p858
tp859
F0.0012706480304955528
s(S'was'
p860
g196
g197
tp861
F0.025412960609911054
s(S'has'
p862
S'served'
p863
S'[[det]]'
p864
tp865
F0.0012706480304955528
s(S'elected'
p866
g13
g14
tp867
F0.0012706480304955528
s(S'has'
p868
S'represented'
p869
S'[[con]]'
p870
tp871
F0.0012706480304955528
s(S'[[det]]'
p872
S'campaign'
p873
S'in'
p874
tp875
F0.0012706480304955528
s(g38
g39
S'district'
p876
tp877
F0.0012706480304955528
s(S'candidate'
p878
S'[[con]]'
p879
S'again'
p880
tp881
F0.0012706480304955528
s(g467
g468
S'elected'
p882
tp883
F0.0012706480304955528
s(S'then'
p884
S'settled'
p885
S'in'
p886
tp887
F0.0012706480304955528
s(S'[[num]]'
p888
S'representing'
p889
S'[[det]]'
p890
tp891
F0.0012706480304955528
s(S'became'
p892
S'member'
p893
S'of'
p894
tp895
F0.0012706480304955528
s(S'also'
p896
S'served'
p897
S'to'
p898
tp899
F0.0012706480304955528
s(S'[[num]]'
p900
S'served'
p901
S'on'
p902
tp903
F0.0012706480304955528
s(S'[[con]]'
p904
S'member'
p905
S'of'
p906
tp907
F0.0012706480304955528
s(S'[[adj]]'
p908
S'member'
p909
S'for'
p910
tp911
F0.0025412960609911056
s(S'candidate'
p912
S'from'
p913
S'district'
p914
tp915
F0.0012706480304955528
s(S'to'
p916
S'represent'
p917
S'[[num]]'
p918
tp919
F0.0012706480304955528
s(S'has'
p920
S'served'
p921
S'for'
p922
tp923
F0.0012706480304955528
s(S'was'
p924
g111
g112
tp925
F0.016518424396442185
s(g570
g571
S'hometown'
p926
tp927
F0.0012706480304955528
s(S'became'
p928
S'member'
p929
S'[[det]]'
p930
tp931
F0.0012706480304955528
s(S'also'
p932
S'served'
p933
S'[[adj]]'
p934
tp935
F0.0012706480304955528
s(S'born'
p936
S'is'
p937
S'[[adj]]'
p938
tp939
F0.0038119440914866584
s(S'in'
p940
S'[[det]]'
p941
S'representing'
p942
tp943
F0.0012706480304955528
s(S'[[det]]'
p944
S'served'
p945
S'in'
p946
tp947
F0.0012706480304955528
s(S'is'
p948
S'located'
p949
S'[[det]]'
p950
tp951
F0.0012706480304955528
s(S'has'
p952
S'arrived'
p953
S'in'
p954
tp955
F0.0012706480304955528
s(S'represent'
p956
S'[[det]]'
p957
S'[[adj]]'
p958
tp959
F0.0012706480304955528
s(S'[[det]]'
p960
S'resident'
p961
S'of'
p962
tp963
F0.0012706480304955528
s(S'have'
p964
S'arrived'
p965
S'in'
p966
tp967
F0.0012706480304955528
s(S'was'
p968
S'member'
p969
S'[[con]]'
p970
tp971
F0.0012706480304955528
s(g937
g938
S'politician'
p972
tp973
F0.0025412960609911056
s(S'twice'
p974
S'served'
p975
S'in'
p976
tp977
F0.0012706480304955528
s(S'transferred'
p978
S'to'
p979
S'[[adj]]'
p980
tp981
F0.0012706480304955528
s(S'also'
p982
S'represented'
p983
S'to'
p984
tp985
F0.0012706480304955528
s(g608
S'was'
p986
S'elected'
p987
tp988
F0.007623888182973317
s(S'had'
p989
S'served'
p990
S'as'
p991
tp992
F0.0012706480304955528
s(g274
g275
S'from'
p993
tp994
F0.0012706480304955528
s(S'[[det]]'
p995
S'member'
p996
S'who'
p997
tp998
F0.0012706480304955528
s(S'again'
p999
S'represented'
p1000
S'[[det]]'
p1001
tp1002
F0.0012706480304955528
s(S'first'
p1003
S'settled'
p1004
S'in'
p1005
tp1006
F0.0012706480304955528
s(S'later'
p1007
S'elected'
p1008
S'of'
p1009
tp1010
F0.0012706480304955528
s(g59
g427
S'seat'
p1011
tp1012
F0.005082592121982211
s(S'[[num]]'
p1013
S'member'
p1014
S'of'
p1015
tp1016
F0.0012706480304955528
s(S'had'
p1017
S'served'
p1018
S'[[det]]'
p1019
tp1020
F0.0012706480304955528
s(S'[[num]]'
p1021
S'represented'
p1022
S'district'
p1023
tp1024
F0.0012706480304955528
s(S'represent'
p1025
S'[[det]]'
p1026
S'district'
p1027
tp1028
F0.0012706480304955528
s(S'elected'
p1029
S'as'
p1030
S'from'
p1031
tp1032
F0.0012706480304955528
s(S'[[con]]'
p1033
S'represented'
p1034
S'[[det]]'
p1035
tp1036
F0.0012706480304955528
s(S'[[con]]'
p1037
S'served'
p1038
S'in'
p1039
tp1040
F0.0012706480304955528
s(g112
g113
S'member'
p1041
tp1042
F0.0038119440914866584
s(S'was'
p1043
S'elected'
p1044
S'defeating'
p1045
tp1046
F0.0012706480304955528
s(g368
S'campaign'
p1047
S'in'
p1048
tp1049
F0.0012706480304955528
s(S'[[adj]]'
p1050
S'elected'
p1051
S'from'
p1052
tp1053
F0.0012706480304955528
s(S'elected'
p1054
S'[[adj]]'
p1055
S'member'
p1056
tp1057
F0.0012706480304955528
s(S'served'
p1058
S'[[adj]]'
p1059
S'terms'
p1060
tp1061
F0.0012706480304955528
s(S'had'
p1062
S'served'
p1063
S'with'
p1064
tp1065
F0.0012706480304955528
s(S'[[det]]'
p1066
S'governor'
p1067
S'[[det]]'
p1068
tp1069
F0.0012706480304955528
s(S'[[det]]'
p1070
S'leader'
p1071
S'of'
p1072
tp1073
F0.0012706480304955528
s(S'[[adj]]'
p1074
S'governor'
p1075
S'of'
p1076
tp1077
F0.0012706480304955528
s(S'elected'
p1078
S'member'
p1079
S'of'
p1080
tp1081
F0.0025412960609911056
s(S'ran'
p1082
S'for'
p1083
S'seat'
p1084
tp1085
F0.0012706480304955528
s(g319
g320
S'member'
p1086
tp1087
F0.0012706480304955528
s(S'had'
p1088
S'served'
p1089
S'on'
p1090
tp1091
F0.0012706480304955528
s(S'later'
p1092
S'served'
p1093
S'for'
p1094
tp1095
F0.0012706480304955528
s(S'[[adj]]'
p1096
S'served'
p1097
S'to'
p1098
tp1099
F0.0012706480304955528
s(S'again'
p1100
S'elected'
p1101
S'from'
p1102
tp1103
F0.0012706480304955528
s(S'was'
p1104
S'born'
p1105
S'in'
p1106
tp1107
F0.0012706480304955528
s(S'before'
p1108
S'settling'
p1109
S'in'
p1110
tp1111
F0.0012706480304955528
s(S'[[con]]'
p1112
S'served'
p1113
S'on'
p1114
tp1115
F0.0012706480304955528
s(S'[[det]]'
p1116
S'member'
p1117
S'[[num]]'
p1118
tp1119
F0.0012706480304955528
s(S'[[det]]'
p1120
g912
g913
tp1121
F0.0012706480304955528
s(S'[[adj]]'
p1122
S'governor'
p1123
S'in'
p1124
tp1125
F0.0012706480304955528
s(g347
g348
S'in'
p1126
tp1127
F0.0025412960609911056
s(S'as'
p1128
S'[[det]]'
p1129
S'state'
p1130
tp1131
F0.0012706480304955528
s(S'also'
p1132
S'represented'
p1133
S'[[con]]'
p1134
tp1135
F0.0012706480304955528
s(S'to'
p1136
S'member'
p1137
S'of'
p1138
tp1139
F0.0012706480304955528
s(g1030
g1031
S'district'
p1140
tp1141
F0.0012706480304955528
s(g42
g43
S'to'
p1142
tp1143
F0.0012706480304955528
s(S'as'
p1144
S'member'
p1145
S'of'
p1146
tp1147
F0.0025412960609911056
s(S'is'
p1148
S'member'
p1149
S'as'
p1150
tp1151
F0.0012706480304955528
s(S'[[det]]'
p1152
S'race'
p1153
S'in'
p1154
tp1155
F0.0012706480304955528
s(S'[[num]]'
p1156
S'served'
p1157
S'for'
p1158
tp1159
F0.0012706480304955528
s(S'[[adj]]'
p1160
S'arrived'
p1161
S'in'
p1162
tp1163
F0.0012706480304955528
s(S'[[adj]]'
p1164
S'leader'
p1165
S'[[det]]'
p1166
tp1167
F0.0012706480304955528
s(S'formerly'
p1168
S'served'
p1169
S'for'
p1170
tp1171
F0.0012706480304955528
s(S'elected'
p1172
g77
g78
tp1173
F0.0012706480304955528
s(S'graduated'
p1174
S'[[con]]'
p1175
S'then'
p1176
tp1177
F0.0012706480304955528
s(S'successfully'
p1178
S'ran'
p1179
S'for'
p1180
tp1181
F0.0012706480304955528
s(S'[[adj]]'
p1182
S'seat'
p1183
S'of'
p1184
tp1185
F0.010165184243964422
s(S'is'
p1186
S'admitted'
p1187
S'to'
p1188
tp1189
F0.0012706480304955528
s(S'also'
p1190
S'served'
p1191
S'for'
p1192
tp1193
F0.0012706480304955528
s(S'member'
p1194
S'of'
p1195
g1104
tp1196
F0.0012706480304955528
s(S'won'
p1197
g433
g434
tp1198
F0.0012706480304955528
s(S'admitted'
p1199
S'to'
p1200
S'bar'
p1201
tp1202
F0.0012706480304955528
s(S'[[det]]'
p1203
S'member'
p1204
S'has'
p1205
tp1206
F0.0012706480304955528
s(S'[[num]]'
p1207
S'represented'
p1208
S'in'
p1209
tp1210
F0.0012706480304955528
s(S'candidate'
p1211
S'for'
p1212
S'in'
p1213
tp1214
F0.0012706480304955528
s(S'elected'
p1215
S'for'
p1216
g1182
tp1217
F0.0012706480304955528
s(S'elected'
p1218
g362
g172
tp1219
F0.0012706480304955528
s(S'where'
p1220
S'served'
p1221
S'in'
p1222
tp1223
F0.0012706480304955528
s(g879
g880
S'elected'
p1224
tp1225
F0.0012706480304955528
s(S'who'
p1226
S'served'
p1227
S'as'
p1228
tp1229
F0.0012706480304955528
s(S'been'
p1230
S'elected'
p1231
S'[[det]]'
p1232
tp1233
F0.0012706480304955528
s(g607
g608
g986
tp1234
F0.005082592121982211
s(S'won'
p1235
g119
g25
tp1236
F0.0038119440914866584
s(S'[[det]]'
p1237
S'member'
p1238
S'to'
p1239
tp1240
F0.0012706480304955528
s(S'was'
p1241
S'reelected'
p1242
S'[[con]]'
p1243
tp1244
F0.0012706480304955528
s(S'elected'
p1245
g1136
g1137
tp1246
F0.0012706480304955528
s(S'[[adj]]'
p1247
S'leader'
p1248
S'in'
p1249
tp1250
F0.0012706480304955528
s(S'had'
p1251
S'arrived'
p1252
S'to'
p1253
tp1254
F0.0012706480304955528
s(S'later'
p1255
S'served'
p1256
S'to'
p1257
tp1258
F0.0012706480304955528
s(S'[[det]]'
p1259
S'division'
p1260
S'of'
p1261
tp1262
F0.0012706480304955528
s(S'is'
p1263
S'member'
p1264
S'[[det]]'
p1265
tp1266
F0.0012706480304955528
s(g1175
g1176
S'moved'
p1267
tp1268
F0.0012706480304955528
s(S'[[det]]'
p1269
S'seat'
p1270
S'in'
p1271
tp1272
F0.0025412960609911056
s(S'[[num]]'
p1273
S'served'
p1274
S'in'
p1275
tp1276
F0.0012706480304955528
s(S'elected'
p1277
g598
g599
tp1278
F0.0012706480304955528
s(S'[[det]]'
p1279
g141
g142
tp1280
F0.0012706480304955528
s(S'had'
p1281
S'served'
p1282
S'in'
p1283
tp1284
F0.0012706480304955528
s(g427
g1011
S'of'
p1285
tp1286
F0.01397712833545108
s(S'was'
p1287
S'member'
p1288
S'[[num]]'
p1289
tp1290
F0.0012706480304955528
s(S'[[det]]'
p1291
S'state'
p1292
S'of'
p1293
tp1294
F0.005082592121982211
s(S'has'
p1295
S'represented'
p1296
S'[[det]]'
p1297
tp1298
F0.0012706480304955528
s(g677
S'[[det]]'
p1299
S'district'
p1300
tp1301
F0.0025412960609911056
s(S'born'
p1302
S'c'
p1303
S'[[det]]'
p1304
tp1305
F0.0012706480304955528
s(S'winning'
p1306
S'[[det]]'
p1307
S'seat'
p1308
tp1309
F0.0012706480304955528
s(S'later'
p1310
S'settled'
p1311
S'[[con]]'
p1312
tp1313
F0.0012706480304955528
s(S'[[adj]]'
p1314
S'leader'
p1315
S'of'
p1316
tp1317
F0.0012706480304955528
s(g571
g926
S'of'
p1318
tp1319
F0.0012706480304955528
s(S'became'
p1320
S'governor'
p1321
S'of'
p1322
tp1323
F0.0012706480304955528
s(S'for'
p1324
g1259
g1260
tp1325
F0.0012706480304955528
s(g310
g581
S'[[det]]'
p1326
tp1327
F0.0012706480304955528
s(S'won'
p1328
g721
g532
tp1329
F0.0012706480304955528
s(S'has'
p1330
S'served'
p1331
S'where'
p1332
tp1333
F0.0012706480304955528
s(g1212
g1213
S'district'
p1334
tp1335
F0.0025412960609911056
s(S'elected'
p1336
g683
g553
tp1337
F0.017789072426937738
s(g880
g1224
S'to'
p1338
tp1339
F0.0012706480304955528
s(g122
g123
g145
tp1340
F0.007623888182973317
s(S'[[det]]'
p1341
S'bar'
p1342
S'of'
p1343
tp1344
F0.0012706480304955528
s(S'won'
p1345
g330
g331
tp1346
F0.005082592121982211
s(S'elected'
p1347
S'member'
p1348
S'[[con]]'
p1349
tp1350
F0.0025412960609911056
s(S'candidate'
p1351
S'was'
p1352
S'elected'
p1353
tp1354
F0.0012706480304955528
s(S'[[con]]'
p1355
S'governor'
p1356
S'of'
p1357
tp1358
F0.0012706480304955528
s(g368
S'birthplace'
p1359
S'in'
p1360
tp1361
F0.0012706480304955528
s(S'[[adj]]'
p1362
g387
g388
tp1363
F0.0012706480304955528
s(S'also'
p1364
S'member'
p1365
S'[[det]]'
p1366
tp1367
F0.0012706480304955528
s(g1045
S'[[det]]'
p1368
S'seat'
p1369
tp1370
F0.0012706480304955528
s(S'was'
p1371
S'reelected'
p1372
S'as'
p1373
tp1374
F0.0012706480304955528
s(S'be'
p1375
S'elected'
p1376
S'in'
p1377
tp1378
F0.0012706480304955528
s(S'[[det]]'
p1379
S'resident'
p1380
S'in'
p1381
tp1382
F0.0012706480304955528
s(S'began'
p1383
S'[[det]]'
p1384
S'practice'
p1385
tp1386
F0.0025412960609911056
s(S'as'
p1387
S'leader'
p1388
S'of'
p1389
tp1390
F0.0012706480304955528
s(S'elected'
p1391
S'[[det]]'
p1392
S'mayor'
p1393
tp1394
F0.0012706480304955528
s(S'[[adj]]'
p1395
S'member'
p1396
S'in'
p1397
tp1398
F0.0012706480304955528
s(S'[[adj]]'
p1399
S'served'
p1400
S'at'
p1401
tp1402
F0.0012706480304955528
s(S'[[adj]]'
p1403
S'member'
p1404
S'[[num]]'
p1405
tp1406
F0.0012706480304955528
s(S'also'
p1407
S'served'
p1408
S'[[num]]'
p1409
tp1410
F0.0012706480304955528
s(S'[[adj]]'
p1411
S'served'
p1412
S'for'
p1413
tp1414
F0.0012706480304955528
s(S'born'
p1415
g346
g347
tp1416
F0.0025412960609911056
s(g113
g1041
S'at'
p1417
tp1418
F0.0025412960609911056
s(S'contested'
p1419
S'[[det]]'
p1420
S'seat'
p1421
tp1422
F0.0025412960609911056
s(S'formerly'
p1423
S'served'
p1424
S'in'
p1425
tp1426
F0.0012706480304955528
s(S'also'
p1427
S'member'
p1428
S'of'
p1429
tp1430
F0.0012706480304955528
s(g1044
g1045
g1368
tp1431
F0.0012706480304955528
s(S'[[det]]'
p1432
S'member'
p1433
S'[[adj]]'
p1434
tp1435
F0.0012706480304955528
s(S'[[con]]'
p1436
S'served'
p1437
S'[[det]]'
p1438
tp1439
F0.0012706480304955528
s(S'[[pro]]'
p1440
S'arrived'
p1441
S'in'
p1442
tp1443
F0.0012706480304955528
s(S'candidate'
p1444
S'in'
p1445
S'district'
p1446
tp1447
F0.0012706480304955528
s(g1026
g1027
S'of'
p1448
tp1449
F0.0012706480304955528
s(S'[[det]]'
p1450
S'member'
p1451
S'representing'
p1452
tp1453
F0.0025412960609911056
s(S'later'
p1454
S'entered'
p1455
S'[[det]]'
p1456
tp1457
F0.0012706480304955528
s(g497
g498
S'of'
p1458
tp1459
F0.0012706480304955528
s(S'later'
p1460
S'served'
p1461
S'[[adj]]'
p1462
tp1463
F0.0012706480304955528
s(g707
S'[[det]]'
p1464
S'bar'
p1465
tp1466
F0.007623888182973317
s(S'[[con]]'
p1467
S'member'
p1468
S'[[det]]'
p1469
tp1470
F0.0012706480304955528
s(g173
g174
S'[[det]]'
p1471
tp1472
F0.0012706480304955528
s(S'[[det]]'
p1473
S'delegate'
p1474
S'from'
p1475
tp1476
F0.0012706480304955528
s(S'later'
p1477
S'settled'
p1478
S'in'
p1479
tp1480
F0.0012706480304955528
s(S'[[con]]'
p1481
S'entered'
p1482
S'[[det]]'
p1483
tp1484
F0.0012706480304955528
s(S'[[det]]'
p1485
S'elected'
p1486
S'from'
p1487
tp1488
F0.0012706480304955528
s(S'[[adj]]'
p1489
S'campaign'
p1490
S'[[num]]'
p1491
tp1492
F0.0012706480304955528
s(S'was'
p1493
S'elected'
p1494
S'in'
p1495
tp1496
F0.0025412960609911056
s(S'[[adj]]'
p1497
S'served'
p1498
S'in'
p1499
tp1500
F0.0012706480304955528
s(S'[[det]]'
p1501
S'governor'
p1502
S'in'
p1503
tp1504
F0.0012706480304955528
s(S'to'
p1505
g648
g649
tp1506
F0.0025412960609911056
s(S'[[adj]]'
p1507
S'delegate'
p1508
S'from'
p1509
tp1510
F0.0012706480304955528
s(S'[[con]]'
p1511
S'member'
p1512
S'[[con]]'
p1513
tp1514
F0.0012706480304955528
s(S'[[adj]]'
p1515
S'member'
p1516
S'[[adj]]'
p1517
tp1518
F0.0012706480304955528
s(S'also'
p1519
S'elected'
p1520
S'[[con]]'
p1521
tp1522
F0.0012706480304955528
s(S'elected'
p1523
g1291
g1292
tp1524
F0.0012706480304955528
s(S'was'
p1525
S'elected'
p1526
S'member'
p1527
tp1528
F0.005082592121982211
s(S'won'
p1529
g1152
g1153
tp1530
F0.0012706480304955528
s(S'[[adj]]'
p1531
S'attorney'
p1532
S'general'
p1533
tp1534
F0.0012706480304955528
s(S'[[det]]'
p1535
S'politician'
p1536
S'who'
p1537
tp1538
F0.0012706480304955528
s(S'[[adj]]'
p1539
S'campaign'
p1540
S'against'
p1541
tp1542
F0.0012706480304955528
s(g757
g758
S'for'
p1543
tp1544
F0.0012706480304955528
s(g1195
g1104
g1105
tp1545
F0.0012706480304955528
s(S'then'
p1546
S'served'
p1547
S'[[det]]'
p1548
tp1549
F0.0012706480304955528
s(S'was'
p1550
S'reelected'
p1551
S'for'
p1552
tp1553
F0.0012706480304955528
s(S'[[det]]'
p1554
S'bar'
p1555
S'[[con]]'
p1556
tp1557
F0.0012706480304955528
s(S'has'
p1558
S'served'
p1559
S'to'
p1560
tp1561
F0.0012706480304955528
s(S'[[adj]]'
p1562
S'official'
p1563
S'in'
p1564
tp1565
F0.0012706480304955528
s(S'later'
p1566
S'served'
p1567
S'[[con]]'
p1568
tp1569
F0.0012706480304955528
s(S'became'
p1570
S'member'
p1571
S'for'
p1572
tp1573
F0.0012706480304955528
s(S'later'
p1574
S'served'
p1575
S'in'
p1576
tp1577
F0.0012706480304955528
s(S'has'
p1578
S'resided'
p1579
S'in'
p1580
tp1581
F0.0012706480304955528
s(g31
g494
S'constituency'
p1582
tp1583
F0.0012706480304955528
s(g938
g972
S'from'
p1584
tp1585
F0.0025412960609911056
s(S'to'
p1586
S'[[det]]'
p1587
S'state'
p1588
tp1589
F0.0012706480304955528
s(S'first'
p1590
S'represented'
p1591
S'for'
p1592
tp1593
F0.0012706480304955528
s(S'first'
p1594
S'represented'
p1595
S'[[det]]'
p1596
tp1597
F0.0012706480304955528
s(S'[[det]]'
p1598
S'leader'
p1599
S'[[con]]'
p1600
tp1601
F0.0012706480304955528
s(S'[[det]]'
p1602
S'delegate'
p1603
S'for'
p1604
tp1605
F0.0012706480304955528
s(S'[[det]]'
p1606
g308
g309
tp1607
F0.007623888182973317
s(g1451
g1452
S'[[det]]'
p1608
tp1609
F0.0012706480304955528
s(S'served'
p1610
g842
g843
tp1611
F0.0012706480304955528
s(S'member'
p1612
g940
g941
tp1613
F0.0012706480304955528
s(S'as'
p1614
g742
g743
tp1615
F0.0012706480304955528
s(g706
g707
g1464
tp1616
F0.007623888182973317
s(S'was'
p1617
g1054
g1055
tp1618
F0.0012706480304955528
s(S'member'
p1619
S'for'
p1620
S'[[adj]]'
p1621
tp1622
F0.0012706480304955528
s(S'began'
p1623
S'practice'
p1624
S'in'
p1625
tp1626
F0.0012706480304955528
s(S'to'
p1627
S'represent'
p1628
S'[[adj]]'
p1629
tp1630
F0.0012706480304955528
s(g1304
S'politician'
p1631
S'in'
p1632
tp1633
F0.0038119440914866584
s(S'as'
p1634
S'[[det]]'
p1635
S'candidate'
p1636
tp1637
F0.0038119440914866584
s(S'[[prp]]'
p1638
S'campaign'
p1639
S'against'
p1640
tp1641
F0.0012706480304955528
s(g1303
g1304
g1631
tp1642
F0.0012706480304955528
s(S'then'
p1643
S'entered'
p1644
S'[[det]]'
p1645
tp1646
F0.0012706480304955528
s(S'stood'
p1647
S'for'
p1648
S'[[adj]]'
p1649
tp1650
F0.0012706480304955528
s(S'has'
p1651
S'served'
p1652
S'at'
p1653
tp1654
F0.0012706480304955528
s(S'[[adj]]'
p1655
S'seat'
p1656
S'in'
p1657
tp1658
F0.0012706480304955528
s(S'then'
p1659
S'served'
p1660
S'at'
p1661
tp1662
F0.0012706480304955528
s(S'has'
p1663
S'served'
p1664
S'on'
p1665
tp1666
F0.0012706480304955528
s(S'also'
p1667
S'served'
p1668
S'[[con]]'
p1669
tp1670
F0.0012706480304955528
s(g1384
g1385
S'at'
p1671
tp1672
F0.0012706480304955528
s(S'then'
p1673
S'served'
p1674
S'in'
p1675
tp1676
F0.0012706480304955528
s(g1059
g1060
S'as'
p1677
tp1678
F0.0012706480304955528
s(S'was'
p1679
S'member'
p1680
S'[[det]]'
p1681
tp1682
F0.0012706480304955528
s(g302
g303
S'[[det]]'
p1683
tp1684
F0.0025412960609911056
s(S'are'
p1685
S'located'
p1686
S'[[det]]'
p1687
tp1688
F0.0012706480304955528
s(g1176
g1267
S'to'
p1689
tp1690
F0.0012706480304955528
s(S'[[adj]]'
p1691
S'elected'
p1692
S'in'
p1693
tp1694
F0.0012706480304955528
s(S'as'
p1695
S'governor'
p1696
S'of'
p1697
tp1698
F0.0025412960609911056
s(g62
g63
S'for'
p1699
tp1700
F0.007623888182973317
s(S'was'
p1701
S'leader'
p1702
S'of'
p1703
tp1704
F0.0012706480304955528
s(S'also'
p1705
S'represented'
p1706
S'[[det]]'
p1707
tp1708
F0.0012706480304955528
s(g1526
g1527
S'for'
p1709
tp1710
F0.0012706480304955528
s(S'[[adj]]'
p1711
S'resident'
p1712
S'of'
p1713
tp1714
F0.0012706480304955528
s(g207
g208
S'district'
p1715
tp1716
F0.0038119440914866584
s(g1532
g1533
S'of'
p1717
tp1718
F0.0025412960609911056
s(S'also'
p1719
S'served'
p1720
S'from'
p1721
tp1722
F0.0012706480304955528
s(S'[[det]]'
p1723
g1444
g1445
tp1724
F0.0012706480304955528
s(S'also'
p1725
S'elected'
p1726
S'[[det]]'
p1727
tp1728
F0.0012706480304955528
s(S'[[adj]]'
p1729
g1351
g1352
tp1730
F0.0012706480304955528
s(S'was'
p1731
S'governor'
p1732
S'of'
p1733
tp1734
F0.0012706480304955528
s(g1216
g1182
g1183
tp1735
F0.0038119440914866584
s(S'then'
p1736
S'defeated'
p1737
S'of'
p1738
tp1739
F0.0012706480304955528
s(S'[[adj]]'
p1740
S'settled'
p1741
S'in'
p1742
tp1743
F0.0012706480304955528
s(S'also'
p1744
S'served'
p1745
S'on'
p1746
tp1747
F0.0012706480304955528
s(S'made'
p1748
S'governor'
p1749
S'of'
p1750
tp1751
F0.0012706480304955528
s(S'become'
p1752
S'leader'
p1753
S'of'
p1754
tp1755
F0.0012706480304955528
s(g724
g725
S'of'
p1756
tp1757
F0.0025412960609911056
s(S'[[det]]'
p1758
S'campaign'
p1759
S'against'
p1760
tp1761
F0.0012706480304955528
s(S'[[adj]]'
p1762
S'elected'
p1763
S'of'
p1764
tp1765
F0.0012706480304955528
s(g263
g264
S'in'
p1766
tp1767
F0.0025412960609911056
s(S'had'
p1768
S'settled'
p1769
S'in'
p1770
tp1771
F0.0012706480304955528
s(S'[[det]]'
p1772
S'leader'
p1773
S'at'
p1774
tp1775
F0.0012706480304955528
s(g74
g75
S'member'
p1776
tp1777
F0.0012706480304955528
s(S'[[det]]'
p1778
S'representing'
p1779
S'[[det]]'
p1780
tp1781
F0.0025412960609911056
s(S'later'
p1782
S'served'
p1783
S'at'
p1784
tp1785
F0.0012706480304955528
s(S'[[det]]'
p1786
S'delegate'
p1787
S'in'
p1788
tp1789
F0.0012706480304955528
s(S'[[con]]'
p1790
S'served'
p1791
S'for'
p1792
tp1793
F0.0012706480304955528
s(g6
g7
S'of'
p1794
tp1795
F0.0025412960609911056
s(S'served'
p1796
g1614
g742
tp1797
F0.0012706480304955528
s(S'[[det]]'
p1798
S'leader'
p1799
S'in'
p1800
tp1801
F0.0012706480304955528
s(S'[[det]]'
p1802
S'member'
p1803
S'in'
p1804
tp1805
F0.0038119440914866584
s(S'also'
p1806
S'served'
p1807
S'of'
p1808
tp1809
F0.0012706480304955528
s.