(dp0
(S'was'
p1
S'sold'
p2
S'[[con]]'
p3
tp4
F0.015384615384615385
s(S'were'
p5
S'based'
p6
S'on'
p7
tp8
F0.015384615384615385
s(S'was'
p9
S'replaced'
p10
S'to'
p11
tp12
F0.015384615384615385
s(S'was'
p13
S'built'
p14
S'alongside'
p15
tp16
F0.015384615384615385
s(S'was'
p17
S'launched'
p18
S'[[con]]'
p19
tp20
F0.015384615384615385
s(S'[[det]]'
p21
S'built'
p22
S'at'
p23
tp24
F0.015384615384615385
s(S'was'
p25
S'built'
p26
S'with'
p27
tp28
F0.015384615384615385
s(S'been'
p29
S'based'
p30
S'at'
p31
tp32
F0.015384615384615385
s(S'been'
p33
S'built'
p34
S'on'
p35
tp36
F0.015384615384615385
s(S'was'
p37
S'marketed'
p38
S'as'
p39
tp40
F0.015384615384615385
s(S'was'
p41
S'built'
p42
S'after'
p43
tp44
F0.015384615384615385
s(S'be'
p45
S'built'
p46
S'between'
p47
tp48
F0.015384615384615385
s(S'was'
p49
S'built'
p50
S'on'
p51
tp52
F0.03076923076923077
s(S'has'
p53
S'replaced'
p54
S'[[det]]'
p55
tp56
F0.015384615384615385
s(S'be'
p57
S'built'
p58
S'as'
p59
tp60
F0.015384615384615385
s(S'[[adj]]'
p61
S'version'
p62
S'[[det]]'
p63
tp64
F0.015384615384615385
s(S'[[adj]]'
p65
S'built'
p66
S'at'
p67
tp68
F0.015384615384615385
s(S'be'
p69
S'built'
p70
S'at'
p71
tp72
F0.015384615384615385
s(S'was'
p73
S'based'
p74
S'on'
p75
tp76
F0.015384615384615385
s(S'was'
p77
S'based'
p78
S'upon'
p79
tp80
F0.015384615384615385
s(S'be'
p81
S'replaced'
p82
S'with'
p83
tp84
F0.015384615384615385
s(S'is'
p85
S'built'
p86
S'alongside'
p87
tp88
F0.015384615384615385
s(S'is'
p89
S'based'
p90
S'on'
p91
tp92
F0.015384615384615385
s(S'was'
p93
S'sold'
p94
S'for'
p95
tp96
F0.015384615384615385
s(S'[[adj]]'
p97
S'built'
p98
S'by'
p99
tp100
F0.015384615384615385
s(S'sold'
p101
S'alongside'
p102
S'[[det]]'
p103
tp104
F0.015384615384615385
s(S'be'
p105
S'built'
p106
S'[[adj]]'
p107
tp108
F0.015384615384615385
s(S'was'
p109
S'launched'
p110
S'at'
p111
tp112
F0.015384615384615385
s(S'is'
p113
S'sold'
p114
S'as'
p115
tp116
F0.015384615384615385
s(S'was'
p117
S'launched'
p118
S'to'
p119
tp120
F0.015384615384615385
s(S'were'
p121
S'built'
p122
S'on'
p123
tp124
F0.015384615384615385
s(S'was'
p125
S'virtually'
p126
S'[[adj]]'
p127
tp128
F0.015384615384615385
s(S'was'
p129
S'launched'
p130
S'as'
p131
tp132
F0.015384615384615385
s(S'is'
p133
S'based'
p134
S'[[con]]'
p135
tp136
F0.015384615384615385
s(S'was'
p137
S'replaced'
p138
S'[[det]]'
p139
tp140
F0.015384615384615385
s(S'was'
p141
S'built'
p142
S'over'
p143
tp144
F0.015384615384615385
s(S'was'
p145
S'built'
p146
S'to'
p147
tp148
F0.015384615384615385
s(S'[[num]]'
p149
S'built'
p150
S'[[num]]'
p151
tp152
F0.015384615384615385
s(g86
g87
S'[[det]]'
p153
tp154
F0.03076923076923077
s(S'was'
p155
g101
g102
tp156
F0.015384615384615385
s(S'was'
p157
S'launched'
p158
S'from'
p159
tp160
F0.015384615384615385
s(S'was'
p161
S'based'
p162
S'from'
p163
tp164
F0.015384615384615385
s(S'be'
p165
S'built'
p166
S'[[det]]'
p167
tp168
F0.015384615384615385
s(S'was'
p169
S'built'
p170
S'[[adj]]'
p171
tp172
F0.015384615384615385
s(S'was'
p173
S'built'
p174
S'[[con]]'
p175
tp176
F0.015384615384615385
s(S'now'
p177
S'based'
p178
S'on'
p179
tp180
F0.015384615384615385
s(S'[[con]]'
p181
S'uses'
p182
S'[[det]]'
p183
tp184
F0.015384615384615385
s(S'on'
p185
S'[[adj]]'
p186
S'platform'
p187
tp188
F0.015384615384615385
s(S'also'
p189
S'replaced'
p190
S'[[det]]'
p191
tp192
F0.015384615384615385
s(S'was'
p193
S'sold'
p194
S'as'
p195
tp196
F0.015384615384615385
s(S'be'
p197
S'launched'
p198
S'to'
p199
tp200
F0.015384615384615385
s(S'[[adj]]'
p201
S'version'
p202
S'of'
p203
tp204
F0.015384615384615385
s(S'that'
p205
S'sold'
p206
S'[[det]]'
p207
tp208
F0.015384615384615385
s(S'being'
p209
S'built'
p210
S'at'
p211
tp212
F0.015384615384615385
s(S'be'
p213
S'based'
p214
S'on'
p215
tp216
F0.015384615384615385
s(S'be'
p217
S'built'
p218
S'after'
p219
tp220
F0.015384615384615385
s(S'is'
p221
S'based'
p222
S'upon'
p223
tp224
F0.015384615384615385
s(S'also'
p225
S'sold'
p226
S'as'
p227
tp228
F0.015384615384615385
s(S'was'
p229
S'discontinued'
p230
S'[[con]]'
p231
tp232
F0.015384615384615385
s(S'was'
p233
S'built'
p234
S'from'
p235
tp236
F0.015384615384615385
s(S'was'
p237
S'built'
p238
S'as'
p239
tp240
F0.015384615384615385
s(S'were'
p241
S'replaced'
p242
S'with'
p243
tp244
F0.015384615384615385
s(S'built'
p245
g185
g186
tp246
F0.015384615384615385
s.