(dp0
(S'also'
p1
S'appointed'
p2
S'in'
p3
tp4
F0.002105263157894737
s(S'[[det]]'
p5
S'priest'
p6
S'of'
p7
tp8
F0.002105263157894737
s(S'[[det]]'
p9
S'member'
p10
S'at'
p11
tp12
F0.002105263157894737
s(S'when'
p13
S'served'
p14
S'with'
p15
tp16
F0.002105263157894737
s(S'[[con]]'
p17
S'served'
p18
S'with'
p19
tp20
F0.002105263157894737
s(S'leading'
p21
S'member'
p22
S'of'
p23
tp24
F0.002105263157894737
s(S'to'
p25
S'lead'
p26
S'[[con]]'
p27
tp28
F0.002105263157894737
s(S'serve'
p29
S'as'
p30
S'[[det]]'
p31
tp32
F0.002105263157894737
s(S'was'
p33
S'joined'
p34
S'in'
p35
tp36
F0.002105263157894737
s(S'was'
p37
S'named'
p38
S'at'
p39
tp40
F0.002105263157894737
s(S'be'
p41
S'named'
p42
S'[[det]]'
p43
tp44
F0.002105263157894737
s(S'[[det]]'
p45
S'minister'
p46
S'[[con]]'
p47
tp48
F0.002105263157894737
s(S'also'
p49
S'involved'
p50
S'[[con]]'
p51
tp52
F0.002105263157894737
s(S'was'
p53
S'called'
p54
S'back'
p55
tp56
F0.002105263157894737
s(S'[[adj]]'
p57
S'member'
p58
S'[[det]]'
p59
tp60
F0.002105263157894737
s(S'was'
p61
S'called'
p62
S'into'
p63
tp64
F0.002105263157894737
s(S'who'
p65
S'served'
p66
S'with'
p67
tp68
F0.002105263157894737
s(S'instead'
p69
S'appointed'
p70
S'[[pro]]'
p71
tp72
F0.002105263157894737
s(S'then'
p73
S'called'
p74
S'[[det]]'
p75
tp76
F0.002105263157894737
s(S'[[det]]'
p77
S'member'
p78
S'when'
p79
tp80
F0.002105263157894737
s(S'[[det]]'
p81
S'member'
p82
S'until'
p83
tp84
F0.002105263157894737
s(S'was'
p85
S'called'
p86
S'up'
p87
tp88
F0.002105263157894737
s(S'been'
p89
S'named'
p90
S'by'
p91
tp92
F0.002105263157894737
s(S'became'
p93
S'involved'
p94
S'in'
p95
tp96
F0.002105263157894737
s(S'currently'
p97
S'serves'
p98
S'to'
p99
tp100
F0.002105263157894737
s(S'born'
p101
S'is'
p102
S'[[det]]'
p103
tp104
F0.002105263157894737
s(S'[[con]]'
p105
S'joined'
p106
S'[[det]]'
p107
tp108
F0.002105263157894737
s(S'is'
p109
S'involved'
p110
S'in'
p111
tp112
F0.002105263157894737
s(S'has'
p113
S'served'
p114
S'[[con]]'
p115
tp116
F0.002105263157894737
s(S'[[con]]'
p117
S'served'
p118
S'at'
p119
tp120
F0.002105263157894737
s(S'was'
p121
S'member'
p122
S'for'
p123
tp124
F0.002105263157894737
s(S'also'
p125
S'named'
p126
S'for'
p127
tp128
F0.002105263157894737
s(S'is'
p129
S'member'
p130
S'[[con]]'
p131
tp132
F0.002105263157894737
s(S'was'
p133
S'founder'
p134
S'of'
p135
tp136
F0.002105263157894737
s(S'[[num]]'
p137
S'founder'
p138
S'of'
p139
tp140
F0.002105263157894737
s(S'was'
p141
S'called'
p142
S'at'
p143
tp144
F0.002105263157894737
s(S'[[con]]'
p145
S'leader'
p146
S'of'
p147
tp148
F0.002105263157894737
s(S'then'
p149
S'joined'
p150
S'to'
p151
tp152
F0.002105263157894737
s(S'was'
p153
S'named'
p154
S'by'
p155
tp156
F0.002105263157894737
s(S'also'
p157
S'appointed'
p158
S'[[con]]'
p159
tp160
F0.002105263157894737
s(S'then'
p161
S'joined'
p162
S'[[adj]]'
p163
tp164
F0.002105263157894737
s(S'had'
p165
S'joined'
p166
S'from'
p167
tp168
F0.002105263157894737
s(S'been'
p169
S'involved'
p170
S'in'
p171
tp172
F0.002105263157894737
s(S'been'
p173
S'named'
p174
S'[[det]]'
p175
tp176
F0.002105263157894737
s(S'which'
p177
S'lead'
p178
S'to'
p179
tp180
F0.002105263157894737
s(S'[[adj]]'
p181
S'served'
p182
S'on'
p183
tp184
F0.002105263157894737
s(S'[[num]]'
p185
S'served'
p186
S'as'
p187
tp188
F0.002105263157894737
s(S'[[adj]]'
p189
S'leader'
p190
S'for'
p191
tp192
F0.002105263157894737
s(S'ordained'
p193
S'[[det]]'
p194
S'minister'
p195
tp196
F0.004210526315789474
s(S'also'
p197
S'served'
p198
S'with'
p199
tp200
F0.002105263157894737
s(S'[[pro]]'
p201
S'joined'
p202
S'[[det]]'
p203
tp204
F0.002105263157894737
s(S'[[det]]'
p205
S'minister'
p206
S'at'
p207
tp208
F0.002105263157894737
s(S'was'
p209
S'involved'
p210
S'in'
p211
tp212
F0.002105263157894737
s(S'then'
p213
S'joined'
p214
S'side'
p215
tp216
F0.002105263157894737
s(S'[[det]]'
p217
S'minister'
p218
S'in'
p219
tp220
F0.00631578947368421
s(S'ordained'
p221
S'minister'
p222
S'in'
p223
tp224
F0.002105263157894737
s(S'when'
p225
S'joined'
p226
S'[[det]]'
p227
tp228
F0.002105263157894737
s(S'[[con]]'
p229
S'founder'
p230
S'of'
p231
tp232
F0.002105263157894737
s(S'again'
p233
S'named'
p234
S'as'
p235
tp236
F0.002105263157894737
s(S'then'
p237
S'joined'
p238
S'with'
p239
tp240
F0.002105263157894737
s(S'also'
p241
S'involved'
p242
S'for'
p243
tp244
F0.002105263157894737
s(S'then'
p245
S'served'
p246
S'before'
p247
tp248
F0.002105263157894737
s(S'now'
p249
S'serves'
p250
S'at'
p251
tp252
F0.002105263157894737
s(S'has'
p253
S'served'
p254
S'[[adj]]'
p255
tp256
F0.002105263157894737
s(S'again'
p257
S'served'
p258
S'with'
p259
tp260
F0.002105263157894737
s(S'also'
p261
S'appointed'
p262
S'on'
p263
tp264
F0.002105263157894737
s(S'while'
p265
S'joined'
p266
S'[[det]]'
p267
tp268
F0.002105263157894737
s(S'be'
p269
S'called'
p270
S'[[det]]'
p271
tp272
F0.002105263157894737
s(S'also'
p273
S'served'
p274
S'[[det]]'
p275
tp276
F0.002105263157894737
s(S'also'
p277
S'serves'
p278
S'[[num]]'
p279
tp280
F0.002105263157894737
s(S'[[mod]]'
p281
S'lead'
p282
S'[[det]]'
p283
tp284
F0.002105263157894737
s(S'also'
p285
S'served'
p286
S'as'
p287
tp288
F0.002105263157894737
s(S'been'
p289
S'named'
p290
S'at'
p291
tp292
F0.002105263157894737
s(S'[[con]]'
p293
S'joined'
p294
S'of'
p295
tp296
F0.002105263157894737
s(S'[[det]]'
p297
S'minister'
p298
S'[[adj]]'
p299
tp300
F0.002105263157894737
s(S'also'
p301
S'appointed'
p302
S'of'
p303
tp304
F0.002105263157894737
s(S'born'
p305
S'was'
p306
S'[[det]]'
p307
tp308
F0.002105263157894737
s(S'also'
p309
S'named'
p310
S'of'
p311
tp312
F0.002105263157894737
s(S'later'
p313
S'appointed'
p314
S'at'
p315
tp316
F0.002105263157894737
s(S'was'
p317
S'appointed'
p318
S'[[det]]'
p319
tp320
F0.002105263157894737
s(S'[[adj]]'
p321
S'member'
p322
S'from'
p323
tp324
F0.002105263157894737
s(S'[[det]]'
p325
S'ordained'
p326
S'minister'
p327
tp328
F0.00631578947368421
s(S'became'
p329
S'minister'
p330
S'for'
p331
tp332
F0.002105263157894737
s(S'had'
p333
S'joined'
p334
S'[[det]]'
p335
tp336
F0.002105263157894737
s(S'then'
p337
S'served'
p338
S'to'
p339
tp340
F0.002105263157894737
s(S'currently'
p341
S'serves'
p342
S'on'
p343
tp344
F0.002105263157894737
s(S'is'
p345
S'[[adj]]'
p346
S'member'
p347
tp348
F0.002105263157894737
s(S'first'
p349
S'served'
p350
S'in'
p351
tp352
F0.002105263157894737
s(S'been'
p353
S'called'
p354
S'up'
p355
tp356
F0.002105263157894737
s(S'was'
p357
S'appointed'
p358
S'as'
p359
tp360
F0.002105263157894737
s(S'[[det]]'
p361
S'representative'
p362
S'[[con]]'
p363
tp364
F0.002105263157894737
s(S'is'
p365
S'named'
p366
S'as'
p367
tp368
F0.002105263157894737
s(S'again'
p369
S'called'
p370
S'up'
p371
tp372
F0.002105263157894737
s(S'then'
p373
S'served'
p374
S'on'
p375
tp376
F0.002105263157894737
s(S'been'
p377
S'called'
p378
S'[[num]]'
p379
tp380
F0.002105263157894737
s(S'soon'
p381
S'joined'
p382
S'[[det]]'
p383
tp384
F0.002105263157894737
s(S'later'
p385
S'joined'
p386
S'[[con]]'
p387
tp388
F0.002105263157894737
s(S'became'
p389
S'leader'
p390
S'of'
p391
tp392
F0.002105263157894737
s(S'then'
p393
S'joined'
p394
S'[[num]]'
p395
tp396
F0.002105263157894737
s(S'has'
p397
S'served'
p398
S'with'
p399
tp400
F0.002105263157894737
s(S'[[pro]]'
p401
S'served'
p402
S'in'
p403
tp404
F0.002105263157894737
s(S'[[adj]]'
p405
S'representative'
p406
S'[[con]]'
p407
tp408
F0.002105263157894737
s(S'was'
p409
S'called'
p410
S'for'
p411
tp412
F0.002105263157894737
s(S'[[adj]]'
p413
S'member'
p414
S'during'
p415
tp416
F0.002105263157894737
s(S'formerly'
p417
S'served'
p418
S'to'
p419
tp420
F0.002105263157894737
s(S'being'
p421
S'appointed'
p422
S'to'
p423
tp424
F0.002105263157894737
s(S'is'
p425
S'involved'
p426
S'with'
p427
tp428
F0.002105263157894737
s(S'had'
p429
S'appointed'
p430
S'to'
p431
tp432
F0.002105263157894737
s(S'[[det]]'
p433
S'member'
p434
S'from'
p435
tp436
F0.002105263157894737
s(S'[[det]]'
p437
S'member'
p438
S'which'
p439
tp440
F0.002105263157894737
s(S'[[det]]'
p441
S'school'
p442
S'of'
p443
tp444
F0.002105263157894737
s(S'[[con]]'
p445
S'joined'
p446
S'from'
p447
tp448
F0.002105263157894737
s(S'[[con]]'
p449
S'[[det]]'
p450
S'member'
p451
tp452
F0.002105263157894737
s(S'being'
p453
S'appointed'
p454
S'of'
p455
tp456
F0.002105263157894737
s(S'was'
p457
S'served'
p458
S'as'
p459
tp460
F0.002105263157894737
s(S'now'
p461
S'serves'
p462
S'as'
p463
tp464
F0.002105263157894737
s(S'was'
p465
S'leader'
p466
S'[[con]]'
p467
tp468
F0.002105263157894737
s(S'who'
p469
S'served'
p470
S'in'
p471
tp472
F0.002105263157894737
s(S'again'
p473
S'appointed'
p474
S'to'
p475
tp476
F0.002105263157894737
s(S'was'
p477
S'involved'
p478
S'on'
p479
tp480
F0.002105263157894737
s(S'been'
p481
S'involved'
p482
S'[[num]]'
p483
tp484
F0.002105263157894737
s(S'also'
p485
S'named'
p486
S'[[con]]'
p487
tp488
F0.002105263157894737
s(S'also'
p489
S'member'
p490
S'[[con]]'
p491
tp492
F0.002105263157894737
s(S'being'
p493
S'appointed'
p494
S'at'
p495
tp496
F0.002105263157894737
s(S'is'
p497
S'appointed'
p498
S'of'
p499
tp500
F0.002105263157894737
s(S'[[num]]'
p501
S'[[adj]]'
p502
S'member'
p503
tp504
F0.002105263157894737
s(S'[[con]]'
p505
S'appointed'
p506
S'[[pro]]'
p507
tp508
F0.002105263157894737
s(S'have'
p509
S'served'
p510
S'in'
p511
tp512
F0.002105263157894737
s(S'was'
p513
S'involved'
p514
S'with'
p515
tp516
F0.002105263157894737
s(S'who'
p517
S'joined'
p518
S'[[det]]'
p519
tp520
F0.002105263157894737
s(S'has'
p521
S'served'
p522
S'as'
p523
tp524
F0.002105263157894737
s(S'also'
p525
S'served'
p526
S'at'
p527
tp528
F0.002105263157894737
s(S'[[det]]'
p529
S'member'
p530
S'[[det]]'
p531
tp532
F0.002105263157894737
s(S'later'
p533
S'served'
p534
S'with'
p535
tp536
F0.002105263157894737
s(S'instead'
p537
S'joined'
p538
S'[[det]]'
p539
tp540
F0.002105263157894737
s(S'also'
p541
S'served'
p542
S'in'
p543
tp544
F0.002105263157894737
s(S'was'
p545
S'involved'
p546
S'[[adj]]'
p547
tp548
F0.002105263157894737
s(S'[[det]]'
p549
S'member'
p550
S'of'
p551
tp552
F0.010526315789473684
s(S'[[det]]'
p553
S'representative'
p554
S'to'
p555
tp556
F0.002105263157894737
s(S'formerly'
p557
S'served'
p558
S'at'
p559
tp560
F0.002105263157894737
s(S'[[det]]'
p561
S'representative'
p562
S'for'
p563
tp564
F0.002105263157894737
s(S'had'
p565
S'served'
p566
S'at'
p567
tp568
F0.002105263157894737
s(S'is'
p569
S'appointed'
p570
S'[[det]]'
p571
tp572
F0.002105263157894737
s(S'was'
p573
S'named'
p574
S'for'
p575
tp576
F0.002105263157894737
s(S'[[det]]'
p577
S'member'
p578
S'on'
p579
tp580
F0.002105263157894737
s(S'[[det]]'
p581
S'priest'
p582
S'[[con]]'
p583
tp584
F0.002105263157894737
s(S'then'
p585
S'served'
p586
S'for'
p587
tp588
F0.002105263157894737
s(S'[[con]]'
p589
S'appointed'
p590
S'as'
p591
tp592
F0.002105263157894737
s(S'also'
p593
S'appointed'
p594
S'as'
p595
tp596
F0.002105263157894737
s(S'later'
p597
S'served'
p598
S'on'
p599
tp600
F0.002105263157894737
s(S'have'
p601
S'joined'
p602
S'[[det]]'
p603
tp604
F0.002105263157894737
s(S'been'
p605
S'involved'
p606
S'at'
p607
tp608
F0.002105263157894737
s(S'[[adj]]'
p609
S'member'
p610
S'on'
p611
tp612
F0.002105263157894737
s(S'had'
p613
S'joined'
p614
S'side'
p615
tp616
F0.002105263157894737
s(S'be'
p617
S'appointed'
p618
S'to'
p619
tp620
F0.002105263157894737
s(S'[[det]]'
p621
S'member'
p622
S'as'
p623
tp624
F0.002105263157894737
s(S'where'
p625
S'joined'
p626
S'[[det]]'
p627
tp628
F0.002105263157894737
s(S'became'
p629
S'involved'
p630
S'for'
p631
tp632
F0.002105263157894737
s(S'[[det]]'
p633
S'founder'
p634
S'[[det]]'
p635
tp636
F0.002105263157894737
s(S'[[det]]'
p637
S'leader'
p638
S'to'
p639
tp640
F0.002105263157894737
s(S'who'
p641
S'served'
p642
S'[[con]]'
p643
tp644
F0.002105263157894737
s(S'later'
p645
S'served'
p646
S'as'
p647
tp648
F0.002105263157894737
s(S'became'
p649
S'involved'
p650
S'with'
p651
tp652
F0.002105263157894737
s(S'became'
p653
S'involved'
p654
S'at'
p655
tp656
F0.002105263157894737
s(S'was'
p657
S'member'
p658
S'at'
p659
tp660
F0.002105263157894737
s(S'had'
p661
S'called'
p662
S'[[det]]'
p663
tp664
F0.002105263157894737
s(S'born'
p665
S'[[num]]'
p666
S'[[det]]'
p667
tp668
F0.002105263157894737
s(S'also'
p669
S'named'
p670
S'in'
p671
tp672
F0.002105263157894737
s(S'[[adj]]'
p673
S'member'
p674
S'of'
p675
tp676
F0.00631578947368421
s(S'also'
p677
S'serves'
p678
S'for'
p679
tp680
F0.002105263157894737
s(S'born'
p681
g449
g450
tp682
F0.002105263157894737
s(S'twice'
p683
S'served'
p684
S'as'
p685
tp686
F0.002105263157894737
s(S'was'
p687
S'joined'
p688
S'on'
p689
tp690
F0.002105263157894737
s(S'[[adj]]'
p691
S'school'
p692
S'to'
p693
tp694
F0.002105263157894737
s(S'later'
p695
S'joined'
p696
S'at'
p697
tp698
F0.002105263157894737
s(S'[[con]]'
p699
S'appointed'
p700
S'to'
p701
tp702
F0.002105263157894737
s(S'now'
p703
S'called'
p704
S'in'
p705
tp706
F0.002105263157894737
s(S'where'
p707
S'served'
p708
S'with'
p709
tp710
F0.002105263157894737
s(S'[[det]]'
p711
S'leader'
p712
S'for'
p713
tp714
F0.002105263157894737
s(S'[[det]]'
p715
S'member'
p716
S's'
p717
tp718
F0.002105263157894737
s(S'also'
p719
S'serves'
p720
S'to'
p721
tp722
F0.002105263157894737
s(S'has'
p723
S'served'
p724
S'in'
p725
tp726
F0.002105263157894737
s(S'[[adj]]'
p727
S'served'
p728
S'as'
p729
tp730
F0.002105263157894737
s(S'leading'
p731
S'member'
p732
S'[[det]]'
p733
tp734
F0.002105263157894737
s(S'became'
p735
S'member'
p736
S'[[det]]'
p737
tp738
F0.002105263157894737
s(S'was'
p739
S'named'
p740
S'[[det]]'
p741
tp742
F0.002105263157894737
s(S'then'
p743
S'served'
p744
S'with'
p745
tp746
F0.002105263157894737
s(S'to'
p747
S'lead'
p748
S'[[det]]'
p749
tp750
F0.002105263157894737
s(S'was'
p751
S'called'
p752
S'before'
p753
tp754
F0.002105263157894737
s(S'was'
p755
S'called'
p756
S'from'
p757
tp758
F0.002105263157894737
s(S'been'
p759
S'appointed'
p760
S'at'
p761
tp762
F0.002105263157894737
s(S'ordained'
p763
S'minister'
p764
S'of'
p765
tp766
F0.002105263157894737
s(S'currently'
p767
S'serves'
p768
S'[[con]]'
p769
tp770
F0.002105263157894737
s(S'[[det]]'
p771
S'minister'
p772
S'of'
p773
tp774
F0.00631578947368421
s(S'was'
p775
S'member'
p776
S'of'
p777
tp778
F0.002105263157894737
s(S'[[det]]'
p779
S'priest'
p780
S'in'
p781
tp782
F0.002105263157894737
s(S'[[adj]]'
p783
S'representative'
p784
S'[[det]]'
p785
tp786
F0.002105263157894737
s(S'was'
p787
S'appointed'
p788
S'when'
p789
tp790
F0.002105263157894737
s(S'also'
p791
S'joined'
p792
S'[[det]]'
p793
tp794
F0.002105263157894737
s(S'currently'
p795
S'serves'
p796
S'[[det]]'
p797
tp798
F0.002105263157894737
s(S'[[det]]'
p799
S'priest'
p800
S'at'
p801
tp802
F0.002105263157894737
s(S'has'
p803
S'served'
p804
S'before'
p805
tp806
F0.002105263157894737
s(S'is'
p807
S'member'
p808
S'of'
p809
tp810
F0.002105263157894737
s(S'is'
p811
S'named'
p812
S'of'
p813
tp814
F0.002105263157894737
s(S'then'
p815
S'joined'
p816
S'then'
p817
tp818
F0.002105263157894737
s(S'who'
p819
S'joined'
p820
S'from'
p821
tp822
F0.002105263157894737
s(S'also'
p823
S'served'
p824
S'until'
p825
tp826
F0.002105263157894737
s(S'again'
p827
S'appointed'
p828
S'of'
p829
tp830
F0.002105263157894737
s(S'been'
p831
S'involved'
p832
S'as'
p833
tp834
F0.002105263157894737
s(g666
g667
S'member'
p835
tp836
F0.002105263157894737
s(S'[[det]]'
p837
S'representative'
p838
S'on'
p839
tp840
F0.002105263157894737
s(S'has'
p841
S'served'
p842
S'until'
p843
tp844
F0.002105263157894737
s(S'again'
p845
S'served'
p846
S'to'
p847
tp848
F0.002105263157894737
s(S'first'
p849
S'served'
p850
S'with'
p851
tp852
F0.002105263157894737
s(S'were'
p853
S'named'
p854
S'as'
p855
tp856
F0.002105263157894737
s(S'has'
p857
S'served'
p858
S'[[det]]'
p859
tp860
F0.002105263157894737
s(S'later'
p861
S'joined'
p862
S'[[det]]'
p863
tp864
F0.002105263157894737
s(S'later'
p865
S'appointed'
p866
S'[[pro]]'
p867
tp868
F0.002105263157894737
s(S'is'
p869
S'appointed'
p870
S'[[con]]'
p871
tp872
F0.002105263157894737
s(S'became'
p873
S'member'
p874
S'of'
p875
tp876
F0.002105263157894737
s(S'also'
p877
S'appointed'
p878
S'at'
p879
tp880
F0.002105263157894737
s(S'[[num]]'
p881
S'served'
p882
S'on'
p883
tp884
F0.002105263157894737
s(S'[[con]]'
p885
S'member'
p886
S'of'
p887
tp888
F0.002105263157894737
s(S'[[adj]]'
p889
S'member'
p890
S'for'
p891
tp892
F0.002105263157894737
s(S'also'
p893
S'called'
p894
S'up'
p895
tp896
F0.002105263157894737
s(S'has'
p897
S'served'
p898
S'for'
p899
tp900
F0.002105263157894737
s(S'first'
p901
S'called'
p902
S'up'
p903
tp904
F0.002105263157894737
s(S'also'
p905
S'served'
p906
S'[[adj]]'
p907
tp908
F0.002105263157894737
s(S'born'
p909
g345
g346
tp910
F0.002105263157894737
s(S'was'
p911
S'appointed'
p912
S'[[con]]'
p913
tp914
F0.002105263157894737
s(S'was'
p915
S'joined'
p916
S'at'
p917
tp918
F0.002105263157894737
s(S'[[det]]'
p919
S'served'
p920
S'in'
p921
tp922
F0.002105263157894737
s(S'been'
p923
S'named'
p924
S'of'
p925
tp926
F0.002105263157894737
s(S'been'
p927
S'appointed'
p928
S'of'
p929
tp930
F0.002105263157894737
s(S'been'
p931
S'named'
p932
S'to'
p933
tp934
F0.002105263157894737
s(S'is'
p935
S'founder'
p936
S'[[con]]'
p937
tp938
F0.002105263157894737
s(S'been'
p939
S'appointed'
p940
S'to'
p941
tp942
F0.002105263157894737
s(g102
g103
S'member'
p943
tp944
F0.002105263157894737
s(S'currently'
p945
S'serves'
p946
S'for'
p947
tp948
F0.002105263157894737
s(S'then'
p949
S'appointed'
p950
S'[[num]]'
p951
tp952
F0.002105263157894737
s(S'also'
p953
S'named'
p954
S'[[det]]'
p955
tp956
F0.002105263157894737
s(S'was'
p957
S'member'
p958
S'[[con]]'
p959
tp960
F0.002105263157894737
s(S'was'
p961
S'named'
p962
S'in'
p963
tp964
F0.002105263157894737
s(S'again'
p965
S'named'
p966
S'in'
p967
tp968
F0.002105263157894737
s(S'twice'
p969
S'served'
p970
S'in'
p971
tp972
F0.002105263157894737
s(S'then'
p973
S'appointed'
p974
S'[[pro]]'
p975
tp976
F0.002105263157894737
s(S'[[det]]'
p977
S'member'
p978
S'who'
p979
tp980
F0.002105263157894737
s(S'later'
p981
S'appointed'
p982
S'as'
p983
tp984
F0.002105263157894737
s(S'then'
p985
S'appointed'
p986
S'to'
p987
tp988
F0.002105263157894737
s(S'[[num]]'
p989
S'member'
p990
S'of'
p991
tp992
F0.004210526315789474
s(S'had'
p993
S'served'
p994
S'[[det]]'
p995
tp996
F0.002105263157894737
s(S'[[adj]]'
p997
S'school'
p998
S'for'
p999
tp1000
F0.002105263157894737
s(S'[[adj]]'
p1001
S'school'
p1002
S'[[con]]'
p1003
tp1004
F0.002105263157894737
s(S'also'
p1005
S'serves'
p1006
S'on'
p1007
tp1008
F0.002105263157894737
s(S'been'
p1009
S'appointed'
p1010
S'as'
p1011
tp1012
F0.002105263157894737
s(S'been'
p1013
S'named'
p1014
S'as'
p1015
tp1016
F0.002105263157894737
s(S'[[con]]'
p1017
S'served'
p1018
S'in'
p1019
tp1020
F0.002105263157894737
s(S'then'
p1021
S'joined'
p1022
S'[[con]]'
p1023
tp1024
F0.002105263157894737
s(S'also'
p1025
S'named'
p1026
S'to'
p1027
tp1028
F0.002105263157894737
s(S'had'
p1029
S'served'
p1030
S'with'
p1031
tp1032
F0.002105263157894737
s(S'now'
p1033
S'called'
p1034
S'[[det]]'
p1035
tp1036
F0.002105263157894737
s(S'is'
p1037
S'founder'
p1038
S'of'
p1039
tp1040
F0.002105263157894737
s(S'[[det]]'
p1041
S'leader'
p1042
S'of'
p1043
tp1044
F0.002105263157894737
s(S'was'
p1045
S'founder'
p1046
S'[[con]]'
p1047
tp1048
F0.002105263157894737
s(S'been'
p1049
S'named'
p1050
S'[[con]]'
p1051
tp1052
F0.002105263157894737
s(g306
g307
S'member'
p1053
tp1054
F0.002105263157894737
s(S'been'
p1055
S'appointed'
p1056
S'[[con]]'
p1057
tp1058
F0.002105263157894737
s(S'then'
p1059
S'appointed'
p1060
S'at'
p1061
tp1062
F0.002105263157894737
s(S'had'
p1063
S'served'
p1064
S'on'
p1065
tp1066
F0.002105263157894737
s(S'was'
p1067
S'representative'
p1068
S'on'
p1069
tp1070
F0.002105263157894737
s(S'[[adj]]'
p1071
S'representative'
p1072
S'to'
p1073
tp1074
F0.002105263157894737
s(S'was'
p1075
S'called'
p1076
S'in'
p1077
tp1078
F0.002105263157894737
s(S'again'
p1079
S'named'
p1080
S'by'
p1081
tp1082
F0.002105263157894737
s(S'[[adj]]'
p1083
S'founder'
p1084
S'[[con]]'
p1085
tp1086
F0.002105263157894737
s(S'was'
p1087
S'involved'
p1088
S'to'
p1089
tp1090
F0.002105263157894737
s(S'[[con]]'
p1091
S'served'
p1092
S'on'
p1093
tp1094
F0.002105263157894737
s(S'was'
p1095
S'appointed'
p1096
S'at'
p1097
tp1098
F0.002105263157894737
s(S'first'
p1099
S'joined'
p1100
S'[[con]]'
p1101
tp1102
F0.002105263157894737
s(S'[[det]]'
p1103
S'member'
p1104
S'[[num]]'
p1105
tp1106
F0.002105263157894737
s(S'was'
p1107
S'appointed'
p1108
S'in'
p1109
tp1110
F0.002105263157894737
s(S'[[det]]'
p1111
S'representative'
p1112
S'of'
p1113
tp1114
F0.002105263157894737
s(S'[[con]]'
p1115
S'belonged'
p1116
S'to'
p1117
tp1118
F0.002105263157894737
s(S'be'
p1119
S'named'
p1120
S'of'
p1121
tp1122
F0.002105263157894737
s(S'also'
p1123
S'serves'
p1124
S'as'
p1125
tp1126
F0.002105263157894737
s(S'was'
p1127
S'named'
p1128
S'[[con]]'
p1129
tp1130
F0.002105263157894737
s(S'also'
p1131
S'involved'
p1132
S'with'
p1133
tp1134
F0.002105263157894737
s(S'[[adj]]'
p1135
S'founder'
p1136
S'of'
p1137
tp1138
F0.002105263157894737
s(S'later'
p1139
S'appointed'
p1140
S'of'
p1141
tp1142
F0.002105263157894737
s(S'[[adj]]'
p1143
S'appointed'
p1144
S'as'
p1145
tp1146
F0.002105263157894737
s(S'[[num]]'
p1147
S'served'
p1148
S'for'
p1149
tp1150
F0.002105263157894737
s(S'[[adj]]'
p1151
S'leader'
p1152
S'[[det]]'
p1153
tp1154
F0.002105263157894737
s(S'formerly'
p1155
S'served'
p1156
S'for'
p1157
tp1158
F0.002105263157894737
s(S'[[adj]]'
p1159
S'member'
p1160
S'[[adj]]'
p1161
tp1162
F0.002105263157894737
s(S'later'
p1163
S'named'
p1164
S'of'
p1165
tp1166
F0.002105263157894737
s(S'then'
p1167
S'named'
p1168
S'[[det]]'
p1169
tp1170
F0.002105263157894737
s(S'[[adj]]'
p1171
S'minister'
p1172
S'to'
p1173
tp1174
F0.002105263157894737
s(S'was'
p1175
S'ordained'
p1176
S'as'
p1177
tp1178
F0.004210526315789474
s(S'was'
p1179
S'appointed'
p1180
S'[[adj]]'
p1181
tp1182
F0.002105263157894737
s(S'also'
p1183
S'served'
p1184
S'for'
p1185
tp1186
F0.002105263157894737
s(S'leading'
p1187
S'member'
p1188
S'[[con]]'
p1189
tp1190
F0.002105263157894737
s(S'then'
p1191
S'joined'
p1192
S'of'
p1193
tp1194
F0.002105263157894737
s(S'is'
p1195
S'appointed'
p1196
S'at'
p1197
tp1198
F0.002105263157894737
s(S'also'
p1199
S'served'
p1200
S'[[con]]'
p1201
tp1202
F0.002105263157894737
s(S'was'
p1203
S'named'
p1204
S'of'
p1205
tp1206
F0.002105263157894737
s(S'[[adj]]'
p1207
S'school'
p1208
S'[[adj]]'
p1209
tp1210
F0.002105263157894737
s(S'[[det]]'
p1211
S'member'
p1212
S'has'
p1213
tp1214
F0.002105263157894737
s(S'that'
p1215
S'involved'
p1216
S'[[det]]'
p1217
tp1218
F0.002105263157894737
s(S'[[con]]'
p1219
S'serves'
p1220
S'in'
p1221
tp1222
F0.002105263157894737
s(S'where'
p1223
S'served'
p1224
S'in'
p1225
tp1226
F0.002105263157894737
s(S'was'
p1227
S'raised'
p1228
S'[[det]]'
p1229
tp1230
F0.002105263157894737
s(S'been'
p1231
S'named'
p1232
S'in'
p1233
tp1234
F0.002105263157894737
s(S'was'
p1235
S'raised'
p1236
S'as'
p1237
tp1238
F0.002105263157894737
s(S'who'
p1239
S'served'
p1240
S'as'
p1241
tp1242
F0.002105263157894737
s(S'[[det]]'
p1243
S'representative'
p1244
S'[[det]]'
p1245
tp1246
F0.002105263157894737
s(S'was'
p1247
S'leader'
p1248
S'of'
p1249
tp1250
F0.002105263157894737
s(S'was'
p1251
S'involved'
p1252
S'for'
p1253
tp1254
F0.002105263157894737
s(S'was'
p1255
S'named'
p1256
S'on'
p1257
tp1258
F0.002105263157894737
s(S'was'
p1259
g193
g194
tp1260
F0.004210526315789474
s(S'with'
p1261
S'joined'
p1262
S'[[det]]'
p1263
tp1264
F0.002105263157894737
s(S'[[det]]'
p1265
S'member'
p1266
S'to'
p1267
tp1268
F0.002105263157894737
s(S'also'
p1269
S'involved'
p1270
S'in'
p1271
tp1272
F0.002105263157894737
s(S'[[adj]]'
p1273
S'representative'
p1274
S'on'
p1275
tp1276
F0.002105263157894737
s(S'[[det]]'
p1277
S'founder'
p1278
S'[[con]]'
p1279
tp1280
F0.002105263157894737
s(S'[[adj]]'
p1281
S'leader'
p1282
S'in'
p1283
tp1284
F0.002105263157894737
s(S'[[det]]'
p1285
S'founder'
p1286
S'of'
p1287
tp1288
F0.002105263157894737
s(S'is'
p1289
S'member'
p1290
S'[[det]]'
p1291
tp1292
F0.002105263157894737
s(S'[[num]]'
p1293
S'served'
p1294
S'in'
p1295
tp1296
F0.002105263157894737
s(S'is'
p1297
S'involved'
p1298
S'[[con]]'
p1299
tp1300
F0.002105263157894737
s(S'now'
p1301
S'serves'
p1302
S'for'
p1303
tp1304
F0.002105263157894737
s(S'then'
p1305
S'appointed'
p1306
S'of'
p1307
tp1308
F0.002105263157894737
s(S'being'
p1309
S'named'
p1310
S'of'
p1311
tp1312
F0.002105263157894737
s(S'be'
p1313
S'involved'
p1314
S'with'
p1315
tp1316
F0.002105263157894737
s(S'then'
p1317
S'joined'
p1318
S'[[det]]'
p1319
tp1320
F0.002105263157894737
s(S'was'
p1321
S'member'
p1322
S'[[num]]'
p1323
tp1324
F0.002105263157894737
s(S'be'
p1325
S'involved'
p1326
S'in'
p1327
tp1328
F0.002105263157894737
s(S'[[adj]]'
p1329
S'appointed'
p1330
S'to'
p1331
tp1332
F0.002105263157894737
s(S'was'
p1333
S'called'
p1334
S'out'
p1335
tp1336
F0.002105263157894737
s(S'[[adj]]'
p1337
S'leader'
p1338
S'of'
p1339
tp1340
F0.002105263157894737
s(S'[[det]]'
p1341
S'representative'
p1342
S'at'
p1343
tp1344
F0.002105263157894737
s(S'was'
p1345
S'involved'
p1346
S'by'
p1347
tp1348
F0.002105263157894737
s(S'then'
p1349
S'joined'
p1350
S'on'
p1351
tp1352
F0.002105263157894737
s(S'has'
p1353
S'served'
p1354
S'where'
p1355
tp1356
F0.002105263157894737
s(S'[[con]]'
p1357
S'served'
p1358
S'for'
p1359
tp1360
F0.002105263157894737
s(S'was'
p1361
S'called'
p1362
S'with'
p1363
tp1364
F0.002105263157894737
s(S'was'
p1365
S'appointed'
p1366
S'[[num]]'
p1367
tp1368
F0.002105263157894737
s(S'was'
p1369
S'raised'
p1370
S'from'
p1371
tp1372
F0.002105263157894737
s(S'be'
p1373
S'appointed'
p1374
S'at'
p1375
tp1376
F0.002105263157894737
s(S'later'
p1377
S'appointed'
p1378
S'[[det]]'
p1379
tp1380
F0.002105263157894737
s(S'had'
p1381
S'joined'
p1382
S'of'
p1383
tp1384
F0.002105263157894737
s(S'as'
p1385
S'member'
p1386
S'of'
p1387
tp1388
F0.002105263157894737
s(S'nominated'
p1389
S'to'
p1390
g29
tp1391
F0.002105263157894737
s(S'then'
p1392
S'called'
p1393
S'up'
p1394
tp1395
F0.002105263157894737
s(S'[[con]]'
p1396
S'joined'
p1397
S'at'
p1398
tp1399
F0.002105263157894737
s(S'was'
p1400
S'appointed'
p1401
S'to'
p1402
tp1403
F0.002105263157894737
s(S'also'
p1404
S'serves'
p1405
S'[[det]]'
p1406
tp1407
F0.002105263157894737
s(S'as'
p1408
S'leader'
p1409
S'of'
p1410
tp1411
F0.002105263157894737
s(S'was'
p1412
S'appointed'
p1413
S'for'
p1414
tp1415
F0.002105263157894737
s(g1176
g1177
S'[[det]]'
p1416
tp1417
F0.004210526315789474
s(S'[[adj]]'
p1418
S'member'
p1419
S'in'
p1420
tp1421
F0.002105263157894737
s(S'is'
p1422
S'named'
p1423
S'by'
p1424
tp1425
F0.002105263157894737
s(S'[[adj]]'
p1426
S'served'
p1427
S'at'
p1428
tp1429
F0.002105263157894737
s(S'[[adj]]'
p1430
S'member'
p1431
S'[[num]]'
p1432
tp1433
F0.002105263157894737
s(S'also'
p1434
S'served'
p1435
S'[[num]]'
p1436
tp1437
F0.002105263157894737
s(S'[[adj]]'
p1438
S'served'
p1439
S'for'
p1440
tp1441
F0.002105263157894737
s(S'[[con]]'
p1442
S'served'
p1443
S'[[det]]'
p1444
tp1445
F0.002105263157894737
s(S'[[adj]]'
p1446
S'member'
p1447
S'at'
p1448
tp1449
F0.002105263157894737
s(S'formerly'
p1450
S'served'
p1451
S'in'
p1452
tp1453
F0.002105263157894737
s(S'also'
p1454
S'member'
p1455
S'of'
p1456
tp1457
F0.002105263157894737
s(S'first'
p1458
S'appointed'
p1459
S'to'
p1460
tp1461
F0.002105263157894737
s(S'[[det]]'
p1462
S'member'
p1463
S'[[adj]]'
p1464
tp1465
F0.002105263157894737
s(S'born'
p1466
g501
g502
tp1467
F0.002105263157894737
s(S'[[adj]]'
p1468
S'school'
p1469
S'that'
p1470
tp1471
F0.002105263157894737
s(S'also'
p1472
S'appointed'
p1473
S'to'
p1474
tp1475
F0.002105263157894737
s(S'was'
p1476
S'appointed'
p1477
S'was'
p1478
tp1479
F0.002105263157894737
s(S'later'
p1480
S'served'
p1481
S'[[adj]]'
p1482
tp1483
F0.002105263157894737
s(S'[[con]]'
p1484
S'member'
p1485
S'[[det]]'
p1486
tp1487
F0.002105263157894737
s(S'was'
p1488
S'named'
p1489
S'to'
p1490
tp1491
F0.002105263157894737
s(S'had'
p1492
S'served'
p1493
S'in'
p1494
tp1495
F0.002105263157894737
s(S'[[adj]]'
p1496
S'member'
p1497
S'as'
p1498
tp1499
F0.002105263157894737
s(S'currently'
p1500
S'serves'
p1501
S'at'
p1502
tp1503
F0.002105263157894737
s(S'[[con]]'
p1504
S'joined'
p1505
S'[[adj]]'
p1506
tp1507
F0.002105263157894737
s(g1390
g29
g30
tp1508
F0.002105263157894737
s(S'[[adj]]'
p1509
S'school'
p1510
S'of'
p1511
tp1512
F0.002105263157894737
s(S'[[adj]]'
p1513
S'joined'
p1514
S'[[det]]'
p1515
tp1516
F0.002105263157894737
s(S'[[con]]'
p1517
S'appointed'
p1518
S'of'
p1519
tp1520
F0.002105263157894737
s(S'[[con]]'
p1521
S'member'
p1522
S'[[con]]'
p1523
tp1524
F0.002105263157894737
s(S'was'
p1525
S'called'
p1526
S'of'
p1527
tp1528
F0.002105263157894737
s(S'born'
p1529
S'[[num]]'
p1530
S'member'
p1531
tp1532
F0.002105263157894737
s(S'been'
p1533
S'involved'
p1534
S'with'
p1535
tp1536
F0.002105263157894737
s(S'[[adj]]'
p1537
S'priest'
p1538
S'in'
p1539
tp1540
F0.002105263157894737
s(S'been'
p1541
S'appointed'
p1542
S'for'
p1543
tp1544
F0.002105263157894737
s(S'[[num]]'
p1545
S'joined'
p1546
S'[[det]]'
p1547
tp1548
F0.002105263157894737
s(S'was'
p1549
S'member'
p1550
S'in'
p1551
tp1552
F0.002105263157894737
s(S'[[con]]'
p1553
S'serves'
p1554
S'on'
p1555
tp1556
F0.002105263157894737
s(S'was'
p1557
S'raised'
p1558
S'[[con]]'
p1559
tp1560
F0.002105263157894737
s(S'then'
p1561
S'served'
p1562
S'[[det]]'
p1563
tp1564
F0.002105263157894737
s(g1177
g1416
S'minister'
p1565
tp1566
F0.004210526315789474
s(S'has'
p1567
S'served'
p1568
S'to'
p1569
tp1570
F0.002105263157894737
s(S'[[det]]'
p1571
g731
g732
tp1572
F0.00631578947368421
s(S'also'
p1573
S'serves'
p1574
S'[[con]]'
p1575
tp1576
F0.002105263157894737
s(S'later'
p1577
S'served'
p1578
S'[[con]]'
p1579
tp1580
F0.002105263157894737
s(S'became'
p1581
S'member'
p1582
S'for'
p1583
tp1584
F0.002105263157894737
s(S'[[adj]]'
p1585
S'minister'
p1586
S'at'
p1587
tp1588
F0.002105263157894737
s(S'[[adj]]'
p1589
S'member'
p1590
S'[[con]]'
p1591
tp1592
F0.002105263157894737
s(S'also'
p1593
S'named'
p1594
S'at'
p1595
tp1596
F0.002105263157894737
s(S'[[adj]]'
p1597
S'minister'
p1598
S'in'
p1599
tp1600
F0.002105263157894737
s(g30
g31
S'judge'
p1601
tp1602
F0.002105263157894737
s(S'[[det]]'
p1603
S'leader'
p1604
S'[[con]]'
p1605
tp1606
F0.002105263157894737
s(S'[[det]]'
p1607
S'member'
p1608
S'[[con]]'
p1609
tp1610
F0.002105263157894737
s(S'was'
p1611
S'named'
p1612
S'with'
p1613
tp1614
F0.002105263157894737
s(S'be'
p1615
S'appointed'
p1616
S'of'
p1617
tp1618
F0.002105263157894737
s(S'[[det]]'
p1619
S'minister'
p1620
S'when'
p1621
tp1622
F0.002105263157894737
s(S'first'
p1623
S'joined'
p1624
S'[[det]]'
p1625
tp1626
F0.002105263157894737
s(S'then'
p1627
S'appointed'
p1628
S'[[adj]]'
p1629
tp1630
F0.002105263157894737
s(S'has'
p1631
S'served'
p1632
S'at'
p1633
tp1634
F0.002105263157894737
s(S'was'
p1635
S'named'
p1636
S'as'
p1637
tp1638
F0.002105263157894737
s(S'then'
p1639
S'served'
p1640
S'at'
p1641
tp1642
F0.002105263157894737
s(S'been'
p1643
S'appointed'
p1644
S'in'
p1645
tp1646
F0.002105263157894737
s(S'has'
p1647
S'served'
p1648
S'on'
p1649
tp1650
F0.002105263157894737
s(S'then'
p1651
S'served'
p1652
S'in'
p1653
tp1654
F0.002105263157894737
s(S'was'
p1655
g681
g449
tp1656
F0.002105263157894737
s(S'later'
p1657
S'served'
p1658
S'for'
p1659
tp1660
F0.002105263157894737
s(S'was'
p1661
S'member'
p1662
S'[[det]]'
p1663
tp1664
F0.002105263157894737
s(S'being'
p1665
S'appointed'
p1666
S'as'
p1667
tp1668
F0.002105263157894737
s(S'was'
p1669
S'appointed'
p1670
S'on'
p1671
tp1672
F0.002105263157894737
s(S'was'
p1673
S'representative'
p1674
S'to'
p1675
tp1676
F0.002105263157894737
s(S'be'
p1677
S'called'
p1678
S'up'
p1679
tp1680
F0.002105263157894737
s(S'was'
p1681
S'appointed'
p1682
S'before'
p1683
tp1684
F0.002105263157894737
s(S'later'
p1685
S'named'
p1686
S'[[det]]'
p1687
tp1688
F0.002105263157894737
s(S'[[det]]'
p1689
S'member'
p1690
S'for'
p1691
tp1692
F0.002105263157894737
s(S'again'
p1693
S'named'
p1694
S'[[det]]'
p1695
tp1696
F0.002105263157894737
s(S'also'
p1697
S'appointed'
p1698
S'[[det]]'
p1699
tp1700
F0.002105263157894737
s(S'became'
p1701
S'involved'
p1702
S'as'
p1703
tp1704
F0.002105263157894737
s(S'[[det]]'
p1705
S'school'
p1706
S'[[con]]'
p1707
tp1708
F0.002105263157894737
s(S'has'
p1709
S'joined'
p1710
S'[[det]]'
p1711
tp1712
F0.002105263157894737
s(S'also'
p1713
S'served'
p1714
S'from'
p1715
tp1716
F0.002105263157894737
s(S'was'
p1717
S'joined'
p1718
S'[[det]]'
p1719
tp1720
F0.002105263157894737
s(S'also'
p1721
S'served'
p1722
S'to'
p1723
tp1724
F0.002105263157894737
s(S'was'
p1725
S'appointed'
p1726
S'of'
p1727
tp1728
F0.002105263157894737
s(S'as'
p1729
S'representative'
p1730
S'of'
p1731
tp1732
F0.002105263157894737
s(S'had'
p1733
S'served'
p1734
S'as'
p1735
tp1736
F0.002105263157894737
s(S'currently'
p1737
S'serves'
p1738
S'as'
p1739
tp1740
F0.002105263157894737
s(S'also'
p1741
S'served'
p1742
S'on'
p1743
tp1744
F0.002105263157894737
s(S'also'
p1745
S'serves'
p1746
S'at'
p1747
tp1748
F0.002105263157894737
s(S'until'
p1749
S'joined'
p1750
S'[[det]]'
p1751
tp1752
F0.002105263157894737
s(S'become'
p1753
S'leader'
p1754
S'of'
p1755
tp1756
F0.002105263157894737
s(S'also'
p1757
S'serves'
p1758
S'in'
p1759
tp1760
F0.002105263157894737
s(g31
g1601
S'of'
p1761
tp1762
F0.002105263157894737
s(S'later'
p1763
S'served'
p1764
S'in'
p1765
tp1766
F0.002105263157894737
s(S'[[det]]'
p1767
S'leader'
p1768
S'at'
p1769
tp1770
F0.002105263157894737
s(S'later'
p1771
S'served'
p1772
S'at'
p1773
tp1774
F0.002105263157894737
s(S'again'
p1775
S'joined'
p1776
S'[[det]]'
p1777
tp1778
F0.002105263157894737
s(S'[[det]]'
p1779
S'leader'
p1780
S'in'
p1781
tp1782
F0.002105263157894737
s(S'also'
p1783
S'served'
p1784
S'of'
p1785
tp1786
F0.002105263157894737
s(S'[[adj]]'
p1787
S'representative'
p1788
S'of'
p1789
tp1790
F0.002105263157894737
s.