(dp0
(S'also'
p1
S'appointed'
p2
S'in'
p3
tp4
F0.0006626905235255136
s(S'be'
p5
S'appointed'
p6
S'[[det]]'
p7
tp8
F0.0006626905235255136
s(S'then'
p9
S'played'
p10
S'with'
p11
tp12
F0.0006626905235255136
s(S'[[det]]'
p13
S'member'
p14
S'at'
p15
tp16
F0.0006626905235255136
s(S'again'
p17
S'played'
p18
S'against'
p19
tp20
F0.0006626905235255136
s(S'as'
p21
S'[[det]]'
p22
S'mayor'
p23
tp24
F0.0006626905235255136
s(S'only'
p25
S'played'
p26
S'twice'
p27
tp28
F0.0006626905235255136
s(S'who'
p29
S'played'
p30
S'in'
p31
tp32
F0.0006626905235255136
s(S'when'
p33
S'served'
p34
S'with'
p35
tp36
F0.0006626905235255136
s(S'[[con]]'
p37
S'served'
p38
S'with'
p39
tp40
F0.0006626905235255136
s(S'was'
p41
S'elected'
p42
S'[[det]]'
p43
tp44
F0.0006626905235255136
s(S'where'
p45
S'played'
p46
S'in'
p47
tp48
F0.0006626905235255136
s(S'did'
p49
S'[[prp]]'
p50
S'schooling'
p51
tp52
F0.0033134526176275677
s(g50
g51
S'at'
p53
tp54
F0.0006626905235255136
s(S'again'
p55
S'moved'
p56
S'[[prp]]'
p57
tp58
F0.0006626905235255136
s(S'serve'
p59
S'as'
p60
S'[[det]]'
p61
tp62
F0.0006626905235255136
s(S'[[mod]]'
p63
S'return'
p64
S'[[con]]'
p65
tp66
F0.0006626905235255136
s(S'first'
p67
S'came'
p68
S'with'
p69
tp70
F0.0006626905235255136
s(S'first'
p71
S'played'
p72
S'at'
p73
tp74
F0.0006626905235255136
s(S'currently'
p75
S'professor'
p76
S'[[con]]'
p77
tp78
F0.0006626905235255136
s(S'been'
p79
S'serving'
p80
S'as'
p81
tp82
F0.0006626905235255136
s(S'while'
p83
S'moved'
p84
S'to'
p85
tp86
F0.0006626905235255136
s(S'born'
p87
S'[[con]]'
p88
S'was'
p89
tp90
F0.0006626905235255136
s(S'born'
p91
S'[[con]]'
p92
S'[[prp]]'
p93
tp94
F0.0013253810470510272
s(S'[[det]]'
p95
S'family'
p96
S'moved'
p97
tp98
F0.0013253810470510272
s(S'[[adj]]'
p99
S'based'
p100
S'in'
p101
tp102
F0.0006626905235255136
s(S'later'
p103
S'worked'
p104
S'to'
p105
tp106
F0.0006626905235255136
s(S'was'
p107
S'living'
p108
S'on'
p109
tp110
F0.0006626905235255136
s(S'was'
p111
S'named'
p112
S'at'
p113
tp114
F0.0006626905235255136
s(S'[[con]]'
p115
S'flew'
p116
S'to'
p117
tp118
F0.0006626905235255136
s(S'[[adj]]'
p119
S'appointed'
p120
S'as'
p121
tp122
F0.0006626905235255136
s(S'had'
p123
S'played'
p124
S'in'
p125
tp126
F0.0006626905235255136
s(S'[[det]]'
p127
S'return'
p128
S'[[con]]'
p129
tp130
F0.0006626905235255136
s(S'being'
p131
S'appointed'
p132
S'of'
p133
tp134
F0.0006626905235255136
s(S'later'
p135
S'appointed'
p136
S'as'
p137
tp138
F0.0006626905235255136
s(S'[[num]]'
p139
S'member'
p140
S'of'
p141
tp142
F0.0006626905235255136
s(S'that'
p143
S'won'
p144
S'in'
p145
tp146
F0.0006626905235255136
s(S'was'
p147
S'born'
p148
S'raised'
p149
tp150
F0.0006626905235255136
s(S'then'
p151
S'moved'
p152
S'in'
p153
tp154
F0.0006626905235255136
s(S'then'
p155
S'graduated'
p156
S'from'
p157
tp158
F0.0006626905235255136
s(S'was'
p159
S'buried'
p160
S'at'
p161
tp162
F0.0019880715705765406
s(S'was'
p163
S'taken'
p164
S'in'
p165
tp166
F0.0006626905235255136
s(S'[[con]]'
p167
S'worked'
p168
S'again'
p169
tp170
F0.0006626905235255136
s(S'were'
p171
S'arrested'
p172
S'in'
p173
tp174
F0.0006626905235255136
s(S'had'
p175
S'come'
p176
S'to'
p177
tp178
F0.0006626905235255136
s(S'member'
p179
S'[[det]]'
p180
S'of'
p181
tp182
F0.0006626905235255136
s(S'who'
p183
S'played'
p184
S'with'
p185
tp186
F0.0006626905235255136
s(S'was'
p187
S'buried'
p188
S'in'
p189
tp190
F0.003976143141153081
s(S'at'
p191
S'village'
p192
S'of'
p193
tp194
F0.0006626905235255136
s(S'[[prp]]'
p195
S'family'
p196
S'from'
p197
tp198
F0.0013253810470510272
s(S'still'
p199
S'lives'
p200
S'in'
p201
tp202
F0.0006626905235255136
s(S'[[det]]'
p203
S'member'
p204
S'on'
p205
tp206
F0.0006626905235255136
s(S'soon'
p207
S'was'
p208
S'buried'
p209
tp210
F0.0006626905235255136
s(S'who'
p211
S'served'
p212
S'with'
p213
tp214
F0.0006626905235255136
s(S'[[prp]]'
p215
S'schooling'
p216
S'[[con]]'
p217
tp218
F0.0006626905235255136
s(S'instead'
p219
S'appointed'
p220
S'[[pro]]'
p221
tp222
F0.0006626905235255136
s(S'[[prp]]'
p223
S'return'
p224
S'from'
p225
tp226
F0.0006626905235255136
s(S'[[adj]]'
p227
S'pitcher'
p228
S'who'
p229
tp230
F0.0006626905235255136
s(S'[[num]]'
p231
S'lives'
p232
S'in'
p233
tp234
F0.0013253810470510272
s(S'currently'
p235
S'resides'
p236
S'in'
p237
tp238
F0.0019880715705765406
s(S'[[det]]'
p239
S'member'
p240
S'when'
p241
tp242
F0.0006626905235255136
s(S'[[det]]'
p243
S'moved'
p244
S'to'
p245
tp246
F0.0006626905235255136
s(S'[[det]]'
p247
S'president'
p248
S'to'
p249
tp250
F0.0006626905235255136
s(S'was'
p251
S'awarded'
p252
S'to'
p253
tp254
F0.0006626905235255136
s(S'first'
p255
S'came'
p256
S'as'
p257
tp258
F0.0006626905235255136
s(S'formerly'
p259
S'worked'
p260
S'in'
p261
tp262
F0.0006626905235255136
s(S'[[det]]'
p263
S'member'
p264
S'until'
p265
tp266
F0.0006626905235255136
s(S'had'
p267
S'represented'
p268
S'in'
p269
tp270
F0.0006626905235255136
s(S'currently'
p271
S'resides'
p272
S'at'
p273
tp274
F0.0006626905235255136
s(S'been'
p275
S'named'
p276
S'by'
p277
tp278
F0.0006626905235255136
s(S'when'
p279
S'served'
p280
S'in'
p281
tp282
F0.0006626905235255136
s(S'moved'
p283
S'[[det]]'
p284
S'family'
p285
tp286
F0.0013253810470510272
s(S'[[det]]'
p287
S'member'
p288
S'representing'
p289
tp290
F0.0006626905235255136
s(S'was'
p291
S'returned'
p292
S'by'
p293
tp294
F0.0006626905235255136
s(S'is'
p295
S'serving'
p296
S'at'
p297
tp298
F0.0006626905235255136
s(S'[[adj]]'
p299
S'campaign'
p300
S'in'
p301
tp302
F0.0006626905235255136
s(S'was'
p303
S'president'
p304
S'[[det]]'
p305
tp306
F0.0006626905235255136
s(S'[[prp]]'
p307
S'[[adj]]'
p308
S'schooling'
p309
tp310
F0.0006626905235255136
s(S'where'
p311
S'graduated'
p312
S'from'
p313
tp314
F0.0006626905235255136
s(S'worked'
p315
S'when'
p316
S'returned'
p317
tp318
F0.0006626905235255136
s(S'mainly'
p319
S'played'
p320
S'for'
p321
tp322
F0.0006626905235255136
s(S'had'
p323
S'played'
p324
S'with'
p325
tp326
F0.0006626905235255136
s(S'has'
p327
S'served'
p328
S'[[con]]'
p329
tp330
F0.0006626905235255136
s(S'[[pro]]'
p331
S'worked'
p332
S'with'
p333
tp334
F0.0006626905235255136
s(S'[[con]]'
p335
S'served'
p336
S'at'
p337
tp338
F0.0006626905235255136
s(S'[[pro]]'
p339
S'come'
p340
S'to'
p341
tp342
F0.0006626905235255136
s(S'when'
p343
S'moved'
p344
S'from'
p345
tp346
F0.0006626905235255136
s(S'formerly'
p347
S'worked'
p348
S'for'
p349
tp350
F0.0006626905235255136
s(S'born'
p351
S'[[con]]'
p352
S'now'
p353
tp354
F0.0013253810470510272
s(S'[[con]]'
p355
S'died'
p356
S'at'
p357
tp358
F0.0006626905235255136
s(S'also'
p359
S'named'
p360
S'for'
p361
tp362
F0.0006626905235255136
s(S'[[con]]'
p363
S'director'
p364
S'of'
p365
tp366
F0.0006626905235255136
s(S'had'
p367
S'appointed'
p368
S'to'
p369
tp370
F0.0006626905235255136
s(S'member'
p371
S'of'
p372
S'[[adj]]'
p373
tp374
F0.0006626905235255136
s(S'since'
p375
S'served'
p376
S'in'
p377
tp378
F0.0006626905235255136
s(S'[[adj]]'
p379
S'elected'
p380
S'mayor'
p381
tp382
F0.0006626905235255136
s(S'is'
p383
S'member'
p384
S'[[con]]'
p385
tp386
F0.0006626905235255136
s(S'was'
p387
S'born'
p388
S'at'
p389
tp390
F0.0013253810470510272
s(S'before'
p391
S'moving'
p392
S'in'
p393
tp394
F0.0006626905235255136
s(S'also'
p395
S'flew'
p396
S'to'
p397
tp398
F0.0006626905235255136
s(S'later'
p399
S'represented'
p400
S'[[det]]'
p401
tp402
F0.0006626905235255136
s(S'[[det]]'
p403
S'professor'
p404
S'[[det]]'
p405
tp406
F0.0006626905235255136
s(S'also'
p407
S'defeated'
p408
S'at'
p409
tp410
F0.0006626905235255136
s(S'was'
p411
S'buried'
p412
S'[[adj]]'
p413
tp414
F0.0006626905235255136
s(S'later'
p415
S'played'
p416
S'against'
p417
tp418
F0.0006626905235255136
s(S'league'
p419
S'appearances'
p420
S'for'
p421
tp422
F0.0006626905235255136
s(S'now'
p423
S'living'
p424
S'in'
p425
tp426
F0.0006626905235255136
s(S'back'
p427
S'home'
p428
S'to'
p429
tp430
F0.0006626905235255136
s(S'never'
p431
S'played'
p432
S'[[det]]'
p433
tp434
F0.0006626905235255136
s(S'was'
p435
S'named'
p436
S'by'
p437
tp438
F0.0006626905235255136
s(S'also'
p439
S'played'
p440
S'with'
p441
tp442
F0.0006626905235255136
s(S'[[con]]'
p443
S'brought'
p444
S'[[pro]]'
p445
tp446
F0.0006626905235255136
s(S'[[adj]]'
p447
S'worked'
p448
S'at'
p449
tp450
F0.0006626905235255136
s(S'also'
p451
S'serves'
p452
S'in'
p453
tp454
F0.0006626905235255136
s(S'also'
p455
S'defeated'
p456
S'in'
p457
tp458
F0.0006626905235255136
s(S'again'
p459
S'returned'
p460
S'[[con]]'
p461
tp462
F0.0006626905235255136
s(S'born'
p463
S'[[det]]'
p464
S'town'
p465
tp466
F0.0013253810470510272
s(S'was'
p467
S'returned'
p468
S'[[con]]'
p469
tp470
F0.0006626905235255136
s(S'[[adj]]'
p471
S'based'
p472
S'at'
p473
tp474
F0.0006626905235255136
s(S'also'
p475
S'appointed'
p476
S'[[con]]'
p477
tp478
F0.0006626905235255136
s(S'remained'
p479
S'[[det]]'
p480
S'[[adj]]'
p481
tp482
F0.0006626905235255136
s(S'who'
p483
S'came'
p484
S'to'
p485
tp486
F0.0006626905235255136
s(S'then'
p487
S'joined'
p488
S'[[adj]]'
p489
tp490
F0.0006626905235255136
s(S'later'
p491
S'moved'
p492
S'at'
p493
tp494
F0.0006626905235255136
s(S'had'
p495
S'married'
p496
S'at'
p497
tp498
F0.0006626905235255136
s(S'was'
p499
S'appointed'
p500
S'from'
p501
tp502
F0.0006626905235255136
s(S'formerly'
p503
S'played'
p504
S'[[con]]'
p505
tp506
F0.0006626905235255136
s(S'is'
p507
S'director'
p508
S'[[det]]'
p509
tp510
F0.0006626905235255136
s(S'had'
p511
S'arrived'
p512
S'in'
p513
tp514
F0.0006626905235255136
s(S'was'
p515
S'joined'
p516
S'in'
p517
tp518
F0.0006626905235255136
s(S'later'
p519
S'won'
p520
S'in'
p521
tp522
F0.0006626905235255136
s(S'been'
p523
S'named'
p524
S'[[det]]'
p525
tp526
F0.0006626905235255136
s(S'formerly'
p527
S'played'
p528
S'for'
p529
tp530
F0.0006626905235255136
s(S'[[adj]]'
p531
S'served'
p532
S'on'
p533
tp534
F0.0006626905235255136
s(S'[[con]]'
p535
S'member'
p536
S'[[con]]'
p537
tp538
F0.0006626905235255136
s(S'only'
p539
S'played'
p540
S'against'
p541
tp542
F0.0006626905235255136
s(S'[[num]]'
p543
S'served'
p544
S'as'
p545
tp546
F0.0006626905235255136
s(S'where'
p547
S'played'
p548
S'against'
p549
tp550
F0.0006626905235255136
s(S'born'
p551
S'[[num]]'
p552
S'lives'
p553
tp554
F0.0006626905235255136
s(S'[[det]]'
p555
S'professor'
p556
S'[[con]]'
p557
tp558
F0.0006626905235255136
s(S'which'
p559
S'returned'
p560
S'to'
p561
tp562
F0.0006626905235255136
s(S'only'
p563
S'played'
p564
S'with'
p565
tp566
F0.0006626905235255136
s(S'also'
p567
S'served'
p568
S'with'
p569
tp570
F0.0006626905235255136
s(S'became'
p571
S'member'
p572
S'of'
p573
tp574
F0.0006626905235255136
s(S'currently'
p575
S'serving'
p576
S'as'
p577
tp578
F0.0006626905235255136
s(S'then'
p579
S'moved'
p580
S'with'
p581
tp582
F0.0006626905235255136
s(S'was'
p583
S'born'
p584
S'[[prp]]'
p585
tp586
F0.0006626905235255136
s(g373
S'representing'
p587
S'in'
p588
tp589
F0.0006626905235255136
s(S'has'
p590
S'worked'
p591
S'at'
p592
tp593
F0.0006626905235255136
s(S'run'
p594
S'in'
p595
S'[[det]]'
p596
tp597
F0.0006626905235255136
s(S'[[pro]]'
p598
S'joined'
p599
S'[[det]]'
p600
tp601
F0.0006626905235255136
s(S'born'
p602
S'[[con]]'
p603
S'lives'
p604
tp605
F0.0006626905235255136
s(S'was'
p606
S'governor'
p607
S'[[con]]'
p608
tp609
F0.0006626905235255136
s(S'was'
p610
S'awarded'
p611
S'[[con]]'
p612
tp613
F0.0006626905235255136
s(S'later'
p614
S'appointed'
p615
S'to'
p616
tp617
F0.0006626905235255136
s(S'[[det]]'
p618
S'return'
p619
S'at'
p620
tp621
F0.0006626905235255136
s(g229
S'began'
p622
S'as'
p623
tp624
F0.0006626905235255136
s(S'also'
p625
S'worked'
p626
S'in'
p627
tp628
F0.0006626905235255136
s(S'then'
p629
S'returned'
p630
S'to'
p631
tp632
F0.0006626905235255136
s(S'[[num]]'
p633
S'times'
p634
S'[[det]]'
p635
tp636
F0.0006626905235255136
s(S'first'
p637
S'played'
p638
S'in'
p639
tp640
F0.0006626905235255136
s(S'then'
p641
S'joined'
p642
S'side'
p643
tp644
F0.0006626905235255136
s(S'was'
p645
S'buried'
p646
S'[[con]]'
p647
tp648
F0.0006626905235255136
s(S'born'
p649
S'in'
p650
S'[[adj]]'
p651
tp652
F0.0019880715705765406
s(S'[[con]]'
p653
S'served'
p654
S'to'
p655
tp656
F0.0006626905235255136
s(S'when'
p657
S'came'
p658
S'to'
p659
tp660
F0.0006626905235255136
s(S'is'
p661
S'buried'
p662
S'[[det]]'
p663
tp664
F0.0013253810470510272
s(S'[[adj]]'
p665
S'professor'
p666
S'of'
p667
tp668
F0.0006626905235255136
s(S'when'
p669
S'joined'
p670
S'[[det]]'
p671
tp672
F0.0006626905235255136
s(S'again'
p673
S'named'
p674
S'as'
p675
tp676
F0.0006626905235255136
s(S'so'
p677
S'returned'
p678
S'to'
p679
tp680
F0.0006626905235255136
s(S'was'
p681
S'awarded'
p682
S'at'
p683
tp684
F0.0006626905235255136
s(S'currently'
p685
S'coaches'
p686
S'at'
p687
tp688
F0.0006626905235255136
s(S'later'
p689
S'graduated'
p690
S'in'
p691
tp692
F0.0006626905235255136
s(S'then'
p693
S'served'
p694
S'before'
p695
tp696
F0.0006626905235255136
s(S'were'
p697
S'living'
p698
S'in'
p699
tp700
F0.0006626905235255136
s(S'now'
p701
S'serves'
p702
S'at'
p703
tp704
F0.0006626905235255136
s(S'of'
p705
S'based'
p706
S'in'
p707
tp708
F0.0006626905235255136
s(g389
S'village'
p709
S'in'
p710
tp711
F0.0006626905235255136
s(S'has'
p712
S'served'
p713
S'[[adj]]'
p714
tp715
F0.0006626905235255136
s(S'is'
p716
S'appointed'
p717
S'in'
p718
tp719
F0.0006626905235255136
s(S'[[det]]'
p720
S'played'
p721
S'for'
p722
tp723
F0.0006626905235255136
s(S'while'
p724
S'lived'
p725
S'in'
p726
tp727
F0.0006626905235255136
s(S'was'
p728
S'graduated'
p729
S'[[con]]'
p730
tp731
F0.0006626905235255136
s(S'then'
p732
S'appointed'
p733
S'[[num]]'
p734
tp735
F0.0006626905235255136
s(S'again'
p736
S'served'
p737
S'with'
p738
tp739
F0.0006626905235255136
s(S'have'
p740
S'come'
p741
S'to'
p742
tp743
F0.0006626905235255136
s(S'then'
p744
S'practiced'
p745
S'law'
p746
tp747
F0.0006626905235255136
s(S'in'
p748
S'[[num]]'
p749
S'election'
p750
tp751
F0.0006626905235255136
s(S'is'
p752
S'director'
p753
S'[[con]]'
p754
tp755
F0.0006626905235255136
s(S'had'
p756
S'worked'
p757
S'as'
p758
tp759
F0.0006626905235255136
s(S'while'
p760
S'joined'
p761
S'[[det]]'
p762
tp763
F0.0006626905235255136
s(S'became'
p764
S'director'
p765
S'[[det]]'
p766
tp767
F0.0006626905235255136
s(S'was'
p768
S'engaged'
p769
S'in'
p770
tp771
F0.0006626905235255136
s(S'[[det]]'
p772
S'member'
p773
S'as'
p774
tp775
F0.0006626905235255136
s(S'[[det]]'
p776
S'award'
p777
g633
tp778
F0.0006626905235255136
s(S'had'
p779
S'played'
p780
S'[[det]]'
p781
tp782
F0.0006626905235255136
s(S'then'
p783
S'returned'
p784
S'at'
p785
tp786
F0.0006626905235255136
s(S'served'
p787
S'[[con]]'
p788
S'was'
p789
tp790
F0.0006626905235255136
s(S'also'
p791
S'served'
p792
S'[[det]]'
p793
tp794
F0.0006626905235255136
s(S'was'
p795
S'resident'
p796
S'in'
p797
tp798
F0.0006626905235255136
s(S'[[con]]'
p799
S'buried'
p800
S'at'
p801
tp802
F0.0006626905235255136
s(S'[[con]]'
p803
S'played'
p804
S'against'
p805
tp806
F0.0006626905235255136
s(S'had'
p807
S'served'
p808
S'to'
p809
tp810
F0.0006626905235255136
s(S'where'
p811
S'played'
p812
S'for'
p813
tp814
F0.0006626905235255136
s(S'then'
p815
S'taken'
p816
S'to'
p817
tp818
F0.0006626905235255136
s(S'then'
p819
S'returned'
p820
S'in'
p821
tp822
F0.0006626905235255136
s(S'been'
p823
S'professor'
p824
S'of'
p825
tp826
F0.0006626905235255136
s(S'also'
p827
S'serves'
p828
S'[[num]]'
p829
tp830
F0.0006626905235255136
s(S'[[con]]'
p831
S'played'
p832
S'with'
p833
tp834
F0.0006626905235255136
s(S'was'
p835
S'married'
p836
S'[[num]]'
p837
tp838
F0.0006626905235255136
s(S'as'
p839
S'professor'
p840
S'in'
p841
tp842
F0.0006626905235255136
s(S'[[adj]]'
p843
S'lived'
p844
S'in'
p845
tp846
F0.0006626905235255136
s(S'[[det]]'
p847
S'awarded'
p848
S'by'
p849
tp850
F0.0006626905235255136
s(S'then'
p851
S'moved'
p852
S'for'
p853
tp854
F0.0006626905235255136
s(S'was'
p855
S'moved'
p856
S'to'
p857
tp858
F0.0006626905235255136
s(S'[[con]]'
p859
S'was'
p860
S'buried'
p861
tp862
F0.004638833664678595
s(S'was'
p863
S'appointed'
p864
S'[[det]]'
p865
tp866
F0.0006626905235255136
s(S'also'
p867
S'served'
p868
S'as'
p869
tp870
F0.0013253810470510272
s(S'been'
p871
S'named'
p872
S'at'
p873
tp874
F0.0006626905235255136
s(S'had'
p875
S'married'
p876
S'in'
p877
tp878
F0.0006626905235255136
s(S'has'
p879
S'lived'
p880
S'most'
p881
tp882
F0.0006626905235255136
s(S'[[pro]]'
p883
S'settled'
p884
S'in'
p885
tp886
F0.0006626905235255136
s(S'[[det]]'
p887
S'professor'
p888
S'at'
p889
tp890
F0.0006626905235255136
s(S'[[adj]]'
p891
S'professor'
p892
S'[[num]]'
p893
tp894
F0.0006626905235255136
s(S'also'
p895
S'awarded'
p896
S'by'
p897
tp898
F0.0006626905235255136
s(S'then'
p899
S'graduated'
p900
S'at'
p901
tp902
F0.0006626905235255136
s(S'also'
p903
S'appointed'
p904
S'of'
p905
tp906
F0.0006626905235255136
s(S'also'
p907
S'appointed'
p908
S'[[num]]'
p909
tp910
F0.0006626905235255136
s(S'had'
p911
S'brought'
p912
S'to'
p913
tp914
F0.0006626905235255136
s(S'also'
p915
S'named'
p916
S'of'
p917
tp918
F0.0006626905235255136
s(S'formerly'
p919
S'played'
p920
S'with'
p921
tp922
F0.0006626905235255136
s(S'was'
p923
S'returned'
p924
S'in'
p925
tp926
F0.0006626905235255136
s(S'later'
p927
S'appointed'
p928
S'at'
p929
tp930
F0.0006626905235255136
s(S'[[con]]'
p931
S'worked'
p932
S'as'
p933
tp934
F0.0006626905235255136
s(g584
g585
S'family'
p935
tp936
F0.0006626905235255136
s(S'[[adj]]'
p937
S'member'
p938
S'as'
p939
tp940
F0.0006626905235255136
s(S'[[adj]]'
p941
S'member'
p942
S'from'
p943
tp944
F0.0006626905235255136
s(S'then'
p945
S'spent'
p946
S'[[num]]'
p947
tp948
F0.0006626905235255136
s(S'also'
p949
S'director'
p950
S'of'
p951
tp952
F0.0006626905235255136
s(S'[[pro]]'
p953
S'played'
p954
S'together'
p955
tp956
F0.0006626905235255136
s(S'was'
p957
S'governor'
p958
S'[[det]]'
p959
tp960
F0.0006626905235255136
s(S'formerly'
p961
S'played'
p962
S'in'
p963
tp964
F0.0006626905235255136
s(S'[[mod]]'
p965
S'return'
p966
S'to'
p967
tp968
F0.0006626905235255136
s(S'first'
p969
S'worked'
p970
S'in'
p971
tp972
F0.0006626905235255136
s(S'[[num]]'
p973
S'came'
p974
S'to'
p975
tp976
F0.0006626905235255136
s(S'had'
p977
S'joined'
p978
S'[[det]]'
p979
tp980
F0.0006626905235255136
s(S'[[con]]'
p981
S'currently'
p982
S'lives'
p983
tp984
F0.0013253810470510272
s(S'been'
p985
S'awarded'
p986
S'[[det]]'
p987
tp988
F0.0006626905235255136
s(g372
g373
g587
tp989
F0.0006626905235255136
s(S'[[adj]]'
p990
S'director'
p991
S'[[det]]'
p992
tp993
F0.0006626905235255136
s(S'also'
p994
S'played'
p995
S'[[con]]'
p996
tp997
F0.0006626905235255136
s(g96
g97
S'to'
p998
tp999
F0.003976143141153081
s(S'[[det]]'
p1000
S'professor'
p1001
S'in'
p1002
tp1003
F0.0006626905235255136
s(g316
g317
S'to'
p1004
tp1005
F0.0006626905235255136
s(S'then'
p1006
S'served'
p1007
S'to'
p1008
tp1009
F0.0006626905235255136
s(S'be'
p1010
S'brought'
p1011
S'back'
p1012
tp1013
F0.0006626905235255136
s(g595
g596
S'election'
p1014
tp1015
F0.0013253810470510272
s(S'first'
p1016
S'served'
p1017
S'in'
p1018
tp1019
F0.0006626905235255136
s(S'which'
p1020
S'encompasses'
p1021
S'portions'
p1022
tp1023
F0.0006626905235255136
s(S'when'
p1024
S'died'
p1025
S'at'
p1026
tp1027
F0.0006626905235255136
s(S'was'
p1028
S'appointed'
p1029
S'as'
p1030
tp1031
F0.0006626905235255136
s(S'then'
p1032
S'elected'
p1033
S'of'
p1034
tp1035
F0.0006626905235255136
s(S'split'
p1036
S'[[adj]]'
p1037
g419
tp1038
F0.0006626905235255136
s(S'also'
p1039
S'graduated'
p1040
S'in'
p1041
tp1042
F0.0006626905235255136
s(S'with'
p1043
S'played'
p1044
S'for'
p1045
tp1046
F0.0006626905235255136
s(S'then'
p1047
S'moved'
p1048
S'[[con]]'
p1049
tp1050
F0.0006626905235255136
s(S'later'
p1051
S'moved'
p1052
S'with'
p1053
tp1054
F0.0006626905235255136
s(S'first'
p1055
S'worked'
p1056
S'at'
p1057
tp1058
F0.0006626905235255136
s(S'[[adj]]'
p1059
S'professor'
p1060
S'[[con]]'
p1061
tp1062
F0.0013253810470510272
s(S'[[adj]]'
p1063
S'professor'
p1064
S'for'
p1065
tp1066
F0.0006626905235255136
s(S'currently'
p1067
S'based'
p1068
S'in'
p1069
tp1070
F0.0006626905235255136
s(S'is'
p1071
S'professor'
p1072
S'of'
p1073
tp1074
F0.0006626905235255136
s(S'also'
p1075
S'graduated'
p1076
S'at'
p1077
tp1078
F0.0006626905235255136
s(S'was'
p1079
S'member'
p1080
S'in'
p1081
tp1082
F0.0006626905235255136
s(S'currently'
p1083
S'serves'
p1084
S'[[con]]'
p1085
tp1086
F0.0006626905235255136
s(S'where'
p1087
S'lived'
p1088
S'until'
p1089
tp1090
F0.0006626905235255136
s(S'is'
p1091
S'named'
p1092
S'as'
p1093
tp1094
F0.0006626905235255136
s(S'[[con]]'
p1095
S'played'
p1096
S'for'
p1097
tp1098
F0.0006626905235255136
s(S'born'
p1099
g95
g96
tp1100
F0.0006626905235255136
s(S'is'
p1101
S'married'
p1102
S'in'
p1103
tp1104
F0.0006626905235255136
s(S's'
p1105
S'campaign'
p1106
S'against'
p1107
tp1108
F0.0006626905235255136
s(S'then'
p1109
S'served'
p1110
S'on'
p1111
tp1112
F0.0006626905235255136
s(S'currently'
p1113
S'serves'
p1114
S'on'
p1115
tp1116
F0.0006626905235255136
s(S'has'
p1117
S'worked'
p1118
S'for'
p1119
tp1120
F0.0006626905235255136
s(S'[[con]]'
p1121
S'currently'
p1122
S'resides'
p1123
tp1124
F0.0006626905235255136
s(S'then'
p1125
S'moved'
p1126
S'onto'
p1127
tp1128
F0.0006626905235255136
s(S'[[adj]]'
p1129
S'member'
p1130
S'[[det]]'
p1131
tp1132
F0.0006626905235255136
s(S'soon'
p1133
S'joined'
p1134
S'[[det]]'
p1135
tp1136
F0.0006626905235255136
s(S'later'
p1137
S'joined'
p1138
S'[[con]]'
p1139
tp1140
F0.0006626905235255136
s(S'also'
p1141
S'worked'
p1142
S'as'
p1143
tp1144
F0.0006626905235255136
s(S'to'
p1145
S'return'
p1146
S'in'
p1147
tp1148
F0.0006626905235255136
s(S'again'
p1149
S'moved'
p1150
S'to'
p1151
tp1152
F0.0006626905235255136
s(S'then'
p1153
S'joined'
p1154
S'[[num]]'
p1155
tp1156
F0.0006626905235255136
s(S'[[det]]'
p1157
S'[[adj]]'
p1158
S'village'
p1159
tp1160
F0.0006626905235255136
s(S'has'
p1161
S'served'
p1162
S'with'
p1163
tp1164
F0.0006626905235255136
s(S'[[pro]]'
p1165
S'served'
p1166
S'in'
p1167
tp1168
F0.0006626905235255136
s(S'also'
p1169
S'graduated'
p1170
S'from'
p1171
tp1172
F0.0006626905235255136
s(S'[[det]]'
p1173
S'member'
p1174
S'who'
p1175
tp1176
F0.0019880715705765406
s(S'also'
p1177
S'named'
p1178
S'at'
p1179
tp1180
F0.0006626905235255136
s(S'being'
p1181
S'awarded'
p1182
S'[[det]]'
p1183
tp1184
F0.0006626905235255136
s(S'have'
p1185
S'played'
p1186
S'[[det]]'
p1187
tp1188
F0.0006626905235255136
s(S'served'
p1189
S'as'
p1190
S'[[con]]'
p1191
tp1192
F0.0006626905235255136
s(S'since'
p1193
S'worked'
p1194
S'for'
p1195
tp1196
F0.0006626905235255136
s(S'currently'
p1197
S'serving'
p1198
S'at'
p1199
tp1200
F0.0006626905235255136
s(S'to'
p1201
S'return'
p1202
S'from'
p1203
tp1204
F0.0006626905235255136
s(S'[[con]]'
p1205
S'moved'
p1206
S'to'
p1207
tp1208
F0.0006626905235255136
s(S'was'
p1209
S'arrested'
p1210
S'[[con]]'
p1211
tp1212
F0.0006626905235255136
s(S'had'
p1213
S'joined'
p1214
S'side'
p1215
tp1216
F0.0006626905235255136
s(S'[[det]]'
p1217
S'village'
p1218
S'in'
p1219
tp1220
F0.0006626905235255136
s(S'later'
p1221
S'served'
p1222
S'from'
p1223
tp1224
F0.0006626905235255136
s(S'was'
p1225
g1099
g95
tp1226
F0.005301524188204109
s(S'[[adj]]'
p1227
S'member'
p1228
S'during'
p1229
tp1230
F0.0006626905235255136
s(S'in'
p1231
S'town'
p1232
S'of'
p1233
tp1234
F0.0006626905235255136
s(S'formerly'
p1235
S'served'
p1236
S'to'
p1237
tp1238
F0.0006626905235255136
s(S'[[det]]'
p1239
S'member'
p1240
S'[[num]]'
p1241
tp1242
F0.0006626905235255136
s(S'is'
p1243
S'living'
p1244
S'in'
p1245
tp1246
F0.0006626905235255136
s(S'who'
p1247
S'played'
p1248
S'for'
p1249
tp1250
F0.0006626905235255136
s(S'was'
p1251
S'awarded'
p1252
S'from'
p1253
tp1254
F0.0006626905235255136
s(S'after'
p1255
S'moving'
p1256
S'to'
p1257
tp1258
F0.0006626905235255136
s(S'were'
p1259
S'awarded'
p1260
S'[[det]]'
p1261
tp1262
F0.0006626905235255136
s(S'then'
p1263
S'returned'
p1264
S'for'
p1265
tp1266
F0.0006626905235255136
s(S'had'
p1267
S'worked'
p1268
S'at'
p1269
tp1270
F0.0006626905235255136
s(S'[[adj]]'
p1271
S'president'
p1272
S'in'
p1273
tp1274
F0.0006626905235255136
s(S'while'
p1275
S'played'
p1276
S'for'
p1277
tp1278
F0.0006626905235255136
s(S'also'
p1279
S'played'
p1280
S'before'
p1281
tp1282
F0.0006626905235255136
s(S'is'
p1283
S'buried'
p1284
S'on'
p1285
tp1286
F0.0006626905235255136
s(S'was'
p1287
S'member'
p1288
S'at'
p1289
tp1290
F0.0006626905235255136
s(S'had'
p1291
S'married'
p1292
S'of'
p1293
tp1294
F0.0006626905235255136
s(S'then'
p1295
S'married'
p1296
S'of'
p1297
tp1298
F0.0006626905235255136
s(S'[[det]]'
p1299
S'member'
p1300
S'which'
p1301
tp1302
F0.0006626905235255136
s(S'was'
p1303
S'graduated'
p1304
S'in'
p1305
tp1306
F0.0006626905235255136
s(S'[[con]]'
p1307
S'joined'
p1308
S'from'
p1309
tp1310
F0.0006626905235255136
s(S'was'
p1311
S'director'
p1312
S'of'
p1313
tp1314
F0.0006626905235255136
s(S'had'
p1315
S'returned'
p1316
S'to'
p1317
tp1318
F0.0006626905235255136
s(S'[[con]]'
p1319
S'[[det]]'
p1320
S'member'
p1321
tp1322
F0.0006626905235255136
s(S'[[con]]'
p1323
S'settled'
p1324
S'at'
p1325
tp1326
F0.0006626905235255136
s(S'is'
p1327
S'member'
p1328
S'[[det]]'
p1329
tp1330
F0.0006626905235255136
s(S'[[adj]]'
p1331
S'city'
p1332
S'of'
p1333
tp1334
F0.0006626905235255136
s(S'for'
p1335
S'mayor'
p1336
S'of'
p1337
tp1338
F0.0006626905235255136
s(S'was'
p1339
S'served'
p1340
S'as'
p1341
tp1342
F0.0006626905235255136
s(S'is'
p1343
S'interred'
p1344
S'[[det]]'
p1345
tp1346
F0.0006626905235255136
s(S'had'
p1347
S'died'
p1348
S'at'
p1349
tp1350
F0.0006626905235255136
s(S'[[con]]'
p1351
S'settled'
p1352
S'in'
p1353
tp1354
F0.0006626905235255136
s(S'is'
p1355
S'buried'
p1356
S'in'
p1357
tp1358
F0.003976143141153081
s(S'been'
p1359
S'awarded'
p1360
S'[[adj]]'
p1361
tp1362
F0.0006626905235255136
s(S'who'
p1363
S'served'
p1364
S'in'
p1365
tp1366
F0.0006626905235255136
s(S'who'
p1367
S'arrived'
p1368
S'in'
p1369
tp1370
F0.0006626905235255136
s(S'[[det]]'
p1371
S'family'
p1372
S'to'
p1373
tp1374
F0.0006626905235255136
s(S'also'
p1375
S'came'
p1376
S'[[adj]]'
p1377
tp1378
F0.0006626905235255136
s(S'has'
p1379
S'moved'
p1380
S'from'
p1381
tp1382
F0.0006626905235255136
s(S'first'
p1383
S'arrived'
p1384
S'in'
p1385
tp1386
F0.0006626905235255136
s(S'later'
p1387
S'moved'
p1388
S'to'
p1389
tp1390
F0.0006626905235255136
s(S'[[con]]'
p1391
g1387
g1388
tp1392
F0.0006626905235255136
s(S'have'
p1393
S'played'
p1394
S'for'
p1395
tp1396
F0.0006626905235255136
s(S'[[con]]'
p1397
S'was'
p1398
S'born'
p1399
tp1400
F0.0006626905235255136
s(S'also'
p1401
S'named'
p1402
S'[[con]]'
p1403
tp1404
F0.0006626905235255136
s(S'was'
p1405
S'appointed'
p1406
S'before'
p1407
tp1408
F0.0006626905235255136
s(S'have'
p1409
S'worked'
p1410
S'as'
p1411
tp1412
F0.0006626905235255136
s(g380
g381
S'of'
p1413
tp1414
F0.0026507620941020544
s(S'being'
p1415
S'appointed'
p1416
S'at'
p1417
tp1418
F0.0006626905235255136
s(S'then'
p1419
S'relocated'
p1420
S'to'
p1421
tp1422
F0.0006626905235255136
s(S'then'
p1423
S'moved'
p1424
S'on'
p1425
tp1426
F0.0006626905235255136
s(S'before'
p1427
S'returned'
p1428
S'to'
p1429
tp1430
F0.0006626905235255136
s(S'then'
p1431
S'moved'
p1432
S'into'
p1433
tp1434
F0.0006626905235255136
s(S'is'
p1435
S'appointed'
p1436
S'of'
p1437
tp1438
F0.0006626905235255136
s(S'who'
p1439
S'died'
p1440
S'in'
p1441
tp1442
F0.0006626905235255136
s(S'attended'
p1443
S'[[adj]]'
p1444
S'schools'
p1445
tp1446
F0.0013253810470510272
s(g1105
S'worked'
p1447
S'with'
p1448
tp1449
F0.0006626905235255136
s(g480
g481
S'leader'
p1450
tp1451
F0.0006626905235255136
s(S'[[con]]'
p1452
S'appointed'
p1453
S'[[pro]]'
p1454
tp1455
F0.0006626905235255136
s(S'when'
p1456
S'played'
p1457
S'[[det]]'
p1458
tp1459
F0.0006626905235255136
s(S'is'
p1460
S'elected'
p1461
S'mayor'
p1462
tp1463
F0.0006626905235255136
s(S'before'
p1464
S'moved'
p1465
S'to'
p1466
tp1467
F0.0006626905235255136
s(S'have'
p1468
S'served'
p1469
S'in'
p1470
tp1471
F0.0006626905235255136
s(S'[[adj]]'
p1472
S'awarded'
p1473
S'by'
p1474
tp1475
F0.0006626905235255136
s(S'born'
p1476
S'[[con]]'
p1477
S'then'
p1478
tp1479
F0.0006626905235255136
s(S'who'
p1480
S'joined'
p1481
S'[[det]]'
p1482
tp1483
F0.0006626905235255136
s(S'has'
p1484
S'served'
p1485
S'as'
p1486
tp1487
F0.0006626905235255136
s(S'also'
p1488
S'served'
p1489
S'at'
p1490
tp1491
F0.0006626905235255136
s(g1060
g1061
S'professor'
p1492
tp1493
F0.0006626905235255136
s(S'was'
p1494
S'professor'
p1495
S'[[det]]'
p1496
tp1497
F0.0006626905235255136
s(S'[[det]]'
p1498
S'member'
p1499
S'[[det]]'
p1500
tp1501
F0.0019880715705765406
s(S'is'
p1502
S'professor'
p1503
S'[[con]]'
p1504
tp1505
F0.0006626905235255136
s(S'later'
p1506
S'served'
p1507
S'with'
p1508
tp1509
F0.0006626905235255136
s(S'is'
p1510
S'elected'
p1511
S'[[det]]'
p1512
tp1513
F0.0006626905235255136
s(S'instead'
p1514
S'joined'
p1515
S'[[det]]'
p1516
tp1517
F0.0006626905235255136
s(S'also'
p1518
S'served'
p1519
S'in'
p1520
tp1521
F0.0006626905235255136
s(S'[[con]]'
p1522
S'lived'
p1523
S'at'
p1524
tp1525
F0.0006626905235255136
s(S'become'
p1526
S'director'
p1527
S'of'
p1528
tp1529
F0.0006626905235255136
s(S'[[det]]'
p1530
S'member'
p1531
S'of'
p1532
tp1533
F0.0026507620941020544
s(S'formerly'
p1534
S'served'
p1535
S'at'
p1536
tp1537
F0.0006626905235255136
s(S'later'
p1538
S'attended'
p1539
S'in'
p1540
tp1541
F0.0006626905235255136
s(S'[[det]]'
p1542
S'village'
p1543
S'of'
p1544
tp1545
F0.0013253810470510272
s(S'since'
p1546
S'returned'
p1547
S'to'
p1548
tp1549
F0.0006626905235255136
s(g352
g353
S'lives'
p1550
tp1551
F0.0006626905235255136
s(S'later'
p1552
S'married'
p1553
S'of'
p1554
tp1555
F0.0006626905235255136
s(S'also'
p1556
S'serves'
p1557
S'[[con]]'
p1558
tp1559
F0.0006626905235255136
s(S'now'
p1560
S'serves'
p1561
S'for'
p1562
tp1563
F0.0006626905235255136
s(S'did'
p1564
g307
g308
tp1565
F0.0006626905235255136
s(S'been'
p1566
S'professor'
p1567
S'in'
p1568
tp1569
F0.0006626905235255136
s(S'was'
p1570
S'director'
p1571
S'[[det]]'
p1572
tp1573
F0.0006626905235255136
s(S'[[adj]]'
p1574
S'head'
p1575
S'[[con]]'
p1576
tp1577
F0.0006626905235255136
s(S'[[con]]'
p1578
S'brought'
p1579
S'back'
p1580
tp1581
F0.0006626905235255136
s(S'was'
p1582
S'head'
p1583
S'[[con]]'
p1584
tp1585
F0.0006626905235255136
s(S'then'
p1586
S'moved'
p1587
S'[[det]]'
p1588
tp1589
F0.0006626905235255136
s(S'had'
p1590
S'served'
p1591
S'at'
p1592
tp1593
F0.0006626905235255136
s(S'later'
p1594
S'awarded'
p1595
S'from'
p1596
tp1597
F0.0006626905235255136
s(S'has'
p1598
S'played'
p1599
S'for'
p1600
tp1601
F0.0006626905235255136
s(S'is'
p1602
S'appointed'
p1603
S'[[det]]'
p1604
tp1605
F0.0006626905235255136
s(S'was'
p1606
S'buried'
p1607
S'[[det]]'
p1608
tp1609
F0.0013253810470510272
s(S'born'
p1610
S'[[con]]'
p1611
S'raised'
p1612
tp1613
F0.0019880715705765406
s(S'also'
p1614
S'awarded'
p1615
S'from'
p1616
tp1617
F0.0006626905235255136
s(S'formerly'
p1618
S'played'
p1619
S'as'
p1620
tp1621
F0.0006626905235255136
s(S'became'
p1622
S'director'
p1623
S'at'
p1624
tp1625
F0.0006626905235255136
s(S'had'
p1626
S'played'
p1627
S'for'
p1628
tp1629
F0.0006626905235255136
s(S'later'
p1630
S'played'
p1631
S'with'
p1632
tp1633
F0.0006626905235255136
s(S'soon'
p1634
S'moved'
p1635
S'on'
p1636
tp1637
F0.0006626905235255136
s(S'who'
p1638
S'moved'
p1639
S'from'
p1640
tp1641
F0.0006626905235255136
s(S'was'
p1642
S'named'
p1643
S'for'
p1644
tp1645
F0.0006626905235255136
s(S'born'
p1646
S'in'
p1647
S'village'
p1648
tp1649
F0.0013253810470510272
s(S'still'
p1650
S'living'
p1651
S'in'
p1652
tp1653
F0.0006626905235255136
s(S'currently'
p1654
S'serves'
p1655
S'to'
p1656
tp1657
F0.0006626905235255136
s(S'currently'
p1658
S'lives'
p1659
S'near'
p1660
tp1661
F0.0006626905235255136
s(S'who'
p1662
S'graduated'
p1663
S'at'
p1664
tp1665
F0.0006626905235255136
s(S'[[con]]'
p1666
S'moved'
p1667
S'on'
p1668
tp1669
F0.0006626905235255136
s(S'[[prp]]'
p1670
S'home'
p1671
S'[[con]]'
p1672
tp1673
F0.0006626905235255136
s(S'[[num]]'
p1674
S'was'
p1675
S'buried'
p1676
tp1677
F0.0013253810470510272
s(S'[[det]]'
p1678
S'governor'
p1679
S'of'
p1680
tp1681
F0.0006626905235255136
s(g284
g285
S'from'
p1682
tp1683
F0.0006626905235255136
s(S'had'
p1684
S'settled'
p1685
S'in'
p1686
tp1687
F0.0006626905235255136
s(S'also'
p1688
S'played'
p1689
S'of'
p1690
tp1691
F0.0006626905235255136
s(S'born'
p1692
g1391
g1387
tp1693
F0.0006626905235255136
s(S'then'
p1694
S'served'
p1695
S'for'
p1696
tp1697
F0.0006626905235255136
s(S'become'
p1698
S'president'
p1699
S'[[det]]'
p1700
tp1701
F0.0006626905235255136
s(S'then'
p1702
S'played'
p1703
S'against'
p1704
tp1705
F0.0006626905235255136
s(S'only'
p1706
S'played'
p1707
S'for'
p1708
tp1709
F0.0006626905235255136
s(S'was'
p1710
S'professor'
p1711
S'from'
p1712
tp1713
F0.0006626905235255136
s(S'is'
p1714
S'working'
p1715
S'in'
p1716
tp1717
F0.0006626905235255136
s(S'[[con]]'
p1718
S'joined'
p1719
S'[[det]]'
p1720
tp1721
F0.0006626905235255136
s(S'was'
p1722
S'awarded'
p1723
S'[[num]]'
p1724
tp1725
F0.0006626905235255136
s(S'[[adj]]'
p1726
S'member'
p1727
S'[[con]]'
p1728
tp1729
F0.0006626905235255136
s(S'was'
p1730
S'engaged'
p1731
S'[[con]]'
p1732
tp1733
F0.0006626905235255136
s(S'[[con]]'
p1734
S'joined'
p1735
S'[[pro]]'
p1736
tp1737
F0.0006626905235255136
s(g1444
g1445
S'at'
p1738
tp1739
F0.0013253810470510272
s(S'then'
p1740
S'attended'
p1741
S'in'
p1742
tp1743
F0.0006626905235255136
s(S'[[num]]'
p1744
S'is'
p1745
S'buried'
p1746
tp1747
F0.0006626905235255136
s(S'later'
p1748
S'served'
p1749
S'on'
p1750
tp1751
F0.0006626905235255136
s(S'worked'
p1752
S'[[con]]'
p1753
S'returned'
p1754
tp1755
F0.0006626905235255136
s(S'also'
p1756
S'represented'
p1757
S'against'
p1758
tp1759
F0.0006626905235255136
s(S'have'
p1760
S'joined'
p1761
S'[[det]]'
p1762
tp1763
F0.0006626905235255136
s(S'[[num]]'
p1764
S'died'
p1765
S'in'
p1766
tp1767
F0.0006626905235255136
s(S'[[adj]]'
p1768
S'resident'
p1769
S'in'
p1770
tp1771
F0.0006626905235255136
s(S'[[det]]'
p1772
S'[[adj]]'
p1773
S'town'
p1774
tp1775
F0.0006626905235255136
s(S'[[adj]]'
p1776
S'member'
p1777
S'on'
p1778
tp1779
F0.0006626905235255136
s(S'[[con]]'
p1780
S'represented'
p1781
S'[[det]]'
p1782
tp1783
F0.0006626905235255136
s(S'who'
p1784
S'graduated'
p1785
S'from'
p1786
tp1787
F0.0006626905235255136
s(S'also'
p1788
S'trained'
p1789
S'in'
p1790
tp1791
F0.0006626905235255136
s(S'then'
p1792
S'attended'
p1793
S'at'
p1794
tp1795
F0.0006626905235255136
s(S'is'
p1796
S'buried'
p1797
S'[[adj]]'
p1798
tp1799
F0.0006626905235255136
s(S'been'
p1800
S'living'
p1801
S'at'
p1802
tp1803
F0.0006626905235255136
s(S'was'
p1804
S'serving'
p1805
S'as'
p1806
tp1807
F0.0006626905235255136
s(S'[[con]]'
p1808
S'raised'
p1809
S'in'
p1810
tp1811
F0.0013253810470510272
s(S'is'
p1812
S'elected'
p1813
S'of'
p1814
tp1815
F0.0006626905235255136
s(S'[[det]]'
p1816
S'director'
p1817
S'[[det]]'
p1818
tp1819
F0.0006626905235255136
s(S'was'
p1820
S'member'
p1821
S'[[num]]'
p1822
tp1823
F0.0006626905235255136
s(S'then'
p1824
S'flew'
p1825
S'to'
p1826
tp1827
F0.0006626905235255136
s(S'to'
p1828
S'head'
p1829
S'for'
p1830
tp1831
F0.0006626905235255136
s(S'[[num]]'
p1832
S'worked'
p1833
S'in'
p1834
tp1835
F0.0006626905235255136
s(S'[[adj]]'
p1836
S'served'
p1837
S'to'
p1838
tp1839
F0.0006626905235255136
s(S'who'
p1840
S'served'
p1841
S'[[con]]'
p1842
tp1843
F0.0006626905235255136
s(S'since'
p1844
S'played'
p1845
S'for'
p1846
tp1847
F0.0006626905235255136
s(S'later'
p1848
S'served'
p1849
S'as'
p1850
tp1851
F0.0006626905235255136
s(S'[[det]]'
p1852
S'living'
p1853
S'in'
p1854
tp1855
F0.0006626905235255136
s(S'had'
p1856
S'attended'
p1857
S'in'
p1858
tp1859
F0.0006626905235255136
s(S'been'
p1860
S'educated'
p1861
S'in'
p1862
tp1863
F0.0006626905235255136
s(S'later'
p1864
S'lived'
p1865
S'in'
p1866
tp1867
F0.0006626905235255136
s(S'was'
p1868
S'defeated'
p1869
S'from'
p1870
tp1871
F0.0006626905235255136
s(S'had'
p1872
S'lived'
p1873
S'in'
p1874
tp1875
F0.0006626905235255136
s(S'at'
p1876
S'home'
p1877
S'in'
p1878
tp1879
F0.0006626905235255136
s(S'also'
p1880
S'awarded'
p1881
S'at'
p1882
tp1883
F0.0006626905235255136
s(S'[[con]]'
p1884
S'lives'
p1885
S'in'
p1886
tp1887
F0.0013253810470510272
s(S'was'
p1888
S'moving'
p1889
S'to'
p1890
tp1891
F0.0006626905235255136
s(S'also'
p1892
S'worked'
p1893
S'[[adj]]'
p1894
tp1895
F0.0006626905235255136
s(S'has'
p1896
S'graduated'
p1897
S'from'
p1898
tp1899
F0.0006626905235255136
s(S'[[adj]]'
p1900
S'died'
p1901
S'in'
p1902
tp1903
F0.0006626905235255136
s(S'was'
p1904
S'educated'
p1905
S'in'
p1906
tp1907
F0.0006626905235255136
s(S'born'
p1908
S'moved'
p1909
S'to'
p1910
tp1911
F0.0013253810470510272
s(S'[[adj]]'
p1912
S'member'
p1913
S'of'
p1914
tp1915
F0.0006626905235255136
s(S'[[det]]'
p1916
S'professor'
p1917
S'from'
p1918
tp1919
F0.0006626905235255136
s(g1773
g1774
S'in'
p1920
tp1921
F0.0006626905235255136
s(S'had'
p1922
S'arrived'
p1923
S'from'
p1924
tp1925
F0.0006626905235255136
s(S'as'
p1926
g1498
g1499
tp1927
F0.0006626905235255136
s(g1105
S'return'
p1928
S'to'
p1929
tp1930
F0.0006626905235255136
s(S'born'
p1931
S'[[con]]'
p1932
S'resides'
p1933
tp1934
F0.0006626905235255136
s(S'[[adj]]'
p1935
S'serving'
p1936
S'[[con]]'
p1937
tp1938
F0.0006626905235255136
s(S'[[con]]'
p1939
S'married'
p1940
S'in'
p1941
tp1942
F0.0006626905235255136
s(S'later'
p1943
S'represented'
p1944
S'in'
p1945
tp1946
F0.0006626905235255136
s(S'to'
p1947
S'represent'
p1948
S'in'
p1949
tp1950
F0.0006626905235255136
s(S'was'
p1951
S'residing'
p1952
S'in'
p1953
tp1954
F0.0006626905235255136
s(S'have'
p1955
S'married'
p1956
S'[[det]]'
p1957
tp1958
F0.0006626905235255136
s(S'twice'
p1959
S'served'
p1960
S'as'
p1961
tp1962
F0.0006626905235255136
s(S'was'
p1963
S'joined'
p1964
S'on'
p1965
tp1966
F0.0006626905235255136
s(S'have'
p1967
S'worked'
p1968
S'in'
p1969
tp1970
F0.0006626905235255136
s(S'later'
p1971
S'joined'
p1972
S'at'
p1973
tp1974
F0.0006626905235255136
s(S'born'
p1975
S'[[num]]'
p1976
S'[[det]]'
p1977
tp1978
F0.0006626905235255136
s(S'[[con]]'
p1979
S'appointed'
p1980
S'to'
p1981
tp1982
F0.0006626905235255136
s(S'also'
p1983
S'came'
p1984
S'to'
p1985
tp1986
F0.0006626905235255136
s(S'[[con]]'
p1987
S'as'
p1988
S'mayor'
p1989
tp1990
F0.0006626905235255136
s(S'was'
p1991
S'brought'
p1992
S'over'
p1993
tp1994
F0.0006626905235255136
s(S'where'
p1995
S'served'
p1996
S'with'
p1997
tp1998
F0.0006626905235255136
s(S'also'
p1999
S'played'
p2000
S'from'
p2001
tp2002
F0.0006626905235255136
s(S'had'
p2003
S'served'
p2004
S'with'
p2005
tp2006
F0.0006626905235255136
s(S'currently'
p2007
S'lives'
p2008
S'[[con]]'
p2009
tp2010
F0.0006626905235255136
s(S'currently'
p2011
S'residing'
p2012
S'in'
p2013
tp2014
F0.0006626905235255136
s(S'[[det]]'
p2015
S'member'
p2016
g1105
tp2017
F0.0006626905235255136
s(g788
g789
S'mayor'
p2018
tp2019
F0.0006626905235255136
s(S'[[con]]'
p2020
S'moved'
p2021
S'[[con]]'
p2022
tp2023
F0.0006626905235255136
s(S'also'
p2024
S'serves'
p2025
S'to'
p2026
tp2027
F0.0006626905235255136
s(S'was'
p2028
S'living'
p2029
S'in'
p2030
tp2031
F0.0006626905235255136
s(S'was'
p2032
S'interred'
p2033
S'[[det]]'
p2034
tp2035
F0.0006626905235255136
s(S'has'
p2036
S'served'
p2037
S'in'
p2038
tp2039
F0.0006626905235255136
s(S'[[con]]'
p2040
S'professor'
p2041
S'of'
p2042
tp2043
F0.0006626905235255136
s(S'[[adj]]'
p2044
S'mayor'
p2045
S'of'
p2046
tp2047
F0.0026507620941020544
s(S'was'
p2048
S'member'
p2049
S'for'
p2050
tp2051
F0.0006626905235255136
s(S'[[adj]]'
p2052
S'served'
p2053
S'as'
p2054
tp2055
F0.0006626905235255136
s(S'have'
p2056
S'worked'
p2057
S'at'
p2058
tp2059
F0.0006626905235255136
s(S'also'
p2060
S'serves'
p2061
S'at'
p2062
tp2063
F0.0006626905235255136
s(S'[[prp]]'
p2064
S'campaign'
p2065
S'in'
p2066
tp2067
F0.0006626905235255136
s(S'then'
p2068
S'living'
p2069
S'in'
p2070
tp2071
F0.0006626905235255136
s(S'[[adj]]'
p2072
S'schools'
p2073
S'in'
p2074
tp2075
F0.0013253810470510272
s(S'served'
p2076
g21
g22
tp2077
F0.0013253810470510272
s(S'been'
p2078
S'awarded'
p2079
S'by'
p2080
tp2081
F0.0006626905235255136
s(S'has'
p2082
S'returned'
p2083
S'to'
p2084
tp2085
F0.0006626905235255136
s(S'was'
p2086
S'named'
p2087
S'[[det]]'
p2088
tp2089
F0.0006626905235255136
s(S'had'
p2090
S'represented'
p2091
S'[[det]]'
p2092
tp2093
F0.0006626905235255136
s(S'then'
p2094
S'served'
p2095
S'with'
p2096
tp2097
F0.0006626905235255136
s(S'[[pro]]'
p2098
S'returned'
p2099
S'to'
p2100
tp2101
F0.0006626905235255136
s(S'was'
p2102
S'serving'
p2103
S'with'
p2104
tp2105
F0.0006626905235255136
s(S'first'
p2106
S'joined'
p2107
S'in'
p2108
tp2109
F0.0006626905235255136
s(S'[[adj]]'
p2110
S'town'
p2111
S'of'
p2112
tp2113
F0.0006626905235255136
s(S'then'
p2114
S'came'
p2115
S'to'
p2116
tp2117
F0.0006626905235255136
s(S'[[con]]'
p2118
S'living'
p2119
S'in'
p2120
tp2121
F0.0006626905235255136
s(S'was'
p2122
S'interred'
p2123
S'in'
p2124
tp2125
F0.0006626905235255136
s(S'also'
p2126
S'awarded'
p2127
S'[[det]]'
p2128
tp2129
F0.0006626905235255136
s(S'as'
p2130
S'director'
p2131
S'of'
p2132
tp2133
F0.0006626905235255136
s(S'for'
p2134
S'[[det]]'
p2135
S'election'
p2136
tp2137
F0.0006626905235255136
s(S'then'
p2138
S'joined'
p2139
S'to'
p2140
tp2141
F0.0006626905235255136
s(S'also'
p2142
S'joined'
p2143
S'in'
p2144
tp2145
F0.0006626905235255136
s(S'was'
p2146
S'arrested'
p2147
S'on'
p2148
tp2149
F0.0006626905235255136
s(S'was'
p2150
S'represented'
p2151
S'for'
p2152
tp2153
F0.0006626905235255136
s(S'is'
p2154
S'married'
p2155
S'from'
p2156
tp2157
F0.0006626905235255136
s(S'was'
p2158
S'interred'
p2159
S'at'
p2160
tp2161
F0.0006626905235255136
s(S'[[prp]]'
p2162
S'home'
p2163
S'in'
p2164
tp2165
F0.0006626905235255136
s(S'was'
p2166
S'brought'
p2167
S'from'
p2168
tp2169
F0.0006626905235255136
s(S'has'
p2170
S'played'
p2171
S'at'
p2172
tp2173
F0.0006626905235255136
s(S'died'
p2174
g1674
g1675
tp2175
F0.0013253810470510272
s(S'been'
p2176
S'awarded'
p2177
S'[[con]]'
p2178
tp2179
F0.0006626905235255136
s(S'was'
p2180
S'member'
p2181
S'of'
p2182
tp2183
F0.0006626905235255136
s(S'first'
p2184
S'played'
p2185
S'for'
p2186
tp2187
F0.0006626905235255136
s(S'was'
p2188
S'appointed'
p2189
S'when'
p2190
tp2191
F0.0006626905235255136
s(S'also'
p2192
S'joined'
p2193
S'[[det]]'
p2194
tp2195
F0.0006626905235255136
s(S'first'
p2196
S'worked'
p2197
S'for'
p2198
tp2199
F0.0006626905235255136
s(S'[[pro]]'
p2200
S'died'
p2201
S'in'
p2202
tp2203
F0.0006626905235255136
s(S'mainly'
p2204
S'played'
p2205
S'with'
p2206
tp2207
F0.0006626905235255136
s(S'first'
p2208
S'came'
p2209
S'in'
p2210
tp2211
F0.0006626905235255136
s(S'was'
p2212
S'appointed'
p2213
S'was'
p2214
tp2215
F0.0006626905235255136
s(S'then'
p2216
S'worked'
p2217
S'as'
p2218
tp2219
F0.0006626905235255136
s(S'has'
p2220
S'served'
p2221
S'before'
p2222
tp2223
F0.0006626905235255136
s(S'also'
p2224
S'played'
p2225
S'in'
p2226
tp2227
F0.0006626905235255136
s(S'been'
p2228
S'working'
p2229
S'in'
p2230
tp2231
F0.0006626905235255136
s(S'is'
p2232
S'member'
p2233
S'of'
p2234
tp2235
F0.0006626905235255136
s(S'also'
p2236
S'represented'
p2237
S'on'
p2238
tp2239
F0.0006626905235255136
s(S'is'
p2240
S'named'
p2241
S'of'
p2242
tp2243
F0.0006626905235255136
s(S'later'
p2244
S'played'
p2245
S'at'
p2246
tp2247
F0.0006626905235255136
s(S'was'
p2248
S'director'
p2249
S'[[con]]'
p2250
tp2251
F0.0006626905235255136
s(S'then'
p2252
S'joined'
p2253
S'then'
p2254
tp2255
F0.0006626905235255136
s(g1158
g1159
S'in'
p2256
tp2257
F0.0006626905235255136
s(S'that'
p2258
S'worked'
p2259
S'for'
p2260
tp2261
F0.0006626905235255136
s(S'who'
p2262
S'joined'
p2263
S'from'
p2264
tp2265
F0.0006626905235255136
s(S'never'
p2266
S'lived'
p2267
S'in'
p2268
tp2269
F0.0006626905235255136
s(S'[[num]]'
p2270
S'moved'
p2271
S'to'
p2272
tp2273
F0.0006626905235255136
s(S'been'
p2274
S'brought'
p2275
S'up'
p2276
tp2277
F0.0006626905235255136
s(g308
g309
S'in'
p2278
tp2279
F0.0006626905235255136
s(S'also'
p2280
S'named'
p2281
S'in'
p2282
tp2283
F0.0006626905235255136
s(S'was'
p2284
S'elected'
p2285
S'from'
p2286
tp2287
F0.0006626905235255136
s(g148
g149
S'in'
p2288
tp2289
F0.0006626905235255136
s(S'[[con]]'
p2290
S'worked'
p2291
S'for'
p2292
tp2293
F0.0006626905235255136
s(S'be'
p2294
S'named'
p2295
S'[[det]]'
p2296
tp2297
F0.0006626905235255136
s(S'as'
p2298
S'mayor'
p2299
S'of'
p2300
tp2301
F0.0033134526176275677
s(S'died'
p2302
S'is'
p2303
S'buried'
p2304
tp2305
F0.0006626905235255136
s(S'was'
p2306
S'arrested'
p2307
S'at'
p2308
tp2309
F0.0006626905235255136
s(S'also'
p2310
S'played'
p2311
S'[[num]]'
p2312
tp2313
F0.0006626905235255136
s(S'then'
p2314
S'moved'
p2315
S'then'
p2316
tp2317
F0.0006626905235255136
s(S'was'
p2318
S'awarded'
p2319
S'[[det]]'
p2320
tp2321
F0.0013253810470510272
s(S'[[con]]'
p2322
S'graduated'
p2323
S'in'
p2324
tp2325
F0.0006626905235255136
s(S'was'
p2326
S'married'
p2327
S'in'
p2328
tp2329
F0.0006626905235255136
s(S'[[num]]'
p2330
S'professor'
p2331
S'of'
p2332
tp2333
F0.0006626905235255136
s(S'was'
p2334
S'moved'
p2335
S'as'
p2336
tp2337
F0.0006626905235255136
s(S'also'
p2338
S'played'
p2339
S'once'
p2340
tp2341
F0.0006626905235255136
s(S'had'
p2342
S'worked'
p2343
S'out'
p2344
tp2345
F0.0006626905235255136
s(S'has'
p2346
S'served'
p2347
S'until'
p2348
tp2349
F0.0006626905235255136
s(S'was'
p2350
S'professor'
p2351
S'in'
p2352
tp2353
F0.0006626905235255136
s(S'again'
p2354
S'served'
p2355
S'to'
p2356
tp2357
F0.0006626905235255136
s(S'first'
p2358
S'served'
p2359
S'with'
p2360
tp2361
F0.0006626905235255136
s(S'was'
p2362
S'elected'
p2363
S'as'
p2364
tp2365
F0.0006626905235255136
s(S'also'
p2366
S'played'
p2367
S'against'
p2368
tp2369
F0.0006626905235255136
s(S'were'
p2370
S'named'
p2371
S'as'
p2372
tp2373
F0.0006626905235255136
s(S'has'
p2374
S'served'
p2375
S'[[det]]'
p2376
tp2377
F0.0006626905235255136
s(g57
S'family'
p2378
S'to'
p2379
tp2380
F0.0019880715705765406
s(S'whom'
p2381
S'married'
p2382
S'in'
p2383
tp2384
F0.0006626905235255136
s(S'later'
p2385
S'joined'
p2386
S'[[det]]'
p2387
tp2388
F0.0006626905235255136
s(S'moved'
p2389
S'around'
p2390
S'[[prp]]'
p2391
tp2392
F0.0006626905235255136
s(S'was'
p2393
S'arrested'
p2394
S'[[num]]'
p2395
tp2396
F0.0006626905235255136
s(S'attended'
p2397
S'schools'
p2398
S'at'
p2399
tp2400
F0.0006626905235255136
s(S'has'
p2401
S'played'
p2402
S'in'
p2403
tp2404
F0.0006626905235255136
s(S'[[con]]'
p2405
S'played'
p2406
S'together'
p2407
tp2408
F0.0006626905235255136
s(S'[[adj]]'
p2409
S'served'
p2410
S'in'
p2411
tp2412
F0.0006626905235255136
s(S'[[det]]'
p2413
S'campaign'
p2414
S'in'
p2415
tp2416
F0.0006626905235255136
s(S'was'
p2417
S'appointed'
p2418
S'where'
p2419
tp2420
F0.0006626905235255136
s(S'[[prp]]'
p2421
S'return'
p2422
S'to'
p2423
tp2424
F0.0006626905235255136
s(S'[[det]]'
p2425
S'schools'
p2426
S'of'
p2427
tp2428
F0.0006626905235255136
s(S'then'
p2429
S'returned'
p2430
S'with'
p2431
tp2432
F0.0006626905235255136
s(S'also'
p2433
S'member'
p2434
S'[[con]]'
p2435
tp2436
F0.0006626905235255136
s(S'be'
p2437
S'educated'
p2438
S'at'
p2439
tp2440
F0.0006626905235255136
s(S'[[adj]]'
p2441
S'director'
p2442
S'at'
p2443
tp2444
F0.0006626905235255136
s(S'became'
p2445
S'president'
p2446
S'in'
p2447
tp2448
F0.0006626905235255136
s(S'born'
p2449
S'in'
p2450
S'[[det]]'
p2451
tp2452
F0.0026507620941020544
s(S'[[con]]'
p2453
S'professor'
p2454
S'[[det]]'
p2455
tp2456
F0.0006626905235255136
s(S'[[adj]]'
p2457
S'person'
p2458
S'from'
p2459
tp2460
F0.0006626905235255136
s(S'was'
p2461
S'awarded'
p2462
S'by'
p2463
tp2464
F0.0006626905235255136
s(S'then'
p2465
S'settled'
p2466
S'in'
p2467
tp2468
F0.0006626905235255136
s(S'is'
p2469
S'appointed'
p2470
S'[[con]]'
p2471
tp2472
F0.0006626905235255136
s(S'then'
p2473
S'moved'
p2474
S'up'
p2475
tp2476
F0.0006626905235255136
s(S'[[det]]'
p2477
S'returned'
p2478
S'to'
p2479
tp2480
F0.0006626905235255136
s(S'also'
p2481
S'served'
p2482
S'to'
p2483
tp2484
F0.0006626905235255136
s(g2391
S'family'
p2485
S'in'
p2486
tp2487
F0.0013253810470510272
s(S'[[num]]'
p2488
S'served'
p2489
S'on'
p2490
tp2491
F0.0006626905235255136
s(S'[[con]]'
p2492
S'member'
p2493
S'of'
p2494
tp2495
F0.0006626905235255136
s(S'in'
p2496
g2110
g2111
tp2497
F0.0013253810470510272
s(S'[[con]]'
p2498
S'relocated'
p2499
S'to'
p2500
tp2501
F0.0006626905235255136
s(S'[[adj]]'
p2502
S'elected'
p2503
S'of'
p2504
tp2505
F0.0006626905235255136
s(S'became'
p2506
S'director'
p2507
S'for'
p2508
tp2509
F0.0006626905235255136
s(S'currently'
p2510
S'lives'
p2511
S'in'
p2512
tp2513
F0.0013253810470510272
s(S'has'
p2514
S'served'
p2515
S'for'
p2516
tp2517
F0.0006626905235255136
s(S'born'
p2518
g981
g982
tp2519
F0.0019880715705765406
s(S'became'
p2520
S'member'
p2521
S'[[det]]'
p2522
tp2523
F0.0006626905235255136
s(S'also'
p2524
S'served'
p2525
S'[[adj]]'
p2526
tp2527
F0.0006626905235255136
s(S'be'
p2528
S'moving'
p2529
S'to'
p2530
tp2531
F0.0006626905235255136
s(S'has'
p2532
S'taken'
p2533
S'part'
p2534
tp2535
F0.0006626905235255136
s(S'also'
p2536
S'played'
p2537
S'for'
p2538
tp2539
F0.0006626905235255136
s(S'just'
p2540
S'returned'
p2541
S'from'
p2542
tp2543
F0.0006626905235255136
s(S'born'
p2544
S'is'
p2545
S'[[adj]]'
p2546
tp2547
F0.0006626905235255136
s(S'was'
p2548
S'appointed'
p2549
S'[[con]]'
p2550
tp2551
F0.0006626905235255136
s(S'have'
p2552
S'played'
p2553
S'in'
p2554
tp2555
F0.0006626905235255136
s(S'was'
p2556
S'joined'
p2557
S'at'
p2558
tp2559
F0.0006626905235255136
s(S'[[det]]'
p2560
S'director'
p2561
S'[[con]]'
p2562
tp2563
F0.0006626905235255136
s(S'[[det]]'
p2564
S'served'
p2565
S'in'
p2566
tp2567
F0.0006626905235255136
s(g388
g389
g709
tp2568
F0.0013253810470510272
s(S'has'
p2569
S'arrived'
p2570
S'in'
p2571
tp2572
F0.0006626905235255136
s(S'been'
p2573
S'named'
p2574
S'of'
p2575
tp2576
F0.0006626905235255136
s(S'then'
p2577
S'moved'
p2578
S'[[num]]'
p2579
tp2580
F0.0006626905235255136
s(S'who'
p2581
S'worked'
p2582
S'for'
p2583
tp2584
F0.0006626905235255136
s(S'has'
p2585
S'worked'
p2586
S'[[con]]'
p2587
tp2588
F0.0006626905235255136
s(S'who'
p2589
S'spent'
p2590
S'most'
p2591
tp2592
F0.0006626905235255136
s(S'born'
p2593
S'[[con]]'
p2594
g2270
tp2595
F0.0006626905235255136
s(S'attended'
p2596
S'schools'
p2597
S'in'
p2598
tp2599
F0.0006626905235255136
s(S'been'
p2600
S'named'
p2601
S'to'
p2602
tp2603
F0.0006626905235255136
s(S'been'
p2604
S'serving'
p2605
S'with'
p2606
tp2607
F0.0006626905235255136
s(S'[[con]]'
p2608
S'is'
p2609
S'buried'
p2610
tp2611
F0.0033134526176275677
s(S'[[det]]'
p2612
S'resident'
p2613
S'of'
p2614
tp2615
F0.0006626905235255136
s(S'been'
p2616
S'appointed'
p2617
S'to'
p2618
tp2619
F0.0006626905235255136
s(S'[[con]]'
p2620
S'moving'
p2621
S'to'
p2622
tp2623
F0.0006626905235255136
s(S'later'
p2624
S'worked'
p2625
S'as'
p2626
tp2627
F0.0006626905235255136
s(S'born'
p2628
S'on'
p2629
S'[[det]]'
p2630
tp2631
F0.0006626905235255136
s(S'who'
p2632
S'came'
p2633
S'from'
p2634
tp2635
F0.0006626905235255136
s(S'then'
p2636
S'joined'
p2637
S'with'
p2638
tp2639
F0.0006626905235255136
s(S'currently'
p2640
S'serves'
p2641
S'for'
p2642
tp2643
F0.0006626905235255136
s(S'candidate'
p2644
g2134
g2135
tp2645
F0.0006626905235255136
s(S'be'
p2646
S'appointed'
p2647
S'of'
p2648
tp2649
F0.0006626905235255136
s(S'then'
p2650
S'served'
p2651
S'at'
p2652
tp2653
F0.0006626905235255136
s(S'was'
p2654
S'member'
p2655
S'[[con]]'
p2656
tp2657
F0.0006626905235255136
s(S'was'
p2658
S'named'
p2659
S'in'
p2660
tp2661
F0.0006626905235255136
s(S'[[det]]'
p2662
S'head'
p2663
S'[[det]]'
p2664
tp2665
F0.0006626905235255136
s(S'again'
p2666
S'named'
p2667
S'in'
p2668
tp2669
F0.0006626905235255136
s(S'twice'
p2670
S'served'
p2671
S'in'
p2672
tp2673
F0.0006626905235255136
s(S'later'
p2674
S'moved'
p2675
S'on'
p2676
tp2677
F0.0006626905235255136
s(S'which'
p2678
S'played'
p2679
S'[[con]]'
p2680
tp2681
F0.0006626905235255136
s(S'then'
p2682
S'appointed'
p2683
S'[[pro]]'
p2684
tp2685
F0.0006626905235255136
s(S'that'
p2686
S'played'
p2687
S'in'
p2688
tp2689
F0.0006626905235255136
s(S'[[adj]]'
p2690
S'law'
p2691
S'in'
p2692
tp2693
F0.0006626905235255136
s(S'has'
p2694
S'played'
p2695
S'most'
p2696
tp2697
F0.0006626905235255136
s(S'also'
p2698
S'represented'
p2699
S'to'
p2700
tp2701
F0.0006626905235255136
s(S'also'
p2702
S'played'
p2703
S'to'
p2704
tp2705
F0.0006626905235255136
s(S'[[adj]]'
p2706
S'schools'
p2707
S'of'
p2708
tp2709
F0.0006626905235255136
s(S'served'
p2710
g1319
g1320
tp2711
F0.0006626905235255136
s(S'was'
p2712
S'appointed'
p2713
S'on'
p2714
tp2715
F0.0006626905235255136
s(S'[[det]]'
p2716
S'professor'
p2717
S'to'
p2718
tp2719
F0.0006626905235255136
s(S'then'
p2720
S'played'
p2721
S'[[det]]'
p2722
tp2723
F0.0006626905235255136
s(S'practiced'
p2724
S'law'
p2725
S'in'
p2726
tp2727
F0.0026507620941020544
s(S'practiced'
p2728
S'law'
p2729
S'[[con]]'
p2730
tp2731
F0.0006626905235255136
s(S'when'
p2732
S'arrived'
p2733
S'in'
p2734
tp2735
F0.0006626905235255136
s(S'[[con]]'
p2736
S'worked'
p2737
S'at'
p2738
tp2739
F0.0006626905235255136
s(g1190
g1191
S'mayor'
p2740
tp2741
F0.0006626905235255136
s(S'[[adj]]'
p2742
S'serving'
p2743
S'for'
p2744
tp2745
F0.0006626905235255136
s(S'has'
p2746
S'worked'
p2747
S'to'
p2748
tp2749
F0.0006626905235255136
s(S'again'
p2750
S'represented'
p2751
S'[[det]]'
p2752
tp2753
F0.0006626905235255136
s(S'[[con]]'
p2754
S'played'
p2755
S'on'
p2756
tp2757
F0.0006626905235255136
s(S'first'
p2758
S'settled'
p2759
S'in'
p2760
tp2761
F0.0006626905235255136
s(S'who'
p2762
S'worked'
p2763
S'at'
p2764
tp2765
F0.0006626905235255136
s(S'then'
p2766
S'appointed'
p2767
S'to'
p2768
tp2769
F0.0006626905235255136
s(S'[[det]]'
p2770
S'professor'
p2771
S'[[adj]]'
p2772
tp2773
F0.0006626905235255136
s(S'[[det]]'
p2774
S'director'
p2775
S'on'
p2776
tp2777
F0.0006626905235255136
s(S'was'
p2778
S'appointed'
p2779
S'to'
p2780
tp2781
F0.0006626905235255136
s(S'later'
p2782
S'elected'
p2783
S'of'
p2784
tp2785
F0.0006626905235255136
s(S'also'
p2786
S'practiced'
p2787
S'law'
p2788
tp2789
F0.0006626905235255136
s(S'has'
p2790
S'played'
p2791
S'to'
p2792
tp2793
F0.0006626905235255136
s(g2629
g2630
S'town'
p2794
tp2795
F0.0006626905235255136
s(S'also'
p2796
S'played'
p2797
S'twice'
p2798
tp2799
F0.0006626905235255136
s(S'[[con]]'
p2800
S'worked'
p2801
S'in'
p2802
tp2803
F0.0006626905235255136
s(S'had'
p2804
S'served'
p2805
S'[[det]]'
p2806
tp2807
F0.0006626905235255136
s(S'was'
p2808
S'buried'
p2809
S'on'
p2810
tp2811
F0.0013253810470510272
s(S'also'
p2812
S'represented'
p2813
S'while'
p2814
tp2815
F0.0006626905235255136
s(S'become'
p2816
S'director'
p2817
S'at'
p2818
tp2819
F0.0006626905235255136
s(S'also'
p2820
S'serves'
p2821
S'on'
p2822
tp2823
F0.0006626905235255136
s(S'been'
p2824
S'appointed'
p2825
S'as'
p2826
tp2827
F0.0006626905235255136
s(S'[[det]]'
p2828
S'home'
p2829
S'in'
p2830
tp2831
F0.0006626905235255136
s(S'[[con]]'
p2832
S'lived'
p2833
S'in'
p2834
tp2835
F0.0006626905235255136
s(S'was'
p2836
S'graduated'
p2837
S'now'
p2838
tp2839
F0.0006626905235255136
s(S'have'
p2840
S'attended'
p2841
S'in'
p2842
tp2843
F0.0006626905235255136
s(S'been'
p2844
S'named'
p2845
S'as'
p2846
tp2847
F0.0006626905235255136
s(S'[[con]]'
p2848
S'served'
p2849
S'in'
p2850
tp2851
F0.0013253810470510272
s(S'[[adj]]'
p2852
S'married'
p2853
S'in'
p2854
tp2855
F0.0006626905235255136
s(S'was'
p2856
S'educated'
p2857
S'[[det]]'
p2858
tp2859
F0.0006626905235255136
s(S'also'
p2860
S'named'
p2861
S'to'
p2862
tp2863
F0.0006626905235255136
s(g1105
S'campaign'
p2864
S'in'
p2865
tp2866
F0.0006626905235255136
s(S'[[con]]'
p2867
S'died'
p2868
S'in'
p2869
tp2870
F0.0006626905235255136
s(S'[[adj]]'
p2871
S'elected'
p2872
S'from'
p2873
tp2874
F0.0006626905235255136
s(S'until'
p2875
S'returned'
p2876
S'to'
p2877
tp2878
F0.0006626905235255136
s(S'[[det]]'
p2879
S'governor'
p2880
S'[[det]]'
p2881
tp2882
F0.0006626905235255136
s(g288
g289
S'in'
p2883
tp2884
F0.0006626905235255136
s(S'while'
p2885
S'returned'
p2886
S'to'
p2887
tp2888
F0.0006626905235255136
s(S'was'
p2889
S'arrested'
p2890
S'for'
p2891
tp2892
F0.0006626905235255136
s(S'was'
p2893
S'serving'
p2894
S'in'
p2895
tp2896
F0.0006626905235255136
s(S'since'
p2897
S'worked'
p2898
S'in'
p2899
tp2900
F0.0006626905235255136
s(S'[[adj]]'
p2901
S'governor'
p2902
S'of'
p2903
tp2904
F0.0006626905235255136
s(S'been'
p2905
S'named'
p2906
S'[[con]]'
p2907
tp2908
F0.0006626905235255136
s(S'was'
p2909
g2518
g981
tp2910
F0.011928429423459244
s(S'had'
p2911
S'graduated'
p2912
S'from'
p2913
tp2914
F0.0006626905235255136
s(S'never'
p2915
S'played'
p2916
S'for'
p2917
tp2918
F0.0006626905235255136
s(S'when'
p2919
S'worked'
p2920
S'in'
p2921
tp2922
F0.0006626905235255136
s(S'been'
p2923
S'appointed'
p2924
S'[[con]]'
p2925
tp2926
F0.0006626905235255136
s(S'then'
p2927
S'appointed'
p2928
S'at'
p2929
tp2930
F0.0006626905235255136
s(S'[[det]]'
p2931
S'member'
p2932
S'from'
p2933
tp2934
F0.0006626905235255136
s(S'had'
p2935
S'served'
p2936
S'on'
p2937
tp2938
F0.0006626905235255136
s(g1976
g1977
S'mayor'
p2939
tp2940
F0.0006626905235255136
s(g777
g633
g634
tp2941
F0.0006626905235255136
s(S'in'
p2942
S'[[prp]]'
p2943
S'family'
p2944
tp2945
F0.0006626905235255136
s(S'currently'
p2946
S'serving'
p2947
S'on'
p2948
tp2949
F0.0006626905235255136
s(S'again'
p2950
S'elected'
p2951
S'from'
p2952
tp2953
F0.0006626905235255136
s(S'attended'
p2954
g2425
g2426
tp2955
F0.0019880715705765406
s(g1398
g1399
S'in'
p2956
tp2957
F0.007952286282306162
s(S'then'
p2958
S'appointed'
p2959
S'in'
p2960
tp2961
F0.0006626905235255136
s(S'been'
p2962
S'awarded'
p2963
S'at'
p2964
tp2965
F0.0006626905235255136
s(S'was'
p2966
S'member'
p2967
S'[[det]]'
p2968
tp2969
F0.0006626905235255136
s(S'again'
p2970
S'named'
p2971
S'by'
p2972
tp2973
F0.0006626905235255136
s(S'for'
p2974
S'governor'
p2975
S'of'
p2976
tp2977
F0.0013253810470510272
s(S'also'
p2978
S'appointed'
p2979
S'as'
p2980
tp2981
F0.0006626905235255136
s(S'was'
p2982
S'appointed'
p2983
S'[[num]]'
p2984
tp2985
F0.0006626905235255136
s(g650
g651
S'village'
p2986
tp2987
F0.0006626905235255136
s(S'[[con]]'
p2988
S'served'
p2989
S'on'
p2990
tp2991
F0.0006626905235255136
s(S'joined'
p2992
S'[[prp]]'
p2993
S'mother'
p2994
tp2995
F0.0006626905235255136
s(S'was'
p2996
S'appointed'
p2997
S'at'
p2998
tp2999
F0.0006626905235255136
s(S'be'
p3000
S'awarded'
p3001
S'[[det]]'
p3002
tp3003
F0.0006626905235255136
s(S'go'
p3004
S'home'
p3005
S'to'
p3006
tp3007
F0.0006626905235255136
s(S'became'
p3008
S'professor'
p3009
S'[[con]]'
p3010
tp3011
F0.0006626905235255136
s(S'later'
p3012
S'worked'
p3013
S'on'
p3014
tp3015
F0.0006626905235255136
s(S'[[con]]'
p3016
S'returned'
p3017
S'on'
p3018
tp3019
F0.0006626905235255136
s(S'be'
p3020
S'appointed'
p3021
S'at'
p3022
tp3023
F0.0006626905235255136
s(S'later'
p3024
S'appointed'
p3025
S'on'
p3026
tp3027
F0.0006626905235255136
s(S'[[det]]'
p3028
S'serving'
p3029
S'in'
p3030
tp3031
F0.0006626905235255136
s(S'divides'
p3032
S'[[prp]]'
p3033
S'home'
p3034
tp3035
F0.0006626905235255136
s(S'was'
p3036
S'appointed'
p3037
S'in'
p3038
tp3039
F0.0006626905235255136
s(S'had'
p3040
S'joined'
p3041
S'from'
p3042
tp3043
F0.0006626905235255136
s(S'was'
p3044
S'professor'
p3045
S'of'
p3046
tp3047
F0.0006626905235255136
s(S'had'
p3048
S'worked'
p3049
S'for'
p3050
tp3051
F0.0006626905235255136
s(S'then'
p3052
S'married'
p3053
S'to'
p3054
tp3055
F0.0006626905235255136
s(S'[[num]]'
p3056
S'awarded'
p3057
S'by'
p3058
tp3059
F0.0006626905235255136
s(S'since'
p3060
S'played'
p3061
S'with'
p3062
tp3063
F0.0006626905235255136
s(S'had'
p3064
S'arrived'
p3065
S'at'
p3066
tp3067
F0.0006626905235255136
s(S'was'
p3068
S'taken'
p3069
S'to'
p3070
tp3071
F0.0006626905235255136
s(S'[[con]]'
p3072
S'now'
p3073
S'resides'
p3074
tp3075
F0.0006626905235255136
s(S'died'
p3076
S'on'
p3077
S'was'
p3078
tp3079
F0.0006626905235255136
s(S'again'
p3080
S'returned'
p3081
S'to'
p3082
tp3083
F0.0006626905235255136
s(S'became'
p3084
S'director'
p3085
S'of'
p3086
tp3087
F0.0006626905235255136
s(S'be'
p3088
S'named'
p3089
S'of'
p3090
tp3091
F0.0006626905235255136
s(S'[[pro]]'
p3092
S'return'
p3093
S'to'
p3094
tp3095
F0.0006626905235255136
s(S'also'
p3096
S'played'
p3097
S'over'
p3098
tp3099
F0.0006626905235255136
s(S'also'
p3100
S'serves'
p3101
S'as'
p3102
tp3103
F0.0006626905235255136
s(S'[[adj]]'
p3104
S'attended'
p3105
S'in'
p3106
tp3107
F0.0006626905235255136
s(S'[[adj]]'
p3108
S'professor'
p3109
S'at'
p3110
tp3111
F0.0006626905235255136
s(S'not'
p3112
S'played'
p3113
S'in'
p3114
tp3115
F0.0006626905235255136
s(S'already'
p3116
S'played'
p3117
S'for'
p3118
tp3119
F0.0006626905235255136
s(S'also'
p3120
S'represented'
p3121
S'[[con]]'
p3122
tp3123
F0.0006626905235255136
s(S'was'
p3124
S'named'
p3125
S'[[con]]'
p3126
tp3127
F0.0006626905235255136
s(S'then'
p3128
S'played'
p3129
S'also'
p3130
tp3131
F0.0006626905235255136
s(S'[[prp]]'
p3132
S'time'
p3133
S'in'
p3134
tp3135
F0.0006626905235255136
s(S'have'
p3136
S'lived'
p3137
S'in'
p3138
tp3139
F0.0006626905235255136
s(S'[[con]]'
p3140
S'returned'
p3141
S'to'
p3142
tp3143
F0.0013253810470510272
s(S'spends'
p3144
S'most'
p3145
g3132
tp3146
F0.0006626905235255136
s(S'as'
p3147
S'member'
p3148
S'of'
p3149
tp3150
F0.0006626905235255136
s(g1531
g1532
S'who'
p3151
tp3152
F0.0006626905235255136
s(S'not'
p3153
S'return'
p3154
S'to'
p3155
tp3156
F0.0006626905235255136
s(g2594
g2270
g2271
tp3157
F0.0006626905235255136
s(S'[[adj]]'
p3158
S'person'
p3159
S'in'
p3160
tp3161
F0.0006626905235255136
s(S'never'
p3162
S'played'
p3163
S'in'
p3164
tp3165
F0.0006626905235255136
s(S'then'
p3166
S'moved'
p3167
S'at'
p3168
tp3169
F0.0006626905235255136
s(S'later'
p3170
S'appointed'
p3171
S'of'
p3172
tp3173
F0.0006626905235255136
s(S'was'
p3174
S'graduated'
p3175
S'at'
p3176
tp3177
F0.0006626905235255136
s(S'became'
p3178
S'professor'
p3179
S'of'
p3180
tp3181
F0.0006626905235255136
s(S'was'
p3182
S'relocated'
p3183
S'in'
p3184
tp3185
F0.0006626905235255136
s(S'served'
p3186
S'as'
p3187
S'member'
p3188
tp3189
F0.0006626905235255136
s(S'[[adj]]'
p3190
S'serving'
p3191
S'on'
p3192
tp3193
F0.0006626905235255136
s(S'[[num]]'
p3194
S'served'
p3195
S'for'
p3196
tp3197
F0.0006626905235255136
s(S'born'
p3198
g1205
g1206
tp3199
F0.0019880715705765406
s(S'since'
p3200
S'worked'
p3201
S'with'
p3202
tp3203
F0.0006626905235255136
s(S'later'
p3204
S'graduated'
p3205
S'at'
p3206
tp3207
F0.0006626905235255136
s(S'[[adj]]'
p3208
S'arrived'
p3209
S'in'
p3210
tp3211
F0.0006626905235255136
s(S'is'
p3212
S'returned'
p3213
S'to'
p3214
tp3215
F0.0006626905235255136
s(S'been'
p3216
S'arrested'
p3217
S'in'
p3218
tp3219
F0.0006626905235255136
s(S'practiced'
p3220
g2690
g2691
tp3221
F0.0006626905235255136
s(S'later'
p3222
S'moving'
p3223
S'to'
p3224
tp3225
F0.0006626905235255136
s(S'formerly'
p3226
S'served'
p3227
S'for'
p3228
tp3229
F0.0006626905235255136
s(S'[[det]]'
p3230
S'director'
p3231
S'at'
p3232
tp3233
F0.0006626905235255136
s(S'was'
p3234
S'brought'
p3235
S'up'
p3236
tp3237
F0.0006626905235255136
s(S'[[adj]]'
p3238
S'member'
p3239
S'[[adj]]'
p3240
tp3241
F0.0006626905235255136
s(S'has'
p3242
S'moved'
p3243
S'on'
p3244
tp3245
F0.0006626905235255136
s(S'first'
p3246
S'worked'
p3247
S'[[con]]'
p3248
tp3249
F0.0006626905235255136
s(S'later'
p3250
S'named'
p3251
S'of'
p3252
tp3253
F0.0006626905235255136
s(S'is'
p3254
S'professor'
p3255
S'in'
p3256
tp3257
F0.0006626905235255136
s(S'has'
p3258
S'played'
p3259
S'[[num]]'
p3260
tp3261
F0.0006626905235255136
s(S'then'
p3262
S'named'
p3263
S'[[det]]'
p3264
tp3265
F0.0006626905235255136
s(S'never'
p3266
S'played'
p3267
S'[[con]]'
p3268
tp3269
F0.0006626905235255136
s(S'currently'
p3270
S'serves'
p3271
S'[[det]]'
p3272
tp3273
F0.0006626905235255136
s(S'was'
p3274
S'appointed'
p3275
S'[[adj]]'
p3276
tp3277
F0.0006626905235255136
s(S'also'
p3278
S'served'
p3279
S'for'
p3280
tp3281
F0.0006626905235255136
s(S'on'
p3282
S'is'
p3283
S'buried'
p3284
tp3285
F0.0013253810470510272
s(S'then'
p3286
S'joined'
p3287
S'of'
p3288
tp3289
F0.0006626905235255136
s(S'[[adj]]'
p3290
S'director'
p3291
S'of'
p3292
tp3293
F0.0006626905235255136
s(S'who'
p3294
S'lives'
p3295
S'in'
p3296
tp3297
F0.0006626905235255136
s(S'also'
p3298
S'served'
p3299
S'[[con]]'
p3300
tp3301
F0.0006626905235255136
s(S'is'
p3302
S'director'
p3303
S'for'
p3304
tp3305
F0.0006626905235255136
s(S'was'
p3306
S'named'
p3307
S'of'
p3308
tp3309
F0.0006626905235255136
s(S'[[pro]]'
p3310
S'lived'
p3311
S'in'
p3312
tp3313
F0.0006626905235255136
s(S'were'
p3314
S'married'
p3315
S'in'
p3316
tp3317
F0.0006626905235255136
s(S'[[adj]]'
p3318
S'governor'
p3319
S'in'
p3320
tp3321
F0.0006626905235255136
s(S'[[con]]'
p3322
S'buried'
p3323
S'in'
p3324
tp3325
F0.0006626905235255136
s(S'[[num]]'
p3326
S'represented'
p3327
S'in'
p3328
tp3329
F0.0006626905235255136
s(S'currently'
p3330
S'serving'
p3331
S'[[con]]'
p3332
tp3333
F0.0006626905235255136
s(S'never'
p3334
S'played'
p3335
S'with'
p3336
tp3337
F0.0006626905235255136
s(S'to'
p3338
S'head'
p3339
S'in'
p3340
tp3341
F0.0006626905235255136
s(S'while'
p3342
S'living'
p3343
S'in'
p3344
tp3345
F0.0006626905235255136
s(S'[[det]]'
p3346
S'member'
p3347
S'for'
p3348
tp3349
F0.0006626905235255136
s(S'[[adj]]'
p3350
S'return'
p3351
S'to'
p3352
tp3353
F0.0006626905235255136
s(S'is'
p3354
S'interred'
p3355
S'at'
p3356
tp3357
F0.0006626905235255136
s(S'later'
p3358
S'relocated'
p3359
S'to'
p3360
tp3361
F0.0006626905235255136
s(S'moved'
p3362
g195
g196
tp3363
F0.0026507620941020544
s(S'[[con]]'
p3364
S'serves'
p3365
S'in'
p3366
tp3367
F0.0006626905235255136
s(S'then'
p3368
S'moved'
p3369
S'over'
p3370
tp3371
F0.0006626905235255136
s(S'where'
p3372
S'served'
p3373
S'in'
p3374
tp3375
F0.0006626905235255136
s(S'[[adj]]'
p3376
S'working'
p3377
S'in'
p3378
tp3379
F0.0006626905235255136
s(S'been'
p3380
S'named'
p3381
S'in'
p3382
tp3383
F0.0006626905235255136
s(S'was'
p3384
S'resident'
p3385
S'at'
p3386
tp3387
F0.0006626905235255136
s(S'who'
p3388
S'served'
p3389
S'as'
p3390
tp3391
F0.0013253810470510272
s(S'is'
p3392
S'interred'
p3393
S'in'
p3394
tp3395
F0.0006626905235255136
s(S'died'
p3396
S'there'
p3397
S'is'
p3398
tp3399
F0.0006626905235255136
s(S'[[det]]'
p3400
S'town'
p3401
S'of'
p3402
tp3403
F0.0019880715705765406
s(S'member'
p3404
S'[[con]]'
p3405
S'served'
p3406
tp3407
F0.0006626905235255136
s(S'born'
p3408
g2942
g2943
tp3409
F0.0006626905235255136
s(S'then'
p3410
S'graduated'
p3411
S'in'
p3412
tp3413
F0.0006626905235255136
s(S'then'
p3414
S'played'
p3415
S'in'
p3416
tp3417
F0.0006626905235255136
s(S'where'
p3418
S'played'
p3419
S'[[con]]'
p3420
tp3421
F0.0006626905235255136
s(S'had'
p3422
S'played'
p3423
S'at'
p3424
tp3425
F0.0006626905235255136
s(S'splits'
p3426
S'[[prp]]'
p3427
S'time'
p3428
tp3429
F0.0006626905235255136
s(S'was'
p3430
S'head'
p3431
S'to'
p3432
tp3433
F0.0006626905235255136
s(S'while'
p3434
S'serving'
p3435
S'in'
p3436
tp3437
F0.0006626905235255136
s(S'was'
p3438
S'awarded'
p3439
S'[[adj]]'
p3440
tp3441
F0.0006626905235255136
s(S'[[con]]'
p3442
S'returned'
p3443
S'in'
p3444
tp3445
F0.0006626905235255136
s(S'then'
p3446
S'played'
p3447
S'at'
p3448
tp3449
F0.0006626905235255136
s(S'again'
p3450
S'appointed'
p3451
S'to'
p3452
tp3453
F0.0006626905235255136
s(S'was'
p3454
S'named'
p3455
S'on'
p3456
tp3457
F0.0006626905235255136
s(S'is'
p3458
S'serving'
p3459
S'in'
p3460
tp3461
F0.0006626905235255136
s(S'[[det]]'
p3462
S'head'
p3463
S'in'
p3464
tp3465
F0.0006626905235255136
s(S'has'
p3466
S'played'
p3467
S'[[adj]]'
p3468
tp3469
F0.0006626905235255136
s(S'was'
p3470
S'taken'
p3471
S'[[con]]'
p3472
tp3473
F0.0006626905235255136
s(S'[[con]]'
p3474
S'returned'
p3475
S'at'
p3476
tp3477
F0.0006626905235255136
s(S'formerly'
p3478
S'played'
p3479
S'at'
p3480
tp3481
F0.0006626905235255136
s(S'again'
p3482
S'joined'
p3483
S'[[det]]'
p3484
tp3485
F0.0006626905235255136
s(S'where'
p3486
S'joined'
p3487
S'[[det]]'
p3488
tp3489
F0.0006626905235255136
s(S'with'
p3490
S'joined'
p3491
S'[[det]]'
p3492
tp3493
F0.0006626905235255136
s(S'also'
p3494
S'played'
p3495
S'as'
p3496
tp3497
F0.0006626905235255136
s(g1320
g1321
S'to'
p3498
tp3499
F0.0013253810470510272
s(S'served'
p3500
g1987
g1988
tp3501
F0.0006626905235255136
s(g2363
g2364
S'mayor'
p3502
tp3503
F0.0006626905235255136
s(S'[[con]]'
p3504
S'director'
p3505
S'[[det]]'
p3506
tp3507
F0.0006626905235255136
s(S'now'
p3508
S'lives'
p3509
S'in'
p3510
tp3511
F0.0013253810470510272
s(S'born'
p3512
S'village'
p3513
S'of'
p3514
tp3515
F0.0006626905235255136
s(S'[[adj]]'
p3516
S'played'
p3517
S'in'
p3518
tp3519
F0.0006626905235255136
s(S'were'
p3520
S'awarded'
p3521
S'from'
p3522
tp3523
F0.0006626905235255136
s(S'is'
p3524
S'buried'
p3525
S'at'
p3526
tp3527
F0.0026507620941020544
s(g481
g1450
S'in'
p3528
tp3529
F0.0006626905235255136
s(S'[[adj]]'
p3530
S'played'
p3531
S'as'
p3532
tp3533
F0.0006626905235255136
s(g3187
g3188
S'[[det]]'
p3534
tp3535
F0.0006626905235255136
s(S'been'
p3536
S'awarded'
p3537
S'from'
p3538
tp3539
F0.0006626905235255136
s(S'had'
p3540
S'arrived'
p3541
S'to'
p3542
tp3543
F0.0006626905235255136
s(S'[[det]]'
p3544
S'schools'
p3545
S'in'
p3546
tp3547
F0.0006626905235255136
s(S'practiced'
p3548
S'law'
p3549
S'at'
p3550
tp3551
F0.0006626905235255136
s(S'[[adj]]'
p3552
S'played'
p3553
S'with'
p3554
tp3555
F0.0006626905235255136
s(S'[[num]]'
p3556
S'living'
p3557
S'in'
p3558
tp3559
F0.0006626905235255136
s(S'later'
p3560
S'served'
p3561
S'to'
p3562
tp3563
F0.0006626905235255136
s(S'[[adj]]'
p3564
S'works'
p3565
S'in'
p3566
tp3567
F0.0006626905235255136
s(S'then'
p3568
S'played'
p3569
S'then'
p3570
tp3571
F0.0006626905235255136
s(S'be'
p3572
S'awarded'
p3573
S'by'
p3574
tp3575
F0.0006626905235255136
s(S'member'
p3576
S'of'
p3577
S'representing'
p3578
tp3579
F0.0006626905235255136
s(S'to'
p3580
S'return'
p3581
S'to'
p3582
tp3583
F0.0006626905235255136
s(S'also'
p3584
S'worked'
p3585
S'for'
p3586
tp3587
F0.0006626905235255136
s(S'when'
p3588
S'played'
p3589
S'against'
p3590
tp3591
F0.0006626905235255136
s(S'was'
p3592
S'married'
p3593
S'from'
p3594
tp3595
F0.0006626905235255136
s(S'after'
p3596
S'serving'
p3597
S'in'
p3598
tp3599
F0.0006626905235255136
s(g1477
g1478
S'moved'
p3600
tp3601
F0.0006626905235255136
s(S'[[con]]'
p3602
S'joined'
p3603
S'in'
p3604
tp3605
F0.0006626905235255136
s(g1532
g3151
S'served'
p3606
tp3607
F0.0006626905235255136
s(S'now'
p3608
S'serves'
p3609
S'as'
p3610
tp3611
F0.0006626905235255136
s(S'[[num]]'
p3612
S'served'
p3613
S'in'
p3614
tp3615
F0.0006626905235255136
s(S'run'
p3616
g2974
g2975
tp3617
F0.0013253810470510272
s(S'when'
p3618
S'died'
p3619
S'in'
p3620
tp3621
F0.0006626905235255136
s(S'also'
p3622
S'worked'
p3623
S'at'
p3624
tp3625
F0.0006626905235255136
s(S'[[adj]]'
p3626
S'played'
p3627
S'against'
p3628
tp3629
F0.0006626905235255136
s(S'then'
p3630
S'appointed'
p3631
S'of'
p3632
tp3633
F0.0006626905235255136
s(S'[[num]]'
p3634
S'played'
p3635
S'for'
p3636
tp3637
F0.0006626905235255136
s(S'has'
p3638
S'played'
p3639
S'mainly'
p3640
tp3641
F0.0006626905235255136
s(S'being'
p3642
S'named'
p3643
S'of'
p3644
tp3645
F0.0006626905235255136
s(S'[[adj]]'
p3646
S'returned'
p3647
S'to'
p3648
tp3649
F0.0006626905235255136
s(S'first'
p3650
S'attended'
p3651
S'in'
p3652
tp3653
F0.0006626905235255136
s(S'then'
p3654
S'joined'
p3655
S'[[det]]'
p3656
tp3657
F0.0006626905235255136
s(S'also'
p3658
S'won'
p3659
S'in'
p3660
tp3661
F0.0006626905235255136
s(S'be'
p3662
S'living'
p3663
S'in'
p3664
tp3665
F0.0006626905235255136
s(S'has'
p3666
S'represented'
p3667
S'[[det]]'
p3668
tp3669
F0.0006626905235255136
s(g3077
g3078
S'buried'
p3670
tp3671
F0.0006626905235255136
s(S'just'
p3672
S'arrived'
p3673
S'in'
p3674
tp3675
F0.0006626905235255136
s(S'[[adj]]'
p3676
S'living'
p3677
S'in'
p3678
tp3679
F0.0006626905235255136
s(S'has'
p3680
S'played'
p3681
S'with'
p3682
tp3683
F0.0006626905235255136
s(S'currently'
p3684
S'lives'
p3685
S'between'
p3686
tp3687
F0.0006626905235255136
s(S'was'
p3688
S'living'
p3689
S'at'
p3690
tp3691
F0.0006626905235255136
s(S'had'
p3692
S'moved'
p3693
S'on'
p3694
tp3695
F0.0006626905235255136
s(S'again'
p3696
S'appointed'
p3697
S'of'
p3698
tp3699
F0.0006626905235255136
s(S'[[det]]'
p3700
g2706
g2707
tp3701
F0.0019880715705765406
s(S'[[adj]]'
p3702
S'professor'
p3703
S'in'
p3704
tp3705
F0.0006626905235255136
s(S'then'
p3706
S'joined'
p3707
S'[[con]]'
p3708
tp3709
F0.0006626905235255136
s(S'[[det]]'
p3710
S'director'
p3711
S'for'
p3712
tp3713
F0.0006626905235255136
s(S'then'
p3714
S'lived'
p3715
S'in'
p3716
tp3717
F0.0006626905235255136
s(S'is'
p3718
S'brought'
p3719
S'to'
p3720
tp3721
F0.0006626905235255136
s(S'[[num]]'
p3722
S'returned'
p3723
S'to'
p3724
tp3725
F0.0006626905235255136
s(S'is'
p3726
S'buried'
p3727
S'near'
p3728
tp3729
F0.0006626905235255136
s(S'became'
p3730
S'governor'
p3731
S'of'
p3732
tp3733
F0.0006626905235255136
s(S'then'
p3734
S'joined'
p3735
S'on'
p3736
tp3737
F0.0006626905235255136
s(S'born'
p3738
g1231
g1232
tp3739
F0.0006626905235255136
s(S'made'
p3740
S'professor'
p3741
S'at'
p3742
tp3743
F0.0006626905235255136
s(S'also'
p3744
S'works'
p3745
S'in'
p3746
tp3747
F0.0006626905235255136
s(S'has'
p3748
S'lived'
p3749
S'in'
p3750
tp3751
F0.0006626905235255136
s(S'then'
p3752
S'president'
p3753
S'of'
p3754
tp3755
F0.0006626905235255136
s(S'was'
p3756
S'graduated'
p3757
S'from'
p3758
tp3759
F0.0006626905235255136
s(S'currently'
p3760
S'serving'
p3761
S'in'
p3762
tp3763
F0.0006626905235255136
s(S'[[det]]'
p3764
S'city'
p3765
S'of'
p3766
tp3767
F0.0006626905235255136
s(S'was'
p3768
S'professor'
p3769
S'at'
p3770
tp3771
F0.0006626905235255136
s(S'has'
p3772
S'served'
p3773
S'where'
p3774
tp3775
F0.0006626905235255136
s(S'have'
p3776
S'arrived'
p3777
S'in'
p3778
tp3779
F0.0006626905235255136
s(S'is'
p3780
S'awarded'
p3781
S'by'
p3782
tp3783
F0.0006626905235255136
s(S'[[con]]'
p3784
S'mayor'
p3785
S'of'
p3786
tp3787
F0.0013253810470510272
s(S'[[con]]'
p3788
S'resides'
p3789
S'in'
p3790
tp3791
F0.0013253810470510272
s(S'[[adj]]'
p3792
S'serving'
p3793
S'in'
p3794
tp3795
F0.0006626905235255136
s(g1037
g419
g420
tp3796
F0.0006626905235255136
s(S'then'
p3797
S'worked'
p3798
S'before'
p3799
tp3800
F0.0006626905235255136
s(S'[[con]]'
p3801
S'served'
p3802
S'for'
p3803
tp3804
F0.0006626905235255136
s(S'soon'
p3805
S'moved'
p3806
S'to'
p3807
tp3808
F0.0006626905235255136
s(S'later'
p3809
S'played'
p3810
S'twice'
p3811
tp3812
F0.0006626905235255136
s(S'[[con]]'
p3813
S'based'
p3814
S'in'
p3815
tp3816
F0.0006626905235255136
s(g3151
g3606
S'from'
p3817
tp3818
F0.0013253810470510272
s(S'had'
p3819
S'worked'
p3820
S'in'
p3821
tp3822
F0.0006626905235255136
s(S'first'
p3823
S'joined'
p3824
S'[[con]]'
p3825
tp3826
F0.0006626905235255136
s(S'has'
p3827
g2724
g2725
tp3828
F0.0006626905235255136
s(S'[[num]]'
p3829
S'lived'
p3830
S'in'
p3831
tp3832
F0.0006626905235255136
s(S'is'
p3833
S'serving'
p3834
S'to'
p3835
tp3836
F0.0006626905235255136
s(S'when'
p3837
S'played'
p3838
S'for'
p3839
tp3840
F0.0006626905235255136
s(S'was'
p3841
S'appointed'
p3842
S'of'
p3843
tp3844
F0.0006626905235255136
s(S'[[con]]'
p3845
S'serving'
p3846
S'at'
p3847
tp3848
F0.0006626905235255136
s(S'then'
p3849
S'awarded'
p3850
S'[[det]]'
p3851
tp3852
F0.0006626905235255136
s(S'candidate'
p3853
S'in'
p3854
S'[[det]]'
p3855
tp3856
F0.0006626905235255136
s(S'[[con]]'
p3857
S'governor'
p3858
S'of'
p3859
tp3860
F0.0006626905235255136
s(S'was'
p3861
S'taken'
p3862
S'at'
p3863
tp3864
F0.0006626905235255136
s(S'was'
p3865
S'moved'
p3866
S'for'
p3867
tp3868
F0.0006626905235255136
s(S'is'
p3869
S'director'
p3870
S'at'
p3871
tp3872
F0.0006626905235255136
s(S'attended'
p3873
S'schools'
p3874
S'[[con]]'
p3875
tp3876
F0.0006626905235255136
s(S'nominated'
p3877
S'to'
p3878
g59
tp3879
F0.0006626905235255136
s(g89
S'raised'
p3880
S'in'
p3881
tp3882
F0.0013253810470510272
s(S'[[det]]'
p3883
g3853
g3854
tp3884
F0.0006626905235255136
s(S'[[adj]]'
p3885
S'played'
p3886
S'for'
p3887
tp3888
F0.0006626905235255136
s(S'had'
p3889
S'died'
p3890
S'in'
p3891
tp3892
F0.0006626905235255136
s(S'later'
p3893
S'worked'
p3894
S'for'
p3895
tp3896
F0.0006626905235255136
s(S'represents'
p3897
S'[[num]]'
p3898
g1020
tp3899
F0.0006626905235255136
s(S'also'
p3900
S'attended'
p3901
S'in'
p3902
tp3903
F0.0006626905235255136
s(S'be'
p3904
S'elected'
p3905
S'in'
p3906
tp3907
F0.0006626905235255136
s(S'[[con]]'
p3908
S'taken'
p3909
S'to'
p3910
tp3911
F0.0006626905235255136
s(S'then'
p3912
S'appointed'
p3913
S'for'
p3914
tp3915
F0.0006626905235255136
s(S'[[con]]'
p3916
S'joined'
p3917
S'at'
p3918
tp3919
F0.0006626905235255136
s(S'after'
p3920
S'played'
p3921
S'with'
p3922
tp3923
F0.0006626905235255136
s(S'[[det]]'
p3924
S'resident'
p3925
S'in'
p3926
tp3927
F0.0006626905235255136
s(S'is'
p3928
S'director'
p3929
S'of'
p3930
tp3931
F0.0006626905235255136
s(S'when'
p3932
S'relocated'
p3933
S'to'
p3934
tp3935
F0.0006626905235255136
s(S'has'
p3936
S'attended'
p3937
S'in'
p3938
tp3939
F0.0006626905235255136
s(S'won'
p3940
g776
g777
tp3941
F0.0006626905235255136
s(S'[[pro]]'
p3942
S'graduated'
p3943
S'from'
p3944
tp3945
F0.0006626905235255136
s(S'died'
p3946
g2608
g2609
tp3947
F0.0033134526176275677
s(S'also'
p3948
S'serves'
p3949
S'[[det]]'
p3950
tp3951
F0.0006626905235255136
s(S'later'
p3952
S'appointed'
p3953
S'[[det]]'
p3954
tp3955
F0.0006626905235255136
s(S'was'
p3956
S'appointed'
p3957
S'for'
p3958
tp3959
F0.0006626905235255136
s(S'[[num]]'
p3960
S'graduated'
p3961
S'from'
p3962
tp3963
F0.0006626905235255136
s(g42
g43
S'mayor'
p3964
tp3965
F0.0006626905235255136
s(S'[[det]]'
p3966
S'serving'
p3967
S'with'
p3968
tp3969
F0.0006626905235255136
s(S'to'
p3970
g594
g595
tp3971
F0.0013253810470510272
s(S'[[adj]]'
p3972
S'member'
p3973
S'in'
p3974
tp3975
F0.0006626905235255136
s(S'is'
p3976
S'named'
p3977
S'by'
p3978
tp3979
F0.0006626905235255136
s(S'[[adj]]'
p3980
S'served'
p3981
S'at'
p3982
tp3983
F0.0006626905235255136
s(S'[[adj]]'
p3984
S'member'
p3985
S'[[num]]'
p3986
tp3987
F0.0006626905235255136
s(S'also'
p3988
S'served'
p3989
S'[[num]]'
p3990
tp3991
F0.0006626905235255136
s(S'[[adj]]'
p3992
S'served'
p3993
S'for'
p3994
tp3995
F0.0006626905235255136
s(S'[[con]]'
p3996
S'served'
p3997
S'[[det]]'
p3998
tp3999
F0.0006626905235255136
s(S'born'
p4000
g1157
g1158
tp4001
F0.0013253810470510272
s(S'then'
p4002
S'defeated'
p4003
S'of'
p4004
tp4005
F0.0006626905235255136
s(S'[[adj]]'
p4006
S'member'
p4007
S'at'
p4008
tp4009
F0.0006626905235255136
s(S'later'
p4010
S'played'
p4011
S'[[con]]'
p4012
tp4013
F0.0006626905235255136
s(g3397
g3398
S'buried'
p4014
tp4015
F0.0006626905235255136
s(g1021
g1022
S'of'
p4016
tp4017
F0.0006626905235255136
s(S'formerly'
p4018
S'served'
p4019
S'in'
p4020
tp4021
F0.0006626905235255136
s(S'later'
p4022
S'attended'
p4023
S'at'
p4024
tp4025
F0.0006626905235255136
s(S'also'
p4026
S'member'
p4027
S'of'
p4028
tp4029
F0.0006626905235255136
s(S'currently'
p4030
S'professor'
p4031
S'of'
p4032
tp4033
F0.0006626905235255136
s(S'first'
p4034
S'appointed'
p4035
S'to'
p4036
tp4037
F0.0006626905235255136
s(S'had'
p4038
S'migrated'
p4039
S'to'
p4040
tp4041
F0.0006626905235255136
s(S'be'
p4042
S'elected'
p4043
S'mayor'
p4044
tp4045
F0.0006626905235255136
s(S'[[det]]'
p4046
S'member'
p4047
S'[[adj]]'
p4048
tp4049
F0.0006626905235255136
s(S'became'
p4050
S'mayor'
p4051
S'of'
p4052
tp4053
F0.0006626905235255136
s(S'been'
p4054
S'appointed'
p4055
S'of'
p4056
tp4057
F0.0006626905235255136
s(S'born'
p4058
S'[[num]]'
p4059
S'[[adj]]'
p4060
tp4061
F0.0006626905235255136
s(S'[[pro]]'
p4062
S'arrived'
p4063
S'in'
p4064
tp4065
F0.0006626905235255136
s(S'ever'
p4066
S'played'
p4067
S'for'
p4068
tp4069
F0.0006626905235255136
s(S'[[adj]]'
p4070
S'director'
p4071
S'[[con]]'
p4072
tp4073
F0.0006626905235255136
s(S'first'
p4074
S'represented'
p4075
S'for'
p4076
tp4077
F0.0006626905235255136
s(g3145
g3132
g3133
tp4078
F0.0006626905235255136
s(S'died'
p4079
g3282
g3283
tp4080
F0.0013253810470510272
s(S'[[con]]'
p4081
S'arrived'
p4082
S'in'
p4083
tp4084
F0.0006626905235255136
s(S'is'
p4085
S'serving'
p4086
S'as'
p4087
tp4088
F0.0006626905235255136
s(S'as'
p4089
S'moved'
p4090
S'to'
p4091
tp4092
F0.0006626905235255136
s(g1174
g1175
S'served'
p4093
tp4094
F0.0013253810470510272
s(g228
g229
g622
tp4095
F0.0006626905235255136
s(S'also'
p4096
S'worked'
p4097
S'[[con]]'
p4098
tp4099
F0.0006626905235255136
s(S'has'
p4100
S'lived'
p4101
S'[[con]]'
p4102
tp4103
F0.0006626905235255136
s(S'also'
p4104
S'appointed'
p4105
S'to'
p4106
tp4107
F0.0006626905235255136
s(S'is'
p4108
S'arrested'
p4109
S'in'
p4110
tp4111
F0.0006626905235255136
s(S'has'
p4112
S'played'
p4113
S'[[det]]'
p4114
tp4115
F0.0006626905235255136
s(S'is'
p4116
S'professor'
p4117
S'at'
p4118
tp4119
F0.0006626905235255136
s(S'soon'
p4120
S'returned'
p4121
S'to'
p4122
tp4123
F0.0006626905235255136
s(S'later'
p4124
S'served'
p4125
S'[[adj]]'
p4126
tp4127
F0.0006626905235255136
s(S'then'
p4128
S'played'
p4129
S'[[con]]'
p4130
tp4131
F0.0006626905235255136
s(g2545
g2546
S'mayor'
p4132
tp4133
F0.0006626905235255136
s(S'have'
p4134
S'died'
p4135
S'in'
p4136
tp4137
F0.0006626905235255136
s(S'be'
p4138
S'appointed'
p4139
S'to'
p4140
tp4141
F0.0006626905235255136
s(S'[[con]]'
p4142
S'member'
p4143
S'[[det]]'
p4144
tp4145
F0.0006626905235255136
s(S'who'
p4146
S'lived'
p4147
S'in'
p4148
tp4149
F0.0006626905235255136
s(S'then'
p4150
S'worked'
p4151
S'at'
p4152
tp4153
F0.0006626905235255136
s(S'was'
p4154
S'named'
p4155
S'to'
p4156
tp4157
F0.0006626905235255136
s(S'had'
p4158
S'served'
p4159
S'in'
p4160
tp4161
F0.0006626905235255136
s(S'be'
p4162
S'buried'
p4163
S'in'
p4164
tp4165
F0.0006626905235255136
s(S'[[det]]'
p4166
S'elected'
p4167
S'from'
p4168
tp4169
F0.0006626905235255136
s(S'was'
p4170
S'married'
p4171
S'at'
p4172
tp4173
F0.0006626905235255136
s(S'[[adj]]'
p4174
S'campaign'
p4175
S'[[num]]'
p4176
tp4177
F0.0006626905235255136
s(S'was'
p4178
S'moved'
p4179
S'after'
p4180
tp4181
F0.0006626905235255136
s(S'was'
p4182
S'elected'
p4183
S'in'
p4184
tp4185
F0.0006626905235255136
s(S'then'
p4186
S'worked'
p4187
S'in'
p4188
tp4189
F0.0006626905235255136
s(S'also'
p4190
S'worked'
p4191
S'from'
p4192
tp4193
F0.0006626905235255136
s(S'then'
p4194
S'defeated'
p4195
S'in'
p4196
tp4197
F0.0006626905235255136
s(S'[[det]]'
p4198
S'president'
p4199
S'in'
p4200
tp4201
F0.0006626905235255136
s(S'family'
p4202
g3805
g3806
tp4203
F0.0006626905235255136
s(S'[[num]]'
p4204
S'played'
p4205
S'at'
p4206
tp4207
F0.0006626905235255136
s(S'[[con]]'
p4208
S'joined'
p4209
S'[[adj]]'
p4210
tp4211
F0.0006626905235255136
s(S'[[det]]'
p4212
S'governor'
p4213
S'in'
p4214
tp4215
F0.0006626905235255136
s(S'born'
p4216
S'was'
p4217
S'raised'
p4218
tp4219
F0.0006626905235255136
s(S'run'
p4220
g748
g749
tp4221
F0.0006626905235255136
s(S'was'
p4222
S'professor'
p4223
S'[[con]]'
p4224
tp4225
F0.0006626905235255136
s(S'[[con]]'
p4226
S'serves'
p4227
S'on'
p4228
tp4229
F0.0006626905235255136
s(S'also'
p4230
S'worked'
p4231
S'[[det]]'
p4232
tp4233
F0.0006626905235255136
s(g1105
S'works'
p4234
S'in'
p4235
tp4236
F0.0006626905235255136
s(S'later'
p4237
S'returned'
p4238
S'to'
p4239
tp4240
F0.0006626905235255136
s(S'[[adj]]'
p4241
S'joined'
p4242
S'[[det]]'
p4243
tp4244
F0.0006626905235255136
s(S'[[con]]'
p4245
S'appointed'
p4246
S'of'
p4247
tp4248
F0.0006626905235255136
s(S'[[adj]]'
p4249
S'professor'
p4250
S'[[det]]'
p4251
tp4252
F0.0006626905235255136
s(S'became'
p4253
S'president'
p4254
S'[[det]]'
p4255
tp4256
F0.0006626905235255136
s(S'now'
p4257
S'resides'
p4258
S'in'
p4259
tp4260
F0.0013253810470510272
s(S'had'
p4261
S'relocated'
p4262
S'to'
p4263
tp4264
F0.0006626905235255136
s(S'was'
p4265
S'born'
p4266
S'currently'
p4267
tp4268
F0.0006626905235255136
s(S'been'
p4269
S'living'
p4270
S'in'
p4271
tp4272
F0.0006626905235255136
s(S'was'
p4273
S'director'
p4274
S'at'
p4275
tp4276
F0.0006626905235255136
s(g1105
S'home'
p4277
S'in'
p4278
tp4279
F0.0006626905235255136
s(g3427
g3428
S'between'
p4280
tp4281
F0.0006626905235255136
s(S'then'
p4282
S'moved'
p4283
S'back'
p4284
tp4285
F0.0006626905235255136
s(S'was'
p4286
S'professor'
p4287
S'for'
p4288
tp4289
F0.0006626905235255136
s(g2390
g2391
g2485
tp4290
F0.0006626905235255136
s(g1105
S'return'
p4291
S'in'
p4292
tp4293
F0.0006626905235255136
s(g464
g465
S'in'
p4294
tp4295
F0.0006626905235255136
s(g2943
g2944
S'moved'
p4296
tp4297
F0.0026507620941020544
s(S'was'
p4298
S'brought'
p4299
S'to'
p4300
tp4301
F0.0006626905235255136
s(g92
g93
g4202
tp4302
F0.0013253810470510272
s(S'been'
p4303
S'appointed'
p4304
S'for'
p4305
tp4306
F0.0006626905235255136
s(S'[[num]]'
p4307
S'joined'
p4308
S'[[det]]'
p4309
tp4310
F0.0006626905235255136
s(S'be'
p4311
S'educated'
p4312
S'in'
p4313
tp4314
F0.0006626905235255136
s(S'first'
p4315
S'came'
p4316
S'to'
p4317
tp4318
F0.0006626905235255136
s(S'[[con]]'
p4319
S'joined'
p4320
S'of'
p4321
tp4322
F0.0006626905235255136
s(S'died'
p4323
g207
g208
tp4324
F0.0006626905235255136
s(S'was'
p4325
S'mayor'
p4326
S'of'
p4327
tp4328
F0.0013253810470510272
s(S'later'
p4329
S'attended'
p4330
S'of'
p4331
tp4332
F0.0006626905235255136
s(S'has'
p4333
S'represented'
p4334
S'[[con]]'
p4335
tp4336
F0.0006626905235255136
s(S'later'
p4337
S'lived'
p4338
S'at'
p4339
tp4340
F0.0006626905235255136
s(S'[[adj]]'
p4341
S'campaign'
p4342
S'against'
p4343
tp4344
F0.0006626905235255136
s(S'[[con]]'
p4345
S'attended'
p4346
S'in'
p4347
tp4348
F0.0006626905235255136
s(S'later'
p4349
S'died'
p4350
S'[[con]]'
p4351
tp4352
F0.0006626905235255136
s(g2993
g2994
S'in'
p4353
tp4354
F0.0006626905235255136
s(S'then'
p4355
S'played'
p4356
S'for'
p4357
tp4358
F0.0006626905235255136
s(S'then'
p4359
S'served'
p4360
S'[[det]]'
p4361
tp4362
F0.0006626905235255136
s(S'later'
p4363
S'graduated'
p4364
S'from'
p4365
tp4366
F0.0006626905235255136
s(S'[[prp]]'
p4367
S'schooling'
p4368
S'in'
p4369
tp4370
F0.0006626905235255136
s(S'currently'
p4371
S'living'
p4372
S'in'
p4373
tp4374
F0.0006626905235255136
s(S'later'
p4375
S'played'
p4376
S'[[det]]'
p4377
tp4378
F0.0006626905235255136
s(S'died'
p4379
g859
g860
tp4380
F0.004638833664678595
s(S'be'
p4381
S'taken'
p4382
S'to'
p4383
tp4384
F0.0006626905235255136
s(S'made'
p4385
S'professor'
p4386
S'in'
p4387
tp4388
F0.0006626905235255136
s(S'was'
p4389
g2628
g2629
tp4390
F0.0006626905235255136
s(S'to'
p4391
S'played'
p4392
S'for'
p4393
tp4394
F0.0006626905235255136
s(S'where'
p4395
S'worked'
p4396
S'in'
p4397
tp4398
F0.0006626905235255136
s(S'was'
p4399
S'based'
p4400
S'in'
p4401
tp4402
F0.0006626905235255136
s(S'once'
p4403
S'played'
p4404
S'for'
p4405
tp4406
F0.0006626905235255136
s(S'has'
p4407
S'served'
p4408
S'to'
p4409
tp4410
F0.0006626905235255136
s(S'later'
p4411
S'worked'
p4412
S'[[con]]'
p4413
tp4414
F0.0006626905235255136
s(S'[[det]]'
p4415
g2644
g2134
tp4416
F0.0006626905235255136
s(S'before'
p4417
S'moving'
p4418
S'to'
p4419
tp4420
F0.0006626905235255136
s(S'born'
p4421
S'[[det]]'
p4422
S'village'
p4423
tp4424
F0.0019880715705765406
s(S'later'
p4425
S'served'
p4426
S'[[con]]'
p4427
tp4428
F0.0006626905235255136
s(S'was'
p4429
g3512
g3513
tp4430
F0.0006626905235255136
s(S'became'
p4431
S'member'
p4432
S'for'
p4433
tp4434
F0.0006626905235255136
s(S'never'
p4435
S'return'
p4436
S'to'
p4437
tp4438
F0.0006626905235255136
s(S'later'
p4439
S'joined'
p4440
S'in'
p4441
tp4442
F0.0006626905235255136
s(S'after'
p4443
S'living'
p4444
S'in'
p4445
tp4446
F0.0006626905235255136
s(S'lives'
p4447
g1397
g1398
tp4448
F0.0006626905235255136
s(S'was'
p4449
S'director'
p4450
S'for'
p4451
tp4452
F0.0006626905235255136
s(S'[[con]]'
p4453
S'worked'
p4454
S'[[con]]'
p4455
tp4456
F0.0006626905235255136
s(S'[[adj]]'
p4457
S'played'
p4458
S'on'
p4459
tp4460
F0.0006626905235255136
s(S'also'
p4461
S'serves'
p4462
S'for'
p4463
tp4464
F0.0006626905235255136
s(g60
g61
S'judge'
p4465
tp4466
F0.0006626905235255136
s(S'first'
p4467
S'represented'
p4468
S'[[det]]'
p4469
tp4470
F0.0006626905235255136
s(g2450
g2451
S'village'
p4471
tp4472
F0.0013253810470510272
s(S'[[det]]'
p4473
g3404
g3405
tp4474
F0.0013253810470510272
s(S'also'
p4475
S'appointed'
p4476
S'at'
p4477
tp4478
F0.0006626905235255136
s(S'moved'
p4479
S'with'
p4480
S'[[prp]]'
p4481
tp4482
F0.0013253810470510272
s(S'was'
p4483
S'named'
p4484
S'with'
p4485
tp4486
F0.0006626905235255136
s(S'was'
p4487
S'arrested'
p4488
S'in'
p4489
tp4490
F0.0006626905235255136
s(S'had'
p4491
S'played'
p4492
S'against'
p4493
tp4494
F0.0006626905235255136
s(S'served'
p4495
S'as'
p4496
S'mayor'
p4497
tp4498
F0.0019880715705765406
s(S'later'
p4499
S'played'
p4500
S'for'
p4501
tp4502
F0.0006626905235255136
s(g88
g89
g3880
tp4503
F0.0006626905235255136
s(S'as'
p4504
S'[[adj]]'
p4505
S'mayor'
p4506
tp4507
F0.0006626905235255136
s(S'then'
p4508
S'moving'
p4509
S'to'
p4510
tp4511
F0.0006626905235255136
s(S'[[det]]'
p4512
S'professor'
p4513
S'[[num]]'
p4514
tp4515
F0.0006626905235255136
s(S'also'
p4516
S'served'
p4517
S'until'
p4518
tp4519
F0.0006626905235255136
s(S'[[mod]]'
p4520
S'run'
p4521
S'for'
p4522
tp4523
F0.0006626905235255136
s(S'[[con]]'
p4524
S'played'
p4525
S'twice'
p4526
tp4527
F0.0006626905235255136
s(S'only'
p4528
S'played'
p4529
S'in'
p4530
tp4531
F0.0006626905235255136
s(S'then'
p4532
S'trained'
p4533
S'at'
p4534
tp4535
F0.0006626905235255136
s(S'not'
p4536
S'played'
p4537
S'for'
p4538
tp4539
F0.0006626905235255136
s(S'was'
p4540
S'awarded'
p4541
S'[[prp]]'
p4542
tp4543
F0.0006626905235255136
s(S'first'
p4544
S'joined'
p4545
S'[[det]]'
p4546
tp4547
F0.0006626905235255136
s(S'also'
p4548
S'appointed'
p4549
S'on'
p4550
tp4551
F0.0006626905235255136
s(S'[[prp]]'
p4552
S'campaign'
p4553
S'against'
p4554
tp4555
F0.0006626905235255136
s(S'then'
p4556
S'appointed'
p4557
S'[[adj]]'
p4558
tp4559
F0.0006626905235255136
s(S'attended'
p4560
g3700
g2706
tp4561
F0.0019880715705765406
s(S'[[con]]'
p4562
S'professor'
p4563
S'in'
p4564
tp4565
F0.0006626905235255136
s(S'has'
p4566
S'served'
p4567
S'at'
p4568
tp4569
F0.0006626905235255136
s(S'was'
p4570
S'trained'
p4571
S'in'
p4572
tp4573
F0.0006626905235255136
s(S'then'
p4574
S'married'
p4575
S'in'
p4576
tp4577
F0.0006626905235255136
s(S'was'
p4578
S'named'
p4579
S'as'
p4580
tp4581
F0.0006626905235255136
s(S'again'
p4582
S'worked'
p4583
S'for'
p4584
tp4585
F0.0006626905235255136
s(S'also'
p4586
S'named'
p4587
S'[[det]]'
p4588
tp4589
F0.0006626905235255136
s(S'been'
p4590
S'appointed'
p4591
S'in'
p4592
tp4593
F0.0006626905235255136
s(S'is'
p4594
S'appointed'
p4595
S'at'
p4596
tp4597
F0.0006626905235255136
s(S'has'
p4598
S'served'
p4599
S'on'
p4600
tp4601
F0.0006626905235255136
s(g180
g181
S'representing'
p4602
tp4603
F0.0006626905235255136
s(S'being'
p4604
S'appointed'
p4605
S'to'
p4606
tp4607
F0.0006626905235255136
s(S'then'
p4608
S'served'
p4609
S'in'
p4610
tp4611
F0.0006626905235255136
s(g93
g4202
g3805
tp4612
F0.0006626905235255136
s(S'now'
p4613
S'lives'
p4614
S'between'
p4615
tp4616
F0.0006626905235255136
s(g3898
g1020
g1021
tp4617
F0.0006626905235255136
s(S'later'
p4618
S'served'
p4619
S'for'
p4620
tp4621
F0.0006626905235255136
s(S'then'
p4622
S'worked'
p4623
S'[[con]]'
p4624
tp4625
F0.0006626905235255136
s(S'being'
p4626
S'appointed'
p4627
S'as'
p4628
tp4629
F0.0006626905235255136
s(S'who'
p4630
S'worked'
p4631
S'in'
p4632
tp4633
F0.0006626905235255136
s(S'later'
p4634
S'appointed'
p4635
S'[[pro]]'
p4636
tp4637
F0.0006626905235255136
s(S'died'
p4638
g3322
g3323
tp4639
F0.0013253810470510272
s(S'currently'
p4640
S'serving'
p4641
S'to'
p4642
tp4643
F0.0006626905235255136
s(S'first'
p4644
S'played'
p4645
S'against'
p4646
tp4647
F0.0006626905235255136
s(S'had'
p4648
S'played'
p4649
S'[[con]]'
p4650
tp4651
F0.0006626905235255136
s(S'died'
p4652
g1744
g1745
tp4653
F0.0006626905235255136
s(S'then'
p4654
S'joined'
p4655
S'in'
p4656
tp4657
F0.0006626905235255136
s(S'[[con]]'
p4658
S'grew'
p4659
S'up'
p4660
tp4661
F0.0006626905235255136
s(g1478
g3600
S'to'
p4662
tp4663
F0.0013253810470510272
s(g4480
g4481
S'family'
p4664
tp4665
F0.0013253810470510272
s(g2319
g2320
S'honor'
p4666
tp4667
F0.0006626905235255136
s(S'be'
p4668
S'returned'
p4669
S'to'
p4670
tp4671
F0.0006626905235255136
s(S'in'
p4672
g3400
g3401
tp4673
F0.0013253810470510272
s(g860
g861
S'near'
p4674
tp4675
F0.0006626905235255136
s(S'[[adj]]'
p4676
S'elected'
p4677
S'in'
p4678
tp4679
F0.0006626905235255136
s(S'later'
p4680
S'named'
p4681
S'[[det]]'
p4682
tp4683
F0.0006626905235255136
s(S'[[det]]'
p4684
S'member'
p4685
S'has'
p4686
tp4687
F0.0006626905235255136
s(S'again'
p4688
S'named'
p4689
S'[[det]]'
p4690
tp4691
F0.0006626905235255136
s(S'[[det]]'
p4692
S'director'
p4693
S'of'
p4694
tp4695
F0.0006626905235255136
s(S'also'
p4696
S'appointed'
p4697
S'[[det]]'
p4698
tp4699
F0.0006626905235255136
s(S'also'
p4700
S'represented'
p4701
S'[[det]]'
p4702
tp4703
F0.0006626905235255136
s(S'was'
p4704
S'played'
p4705
S'for'
p4706
tp4707
F0.0006626905235255136
s(S'[[adj]]'
p4708
S'director'
p4709
S'for'
p4710
tp4711
F0.0006626905235255136
s(S'[[adj]]'
p4712
S'governor'
p4713
S'[[det]]'
p4714
tp4715
F0.0006626905235255136
s(S'was'
p4716
S'professor'
p4717
S'[[num]]'
p4718
tp4719
F0.0006626905235255136
s(S'first'
p4720
S'came'
p4721
S'at'
p4722
tp4723
F0.0006626905235255136
s(S'[[adj]]'
p4724
S'resident'
p4725
S'of'
p4726
tp4727
F0.0006626905235255136
s(S'once'
p4728
S'played'
p4729
S'with'
p4730
tp4731
F0.0006626905235255136
s(S'[[num]]'
p4732
S'worked'
p4733
S'for'
p4734
tp4735
F0.0006626905235255136
s(S'[[adj]]'
p4736
S'educated'
p4737
S'in'
p4738
tp4739
F0.0006626905235255136
s(g4266
g4267
S'resides'
p4740
tp4741
F0.0006626905235255136
s(S'has'
p4742
S'joined'
p4743
S'[[det]]'
p4744
tp4745
F0.0006626905235255136
s(S'has'
p4746
S'worked'
p4747
S'[[det]]'
p4748
tp4749
F0.0006626905235255136
s(S'also'
p4750
S'served'
p4751
S'from'
p4752
tp4753
F0.0006626905235255136
s(S'was'
p4754
S'joined'
p4755
S'[[det]]'
p4756
tp4757
F0.0006626905235255136
s(S'[[con]]'
p4758
S'return'
p4759
S'to'
p4760
tp4761
F0.0006626905235255136
s(S'later'
p4762
S'played'
p4763
S'in'
p4764
tp4765
F0.0006626905235255136
s(S'[[con]]'
p4766
S'graduated'
p4767
S'at'
p4768
tp4769
F0.0006626905235255136
s(S'died'
p4770
S'was'
p4771
S'buried'
p4772
tp4773
F0.0006626905235255136
s(g1061
g1492
S'at'
p4774
tp4775
F0.0013253810470510272
s(g1105
S'return'
p4776
S'from'
p4777
tp4778
F0.0006626905235255136
s(S'first'
p4779
S'played'
p4780
S'with'
p4781
tp4782
F0.0006626905235255136
s(S'already'
p4783
S'played'
p4784
S'in'
p4785
tp4786
F0.0006626905235255136
s(S'had'
p4787
S'joined'
p4788
S'of'
p4789
tp4790
F0.0006626905235255136
s(S'[[con]]'
p4791
S'graduated'
p4792
S'from'
p4793
tp4794
F0.0006626905235255136
s(S'[[num]]'
p4795
S'professor'
p4796
S'at'
p4797
tp4798
F0.0006626905235255136
s(S'was'
p4799
S'working'
p4800
S'in'
p4801
tp4802
F0.0006626905235255136
s(S'[[adj]]'
p4803
S'serving'
p4804
S'as'
p4805
tp4806
F0.0006626905235255136
s(S'[[mod]]'
p4807
S'come'
p4808
S'to'
p4809
tp4810
F0.0006626905235255136
s(S'later'
p4811
S'died'
p4812
S'in'
p4813
tp4814
F0.0006626905235255136
s(S'was'
p4815
S'governor'
p4816
S'of'
p4817
tp4818
F0.0006626905235255136
s(S'became'
p4819
S'professor'
p4820
S'at'
p4821
tp4822
F0.0006626905235255136
s(S'had'
p4823
S'served'
p4824
S'as'
p4825
tp4826
F0.0006626905235255136
s(g982
g983
S'on'
p4827
tp4828
F0.0006626905235255136
s(S'currently'
p4829
S'serves'
p4830
S'as'
p4831
tp4832
F0.0006626905235255136
s(S'is'
p4833
S'appointed'
p4834
S'to'
p4835
tp4836
F0.0006626905235255136
s(S'been'
p4837
S'professor'
p4838
S'at'
p4839
tp4840
F0.0006626905235255136
s(S'also'
p4841
S'served'
p4842
S'on'
p4843
tp4844
F0.0006626905235255136
s(S'made'
p4845
S'governor'
p4846
S'of'
p4847
tp4848
F0.0006626905235255136
s(g1105
S'worked'
p4849
S'for'
p4850
tp4851
F0.0006626905235255136
s(S'[[adj]]'
p4852
S'director'
p4853
S'[[num]]'
p4854
tp4855
F0.0006626905235255136
s(S'later'
p4856
S'died'
p4857
S'at'
p4858
tp4859
F0.0006626905235255136
s(g1647
g1648
S'of'
p4860
tp4861
F0.0006626905235255136
s(S'also'
p4862
S'spent'
p4863
S'part'
p4864
tp4865
F0.0006626905235255136
s(S'then'
p4866
S'settled'
p4867
S'at'
p4868
tp4869
F0.0006626905235255136
s(S'until'
p4870
S'joined'
p4871
S'[[det]]'
p4872
tp4873
F0.0006626905235255136
s(S'was'
p4874
S'born'
p4875
S'moved'
p4876
tp4877
F0.0006626905235255136
s(S'[[det]]'
p4878
S'campaign'
p4879
S'against'
p4880
tp4881
F0.0006626905235255136
s(S'[[adj]]'
p4882
S'head'
p4883
S'in'
p4884
tp4885
F0.0006626905235255136
s(S'later'
p4886
S'worked'
p4887
S'in'
p4888
tp4889
F0.0006626905235255136
s(S'[[det]]'
p4890
S'professor'
p4891
S'of'
p4892
tp4893
F0.0006626905235255136
s(S'[[adj]]'
p4894
S'member'
p4895
S'for'
p4896
tp4897
F0.0006626905235255136
s(g61
g4465
S'of'
p4898
tp4899
F0.0006626905235255136
s(S'[[adj]]'
p4900
S'appointed'
p4901
S'to'
p4902
tp4903
F0.0006626905235255136
s(S'later'
p4904
S'served'
p4905
S'in'
p4906
tp4907
F0.0006626905235255136
s(g3878
g59
g60
tp4908
F0.0006626905235255136
s(S'[[mod]]'
p4909
g1036
g1037
tp4910
F0.0006626905235255136
s(S'currently'
p4911
S'serves'
p4912
S'at'
p4913
tp4914
F0.0006626905235255136
s(S'was'
p4915
S'moved'
p4916
S'back'
p4917
tp4918
F0.0006626905235255136
s(S'[[con]]'
p4919
S'appointed'
p4920
S'as'
p4921
tp4922
F0.0006626905235255136
s(S'later'
p4923
S'worked'
p4924
S'at'
p4925
tp4926
F0.0006626905235255136
s(g4059
g4060
S'mayor'
p4927
tp4928
F0.0006626905235255136
s(S'then'
p4929
S'director'
p4930
S'of'
p4931
tp4932
F0.0006626905235255136
s(S'later'
p4933
S'served'
p4934
S'at'
p4935
tp4936
F0.0006626905235255136
s(S'was'
p4937
S'elected'
p4938
S'mayor'
p4939
tp4940
F0.0013253810470510272
s(S'to'
p4941
g3616
g2974
tp4942
F0.0006626905235255136
s(S'later'
p4943
S'settled'
p4944
S'in'
p4945
tp4946
F0.0006626905235255136
s(S'later'
p4947
S'married'
p4948
S'in'
p4949
tp4950
F0.0006626905235255136
s(S'[[prp]]'
p4951
S'schooling'
p4952
S'from'
p4953
tp4954
F0.0006626905235255136
s(S'been'
p4955
S'appointed'
p4956
S'at'
p4957
tp4958
F0.0006626905235255136
s(S'has'
p4959
S'played'
p4960
S'[[con]]'
p4961
tp4962
F0.0006626905235255136
s(g1105
S'city'
p4963
S'of'
p4964
tp4965
F0.0006626905235255136
s(S'[[det]]'
p4966
S'mayor'
p4967
S'of'
p4968
tp4969
F0.0026507620941020544
s(S'served'
p4970
g4504
g4505
tp4971
F0.0006626905235255136
s(S'also'
p4972
S'played'
p4973
S'where'
p4974
tp4975
F0.0006626905235255136
s(S'[[adj]]'
p4976
S'head'
p4977
S'[[det]]'
p4978
tp4979
F0.0006626905235255136
s(S'was'
p4980
S'awarded'
p4981
S'of'
p4982
tp4983
F0.0006626905235255136
s(S'then'
p4984
S'returned'
p4985
S'where'
p4986
tp4987
F0.0006626905235255136
s(S'also'
p4988
S'served'
p4989
S'of'
p4990
tp4991
F0.0006626905235255136
s(S'sent'
p4992
S'home'
p4993
S'to'
p4994
tp4995
F0.0006626905235255136
s(S'then'
p4996
S'worked'
p4997
S'for'
p4998
tp4999
F0.0006626905235255136
s(S'again'
p5000
S'played'
p5001
S'for'
p5002
tp5003
F0.0006626905235255136
s.