(dp0
(S'[[adj]]'
p1
S'schools'
p2
S'for'
p3
tp4
F0.1
s(S'[[num]]'
p5
S'schools'
p6
S'[[con]]'
p7
tp8
F0.1
s(S'[[adj]]'
p9
S'schools'
p10
S'[[det]]'
p11
tp12
F0.1
s(S'[[adj]]'
p13
S'schools'
p14
S'in'
p15
tp16
F0.1
s(S'[[adj]]'
p17
S'schools'
p18
S'[[adj]]'
p19
tp20
F0.1
s(S'[[adj]]'
p21
S'schools'
p22
S'of'
p23
tp24
F0.1
s(S'[[adj]]'
p25
S'schools'
p26
S'as'
p27
tp28
F0.1
s(S'[[num]]'
p29
S'schools'
p30
S'in'
p31
tp32
F0.1
s(S'[[adj]]'
p33
S'schools'
p34
S'at'
p35
tp36
F0.1
s(S'[[num]]'
p37
S'schools'
p38
S'from'
p39
tp40
F0.1
s.