(dp0
(S'[[con]]'
p1
S'meets'
p2
S'[[det]]'
p3
tp4
F0.016666666666666666
s(S'[[con]]'
p5
S'runs'
p6
S'[[adj]]'
p7
tp8
F0.016666666666666666
s(S'also'
p9
S'meets'
p10
S'[[det]]'
p11
tp12
F0.016666666666666666
s(S'[[num]]'
p13
S'links'
p14
S'on'
p15
tp16
F0.016666666666666666
s(S'[[prp]]'
p17
S'[[det]]'
p18
S'combination'
p19
tp20
F0.03333333333333333
s(S'[[adj]]'
p21
S'road'
p22
S'between'
p23
tp24
F0.016666666666666666
s(S'also'
p25
S'runs'
p26
S'on'
p27
tp28
F0.016666666666666666
s(S'links'
p29
S'[[det]]'
p30
S'cities'
p31
tp32
F0.016666666666666666
s(S'be'
p33
S'extended'
p34
S'from'
p35
tp36
F0.016666666666666666
s(S'[[det]]'
p37
S'cities'
p38
S'of'
p39
tp40
F0.03333333333333333
s(S'be'
p41
S'extended'
p42
S'to'
p43
tp44
F0.016666666666666666
s(S'[[con]]'
p45
S'ends'
p46
S'at'
p47
tp48
F0.016666666666666666
s(S'also'
p49
S'connects'
p50
S'[[det]]'
p51
tp52
F0.016666666666666666
s(S'was'
p53
S'extended'
p54
S'to'
p55
tp56
F0.016666666666666666
s(S'[[adj]]'
p57
S'route'
p58
S'from'
p59
tp60
F0.016666666666666666
s(S'[[adj]]'
p61
S'route'
p62
S'between'
p63
tp64
F0.016666666666666666
s(S'where'
p65
S'meets'
p66
S'[[det]]'
p67
tp68
F0.016666666666666666
s(S'[[adj]]'
p69
S'road'
p70
S'[[con]]'
p71
tp72
F0.016666666666666666
s(S'[[adj]]'
p73
S'route'
p74
S'for'
p75
tp76
F0.016666666666666666
s(S'[[mod]]'
p77
S'operate'
p78
S'[[adj]]'
p79
tp80
F0.016666666666666666
s(S'[[adj]]'
p81
S'road'
p82
S'through'
p83
tp84
F0.016666666666666666
s(S'then'
p85
S'runs'
p86
S'[[con]]'
p87
tp88
F0.016666666666666666
s(S'[[adj]]'
p89
S'route'
p90
S'[[con]]'
p91
tp92
F0.016666666666666666
s(S'[[adj]]'
p93
S'cities'
p94
S'of'
p95
tp96
F0.03333333333333333
s(S'[[det]]'
p97
S'route'
p98
S'[[num]]'
p99
tp100
F0.016666666666666666
s(S'[[adj]]'
p101
S'links'
p102
S'to'
p103
tp104
F0.016666666666666666
s(S'was'
p105
S'extended'
p106
S'from'
p107
tp108
F0.016666666666666666
s(S'which'
p109
S'runs'
p110
S'from'
p111
tp112
F0.016666666666666666
s(g18
g19
S'of'
p113
tp114
F0.016666666666666666
s(S'passes'
p115
S'[[det]]'
p116
S'entrance'
p117
tp118
F0.016666666666666666
s(S'[[con]]'
p119
S'runs'
p120
S'between'
p121
tp122
F0.016666666666666666
s(S'[[det]]'
p123
g93
g94
tp124
F0.016666666666666666
s(S'that'
p125
S'connects'
p126
S'to'
p127
tp128
F0.016666666666666666
s(S'then'
p129
S'meets'
p130
S'[[det]]'
p131
tp132
F0.016666666666666666
s(S'[[det]]'
p133
S'route'
p134
S'of'
p135
tp136
F0.016666666666666666
s(S'[[con]]'
p137
S'connects'
p138
S'[[det]]'
p139
tp140
F0.016666666666666666
s(S'which'
p141
S'connects'
p142
S'[[det]]'
p143
tp144
F0.016666666666666666
s(S'to'
p145
S'cities'
p146
S'[[adj]]'
p147
tp148
F0.016666666666666666
s(S'[[adj]]'
p149
S'road'
p150
S'at'
p151
tp152
F0.016666666666666666
s(S'gets'
p153
g17
g18
tp154
F0.03333333333333333
s(S'connects'
p155
S'[[adj]]'
p156
S'cities'
p157
tp158
F0.016666666666666666
s(g116
g117
S'to'
p159
tp160
F0.016666666666666666
s(S'connects'
p161
g145
g146
tp162
F0.016666666666666666
s(g78
g79
S'connections'
p163
tp164
F0.016666666666666666
s(S'connects'
p165
g123
g93
tp166
F0.016666666666666666
s(S'connects'
p167
g37
g38
tp168
F0.016666666666666666
s(S'[[adj]]'
p169
S'route'
p170
S'to'
p171
tp172
F0.016666666666666666
s(S'[[det]]'
p173
S'road'
p174
S'which'
p175
tp176
F0.016666666666666666
s(S'[[num]]'
p177
S'runs'
p178
S'[[adj]]'
p179
tp180
F0.016666666666666666
s(S'[[con]]'
p181
S'connects'
p182
S'with'
p183
tp184
F0.016666666666666666
s(S'[[con]]'
p185
S'runs'
p186
S'through'
p187
tp188
F0.016666666666666666
s(S'[[adj]]'
p189
S'road'
p190
S'from'
p191
tp192
F0.016666666666666666
s(S'[[adj]]'
p193
S'route'
p194
S'of'
p195
tp196
F0.016666666666666666
s(S'[[num]]'
p197
S'runs'
p198
S'between'
p199
tp200
F0.016666666666666666
s(S'also'
p201
S'connects'
p202
S'to'
p203
tp204
F0.016666666666666666
s(S'[[det]]'
p205
S'road'
p206
S'from'
p207
tp208
F0.016666666666666666
s.