(dp0
(S'[[con]]'
p1
S'meets'
p2
S'[[det]]'
p3
tp4
F0.014705882352941176
s(S'[[con]]'
p5
S'runs'
p6
S'[[adj]]'
p7
tp8
F0.014705882352941176
s(S'also'
p9
S'meets'
p10
S'[[det]]'
p11
tp12
F0.014705882352941176
s(S'[[adj]]'
p13
S'route'
p14
S'[[con]]'
p15
tp16
F0.014705882352941176
s(S'which'
p17
S'connects'
p18
S'[[det]]'
p19
tp20
F0.014705882352941176
s(S'[[adj]]'
p21
S'thoroughfare'
p22
S'connecting'
p23
tp24
F0.014705882352941176
s(g22
g23
S'[[det]]'
p25
tp26
F0.014705882352941176
s(S'[[det]]'
p27
S'cities'
p28
S'of'
p29
tp30
F0.014705882352941176
s(S'[[adj]]'
p31
S'route'
p32
S'between'
p33
tp34
F0.014705882352941176
s(S'[[adj]]'
p35
S'route'
p36
S'to'
p37
tp38
F0.014705882352941176
s(S'[[det]]'
p39
S'city'
p40
S'of'
p41
tp42
F0.014705882352941176
s(S'also'
p43
S'connects'
p44
S'[[det]]'
p45
tp46
F0.014705882352941176
s(S'[[num]]'
p47
S'kilometres'
p48
S'[[con]]'
p49
tp50
F0.014705882352941176
s(S'[[num]]'
p51
S'links'
p52
S'on'
p53
tp54
F0.014705882352941176
s(S'[[adj]]'
p55
S'route'
p56
S'from'
p57
tp58
F0.014705882352941176
s(S'[[det]]'
p59
S'acronym'
p60
S'derived'
p61
tp62
F0.014705882352941176
s(S'[[adj]]'
p63
S'links'
p64
S'to'
p65
tp66
F0.014705882352941176
s(S'[[adj]]'
p67
S'road'
p68
S'[[con]]'
p69
tp70
F0.014705882352941176
s(S'[[adj]]'
p71
S'route'
p72
S'for'
p73
tp74
F0.014705882352941176
s(S'[[mod]]'
p75
S'operate'
p76
S'[[adj]]'
p77
tp78
F0.014705882352941176
s(g61
S'[[det]]'
p79
g21
tp80
F0.014705882352941176
s(S'connects'
p81
S'to'
p82
S'cities'
p83
tp84
F0.014705882352941176
s(g79
g21
g22
tp85
F0.014705882352941176
s(S'[[adj]]'
p86
S'cities'
p87
S'of'
p88
tp89
F0.029411764705882353
s(S'[[det]]'
p90
S'combination'
p91
S'of'
p92
tp93
F0.014705882352941176
s(S'[[det]]'
p94
S'route'
p95
S'[[num]]'
p96
tp97
F0.014705882352941176
s(g23
g25
S'[[num]]'
p98
tp99
F0.014705882352941176
s(S'[[adj]]'
p100
S'road'
p101
S'from'
p102
tp103
F0.014705882352941176
s(S'[[con]]'
p104
S'connects'
p105
S'with'
p106
tp107
F0.014705882352941176
s(S'then'
p108
S'passes'
p109
S'through'
p110
tp111
F0.014705882352941176
s(S'[[adj]]'
p112
S'city'
p113
S'with'
p114
tp115
F0.014705882352941176
s(S'runs'
p116
S'south'
p117
S'from'
p118
tp119
F0.014705882352941176
s(S'[[det]]'
p120
S'route'
p121
S'of'
p122
tp123
F0.014705882352941176
s(S'[[con]]'
p124
S'runs'
p125
S'between'
p126
tp127
F0.014705882352941176
s(g49
g116
g117
tp128
F0.014705882352941176
s(g60
g61
g79
tp129
F0.014705882352941176
s(g48
g49
g116
tp130
F0.014705882352941176
s(S'then'
p131
S'meets'
p132
S'[[det]]'
p133
tp134
F0.014705882352941176
s(S'[[prp]]'
p135
g90
g91
tp136
F0.029411764705882353
s(S'[[con]]'
p137
S'connects'
p138
S'[[det]]'
p139
tp140
F0.014705882352941176
s(S'[[num]]'
p141
S'runs'
p142
S'[[adj]]'
p143
tp144
F0.014705882352941176
s(g82
g83
S'[[adj]]'
p145
tp146
F0.014705882352941176
s(S'[[adj]]'
p147
S'road'
p148
S'between'
p149
tp150
F0.014705882352941176
s(S'[[adj]]'
p151
S'road'
p152
S'at'
p153
tp154
F0.014705882352941176
s(S'then'
p155
S'runs'
p156
S'[[con]]'
p157
tp158
F0.014705882352941176
s(S'gets'
p159
g135
g90
tp160
F0.029411764705882353
s(S'connects'
p161
S'[[adj]]'
p162
S'cities'
p163
tp164
F0.014705882352941176
s(S'then'
p165
S'runs'
p166
S'through'
p167
tp168
F0.014705882352941176
s(S'also'
p169
S'runs'
p170
S'on'
p171
tp172
F0.014705882352941176
s(S'[[adj]]'
p173
S'road'
p174
S'through'
p175
tp176
F0.014705882352941176
s(g76
g77
S'connections'
p177
tp178
F0.014705882352941176
s(S'[[det]]'
p179
g86
g87
tp180
F0.014705882352941176
s(g25
g98
S'cities'
p181
tp182
F0.014705882352941176
s(S'connects'
p183
g179
g86
tp184
F0.014705882352941176
s(S'connects'
p185
g27
g28
tp186
F0.014705882352941176
s(S'where'
p187
S'meets'
p188
S'[[det]]'
p189
tp190
F0.014705882352941176
s(S'[[det]]'
p191
S'road'
p192
S'which'
p193
tp194
F0.014705882352941176
s(S'which'
p195
S'runs'
p196
S'from'
p197
tp198
F0.014705882352941176
s(S'[[con]]'
p199
S'runs'
p200
S'through'
p201
tp202
F0.014705882352941176
s(S'that'
p203
S'connects'
p204
S'to'
p205
tp206
F0.014705882352941176
s(S'[[adj]]'
p207
S'route'
p208
S'of'
p209
tp210
F0.014705882352941176
s(S'which'
p211
S'runs'
p212
S'to'
p213
tp214
F0.014705882352941176
s(S'[[num]]'
p215
S'runs'
p216
S'between'
p217
tp218
F0.014705882352941176
s(S'also'
p219
S'connects'
p220
S'to'
p221
tp222
F0.014705882352941176
s(S'[[det]]'
p223
S'road'
p224
S'from'
p225
tp226
F0.014705882352941176
s.