(dp0
(S'owner'
p1
S'[[con]]'
p2
S'operator'
p3
tp4
F0.3333333333333333
s(S'[[con]]'
p5
S'operator'
p6
S'of'
p7
tp8
F0.16666666666666666
s(S'[[det]]'
p9
g1
g2
tp10
F0.3333333333333333
s(g2
g3
S'[[con]]'
p11
tp12
F0.16666666666666666
s.