(dp0
(S'to'
p1
S'design'
p2
S'[[det]]'
p3
tp4
F0.01639344262295082
s(S'[[mod]]'
p5
S'work'
p6
S'[[con]]'
p7
tp8
F0.01639344262295082
s(S'to'
p9
S'work'
p10
S'among'
p11
tp12
F0.01639344262295082
s(S'[[prp]]'
p13
S'work'
p14
S'to'
p15
tp16
F0.01639344262295082
s(S'to'
p17
S'work'
p18
S'together'
p19
tp20
F0.01639344262295082
s(S'to'
p21
S'work'
p22
S'[[con]]'
p23
tp24
F0.01639344262295082
s(S's'
p25
S'design'
p26
S'for'
p27
tp28
F0.01639344262295082
s(g25
S'work'
p29
S'of'
p30
tp31
F0.01639344262295082
s(S'then'
p32
S'returned'
p33
S'in'
p34
tp35
F0.01639344262295082
s(S'[[adj]]'
p36
S'work'
p37
S'[[det]]'
p38
tp39
F0.01639344262295082
s(S'[[con]]'
p40
S'stayed'
p41
S'in'
p42
tp43
F0.01639344262295082
s(g25
S'work'
p44
S'[[con]]'
p45
tp46
F0.01639344262295082
s(S'so'
p47
S'returned'
p48
S'to'
p49
tp50
F0.01639344262295082
s(S'soon'
p51
S'returned'
p52
S'to'
p53
tp54
F0.01639344262295082
s(S'also'
p55
S'designed'
p56
S'for'
p57
tp58
F0.01639344262295082
s(S'to'
p59
S'build'
p60
S'[[adj]]'
p61
tp62
F0.01639344262295082
s(S'had'
p63
S'returned'
p64
S'to'
p65
tp66
F0.01639344262295082
s(S'[[det]]'
p67
S'work'
p68
S'for'
p69
tp70
F0.01639344262295082
s(S'[[num]]'
p71
S'returned'
p72
S'to'
p73
tp74
F0.01639344262295082
s(S'also'
p75
S'designed'
p76
S'at'
p77
tp78
F0.01639344262295082
s(S'to'
p79
S'work'
p80
S'[[adj]]'
p81
tp82
F0.01639344262295082
s(S'had'
p83
S'stayed'
p84
S'in'
p85
tp86
F0.01639344262295082
s(S'[[adj]]'
p87
S'design'
p88
S'for'
p89
tp90
F0.01639344262295082
s(S'[[con]]'
p91
S'designed'
p92
S'[[det]]'
p93
tp94
F0.01639344262295082
s(S'[[mod]]'
p95
S'work'
p96
S'at'
p97
tp98
F0.01639344262295082
s(S'[[det]]'
p99
S'design'
p100
S'of'
p101
tp102
F0.01639344262295082
s(S'also'
p103
S'designed'
p104
S'in'
p105
tp106
F0.01639344262295082
s(S'to'
p107
S'build'
p108
S'[[det]]'
p109
tp110
F0.01639344262295082
s(S'to'
p111
S'build'
p112
S'[[prp]]'
p113
tp114
F0.01639344262295082
s(S'has'
p115
S'designed'
p116
S'[[adj]]'
p117
tp118
F0.01639344262295082
s(S'also'
p119
S'designed'
p120
S'[[adj]]'
p121
tp122
F0.01639344262295082
s(S'[[mod]]'
p123
S'work'
p124
S'again'
p125
tp126
F0.01639344262295082
s(S'continue'
p127
S'designing'
p128
S'[[det]]'
p129
tp130
F0.01639344262295082
s(g25
S'work'
p131
S'at'
p132
tp133
F0.01639344262295082
s(S'[[adj]]'
p134
S'returned'
p135
S'to'
p136
tp137
F0.01639344262295082
s(S'[[prp]]'
p138
S'work'
p139
S'on'
p140
tp141
F0.01639344262295082
s(S'to'
p142
S'work'
p143
S'at'
p144
tp145
F0.01639344262295082
s(S'[[adj]]'
p146
S'work'
p147
S'[[con]]'
p148
tp149
F0.01639344262295082
s(g25
S'work'
p150
S'in'
p151
tp152
F0.01639344262295082
s(S'just'
p153
S'returned'
p154
S'from'
p155
tp156
F0.01639344262295082
s(S'also'
p157
S'designed'
p158
S'[[det]]'
p159
tp160
F0.01639344262295082
s(S'later'
p161
S'work'
p162
S'with'
p163
tp164
F0.01639344262295082
s(S'[[pro]]'
p165
S'returned'
p166
S'to'
p167
tp168
F0.01639344262295082
s(S'found'
p169
S'work'
p170
S'at'
p171
tp172
F0.01639344262295082
s(g25
S'design'
p173
S'of'
p174
tp175
F0.01639344262295082
s(S'was'
p176
S'returned'
p177
S'in'
p178
tp179
F0.01639344262295082
s(S'to'
p180
S'work'
p181
S'on'
p182
tp183
F0.01639344262295082
s(S'again'
p184
S'returned'
p185
S'to'
p186
tp187
F0.01639344262295082
s(S'[[mod]]'
p188
g127
g128
tp189
F0.01639344262295082
s(S'also'
p190
S'designed'
p191
S'[[num]]'
p192
tp193
F0.01639344262295082
s(S'has'
p194
S'designed'
p195
S'for'
p196
tp197
F0.01639344262295082
s(S'had'
p198
S'designed'
p199
S'[[det]]'
p200
tp201
F0.01639344262295082
s(S'[[det]]'
p202
S'returned'
p203
S'to'
p204
tp205
F0.01639344262295082
s(S'[[con]]'
p206
S'returned'
p207
S'in'
p208
tp209
F0.01639344262295082
s(g25
S'work'
p210
S'on'
p211
tp212
F0.01639344262295082
s(S'[[prp]]'
p213
S'work'
p214
S'in'
p215
tp216
F0.01639344262295082
s(S'also'
p217
S'designed'
p218
S'[[con]]'
p219
tp220
F0.01639344262295082
s(S'which'
p221
S'returned'
p222
S'to'
p223
tp224
F0.01639344262295082
s(S'[[con]]'
p225
S'returned'
p226
S'to'
p227
tp228
F0.01639344262295082
s(S'to'
p229
S'work'
p230
S'[[num]]'
p231
tp232
F0.01639344262295082
s(S'[[prp]]'
p233
S'work'
p234
S'[[adj]]'
p235
tp236
F0.01639344262295082
s.