(dp0
(S'[[adj]]'
p1
S'river'
p2
S'[[adj]]'
p3
tp4
F0.14285714285714285
s(S'[[adj]]'
p5
S'river'
p6
S'in'
p7
tp8
F0.14285714285714285
s(g6
g7
S'[[adj]]'
p9
tp10
F0.14285714285714285
s(g3
S'portion'
p11
S'of'
p12
tp13
F0.2857142857142857
s(g7
g9
S'portion'
p14
tp15
F0.14285714285714285
s(g2
g3
g11
tp16
F0.14285714285714285
s.