(dp0
(S'begins'
p1
S'at'
p2
S'[[det]]'
p3
tp4
F0.08571428571428572
s(g3
S'junction'
p5
S'of'
p6
tp7
F0.02857142857142857
s(S'[[det]]'
p8
S'slopes'
p9
S'of'
p10
tp11
F0.02857142857142857
s(S'rises'
p12
S'in'
p13
S'[[adj]]'
p14
tp15
F0.02857142857142857
s(S'on'
p16
S'[[adj]]'
p17
S'slopes'
p18
tp19
F0.02857142857142857
s(S'from'
p20
S'[[det]]'
p21
S'confluence'
p22
tp23
F0.02857142857142857
s(S'[[det]]'
p24
S'confluence'
p25
S'[[con]]'
p26
tp27
F0.05714285714285714
s(S'[[det]]'
p28
S'confluence'
p29
S'of'
p30
tp31
F0.11428571428571428
s(S'formed'
p32
g20
g21
tp33
F0.02857142857142857
s(g17
g18
S'of'
p34
tp35
F0.05714285714285714
s(S'by'
p36
g24
g25
tp37
F0.05714285714285714
s(S'formed'
p38
g36
g24
tp39
F0.05714285714285714
s(S'formed'
p40
S'at'
p41
g28
tp42
F0.02857142857142857
s(g41
g28
g29
tp43
F0.08571428571428572
s(S'rises'
p44
g16
g17
tp45
F0.02857142857142857
s(g2
g3
g5
tp46
F0.02857142857142857
s(S'[[adj]]'
p47
S'tributaries'
p48
S'of'
p49
tp50
F0.02857142857142857
s(S'rises'
p51
S'on'
p52
g8
tp53
F0.02857142857142857
s(S'is'
p54
g40
g41
tp55
F0.02857142857142857
s(S'is'
p56
g38
g36
tp57
F0.05714285714285714
s(S'is'
p58
g32
g20
tp59
F0.02857142857142857
s(g52
g8
g9
tp60
F0.02857142857142857
s(g13
g14
S'slopes'
p61
tp62
F0.02857142857142857
s.