(dp0
(S'now'
p1
S'located'
p2
S'in'
p3
tp4
F0.0019801980198019802
s(S'[[adj]]'
p5
S'settlement'
p6
S'in'
p7
tp8
F0.0019801980198019802
s(S'board'
p9
S'in'
p10
S'[[det]]'
p11
tp12
F0.0019801980198019802
s(S'town'
p13
S'[[con]]'
p14
S'[[det]]'
p15
tp16
F0.0039603960396039604
s(S'[[adj]]'
p17
S'school'
p18
S'[[det]]'
p19
tp20
F0.0039603960396039604
s(S'is'
p21
S'established'
p22
S'at'
p23
tp24
F0.0019801980198019802
s(S'was'
p25
S'founded'
p26
S'on'
p27
tp28
F0.0019801980198019802
s(S'of'
p29
S'[[det]]'
p30
S'located'
p31
tp32
F0.0019801980198019802
s(S'[[det]]'
p33
S'largest'
p34
S'city'
p35
tp36
F0.005940594059405941
s(S'are'
p37
S'located'
p38
S'in'
p39
tp40
F0.0019801980198019802
s(S'[[adj]]'
p41
S'based'
p42
S'in'
p43
tp44
F0.0019801980198019802
s(S'[[det]]'
p45
S'capital'
p46
S'of'
p47
tp48
F0.0019801980198019802
s(S'[[adj]]'
p49
S'towns'
p50
S'in'
p51
tp52
F0.0039603960396039604
s(S'town'
p53
S'[[adj]]'
p54
S'towns'
p55
tp56
F0.0019801980198019802
s(S'miles'
p57
S'including'
p58
S'what'
p59
tp60
F0.0039603960396039604
s(S'contained'
p61
S'[[num]]'
p62
S'states'
p63
tp64
F0.0019801980198019802
s(S'village'
p65
S'located'
p66
S'[[adj]]'
p67
tp68
F0.0019801980198019802
s(S'[[adj]]'
p69
S'research'
p70
S'university'
p71
tp72
F0.0039603960396039604
s(S'[[det]]'
p73
S'state'
p74
S'capital'
p75
tp76
F0.0019801980198019802
s(S'[[det]]'
p77
S'river'
p78
S'in'
p79
tp80
F0.0019801980198019802
s(S'[[con]]'
p81
S'[[adj]]'
p82
g9
tp83
F0.0019801980198019802
s(S'[[det]]'
p84
S'school'
p85
S'in'
p86
tp87
F0.0019801980198019802
s(S'in'
p88
S'[[det]]'
p89
S'city'
p90
tp91
F0.0039603960396039604
s(S'district'
p92
S'[[det]]'
p93
S'state'
p94
tp95
F0.0019801980198019802
s(S'largest'
p96
S'[[adj]]'
p97
S'school'
p98
tp99
F0.005940594059405941
s(S'[[adj]]'
p100
S'municipality'
p101
S'of'
p102
tp103
F0.0019801980198019802
s(S'[[adj]]'
p104
S'located'
p105
S'in'
p106
tp107
F0.0019801980198019802
s(S'[[adj]]'
p108
S'state'
p109
S'of'
p110
tp111
F0.0019801980198019802
s(S'[[adj]]'
p112
S'village'
p113
S'situated'
p114
tp115
F0.0019801980198019802
s(S'[[adj]]'
p116
S'constituency'
p117
S'of'
p118
tp119
F0.0019801980198019802
s(S'law'
p120
S'school'
p121
S'located'
p122
tp123
F0.0019801980198019802
s(S'[[det]]'
p124
S'constituency'
p125
S'[[det]]'
p126
tp127
F0.0019801980198019802
s(S'was'
p128
S'located'
p129
S'in'
p130
tp131
F0.0019801980198019802
s(S'[[det]]'
p132
S'founded'
p133
S'in'
p134
tp135
F0.0019801980198019802
s(S'school'
p136
S'in'
p137
S'[[det]]'
p138
tp139
F0.0019801980198019802
s(S's'
p140
S'located'
p141
S'near'
p142
tp143
F0.0019801980198019802
s(S'[[adj]]'
p144
S'school'
p145
S'located'
p146
tp147
F0.013861386138613862
s(S'lt'
p148
S'[[num]]'
p149
S'gt'
p150
tp151
F0.0019801980198019802
s(S'charter'
p152
S'school'
p153
S'in'
p154
tp155
F0.0019801980198019802
s(g15
S'community'
p156
S'development'
p157
tp158
F0.0019801980198019802
s(S'[[det]]'
p159
g120
g121
tp160
F0.0019801980198019802
s(S'[[det]]'
p161
S'center'
p162
S'in'
p163
tp164
F0.0019801980198019802
s(S'town'
p165
S'situated'
p166
S'just'
p167
tp168
F0.0019801980198019802
s(S'[[adj]]'
p169
S'oldest'
p170
S'university'
p171
tp172
F0.0019801980198019802
s(S'community'
p173
S'college'
p174
S'in'
p175
tp176
F0.0019801980198019802
s(S'forms'
p177
S'[[det]]'
p178
S'boundary'
p179
tp180
F0.005940594059405941
s(S'[[adj]]'
p181
S'largest'
p182
S'city'
p183
tp184
F0.0039603960396039604
s(S'[[det]]'
p185
S'tehsil'
p186
S'[[det]]'
p187
tp188
F0.0019801980198019802
s(S'is'
p189
S'located'
p190
S'of'
p191
tp192
F0.0019801980198019802
s(S'[[adj]]'
p193
S'municipality'
p194
S'in'
p195
tp196
F0.0039603960396039604
s(S'[[num]]'
p197
S'cities'
p198
S'in'
p199
tp200
F0.0019801980198019802
s(S'[[adj]]'
p201
S'cities'
p202
S'in'
p203
tp204
F0.005940594059405941
s(S'[[det]]'
p205
S'college'
p206
S'located'
p207
tp208
F0.0019801980198019802
s(S'[[adj]]'
p209
S'university'
p210
S'[[det]]'
p211
tp212
F0.0019801980198019802
s(g82
g9
g10
tp213
F0.0019801980198019802
s(S'forms'
p214
S'[[det]]'
p215
S'[[adj]]'
p216
tp217
F0.0019801980198019802
s(S'[[adj]]'
p218
S'mountain'
p219
S'range'
p220
tp221
F0.005940594059405941
s(S'[[adj]]'
p222
S'city'
p223
S'in'
p224
tp225
F0.0039603960396039604
s(S'university'
p226
S'based'
p227
S'in'
p228
tp229
F0.0039603960396039604
s(S'[[con]]'
p230
S'[[adj]]'
p231
S'territories'
p232
tp233
F0.0019801980198019802
s(S'was'
p234
S'founded'
p235
S'[[num]]'
p236
tp237
F0.0019801980198019802
s(S'colleges'
p238
S'in'
p239
S'[[det]]'
p240
tp241
F0.0019801980198019802
s(g70
g71
S'located'
p242
tp243
F0.0019801980198019802
s(g59
S'today'
p244
S'[[det]]'
p245
tp246
F0.0039603960396039604
s(S'[[det]]'
p247
g152
g153
tp248
F0.0019801980198019802
s(S'[[det]]'
p249
S'located'
p250
S'in'
p251
tp252
F0.005940594059405941
s(S'was'
p253
S'founded'
p254
S'in'
p255
tp256
F0.0019801980198019802
s(S'[[det]]'
p257
S'largest'
p258
S'[[adj]]'
p259
tp260
F0.005940594059405941
s(S'typically'
p261
S'[[adj]]'
p262
S'states'
p263
tp264
F0.0019801980198019802
s(S'[[det]]'
p265
S'headquarters'
p266
S'in'
p267
tp268
F0.0019801980198019802
s(S'[[adj]]'
p269
S'known'
p270
S'[[det]]'
p271
tp272
F0.0019801980198019802
s(S'towns'
p273
g148
g149
tp274
F0.0039603960396039604
s(S'[[num]]'
p275
S'universities'
p276
S'in'
p277
tp278
F0.0019801980198019802
s(S'[[adj]]'
p279
S'gt'
p280
S'in'
p281
tp282
F0.0019801980198019802
s(S'capital'
p283
S'[[det]]'
p284
g108
tp285
F0.0019801980198019802
s(S'village'
p286
S'located'
p287
S'in'
p288
tp289
F0.0039603960396039604
s(g58
g59
g244
tp290
F0.0039603960396039604
s(S'[[det]]'
p291
S'panchayat'
p292
S'in'
p293
tp294
F0.0019801980198019802
s(S'[[det]]'
p295
S'assembly'
p296
S'constituency'
p297
tp298
F0.0019801980198019802
s(S'district'
p299
S'of'
p300
S'state'
p301
tp302
F0.0019801980198019802
s(g149
g150
S'in'
p303
tp304
F0.0019801980198019802
s(S'[[det]]'
p305
S'river'
p306
S'[[det]]'
p307
tp308
F0.0019801980198019802
s(g74
g75
S'of'
p309
tp310
F0.0019801980198019802
s(S'was'
p311
S'established'
p312
S'at'
p313
tp314
F0.0019801980198019802
s(S'[[det]]'
p315
S'village'
p316
S'in'
p317
tp318
F0.0019801980198019802
s(S'historically'
p319
S'[[adj]]'
p320
S'university'
p321
tp322
F0.0019801980198019802
s(g245
S'states'
p323
S'as'
p324
tp325
F0.0019801980198019802
s(S'school'
p326
S'[[det]]'
p327
S'located'
p328
tp329
F0.0019801980198019802
s(S'[[adj]]'
p330
S'biggest'
p331
S'town'
p332
tp333
F0.0019801980198019802
s(S'to'
p334
g201
g202
tp335
F0.005940594059405941
s(S'became'
p336
S'[[adj]]'
p337
S'producer'
p338
tp339
F0.0019801980198019802
s(S'[[det]]'
p340
S'municipality'
p341
S'in'
p342
tp343
F0.0039603960396039604
s(S'university'
p344
S'founded'
p345
S'in'
p346
tp347
F0.0019801980198019802
s(S'mountain'
p348
S'range'
p349
S'located'
p350
tp351
F0.0019801980198019802
s(S'[[adj]]'
p352
S'hospital'
p353
S'located'
p354
tp355
F0.0019801980198019802
s(S'[[det]]'
p356
S'capital'
p357
S'in'
p358
tp359
F0.0019801980198019802
s(S'[[adj]]'
p360
S'cities'
p361
S'of'
p362
tp363
F0.0039603960396039604
s(S'[[det]]'
p364
S'engineering'
p365
S'college'
p366
tp367
F0.0019801980198019802
s(S'capital'
p368
S'[[det]]'
p369
S'state'
p370
tp371
F0.0019801980198019802
s(S'college'
p372
g29
g30
tp373
F0.0019801980198019802
s(S'state'
p374
S'park'
p375
S'in'
p376
tp377
F0.0039603960396039604
s(S'is'
p378
S'situated'
p379
S'in'
p380
tp381
F0.0019801980198019802
s(S'census'
p382
S'town'
p383
S'in'
p384
tp385
F0.0019801980198019802
s(S'[[adj]]'
p386
g96
g97
tp387
F0.0019801980198019802
s(S'[[adj]]'
p388
g273
g148
tp389
F0.0039603960396039604
s(S'[[adj]]'
p390
S'university'
p391
S'in'
p392
tp393
F0.0039603960396039604
s(S'[[prp]]'
p394
S'home'
p395
S'games'
p396
tp397
F0.0039603960396039604
s(S'[[det]]'
p398
g173
g174
tp399
F0.0019801980198019802
s(S'[[det]]'
p400
S'state'
p401
S'park'
p402
tp403
F0.005940594059405941
s(S'was'
p404
S'opened'
p405
S'in'
p406
tp407
F0.0019801980198019802
s(S'also'
p408
S'connected'
p409
g334
tp410
F0.0019801980198019802
s(g34
g35
S'of'
p411
tp412
F0.0039603960396039604
s(S'district'
p413
S'in'
p414
S'[[det]]'
p415
tp416
F0.0039603960396039604
s(S'[[det]]'
p417
S'district'
p418
S'in'
p419
tp420
F0.0019801980198019802
s(S'state'
p421
S'school'
p422
S'in'
p423
tp424
F0.0019801980198019802
s(g296
g297
S'in'
p425
tp426
F0.0019801980198019802
s(S'[[num]]'
p427
S'schools'
p428
S'in'
p429
tp430
F0.0019801980198019802
s(S'[[adj]]'
p431
S'range'
p432
S'in'
p433
tp434
F0.0019801980198019802
s(S'school'
p435
S'located'
p436
S'near'
p437
tp438
F0.0019801980198019802
s(S'[[adj]]'
p439
S'park'
p440
S'in'
p441
tp442
F0.0019801980198019802
s(S'[[det]]'
p443
S'town'
p444
S'[[adj]]'
p445
tp446
F0.0019801980198019802
s(S'town'
p447
S'in'
p448
S'[[det]]'
p449
tp450
F0.0019801980198019802
s(S'census'
p451
S'town'
p452
S'under'
p453
tp454
F0.0019801980198019802
s(g323
g324
S'portions'
p455
tp456
F0.0019801980198019802
s(S'was'
p457
S'located'
p458
S'[[adj]]'
p459
tp460
F0.0019801980198019802
s(S'largest'
p461
S'city'
p462
S'on'
p463
tp464
F0.0019801980198019802
s(S'town'
p465
S'situated'
p466
S'in'
p467
tp468
F0.0019801980198019802
s(g266
g267
S'[[det]]'
p469
tp470
F0.0039603960396039604
s(S'[[det]]'
p471
S'river'
p472
S'on'
p473
tp474
F0.0019801980198019802
s(S'flows'
p475
S'through'
p476
S'[[det]]'
p477
tp478
F0.0019801980198019802
s(S'[[det]]'
p479
S'village'
p480
S'located'
p481
tp482
F0.009900990099009901
s(S'city'
p483
S'[[con]]'
p484
S'[[det]]'
p485
tp486
F0.0019801980198019802
s(g297
g425
S'[[det]]'
p487
tp488
F0.0019801980198019802
s(S'[[det]]'
p489
g421
g422
tp490
F0.0019801980198019802
s(g484
g485
S'state'
p491
tp492
F0.0019801980198019802
s(S'was'
p493
S'established'
p494
S'[[num]]'
p495
tp496
F0.0019801980198019802
s(S'[[det]]'
p497
S'mountain'
p498
S'range'
p499
tp500
F0.007920792079207921
s(g215
g216
S'boundary'
p501
tp502
F0.0019801980198019802
s(g331
g332
S'in'
p503
tp504
F0.0019801980198019802
s(S'[[det]]'
p505
S'river'
p506
S'of'
p507
tp508
F0.0019801980198019802
s(S'town'
p509
g81
g82
tp510
F0.0039603960396039604
s(S'[[adj]]'
p511
g413
g414
tp512
F0.0039603960396039604
s(S'well'
p513
S'connected'
p514
S'to'
p515
tp516
F0.005940594059405941
s(S'[[det]]'
p517
S'states'
p518
S'of'
p519
tp520
F0.0039603960396039604
s(g178
g179
S'with'
p521
tp522
F0.0019801980198019802
s(S'[[adj]]'
p523
S'town'
p524
S'of'
p525
tp526
F0.0019801980198019802
s(S'[[det]]'
p527
S'range'
p528
S'in'
p529
tp530
F0.0019801980198019802
s(S'mountain'
p531
S'range'
p532
S'in'
p533
tp534
F0.0039603960396039604
s(S'[[adj]]'
p535
S'gt'
p536
S'list'
p537
tp538
F0.0019801980198019802
s(g284
g108
g109
tp539
F0.0019801980198019802
s(S'also'
p540
S'located'
p541
S'in'
p542
tp543
F0.0019801980198019802
s(S'is'
p544
S'located'
p545
S'in'
p546
tp547
F0.0039603960396039604
s(S'districts'
p548
S'in'
p549
S'[[det]]'
p550
tp551
F0.0019801980198019802
s(S'[[adj]]'
p552
S'capital'
p553
S'of'
p554
tp555
F0.0019801980198019802
s(g353
g354
S'in'
p556
tp557
F0.0039603960396039604
s(S'[[det]]'
p558
S'center'
p559
S'[[con]]'
p560
tp561
F0.0019801980198019802
s(S'[[num]]'
p562
S'established'
p563
S'in'
p564
tp565
F0.0019801980198019802
s(S'[[adj]]'
p566
S'universities'
p567
S'of'
p568
tp569
F0.0019801980198019802
s(g140
S'located'
p570
S'in'
p571
tp572
F0.0019801980198019802
s(S'[[adj]]'
p573
S'boundary'
p574
S'of'
p575
tp576
F0.0019801980198019802
s(S'suburb'
p577
S'[[det]]'
p578
S'city'
p579
tp580
F0.0019801980198019802
s(S'[[adj]]'
p581
S'school'
p582
S'in'
p583
tp584
F0.009900990099009901
s(S'station'
p585
g535
g536
tp586
F0.0019801980198019802
s(S'school'
p587
S'located'
p588
S'in'
p589
tp590
F0.009900990099009901
s(S'city'
p591
S'limits'
p592
S'of'
p593
tp594
F0.0019801980198019802
s(S'cantonment'
p595
g447
g448
tp596
F0.0019801980198019802
s(S'[[con]]'
p597
g185
g186
tp598
F0.0019801980198019802
s(S'[[det]]'
p599
S'township'
p600
S'in'
p601
tp602
F0.0019801980198019802
s(S'city'
p603
S'in'
p604
S'[[det]]'
p605
tp606
F0.0039603960396039604
s(S'be'
p607
S'established'
p608
S'in'
p609
tp610
F0.0019801980198019802
s(S'[[adj]]'
p611
S'river'
p612
S'of'
p613
tp614
F0.0019801980198019802
s(S'located'
p615
S'within'
p616
S'[[det]]'
p617
tp618
F0.0019801980198019802
s(S'[[adj]]'
p619
S'arts'
p620
S'college'
p621
tp622
F0.0019801980198019802
s(S'[[det]]'
p623
S'college'
p624
S'[[det]]'
p625
tp626
F0.0019801980198019802
s(S'was'
p627
S'established'
p628
S'in'
p629
tp630
F0.0019801980198019802
s(S'[[num]]'
p631
S'places'
p632
S'in'
p633
tp634
F0.0019801980198019802
s(S'located'
p635
g88
g89
tp636
F0.0039603960396039604
s(g396
S'in'
p637
S'[[det]]'
p638
tp639
F0.0019801980198019802
s(S'is'
p640
S'established'
p641
S'in'
p642
tp643
F0.0019801980198019802
s(S'[[det]]'
p644
S'hospital'
p645
S'located'
p646
tp647
F0.0019801980198019802
s(S'now'
p648
S'located'
p649
S'at'
p650
tp651
F0.0019801980198019802
s(S'is'
p652
S'located'
p653
S'[[det]]'
p654
tp655
F0.0019801980198019802
s(S'[[det]]'
p656
S'largest'
p657
S'[[con]]'
p658
tp659
F0.0019801980198019802
s(g620
g621
S'in'
p660
tp661
F0.0019801980198019802
s(S'[[det]]'
p662
S'[[adj]]'
p663
g57
tp664
F0.0039603960396039604
s(S'had'
p665
S'added'
p666
g662
tp667
F0.0039603960396039604
s(S'[[adj]]'
p668
S'south'
p669
S'into'
p670
tp671
F0.0019801980198019802
s(S'[[adj]]'
p672
S'hub'
p673
S'of'
p674
tp675
F0.0019801980198019802
s(S'[[det]]'
p676
g577
g578
tp677
F0.0019801980198019802
s(S'constitutes'
p678
S'[[det]]'
p679
S'boundary'
p680
tp681
F0.0019801980198019802
s(S'[[det]]'
p682
S'university'
p683
S'located'
p684
tp685
F0.0019801980198019802
s(S'[[adj]]'
p686
S'town'
p687
S'[[con]]'
p688
tp689
F0.0019801980198019802
s(S'[[adj]]'
p690
S'college'
p691
S'in'
p692
tp693
F0.0019801980198019802
s(S'[[adj]]'
p694
g465
g466
tp695
F0.0039603960396039604
s(g316
g317
S'located'
p696
tp697
F0.0019801980198019802
s(S'[[adj]]'
p698
S'located'
p699
S'at'
p700
tp701
F0.0019801980198019802
s(g270
g271
S'frontier'
p702
tp703
F0.0019801980198019802
s(S'[[adj]]'
p704
S'center'
p705
S'for'
p706
tp707
F0.0019801980198019802
s(S'[[adj]]'
p708
S'schools'
p709
S'in'
p710
tp711
F0.0019801980198019802
s(g170
g171
S'in'
p712
tp713
F0.0039603960396039604
s(S'village'
p714
S'located'
p715
S'[[con]]'
p716
tp717
F0.0019801980198019802
s(S'[[num]]'
p718
g279
g280
tp719
F0.0019801980198019802
s(S'is'
p720
g261
g262
tp721
F0.0019801980198019802
s(S'is'
p722
S'based'
p723
S'in'
p724
tp725
F0.0019801980198019802
s(g157
S'block'
p726
S'in'
p727
tp728
F0.0019801980198019802
s(S'census'
p729
g53
g54
tp730
F0.0019801980198019802
s(g14
g15
g156
tp731
F0.0019801980198019802
s(S'number'
p732
S'[[det]]'
p733
S'rest'
p734
tp735
F0.0019801980198019802
s(S'[[adj]]'
p736
S'university'
p737
S'based'
p738
tp739
F0.0019801980198019802
s(S'[[con]]'
p740
S'south'
p741
S'to'
p742
tp743
F0.0019801980198019802
s(S'[[adj]]'
p744
S'hospital'
p745
S'in'
p746
tp747
F0.0019801980198019802
s(g537
g388
g273
tp748
F0.0019801980198019802
s(S'been'
p749
S'established'
p750
S'in'
p751
tp752
F0.0019801980198019802
s(S'[[num]]'
p753
g548
g549
tp754
F0.0019801980198019802
s(g341
g342
S'[[det]]'
p755
tp756
F0.0039603960396039604
s(g365
g366
S'located'
p757
tp758
F0.0019801980198019802
s(S'[[adj]]'
p759
g286
g287
tp760
F0.0019801980198019802
s(g216
g501
S'between'
p761
tp762
F0.0039603960396039604
s(S'[[adj]]'
p763
S'largest'
p764
S'university'
p765
tp766
F0.0019801980198019802
s(S'[[adj]]'
p767
S'state'
p768
S'park'
p769
tp770
F0.0019801980198019802
s(S'[[adj]]'
p771
S'place'
p772
S'in'
p773
tp774
F0.0019801980198019802
s(S'[[adj]]'
p775
S'school'
p776
S'near'
p777
tp778
F0.0019801980198019802
s(S'is'
p779
S'founded'
p780
S'in'
p781
tp782
F0.0019801980198019802
s(g616
g617
g591
tp783
F0.0019801980198019802
s(S'[[adj]]'
p784
S'constituency'
p785
S'in'
p786
tp787
F0.0019801980198019802
s(S'was'
p788
S'established'
p789
S'[[det]]'
p790
tp791
F0.0019801980198019802
s(g300
g301
S'in'
p792
tp793
F0.0019801980198019802
s(g617
g591
g592
tp794
F0.0019801980198019802
s(S'headquarters'
p795
S'[[det]]'
p796
S'state'
p797
tp798
F0.0019801980198019802
s(S'[[adj]]'
p799
S'community'
p800
S'college'
p801
tp802
F0.0019801980198019802
s(S'was'
p803
S'established'
p804
S'[[con]]'
p805
tp806
F0.0019801980198019802
s(S'be'
p807
S'based'
p808
S'in'
p809
tp810
F0.0019801980198019802
s(g663
g57
g58
tp811
F0.0039603960396039604
s(S'been'
p812
S'located'
p813
S'in'
p814
tp815
F0.0019801980198019802
s(g726
g727
S'[[det]]'
p816
tp817
F0.0019801980198019802
s(g324
g455
S'of'
p818
tp819
F0.0019801980198019802
s(g604
g605
S'state'
p820
tp821
F0.03762376237623762
s(S'was'
p822
S'located'
p823
S'just'
p824
tp825
F0.0019801980198019802
s(S'to'
p826
S'[[adj]]'
p827
S'towns'
p828
tp829
F0.0019801980198019802
s(S'[[adj]]'
p830
S'center'
p831
S'of'
p832
tp833
F0.0019801980198019802
s(S'[[det]]'
p834
S'school'
p835
S'located'
p836
tp837
F0.0039603960396039604
s(S'[[det]]'
p838
S'river'
p839
S'[[con]]'
p840
tp841
F0.0019801980198019802
s(S'[[det]]'
p842
S'largest'
p843
S'university'
p844
tp845
F0.0019801980198019802
s(g409
g334
g201
tp846
F0.007920792079207921
s(S'[[adj]]'
p847
S'road'
p848
S'in'
p849
tp850
F0.0019801980198019802
s(S'played'
p851
g394
g395
tp852
F0.0039603960396039604
s(g244
g245
g323
tp853
F0.0039603960396039604
s(S'was'
p854
S'established'
p855
S'on'
p856
tp857
F0.0019801980198019802
s(S'[[det]]'
p858
g483
g484
tp859
F0.0019801980198019802
s(S'[[adj]]'
p860
S'universities'
p861
S'in'
p862
tp863
F0.0019801980198019802
s(S'lt'
p864
g718
g279
tp865
F0.0019801980198019802
s(S'[[adj]]'
p866
S'lands'
p867
S'of'
p868
tp869
F0.0019801980198019802
s(S'[[adj]]'
p870
g344
g345
tp871
F0.0019801980198019802
s(S'[[det]]'
p872
S'community'
p873
S'of'
p874
tp875
F0.0019801980198019802
s(g210
g211
S'state'
p876
tp877
F0.0019801980198019802
s(S'[[det]]'
p878
g509
g81
tp879
F0.005940594059405941
s(S'[[con]]'
p880
S'located'
p881
S'in'
p882
tp883
F0.0019801980198019802
s(S'[[adj]]'
p884
S'institution'
p885
S'in'
p886
tp887
F0.0019801980198019802
s(g337
g338
S'with'
p888
tp889
F0.0019801980198019802
s(S'[[adj]]'
p890
S'center'
p891
S'in'
p892
tp893
F0.0019801980198019802
s(g578
g579
S'of'
p894
tp895
F0.005940594059405941
s(S'was'
p896
S'situated'
p897
S'in'
p898
tp899
F0.0019801980198019802
s(S'[[adj]]'
p900
S'places'
p901
S'in'
p902
tp903
F0.0019801980198019802
s(g800
g801
S'located'
p904
tp905
F0.0019801980198019802
s(S'[[adj]]'
p906
g372
g29
tp907
F0.0019801980198019802
s(S'[[det]]'
p908
g795
g796
tp909
F0.0019801980198019802
s(S'largest'
p910
g390
g391
tp911
F0.0019801980198019802
s(S'[[adj]]'
p912
S'capital'
p913
S'[[con]]'
p914
tp915
F0.0019801980198019802
s(S'[[det]]'
p916
S'college'
p917
S'in'
p918
tp919
F0.0019801980198019802
s(g605
g820
S'of'
p920
tp921
F0.04950495049504951
s(g666
g662
g663
tp922
F0.0039603960396039604
s(S'college'
p923
S'located'
p924
S'in'
p925
tp926
F0.007920792079207921
s(S'[[con]]'
p927
S'[[adj]]'
p928
S'headquarters'
p929
tp930
F0.0019801980198019802
s(S'[[num]]'
p931
S'located'
p932
S'in'
p933
tp934
F0.0019801980198019802
s(S'[[det]]'
p935
g595
g447
tp936
F0.0019801980198019802
s(S'research'
p937
S'university'
p938
S'in'
p939
tp940
F0.0039603960396039604
s(S'currently'
p941
S'located'
p942
S'in'
p943
tp944
F0.0019801980198019802
s(S'[[det]]'
p945
S'situated'
p946
S'in'
p947
tp948
F0.0019801980198019802
s(g600
g601
S'[[det]]'
p949
tp950
F0.0019801980198019802
s(S'was'
p951
S'founded'
p952
S'from'
p953
tp954
F0.0019801980198019802
s(S'[[det]]'
p955
g603
g604
tp956
F0.0019801980198019802
s(S'[[det]]'
p957
S'capital'
p958
S'[[det]]'
p959
tp960
F0.005940594059405941
s(S'[[num]]'
p961
S'based'
p962
S'in'
p963
tp964
F0.0019801980198019802
s(S'school'
p965
g615
g616
tp966
F0.0019801980198019802
s(S'[[det]]'
p967
S'town'
p968
S'[[det]]'
p969
tp970
F0.0019801980198019802
s(S'largest'
p971
S'city'
p972
S'in'
p973
tp974
F0.005940594059405941
s(S'[[adj]]'
p975
S'park'
p976
S'of'
p977
tp978
F0.0019801980198019802
s(S'[[adj]]'
p979
S'law'
p980
S'school'
p981
tp982
F0.0019801980198019802
s(S'[[det]]'
p983
g451
g452
tp984
F0.007920792079207921
s(S'[[det]]'
p985
g732
g733
tp986
F0.0019801980198019802
s(g928
g929
S'in'
p987
tp988
F0.0019801980198019802
s(S'[[det]]'
p989
S'road'
p990
S'in'
p991
tp992
F0.0019801980198019802
s(S'[[det]]'
p993
S'state'
p994
S'[[adj]]'
p995
tp996
F0.0019801980198019802
s(g733
g734
S'to'
p997
tp998
F0.0019801980198019802
s(S'[[det]]'
p999
S'village'
p1000
S'situated'
p1001
tp1002
F0.0019801980198019802
s(S'in'
p1003
g872
g873
tp1004
F0.0019801980198019802
s(S'quickly'
p1005
g336
g337
tp1006
F0.0019801980198019802
s(S'is'
p1007
S'connected'
p1008
S'in'
p1009
tp1010
F0.0019801980198019802
s(S'[[det]]'
p1011
S'hospital'
p1012
S'in'
p1013
tp1014
F0.0019801980198019802
s(S'[[det]]'
p1015
S'center'
p1016
S'[[det]]'
p1017
tp1018
F0.0019801980198019802
s(S'[[adj]]'
p1019
S'election'
p1020
S'in'
p1021
tp1022
F0.0019801980198019802
s(S'[[det]]'
p1023
S'oldest'
p1024
S'in'
p1025
tp1026
F0.0019801980198019802
s(S'[[adj]]'
p1027
S'school'
p1028
S'on'
p1029
tp1030
F0.0019801980198019802
s(g62
g63
g230
tp1031
F0.0019801980198019802
s(g658
S'[[adj]]'
p1032
S'city'
p1033
tp1034
F0.0019801980198019802
s(S'[[adj]]'
p1035
S'founded'
p1036
S'in'
p1037
tp1038
F0.0019801980198019802
s(g140
S'based'
p1039
S'in'
p1040
tp1041
F0.0019801980198019802
s(S'state'
p1042
S'park'
p1043
S'of'
p1044
tp1045
F0.0019801980198019802
s(S'[[det]]'
p1046
S'boundary'
p1047
S'between'
p1048
tp1049
F0.005940594059405941
s(S'[[adj]]'
p1050
S'town'
p1051
S'in'
p1052
tp1053
F0.0019801980198019802
s(g764
g765
S'in'
p1054
tp1055
F0.0039603960396039604
s(S'was'
p1056
S'based'
p1057
S'in'
p1058
tp1059
F0.0019801980198019802
s(g994
g995
S'school'
p1060
tp1061
F0.0019801980198019802
s(S'[[det]]'
p1062
S'capital'
p1063
S'[[con]]'
p1064
tp1065
F0.0019801980198019802
s(S'[[adj]]'
p1066
S'district'
p1067
S'of'
p1068
tp1069
F0.0019801980198019802
s(S'[[adj]]'
p1070
S'established'
p1071
S'in'
p1072
tp1073
F0.0019801980198019802
s(S'university'
p1074
S'in'
p1075
S'[[det]]'
p1076
tp1077
F0.0019801980198019802
s(S'[[adj]]'
p1078
g923
g924
tp1079
F0.0019801980198019802
s(g536
g537
g388
tp1080
F0.0019801980198019802
s(S'[[det]]'
p1081
g226
g227
tp1082
F0.0019801980198019802
s(g476
g477
S'states'
p1083
tp1084
F0.0019801980198019802
s(g186
g187
S'state'
p1085
tp1086
F0.0019801980198019802
s(g683
g684
S'in'
p1087
tp1088
F0.007920792079207921
s(S'[[det]]'
p1089
S'park'
p1090
S'in'
p1091
tp1092
F0.0019801980198019802
s(g980
g981
S'in'
p1093
tp1094
F0.0019801980198019802
s(S'[[adj]]'
p1095
S'university'
p1096
S'located'
p1097
tp1098
F0.0039603960396039604
s(g219
g220
S'[[det]]'
p1099
tp1100
F0.0039603960396039604
s(S'are'
p1101
S'located'
p1102
S'[[det]]'
p1103
tp1104
F0.0019801980198019802
s(S'formerly'
p1105
S'located'
p1106
S'in'
p1107
tp1108
F0.0019801980198019802
s(S'[[det]]'
p1109
g319
g320
tp1110
F0.0019801980198019802
s(g452
g453
S'police'
p1111
tp1112
F0.0019801980198019802
s(S'[[adj]]'
p1113
S'river'
p1114
S'in'
p1115
tp1116
F0.0019801980198019802
s(g150
g303
S'[[det]]'
p1117
tp1118
F0.0039603960396039604
s(g1000
g1001
S'in'
p1119
tp1120
F0.0039603960396039604
s(g657
g658
g1032
tp1121
F0.0019801980198019802
s(S'census'
p1122
S'town'
p1123
g927
tp1124
F0.0019801980198019802
s(S'[[adj]]'
p1125
g92
g93
tp1126
F0.0019801980198019802
s(S'[[det]]'
p1127
g299
g300
tp1128
F0.0039603960396039604
s(g63
g230
g231
tp1129
F0.0019801980198019802
s(S'[[det]]'
p1130
S'oldest'
p1131
S'university'
p1132
tp1133
F0.0019801980198019802
s(S'[[adj]]'
p1134
S'town'
p1135
S'for'
p1136
tp1137
F0.0019801980198019802
s(g1111
g585
g535
tp1138
F0.0019801980198019802
s(S'school'
p1139
S'located'
p1140
S'at'
p1141
tp1142
F0.0019801980198019802
s(g156
g157
g726
tp1143
F0.0019801980198019802
s(g395
g396
g637
tp1144
F0.0039603960396039604
s(g349
g350
S'in'
p1145
tp1146
F0.0019801980198019802
s(g480
g481
S'on'
p1147
tp1148
F0.0019801980198019802
s(g145
g146
S'on'
p1149
tp1150
F0.0039603960396039604
s(g453
g1111
g585
tp1151
F0.0019801980198019802
s.