(dp0
(S'preceded'
p1
S'[[con]]'
p2
S'followed'
p3
tp4
F0.2222222222222222
s(S'was'
p5
S'succeeded'
p6
S'by'
p7
tp8
F0.1111111111111111
s(S'was'
p9
g1
g2
tp10
F0.1111111111111111
s(S'was'
p11
S'succeeded'
p12
S'with'
p13
tp14
F0.1111111111111111
s(g6
g7
S'singing'
p15
tp16
F0.1111111111111111
s(S'is'
p17
S'preceded'
p18
S'[[con]]'
p19
tp20
F0.1111111111111111
s(g2
g3
S'by'
p21
tp22
F0.2222222222222222
s.