(dp0
(S'[[adj]]'
p1
S'service'
p2
S'to'
p3
tp4
F0.125
s(S'[[det]]'
p5
S'service'
p6
S'to'
p7
tp8
F0.125
s(S'provides'
p9
S'service'
p10
S'from'
p11
tp12
F0.125
s(S'[[adj]]'
p13
S'service'
p14
S'for'
p15
tp16
F0.125
s(S'provides'
p17
S'service'
p18
S'to'
p19
tp20
F0.125
s(S'[[adj]]'
p21
S'service'
p22
S'between'
p23
tp24
F0.125
s(S'[[adj]]'
p25
S'routes'
p26
S'from'
p27
tp28
F0.125
s(S'with'
p29
S'service'
p30
S'to'
p31
tp32
F0.125
s.