(dp0
(S'is'
p1
S'defeated'
p2
S'[[con]]'
p3
tp4
F0.0019193857965451055
s(S'[[prp]]'
p5
S'son'
p6
S'who'
p7
tp8
F0.0019193857965451055
s(S'[[con]]'
p9
S'worked'
p10
S'later'
p11
tp12
F0.0019193857965451055
s(S'ahead'
p13
S'of'
p14
S'home'
p15
tp16
F0.0019193857965451055
s(S'to'
p17
S'train'
p18
S'under'
p19
tp20
F0.0019193857965451055
s(S'took'
p21
S'off'
p22
S'while'
p23
tp24
F0.0019193857965451055
s(S'[[adj]]'
p25
S'hit'
p26
S'by'
p27
tp28
F0.0019193857965451055
s(S'mainly'
p29
S'worked'
p30
S'under'
p31
tp32
F0.0019193857965451055
s(S'[[pro]]'
p33
S'son'
p34
S'of'
p35
tp36
F0.0019193857965451055
s(S'again'
p37
S'teamed'
p38
S'with'
p39
tp40
F0.0019193857965451055
s(S'to'
p41
S'face'
p42
S'off'
p43
tp44
F0.0019193857965451055
s(S'later'
p45
S'worked'
p46
S'to'
p47
tp48
F0.0019193857965451055
s(S'started'
p49
S'training'
p50
S'under'
p51
tp52
F0.0019193857965451055
s(S'[[con]]'
p53
S'held'
p54
S'[[det]]'
p55
tp56
F0.0019193857965451055
s(S'[[det]]'
p57
S'son'
p58
S'with'
p59
tp60
F0.0019193857965451055
s(S'[[adj]]'
p61
S'training'
p62
S'with'
p63
tp64
F0.0019193857965451055
s(S'that'
p65
S'worked'
p66
S'with'
p67
tp68
F0.0019193857965451055
s(S'is'
p69
S'son'
p70
S'of'
p71
tp72
F0.0019193857965451055
s(S'[[con]]'
p73
S'defeated'
p74
S'in'
p75
tp76
F0.0019193857965451055
s(S'has'
p77
S'trained'
p78
S'under'
p79
tp80
F0.0019193857965451055
s(S'has'
p81
S'teamed'
p82
S'up'
p83
tp84
F0.0019193857965451055
s(S'assistant'
p85
S'to'
p86
S'[[det]]'
p87
tp88
F0.0019193857965451055
s(S'was'
p89
S'followed'
p90
S'by'
p91
tp92
F0.0019193857965451055
s(S'also'
p93
S'trained'
p94
S'with'
p95
tp96
F0.0019193857965451055
s(S'[[det]]'
p97
S'feud'
p98
S'between'
p99
tp100
F0.0019193857965451055
s(S'by'
p101
S'winning'
p102
S'[[det]]'
p103
tp104
F0.0019193857965451055
s(S's'
p105
S'defeated'
p106
S'[[num]]'
p107
tp108
F0.0019193857965451055
s(S'defeated'
p109
S'to'
p110
S'win'
p111
tp112
F0.0019193857965451055
s(S'had'
p113
S'met'
p114
S'when'
p115
tp116
F0.0019193857965451055
s(S'where'
p117
S'worked'
p118
S'for'
p119
tp120
F0.0019193857965451055
s(S'[[num]]'
p121
S'led'
p122
S'by'
p123
tp124
F0.0019193857965451055
s(S'then'
p125
S'worked'
p126
S'before'
p127
tp128
F0.0019193857965451055
s(S'where'
p129
S'worked'
p130
S'under'
p131
tp132
F0.0019193857965451055
s(S'often'
p133
S'worked'
p134
S'with'
p135
tp136
F0.0019193857965451055
s(S'had'
p137
S'left'
p138
S'[[prp]]'
p139
tp140
F0.0019193857965451055
s(S'[[num]]'
p141
S'worked'
p142
S'with'
p143
tp144
F0.0019193857965451055
s(S'also'
p145
S'hit'
p146
S'[[num]]'
p147
tp148
F0.0019193857965451055
s(S'who'
p149
S'led'
p150
S'for'
p151
tp152
F0.0019193857965451055
s(S'also'
p153
S'lost'
p154
S'to'
p155
tp156
F0.0019193857965451055
s(S'then'
p157
S'teamed'
p158
S'with'
p159
tp160
F0.0019193857965451055
s(S'to'
p161
S'win'
p162
S'back'
p163
tp164
F0.0019193857965451055
s(S'[[prp]]'
p165
S'son'
p166
S'by'
p167
tp168
F0.0019193857965451055
s(S'also'
p169
S'worked'
p170
S'with'
p171
tp172
F0.0019193857965451055
s(S'[[con]]'
p173
S'defeated'
p174
S'[[det]]'
p175
tp176
F0.0019193857965451055
s(S'[[pro]]'
p177
S'[[det]]'
p178
S'opportunity'
p179
tp180
F0.0019193857965451055
s(S'[[adj]]'
p181
S'met'
p182
S'[[det]]'
p183
tp184
F0.0019193857965451055
s(S'[[con]]'
p185
S'met'
p186
S'[[adj]]'
p187
tp188
F0.0019193857965451055
s(S'where'
p189
S'met'
p190
S'[[adj]]'
p191
tp192
F0.0019193857965451055
s(S'has'
p193
S'worked'
p194
S'among'
p195
tp196
F0.0019193857965451055
s(S'had'
p197
S'met'
p198
S'through'
p199
tp200
F0.0019193857965451055
s(S'later'
p201
S'worked'
p202
S'as'
p203
tp204
F0.0019193857965451055
s(S'again'
p205
S'worked'
p206
S'with'
p207
tp208
F0.0019193857965451055
s(g86
g87
S'winter'
p209
tp210
F0.0019193857965451055
s(S'again'
p211
S'teamed'
p212
S'up'
p213
tp214
F0.0019193857965451055
s(S'to'
p215
S'win'
p216
S'against'
p217
tp218
F0.0019193857965451055
s(S'then'
p219
S'held'
p220
S'by'
p221
tp222
F0.0019193857965451055
s(S'since'
p223
S'left'
p224
S'[[con]]'
p225
tp226
F0.0019193857965451055
s(S'by'
p227
S'defeating'
p228
S'[[det]]'
p229
tp230
F0.0019193857965451055
s(S'[[det]]'
p231
S'son'
p232
S'to'
p233
tp234
F0.0019193857965451055
s(S'had'
p235
S'held'
p236
S'out'
p237
tp238
F0.0019193857965451055
s(S'first'
p239
S'met'
p240
S'[[con]]'
p241
tp242
F0.0019193857965451055
s(S'was'
p243
S'hit'
p244
S'by'
p245
tp246
F0.0019193857965451055
s(S'then'
p247
S'worked'
p248
S'[[adj]]'
p249
tp250
F0.0019193857965451055
s(S'have'
p251
S'won'
p252
S'more'
p253
tp254
F0.0019193857965451055
s(S'also'
p255
S'won'
p256
S'by'
p257
tp258
F0.0019193857965451055
s(S'[[adj]]'
p259
S'son'
p260
S'in'
p261
tp262
F0.0019193857965451055
s(S'passed'
p263
S'[[con]]'
p264
S'set'
p265
tp266
F0.0019193857965451055
s(S'was'
p267
S'trained'
p268
S'by'
p269
tp270
F0.0019193857965451055
s(S'[[con]]'
p271
S'held'
p272
S'[[adj]]'
p273
tp274
F0.0019193857965451055
s(g264
g265
S'off'
p275
tp276
F0.0019193857965451055
s(S'then'
p277
S'worked'
p278
S'to'
p279
tp280
F0.0019193857965451055
s(S'[[det]]'
p281
S'championship'
p282
g101
tp283
F0.0019193857965451055
s(S'trained'
p284
S'as'
p285
S'[[det]]'
p286
tp287
F0.0019193857965451055
s(S'also'
p288
S'won'
p289
S'as'
p290
tp291
F0.0019193857965451055
s(S'away'
p292
S'followed'
p293
S'by'
p294
tp295
F0.0019193857965451055
s(S'[[det]]'
p296
S'son'
p297
S'was'
p298
tp299
F0.0019193857965451055
s(S'[[con]]'
p300
S'met'
p301
S'[[con]]'
p302
tp303
F0.0019193857965451055
s(S'[[con]]'
p304
S'lost'
p305
S'with'
p306
tp307
F0.0019193857965451055
s(S'turn'
p308
S'cars'
p309
S'[[con]]'
p310
tp311
F0.0019193857965451055
s(g105
S'son'
p312
S'as'
p313
tp314
F0.0019193857965451055
s(S'was'
p315
S'hit'
p316
S'[[con]]'
p317
tp318
F0.0019193857965451055
s(S'[[det]]'
p319
S'team'
p320
S'by'
p321
tp322
F0.0019193857965451055
s(S'as'
p323
S'taught'
p324
S'by'
p325
tp326
F0.0019193857965451055
s(S'[[pro]]'
p327
S'defeated'
p328
S'[[con]]'
p329
tp330
F0.0019193857965451055
s(S'caught'
p331
S'[[det]]'
p332
S'eye'
p333
tp334
F0.003838771593090211
s(S'[[pro]]'
p335
S'son'
p336
S'as'
p337
tp338
F0.0019193857965451055
s(S'[[prp]]'
p339
S'son'
p340
S'is'
p341
tp342
F0.0019193857965451055
s(S'[[det]]'
p343
S'son'
p344
S'of'
p345
tp346
F0.003838771593090211
s(S'when'
p347
S'lost'
p348
S'to'
p349
tp350
F0.0019193857965451055
s(S'[[det]]'
p351
S'lead'
p352
S'from'
p353
tp354
F0.0019193857965451055
s(S'was'
p355
S'teamed'
p356
S'with'
p357
tp358
F0.0019193857965451055
s(S'also'
p359
S'met'
p360
S'[[prp]]'
p361
tp362
F0.0019193857965451055
s(S'[[con]]'
p363
S'ahead'
p364
S'of'
p365
tp366
F0.0019193857965451055
s(S'[[con]]'
p367
S'worked'
p368
S'as'
p369
tp370
F0.0019193857965451055
s(S'where'
p371
S'worked'
p372
S'with'
p373
tp374
F0.005758157389635317
s(S'which'
p375
S'led'
p376
S'to'
p377
tp378
F0.0019193857965451055
s(S'[[con]]'
p379
S'teamed'
p380
S'with'
p381
tp382
F0.0019193857965451055
s(S'awards'
p383
S'that'
p384
S'gave'
p385
tp386
F0.0019193857965451055
s(S'in'
p387
g89
g90
tp388
F0.0019193857965451055
s(S'had'
p389
S'won'
p390
S'[[con]]'
p391
tp392
F0.0019193857965451055
s(S'[[num]]'
p393
S'son'
p394
S'who'
p395
tp396
F0.0019193857965451055
s(S'[[con]]'
p397
S'worked'
p398
S'mainly'
p399
tp400
F0.0019193857965451055
s(S'was'
p401
S'left'
p402
S'out'
p403
tp404
F0.0019193857965451055
s(S'first'
p405
S'worked'
p406
S'with'
p407
tp408
F0.0019193857965451055
s(S'also'
p409
S'met'
p410
S'[[adj]]'
p411
tp412
F0.0019193857965451055
s(S'also'
p413
S'worked'
p414
S'under'
p415
tp416
F0.0019193857965451055
s(S'been'
p417
S'trained'
p418
S'by'
p419
tp420
F0.0019193857965451055
s(S'world'
p421
S'champion'
p422
S'[[adj]]'
p423
tp424
F0.0019193857965451055
s(S'worked'
p425
S'as'
p426
S'[[det]]'
p427
tp428
F0.0019193857965451055
s(S'was'
p429
S'teamed'
p430
S'up'
p431
tp432
F0.0019193857965451055
s(g178
g179
S'to'
p433
tp434
F0.0019193857965451055
s(S'[[prp]]'
p435
S'hit'
p436
S'[[adj]]'
p437
tp438
F0.0019193857965451055
s(g105
S'son'
p439
S'[[pro]]'
p440
tp441
F0.0019193857965451055
s(S'where'
p442
S'met'
p443
S'[[det]]'
p444
tp445
F0.0019193857965451055
s(S'was'
p446
S'son'
p447
S'to'
p448
tp449
F0.0019193857965451055
s(g105
S'son'
p450
S'whom'
p451
tp452
F0.0019193857965451055
s(S'later'
p453
S'worked'
p454
S'with'
p455
tp456
F0.0019193857965451055
s(S'was'
p457
S'taught'
p458
S'[[con]]'
p459
tp460
F0.0019193857965451055
s(S'to'
p461
S'win'
p462
S'with'
p463
tp464
F0.0019193857965451055
s(S'[[adj]]'
p465
S'ahead'
p466
S'of'
p467
tp468
F0.0019193857965451055
s(S'where'
p469
S'teamed'
p470
S'with'
p471
tp472
F0.0019193857965451055
s(S'also'
p473
S'worked'
p474
S'as'
p475
tp476
F0.0019193857965451055
s(S'had'
p477
S'turned'
p478
S'on'
p479
tp480
F0.0019193857965451055
s(S'then'
p481
S'worked'
p482
S'where'
p483
tp484
F0.0019193857965451055
s(S'was'
p485
S'taught'
p486
S'by'
p487
tp488
F0.0019193857965451055
s(S'also'
p489
S'taught'
p490
S'by'
p491
tp492
F0.0019193857965451055
s(g103
S'match'
p493
S'at'
p494
tp495
F0.0019193857965451055
s(S'[[det]]'
p496
S'hit'
p497
S'with'
p498
tp499
F0.0019193857965451055
s(S'took'
p500
S'pole'
p501
S'[[prp]]'
p502
tp503
F0.0019193857965451055
s(S'was'
p504
S'defeated'
p505
S'by'
p506
tp507
F0.0019193857965451055
s(S'[[prp]]'
p508
S'son'
p509
S'to'
p510
tp511
F0.0019193857965451055
s(S'[[det]]'
p512
S'county'
p513
S'margin'
p514
tp515
F0.0019193857965451055
s(g105
S'son'
p516
S'[[det]]'
p517
tp518
F0.0019193857965451055
s(S'also'
p519
S'left'
p520
S'[[det]]'
p521
tp522
F0.0019193857965451055
s(S'also'
p523
S'trained'
p524
S'[[con]]'
p525
tp526
F0.0019193857965451055
s(S'to'
p527
S'win'
p528
S'to'
p529
tp530
F0.0019193857965451055
s(S'[[con]]'
p531
S'teamed'
p532
S'up'
p533
tp534
F0.0019193857965451055
s(S'where'
p535
S'worked'
p536
S'as'
p537
tp538
F0.0019193857965451055
s(S'pole'
p539
g13
g14
tp540
F0.005758157389635317
s(S'[[adj]]'
p541
S'world'
p542
S'champion'
p543
tp544
F0.0019193857965451055
s(g105
S'worked'
p545
S'as'
p546
tp547
F0.0019193857965451055
s(S'has'
p548
S'lost'
p549
S'to'
p550
tp551
F0.0019193857965451055
s(S'also'
p552
S'won'
p553
S'over'
p554
tp555
F0.0019193857965451055
s(S'[[det]]'
p556
S'son'
p557
S'later'
p558
tp559
F0.0019193857965451055
s(S'has'
p560
S'worked'
p561
S'by'
p562
tp563
F0.0019193857965451055
s(S'have'
p564
S'worked'
p565
S'as'
p566
tp567
F0.0019193857965451055
s(S'has'
p568
S'met'
p569
S'with'
p570
tp571
F0.0019193857965451055
s(S'to'
p572
S'hit'
p573
S'[[det]]'
p574
tp575
F0.0019193857965451055
s(S'had'
p576
S'met'
p577
S'[[det]]'
p578
tp579
F0.0019193857965451055
s(S'[[det]]'
p580
S'feud'
p581
S'with'
p582
tp583
F0.0019193857965451055
s(S'[[adj]]'
p584
S'son'
p585
S'with'
p586
tp587
F0.0019193857965451055
s(S'now'
p588
S'led'
p589
S'from'
p590
tp591
F0.0019193857965451055
s(S'also'
p592
S'won'
p593
S'twice'
p594
tp595
F0.0019193857965451055
s(S'formerly'
p596
S'worked'
p597
S'as'
p598
tp599
F0.0019193857965451055
s(S'was'
p600
S'left'
p601
S'with'
p602
tp603
F0.0019193857965451055
s(S'career'
p604
S'ahead'
p605
S'of'
p606
tp607
F0.0019193857965451055
s(S'had'
p608
S'left'
p609
S'off'
p610
tp611
F0.0019193857965451055
s(S'being'
p612
S'held'
p613
S'by'
p614
tp615
F0.0019193857965451055
s(S'defeated'
p616
S'[[con]]'
p617
S'[[adj]]'
p618
tp619
F0.0019193857965451055
s(S'[[con]]'
p620
S'met'
p621
S'with'
p622
tp623
F0.0019193857965451055
s(S'[[det]]'
p624
S'son'
p625
S'[[con]]'
p626
tp627
F0.0019193857965451055
s(S'career'
p628
S'where'
p629
S'worked'
p630
tp631
F0.0019193857965451055
s(S'began'
p632
S'training'
p633
S'under'
p634
tp635
F0.0019193857965451055
s(S'later'
p636
S'worked'
p637
S'[[con]]'
p638
tp639
F0.0019193857965451055
s(S'later'
p640
S'left'
p641
S'[[con]]'
p642
tp643
F0.0019193857965451055
s(S'by'
p644
S'defeating'
p645
S'[[adj]]'
p646
tp647
F0.0019193857965451055
s(S'then'
p648
S'won'
p649
S'over'
p650
tp651
F0.0019193857965451055
s(S'received'
p652
g383
g384
tp653
F0.0019193857965451055
s(S'[[con]]'
p654
S'met'
p655
S'[[det]]'
p656
tp657
F0.0019193857965451055
s(S'also'
p658
S'trained'
p659
S'[[adj]]'
p660
tp661
F0.0019193857965451055
s(S'which'
p662
S'lost'
p663
S'to'
p664
tp665
F0.0019193857965451055
s(S'were'
p666
S'defeated'
p667
S'by'
p668
tp669
F0.0019193857965451055
s(S'is'
p670
S'held'
p671
S'[[adj]]'
p672
tp673
F0.0019193857965451055
s(S'however'
p674
S'lost'
p675
S'to'
p676
tp677
F0.0019193857965451055
s(S'was'
p678
S'held'
p679
S'[[adj]]'
p680
tp681
F0.0019193857965451055
s(S'again'
p682
S'defeated'
p683
S'[[con]]'
p684
tp685
F0.0019193857965451055
s(S'[[adj]]'
p686
S'son'
p687
S'of'
p688
tp689
F0.0019193857965451055
s(S'has'
p690
S'trained'
p691
S'with'
p692
tp693
F0.0019193857965451055
s(S'began'
p694
S'[[prp]]'
p695
S'training'
p696
tp697
F0.003838771593090211
s(S'later'
p698
S'teamed'
p699
S'up'
p700
tp701
F0.0019193857965451055
s(S'[[adj]]'
p702
S'son'
p703
S'[[det]]'
p704
tp705
F0.0019193857965451055
s(S'[[con]]'
p706
S'lost'
p707
S'[[det]]'
p708
tp709
F0.0019193857965451055
s(S'has'
p710
S'left'
p711
S'[[det]]'
p712
tp713
F0.0019193857965451055
s(S'had'
p714
S'lost'
p715
S'[[det]]'
p716
tp717
F0.0019193857965451055
s(S'off'
p718
S'[[det]]'
p719
S'lead'
p720
tp721
F0.0019193857965451055
s(S'[[det]]'
p722
S'hit'
p723
S'on'
p724
tp725
F0.0019193857965451055
s(S'singing'
p726
S'[[con]]'
p727
S'followed'
p728
tp729
F0.0019193857965451055
s(S'also'
p730
S'worked'
p731
S'along'
p732
tp733
F0.0019193857965451055
s(S'then'
p734
S'teamed'
p735
S'up'
p736
tp737
F0.0019193857965451055
s(S'later'
p738
S'met'
p739
S'with'
p740
tp741
F0.0019193857965451055
s(g105
S'worked'
p742
S'on'
p743
tp744
F0.0019193857965451055
s(S'received'
p745
S'[[det]]'
p746
S'majority'
p747
tp748
F0.0019193857965451055
s(S'started'
p749
S'[[prp]]'
p750
S'training'
p751
tp752
F0.0019193857965451055
s(S'started'
p753
S'training'
p754
S'with'
p755
tp756
F0.0019193857965451055
s(S'[[det]]'
p757
S'son'
p758
S'[[pro]]'
p759
tp760
F0.0019193857965451055
s(S'then'
p761
S'defeated'
p762
S'[[con]]'
p763
tp764
F0.0019193857965451055
s(S'took'
p765
S'pole'
p766
S'ahead'
p767
tp768
F0.003838771593090211
s(S'also'
p769
S'worked'
p770
S'[[adj]]'
p771
tp772
F0.0019193857965451055
s(S'[[con]]'
p773
S'defeating'
p774
S'[[con]]'
p775
tp776
F0.0019193857965451055
s(S'[[adj]]'
p777
S'worked'
p778
S'as'
p779
tp780
F0.0019193857965451055
s(S'received'
p781
S'[[adj]]'
p782
S'training'
p783
tp784
F0.007677543186180422
s(S'had'
p785
S'lost'
p786
S'to'
p787
tp788
F0.0019193857965451055
s(S'[[det]]'
p789
S'son'
p790
S'who'
p791
tp792
F0.0019193857965451055
s(S'was'
p793
S'left'
p794
S'behind'
p795
tp796
F0.0019193857965451055
s(S'where'
p797
S'worked'
p798
S'along'
p799
tp800
F0.0019193857965451055
s(S'is'
p801
S'trained'
p802
S'by'
p803
tp804
F0.0019193857965451055
s(S'then'
p805
S'defeated'
p806
S'by'
p807
tp808
F0.0019193857965451055
s(S'[[det]]'
p809
S'lead'
p810
S'in'
p811
tp812
F0.0019193857965451055
s(S'[[num]]'
p813
S'hit'
p814
S'[[det]]'
p815
tp816
F0.0019193857965451055
s(g502
g604
g605
tp817
F0.0019193857965451055
s(S'of'
p818
S'led'
p819
S'by'
p820
tp821
F0.0019193857965451055
s(S'[[con]]'
p822
S'lost'
p823
S'out'
p824
tp825
F0.0019193857965451055
s(S'to'
p826
S'win'
p827
S'since'
p828
tp829
F0.0019193857965451055
s(g782
g783
S'from'
p830
tp831
F0.005758157389635317
s(S'began'
p832
g726
g727
tp833
F0.0019193857965451055
s(S'was'
p834
S'son'
p835
S'[[con]]'
p836
tp837
F0.0019193857965451055
s(S'later'
p838
S'worked'
p839
S'on'
p840
tp841
F0.0019193857965451055
s(S'soon'
p842
S'met'
p843
S'[[con]]'
p844
tp845
F0.0019193857965451055
s(S'also'
p846
S'worked'
p847
S'to'
p848
tp849
F0.0019193857965451055
s(S'continue'
p850
S'[[prp]]'
p851
S'studies'
p852
tp853
F0.0019193857965451055
s(S'took'
p854
S'[[det]]'
p855
S'lead'
p856
tp857
F0.011516314779270634
s(S'also'
p858
S'trained'
p859
S'under'
p860
tp861
F0.0019193857965451055
s(S'also'
p862
S'lost'
p863
S'with'
p864
tp865
F0.0019193857965451055
s(S'then'
p866
S'turned'
p867
S'to'
p868
tp869
F0.0019193857965451055
s(S'be'
p870
S'trained'
p871
S'by'
p872
tp873
F0.0019193857965451055
s(g309
g310
S'mdash'
p874
tp875
F0.0019193857965451055
s(S'being'
p876
S'defeated'
p877
S'by'
p878
tp879
F0.0019193857965451055
s(S'was'
p880
S'won'
p881
S'over'
p882
tp883
F0.0019193857965451055
s(S'led'
p884
S'[[det]]'
p885
S'driver'
p886
tp887
F0.0019193857965451055
s(S'then'
p888
S'worked'
p889
S'as'
p890
tp891
F0.0019193857965451055
s(g105
S'son'
p892
S'[[con]]'
p893
tp894
F0.003838771593090211
s(S'[[adj]]'
p895
S'son'
p896
S'[[con]]'
p897
tp898
F0.0019193857965451055
s(S'first'
p899
S'met'
p900
S'with'
p901
tp902
F0.0019193857965451055
s(S'[[adj]]'
p903
S'son'
p904
S'later'
p905
tp906
F0.0019193857965451055
s(S'[[det]]'
p907
S'son'
p908
S'[[num]]'
p909
tp910
F0.0019193857965451055
s(S'has'
p911
S'worked'
p912
S'as'
p913
tp914
F0.0019193857965451055
s(S'[[con]]'
p915
S'met'
p916
S'up'
p917
tp918
F0.0019193857965451055
s(S'was'
p919
S'held'
p920
S'by'
p921
tp922
F0.0019193857965451055
s(S'had'
p923
S'left'
p924
S'[[con]]'
p925
tp926
F0.0019193857965451055
s(g426
g427
g85
tp927
F0.0019193857965451055
s(S'was'
p928
S'son'
p929
S'by'
p930
tp931
F0.0019193857965451055
s(g105
S'son'
p932
S'by'
p933
tp934
F0.0019193857965451055
s(S'to'
p935
S'train'
p936
S'with'
p937
tp938
F0.0019193857965451055
s(S'is'
p939
S'son'
p940
S'to'
p941
tp942
F0.0019193857965451055
s(S'also'
p943
S'worked'
p944
S'[[con]]'
p945
tp946
F0.0019193857965451055
s(S'was'
p947
S'trained'
p948
S'under'
p949
tp950
F0.0019193857965451055
s(S'[[det]]'
p951
S'son'
p952
S'whom'
p953
tp954
F0.0019193857965451055
s(S'world'
p955
S'[[adj]]'
p956
S'champion'
p957
tp958
F0.003838771593090211
s(S'[[adj]]'
p959
S'training'
p960
S'under'
p961
tp962
F0.0019193857965451055
s(S'son'
p963
S'of'
p964
S'son'
p965
tp966
F0.0019193857965451055
s(S'[[det]]'
p967
g539
g13
tp968
F0.0019193857965451055
s(S'later'
p969
S'lost'
p970
S'to'
p971
tp972
F0.0019193857965451055
s(S'have'
p973
S'met'
p974
S'[[con]]'
p975
tp976
F0.0019193857965451055
s(S'who'
p977
S'worked'
p978
S'with'
p979
tp980
F0.0019193857965451055
s(S'[[adj]]'
p981
S'son'
p982
S'de'
p983
tp984
F0.0019193857965451055
s(S'[[num]]'
p985
S'ahead'
p986
S'of'
p987
tp988
F0.0019193857965451055
s(S'was'
p989
S'defeated'
p990
S'[[num]]'
p991
tp992
F0.0019193857965451055
s(S'[[det]]'
p993
S'son'
p994
S'[[det]]'
p995
tp996
F0.0019193857965451055
s(S'then'
p997
S'worked'
p998
S'with'
p999
tp1000
F0.0019193857965451055
s(S'first'
p1001
S'met'
p1002
S'at'
p1003
tp1004
F0.0019193857965451055
s(S'[[mod]]'
p1005
S'face'
p1006
S'off'
p1007
tp1008
F0.0019193857965451055
s(S'then'
p1009
S'hit'
p1010
S'[[det]]'
p1011
tp1012
F0.0019193857965451055
s(S'[[adj]]'
p1013
S'defeating'
p1014
S'[[adj]]'
p1015
tp1016
F0.0019193857965451055
s(S'who'
p1017
S'hit'
p1018
S'[[num]]'
p1019
tp1020
F0.0019193857965451055
s(S'getting'
p1021
S'ahead'
p1022
S'of'
p1023
tp1024
F0.0019193857965451055
s(S'[[con]]'
p1025
S'won'
p1026
S'with'
p1027
tp1028
F0.0019193857965451055
s(g728
S'[[det]]'
p1029
S'stage'
p1030
tp1031
F0.0019193857965451055
s(S'[[prp]]'
p1032
S'son'
p1033
S'[[con]]'
p1034
tp1035
F0.0019193857965451055
s(S'[[adj]]'
p1036
S'hit'
p1037
S'[[con]]'
p1038
tp1039
F0.0019193857965451055
s(S'is'
p1040
S'defeated'
p1041
S'by'
p1042
tp1043
F0.0019193857965451055
s(g105
S'son'
p1044
S'in'
p1045
tp1046
F0.0019193857965451055
s(S'[[det]]'
p1047
S'turned'
p1048
S'[[adj]]'
p1049
tp1050
F0.0019193857965451055
s(S'only'
p1051
S'son'
p1052
S'of'
p1053
tp1054
F0.0019193857965451055
s(S'to'
p1055
S'dominate'
p1056
S'[[det]]'
p1057
tp1058
F0.0019193857965451055
s(g874
S'driven'
p1059
S'by'
p1060
tp1061
F0.0019193857965451055
s(S'[[adj]]'
p1062
S'son'
p1063
S'who'
p1064
tp1065
F0.0019193857965451055
s(g513
g514
S'over'
p1066
tp1067
F0.0019193857965451055
s(S'also'
p1068
S'worked'
p1069
S'where'
p1070
tp1071
F0.0019193857965451055
s(S'[[con]]'
p1072
S'lost'
p1073
S'[[num]]'
p1074
tp1075
F0.0019193857965451055
s(S'also'
p1076
S'won'
p1077
S'to'
p1078
tp1079
F0.0019193857965451055
s(g282
g101
g102
tp1080
F0.0019193857965451055
s(g105
S'son'
p1081
S'de'
p1082
tp1083
F0.0019193857965451055
s(S'[[con]]'
p1084
S'defeated'
p1085
S'after'
p1086
tp1087
F0.0019193857965451055
s(S'[[adj]]'
p1088
S'hit'
p1089
S'with'
p1090
tp1091
F0.0019193857965451055
s(S'[[adj]]'
p1092
S'hit'
p1093
S'on'
p1094
tp1095
F0.0019193857965451055
s(S'[[det]]'
p1096
S'held'
p1097
S'by'
p1098
tp1099
F0.0019193857965451055
s(S'[[adj]]'
p1100
S'son'
p1101
S'[[adj]]'
p1102
tp1103
F0.0019193857965451055
s(g105
S'son'
p1104
S'[[adj]]'
p1105
tp1106
F0.0019193857965451055
s(S'[[con]]'
p1107
S'defeated'
p1108
S'with'
p1109
tp1110
F0.0019193857965451055
s(S'[[prp]]'
p1111
S'training'
p1112
S'with'
p1113
tp1114
F0.0019193857965451055
s(S'[[con]]'
p1115
S'left'
p1116
S'with'
p1117
tp1118
F0.0019193857965451055
s(g1030
g628
g629
tp1119
F0.0019193857965451055
s(S'[[con]]'
p1120
S'worked'
p1121
S'[[prp]]'
p1122
tp1123
F0.0019193857965451055
s(S'did'
p1124
S'take'
p1125
S'who'
p1126
tp1127
F0.0019193857965451055
s(S'took'
p1128
g718
g719
tp1129
F0.0019193857965451055
s(S'had'
p1130
S'worked'
p1131
S'before'
p1132
tp1133
F0.0019193857965451055
s(S'was'
p1134
S'met'
p1135
S'by'
p1136
tp1137
F0.0019193857965451055
s(S'with'
p1138
S'son'
p1139
S'of'
p1140
tp1141
F0.0019193857965451055
s(S'[[prp]]'
p1142
S'feud'
p1143
S'with'
p1144
tp1145
F0.0019193857965451055
s(g856
S'ahead'
p1146
S'of'
p1147
tp1148
F0.0019193857965451055
s(S'won'
p1149
g387
g89
tp1150
F0.0019193857965451055
s(S'also'
p1151
S'teamed'
p1152
S'up'
p1153
tp1154
F0.0019193857965451055
s(S'is'
p1155
S'son'
p1156
S'[[con]]'
p1157
tp1158
F0.0019193857965451055
s(S'taking'
p1159
S'ahead'
p1160
S'of'
p1161
tp1162
F0.0019193857965451055
s(S'later'
p1163
S'defeated'
p1164
S'by'
p1165
tp1166
F0.0019193857965451055
s(S'had'
p1167
S'worked'
p1168
S'with'
p1169
tp1170
F0.0019193857965451055
s(S'[[adj]]'
p1171
S'worked'
p1172
S'for'
p1173
tp1174
F0.0019193857965451055
s(S'since'
p1175
S'worked'
p1176
S'with'
p1177
tp1178
F0.0019193857965451055
s(S'[[det]]'
p1179
S'face'
p1180
S'[[con]]'
p1181
tp1182
F0.0019193857965451055
s(S'with'
p1183
g1021
g1022
tp1184
F0.0019193857965451055
s(S'has'
p1185
S'worked'
p1186
S'along'
p1187
tp1188
F0.0019193857965451055
s(S'[[adj]]'
p1189
S'feud'
p1190
S'with'
p1191
tp1192
F0.0019193857965451055
s(g105
S'son'
p1193
S'who'
p1194
tp1195
F0.0019193857965451055
s(S'to'
p1196
S'hit'
p1197
S'on'
p1198
tp1199
F0.0019193857965451055
s(S'was'
p1200
S'trained'
p1201
S'[[con]]'
p1202
tp1203
F0.0019193857965451055
s(S'[[prp]]'
p1204
S'son'
p1205
S'[[num]]'
p1206
tp1207
F0.0019193857965451055
s(S'again'
p1208
S'lost'
p1209
S'to'
p1210
tp1211
F0.0019193857965451055
s(S'was'
p1212
S'turned'
p1213
S'by'
p1214
tp1215
F0.0019193857965451055
s(g310
g874
g1059
tp1216
F0.0019193857965451055
s(S'away'
p1217
S'[[con]]'
p1218
S'led'
p1219
tp1220
F0.0019193857965451055
s(g695
g696
S'under'
p1221
tp1222
F0.003838771593090211
s(S'then'
p1223
S'defeated'
p1224
S'[[adj]]'
p1225
tp1226
F0.0019193857965451055
s(S'[[det]]'
p1227
S'lead'
p1228
g1183
tp1229
F0.003838771593090211
s(g851
g852
S'in'
p1230
tp1231
F0.0019193857965451055
s(S'has'
p1232
g49
g50
tp1233
F0.0019193857965451055
s(S'also'
p1234
S'teamed'
p1235
S'with'
p1236
tp1237
F0.0019193857965451055
s(g427
g85
g86
tp1238
F0.0019193857965451055
s(S'regained'
p1239
g281
g282
tp1240
F0.0019193857965451055
s(S'also'
p1241
S'won'
p1242
S'with'
p1243
tp1244
F0.0019193857965451055
s(g433
g850
g851
tp1245
F0.0019193857965451055
s(S'also'
p1246
S'defeated'
p1247
S'[[num]]'
p1248
tp1249
F0.0019193857965451055
s(g332
g333
S'of'
p1250
tp1251
F0.0019193857965451055
s(g320
g321
g1159
tp1252
F0.0019193857965451055
s(S'[[num]]'
p1253
S'son'
p1254
S'of'
p1255
tp1256
F0.0019193857965451055
s(S'then'
p1257
S'worked'
p1258
S'from'
p1259
tp1260
F0.0019193857965451055
s(S'was'
p1261
S'defeated'
p1262
S'for'
p1263
tp1264
F0.0019193857965451055
s(S'also'
p1265
S'met'
p1266
S'[[det]]'
p1267
tp1268
F0.0019193857965451055
s(S'carried'
p1269
g512
g513
tp1270
F0.0019193857965451055
s(S'[[det]]'
p1271
S'son'
p1272
S'became'
p1273
tp1274
F0.0019193857965451055
s(S'[[adj]]'
p1275
S'son'
p1276
S'[[pro]]'
p1277
tp1278
F0.0019193857965451055
s(S'has'
p1279
S'met'
p1280
S'[[con]]'
p1281
tp1282
F0.0019193857965451055
s(S'[[adj]]'
p1283
S'met'
p1284
S'while'
p1285
tp1286
F0.0019193857965451055
s(S'have'
p1287
S'worked'
p1288
S'under'
p1289
tp1290
F0.0019193857965451055
s(S'got'
p1291
g1217
g1218
tp1292
F0.0019193857965451055
s(S'[[adj]]'
p1293
S'led'
p1294
S'by'
p1295
tp1296
F0.0019193857965451055
s(S'[[con]]'
p1297
S'trained'
p1298
S'under'
p1299
tp1300
F0.0019193857965451055
s(S'[[num]]'
p1301
S'son'
p1302
S'[[det]]'
p1303
tp1304
F0.0019193857965451055
s(S'was'
p1305
S'left'
p1306
S'[[con]]'
p1307
tp1308
F0.0019193857965451055
s(S'has'
p1309
S'worked'
p1310
S'again'
p1311
tp1312
F0.0019193857965451055
s(S'[[det]]'
p1313
S'face'
p1314
S'of'
p1315
tp1316
F0.0019193857965451055
s(S'be'
p1317
S'defeated'
p1318
S'by'
p1319
tp1320
F0.0019193857965451055
s(g110
g111
S'after'
p1321
tp1322
F0.003838771593090211
s(S'had'
p1323
S'left'
p1324
S'in'
p1325
tp1326
F0.0019193857965451055
s(S'had'
p1327
S'worked'
p1328
S'under'
p1329
tp1330
F0.0019193857965451055
s(S'by'
p1331
S'defeating'
p1332
S'[[con]]'
p1333
tp1334
F0.0019193857965451055
s(S'received'
p1335
S'training'
p1336
S'from'
p1337
tp1338
F0.0019193857965451055
s(S'has'
p1339
S'worked'
p1340
S'together'
p1341
tp1342
F0.0019193857965451055
s(S'to'
p1343
S'face'
p1344
S'[[adj]]'
p1345
tp1346
F0.0019193857965451055
s(S'[[con]]'
p1347
S'turned'
p1348
S'on'
p1349
tp1350
F0.0019193857965451055
s(S'first'
p1351
S'met'
p1352
S'when'
p1353
tp1354
F0.0019193857965451055
s(S'[[con]]'
p1355
S'left'
p1356
S'in'
p1357
tp1358
F0.0019193857965451055
s(g855
g856
g1146
tp1359
F0.0019193857965451055
s(S'defeated'
p1360
S'[[con]]'
p1361
S'win'
p1362
tp1363
F0.003838771593090211
s(g1029
g1030
g628
tp1364
F0.0019193857965451055
s(S'was'
p1365
S'hit'
p1366
S'from'
p1367
tp1368
F0.0019193857965451055
s(S'[[con]]'
p1369
S'son'
p1370
S'of'
p1371
tp1372
F0.0019193857965451055
s(g87
g209
S'[[con]]'
p1373
tp1374
F0.0019193857965451055
s(S'was'
p1375
S'defeated'
p1376
S'[[con]]'
p1377
tp1378
F0.0019193857965451055
s(S'received'
p1379
S'[[prp]]'
p1380
S'[[adj]]'
p1381
tp1382
F0.0019193857965451055
s(S'is'
p1383
S'met'
p1384
S'by'
p1385
tp1386
F0.0019193857965451055
s(S'[[con]]'
p1387
S'defeated'
p1388
S'[[adj]]'
p1389
tp1390
F0.0019193857965451055
s(g321
g1159
g1160
tp1391
F0.0019193857965451055
s(S'[[con]]'
p1392
S'worked'
p1393
S'with'
p1394
tp1395
F0.0019193857965451055
s(g852
g1230
g371
tp1396
F0.0019193857965451055
s(S'[[adj]]'
p1397
g955
g956
tp1398
F0.0019193857965451055
s(S'[[con]]'
p1399
S'defeated'
p1400
S'[[con]]'
p1401
tp1402
F0.003838771593090211
s(S'[[det]]'
p1403
S'led'
p1404
S'by'
p1405
tp1406
F0.0019193857965451055
s(S'[[adj]]'
p1407
S'son'
p1408
S'[[num]]'
p1409
tp1410
F0.0019193857965451055
s(S'had'
p1411
S'met'
p1412
S'[[con]]'
p1413
tp1414
F0.0019193857965451055
s(S'began'
p1415
S'[[prp]]'
p1416
g61
tp1417
F0.0019193857965451055
s(g501
g502
g604
tp1418
F0.0019193857965451055
s(S'[[con]]'
p1419
S'won'
p1420
S'over'
p1421
tp1422
F0.0019193857965451055
s(S'has'
p1423
S'worked'
p1424
S'[[con]]'
p1425
tp1426
F0.0019193857965451055
s(S'be'
p1427
S'led'
p1428
S'by'
p1429
tp1430
F0.0019193857965451055
s(g1126
S'took'
p1431
S'pole'
p1432
tp1433
F0.0019193857965451055
s(S'who'
p1434
S'lost'
p1435
S'to'
p1436
tp1437
F0.0019193857965451055
s(S'has'
p1438
S'teamed'
p1439
S'with'
p1440
tp1441
F0.0019193857965451055
s(S'where'
p1442
S'met'
p1443
S'with'
p1444
tp1445
F0.0019193857965451055
s(S'[[det]]'
p1446
S'worked'
p1447
S'for'
p1448
tp1449
F0.0019193857965451055
s(S'to'
p1450
S'train'
p1451
S'for'
p1452
tp1453
F0.0019193857965451055
s(S'[[prp]]'
p1454
S'son'
p1455
S'was'
p1456
tp1457
F0.0019193857965451055
s(S'had'
p1458
S'met'
p1459
S'with'
p1460
tp1461
F0.0019193857965451055
s(g105
S'son'
p1462
S'with'
p1463
tp1464
F0.0019193857965451055
s(S'also'
p1465
S'met'
p1466
S'from'
p1467
tp1468
F0.0019193857965451055
s(S'be'
p1469
S'held'
p1470
S'by'
p1471
tp1472
F0.0019193857965451055
s(S'later'
p1473
S'turned'
p1474
S'to'
p1475
tp1476
F0.0019193857965451055
s(S'have'
p1477
S'worked'
p1478
S'with'
p1479
tp1480
F0.0019193857965451055
s(g1230
g371
g372
tp1481
F0.0019193857965451055
s(S'[[con]]'
p1482
S'lost'
p1483
S'[[prp]]'
p1484
tp1485
F0.0019193857965451055
s(S'was'
p1486
S'son'
p1487
S'of'
p1488
tp1489
F0.0019193857965451055
s(S'to'
p1490
S'win'
p1491
S'by'
p1492
tp1493
F0.0019193857965451055
s(S'been'
p1494
S'defeated'
p1495
S'by'
p1496
tp1497
F0.0019193857965451055
s(S'has'
p1498
S'worked'
p1499
S'under'
p1500
tp1501
F0.0019193857965451055
s(S'first'
p1502
S'met'
p1503
S'[[det]]'
p1504
tp1505
F0.0019193857965451055
s(S'was'
p1506
S'trained'
p1507
S'with'
p1508
tp1509
F0.0019193857965451055
s(S'took'
p1510
g967
g539
tp1511
F0.0019193857965451055
s(S'also'
p1512
S'held'
p1513
S'under'
p1514
tp1515
F0.0019193857965451055
s(S'[[adj]]'
p1516
g308
g309
tp1517
F0.0019193857965451055
s(S'to'
p1518
S'face'
p1519
S'[[con]]'
p1520
tp1521
F0.0019193857965451055
s(S'has'
p1522
S'won'
p1523
S'with'
p1524
tp1525
F0.0019193857965451055
s(g22
g23
S'got'
p1526
tp1527
F0.0019193857965451055
s(S'then'
p1528
S'worked'
p1529
S'along'
p1530
tp1531
F0.0019193857965451055
s(g1125
g1126
g1431
tp1532
F0.0019193857965451055
s(S'had'
p1533
S'turned'
p1534
S'to'
p1535
tp1536
F0.0019193857965451055
s(S'has'
p1537
S'worked'
p1538
S'with'
p1539
tp1540
F0.0019193857965451055
s(g105
S'son'
p1541
S'[[num]]'
p1542
tp1543
F0.0019193857965451055
s(S'was'
p1544
S'left'
p1545
S'[[adj]]'
p1546
tp1547
F0.0019193857965451055
s(S'also'
p1548
S'worked'
p1549
S'together'
p1550
tp1551
F0.0019193857965451055
s(S'[[adj]]'
p1552
S'lost'
p1553
S'to'
p1554
tp1555
F0.0019193857965451055
s(S'to'
p1556
S'win'
p1557
S'from'
p1558
tp1559
F0.0019193857965451055
s(S'was'
p1560
S'left'
p1561
S'to'
p1562
tp1563
F0.0019193857965451055
s(S'[[det]]'
p1564
S'son'
p1565
S'by'
p1566
tp1567
F0.0019193857965451055
s(g727
g728
g1029
tp1568
F0.0019193857965451055
s(S'[[det]]'
p1569
S'son'
p1570
S'[[adj]]'
p1571
tp1572
F0.0019193857965451055
s(S'again'
p1573
S'defeated'
p1574
S'by'
p1575
tp1576
F0.0019193857965451055
s(S'got'
p1577
g292
g293
tp1578
F0.0019193857965451055
s(S'has'
p1579
S'worked'
p1580
S'from'
p1581
tp1582
F0.0019193857965451055
s(S'was'
p1583
S'taught'
p1584
S'in'
p1585
tp1586
F0.0019193857965451055
s(S'also'
p1587
S'worked'
p1588
S'among'
p1589
tp1590
F0.0019193857965451055
s(g1416
g61
g62
tp1591
F0.003838771593090211
s(S'where'
p1592
S'met'
p1593
S'[[con]]'
p1594
tp1595
F0.0019193857965451055
s(S'was'
p1596
S'taught'
p1597
S'from'
p1598
tp1599
F0.0019193857965451055
s(S'had'
p1600
S'defeated'
p1601
S'[[adj]]'
p1602
tp1603
F0.0019193857965451055
s(S'to'
p1604
S'win'
p1605
S'over'
p1606
tp1607
F0.0019193857965451055
s(g285
g286
S'wrestler'
p1608
tp1609
F0.0019193857965451055
s(g179
g433
g850
tp1610
F0.0019193857965451055
s(S'[[prp]]'
p1611
S'son'
p1612
S'with'
p1613
tp1614
F0.0019193857965451055
s(S'then'
p1615
S'worked'
p1616
S'under'
p1617
tp1618
F0.0019193857965451055
s(S'also'
p1619
S'met'
p1620
S'[[con]]'
p1621
tp1622
F0.0019193857965451055
s(S'who'
p1623
S'worked'
p1624
S'under'
p1625
tp1626
F0.0019193857965451055
s(S'just'
p1627
S'ahead'
p1628
S'of'
p1629
tp1630
F0.0019193857965451055
s(S'also'
p1631
S'led'
p1632
S'[[con]]'
p1633
tp1634
F0.0019193857965451055
s(S'was'
p1635
S'defeated'
p1636
S'while'
p1637
tp1638
F0.0019193857965451055
s(S'[[mod]]'
p1639
S'win'
p1640
S'[[pro]]'
p1641
tp1642
F0.0019193857965451055
s(S'[[prp]]'
p1643
S'son'
p1644
S'[[det]]'
p1645
tp1646
F0.0019193857965451055
s(g105
S'son'
p1647
S'of'
p1648
tp1649
F0.0019193857965451055
s(S'who'
p1650
S'held'
p1651
S'in'
p1652
tp1653
F0.0019193857965451055
s(S'son'
p1654
S'[[con]]'
p1655
S'son'
p1656
tp1657
F0.0019193857965451055
s(S'[[con]]'
p1658
S'lost'
p1659
S'to'
p1660
tp1661
F0.0019193857965451055
s(S'also'
p1662
S'held'
p1663
S'[[det]]'
p1664
tp1665
F0.0019193857965451055
s(S'who'
p1666
S'led'
p1667
S'[[det]]'
p1668
tp1669
F0.0019193857965451055
s(S'by'
p1670
S'margin'
p1671
S'over'
p1672
tp1673
F0.0019193857965451055
s(S'later'
p1674
S'won'
p1675
S'for'
p1676
tp1677
F0.0019193857965451055
s(S'have'
p1678
S'met'
p1679
S'with'
p1680
tp1681
F0.0019193857965451055
s(S'later'
p1682
S'worked'
p1683
S'under'
p1684
tp1685
F0.0019193857965451055
s(S'was'
p1686
S'defeated'
p1687
S'to'
p1688
tp1689
F0.0019193857965451055
s(S'to'
p1690
S'train'
p1691
S'[[adj]]'
p1692
tp1693
F0.0019193857965451055
s(S'since'
p1694
S'worked'
p1695
S'[[con]]'
p1696
tp1697
F0.0019193857965451055
s(S'[[det]]'
p1698
g421
g422
tp1699
F0.003838771593090211
s(S'first'
p1700
S'worked'
p1701
S'to'
p1702
tp1703
F0.0019193857965451055
s(g105
S'hit'
p1704
S'with'
p1705
tp1706
F0.0019193857965451055
s(S'then'
p1707
S'worked'
p1708
S'[[con]]'
p1709
tp1710
F0.0019193857965451055
s(S'had'
p1711
S'met'
p1712
S'while'
p1713
tp1714
F0.0019193857965451055
s(S'later'
p1715
S'teamed'
p1716
S'with'
p1717
tp1718
F0.0019193857965451055
s(S'[[adj]]'
p1719
S'win'
p1720
S'[[con]]'
p1721
tp1722
F0.0019193857965451055
s(S'then'
p1723
S'met'
p1724
S'with'
p1725
tp1726
F0.0019193857965451055
s(S'prevented'
p1727
g319
g320
tp1728
F0.0019193857965451055
s(S'had'
p1729
S'left'
p1730
S'to'
p1731
tp1732
F0.0019193857965451055
s(S'also'
p1733
S'trained'
p1734
S'for'
p1735
tp1736
F0.0019193857965451055
s(S'then'
p1737
S'lost'
p1738
S'to'
p1739
tp1740
F0.0019193857965451055
s(g384
g385
g177
tp1741
F0.0019193857965451055
s(S'is'
p1742
S'led'
p1743
S'to'
p1744
tp1745
F0.0019193857965451055
s(S'[[adj]]'
p1746
S'son'
p1747
S'to'
p1748
tp1749
F0.0019193857965451055
s(S'where'
p1750
S'lost'
p1751
S'to'
p1752
tp1753
F0.0019193857965451055
s(S'began'
p1754
S'training'
p1755
S'with'
p1756
tp1757
F0.0019193857965451055
s(S'[[con]]'
p1758
S'defeated'
p1759
S'win'
p1760
tp1761
F0.0019193857965451055
s(g1228
g1183
g1021
tp1762
F0.0019193857965451055
s(S'carried'
p1763
g1670
g1671
tp1764
F0.0019193857965451055
s(S'[[adj]]'
p1765
S'son'
p1766
S'was'
p1767
tp1768
F0.0019193857965451055
s(S'[[det]]'
p1769
S'lead'
p1770
S'[[con]]'
p1771
tp1772
F0.0019193857965451055
s(S'that'
p1773
S'worked'
p1774
S'along'
p1775
tp1776
F0.0019193857965451055
s(g385
g177
g178
tp1777
F0.0019193857965451055
s(g102
g103
g493
tp1778
F0.0019193857965451055
s(S'has'
p1779
S'worked'
p1780
S'until'
p1781
tp1782
F0.0019193857965451055
s(S'had'
p1783
S'worked'
p1784
S'to'
p1785
tp1786
F0.0019193857965451055
s(S'[[num]]'
p1787
S'son'
p1788
S'[[con]]'
p1789
tp1790
F0.0019193857965451055
s(S'[[adj]]'
p1791
S'son'
p1792
S'by'
p1793
tp1794
F0.0019193857965451055
s(g617
g618
S'win'
p1795
tp1796
F0.0019193857965451055
s(S'have'
p1797
g781
g782
tp1798
F0.0019193857965451055
s(S'also'
p1799
S'worked'
p1800
S'by'
p1801
tp1802
F0.0019193857965451055
s(S'then'
p1803
S'turned'
p1804
S'up'
p1805
tp1806
F0.0019193857965451055
s(S'[[num]]'
p1807
S'son'
p1808
S'by'
p1809
tp1810
F0.0019193857965451055
s(S'had'
p1811
S'left'
p1812
S'by'
p1813
tp1814
F0.0019193857965451055
s(S'also'
p1815
S'met'
p1816
S'with'
p1817
tp1818
F0.0019193857965451055
s.