(dp0
(S'was'
p1
S'served'
p2
S'by'
p3
tp4
F0.0041841004184100415
s(S'to'
p5
S'work'
p6
S'[[adj]]'
p7
tp8
F0.0041841004184100415
s(S'to'
p9
S'work'
p10
S'among'
p11
tp12
F0.0041841004184100415
s(S'[[con]]'
p13
S'retired'
p14
S'from'
p15
tp16
F0.0041841004184100415
s(S'was'
p17
S'selected'
p18
S'at'
p19
tp20
F0.0041841004184100415
s(S'be'
p21
S'purchased'
p22
S'by'
p23
tp24
F0.0041841004184100415
s(S'had'
p25
S'merged'
p26
S'with'
p27
tp28
F0.0041841004184100415
s(S'to'
p29
S'work'
p30
S'from'
p31
tp32
F0.0041841004184100415
s(S'owned'
p33
S'subsidiary'
p34
S'of'
p35
tp36
F0.02092050209205021
s(S'later'
p37
S'selected'
p38
S'by'
p39
tp40
F0.0041841004184100415
s(S'later'
p41
S'merged'
p42
S'[[con]]'
p43
tp44
F0.0041841004184100415
s(S'later'
p45
S'merged'
p46
S'with'
p47
tp48
F0.0041841004184100415
s(S'as'
p49
S'[[det]]'
p50
S'wholly'
p51
tp52
F0.0041841004184100415
s(S'be'
p53
S'acquired'
p54
S'by'
p55
tp56
F0.0041841004184100415
s(S'then'
p57
S'merged'
p58
S'with'
p59
tp60
F0.0041841004184100415
s(S'[[det]]'
p61
S'school'
p62
S'of'
p63
tp64
F0.0041841004184100415
s(S'was'
p65
S'merged'
p66
S'into'
p67
tp68
F0.0041841004184100415
s(S'wholly'
p69
S'subsidiary'
p70
S'of'
p71
tp72
F0.0041841004184100415
s(S'[[det]]'
p73
S'work'
p74
S'for'
p75
tp76
F0.0041841004184100415
s(S'[[con]]'
p77
S'is'
p78
S'served'
p79
tp80
F0.0041841004184100415
s(S'to'
p81
S'leave'
p82
S'[[adj]]'
p83
tp84
F0.0041841004184100415
s(S'member'
p85
S'[[det]]'
p86
S'ucu'
p87
tp88
F0.0041841004184100415
s(S'also'
p89
S'selected'
p90
S'as'
p91
tp92
F0.0041841004184100415
s(S'now'
p93
S'serves'
p94
S'as'
p95
tp96
F0.0041841004184100415
s(S'then'
p97
S'selected'
p98
S'by'
p99
tp100
F0.0041841004184100415
s(S'were'
p101
S'acquired'
p102
S'by'
p103
tp104
F0.0041841004184100415
s(S'[[det]]'
p105
S'retired'
p106
S'in'
p107
tp108
F0.0041841004184100415
s(S'were'
p109
S'purchased'
p110
S'from'
p111
tp112
F0.0041841004184100415
s(S'member'
p113
S'of'
p114
S'[[det]]'
p115
tp116
F0.0041841004184100415
s(S'was'
p117
S'retired'
p118
S'from'
p119
tp120
F0.0041841004184100415
s(g86
g87
S'of'
p121
tp122
F0.0041841004184100415
s(S'been'
p123
S'selected'
p124
S'for'
p125
tp126
F0.0041841004184100415
s(S'when'
p127
S'retired'
p128
S'from'
p129
tp130
F0.0041841004184100415
s(S'being'
p131
S'acquired'
p132
S'by'
p133
tp134
F0.0041841004184100415
s(S'[[adj]]'
p135
S'division'
p136
S'of'
p137
tp138
F0.0041841004184100415
s(S'[[mod]]'
p139
S'work'
p140
S'for'
p141
tp142
F0.0041841004184100415
s(S'[[det]]'
p143
S'subsidiary'
p144
S'of'
p145
tp146
F0.0041841004184100415
s(S'[[det]]'
p147
S'station'
p148
S'served'
p149
tp150
F0.0041841004184100415
s(S'been'
p151
S'selected'
p152
S'by'
p153
tp154
F0.0041841004184100415
s(S'be'
p155
S'served'
p156
S'by'
p157
tp158
F0.0041841004184100415
s(S'was'
p159
S'selected'
p160
S'[[con]]'
p161
tp162
F0.0041841004184100415
s(S'[[det]]'
p163
S'[[adj]]'
p164
S'player'
p165
tp166
F0.0041841004184100415
s(S'until'
p167
S'retired'
p168
S'from'
p169
tp170
F0.0041841004184100415
s(S'was'
p171
S'selected'
p172
S'against'
p173
tp174
F0.0041841004184100415
s(S'[[det]]'
p175
S'work'
p176
S'[[con]]'
p177
tp178
F0.0041841004184100415
s(S'had'
p179
S'purchased'
p180
S'from'
p181
tp182
F0.0041841004184100415
s(S'was'
p183
S'purchased'
p184
S'by'
p185
tp186
F0.0041841004184100415
s(S'was'
p187
S'selected'
p188
S'for'
p189
tp190
F0.0041841004184100415
s(S'then'
p191
S'selected'
p192
S'to'
p193
tp194
F0.0041841004184100415
s(S'not'
p195
S'leave'
p196
S'[[det]]'
p197
tp198
F0.0041841004184100415
s(S'[[adj]]'
p199
S'venture'
p200
S'[[con]]'
p201
tp202
F0.0041841004184100415
s(S'which'
p203
S'merged'
p204
S'with'
p205
tp206
F0.0041841004184100415
s(S'[[det]]'
p207
g85
g86
tp208
F0.0041841004184100415
s(S'[[adj]]'
p209
S'school'
p210
S'[[con]]'
p211
tp212
F0.0041841004184100415
s(S'also'
p213
S'serves'
p214
S'on'
p215
tp216
F0.0041841004184100415
s(S'[[adj]]'
p217
S'station'
p218
S'served'
p219
tp220
F0.0041841004184100415
s(S'[[det]]'
p221
g113
g114
tp222
F0.0041841004184100415
s(S'to'
p223
S'work'
p224
S'for'
p225
tp226
F0.0041841004184100415
s(S'was'
p227
S'merged'
p228
S'to'
p229
tp230
F0.0041841004184100415
s(S'was'
p231
S'selected'
p232
S'to'
p233
tp234
F0.0041841004184100415
s(S'[[adj]]'
p235
S'school'
p236
S'that'
p237
tp238
F0.0041841004184100415
s(S'also'
p239
S'selected'
p240
S'[[det]]'
p241
tp242
F0.0041841004184100415
s(S'found'
p243
S'work'
p244
S'for'
p245
tp246
F0.0041841004184100415
s(S'announced'
p247
S'that'
p248
S'[[mod]]'
p249
tp250
F0.008368200836820083
s(S'now'
p251
S'serves'
p252
S'for'
p253
tp254
F0.0041841004184100415
s(S'been'
p255
S'acquired'
p256
S'by'
p257
tp258
F0.0041841004184100415
s(S'were'
p259
S'bought'
p260
S'by'
p261
tp262
F0.0041841004184100415
s(g70
g71
S'is'
p263
tp264
F0.0041841004184100415
s(S'[[con]]'
p265
S'leave'
p266
S'for'
p267
tp268
F0.0041841004184100415
s(S'also'
p269
S'acquired'
p270
S'from'
p271
tp272
F0.0041841004184100415
s(S'established'
p273
g49
g50
tp274
F0.0041841004184100415
s(S's'
p275
S'work'
p276
S'for'
p277
tp278
F0.0041841004184100415
s(S'was'
p279
S'purchased'
p280
S'[[con]]'
p281
tp282
F0.0041841004184100415
s(S'[[adj]]'
p283
S'venture'
p284
S'with'
p285
tp286
F0.0041841004184100415
s(S'had'
p287
S'acquired'
p288
S'[[det]]'
p289
tp290
F0.0041841004184100415
s(S'be'
p291
S'selected'
p292
S'by'
p293
tp294
F0.0041841004184100415
s(g263
S'owned'
p295
S'by'
p296
tp297
F0.0041841004184100415
s(S'currently'
p298
S'serves'
p299
S'to'
p300
tp301
F0.0041841004184100415
s(S'then'
p302
S'bought'
p303
S'[[con]]'
p304
tp305
F0.0041841004184100415
s(S'currently'
p306
S'serves'
p307
S'at'
p308
tp309
F0.0041841004184100415
s(S'been'
p310
S'selected'
p311
S'as'
p312
tp313
F0.0041841004184100415
s(S'then'
p314
S'selected'
p315
S'against'
p316
tp317
F0.0041841004184100415
s(S'then'
p318
S'selected'
p319
S'as'
p320
tp321
F0.0041841004184100415
s(S'later'
p322
S'acquired'
p323
S'[[num]]'
p324
tp325
F0.0041841004184100415
s(S'[[adj]]'
p326
S'school'
p327
S'of'
p328
tp329
F0.0041841004184100415
s(S'had'
p330
S'retired'
p331
S'from'
p332
tp333
F0.0041841004184100415
s(S'station'
p334
S'that'
p335
S'is'
p336
tp337
F0.0041841004184100415
s(S'again'
p338
S'selected'
p339
S'for'
p340
tp341
F0.0041841004184100415
s(S'been'
p342
S'purchased'
p343
S'by'
p344
tp345
F0.0041841004184100415
s(S'be'
p346
S'merged'
p347
S'with'
p348
tp349
F0.0041841004184100415
s(S'[[det]]'
p350
S'leave'
p351
S'from'
p352
tp353
F0.0041841004184100415
s(g71
g263
g295
tp354
F0.0041841004184100415
s(S'been'
p355
S'served'
p356
S'in'
p357
tp358
F0.0041841004184100415
s(S'was'
p359
S'rated'
p360
g163
tp361
F0.0041841004184100415
s(S'was'
p362
S'bought'
p363
S'[[con]]'
p364
tp365
F0.0041841004184100415
s(S'is'
p366
S'served'
p367
S'only'
p368
tp369
F0.0041841004184100415
s(S'also'
p370
S'selected'
p371
S'[[adj]]'
p372
tp373
F0.0041841004184100415
s(S'also'
p374
S'serves'
p375
S'as'
p376
tp377
F0.0041841004184100415
s(S'[[adj]]'
p378
S'subsidiary'
p379
S'of'
p380
tp381
F0.0041841004184100415
s(S'were'
p382
S'purchased'
p383
S'by'
p384
tp385
F0.0041841004184100415
s(S'[[con]]'
p386
S'serves'
p387
S'on'
p388
tp389
F0.0041841004184100415
s(S'also'
p390
S'selected'
p391
S'to'
p392
tp393
F0.0041841004184100415
s(S'[[con]]'
p394
S'[[det]]'
p395
S'wholly'
p396
tp397
F0.0041841004184100415
s(S'to'
p398
S'leave'
p399
S'[[det]]'
p400
tp401
F0.008368200836820083
s(S'had'
p402
S'acquired'
p403
S'[[con]]'
p404
tp405
F0.0041841004184100415
s(S'was'
p406
S'selected'
p407
S'by'
p408
tp409
F0.0041841004184100415
s(S'also'
p410
S'serves'
p411
S'[[det]]'
p412
tp413
F0.0041841004184100415
s(S'is'
p414
S'selected'
p415
S'by'
p416
tp417
F0.0041841004184100415
s(S'also'
p418
S'selected'
p419
S'in'
p420
tp421
F0.0041841004184100415
s(S'was'
p422
S'selected'
p423
S'as'
p424
tp425
F0.0041841004184100415
s(g248
g249
S'leave'
p426
tp427
F0.008368200836820083
s(S'was'
p428
g273
g49
tp429
F0.0041841004184100415
s(S'[[adj]]'
p430
S'work'
p431
S'in'
p432
tp433
F0.0041841004184100415
s(S'also'
p434
S'serves'
p435
S'[[con]]'
p436
tp437
F0.0041841004184100415
s(S'was'
p438
S'selected'
p439
S'[[num]]'
p440
tp441
F0.0041841004184100415
s(S'not'
p442
S'selected'
p443
S'against'
p444
tp445
F0.0041841004184100415
s(S'that'
p446
S'to'
p447
S'leave'
p448
tp449
F0.0041841004184100415
s(S'also'
p450
S'serves'
p451
S'for'
p452
tp453
F0.0041841004184100415
s(S'[[adj]]'
p454
S'work'
p455
S'at'
p456
tp457
F0.0041841004184100415
s(S'is'
p458
S'selected'
p459
S'as'
p460
tp461
F0.0041841004184100415
s(S'now'
p462
S'serves'
p463
S'at'
p464
tp465
F0.0041841004184100415
s(g35
S'based'
p466
S'in'
p467
tp468
F0.0041841004184100415
s(S'[[adj]]'
p469
S'school'
p470
S'to'
p471
tp472
F0.0041841004184100415
s(S'was'
p473
S'bought'
p474
S'by'
p475
tp476
F0.0041841004184100415
s(S'currently'
p477
S'serves'
p478
S'for'
p479
tp480
F0.0041841004184100415
s(S'later'
p481
S'work'
p482
S'with'
p483
tp484
F0.0041841004184100415
s(S'[[det]]'
p485
S'division'
p486
S'[[det]]'
p487
tp488
F0.0041841004184100415
s(S'[[prp]]'
p489
S'work'
p490
S'at'
p491
tp492
F0.0041841004184100415
s(S'to'
p493
S'leave'
p494
S'for'
p495
tp496
F0.0041841004184100415
s(S'acquired'
p497
g394
g395
tp498
F0.0041841004184100415
s(S'[[adj]]'
p499
S'division'
p500
S'in'
p501
tp502
F0.0041841004184100415
s(g34
g35
g466
tp503
F0.0041841004184100415
s(S'[[adj]]'
p504
S'selected'
p505
S'for'
p506
tp507
F0.0041841004184100415
s(S'[[adj]]'
p508
S'school'
p509
S'[[adj]]'
p510
tp511
F0.0041841004184100415
s(S'[[num]]'
p512
S'division'
p513
S'[[con]]'
p514
tp515
F0.0041841004184100415
s(S'[[mod]]'
p516
S'work'
p517
S'at'
p518
tp519
F0.0041841004184100415
s(S'also'
p520
S'serves'
p521
S'to'
p522
tp523
F0.0041841004184100415
s(S'to'
p524
S'work'
p525
S'[[det]]'
p526
tp527
F0.0041841004184100415
s(g148
g149
S'by'
p528
tp529
F0.008368200836820083
s(g275
S'work'
p530
S'at'
p531
tp532
F0.0041841004184100415
s(S'that'
p533
S'served'
p534
S'in'
p535
tp536
F0.0041841004184100415
s(S'[[con]]'
p537
S'merged'
p538
S'with'
p539
tp540
F0.0041841004184100415
s(S'was'
p541
S'purchased'
p542
S'in'
p543
tp544
F0.0041841004184100415
s(S'also'
p545
S'serves'
p546
S'[[num]]'
p547
tp548
F0.0041841004184100415
s(S'was'
p549
S'bought'
p550
S'out'
p551
tp552
F0.0041841004184100415
s(S'was'
p553
S'originally'
p554
S'[[adj]]'
p555
tp556
F0.0041841004184100415
s(S'also'
p557
S'acquired'
p558
S'[[det]]'
p559
tp560
F0.0041841004184100415
s(S'also'
p561
S'served'
p562
S'by'
p563
tp564
F0.0041841004184100415
s(S'wholly'
p565
g33
g34
tp566
F0.029288702928870293
s(S'being'
p567
S'selected'
p568
S'by'
p569
tp570
F0.0041841004184100415
s(S'is'
p571
S'retired'
p572
S'from'
p573
tp574
F0.0041841004184100415
s(S'later'
p575
S'merged'
p576
S'into'
p577
tp578
F0.0041841004184100415
s(S'was'
p579
S'selected'
p580
S'with'
p581
tp582
F0.0041841004184100415
s(S'again'
p583
S'selected'
p584
S'in'
p585
tp586
F0.0041841004184100415
s(S'was'
p587
S'merged'
p588
S'with'
p589
tp590
F0.0041841004184100415
s(S'[[adj]]'
p591
S'work'
p592
S'for'
p593
tp594
F0.0041841004184100415
s(S'not'
p595
S'selected'
p596
S'by'
p597
tp598
F0.0041841004184100415
s(S'which'
p599
S'served'
p600
S'with'
p601
tp602
F0.0041841004184100415
s(g164
g165
S'by'
p603
tp604
F0.0041841004184100415
s(S'is'
p605
S'served'
p606
S'by'
p607
tp608
F0.012552301255230125
s(S'currently'
p609
S'serves'
p610
S'[[det]]'
p611
tp612
F0.0041841004184100415
s(g335
g336
S'served'
p613
tp614
F0.0041841004184100415
s(S'was'
p615
S'selected'
p616
S'[[adj]]'
p617
tp618
F0.0041841004184100415
s(S'when'
p619
S'merged'
p620
S'with'
p621
tp622
F0.0041841004184100415
s(S'was'
p623
S'acquired'
p624
S'[[con]]'
p625
tp626
F0.008368200836820083
s(S'[[det]]'
p627
S'school'
p628
S'[[con]]'
p629
tp630
F0.0041841004184100415
s(S'had'
p631
S'purchased'
p632
S'[[det]]'
p633
tp634
F0.0041841004184100415
s(S'was'
p635
S'selected'
p636
S'[[det]]'
p637
tp638
F0.0041841004184100415
s(S'then'
p639
S'selected'
p640
S'in'
p641
tp642
F0.0041841004184100415
s(S'was'
p643
S'selected'
p644
S'after'
p645
tp646
F0.0041841004184100415
s(S'also'
p647
S'selected'
p648
S'by'
p649
tp650
F0.0041841004184100415
s(S'currently'
p651
S'serves'
p652
S'on'
p653
tp654
F0.0041841004184100415
s(S'[[det]]'
p655
S'division'
p656
S'of'
p657
tp658
F0.0041841004184100415
s(S'[[det]]'
p659
g334
g335
tp660
F0.0041841004184100415
s(S'done'
p661
S'work'
p662
S'for'
p663
tp664
F0.0041841004184100415
s(S'[[con]]'
p665
S'merged'
p666
S'into'
p667
tp668
F0.0041841004184100415
s(S'later'
p669
S'purchased'
p670
S'by'
p671
tp672
F0.0041841004184100415
s(S'announced'
p673
S'[[mod]]'
p674
S'leave'
p675
tp676
F0.0041841004184100415
s(S'[[mod]]'
p677
S'leave'
p678
S'[[con]]'
p679
tp680
F0.0041841004184100415
s(S'be'
p681
S'selected'
p682
S'for'
p683
tp684
F0.0041841004184100415
s(S'[[adj]]'
p685
S'school'
p686
S'for'
p687
tp688
F0.0041841004184100415
s(S'be'
p689
S'merged'
p690
S'into'
p691
tp692
F0.0041841004184100415
s(S'were'
p693
S'originally'
p694
S'[[det]]'
p695
tp696
F0.0041841004184100415
s(S'[[det]]'
p697
S'work'
p698
S'in'
p699
tp700
F0.0041841004184100415
s(S'station'
p701
g77
g78
tp702
F0.0041841004184100415
s(S'currently'
p703
S'serves'
p704
S'as'
p705
tp706
F0.0041841004184100415
s(S'only'
p707
S'served'
p708
S'by'
p709
tp710
F0.0041841004184100415
s(S'were'
p711
S'merged'
p712
S'into'
p713
tp714
F0.0041841004184100415
s(S'also'
p715
S'selected'
p716
S'for'
p717
tp718
F0.0041841004184100415
s(S'[[mod]]'
p719
S'leave'
p720
S'[[det]]'
p721
tp722
F0.008368200836820083
s(S'was'
p723
S'originally'
p724
S'on'
p725
tp726
F0.0041841004184100415
s(g360
g163
g164
tp727
F0.0041841004184100415
s(S'[[adj]]'
p728
S'venture'
p729
S'between'
p730
tp731
F0.0041841004184100415
s(S'also'
p732
S'serves'
p733
S'at'
p734
tp735
F0.0041841004184100415
s(S'[[pro]]'
p736
S'acquired'
p737
S'by'
p738
tp739
F0.0041841004184100415
s(S'was'
p740
S'merged'
p741
S'[[con]]'
p742
tp743
F0.0041841004184100415
s(S'[[adj]]'
p744
S'venture'
p745
S'of'
p746
tp747
F0.0041841004184100415
s(S'had'
p748
S'merged'
p749
S'into'
p750
tp751
F0.0041841004184100415
s(S'[[con]]'
p752
S'acquired'
p753
S'by'
p754
tp755
F0.0041841004184100415
s(S'was'
p756
S'acquired'
p757
S'by'
p758
tp759
F0.0041841004184100415
s(S'[[det]]'
p760
g565
g33
tp761
F0.02092050209205021
s(S'also'
p762
S'serves'
p763
S'in'
p764
tp765
F0.0041841004184100415
s(S'to'
p766
S'work'
p767
S'at'
p768
tp769
F0.0041841004184100415
s(S'later'
p770
S'acquired'
p771
S'by'
p772
tp773
F0.0041841004184100415
s(S'found'
p774
S'work'
p775
S'at'
p776
tp777
F0.0041841004184100415
s(S'had'
p778
S'acquired'
p779
S'from'
p780
tp781
F0.0041841004184100415
s(S'be'
p782
S'selected'
p783
S'to'
p784
tp785
F0.0041841004184100415
s(S'announced'
p786
g446
g447
tp787
F0.0041841004184100415
s(S'currently'
p788
S'serves'
p789
S'[[con]]'
p790
tp791
F0.0041841004184100415
s(S'later'
p792
S'bought'
p793
S'by'
p794
tp795
F0.0041841004184100415
s(S'was'
p796
S'selected'
p797
S'from'
p798
tp799
F0.0041841004184100415
s(S'[[adj]]'
p800
S'work'
p801
S'as'
p802
tp803
F0.0041841004184100415
s(g114
g115
S'ucu'
p804
tp805
F0.0041841004184100415
s(S'[[con]]'
p806
S'merged'
p807
S'to'
p808
tp809
F0.0041841004184100415
s(S'[[mod]]'
p810
S'leave'
p811
S'for'
p812
tp813
F0.0041841004184100415
s(S'[[det]]'
p814
g69
g70
tp815
F0.0041841004184100415
s(S'[[con]]'
p816
S'serves'
p817
S'in'
p818
tp819
F0.0041841004184100415
s.