(dp0
(S'be'
p1
S'appointed'
p2
S'[[det]]'
p3
tp4
F0.008264462809917356
s(S'also'
p5
S'ran'
p6
S'with'
p7
tp8
F0.008264462809917356
s(S'also'
p9
S'ran'
p10
S'against'
p11
tp12
F0.008264462809917356
s(S'was'
p13
S'replaced'
p14
S'from'
p15
tp16
F0.008264462809917356
s(S'is'
p17
S'appointed'
p18
S'as'
p19
tp20
F0.008264462809917356
s(S'being'
p21
S'appointed'
p22
S'to'
p23
tp24
F0.008264462809917356
s(S'[[det]]'
p25
S'choice'
p26
S'of'
p27
tp28
F0.008264462809917356
s(S'was'
p29
S'appointed'
p30
S'[[con]]'
p31
tp32
F0.008264462809917356
s(S'then'
p33
S'ran'
p34
S'with'
p35
tp36
F0.008264462809917356
s(S'had'
p37
S'appointed'
p38
S'to'
p39
tp40
F0.008264462809917356
s(S'then'
p41
S'appointed'
p42
S'by'
p43
tp44
F0.008264462809917356
s(S'[[pro]]'
p45
S'replaced'
p46
S'by'
p47
tp48
F0.008264462809917356
s(S'was'
p49
S'replaced'
p50
S'as'
p51
tp52
F0.008264462809917356
s(S'were'
p53
S'appointed'
p54
S'by'
p55
tp56
F0.008264462809917356
s(S'then'
p57
S'replaced'
p58
S'with'
p59
tp60
F0.008264462809917356
s(S'had'
p61
S'appointed'
p62
S'in'
p63
tp64
F0.008264462809917356
s(S'is'
p65
S'replaced'
p66
S'as'
p67
tp68
F0.008264462809917356
s(S'is'
p69
S'appointed'
p70
S'after'
p71
tp72
F0.008264462809917356
s(S'been'
p73
S'appointed'
p74
S'to'
p75
tp76
F0.008264462809917356
s(S'later'
p77
S'appointed'
p78
S'[[con]]'
p79
tp80
F0.008264462809917356
s(S'being'
p81
S'appointed'
p82
S'as'
p83
tp84
F0.008264462809917356
s(S'[[con]]'
p85
S'replaced'
p86
S'[[pro]]'
p87
tp88
F0.008264462809917356
s(S'was'
p89
S'appointed'
p90
S'by'
p91
tp92
F0.008264462809917356
s(S'[[adj]]'
p93
S'choice'
p94
S'for'
p95
tp96
F0.008264462809917356
s(S'was'
p97
S'appointed'
p98
S'with'
p99
tp100
F0.008264462809917356
s(S'also'
p101
S'replaced'
p102
S'by'
p103
tp104
F0.008264462809917356
s(S'later'
p105
S'appointed'
p106
S'as'
p107
tp108
F0.008264462809917356
s(S'later'
p109
S'appointed'
p110
S'[[det]]'
p111
tp112
F0.008264462809917356
s(S'[[con]]'
p113
S'appointed'
p114
S'[[pro]]'
p115
tp116
F0.008264462809917356
s(S'then'
p117
S'appointed'
p118
S'to'
p119
tp120
F0.008264462809917356
s(S'was'
p121
S'replaced'
p122
S'while'
p123
tp124
F0.008264462809917356
s(S'[[adj]]'
p125
S'choice'
p126
S'to'
p127
tp128
F0.008264462809917356
s(S'was'
p129
S'replaced'
p130
S'after'
p131
tp132
F0.008264462809917356
s(S'being'
p133
S'appointed'
p134
S'by'
p135
tp136
F0.008264462809917356
s(S'was'
p137
S'replaced'
p138
S'with'
p139
tp140
F0.008264462809917356
s(S's'
p141
S'choice'
p142
S'of'
p143
tp144
F0.008264462809917356
s(S'was'
p145
S'appointed'
p146
S'under'
p147
tp148
F0.008264462809917356
s(S'being'
p149
S'replaced'
p150
S'by'
p151
tp152
F0.008264462809917356
s(S'been'
p153
S'appointed'
p154
S'as'
p155
tp156
F0.008264462809917356
s(S'been'
p157
S'appointed'
p158
S'by'
p159
tp160
F0.008264462809917356
s(S'were'
p161
S'replaced'
p162
S'with'
p163
tp164
F0.008264462809917356
s(S'had'
p165
S'wanted'
p166
S'to'
p167
tp168
F0.008264462809917356
s(S'is'
p169
S'appointed'
p170
S'[[det]]'
p171
tp172
F0.008264462809917356
s(S'was'
p173
S'replaced'
p174
S'[[con]]'
p175
tp176
F0.008264462809917356
s(S'is'
p177
S'replaced'
p178
S'by'
p179
tp180
F0.008264462809917356
s(S'[[adj]]'
p181
S'choice'
p182
S'as'
p183
tp184
F0.008264462809917356
s(S'being'
p185
S'appointed'
p186
S'[[det]]'
p187
tp188
F0.008264462809917356
s(S'be'
p189
S'replaced'
p190
S'by'
p191
tp192
F0.008264462809917356
s(S'later'
p193
S'appointed'
p194
S'by'
p195
tp196
F0.008264462809917356
s(S'who'
p197
S'appointed'
p198
S'[[det]]'
p199
tp200
F0.008264462809917356
s(S'also'
p201
S'appointed'
p202
S'[[con]]'
p203
tp204
F0.008264462809917356
s(S'also'
p205
S'replaced'
p206
S'as'
p207
tp208
F0.008264462809917356
s(S'[[con]]'
p209
S'appointed'
p210
S'as'
p211
tp212
F0.008264462809917356
s(S'that'
p213
S'wanted'
p214
S'to'
p215
tp216
F0.008264462809917356
s(S'later'
p217
S'replaced'
p218
S'with'
p219
tp220
F0.008264462809917356
s(S'[[adj]]'
p221
S'choice'
p222
S'[[con]]'
p223
tp224
F0.008264462809917356
s(S'be'
p225
S'appointed'
p226
S'to'
p227
tp228
F0.008264462809917356
s(S'[[adj]]'
p229
S'appointed'
p230
S'by'
p231
tp232
F0.008264462809917356
s(S'was'
p233
S'replaced'
p234
S'by'
p235
tp236
F0.008264462809917356
s(S'also'
p237
S'appointed'
p238
S'by'
p239
tp240
F0.008264462809917356
s(S'then'
p241
S'ran'
p242
S'[[adj]]'
p243
tp244
F0.008264462809917356
s(S'first'
p245
S'appointed'
p246
S'by'
p247
tp248
F0.008264462809917356
s(S'had'
p249
S'replaced'
p250
S'with'
p251
tp252
F0.008264462809917356
s(S'had'
p253
S'appointed'
p254
S'as'
p255
tp256
F0.008264462809917356
s(S'were'
p257
S'replaced'
p258
S'by'
p259
tp260
F0.008264462809917356
s(S'later'
p261
S'appointed'
p262
S'of'
p263
tp264
F0.008264462809917356
s(S'[[con]]'
p265
S'replaced'
p266
S'[[adj]]'
p267
tp268
F0.008264462809917356
s(S'[[det]]'
p269
S'appointed'
p270
S'[[con]]'
p271
tp272
F0.008264462809917356
s(S'had'
p273
S'replaced'
p274
S'[[det]]'
p275
tp276
F0.008264462809917356
s(S'also'
p277
S'appointed'
p278
S'as'
p279
tp280
F0.008264462809917356
s(S'had'
p281
S'replaced'
p282
S'[[pro]]'
p283
tp284
F0.008264462809917356
s(S'which'
p285
S'replaced'
p286
S'[[det]]'
p287
tp288
F0.008264462809917356
s(S'was'
p289
S'appointed'
p290
S'[[adj]]'
p291
tp292
F0.008264462809917356
s(S'[[det]]'
p293
S'choice'
p294
S'[[con]]'
p295
tp296
F0.008264462809917356
s(S'be'
p297
S'replaced'
p298
S'as'
p299
tp300
F0.008264462809917356
s(S'then'
p301
S'replaced'
p302
S'by'
p303
tp304
F0.008264462809917356
s(S'[[det]]'
p305
S'appointed'
p306
S'by'
p307
tp308
F0.008264462809917356
s(S'[[con]]'
p309
S'ran'
p310
S'into'
p311
tp312
F0.008264462809917356
s(S'be'
p313
S'appointed'
p314
S'as'
p315
tp316
F0.008264462809917356
s(S'later'
p317
S'replaced'
p318
S'by'
p319
tp320
F0.008264462809917356
s(S'been'
p321
S'replaced'
p322
S'by'
p323
tp324
F0.008264462809917356
s(S'again'
p325
S'ran'
p326
S'for'
p327
tp328
F0.008264462809917356
s(S'again'
p329
S'appointed'
p330
S'[[det]]'
p331
tp332
F0.008264462809917356
s(S'[[con]]'
p333
S'replaced'
p334
S'by'
p335
tp336
F0.008264462809917356
s(S'was'
p337
S'appointed'
p338
S'first'
p339
tp340
F0.008264462809917356
s(S'be'
p341
S'appointed'
p342
S'[[con]]'
p343
tp344
F0.008264462809917356
s(S'later'
p345
S'replaced'
p346
S'as'
p347
tp348
F0.008264462809917356
s(S'then'
p349
S'appointed'
p350
S'[[det]]'
p351
tp352
F0.008264462809917356
s(S'instead'
p353
S'appointed'
p354
S'as'
p355
tp356
F0.008264462809917356
s(S'also'
p357
S'appointed'
p358
S'[[adj]]'
p359
tp360
F0.008264462809917356
s(S'was'
p361
S'appointed'
p362
S'when'
p363
tp364
F0.008264462809917356
s(S'was'
p365
S'appointed'
p366
S'before'
p367
tp368
F0.008264462809917356
s(S'also'
p369
S'appointed'
p370
S'[[det]]'
p371
tp372
F0.008264462809917356
s(S'[[num]]'
p373
S'appointed'
p374
S'by'
p375
tp376
F0.008264462809917356
s(S'was'
p377
S'appointed'
p378
S'[[prp]]'
p379
tp380
F0.008264462809917356
s(S'was'
p381
S'appointed'
p382
S'[[det]]'
p383
tp384
F0.008264462809917356
s(S'[[adj]]'
p385
S'choice'
p386
S'in'
p387
tp388
F0.008264462809917356
s(S'[[prp]]'
p389
S'choice'
p390
S'for'
p391
tp392
F0.008264462809917356
s(S'be'
p393
S'appointed'
p394
S'by'
p395
tp396
F0.008264462809917356
s(g141
S'choice'
p397
S'for'
p398
tp399
F0.008264462809917356
s(S'was'
p400
S'appointed'
p401
S'after'
p402
tp403
F0.008264462809917356
s(S'had'
p404
S'appointed'
p405
S'[[det]]'
p406
tp407
F0.008264462809917356
s(S'[[con]]'
p408
S'replaced'
p409
S'[[con]]'
p410
tp411
F0.008264462809917356
s(S'first'
p412
S'appointed'
p413
S'when'
p414
tp415
F0.008264462809917356
s(S'was'
p416
S'appointed'
p417
S'as'
p418
tp419
F0.008264462809917356
s(S'then'
p420
S'replaced'
p421
S'as'
p422
tp423
F0.008264462809917356
s(S'is'
p424
S'appointed'
p425
S'to'
p426
tp427
F0.008264462809917356
s(S'is'
p428
S'appointed'
p429
S'by'
p430
tp431
F0.008264462809917356
s(S'then'
p432
S'appointed'
p433
S'as'
p434
tp435
F0.008264462809917356
s(S'was'
p436
S'appointed'
p437
S'where'
p438
tp439
F0.008264462809917356
s(S'[[con]]'
p440
S'responded'
p441
S'that'
p442
tp443
F0.008264462809917356
s(S'[[con]]'
p444
S'replaced'
p445
S'with'
p446
tp447
F0.008264462809917356
s(S'was'
p448
S'replaced'
p449
S'in'
p450
tp451
F0.008264462809917356
s(S'soon'
p452
S'replaced'
p453
S'by'
p454
tp455
F0.008264462809917356
s(S'[[con]]'
p456
S'appointed'
p457
S'[[det]]'
p458
tp459
F0.008264462809917356
s(S'[[adj]]'
p460
S'choice'
p461
S'of'
p462
tp463
F0.008264462809917356
s(S'is'
p464
S'appointed'
p465
S'[[con]]'
p466
tp467
F0.008264462809917356
s(S'then'
p468
S'appointed'
p469
S'[[con]]'
p470
tp471
F0.008264462809917356
s(S'first'
p472
S'appointed'
p473
S'in'
p474
tp475
F0.008264462809917356
s(S'again'
p476
S'appointed'
p477
S'as'
p478
tp479
F0.008264462809917356
s(S'being'
p480
S'replaced'
p481
S'with'
p482
tp483
F0.008264462809917356
s.