(dp0
(S'later'
p1
S'performed'
p2
S'with'
p3
tp4
F0.01818181818181818
s(S'had'
p5
S'performed'
p6
S'for'
p7
tp8
F0.01818181818181818
s(S'has'
p9
S'performed'
p10
S'before'
p11
tp12
F0.01818181818181818
s(S'then'
p13
S'performed'
p14
S'[[det]]'
p15
tp16
F0.01818181818181818
s(S'had'
p17
S'performed'
p18
S'with'
p19
tp20
F0.01818181818181818
s(S'often'
p21
S'performed'
p22
S'with'
p23
tp24
F0.01818181818181818
s(S'since'
p25
S'performed'
p26
S'with'
p27
tp28
F0.01818181818181818
s(S'has'
p29
S'performed'
p30
S'[[con]]'
p31
tp32
F0.01818181818181818
s(S'also'
p33
S'performed'
p34
S'[[det]]'
p35
tp36
F0.01818181818181818
s(S'[[con]]'
p37
S'performed'
p38
S'for'
p39
tp40
F0.01818181818181818
s(S'first'
p41
S'performed'
p42
S'in'
p43
tp44
F0.01818181818181818
s(S'also'
p45
S'performed'
p46
S'as'
p47
tp48
F0.01818181818181818
s(S'[[num]]'
p49
S'performed'
p50
S'by'
p51
tp52
F0.01818181818181818
s(S'was'
p53
S'voiced'
p54
S'[[con]]'
p55
tp56
F0.01818181818181818
s(S'has'
p57
S'performed'
p58
S'[[adj]]'
p59
tp60
F0.01818181818181818
s(S'in'
p61
S'voiced'
p62
S'by'
p63
tp64
F0.01818181818181818
s(S'also'
p65
S'performed'
p66
S'along'
p67
tp68
F0.01818181818181818
s(S'often'
p69
S'performed'
p70
S'by'
p71
tp72
F0.01818181818181818
s(S'has'
p73
S'performed'
p74
S'to'
p75
tp76
F0.01818181818181818
s(S's'
p77
S'performed'
p78
S'in'
p79
tp80
F0.01818181818181818
s(S'has'
p81
S'performed'
p82
S'for'
p83
tp84
F0.01818181818181818
s(S'is'
p85
S'voiced'
p86
S'by'
p87
tp88
F0.01818181818181818
s(S'has'
p89
S'performed'
p90
S'together'
p91
tp92
F0.01818181818181818
s(S'has'
p93
S'performed'
p94
S'under'
p95
tp96
F0.01818181818181818
s(S'first'
p97
S'performed'
p98
S'with'
p99
tp100
F0.01818181818181818
s(S'is'
p101
S'voiced'
p102
S'in'
p103
tp104
F0.01818181818181818
s(S'has'
p105
S'performed'
p106
S'from'
p107
tp108
F0.01818181818181818
s(S'also'
p109
S'performed'
p110
S'before'
p111
tp112
F0.01818181818181818
s(S'has'
p113
S'performed'
p114
S'as'
p115
tp116
F0.01818181818181818
s(g77
S'performed'
p117
S'by'
p118
tp119
F0.01818181818181818
s(S'[[det]]'
p120
S'performed'
p121
S'by'
p122
tp123
F0.01818181818181818
s(S'had'
p124
S'performed'
p125
S'on'
p126
tp127
F0.01818181818181818
s(S'[[con]]'
p128
S'performed'
p129
S'by'
p130
tp131
F0.01818181818181818
s(S'[[con]]'
p132
S'performed'
p133
S'with'
p134
tp135
F0.01818181818181818
s(S'have'
p136
S'performed'
p137
S'[[det]]'
p138
tp139
F0.01818181818181818
s(S'also'
p140
S'performed'
p141
S'[[con]]'
p142
tp143
F0.01818181818181818
s(S'[[num]]'
p144
S'performed'
p145
S'with'
p146
tp147
F0.01818181818181818
s(S'[[con]]'
p148
S'performed'
p149
S'[[det]]'
p150
tp151
F0.01818181818181818
s(S'[[det]]'
p152
S'voiced'
p153
S'by'
p154
tp155
F0.01818181818181818
s(S'was'
p156
S'voiced'
p157
S'in'
p158
tp159
F0.01818181818181818
s(S'[[con]]'
p160
S'voiced'
p161
S'by'
p162
tp163
F0.01818181818181818
s(S'was'
p164
S'voiced'
p165
S'by'
p166
tp167
F0.01818181818181818
s(S'also'
p168
S'performed'
p169
S'to'
p170
tp171
F0.01818181818181818
s(S'[[con]]'
p172
S'performed'
p173
S'on'
p174
tp175
F0.01818181818181818
s(S'has'
p176
S'performed'
p177
S'by'
p178
tp179
F0.01818181818181818
s(S'also'
p180
S'performed'
p181
S'for'
p182
tp183
F0.01818181818181818
s(S'also'
p184
S'performed'
p185
S'by'
p186
tp187
F0.01818181818181818
s(S'has'
p188
S'performed'
p189
S'with'
p190
tp191
F0.01818181818181818
s(S'also'
p192
S'performed'
p193
S'together'
p194
tp195
F0.01818181818181818
s(S'is'
p196
S'voiced'
p197
S'[[con]]'
p198
tp199
F0.01818181818181818
s(S'also'
p200
S'performed'
p201
S'with'
p202
tp203
F0.01818181818181818
s(S'also'
p204
S'voiced'
p205
S'by'
p206
tp207
F0.01818181818181818
s(S'often'
p208
S'performed'
p209
S'[[con]]'
p210
tp211
F0.01818181818181818
s(S'also'
p212
S'performed'
p213
S'[[adj]]'
p214
tp215
F0.01818181818181818
s(S'where'
p216
S'performed'
p217
S'with'
p218
tp219
F0.01818181818181818
s.