(dp0
(S'only'
p1
S'played'
p2
S'twice'
p3
tp4
F0.0064516129032258064
s(S'then'
p5
S'played'
p6
S'with'
p7
tp8
F0.0064516129032258064
s(S'again'
p9
S'played'
p10
S'against'
p11
tp12
F0.0064516129032258064
s(S'never'
p13
S'played'
p14
S'[[con]]'
p15
tp16
F0.0064516129032258064
s(S'when'
p17
S'played'
p18
S'[[det]]'
p19
tp20
F0.0064516129032258064
s(S'formerly'
p21
S'played'
p22
S'with'
p23
tp24
F0.0064516129032258064
s(S'where'
p25
S'played'
p26
S'in'
p27
tp28
F0.0064516129032258064
s(S'[[adj]]'
p29
S'league'
p30
S'appearances'
p31
tp32
F0.0064516129032258064
s(S'while'
p33
S'played'
p34
S'for'
p35
tp36
F0.0064516129032258064
s(S'also'
p37
S'played'
p38
S'[[con]]'
p39
tp40
F0.0064516129032258064
s(S'[[num]]'
p41
S'round'
p42
S'[[adj]]'
p43
tp44
F0.0064516129032258064
s(S'in'
p45
S'[[adj]]'
p46
S'round'
p47
tp48
F0.01935483870967742
s(S'then'
p49
S'played'
p50
S'for'
p51
tp52
F0.0064516129032258064
s(S'first'
p53
S'played'
p54
S'at'
p55
tp56
F0.0064516129032258064
s(S'[[num]]'
p57
S'played'
p58
S'for'
p59
tp60
F0.0064516129032258064
s(S'then'
p61
S'played'
p62
S'against'
p63
tp64
F0.0064516129032258064
s(S'when'
p65
S'played'
p66
S'for'
p67
tp68
F0.0064516129032258064
s(S'by'
p69
S'[[det]]'
p70
S'round'
p71
tp72
F0.0064516129032258064
s(S'first'
p73
S'played'
p74
S'in'
p75
tp76
F0.0064516129032258064
s(S'had'
p77
S'played'
p78
S'against'
p79
tp80
F0.0064516129032258064
s(S'also'
p81
S'played'
p82
S'against'
p83
tp84
F0.0064516129032258064
s(S'[[adj]]'
p85
S'played'
p86
S'for'
p87
tp88
F0.0064516129032258064
s(S'which'
p89
S'played'
p90
S'[[con]]'
p91
tp92
F0.0064516129032258064
s(S'also'
p93
S'played'
p94
S'as'
p95
tp96
F0.0064516129032258064
s(S'that'
p97
S'played'
p98
S'in'
p99
tp100
F0.0064516129032258064
s(S'has'
p101
S'played'
p102
S'most'
p103
tp104
F0.0064516129032258064
s(S'who'
p105
S'played'
p106
S'in'
p107
tp108
F0.0064516129032258064
s(S'after'
p109
S'played'
p110
S'with'
p111
tp112
F0.0064516129032258064
s(S'[[con]]'
p113
S'played'
p114
S'together'
p115
tp116
F0.0064516129032258064
s(S'[[con]]'
p117
S'played'
p118
S'with'
p119
tp120
F0.0064516129032258064
s(S'[[con]]'
p121
S'played'
p122
S'on'
p123
tp124
F0.0064516129032258064
s(S'[[num]]'
p125
S'played'
p126
S'at'
p127
tp128
F0.0064516129032258064
s(S'only'
p129
S'played'
p130
S'in'
p131
tp132
F0.0064516129032258064
s(S'was'
p133
S'drafted'
p134
g45
tp135
F0.025806451612903226
s(S'has'
p136
S'played'
p137
S'to'
p138
tp139
F0.0064516129032258064
s(S'also'
p140
S'played'
p141
S'twice'
p142
tp143
F0.0064516129032258064
s(S'also'
p144
S'drafted'
p145
g69
tp146
F0.0064516129032258064
s(S'has'
p147
S'played'
p148
S'for'
p149
tp150
F0.0064516129032258064
s(S'later'
p151
S'played'
p152
S'[[con]]'
p153
tp154
F0.0064516129032258064
s(S'never'
p155
S'played'
p156
S'[[det]]'
p157
tp158
F0.0064516129032258064
s(S'then'
p159
S'played'
p160
S'also'
p161
tp162
F0.0064516129032258064
s(S'had'
p163
S'played'
p164
S'[[det]]'
p165
tp166
F0.0064516129032258064
s(S'since'
p167
S'played'
p168
S'for'
p169
tp170
F0.0064516129032258064
s(g145
g69
g70
tp171
F0.0064516129032258064
s(S'once'
p172
S'played'
p173
S'for'
p174
tp175
F0.0064516129032258064
s(S'later'
p176
S'played'
p177
S'twice'
p178
tp179
F0.0064516129032258064
s(S'mainly'
p180
S'played'
p181
S'for'
p182
tp183
F0.0064516129032258064
s(S'was'
p184
S'drafted'
p185
S'[[num]]'
p186
tp187
F0.0064516129032258064
s(S'[[det]]'
p188
S'played'
p189
S'for'
p190
tp191
F0.0064516129032258064
s(S'who'
p192
S'played'
p193
S'with'
p194
tp195
F0.0064516129032258064
s(S'then'
p196
S'played'
p197
S'[[con]]'
p198
tp199
F0.0064516129032258064
s(S'first'
p200
S'played'
p201
S'with'
p202
tp203
F0.0064516129032258064
s(S'never'
p204
S'played'
p205
S'for'
p206
tp207
F0.0064516129032258064
s(S'formerly'
p208
S'played'
p209
S'as'
p210
tp211
F0.0064516129032258064
s(S'had'
p212
S'played'
p213
S'for'
p214
tp215
F0.0064516129032258064
s(S'also'
p216
S'played'
p217
S'to'
p218
tp219
F0.0064516129032258064
s(S'later'
p220
S'played'
p221
S'with'
p222
tp223
F0.0064516129032258064
s(S'was'
p224
S'drafted'
p225
S'[[adj]]'
p226
tp227
F0.0064516129032258064
s(g30
g31
S'for'
p228
tp229
F0.0064516129032258064
s(S'also'
p230
S'played'
p231
S'for'
p232
tp233
F0.0064516129032258064
s(S'had'
p234
S'played'
p235
S'[[con]]'
p236
tp237
F0.0064516129032258064
s(S'[[adj]]'
p238
S'pitcher'
p239
S'who'
p240
tp241
F0.0064516129032258064
s(S'only'
p242
S'played'
p243
S'with'
p244
tp245
F0.0064516129032258064
s(S'[[mod]]'
p246
S'split'
p247
g29
tp248
F0.0064516129032258064
s(S'later'
p249
S'played'
p250
S'against'
p251
tp252
F0.0064516129032258064
s(S'formerly'
p253
S'played'
p254
S'[[con]]'
p255
tp256
F0.0064516129032258064
s(S'has'
p257
S'played'
p258
S'with'
p259
tp260
F0.0064516129032258064
s(S'formerly'
p261
S'played'
p262
S'for'
p263
tp264
F0.0064516129032258064
s(S'only'
p265
S'played'
p266
S'against'
p267
tp268
F0.0064516129032258064
s(S'where'
p269
S'played'
p270
S'against'
p271
tp272
F0.0064516129032258064
s(g247
g29
g30
tp273
F0.0064516129032258064
s(S'also'
p274
S'played'
p275
S'over'
p276
tp277
F0.0064516129032258064
s(g240
S'began'
p278
S'as'
p279
tp280
F0.0064516129032258064
s(g186
S'[[adj]]'
p281
S'round'
p282
tp283
F0.0064516129032258064
s(S'[[num]]'
p284
S'times'
p285
S'[[det]]'
p286
tp287
F0.0064516129032258064
s(S'later'
p288
S'played'
p289
S'[[det]]'
p290
tp291
F0.0064516129032258064
s(S'award'
p292
g284
g285
tp293
F0.0064516129032258064
s(S'[[adj]]'
p294
S'round'
p295
S'[[adj]]'
p296
tp297
F0.0064516129032258064
s(S'ever'
p298
S'played'
p299
S'for'
p300
tp301
F0.0064516129032258064
s(S'has'
p302
S'played'
p303
S'[[det]]'
p304
tp305
F0.0064516129032258064
s(S'also'
p306
S'played'
p307
S'of'
p308
tp309
F0.0064516129032258064
s(g281
g282
S'of'
p310
tp311
F0.0064516129032258064
s(g225
g226
S'round'
p312
tp313
F0.0064516129032258064
s(S'[[adj]]'
p314
S'played'
p315
S'on'
p316
tp317
F0.0064516129032258064
s(S'has'
p318
S'played'
p319
S'[[num]]'
p320
tp321
F0.0064516129032258064
s(S'to'
p322
S'played'
p323
S'for'
p324
tp325
F0.0064516129032258064
s(S'has'
p326
S'played'
p327
S'[[con]]'
p328
tp329
F0.0064516129032258064
s(S'also'
p330
S'played'
p331
S'from'
p332
tp333
F0.0064516129032258064
s(S'later'
p334
S'played'
p335
S'for'
p336
tp337
F0.0064516129032258064
s(S'already'
p338
S'played'
p339
S'for'
p340
tp341
F0.0064516129032258064
s(S'never'
p342
S'played'
p343
S'in'
p344
tp345
F0.0064516129032258064
s(S'[[pro]]'
p346
S'played'
p347
S'together'
p348
tp349
F0.0064516129032258064
s(S'[[con]]'
p350
S'played'
p351
S'twice'
p352
tp353
F0.0064516129032258064
s(S'drafted'
p354
S'in'
p355
g41
tp356
F0.0064516129032258064
s(S'[[con]]'
p357
S'played'
p358
S'against'
p359
tp360
F0.0064516129032258064
s(S'only'
p361
S'played'
p362
S'for'
p363
tp364
F0.0064516129032258064
s(S'where'
p365
S'played'
p366
S'for'
p367
tp368
F0.0064516129032258064
s(S'had'
p369
S'played'
p370
S'in'
p371
tp372
F0.0064516129032258064
s(g185
g186
g281
tp373
F0.0064516129032258064
s(S'then'
p374
S'played'
p375
S'in'
p376
tp377
F0.0064516129032258064
s(S'since'
p378
S'played'
p379
S'with'
p380
tp381
F0.0064516129032258064
s(S'had'
p382
S'played'
p383
S'at'
p384
tp385
F0.0064516129032258064
s(S'had'
p386
S'played'
p387
S'with'
p388
tp389
F0.0064516129032258064
s(S'where'
p390
S'played'
p391
S'[[con]]'
p392
tp393
F0.0064516129032258064
s(S'also'
p394
S'played'
p395
S'with'
p396
tp397
F0.0064516129032258064
s(S'then'
p398
S'played'
p399
S'at'
p400
tp401
F0.0064516129032258064
s(S'not'
p402
S'played'
p403
S'in'
p404
tp405
F0.0064516129032258064
s(S'first'
p406
S'played'
p407
S'against'
p408
tp409
F0.0064516129032258064
s(S'has'
p410
S'played'
p411
S'[[adj]]'
p412
tp413
F0.0064516129032258064
s(S'[[det]]'
p414
g292
g284
tp415
F0.0064516129032258064
s(S'formerly'
p416
S'played'
p417
S'at'
p418
tp419
F0.0064516129032258064
s(S'first'
p420
S'played'
p421
S'for'
p422
tp423
F0.0064516129032258064
s(g239
g240
g278
tp424
F0.0064516129032258064
s(S'mainly'
p425
S'played'
p426
S'with'
p427
tp428
F0.0064516129032258064
s(S'formerly'
p429
S'played'
p430
S'in'
p431
tp432
F0.0064516129032258064
s(S'[[adj]]'
p433
S'played'
p434
S'in'
p435
tp436
F0.0064516129032258064
s(S'also'
p437
S'played'
p438
S'in'
p439
tp440
F0.0064516129032258064
s(S'was'
p441
S'played'
p442
S'for'
p443
tp444
F0.0064516129032258064
s(S'later'
p445
S'played'
p446
S'at'
p447
tp448
F0.0064516129032258064
s(S'once'
p449
S'played'
p450
S'with'
p451
tp452
F0.0064516129032258064
s(S'also'
p453
S'played'
p454
S'before'
p455
tp456
F0.0064516129032258064
s(S'have'
p457
S'played'
p458
S'in'
p459
tp460
F0.0064516129032258064
s(S'[[adj]]'
p461
S'played'
p462
S'with'
p463
tp464
F0.0064516129032258064
s(S'later'
p465
S'played'
p466
S'in'
p467
tp468
F0.0064516129032258064
s(S'when'
p469
S'played'
p470
S'against'
p471
tp472
F0.0064516129032258064
s(S'already'
p473
S'played'
p474
S'in'
p475
tp476
F0.0064516129032258064
s(S'have'
p477
S'played'
p478
S'for'
p479
tp480
F0.0064516129032258064
s(S'also'
p481
S'played'
p482
S'[[num]]'
p483
tp484
F0.0064516129032258064
s(S'with'
p485
S'played'
p486
S'for'
p487
tp488
F0.0064516129032258064
s(S'never'
p489
S'played'
p490
S'with'
p491
tp492
F0.0064516129032258064
s(S'who'
p493
S'played'
p494
S'for'
p495
tp496
F0.0064516129032258064
s(g355
g41
g42
tp497
F0.0064516129032258064
s(S'also'
p498
S'played'
p499
S'once'
p500
tp501
F0.0064516129032258064
s(S'[[adj]]'
p502
S'played'
p503
S'against'
p504
tp505
F0.0064516129032258064
s(S'has'
p506
S'played'
p507
S'mainly'
p508
tp509
F0.0064516129032258064
s(S'[[con]]'
p510
S'played'
p511
S'for'
p512
tp513
F0.0064516129032258064
s(S'won'
p514
g414
g292
tp515
F0.0064516129032258064
s(S'not'
p516
S'played'
p517
S'for'
p518
tp519
F0.0064516129032258064
s(S'then'
p520
S'played'
p521
S'[[det]]'
p522
tp523
F0.0064516129032258064
s(S'[[adj]]'
p524
S'played'
p525
S'as'
p526
tp527
F0.0064516129032258064
s(S'has'
p528
S'played'
p529
S'at'
p530
tp531
F0.0064516129032258064
s(g46
g47
S'[[det]]'
p532
tp533
F0.0064516129032258064
s(S'then'
p534
S'played'
p535
S'then'
p536
tp537
F0.0064516129032258064
s(S'have'
p538
S'played'
p539
S'[[det]]'
p540
tp541
F0.0064516129032258064
s(S'also'
p542
S'played'
p543
S'where'
p544
tp545
F0.0064516129032258064
s(S'has'
p546
S'played'
p547
S'in'
p548
tp549
F0.0064516129032258064
s(S'again'
p550
S'played'
p551
S'for'
p552
tp553
F0.0064516129032258064
s(g134
g45
g46
tp554
F0.01935483870967742
s.