(dp0
(S'[[adj]]'
p1
S'song'
p2
S'written'
p3
tp4
F0.0019601437438745506
s(S'[[adj]]'
p5
S'produced'
p6
S'by'
p7
tp8
F0.0003266906239790918
s(S'[[num]]'
p9
S'song'
p10
S'with'
p11
tp12
F0.0003266906239790918
s(S'comedy'
p13
S'film'
p14
S'produced'
p15
tp16
F0.0006533812479581836
s(S'[[det]]'
p17
S'song'
p18
S'[[mod]]'
p19
tp20
F0.0003266906239790918
s(S'also'
p21
S'known'
p22
S'as'
p23
tp24
F0.0003266906239790918
s(S'based'
p25
S'on'
p26
S'novel'
p27
tp28
F0.0006533812479581836
s(S'[[adj]]'
p29
S'rock'
p30
S'band'
p31
tp32
F0.0035935968637700096
s(S'album'
p33
S'by'
p34
S'thrash'
p35
tp36
F0.0003266906239790918
s(S'was'
p37
S'recorded'
p38
S'with'
p39
tp40
F0.0003266906239790918
s(S'road'
p41
S'movie'
p42
S'directed'
p43
tp44
F0.0006533812479581836
s(S'[[det]]'
p45
S'song'
p46
S'[[det]]'
p47
tp48
F0.0003266906239790918
s(S'by'
p49
S'pop'
p50
S'singer'
p51
tp52
F0.0006533812479581836
s(S'released'
p53
S'in'
p54
S'[[num]]'
p55
tp56
F0.0003266906239790918
s(S'was'
p57
S'created'
p58
S'by'
p59
tp60
F0.0003266906239790918
s(S'[[det]]'
p61
S'metal'
p62
S'band'
p63
tp64
F0.0003266906239790918
s(S'[[num]]'
p65
S'film'
p66
S'made'
p67
tp68
F0.0006533812479581836
s(S'thriller'
p69
S'film'
p70
S'starring'
p71
tp72
F0.003266906239790918
s(S'[[num]]'
p73
S'crime'
p74
S'film'
p75
tp76
F0.004246978111728194
s(S'[[adj]]'
p77
S'album'
p78
S'rock'
p79
tp80
F0.0003266906239790918
s(S'written'
p81
S'[[con]]'
p82
S'recorded'
p83
tp84
F0.003266906239790918
s(S'television'
p85
S'drama'
p86
S'film'
p87
tp88
F0.0003266906239790918
s(S'horror'
p89
S'film'
p90
S'starring'
p91
tp92
F0.0022868343678536427
s(S'released'
p93
S'by'
p94
S'indie'
p95
tp96
F0.0003266906239790918
s(S'of'
p97
S'[[prp]]'
p98
S'album'
p99
tp100
F0.0006533812479581836
s(S'by'
p101
S'produced'
p102
S'[[con]]'
p103
tp104
F0.0003266906239790918
s(S'[[adj]]'
p105
S'released'
p106
S'by'
p107
tp108
F0.0019601437438745506
s(S'directed'
p109
S'starring'
p110
S'[[con]]'
p111
tp112
F0.003266906239790918
s(S'was'
p113
S'written'
p114
S'as'
p115
tp116
F0.0003266906239790918
s(S'[[con]]'
p117
S'is'
p118
S'composed'
p119
tp120
F0.0003266906239790918
s(S'was'
p121
S'released'
p122
S'on'
p123
tp124
F0.0003266906239790918
s(S'thriller'
p125
S'film'
p126
S'directed'
p127
tp128
F0.007187193727540019
s(S'is'
p129
S'[[num]]'
p130
g85
tp131
F0.0003266906239790918
s(S'comedy'
p132
S'film'
p133
S'featuring'
p134
tp135
F0.0009800718719372753
s(S'mystery'
p136
S'film'
p137
S'starring'
p138
tp139
F0.0003266906239790918
s(g98
g99
S'released'
p140
tp141
F0.0006533812479581836
s(S'music'
p142
S'song'
p143
S'written'
p144
tp145
F0.0006533812479581836
s(S'feature'
p146
S'film'
p147
S'starring'
p148
tp149
F0.0022868343678536427
s(S'recorded'
p150
S'by'
p151
S'country'
p152
tp153
F0.0026135249918327343
s(S'recorded'
p154
g49
g50
tp155
F0.0003266906239790918
s(S'songs'
p156
S'written'
p157
S'by'
p158
tp159
F0.0006533812479581836
s(S'was'
p160
S'released'
p161
S'from'
p162
tp163
F0.0003266906239790918
s(S'[[det]]'
p164
S'alternative'
p165
S'rock'
p166
tp167
F0.0009800718719372753
s(S'[[num]]'
p168
S'film'
p169
S'[[adj]]'
p170
tp171
F0.0003266906239790918
s(S'by'
p172
g29
g30
tp173
F0.0029402156158118264
s(S'film'
p174
S'directed'
p175
S'written'
p176
tp177
F0.003266906239790918
s(S'gentleman'
p178
S'[[num]]'
p179
S'movie'
p180
tp181
F0.0003266906239790918
s(S'produced'
p182
S'by'
p183
S'starring'
p184
tp185
F0.0003266906239790918
s(S'song'
p186
S'by'
p187
S'featuring'
p188
tp189
F0.0003266906239790918
s(S'track'
p190
S'song'
p191
S'was'
p192
tp193
F0.0006533812479581836
s(S'[[adj]]'
p194
S'released'
p195
S'[[con]]'
p196
tp197
F0.0006533812479581836
s(S'[[adj]]'
p198
S'arts'
p199
S'film'
p200
tp201
F0.0009800718719372753
s(S'[[det]]'
p202
S'feature'
p203
S'film'
p204
tp205
F0.0013067624959163672
s(S'film'
p206
S'directed'
p207
S'by'
p208
tp209
F0.04083632799738648
s(S'was'
p210
S'based'
p211
S'by'
p212
tp213
F0.0003266906239790918
s(S'compilation'
p214
S'album'
p215
S'by'
p216
tp217
F0.0009800718719372753
s(S'was'
p218
S'written'
p219
S'about'
p220
tp221
F0.0003266906239790918
s(S'was'
p222
S'directed'
p223
S'produced'
p224
tp225
F0.0009800718719372753
s(S'then'
p226
S'performed'
p227
S'by'
p228
tp229
F0.0003266906239790918
s(S'is'
p230
g198
g199
tp231
F0.0003266906239790918
s(S'was'
p232
S'composed'
p233
S'by'
p234
tp235
F0.0003266906239790918
s(S'adapted'
p236
S'[[num]]'
p237
S'movie'
p238
tp239
F0.0003266906239790918
s(g169
g170
S'[[con]]'
p240
tp241
F0.0006533812479581836
s(g11
S'lyrics'
p242
S'by'
p243
tp244
F0.0022868343678536427
s(S'by'
p245
S'country'
p246
S'artist'
p247
tp248
F0.0003266906239790918
s(S'action'
p249
S'film'
p250
S'[[con]]'
p251
tp252
F0.0003266906239790918
s(S'crime'
p253
S'film'
p254
S'starring'
p255
tp256
F0.0013067624959163672
s(S'released'
p257
S'by'
p258
S'power'
p259
tp260
F0.0003266906239790918
s(S'adapted'
p261
S'[[con]]'
p262
S'directed'
p263
tp264
F0.0006533812479581836
s(S'[[num]]'
p265
S'film'
p266
S'by'
p267
tp268
F0.0013067624959163672
s(S'directed'
p269
g101
g102
tp270
F0.0003266906239790918
s(S'film'
p271
S'from'
p272
S'directed'
p273
tp274
F0.0006533812479581836
s(S'[[det]]'
p275
S'project'
p276
S'of'
p277
tp278
F0.0003266906239790918
s(g54
g55
S'starring'
p279
tp280
F0.0006533812479581836
s(S'[[con]]'
p281
S'action'
p282
S'film'
p283
tp284
F0.0003266906239790918
s(S'directed'
p285
S'with'
p286
S'[[det]]'
p287
tp288
F0.0009800718719372753
s(S'title'
p289
S'track'
p290
g97
tp291
F0.0003266906239790918
s(S'[[num]]'
p292
S'film'
p293
S'starring'
p294
tp295
F0.0019601437438745506
s(S'[[det]]'
p296
S'thriller'
p297
S'directed'
p298
tp299
F0.0003266906239790918
s(S'[[adj]]'
p300
S'song'
p301
S'lyrics'
p302
tp303
F0.0003266906239790918
s(S'rock'
p304
S'[[con]]'
p305
S'roll'
p306
tp307
F0.0006533812479581836
s(S'[[det]]'
p308
S'soundtrack'
p309
S'directed'
p310
tp311
F0.0003266906239790918
s(S'[[det]]'
p312
S'band'
p313
S's'
p314
tp315
F0.0006533812479581836
s(S'[[num]]'
p316
S'film'
p317
S'that'
p318
tp319
F0.0009800718719372753
s(S'album'
p320
S'by'
p321
S'punk'
p322
tp323
F0.0006533812479581836
s(S'by'
p324
S'starring'
p325
S'[[con]]'
p326
tp327
F0.0029402156158118264
s(S'written'
p328
S'[[con]]'
p329
S'performed'
p330
tp331
F0.0009800718719372753
s(S'is'
p332
S'written'
p333
S'[[con]]'
p334
tp335
F0.0003266906239790918
s(S'be'
p336
S'released'
p337
S'as'
p338
tp339
F0.0003266906239790918
s(S'is'
p340
S'[[num]]'
p341
S'thriller'
p342
tp343
F0.0003266906239790918
s(S'[[num]]'
p344
S'fantasy'
p345
S'film'
p346
tp347
F0.0009800718719372753
s(S'by'
p348
S'power'
p349
S'metal'
p350
tp351
F0.0013067624959163672
s(S'title'
p352
S'track'
p353
S'[[con]]'
p354
tp355
F0.0003266906239790918
s(S'band'
p356
S'released'
p357
S'on'
p358
tp359
F0.0003266906239790918
s(S'[[num]]'
p360
S'movie'
p361
S'produced'
p362
tp363
F0.0003266906239790918
s(S'be'
p364
S'released'
p365
S'by'
p366
tp367
F0.0003266906239790918
s(S'death'
p368
S'metal'
p369
S'band'
p370
tp371
F0.0029402156158118264
s(S'[[adj]]'
p372
S'credited'
p373
S'to'
p374
tp375
F0.0003266906239790918
s(S'[[det]]'
p376
S'thriller'
p377
S'film'
p378
tp379
F0.0006533812479581836
s(S'were'
p380
S'produced'
p381
S'by'
p382
tp383
F0.0003266906239790918
s(S'[[det]]'
p384
S'country'
p385
S'song'
p386
tp387
F0.0003266906239790918
s(S'[[num]]'
p388
S'detective'
p389
S'film'
p390
tp391
F0.0006533812479581836
s(S'[[det]]'
p392
S'[[adj]]'
p393
S'debut'
p394
tp395
F0.0003266906239790918
s(S'was'
p396
S'written'
p397
S'composed'
p398
tp399
F0.0003266906239790918
s(S'song'
p400
S'written'
p401
S'[[con]]'
p402
tp403
F0.005880431231623653
s(S'into'
p404
S'[[det]]'
p405
S'film'
p406
tp407
F0.0003266906239790918
s(S'[[det]]'
p408
S'power'
p409
S'metal'
p410
tp411
F0.0003266906239790918
s(S'[[con]]'
p412
S'based'
p413
S'by'
p414
tp415
F0.0003266906239790918
s(S'not'
p416
S'written'
p417
S'by'
p418
tp419
F0.0003266906239790918
s(S'film'
p420
S'starring'
p421
S'directed'
p422
tp423
F0.0006533812479581836
s(S'been'
p424
S'recorded'
p425
S'[[con]]'
p426
tp427
F0.0003266906239790918
s(S'[[adj]]'
p428
S'film'
p429
S'from'
p430
tp431
F0.0003266906239790918
s(S'was'
p432
S'written'
p433
S'at'
p434
tp435
F0.0003266906239790918
s(S'[[num]]'
p436
S'drama'
p437
S'film'
p438
tp439
F0.010127409343351846
s(S'[[con]]'
p440
S'adapted'
p441
S'by'
p442
tp443
F0.0003266906239790918
s(S'created'
p444
S'[[con]]'
p445
S'written'
p446
tp447
F0.0003266906239790918
s(S'[[adj]]'
p448
S'song'
p449
S'that'
p450
tp451
F0.0003266906239790918
s(S'[[adj]]'
p452
S'movie'
p453
S'directed'
p454
tp455
F0.0003266906239790918
s(S'[[adj]]'
p456
g89
g90
tp457
F0.001633453119895459
s(S'documentary'
p458
S'directed'
p459
S'[[con]]'
p460
tp461
F0.0006533812479581836
s(S'directed'
p462
S'starring'
p463
S'[[det]]'
p464
tp465
F0.0003266906239790918
s(S'[[num]]'
p466
S'film'
p467
S'directed'
p468
tp469
F0.011760862463247305
s(S'marks'
p470
g392
g393
tp471
F0.0003266906239790918
s(S'television'
p472
S'film'
p473
S'starring'
p474
tp475
F0.0006533812479581836
s(S'is'
p476
S'performed'
p477
S'with'
p478
tp479
F0.0003266906239790918
s(g385
g386
S'written'
p480
tp481
F0.0003266906239790918
s(S'[[con]]'
p482
S'directed'
p483
S'by'
p484
tp485
F0.019601437438745508
s(S'[[adj]]'
p486
S'song'
p487
S'performed'
p488
tp489
F0.0003266906239790918
s(S'[[num]]'
p490
S'film'
p491
S'produced'
p492
tp493
F0.0006533812479581836
s(S'with'
p494
S'lyrics'
p495
S'written'
p496
tp497
F0.0003266906239790918
s(S'that'
p498
S'was'
p499
S'directed'
p500
tp501
F0.0003266906239790918
s(S'was'
p502
S'directed'
p503
S'with'
p504
tp505
F0.0003266906239790918
s(S'[[adj]]'
p506
S'written'
p507
S'[[con]]'
p508
tp509
F0.0013067624959163672
s(S'documentary'
p510
S'film'
p511
S'produced'
p512
tp513
F0.0003266906239790918
s(S'recorded'
p514
S'[[con]]'
p515
S'written'
p516
tp517
F0.0003266906239790918
s(S'[[det]]'
p518
S'title'
p519
S'of'
p520
tp521
F0.0022868343678536427
s(S'folk'
p522
S'song'
p523
S'written'
p524
tp525
F0.0003266906239790918
s(S'adventure'
p526
g53
g54
tp527
F0.0003266906239790918
s(S'comedy'
p528
S'family'
p529
S'film'
p530
tp531
F0.0003266906239790918
s(S'were'
p532
S'created'
p533
S'by'
p534
tp535
F0.0003266906239790918
s(g151
g152
S'music'
p536
tp537
F0.0022868343678536427
s(g67
S'directed'
p538
S'by'
p539
tp540
F0.0003266906239790918
s(S'action'
p541
S'comedy'
p542
S'film'
p543
tp544
F0.001633453119895459
s(S'[[num]]'
p545
S'directed'
p546
S'by'
p547
tp548
F0.0003266906239790918
s(S'song'
p549
S'written'
p550
S'with'
p551
tp552
F0.0003266906239790918
s(S'[[con]]'
p553
S'music'
p554
S'written'
p555
tp556
F0.0003266906239790918
s(S'adventure'
p557
S'film'
p558
S'directed'
p559
tp560
F0.001633453119895459
s(S'produced'
p561
S'from'
p562
S'[[det]]'
p563
tp564
F0.0006533812479581836
s(S'[[adj]]'
p565
S'recorded'
p566
S'by'
p567
tp568
F0.0003266906239790918
s(S'horror'
p569
S'film'
p570
S'written'
p571
tp572
F0.0019601437438745506
s(S'is'
p573
S'based'
p574
S'by'
p575
tp576
F0.0003266906239790918
s(S'thrash'
p577
S'metal'
p578
S'band'
p579
tp580
F0.0009800718719372753
s(S'pop'
p581
S'song'
p582
S'written'
p583
tp584
F0.0013067624959163672
s(S'[[det]]'
p585
S'song'
p586
S'pop'
p587
tp588
F0.0003266906239790918
s(S'[[con]]'
p589
S'directed'
p590
S'[[con]]'
p591
tp592
F0.007513884351519112
s(S'was'
p593
S'produced'
p594
S'[[con]]'
p595
tp596
F0.001633453119895459
s(S'directed'
p597
S'produced'
p598
S'[[con]]'
p599
tp600
F0.0009800718719372753
s(g179
g180
S'directed'
p601
tp602
F0.0013067624959163672
s(S'song'
p603
S'composed'
p604
S'by'
p605
tp606
F0.0009800718719372753
s(S'in'
p607
S'recorded'
p608
S'by'
p609
tp610
F0.0003266906239790918
s(S'was'
p611
g236
g237
tp612
F0.0003266906239790918
s(S'track'
p613
S'on'
p614
S'album'
p615
tp616
F0.0003266906239790918
s(S'film'
p617
S'starring'
p618
S'as'
p619
tp620
F0.0006533812479581836
s(S'cult'
p621
S'[[num]]'
p622
S'drama'
p623
tp624
F0.0003266906239790918
s(S'[[adj]]'
p625
S'action'
p626
S'film'
p627
tp628
F0.0013067624959163672
s(S'[[con]]'
p629
S'produced'
p630
S'[[con]]'
p631
tp632
F0.0006533812479581836
s(S'[[num]]'
p633
S'drama'
p634
S'[[adj]]'
p635
tp636
F0.0003266906239790918
s(S'written'
p637
S'by'
p638
S'lead'
p639
tp640
F0.0003266906239790918
s(S'be'
p641
S'written'
p642
S'by'
p643
tp644
F0.0003266906239790918
s(S'was'
p645
S'written'
p646
S'by'
p647
tp648
F0.004573668735707285
s(S'[[adj]]'
p649
S'released'
p650
S'after'
p651
tp652
F0.0003266906239790918
s(S'[[con]]'
p653
g289
g290
tp654
F0.0003266906239790918
s(g286
g287
S'screenplay'
p655
tp656
F0.0006533812479581836
s(S'[[det]]'
p657
S'produced'
p658
S'by'
p659
tp660
F0.0003266906239790918
s(S'released'
p661
S'by'
p662
S'band'
p663
tp664
F0.0003266906239790918
s(g66
g67
g538
tp665
F0.0003266906239790918
s(S'family'
p666
S'comedy'
p667
S'film'
p668
tp669
F0.0006533812479581836
s(S'crime'
p670
S'film'
p671
S'directed'
p672
tp673
F0.004900359359686377
s(S'titled'
p674
S'is'
p675
S'[[num]]'
p676
tp677
F0.0003266906239790918
s(S'[[det]]'
p678
S'mystery'
p679
S'film'
p680
tp681
F0.0003266906239790918
s(S'[[con]]'
p682
S'was'
p683
S'produced'
p684
tp685
F0.0003266906239790918
s(S'of'
p686
S'directed'
p687
S'[[con]]'
p688
tp689
F0.0003266906239790918
s(S'by'
p690
S'rock'
p691
S'musician'
p692
tp693
F0.0003266906239790918
s(S'directed'
p694
S'produced'
p695
S'by'
p696
tp697
F0.0009800718719372753
s(S'[[num]]'
p698
S'film'
p699
S'noir'
p700
tp701
F0.0009800718719372753
s(g555
S'by'
p702
S'guitarist'
p703
tp704
F0.0003266906239790918
s(g122
g123
S'[[det]]'
p705
tp706
F0.0003266906239790918
s(S'[[con]]'
p707
S'was'
p708
S'written'
p709
tp710
F0.0013067624959163672
s(g22
g23
S'[[num]]'
p711
tp712
F0.0003266906239790918
s(S'[[num]]'
p713
S'drama'
p714
S'directed'
p715
tp716
F0.0003266906239790918
s(S'from'
p717
S'[[adj]]'
p718
S'rock'
p719
tp720
F0.0006533812479581836
s(S'drama'
p721
S'directed'
p722
S'[[con]]'
p723
tp724
F0.0009800718719372753
s(S'[[adj]]'
p725
S'drama'
p726
S'[[adj]]'
p727
tp728
F0.0003266906239790918
s(S'[[num]]'
p729
S'crime'
p730
S'drama'
p731
tp732
F0.0026135249918327343
s(S'comedy'
p733
S'horror'
p734
S'film'
p735
tp736
F0.0003266906239790918
s(g79
S'band'
p737
S'released'
p738
tp739
F0.0003266906239790918
s(S'album'
p740
S'by'
p741
S'metal'
p742
tp743
F0.0009800718719372753
s(S'television'
p744
S'film'
p745
S'written'
p746
tp747
F0.0003266906239790918
s(S'rock'
p748
S'song'
p749
S'by'
p750
tp751
F0.0003266906239790918
s(S'be'
p752
S'taken'
p753
S'from'
p754
tp755
F0.0003266906239790918
s(g301
g302
S'by'
p756
tp757
F0.0003266906239790918
s(S'studio'
p758
S'album'
p759
S'by'
p760
tp761
F0.006533812479581836
s(S'noir'
p762
S'directed'
p763
S'[[con]]'
p764
tp765
F0.0003266906239790918
s(S'drama'
p766
S'film'
p767
S'based'
p768
tp769
F0.0003266906239790918
s(S'is'
p770
S'written'
p771
S'that'
p772
tp773
F0.0003266906239790918
s(S'released'
p774
S'is'
p775
S'[[num]]'
p776
tp777
F0.0003266906239790918
s(S'[[num]]'
p778
S'fantasy'
p779
S'adventure'
p780
tp781
F0.0003266906239790918
s(g78
g79
g737
tp782
F0.0003266906239790918
s(g175
g176
S'[[con]]'
p783
tp784
F0.0022868343678536427
s(S'[[det]]'
p785
S'novel'
p786
S'by'
p787
tp788
F0.0003266906239790918
s(S'by'
p789
S'[[det]]'
p790
S'thrash'
p791
tp792
F0.0003266906239790918
s(g199
g200
g462
tp793
F0.0009800718719372753
s(S'action'
p794
S'written'
p795
S'[[con]]'
p796
tp797
F0.0006533812479581836
s(g759
g760
S'[[adj]]'
p798
tp799
F0.005227049983665469
s(S'[[num]]'
p800
S'action'
p801
S'thriller'
p802
tp803
F0.0013067624959163672
s(S'[[det]]'
p804
S'ballad'
p805
S'written'
p806
tp807
F0.0003266906239790918
s(S'by'
p808
S'rock'
p809
S'band'
p810
tp811
F0.0022868343678536427
s(S'produced'
p812
S'with'
p813
S'[[det]]'
p814
tp815
F0.0003266906239790918
s(g587
S'singer'
p816
S'written'
p817
tp818
F0.0003266906239790918
s(S'movie'
p819
S'directed'
p820
S'[[con]]'
p821
tp822
F0.0013067624959163672
s(S'[[con]]'
p823
g812
g813
tp824
F0.0006533812479581836
s(S'drama'
p825
S'directed'
p826
S'by'
p827
tp828
F0.0003266906239790918
s(S'film'
p829
g825
g826
tp830
F0.0003266906239790918
s(g314
S'lead'
p831
S'singer'
p832
tp833
F0.0003266906239790918
s(S'was'
p834
S'adapted'
p835
S'directed'
p836
tp837
F0.0003266906239790918
s(S'starring'
p838
S'[[con]]'
p839
S'featuring'
p840
tp841
F0.0013067624959163672
s(S'written'
p842
S'produced'
p843
S'by'
p844
tp845
F0.0003266906239790918
s(S'country'
p846
S'music'
p847
S'artist'
p848
tp849
F0.0013067624959163672
s(S'[[adj]]'
p850
S'feature'
p851
S'film'
p852
tp853
F0.0006533812479581836
s(S'is'
p854
S'credited'
p855
S'to'
p856
tp857
F0.0003266906239790918
s(S'was'
p858
S'performed'
p859
S'with'
p860
tp861
F0.0003266906239790918
s(S'[[num]]'
p862
S'language'
p863
S'film'
p864
tp865
F0.0013067624959163672
s(S'[[det]]'
p866
S'song'
p867
S'by'
p868
tp869
F0.006533812479581836
s(S'[[num]]'
p870
S'comedy'
p871
S'directed'
p872
tp873
F0.0009800718719372753
s(S'recorded'
p874
S'[[det]]'
p875
S'song'
p876
tp877
F0.0003266906239790918
s(S'[[det]]'
p878
S'debut'
p879
S'[[adj]]'
p880
tp881
F0.0003266906239790918
s(S'album'
p882
S'by'
p883
S'death'
p884
tp885
F0.0006533812479581836
s(S'[[det]]'
p886
S'country'
p887
g142
tp888
F0.0009800718719372753
s(g591
S'written'
p889
S'by'
p890
tp891
F0.007840574975498203
s(S'color'
p892
S'film'
p893
S'was'
p894
tp895
F0.0003266906239790918
s(S'screenplay'
p896
S'written'
p897
S'by'
p898
tp899
F0.0003266906239790918
s(S'[[adj]]'
p900
S'drama'
p901
S'film'
p902
tp903
F0.006533812479581836
s(S'hit'
p904
S'song'
p905
S'[[con]]'
p906
tp907
F0.0003266906239790918
s(S'pop'
p908
S'rock'
p909
S'song'
p910
tp911
F0.0003266906239790918
s(S'also'
p912
S'recorded'
p913
S'[[det]]'
p914
tp915
F0.0006533812479581836
s(g314
S'written'
p916
S'by'
p917
tp918
F0.0003266906239790918
s(g906
S'lyrics'
p919
S'written'
p920
tp921
F0.0003266906239790918
s(S'[[det]]'
p922
S'song'
p923
S'[[con]]'
p924
tp925
F0.0006533812479581836
s(S'[[adj]]'
p926
S'comedy'
p927
S'drama'
p928
tp929
F0.0003266906239790918
s(g433
g434
S'[[det]]'
p930
tp931
F0.0003266906239790918
s(S'[[con]]'
p932
S'directed'
p933
S'starring'
p934
tp935
F0.0026135249918327343
s(S'song'
p936
S'written'
p937
S'for'
p938
tp939
F0.0003266906239790918
s(S'[[det]]'
p940
S'album'
p941
S'by'
p942
tp943
F0.0013067624959163672
s(S'[[det]]'
p944
S'song'
p945
g314
tp946
F0.0003266906239790918
s(S'[[adj]]'
p947
g156
g157
tp948
F0.0003266906239790918
s(S'comedy'
p949
S'film'
p950
S'from'
p951
tp952
F0.0003266906239790918
s(S'[[con]]'
p953
S'lyrics'
p954
S'by'
p955
tp956
F0.0003266906239790918
s(S'was'
p957
S'performed'
p958
S'[[adj]]'
p959
tp960
F0.0003266906239790918
s(S'[[det]]'
p961
g581
g582
tp962
F0.0013067624959163672
s(S'[[num]]'
p963
S'movie'
p964
S'[[con]]'
p965
tp966
F0.0003266906239790918
s(S'song'
p967
S'by'
p968
S'recording'
p969
tp970
F0.0003266906239790918
s(g563
S'screenplay'
p971
S'based'
p972
tp973
F0.0003266906239790918
s(S'performed'
p974
g172
g29
tp975
F0.0003266906239790918
s(g562
g563
g971
tp976
F0.0006533812479581836
s(g74
g75
S'based'
p977
tp978
F0.0003266906239790918
s(S'as'
p979
S'[[det]]'
p980
S'film'
p981
tp982
F0.0003266906239790918
s(g313
g314
g831
tp983
F0.0003266906239790918
s(S'comedy'
p984
S'film'
p985
S'written'
p986
tp987
F0.004900359359686377
s(S'[[det]]'
p988
S'drama'
p989
S'thriller'
p990
tp991
F0.0003266906239790918
s(S'was'
p992
S'adapted'
p993
S'by'
p994
tp995
F0.0003266906239790918
s(S'[[det]]'
p996
S'written'
p997
S'by'
p998
tp999
F0.0003266906239790918
s(S'[[adj]]'
p1000
g721
g722
tp1001
F0.0003266906239790918
s(S'song'
p1002
S'by'
p1003
S'alternative'
p1004
tp1005
F0.0003266906239790918
s(S'fantasy'
p1006
S'action'
p1007
S'film'
p1008
tp1009
F0.0003266906239790918
s(S'[[adj]]'
p1010
g733
g734
tp1011
F0.0003266906239790918
s(S'aka'
p1012
g230
g198
tp1013
F0.0003266906239790918
s(S'album'
p1014
S'by'
p1015
S'alternative'
p1016
tp1017
F0.0006533812479581836
s(S'[[con]]'
p1018
S'directed'
p1019
S'with'
p1020
tp1021
F0.0006533812479581836
s(S'of'
p1022
g886
g887
tp1023
F0.0003266906239790918
s(S'[[num]]'
p1024
S'horror'
p1025
g271
tp1026
F0.004246978111728194
s(g34
g35
S'metal'
p1027
tp1028
F0.0003266906239790918
s(S'film'
p1029
S'based'
p1030
S'by'
p1031
tp1032
F0.0009800718719372753
s(g434
g930
S'time'
p1033
tp1034
F0.0003266906239790918
s(S'been'
p1035
S'recorded'
p1036
S'with'
p1037
tp1038
F0.0003266906239790918
s(S'was'
p1039
S'written'
p1040
S'for'
p1041
tp1042
F0.0003266906239790918
s(S'studio'
p1043
S'album'
p1044
g257
tp1045
F0.0006533812479581836
s(S'album'
p1046
S'by'
p1047
S'band'
p1048
tp1049
F0.0006533812479581836
s(g893
g894
S'released'
p1050
tp1051
F0.0003266906239790918
s(S'[[adj]]'
p1052
S'created'
p1053
S'by'
p1054
tp1055
F0.0003266906239790918
s(S'by'
p1056
S'[[adj]]'
p1057
S'songwriter'
p1058
tp1059
F0.0003266906239790918
s(S'[[det]]'
p1060
S'film'
p1061
S'written'
p1062
tp1063
F0.0003266906239790918
s(S'[[det]]'
p1064
S'rock'
p1065
S'band'
p1066
tp1067
F0.0009800718719372753
s(S'adapted'
p1068
g404
g405
tp1069
F0.0003266906239790918
s(S'written'
p1070
S'by'
p1071
g312
tp1072
F0.0006533812479581836
s(S'[[adj]]'
p1073
g320
g321
tp1074
F0.00555374060764456
s(S'thriller'
p1075
S'written'
p1076
S'[[con]]'
p1077
tp1078
F0.0003266906239790918
s(g1007
g1008
S'starring'
p1079
tp1080
F0.001633453119895459
s(S'comedy'
p1081
S'crime'
p1082
S'film'
p1083
tp1084
F0.0003266906239790918
s(S'[[num]]'
p1085
S'film'
p1086
S'based'
p1087
tp1088
F0.0006533812479581836
s(S'written'
p1089
S'directed'
p1090
S'by'
p1091
tp1092
F0.0006533812479581836
s(S'[[adj]]'
p1093
S'novel'
p1094
S'by'
p1095
tp1096
F0.0003266906239790918
s(S'adapted'
p1097
S'into'
p1098
S'[[num]]'
p1099
tp1100
F0.0003266906239790918
s(S'[[adj]]'
p1101
S'film'
p1102
S'produced'
p1103
tp1104
F0.0003266906239790918
s(S'by'
p1105
S'punk'
p1106
S'band'
p1107
tp1108
F0.0003266906239790918
s(S'[[con]]'
p1109
S'directed'
p1110
S'gt'
p1111
tp1112
F0.0003266906239790918
s(S'edited'
p1113
S'[[con]]'
p1114
S'starring'
p1115
tp1116
F0.0003266906239790918
s(S'thriller'
p1117
S'film'
p1118
S'written'
p1119
tp1120
F0.0006533812479581836
s(g550
g551
S'lyrics'
p1121
tp1122
F0.0003266906239790918
s(S'vocalist'
p1123
g553
g554
tp1124
F0.0003266906239790918
s(S'film'
p1125
S'made'
p1126
S'by'
p1127
tp1128
F0.0003266906239790918
s(S'[[det]]'
p1129
g352
g353
tp1130
F0.0003266906239790918
s(S'released'
p1131
S'by'
p1132
S'metal'
p1133
tp1134
F0.0003266906239790918
s(S'[[det]]'
p1135
S'film'
p1136
S'for'
p1137
tp1138
F0.0003266906239790918
s(S'was'
p1139
S'based'
p1140
S'on'
p1141
tp1142
F0.0003266906239790918
s(S'was'
p1143
S'performed'
p1144
S'[[con]]'
p1145
tp1146
F0.0003266906239790918
s(S'was'
p1147
S'written'
p1148
S'directed'
p1149
tp1150
F0.0006533812479581836
s(g805
g806
S'by'
p1151
tp1152
F0.0003266906239790918
s(S'by'
p1153
S'[[det]]'
p1154
S'punk'
p1155
tp1156
F0.0009800718719372753
s(S'[[num]]'
p1157
g557
g558
tp1158
F0.0022868343678536427
s(S'about'
p1159
S'directed'
p1160
S'[[con]]'
p1161
tp1162
F0.0006533812479581836
s(S'was'
p1163
S'released'
p1164
S'as'
p1165
tp1166
F0.0003266906239790918
s(g1154
g1155
S'rock'
p1167
tp1168
F0.0009800718719372753
s(S'written'
p1169
g607
g608
tp1170
F0.0003266906239790918
s(S'is'
p1171
S'[[adj]]'
p1172
S'song'
p1173
tp1174
F0.0003266906239790918
s(S'[[det]]'
p1175
g526
g53
tp1176
F0.0003266906239790918
s(S'comedy'
p1177
S'film'
p1178
S'starring'
p1179
tp1180
F0.003920287487749101
s(S'released'
p1181
S'by'
p1182
S'[[adj]]'
p1183
tp1184
F0.0013067624959163672
s(S'was'
p1185
S'directed'
p1186
S'written'
p1187
tp1188
F0.0003266906239790918
s(S'written'
p1189
S'directed'
p1190
S'[[con]]'
p1191
tp1192
F0.0009800718719372753
s(g297
g298
S'[[con]]'
p1193
tp1194
F0.0006533812479581836
s(S'was'
p1195
S'adapted'
p1196
g979
tp1197
F0.0003266906239790918
s(g421
g422
S'by'
p1198
tp1199
F0.0006533812479581836
s(g1098
g1099
S'film'
p1200
tp1201
F0.0003266906239790918
s(S'song'
p1202
S'by'
p1203
S'singersongwriter'
p1204
tp1205
F0.0003266906239790918
s(S'was'
p1206
S'produced'
p1207
S'with'
p1208
tp1209
F0.0003266906239790918
s(S'written'
p1210
S'[[con]]'
p1211
S'starring'
p1212
tp1213
F0.003920287487749101
s(g251
S'crime'
p1214
S'drama'
p1215
tp1216
F0.0003266906239790918
s(S'action'
p1217
S'film'
p1218
S'about'
p1219
tp1220
F0.0003266906239790918
s(g306
S'song'
p1221
S'written'
p1222
tp1223
F0.0006533812479581836
s(S'track'
p1224
S'released'
p1225
S'[[con]]'
p1226
tp1227
F0.0003266906239790918
s(S'[[det]]'
p1228
S'song'
p1229
S'[[adj]]'
p1230
tp1231
F0.0003266906239790918
s(S'by'
p1232
S'[[con]]'
p1233
S'stars'
p1234
tp1235
F0.0003266906239790918
s(S'[[det]]'
p1236
S'debut'
p1237
S'album'
p1238
tp1239
F0.003266906239790918
s(S'directed'
p1240
g440
g441
tp1241
F0.0003266906239790918
s(S'later'
p1242
S'performed'
p1243
S'by'
p1244
tp1245
F0.0003266906239790918
s(S'song'
p1246
S'performed'
p1247
S'[[con]]'
p1248
tp1249
F0.0003266906239790918
s(S'horror'
p1250
S'film'
p1251
S'directed'
p1252
tp1253
F0.003920287487749101
s(S'drama'
p1254
S'film'
p1255
S'produced'
p1256
tp1257
F0.0009800718719372753
s(S'documentary'
p1258
S'film'
p1259
S'by'
p1260
tp1261
F0.0006533812479581836
s(S'[[adj]]'
p1262
S'composition'
p1263
S'written'
p1264
tp1265
F0.0003266906239790918
s(g700
S'starring'
p1266
S'[[con]]'
p1267
tp1268
F0.0003266906239790918
s(S'[[num]]'
p1269
g666
g667
tp1270
F0.0006533812479581836
s(S'comedydrama'
p1271
S'film'
p1272
S'directed'
p1273
tp1274
F0.001633453119895459
s(S'released'
p1275
S'by'
p1276
S'alternative'
p1277
tp1278
F0.0003266906239790918
s(S'music'
p1279
S'singer'
p1280
S'in'
p1281
tp1282
F0.0003266906239790918
s(S'documentary'
p1283
S'film'
p1284
S'about'
p1285
tp1286
F0.0003266906239790918
s(g927
g928
g206
tp1287
F0.0009800718719372753
s(g1247
g1248
S'written'
p1288
tp1289
F0.0003266906239790918
s(g393
g394
S'of'
p1290
tp1291
F0.0006533812479581836
s(S'film'
p1292
S'written'
p1293
S'by'
p1294
tp1295
F0.0029402156158118264
s(S'film'
p1296
g109
g110
tp1297
F0.007840574975498203
s(S'album'
p1298
g717
g718
tp1299
F0.0006533812479581836
s(S'directed'
p1300
S'by'
p1301
S'[[con]]'
p1302
tp1303
F0.016007840574975497
s(S'drama'
p1304
S'film'
p1305
S'featuring'
p1306
tp1307
F0.0003266906239790918
s(S'[[con]]'
p1308
S'starring'
p1309
S'[[con]]'
p1310
tp1311
F0.009800718719372754
s(S'crime'
p1312
S'thriller'
p1313
S'film'
p1314
tp1315
F0.0013067624959163672
s(S'[[det]]'
p1316
S'horror'
p1317
S'film'
p1318
tp1319
F0.0009800718719372753
s(S'[[num]]'
p1320
S'song'
p1321
S'by'
p1322
tp1323
F0.0009800718719372753
s(S'[[det]]'
p1324
S'film'
p1325
S'by'
p1326
tp1327
F0.0003266906239790918
s(S'had'
p1328
S'recorded'
p1329
S'with'
p1330
tp1331
F0.0003266906239790918
s(g99
g140
g707
tp1332
F0.0006533812479581836
s(S'is'
p1333
S'based'
p1334
S'upon'
p1335
tp1336
F0.0003266906239790918
s(S'was'
p1337
S'recorded'
p1338
S'by'
p1339
tp1340
F0.0003266906239790918
s(S'thriller'
p1341
S'film'
p1342
S'released'
p1343
tp1344
F0.0003266906239790918
s(S'was'
p1345
S'performed'
p1346
S'by'
p1347
tp1348
F0.0003266906239790918
s(S'[[det]]'
p1349
S'language'
p1350
S'film'
p1351
tp1352
F0.0006533812479581836
s(S'is'
p1353
S'based'
p1354
S'from'
p1355
tp1356
F0.0003266906239790918
s(S'from'
p1357
S'[[det]]'
p1358
S'band'
p1359
tp1360
F0.0003266906239790918
s(S'song'
p1361
S'performed'
p1362
S'by'
p1363
tp1364
F0.001633453119895459
s(S'is'
p1365
S'directed'
p1366
S'by'
p1367
tp1368
F0.0003266906239790918
s(S'by'
p1369
S'[[det]]'
p1370
S'based'
p1371
tp1372
F0.0003266906239790918
s(S'[[adj]]'
p1373
S'comedy'
p1374
S'starring'
p1375
tp1376
F0.0003266906239790918
s(S'album'
p1377
g1131
g1132
tp1378
F0.0013067624959163672
s(S'[[num]]'
p1379
S'family'
p1380
S'film'
p1381
tp1382
F0.0006533812479581836
s(S'film'
p1383
S'starring'
p1384
S'[[det]]'
p1385
tp1386
F0.0003266906239790918
s(g130
g85
g86
tp1387
F0.0003266906239790918
s(g980
g981
S'in'
p1388
tp1389
F0.0003266906239790918
s(S'[[det]]'
p1390
g368
g369
tp1391
F0.0009800718719372753
s(S'film'
p1392
S'[[adj]]'
p1393
S'starring'
p1394
tp1395
F0.0003266906239790918
s(S'written'
p1396
S'by'
p1397
S'[[con]]'
p1398
tp1399
F0.0006533812479581836
s(S'[[num]]'
p1400
S'documentary'
p1401
S'film'
p1402
tp1403
F0.0029402156158118264
s(S'[[adj]]'
p1404
S'film'
p1405
S'by'
p1406
tp1407
F0.0009800718719372753
s(S'was'
p1408
S'produced'
p1409
S'directed'
p1410
tp1411
F0.0003266906239790918
s(S'[[det]]'
p1412
S'song'
p1413
S'with'
p1414
tp1415
F0.0009800718719372753
s(S'[[adj]]'
p1416
g190
g191
tp1417
F0.0006533812479581836
s(S'film'
p1418
S'[[con]]'
p1419
S'[[adj]]'
p1420
tp1421
F0.0003266906239790918
s(S'composed'
p1422
S'with'
p1423
S'lyrics'
p1424
tp1425
F0.0009800718719372753
s(S'written'
p1426
S'jointly'
p1427
S'by'
p1428
tp1429
F0.0003266906239790918
s(S'crime'
p1430
S'drama'
p1431
S'film'
p1432
tp1433
F0.0019601437438745506
s(g82
g83
S'by'
p1434
tp1435
F0.003920287487749101
s(S'song'
p1436
g1169
g607
tp1437
F0.0003266906239790918
s(S'comedy'
p1438
S'film'
p1439
S'released'
p1440
tp1441
F0.0003266906239790918
s(g590
g591
g889
tp1442
F0.007840574975498203
s(S'[[det]]'
p1443
S'documentary'
p1444
S'film'
p1445
tp1446
F0.0006533812479581836
s(S'recorded'
p1447
S'by'
p1448
S'recording'
p1449
tp1450
F0.0003266906239790918
s(S'[[num]]'
p1451
S'romance'
p1452
S'film'
p1453
tp1454
F0.001633453119895459
s(S'directed'
p1455
S'[[con]]'
p1456
S'starred'
p1457
tp1458
F0.0003266906239790918
s(g1183
S'metal'
p1459
S'band'
p1460
tp1461
F0.0029402156158118264
s(S'[[adj]]'
p1462
S'song'
p1463
S'recorded'
p1464
tp1465
F0.0003266906239790918
s(S'[[num]]'
p1466
S'written'
p1467
S'by'
p1468
tp1469
F0.0003266906239790918
s(S'film'
p1470
g129
g130
tp1471
F0.0003266906239790918
s(S'[[adj]]'
p1472
S'song'
p1473
S'by'
p1474
tp1475
F0.0003266906239790918
s(g887
g142
g143
tp1476
F0.0006533812479581836
s(S'[[det]]'
p1477
g621
g622
tp1478
F0.0003266906239790918
s(S'[[num]]'
p1479
S'mystery'
p1480
S'thriller'
p1481
tp1482
F0.0003266906239790918
s(g1453
S'starring'
p1483
S'[[con]]'
p1484
tp1485
F0.012414243711205489
s(S'cast'
p1486
S'comedydrama'
p1487
S'film'
p1488
tp1489
F0.0003266906239790918
s(g1230
S'released'
p1490
S'as'
p1491
tp1492
F0.0006533812479581836
s(S'war'
p1493
S'film'
p1494
S'directed'
p1495
tp1496
F0.0013067624959163672
s(g950
g951
S'written'
p1497
tp1498
F0.0003266906239790918
s(S'song'
p1499
g808
g809
tp1500
F0.0009800718719372753
s(S'song'
p1501
S'by'
p1502
S'pop'
p1503
tp1504
F0.0006533812479581836
s(S'movie'
p1505
S'directed'
p1506
S'starring'
p1507
tp1508
F0.0003266906239790918
s(S'assassination'
p1509
g281
g282
tp1510
F0.0003266906239790918
s(S'[[adj]]'
p1511
S'film'
p1512
S'about'
p1513
tp1514
F0.0003266906239790918
s(S'[[det]]'
p1515
S'drama'
p1516
S'film'
p1517
tp1518
F0.0006533812479581836
s(g309
g310
S'by'
p1519
tp1520
F0.0003266906239790918
s(S'film'
p1521
g694
g695
tp1522
F0.0009800718719372753
s(S'[[num]]'
p1523
S'thriller'
p1524
S'film'
p1525
tp1526
F0.00555374060764456
s(S'[[num]]'
p1527
S'written'
p1528
S'[[con]]'
p1529
tp1530
F0.0003266906239790918
s(S'[[adj]]'
p1531
S'song'
p1532
S'[[con]]'
p1533
tp1534
F0.0006533812479581836
s(S'composed'
p1535
S'lyrics'
p1536
S'by'
p1537
tp1538
F0.0003266906239790918
s(S'by'
p1539
g61
g62
tp1540
F0.0003266906239790918
s(g321
g322
S'rock'
p1541
tp1542
F0.0003266906239790918
s(S'[[adj]]'
p1543
S'track'
p1544
S'was'
p1545
tp1546
F0.0003266906239790918
s(S'[[det]]'
p1547
S'film'
p1548
S'directed'
p1549
tp1550
F0.0029402156158118264
s(S'by'
p1551
g164
g165
tp1552
F0.0006533812479581836
s(S'[[num]]'
p1553
g541
g542
tp1554
F0.001633453119895459
s(S'[[adj]]'
p1555
S'film'
p1556
S'where'
p1557
tp1558
F0.0003266906239790918
s(g1420
S'comedy'
p1559
S'written'
p1560
tp1561
F0.0003266906239790918
s(g933
g934
S'as'
p1562
tp1563
F0.0003266906239790918
s(S'film'
p1564
S'directed'
p1565
S'as'
p1566
tp1567
F0.0006533812479581836
s(g290
g97
g98
tp1568
F0.0006533812479581836
s(S'recorded'
p1569
S'by'
p1570
S'singer'
p1571
tp1572
F0.0003266906239790918
s(S'[[det]]'
p1573
g1509
g281
tp1574
F0.0003266906239790918
s(S'[[det]]'
p1575
g356
g357
tp1576
F0.0003266906239790918
s(S'known'
p1577
S'is'
p1578
S'[[adj]]'
p1579
tp1580
F0.0006533812479581836
s(S'song'
p1581
g953
g954
tp1582
F0.0006533812479581836
s(S'drama'
p1583
S'film'
p1584
S'[[adj]]'
p1585
tp1586
F0.0006533812479581836
s(S'by'
p1587
S'film'
p1588
S'stars'
p1589
tp1590
F0.0003266906239790918
s(S'[[adj]]'
p1591
S'piece'
p1592
S'written'
p1593
tp1594
F0.0003266906239790918
s(g1439
g1440
S'starring'
p1595
tp1596
F0.0009800718719372753
s(S'crime'
p1597
S'drama'
p1598
S'starring'
p1599
tp1600
F0.0003266906239790918
s(g1165
S'from'
p1601
S'album'
p1602
tp1603
F0.0003266906239790918
s(S'[[con]]'
p1604
S'was'
p1605
S'directed'
p1606
tp1607
F0.0003266906239790918
s(S'[[num]]'
p1608
S'action'
p1609
S'film'
p1610
tp1611
F0.004246978111728194
s(S'comedy'
p1612
S'directed'
p1613
S'written'
p1614
tp1615
F0.0003266906239790918
s(S'film'
p1616
S'[[adj]]'
p1617
S'directed'
p1618
tp1619
F0.0006533812479581836
s(S'directed'
p1620
g1308
g1309
tp1621
F0.02711532179026462
s(S'film'
p1622
S'directed'
p1623
S'that'
p1624
tp1625
F0.0003266906239790918
s(S'album'
p1626
S'from'
p1627
S'rock'
p1628
tp1629
F0.0006533812479581836
s(S'performed'
p1630
S'by'
p1631
S'singer'
p1632
tp1633
F0.0003266906239790918
s(g951
g1497
S'[[con]]'
p1634
tp1635
F0.0003266906239790918
s(S'[[con]]'
p1636
S'originally'
p1637
S'recorded'
p1638
tp1639
F0.0003266906239790918
s(g598
g599
S'starring'
p1640
tp1641
F0.0006533812479581836
s(S'film'
p1642
g1620
g1308
tp1643
F0.028422084286180985
s(S'[[num]]'
p1644
g1493
g1494
tp1645
F0.001633453119895459
s(S'by'
p1646
S'[[det]]'
p1647
S'singersongwriter'
p1648
tp1649
F0.0003266906239790918
s(S'directed'
p1650
S'by'
p1651
S'starring'
p1652
tp1653
F0.010127409343351846
s(S'by'
p1654
S'starring'
p1655
S'[[det]]'
p1656
tp1657
F0.0003266906239790918
s(S'by'
p1658
g1390
g368
tp1659
F0.0009800718719372753
s(S'was'
p1660
S'produced'
p1661
S'from'
p1662
tp1663
F0.0003266906239790918
s(S'[[num]]'
p1664
g146
g147
tp1665
F0.0022868343678536427
s(S'was'
p1666
S'recorded'
p1667
S'during'
p1668
tp1669
F0.0003266906239790918
s(S'is'
p1670
S'composed'
p1671
S'with'
p1672
tp1673
F0.0003266906239790918
s(S'adventure'
p1674
S'film'
p1675
S'starring'
p1676
tp1677
F0.0013067624959163672
s(S'starring'
p1678
g589
g590
tp1679
F0.0026135249918327343
s(S'also'
p1680
S'adapted'
p1681
S'by'
p1682
tp1683
F0.0003266906239790918
s(g397
g398
S'[[con]]'
p1684
tp1685
F0.0003266906239790918
s(g1004
S'rock'
p1686
S'band'
p1687
tp1688
F0.0026135249918327343
s(S'be'
p1689
S'written'
p1690
S'[[con]]'
p1691
tp1692
F0.0003266906239790918
s(g816
g817
S'by'
p1693
tp1694
F0.0003266906239790918
s(S'[[num]]'
p1695
g603
g604
tp1696
F0.0006533812479581836
s(S'written'
p1697
g1056
g1057
tp1698
F0.0003266906239790918
s(S'[[adj]]'
p1699
S'comedy'
p1700
g1642
tp1701
F0.006860503103560928
s(g1380
g1381
S'directed'
p1702
tp1703
F0.0009800718719372753
s(S'[[con]]'
p1704
S'directed'
p1705
S'which'
p1706
tp1707
F0.0003266906239790918
s(S'was'
p1708
S'created'
p1709
S'with'
p1710
tp1711
F0.0003266906239790918
s(S'is'
p1712
S'directed'
p1713
S'[[con]]'
p1714
tp1715
F0.0006533812479581836
s(S'[[det]]'
p1716
S'war'
p1717
S'film'
p1718
tp1719
F0.0003266906239790918
s(g1111
S'[[con]]'
p1720
S'starring'
p1721
tp1722
F0.0003266906239790918
s(S'[[det]]'
p1723
S'film'
p1724
S'comedy'
p1725
tp1726
F0.0003266906239790918
s(S'comedy'
p1727
g1392
g1393
tp1728
F0.0003266906239790918
s(g683
g684
S'by'
p1729
tp1730
F0.0006533812479581836
s(g1293
g1294
S'starring'
p1731
tp1732
F0.0003266906239790918
s(g329
g330
S'by'
p1733
tp1734
F0.0009800718719372753
s(S'is'
p1735
S'based'
p1736
S'on'
p1737
tp1738
F0.0006533812479581836
s(S'[[det]]'
p1739
S'film'
p1740
S'starring'
p1741
tp1742
F0.0006533812479581836
s(g1071
g312
g313
tp1743
F0.0019601437438745506
s(S'[[num]]'
p1744
g1177
g1178
tp1745
F0.008820646847435479
s(g499
g500
S'by'
p1746
tp1747
F0.0013067624959163672
s(S'was'
p1748
S'written'
p1749
S'produced'
p1750
tp1751
F0.0006533812479581836
s(g438
S'directed'
p1752
S'based'
p1753
tp1754
F0.0006533812479581836
s(S'[[adj]]'
p1755
S'released'
p1756
S'from'
p1757
tp1758
F0.0006533812479581836
s(g520
S'[[det]]'
p1759
S'song'
p1760
tp1761
F0.0019601437438745506
s(S'produced'
p1762
S'directed'
p1763
S'by'
p1764
tp1765
F0.0013067624959163672
s(S'song'
p1766
g1646
g1647
tp1767
F0.0022868343678536427
s(g354
S'[[adj]]'
p1768
S'released'
p1769
tp1770
F0.0003266906239790918
s(S'song'
p1771
S'by'
p1772
S'musician'
p1773
tp1774
F0.0003266906239790918
s(S'was'
p1775
S'written'
p1776
S'to'
p1777
tp1778
F0.0003266906239790918
s(S'was'
p1779
S'written'
p1780
S'that'
p1781
tp1782
F0.0003266906239790918
s(g317
g318
S'was'
p1783
tp1784
F0.0009800718719372753
s(S'[[adj]]'
p1785
S'song'
p1786
S'composed'
p1787
tp1788
F0.0006533812479581836
s(S'[[det]]'
p1789
S'song'
p1790
S'released'
p1791
tp1792
F0.0003266906239790918
s(g1375
S'[[con]]'
p1793
S'written'
p1794
tp1795
F0.0003266906239790918
s(S'was'
p1796
S'directed'
p1797
S'[[con]]'
p1798
tp1799
F0.0029402156158118264
s(g2
g3
S'by'
p1800
tp1801
F0.006207121855602744
s(S'song'
p1802
g154
g49
tp1803
F0.0026135249918327343
s(S'was'
p1804
g1426
g1427
tp1805
F0.0003266906239790918
s(S'also'
p1806
S'performed'
p1807
S'by'
p1808
tp1809
F0.0003266906239790918
s(g1705
g1706
S'starred'
p1810
tp1811
F0.0003266906239790918
s(S'by'
p1812
S'rock'
p1813
S'singer'
p1814
tp1815
F0.0003266906239790918
s(S'from'
p1816
S'debut'
p1817
S'album'
p1818
tp1819
F0.0003266906239790918
s(S'been'
p1820
S'recorded'
p1821
S'as'
p1822
tp1823
F0.0003266906239790918
s(g1370
g1371
S'band'
p1824
tp1825
F0.0003266906239790918
s(S'[[adj]]'
p1826
S'documentary'
p1827
S'film'
p1828
tp1829
F0.0003266906239790918
s(S'[[adj]]'
p1830
S'written'
p1831
S'by'
p1832
tp1833
F0.0003266906239790918
s(S'[[con]]'
p1834
S'sung'
p1835
S'by'
p1836
tp1837
F0.0003266906239790918
s(S'[[num]]'
p1838
S'mystery'
p1839
S'crime'
p1840
tp1841
F0.0003266906239790918
s(g437
g438
g1752
tp1842
F0.013067624959163672
s(S'[[det]]'
p1843
g1802
g154
tp1844
F0.0019601437438745506
s(g1427
g1428
S'lead'
p1845
tp1846
F0.0003266906239790918
s(g195
g196
S'[[adj]]'
p1847
tp1848
F0.0003266906239790918
s(S'[[det]]'
p1849
g908
g909
tp1850
F0.0003266906239790918
s(g863
g864
S'starring'
p1851
tp1852
F0.0009800718719372753
s(S'is'
p1853
S'produced'
p1854
S'by'
p1855
tp1856
F0.0003266906239790918
s(S'feature'
p1857
S'film'
p1858
S'directed'
p1859
tp1860
F0.0026135249918327343
s(g779
g780
S'film'
p1861
tp1862
F0.0003266906239790918
s(S'was'
p1863
S'written'
p1864
S'in'
p1865
tp1866
F0.0003266906239790918
s(g1839
g1840
S'film'
p1867
tp1868
F0.0003266906239790918
s(S'[[num]]'
p1869
S'based'
p1870
S'on'
p1871
tp1872
F0.0003266906239790918
s(g1214
g1215
S'directed'
p1873
tp1874
F0.0003266906239790918
s(S'is'
p1875
S'written'
p1876
S'by'
p1877
tp1878
F0.0003266906239790918
s(S'[[num]]'
p1879
S'produced'
p1880
S'by'
p1881
tp1882
F0.0003266906239790918
s(S'[[num]]'
p1883
S'based'
p1884
S'by'
p1885
tp1886
F0.0003266906239790918
s(S'film'
p1887
g686
g687
tp1888
F0.0003266906239790918
s(S'directed'
p1889
S'[[con]]'
p1890
S'stars'
p1891
tp1892
F0.0019601437438745506
s(S'[[adj]]'
p1893
S'death'
p1894
S'metal'
p1895
tp1896
F0.0009800718719372753
s(S'[[num]]'
p1897
S'song'
p1898
S'written'
p1899
tp1900
F0.0009800718719372753
s(S'[[det]]'
p1901
S'crime'
p1902
S'film'
p1903
tp1904
F0.0003266906239790918
s(S'[[adj]]'
p1905
S'track'
p1906
S'from'
p1907
tp1908
F0.0003266906239790918
s(S'is'
p1909
S'based'
p1910
S'[[con]]'
p1911
tp1912
F0.0003266906239790918
s(S'written'
p1913
g1604
g1605
tp1914
F0.0006533812479581836
s(g1182
g1183
g1459
tp1915
F0.0029402156158118264
s(S'[[adj]]'
p1916
S'mystery'
p1917
S'film'
p1918
tp1919
F0.0003266906239790918
s(g675
g676
S'drama'
p1920
tp1921
F0.0003266906239790918
s(g349
g350
S'band'
p1922
tp1923
F0.001633453119895459
s(g1362
g1363
S'recording'
p1924
tp1925
F0.0003266906239790918
s(S'[[det]]'
p1926
S'songs'
p1927
S'with'
p1928
tp1929
F0.0003266906239790918
s(S'directed'
p1930
g1587
g1588
tp1931
F0.0006533812479581836
s(S'[[adj]]'
p1932
g1377
g1131
tp1933
F0.0003266906239790918
s(g353
g354
g1768
tp1934
F0.0003266906239790918
s(S'song'
p1935
S'by'
p1936
S'singer'
p1937
tp1938
F0.0006533812479581836
s(S'[[adj]]'
p1939
S'film'
p1940
S'directed'
p1941
tp1942
F0.007187193727540019
s(S'[[adj]]'
p1943
S'performed'
p1944
S'by'
p1945
tp1946
F0.0003266906239790918
s(S'[[adj]]'
p1947
S'composed'
p1948
S'by'
p1949
tp1950
F0.0003266906239790918
s(S'[[num]]'
p1951
S'produced'
p1952
S'[[con]]'
p1953
tp1954
F0.0003266906239790918
s(g1229
g1230
g1490
tp1955
F0.0003266906239790918
s(S'[[adj]]'
p1956
S'film'
p1957
S'that'
p1958
tp1959
F0.0003266906239790918
s(S'known'
p1960
S'is'
p1961
S'film'
p1962
tp1963
F0.0003266906239790918
s(g492
S'[[con]]'
p1964
S'directed'
p1965
tp1966
F0.005227049983665469
s(g730
g731
S'written'
p1967
tp1968
F0.0003266906239790918
s(g583
S'by'
p1969
S'singer'
p1970
tp1971
F0.0009800718719372753
s(S'[[det]]'
p1972
g178
g179
tp1973
F0.0003266906239790918
s(S'[[num]]'
p1974
g528
g529
tp1975
F0.0003266906239790918
s(S'film'
p1976
S'by'
p1977
S'director'
p1978
tp1979
F0.0009800718719372753
s(g361
g362
S'[[con]]'
p1980
tp1981
F0.0003266906239790918
s(g699
g700
g1266
tp1982
F0.0003266906239790918
s(S'language'
p1983
S'film'
p1984
S'written'
p1985
tp1986
F0.0003266906239790918
s(S'[[con]]'
p1987
S'starring'
p1988
S'as'
p1989
tp1990
F0.0006533812479581836
s(S'by'
p1991
S'[[con]]'
p1992
S'featuring'
p1993
tp1994
F0.0003266906239790918
s(S'[[adj]]'
p1995
S'comedy'
p1996
S'[[adj]]'
p1997
tp1998
F0.0006533812479581836
s(S'[[adj]]'
p1999
S'romance'
p2000
S'film'
p2001
tp2002
F0.0003266906239790918
s(g224
S'[[con]]'
p2003
S'written'
p2004
tp2005
F0.0006533812479581836
s(g894
g1050
S'starring'
p2006
tp2007
F0.0003266906239790918
s(g1196
g979
g980
tp2008
F0.0003266906239790918
s(g981
g1388
S'[[num]]'
p2009
tp2010
F0.0003266906239790918
s(g10
g11
g242
tp2011
F0.0013067624959163672
s(S'[[det]]'
p2012
S'song'
p2013
S'featuring'
p2014
tp2015
F0.0003266906239790918
s(S'by'
p2016
g408
g409
tp2017
F0.0003266906239790918
s(S'debut'
p2018
S'studio'
p2019
S'album'
p2020
tp2021
F0.0003266906239790918
s(S'by'
p2022
S'[[det]]'
p2023
S'singer'
p2024
tp2025
F0.0006533812479581836
s(g1592
g1593
S'by'
p2026
tp2027
F0.0003266906239790918
s(g731
g1967
S'[[con]]'
p2028
tp2029
F0.0003266906239790918
s(S'was'
p2030
S'adapted'
p2031
S'from'
p2032
tp2033
F0.0003266906239790918
s(S'[[det]]'
p2034
g1361
g1362
tp2035
F0.001633453119895459
s(S'[[det]]'
p2036
S'written'
p2037
S'produced'
p2038
tp2039
F0.0003266906239790918
s(S'directed'
p2040
S'written'
p2041
S'by'
p2042
tp2043
F0.001633453119895459
s(S'[[det]]'
p2044
g522
g523
tp2045
F0.0003266906239790918
s(S'been'
p2046
S'written'
p2047
S'by'
p2048
tp2049
F0.0003266906239790918
s(S'[[det]]'
p2050
S'film'
p2051
S'released'
p2052
tp2053
F0.0003266906239790918
s(S'romance'
p2054
S'film'
p2055
S'directed'
p2056
tp2057
F0.0013067624959163672
s(g1452
g1453
g1483
tp2058
F0.0006533812479581836
s(S'[[det]]'
p2059
g1887
g686
tp2060
F0.0003266906239790918
s(S'film'
p2061
g1159
g1160
tp2062
F0.0006533812479581836
s(S'[[adj]]'
p2063
S'fantasy'
p2064
S'film'
p2065
tp2066
F0.0003266906239790918
s(g1623
g1624
S'starred'
p2067
tp2068
F0.0003266906239790918
s(g1456
g1457
S'by'
p2069
tp2070
F0.0003266906239790918
s(S'album'
p2071
g1357
g1358
tp2072
F0.0003266906239790918
s(g1401
g1402
S'directed'
p2073
tp2074
F0.001633453119895459
s(S'also'
p2075
g1577
g1578
tp2076
F0.003266906239790918
s(S'film'
p2077
g1089
g1090
tp2078
F0.0009800718719372753
s(S'[[adj]]'
p2079
S'track'
p2080
S'of'
p2081
tp2082
F0.0003266906239790918
s(S'[[num]]'
p2083
g794
g795
tp2084
F0.0006533812479581836
s(S'length'
p2085
S'album'
p2086
S'by'
p2087
tp2088
F0.0003266906239790918
s(S'debut'
p2089
S'album'
p2090
S'from'
p2091
tp2092
F0.0003266906239790918
s(S'by'
p2093
g1064
g1065
tp2094
F0.0009800718719372753
s(g314
S'written'
p2095
S'[[con]]'
p2096
tp2097
F0.0003266906239790918
s(S'by'
p2098
S'[[det]]'
p2099
S'musician'
p2100
tp2101
F0.0003266906239790918
s(g1783
S'written'
p2102
S'[[con]]'
p2103
tp2104
F0.0026135249918327343
s(S'[[adj]]'
p2105
g670
g671
tp2106
F0.001633453119895459
s(S'action'
p2107
g1616
g1617
tp2108
F0.0003266906239790918
s(S'[[num]]'
p2109
g1312
g1313
tp2110
F0.0013067624959163672
s(S'not'
p2111
S'based'
p2112
S'on'
p2113
tp2114
F0.0003266906239790918
s(S'[[det]]'
p2115
S'song'
p2116
S'composed'
p2117
tp2118
F0.0009800718719372753
s(S'be'
p2119
S'produced'
p2120
S'by'
p2121
tp2122
F0.0003266906239790918
s(g19
S'written'
p2123
S'by'
p2124
tp2125
F0.0003266906239790918
s(g1749
g1750
S'[[con]]'
p2126
tp2127
F0.0006533812479581836
s(g1190
g1191
g1113
tp2128
F0.0006533812479581836
s(S'song'
p2129
g1422
g1423
tp2130
F0.0009800718719372753
s(S'[[adj]]'
p2131
g1224
g1225
tp2132
F0.0003266906239790918
s(g965
g1762
g1763
tp2133
F0.0003266906239790918
s(S'[[adj]]'
p2134
S'rock'
p2135
S'[[con]]'
p2136
tp2137
F0.0003266906239790918
s(S'produced'
p2138
S'[[con]]'
p2139
S'stars'
p2140
tp2141
F0.0003266906239790918
s(S'war'
p2142
S'film'
p2143
S'starring'
p2144
tp2145
F0.0009800718719372753
s(S'[[det]]'
p2146
S'color'
p2147
S'film'
p2148
tp2149
F0.0006533812479581836
s(S'later'
p2150
S'adapted'
p2151
S'by'
p2152
tp2153
F0.0003266906239790918
s(S'[[adj]]'
p2154
g1075
g1076
tp2155
F0.0003266906239790918
s(S'[[adj]]'
p2156
S'track'
p2157
S'on'
p2158
tp2159
F0.0006533812479581836
s(S'[[adj]]'
p2160
g1626
g1627
tp2161
F0.0006533812479581836
s(S'[[adj]]'
p2162
S'film'
p2163
S'based'
p2164
tp2165
F0.0003266906239790918
s(g790
g791
S'metal'
p2166
tp2167
F0.0003266906239790918
s(S'[[num]]'
p2168
g829
g825
tp2169
F0.0003266906239790918
s(g1637
g1638
S'by'
p2170
tp2171
F0.0003266906239790918
s(S'been'
p2172
S'performed'
p2173
S'by'
p2174
tp2175
F0.0003266906239790918
s(g775
g776
S'adventure'
p2176
tp2177
F0.0003266906239790918
s(S'is'
p2178
S'directed'
p2179
S'at'
p2180
tp2181
F0.0003266906239790918
s(S'by'
p2182
S'[[con]]'
p2183
S'producer'
p2184
tp2185
F0.0003266906239790918
s(S'album'
p2186
g348
g349
tp2187
F0.0009800718719372753
s(S'[[con]]'
p2188
g561
g562
tp2189
F0.0006533812479581836
s(S'[[num]]'
p2190
S'mystery'
p2191
S'film'
p2192
tp2193
F0.001633453119895459
s(g1110
g1111
g1720
tp2194
F0.0003266906239790918
s(g737
g738
S'by'
p2195
tp2196
F0.0003266906239790918
s(S'by'
p2197
g1893
g1894
tp2198
F0.0009800718719372753
s(S'known'
p2199
S'is'
p2200
g292
tp2201
F0.0026135249918327343
s(S'[[adj]]'
p2202
g2085
g2086
tp2203
F0.0003266906239790918
s(S'documentary'
p2204
S'film'
p2205
S'starring'
p2206
tp2207
F0.0003266906239790918
s(S'written'
p2208
g1834
g1835
tp2209
F0.0003266906239790918
s(S'[[num]]'
p2210
S'comedy'
p2211
S'drama'
p2212
tp2213
F0.0006533812479581836
s(g123
g705
S'album'
p2214
tp2215
F0.0003266906239790918
s(S'[[adj]]'
p2216
S'song'
p2217
S'[[det]]'
p2218
tp2219
F0.0003266906239790918
s(S'[[adj]]'
p2220
S'song'
p2221
S'with'
p2222
tp2223
F0.0006533812479581836
s(g272
g273
S'by'
p2224
tp2225
F0.0006533812479581836
s(S'was'
p2226
S'performed'
p2227
S'from'
p2228
tp2229
F0.0003266906239790918
s(g1428
g1845
S'singer'
p2230
tp2231
F0.0006533812479581836
s(g1263
g1264
S'by'
p2232
tp2233
F0.0003266906239790918
s(g1126
g1127
S'starring'
p2234
tp2235
F0.0003266906239790918
s(S'[[adj]]'
p2236
g125
g126
tp2237
F0.0019601437438745506
s(S'[[det]]'
p2238
g896
g897
tp2239
F0.0003266906239790918
s(S'[[adj]]'
p2240
S'directed'
p2241
S'[[con]]'
p2242
tp2243
F0.0003266906239790918
s(g170
g240
S'directed'
p2244
tp2245
F0.0006533812479581836
s(g1627
g1628
S'band'
p2246
tp2247
F0.0006533812479581836
s(S'by'
p2248
S'indie'
p2249
S'rock'
p2250
tp2251
F0.0019601437438745506
s(g1700
g1642
g1620
tp2252
F0.010454099967330937
s(g1559
g1560
S'[[con]]'
p2253
tp2254
F0.0003266906239790918
s(g18
g19
g2123
tp2255
F0.0003266906239790918
s(S'[[adj]]'
p2256
S'comedy'
p2257
S'directed'
p2258
tp2259
F0.0009800718719372753
s(S'not'
p2260
S'released'
p2261
S'as'
p2262
tp2263
F0.0003266906239790918
s(S'[[det]]'
p2264
S'directed'
p2265
S'by'
p2266
tp2267
F0.0003266906239790918
s(S'film'
p2268
S'by'
p2269
S'starring'
p2270
tp2271
F0.0009800718719372753
s(S'[[adj]]'
p2272
g1081
g1082
tp2273
F0.0003266906239790918
s(g1790
g1791
S'by'
p2274
tp2275
F0.0003266906239790918
s(g75
g977
S'directed'
p2276
tp2277
F0.0003266906239790918
s(S'song'
p2278
g514
g515
tp2279
F0.0003266906239790918
s(g1752
g1753
S'by'
p2280
tp2281
F0.0006533812479581836
s(S'[[det]]'
p2282
S'song'
p2283
S'that'
p2284
tp2285
F0.0003266906239790918
s(S'known'
p2286
S'is'
p2287
S'[[det]]'
p2288
tp2289
F0.0003266906239790918
s(S'[[con]]'
p2290
g1210
g1211
tp2291
F0.001633453119895459
s(S'[[det]]'
p2292
S'comedy'
p2293
S'action'
p2294
tp2295
F0.0003266906239790918
s(g1102
g1103
S'directed'
p2296
tp2297
F0.0006533812479581836
s(S'[[num]]'
p2298
g41
g42
tp2299
F0.0006533812479581836
s(S'[[adj]]'
p2300
S'produced'
p2301
S'[[con]]'
p2302
tp2303
F0.0003266906239790918
s(g1086
g1087
S'[[con]]'
p2304
tp2305
F0.0003266906239790918
s(S'comedy'
p2306
S'directed'
p2307
S'by'
p2308
tp2309
F0.0006533812479581836
s(S'[[adj]]'
p2310
S'film'
p2311
g1678
tp2312
F0.0029402156158118264
s(g1617
g1618
S'by'
p2313
tp2314
F0.0009800718719372753
s(S'comedydrama'
p2315
S'film'
p2316
S'starring'
p2317
tp2318
F0.001633453119895459
s(g1890
g1891
S'[[con]]'
p2319
tp2320
F0.0006533812479581836
s(g152
g536
S'singer'
p2321
tp2322
F0.0013067624959163672
s(g1374
g1375
g1793
tp2323
F0.0003266906239790918
s(g2249
g2250
S'band'
p2324
tp2325
F0.0019601437438745506
s(g2293
g2294
S'film'
p2326
tp2327
F0.0003266906239790918
s(g1255
g1256
S'by'
p2328
tp2329
F0.0003266906239790918
s(g964
g965
g1762
tp2330
F0.0003266906239790918
s(S'[[con]]'
p2331
S'produced'
p2332
S'by'
p2333
tp2334
F0.007840574975498203
s(S'made'
p2335
S'[[con]]'
p2336
S'starring'
p2337
tp2338
F0.0003266906239790918
s(g1609
g1610
S'directed'
p2339
tp2340
F0.003266906239790918
s(g1578
g1579
S'film'
p2341
tp2342
F0.0003266906239790918
s(S'is'
p2343
g466
g467
tp2344
F0.0022868343678536427
s(g133
g134
S'[[con]]'
p2345
tp2346
F0.0003266906239790918
s(S'[[adj]]'
p2347
S'song'
p2348
S'of'
p2349
tp2350
F0.0003266906239790918
s(S'[[adj]]'
p2351
S'thriller'
p2352
S'directed'
p2353
tp2354
F0.0003266906239790918
s(S'documentary'
p2355
S'film'
p2356
S'written'
p2357
tp2358
F0.0003266906239790918
s(S'directed'
p2359
g412
g413
tp2360
F0.0003266906239790918
s(S'[[det]]'
p2361
g1438
g1439
tp2362
F0.0013067624959163672
s(S'album'
p2363
g1658
g1390
tp2364
F0.004900359359686377
s(S'[[adj]]'
p2365
S'based'
p2366
S'by'
p2367
tp2368
F0.0003266906239790918
s(S'[[det]]'
p2369
g214
g215
tp2370
F0.0009800718719372753
s(S'film'
p2371
g762
g763
tp2372
F0.0009800718719372753
s(S'released'
p2373
S'by'
p2374
S'rock'
p2375
tp2376
F0.0003266906239790918
s(g1419
g1420
g1559
tp2377
F0.0003266906239790918
s(S'title'
p2378
S'[[con]]'
p2379
S'recorded'
p2380
tp2381
F0.0006533812479581836
s(S'sports'
p2382
S'drama'
p2383
S'film'
p2384
tp2385
F0.0003266906239790918
s(S'was'
p2386
g261
g262
tp2387
F0.0003266906239790918
s(S'film'
p2388
g2335
g2336
tp2389
F0.0003266906239790918
s(S'article'
p2390
g2343
g466
tp2391
F0.0003266906239790918
s(g871
g872
S'[[con]]'
p2392
tp2393
F0.0009800718719372753
s(g913
g914
S'country'
p2394
tp2395
F0.0003266906239790918
s(g140
g707
g708
tp2396
F0.0013067624959163672
s(S'[[det]]'
p2397
S'song'
p2398
S'from'
p2399
tp2400
F0.0006533812479581836
s(g491
g492
g1964
tp2401
F0.0022868343678536427
s(S'[[adj]]'
p2402
S'song'
p2403
S'on'
p2404
tp2405
F0.0003266906239790918
s(S'[[num]]'
p2406
S'thriller'
p2407
S'directed'
p2408
tp2409
F0.0003266906239790918
s(g883
g884
S'metal'
p2410
tp2411
F0.0006533812479581836
s(S'[[adj]]'
p2412
g1486
g1487
tp2413
F0.0003266906239790918
s(S'language'
p2414
S'film'
p2415
S'directed'
p2416
tp2417
F0.0006533812479581836
s(S'is'
p2418
S'composed'
p2419
S'by'
p2420
tp2421
F0.0006533812479581836
s(g835
g836
S'by'
p2422
tp2423
F0.0003266906239790918
s(g977
g2276
S'[[con]]'
p2424
tp2425
F0.0003266906239790918
s(S'[[det]]'
p2426
g2018
g2019
tp2427
F0.0003266906239790918
s(S'[[adj]]'
p2428
g1125
g1126
tp2429
F0.0006533812479581836
s(S'was'
p2430
g1097
g1098
tp2431
F0.0006533812479581836
s(g1431
g1432
S'starring'
p2432
tp2433
F0.0026135249918327343
s(S'[[num]]'
p2434
S'comedy'
p2435
S'[[adj]]'
p2436
tp2437
F0.0006533812479581836
s(S'[[det]]'
p2438
g2378
g2379
tp2439
F0.0006533812479581836
s(g1480
g1481
S'film'
p2440
tp2441
F0.0003266906239790918
s(S'written'
p2442
g1636
g1637
tp2443
F0.0003266906239790918
s(g586
g587
g816
tp2444
F0.0003266906239790918
s(g2287
g2288
S'pop'
p2445
tp2446
F0.0003266906239790918
s(g801
g802
S'film'
p2447
tp2448
F0.0013067624959163672
s(S'[[det]]'
p2449
S'album'
p2450
g661
tp2451
F0.0003266906239790918
s(S'was'
p2452
S'credited'
p2453
S'to'
p2454
tp2455
F0.0003266906239790918
s(g305
g306
g1221
tp2456
F0.0006533812479581836
s(S'comedy'
p2457
g2310
g2311
tp2458
F0.001633453119895459
s(S'film'
p2459
g285
g286
tp2460
F0.0006533812479581836
s(S'directed'
p2461
S'[[con]]'
p2462
S'featuring'
p2463
tp2464
F0.0009800718719372753
s(g1155
g1167
S'band'
p2465
tp2466
F0.0013067624959163672
s(S'comedydrama'
p2467
S'film'
p2468
S'written'
p2469
tp2470
F0.001633453119895459
s(g191
g192
S'written'
p2471
tp2472
F0.0006533812479581836
s(g398
g1684
S'produced'
p2473
tp2474
F0.0003266906239790918
s(S'album'
p2475
S'by'
p2476
S'indie'
p2477
tp2478
F0.0009800718719372753
s(g1448
g1449
S'artist'
p2479
tp2480
F0.0009800718719372753
s(S'was'
p2481
S'written'
p2482
S'with'
p2483
tp2484
F0.0003266906239790918
s(S'[[det]]'
p2485
g458
g459
tp2486
F0.0006533812479581836
s(S'[[num]]'
p2487
S'family'
p2488
S'adventure'
p2489
tp2490
F0.0003266906239790918
s(g813
g814
S'starring'
p2491
tp2492
F0.0003266906239790918
s(g2488
g2489
S'film'
p2493
tp2494
F0.0003266906239790918
s(S'studio'
p2495
g2071
g1357
tp2496
F0.0006533812479581836
s(g2191
g2192
S'directed'
p2497
tp2498
F0.0019601437438745506
s(g1967
g2028
S'directed'
p2499
tp2500
F0.02188827180659915
s(S'[[num]]'
p2501
g1006
g1007
tp2502
F0.0003266906239790918
s(S'was'
p2503
S'written'
p2504
S'after'
p2505
tp2506
F0.0003266906239790918
s(g971
g972
S'by'
p2507
tp2508
F0.0003266906239790918
s(S'action'
p2509
S'film'
p2510
S'written'
p2511
tp2512
F0.0006533812479581836
s(S'noir'
p2513
S'directed'
p2514
S'by'
p2515
tp2516
F0.0006533812479581836
s(g2222
S'music'
p2517
S'written'
p2518
tp2519
F0.0003266906239790918
s(g176
g783
S'produced'
p2520
tp2521
F0.0026135249918327343
s(g42
g43
S'by'
p2522
tp2523
F0.0009800718719372753
s(S'[[det]]'
p2524
S'rock'
p2525
S'song'
p2526
tp2527
F0.0006533812479581836
s(g495
g496
S'by'
p2528
tp2529
F0.0006533812479581836
s(S'[[adj]]'
p2530
S'film'
p2531
S'written'
p2532
tp2533
F0.0013067624959163672
s(S'released'
p2534
S'from'
p2535
S'album'
p2536
tp2537
F0.0006533812479581836
s(g389
g390
S'directed'
p2538
tp2539
F0.0006533812479581836
s(g2352
g2353
S'by'
p2540
tp2541
F0.0003266906239790918
s(S'[[con]]'
p2542
S'edited'
p2543
S'by'
p2544
tp2545
F0.0003266906239790918
s(S'[[det]]'
p2546
g304
g305
tp2547
F0.0003266906239790918
s(S'[[num]]'
p2548
g744
g745
tp2549
F0.0009800718719372753
s(S'[[adj]]'
p2550
g758
g759
tp2551
F0.007513884351519112
s(S'[[num]]'
p2552
S'songs'
p2553
S'written'
p2554
tp2555
F0.0003266906239790918
s(g2283
g2284
g645
tp2556
F0.0003266906239790918
s(S'[[det]]'
p2557
g1181
g1182
tp2558
F0.0003266906239790918
s(g741
g742
S'band'
p2559
tp2560
F0.0013067624959163672
s(g250
g251
g1214
tp2561
F0.0003266906239790918
s(S'[[adj]]'
p2562
S'adventure'
p2563
S'film'
p2564
tp2565
F0.0006533812479581836
s(S'[[det]]'
p2566
S'film'
p2567
g2513
tp2568
F0.0003266906239790918
s(S'[[num]]'
p2569
g1470
g129
tp2570
F0.0003266906239790918
s(g1025
g271
g272
tp2571
F0.0003266906239790918
s(S'song'
p2572
g1535
g1536
tp2573
F0.0003266906239790918
s(g1961
g1962
S'starring'
p2574
tp2575
F0.0003266906239790918
s(S'crime'
p2576
S'film'
p2577
S'written'
p2578
tp2579
F0.0003266906239790918
s(g760
g798
S'band'
p2580
tp2581
F0.0006533812479581836
s(g345
g346
S'directed'
p2582
tp2583
F0.0013067624959163672
s(g318
g1783
g2102
tp2584
F0.0009800718719372753
s(S'then'
p2585
S'produced'
p2586
S'at'
p2587
tp2588
F0.0003266906239790918
s(S'was'
p2589
S'based'
p2590
S'[[con]]'
p2591
tp2592
F0.0003266906239790918
s(g1191
g1113
g1114
tp2593
F0.0003266906239790918
s(S'produced'
p2594
g1232
g1233
tp2595
F0.0003266906239790918
s(S'directed'
p2596
S'starring'
p2597
S'with'
p2598
tp2599
F0.0006533812479581836
s(g23
g711
S'comedy'
p2600
tp2601
F0.0003266906239790918
s(S'[[det]]'
p2602
g904
g905
tp2603
F0.0003266906239790918
s(S'[[adj]]'
p2604
g1418
g1419
tp2605
F0.0003266906239790918
s(S'[[num]]'
p2606
S'film'
p2607
S'with'
p2608
tp2609
F0.0003266906239790918
s(g1941
g2331
g2332
tp2610
F0.006860503103560928
s(S'film'
p2611
S'written'
p2612
g932
tp2613
F0.016987912446912775
s(S'[[det]]'
p2614
g2382
g2383
tp2615
F0.0003266906239790918
s(g726
g727
S'film'
p2616
tp2617
F0.0006533812479581836
s(S'is'
p2618
S'[[num]]'
p2619
S'mystery'
p2620
tp2621
F0.0003266906239790918
s(S'song'
p2622
S'from'
p2623
S'album'
p2624
tp2625
F0.0003266906239790918
s(g875
g876
S'in'
p2626
tp2627
F0.0003266906239790918
s(S'is'
p2628
S'created'
p2629
S'by'
p2630
tp2631
F0.0003266906239790918
s(S'[[num]]'
p2632
S'song'
p2633
S'recorded'
p2634
tp2635
F0.0006533812479581836
s(g1724
g1725
S'starring'
p2636
tp2637
F0.0003266906239790918
s(g196
g1847
S'track'
p2638
tp2639
F0.0003266906239790918
s(g1164
g1165
g1601
tp2640
F0.0003266906239790918
s(g1003
g1004
g1686
tp2641
F0.001633453119895459
s(S'song'
p2642
S'by'
p2643
S'[[adj]]'
p2644
tp2645
F0.0006533812479581836
s(S'[[num]]'
p2646
g1271
g1272
tp2647
F0.0029402156158118264
s(S'aka'
p2648
S'is'
p2649
S'[[num]]'
p2650
tp2651
F0.0006533812479581836
s(S'drama'
p2652
S'film'
p2653
S'written'
p2654
tp2655
F0.003266906239790918
s(g1237
g1238
S'by'
p2656
tp2657
F0.0029402156158118264
s(S'is'
p2658
S'[[num]]'
p2659
S'crime'
p2660
tp2661
F0.0006533812479581836
s(S'adventure'
p2662
S'film'
p2663
S'written'
p2664
tp2665
F0.0006533812479581836
s(S'[[num]]'
p2666
S'film'
p2667
S'written'
p2668
tp2669
F0.0029402156158118264
s(S'[[adj]]'
p2670
S'success'
p2671
S'for'
p2672
tp2673
F0.0003266906239790918
s(S'first'
p2674
S'produced'
p2675
S'by'
p2676
tp2677
F0.0003266906239790918
s(S'song'
p2678
S'by'
p2679
S'indie'
p2680
tp2681
F0.0003266906239790918
s(g1238
g2656
S'rock'
p2682
tp2683
F0.001633453119895459
s(S'with'
p2684
S'[[det]]'
p2685
S'script'
p2686
tp2687
F0.0003266906239790918
s(g989
g990
S'film'
p2688
tp2689
F0.0003266906239790918
s(g2634
g2022
g2023
tp2690
F0.0003266906239790918
s(g1301
g1302
S'starring'
p2691
tp2692
F0.016007840574975497
s(g519
g520
g1759
tp2693
F0.0022868343678536427
s(g2221
g2222
g2517
tp2694
F0.0003266906239790918
s(S'[[num]]'
p2695
S'novel'
p2696
S'by'
p2697
tp2698
F0.0003266906239790918
s(S'metal'
p2699
S'band'
p2700
S'album'
p2701
tp2702
F0.0003266906239790918
s(S'were'
p2703
S'written'
p2704
S'by'
p2705
tp2706
F0.0003266906239790918
s(S'song'
p2707
g117
g118
tp2708
F0.0003266906239790918
s(g2517
g2518
S'by'
p2709
tp2710
F0.0006533812479581836
s(g2525
g2526
S'written'
p2711
tp2712
F0.0006533812479581836
s(S'[[det]]'
p2713
g2457
g2310
tp2714
F0.0003266906239790918
s(S'[[det]]'
p2715
g936
g937
tp2716
F0.006207121855602744
s(g2147
g2148
S'starring'
p2717
tp2718
F0.0003266906239790918
s.