(dp0
(S'also'
p1
S'built'
p2
tp3
F0.005813953488372093
s(S'is'
p4
S'built'
p5
tp6
F0.01744186046511628
s(S'[[adj]]'
p7
S'designed'
p8
tp9
F0.005813953488372093
s(S'built'
p10
S'around'
p11
tp12
F0.005813953488372093
s(S'home'
p13
S'from'
p14
tp15
F0.005813953488372093
s(S'[[adj]]'
p16
S'architect'
p17
tp18
F0.011627906976744186
s(S'designed'
p19
S'with'
p20
tp21
F0.005813953488372093
s(S'built'
p22
S'up'
p23
tp24
F0.005813953488372093
s(S'architect'
p25
S'who'
p26
tp27
F0.005813953488372093
s(S'also'
p28
S'known'
p29
tp30
F0.005813953488372093
s(g26
S'also'
p31
tp32
F0.005813953488372093
s(S'[[adj]]'
p33
S'built'
p34
tp35
F0.01744186046511628
s(S'once'
p36
S'home'
p37
tp38
F0.005813953488372093
s(S'[[adj]]'
p39
S'house'
p40
tp41
F0.005813953488372093
s(S'built'
p42
S'over'
p43
tp44
F0.005813953488372093
s(S'built'
p45
S'was'
p46
tp47
F0.005813953488372093
s(S'[[det]]'
p48
S'home'
p49
tp50
F0.01744186046511628
s(g34
S'by'
p51
tp52
F0.08139534883720931
s(g37
S'to'
p53
tp54
F0.005813953488372093
s(S'built'
p55
S'on'
p56
tp57
F0.005813953488372093
s(S'by'
p58
S'[[det]]'
p59
tp60
F0.01744186046511628
s(S'were'
p61
S'built'
p62
tp63
F0.011627906976744186
s(S'built'
p64
S'[[num]]'
p65
tp66
F0.005813953488372093
s(S'home'
p67
S'at'
p68
tp69
F0.005813953488372093
s(S'[[num]]'
p70
S'built'
p71
tp72
F0.011627906976744186
s(S'by'
p73
g16
tp74
F0.011627906976744186
s(S'home'
p75
S'of'
p76
tp77
F0.005813953488372093
s(S'[[con]]'
p78
S'[[det]]'
p79
tp80
F0.005813953488372093
s(S'architect'
p81
S'of'
p82
tp83
F0.005813953488372093
s(S'[[det]]'
p84
S'architects'
p85
tp86
F0.005813953488372093
s(g31
S'designed'
p87
tp88
F0.005813953488372093
s(S'built'
p89
S'with'
p90
tp91
F0.005813953488372093
s(S'built'
p92
S'in'
p93
tp94
F0.005813953488372093
s(S'architects'
p95
S'[[con]]'
p96
tp97
F0.011627906976744186
s(S'home'
p98
S'[[det]]'
p99
tp100
F0.011627906976744186
s(S'to'
p101
S'home'
p102
tp103
F0.005813953488372093
s(S'[[det]]'
p104
S'built'
p105
tp106
F0.01744186046511628
s(S'[[con]]'
p107
S'built'
p108
tp109
F0.005813953488372093
s(S'by'
p110
S'noted'
p111
tp112
F0.005813953488372093
s(S'built'
p113
S'for'
p114
tp115
F0.040697674418604654
s(S'home'
p116
S'for'
p117
tp118
F0.005813953488372093
s(S'by'
p119
S'architect'
p120
tp121
F0.040697674418604654
s(S'designed'
p122
S'[[con]]'
p123
tp124
F0.005813953488372093
s(S'built'
p125
S'as'
p126
tp127
F0.01744186046511628
s(S'[[det]]'
p128
S'designed'
p129
tp130
F0.005813953488372093
s(S'by'
p131
g95
tp132
F0.01744186046511628
s(S'is'
p133
S'designed'
p134
tp135
F0.005813953488372093
s(g59
S'architect'
p136
tp137
F0.01744186046511628
s(S'been'
p138
S'designed'
p139
tp140
F0.005813953488372093
s(S'[[num]]'
p141
S'designed'
p142
tp143
F0.011627906976744186
s(S'designed'
p144
S'to'
p145
tp146
F0.005813953488372093
s(S'built'
p147
S'between'
p148
tp149
F0.011627906976744186
s(S'home'
p150
S'[[con]]'
p151
tp152
F0.005813953488372093
s(S'was'
p153
g64
tp154
F0.0872093023255814
s(S'was'
p155
S'designed'
p156
tp157
F0.08139534883720931
s(S'been'
p158
g113
tp159
F0.01744186046511628
s(S'be'
p160
S'built'
p161
tp162
F0.011627906976744186
s(S'[[adj]]'
p163
g150
tp164
F0.023255813953488372
s(g40
S'designed'
p165
tp166
F0.005813953488372093
s(g87
S'[[det]]'
p167
tp168
F0.005813953488372093
s(S'built'
p169
S'after'
p170
tp171
F0.005813953488372093
s(g156
S'by'
p172
tp173
F0.11627906976744186
s(S'is'
p174
g98
tp175
F0.005813953488372093
s(S'is'
p176
S'[[det]]'
p177
tp178
F0.005813953488372093
s(S'were'
p179
S'designed'
p180
tp181
F0.011627906976744186
s(S'built'
p182
S'at'
p183
tp184
F0.005813953488372093
s(S'designed'
p185
S'for'
p186
tp187
F0.005813953488372093
s(S'built'
p188
S'[[con]]'
p189
tp190
F0.011627906976744186
s(g29
g176
tp191
F0.005813953488372093
s.