(dp0
(S'served'
p1
S'alongside'
p2
tp3
F0.4444444444444444
s(S'[[con]]'
p4
S'alongside'
p5
tp6
F0.1111111111111111
s(S'has'
p7
S'served'
p8
tp9
F0.1111111111111111
s(g2
S'[[con]]'
p10
tp11
F0.1111111111111111
s(S'also'
p12
S'served'
p13
tp14
F0.1111111111111111
s(S'served'
p15
g4
tp16
F0.1111111111111111
s.