(dp0
(S'based'
p1
S'by'
p2
tp3
F0.14705882352941177
s(S'book'
p4
S'written'
p5
tp6
F0.08823529411764706
s(S'was'
p7
S'based'
p8
tp9
F0.058823529411764705
s(S'[[num]]'
p10
S'based'
p11
tp12
F0.08823529411764706
s(S'is'
p13
S'based'
p14
tp15
F0.14705882352941177
s(S'[[adj]]'
p16
S'book'
p17
tp18
F0.029411764705882353
s(S'based'
p19
S'from'
p20
tp21
F0.029411764705882353
s(g5
S'by'
p22
tp23
F0.08823529411764706
s(S'not'
p24
S'based'
p25
tp26
F0.029411764705882353
s(g8
S'[[con]]'
p27
tp28
F0.058823529411764705
s(g14
S'upon'
p29
tp30
F0.029411764705882353
s(S'based'
p31
S'was'
p32
tp33
F0.029411764705882353
s(S'[[adj]]'
p34
S'based'
p35
tp36
F0.029411764705882353
s(S'based'
p37
S'on'
p38
tp39
F0.08823529411764706
s(S'[[num]]'
p40
g4
tp41
F0.029411764705882353
s(S'[[det]]'
p42
S'book'
p43
tp44
F0.029411764705882353
s.