(dp0
(S'serves'
p1
S'[[num]]'
p2
tp3
F0.01
s(S'broadcast'
p4
S'to'
p5
tp6
F0.01
s(S'serves'
p7
S'to'
p8
tp9
F0.01
s(S'from'
p10
S'[[det]]'
p11
tp12
F0.01
s(S'network'
p13
S'of'
p14
tp15
F0.02
s(S'station'
p16
S'that'
p17
tp18
F0.01
s(S'with'
p19
S'[[det]]'
p20
tp21
F0.01
s(S'operates'
p22
S'[[adj]]'
p23
tp24
F0.01
s(S'service'
p25
S'[[adj]]'
p26
tp27
F0.02
s(S'broadcast'
p28
S'in'
p29
tp30
F0.01
s(S'forecast'
p31
S'office'
p32
tp33
F0.01
s(S'programmed'
p34
g10
tp35
F0.01
s(S'[[adj]]'
p36
S'network'
p37
tp38
F0.01
s(S'[[adj]]'
p39
S'signal'
p40
tp41
F0.01
s(S'currently'
p42
S'operates'
p43
tp44
F0.01
s(S'operates'
p45
S'from'
p46
tp47
F0.01
s(S'station'
p48
S'in'
p49
tp50
F0.06
s(S'[[det]]'
p51
S'area'
p52
tp53
F0.02
s(S'saw'
p54
S'service'
p55
tp56
F0.01
s(S'broadcasts'
p57
S'on'
p58
tp59
F0.01
s(S'also'
p60
g57
tp61
F0.02
s(S'[[prp]]'
p62
S'signal'
p63
tp64
F0.01
s(g43
S'in'
p65
tp66
F0.04
s(S'was'
p67
g4
tp68
F0.01
s(S'is'
p69
S'broadcast'
p70
tp71
F0.01
s(S'[[adj]]'
p72
S'station'
p73
tp74
F0.02
s(S'is'
p75
g34
tp76
F0.01
s(S'with'
p77
g39
tp78
F0.01
s(S'[[adj]]'
p79
S'service'
p80
tp81
F0.01
s(S'started'
p82
S'broadcasting'
p83
tp84
F0.03
s(g20
S'signal'
p85
tp86
F0.01
s(S'as'
p87
S'station'
p88
tp89
F0.01
s(S'also'
p90
S'serves'
p91
tp92
F0.03
s(S'also'
p93
S'operates'
p94
tp95
F0.03
s(S'broadcasts'
p96
S'in'
p97
tp98
F0.01
s(g91
S'[[det]]'
p99
tp100
F0.04
s(S'station'
p101
S'[[det]]'
p102
tp103
F0.02
s(S'radio'
p104
g48
tp105
F0.02
s(g85
S'that'
p106
tp107
F0.02
s(S'now'
p108
S'operates'
p109
tp110
F0.01
s(S'broadcasting'
p111
S'from'
p112
tp113
F0.01
s(S'broadcasts'
p114
S'from'
p115
tp116
F0.01
s(g11
g31
tp117
F0.01
s(S'referred'
p118
S'to'
p119
tp120
F0.01
s(g32
S'in'
p121
tp122
F0.01
s(S'broadcasts'
p123
S'to'
p124
tp125
F0.02
s(g83
S'in'
p126
tp127
F0.01
s(S'in'
p128
S'service'
p129
tp130
F0.01
s(S'with'
p131
g25
tp132
F0.01
s(S'[[det]]'
p133
g16
tp134
F0.06
s(S'area'
p135
S'of'
p136
tp137
F0.01
s(S'[[det]]'
p138
S'network'
p139
tp140
F0.02
s(S'serves'
p141
g19
tp142
F0.02
s(S'station'
p143
S'near'
p144
tp145
F0.01
s(g119
g133
tp146
F0.01
s(g70
S'from'
p147
tp148
F0.01
s(S'station'
p149
S'from'
p150
tp151
F0.01
s(S'[[adj]]'
p152
g104
tp153
F0.01
s(S'operates'
p154
S'[[num]]'
p155
tp156
F0.01
s(S'operates'
p157
S'out'
p158
tp159
F0.01
s(S'[[det]]'
p160
S'radio'
p161
tp162
F0.01
s(S'service'
p163
S'in'
p164
tp165
F0.01
s(g17
g75
tp166
F0.01
s(S'sometimes'
p167
g118
tp168
F0.01
s(S'operates'
p169
S'to'
p170
tp171
F0.01
s(S'[[num]]'
p172
S'station'
p173
tp174
F0.01
s(S'[[det]]'
p175
S'serves'
p176
tp177
F0.01
s.