(dp0
(S'[[mod]]'
p1
S'join'
p2
tp3
F0.016216216216216217
s(S'programming'
p4
S'on'
p5
tp6
F0.005405405405405406
s(S'affiliated'
p7
S'to'
p8
tp9
F0.010810810810810811
s(S'by'
p10
S'[[con]]'
p11
tp12
F0.005405405405405406
s(S'programming'
p13
S'in'
p14
tp15
F0.005405405405405406
s(S'stayed'
p16
S'there'
p17
tp18
F0.005405405405405406
s(S'been'
p19
S'sold'
p20
tp21
F0.005405405405405406
s(S'television'
p22
S'station'
p23
tp24
F0.005405405405405406
s(S'[[prp]]'
p25
S'affiliation'
p26
tp27
F0.005405405405405406
s(S'announced'
p28
S'[[mod]]'
p29
tp30
F0.005405405405405406
s(S'as'
p31
S'[[det]]'
p32
tp33
F0.005405405405405406
s(S'now'
p34
S'owned'
p35
tp36
F0.010810810810810811
s(g23
S'broadcasting'
p37
tp38
F0.005405405405405406
s(S'switched'
p39
S'from'
p40
tp41
F0.010810810810810811
s(S'locally'
p42
g31
tp43
F0.005405405405405406
s(S'also'
p44
S'owned'
p45
tp46
F0.005405405405405406
s(g37
g42
tp47
F0.005405405405405406
s(S'sold'
p48
S'for'
p49
tp50
F0.005405405405405406
s(S'being'
p51
S'sold'
p52
tp53
F0.010810810810810811
s(S'switched'
p54
S'[[prp]]'
p55
tp56
F0.016216216216216217
s(S'[[adj]]'
p57
S'sold'
p58
tp59
F0.010810810810810811
s(S'owned'
p60
S'[[con]]'
p61
tp62
F0.005405405405405406
s(S'[[adj]]'
p63
g22
tp64
F0.005405405405405406
s(S'radio'
p65
S'home'
p66
tp67
F0.016216216216216217
s(S'[[adj]]'
p68
S'affiliate'
p69
tp70
F0.010810810810810811
s(S'stayed'
p71
S'for'
p72
tp73
F0.005405405405405406
s(S'[[con]]'
p74
S'owned'
p75
tp76
F0.005405405405405406
s(S'sold'
p77
S'in'
p78
tp79
F0.021621621621621623
s(S'member'
p80
S'station'
p81
tp82
F0.005405405405405406
s(g45
S'by'
p83
tp84
F0.07567567567567568
s(S'formerly'
p85
S'owned'
p86
tp87
F0.005405405405405406
s(S'stayed'
p88
S'with'
p89
tp90
F0.005405405405405406
s(S'still'
p91
S'owned'
p92
tp93
F0.005405405405405406
s(S'is'
p94
S'sold'
p95
tp96
F0.005405405405405406
s(S'was'
p97
g48
tp98
F0.03783783783783784
s(g66
S'of'
p99
tp100
F0.005405405405405406
s(S'[[det]]'
p101
g65
tp102
F0.016216216216216217
s(S'are'
p103
S'sold'
p104
tp105
F0.005405405405405406
s(S'currently'
p106
S'owned'
p107
tp108
F0.010810810810810811
s(S'also'
p109
S'affiliated'
p110
tp111
F0.010810810810810811
s(g2
S'[[det]]'
p112
tp113
F0.010810810810810811
s(g32
S'affiliate'
p114
tp115
F0.02702702702702703
s(S'been'
p116
S'owned'
p117
tp118
F0.005405405405405406
s(S'sold'
p119
S'[[con]]'
p120
tp121
F0.005405405405405406
s(S'affiliation'
p122
S'to'
p123
tp124
F0.010810810810810811
s(S'was'
p125
S'announced'
p126
tp127
F0.010810810810810811
s(S'were'
p128
S'sold'
p129
tp130
F0.010810810810810811
s(S'programming'
p131
S'for'
p132
tp133
F0.005405405405405406
s(S'was'
p134
S'owned'
p135
tp136
F0.005405405405405406
s(g95
S'by'
p137
tp138
F0.02702702702702703
s(S'of'
p139
S'programming'
p140
tp141
F0.005405405405405406
s(S'[[det]]'
p142
g80
tp143
F0.005405405405405406
s(S'sold'
p144
S'[[adj]]'
p145
tp146
F0.005405405405405406
s(S'that'
p147
g1
tp148
F0.010810810810810811
s(g81
S'of'
p149
tp150
F0.005405405405405406
s(S'stayed'
p151
S'on'
p152
tp153
F0.005405405405405406
s(S'programming'
p154
S'from'
p155
tp156
F0.016216216216216217
s(g55
S'[[adj]]'
p157
tp158
F0.005405405405405406
s(S'sold'
p159
S'[[det]]'
p160
tp161
F0.005405405405405406
s(S'stayed'
p162
S'as'
p163
tp164
F0.005405405405405406
s(S'home'
p165
S'for'
p166
tp167
F0.005405405405405406
s(S'[[adj]]'
p168
S'programming'
p169
tp170
F0.010810810810810811
s(g157
g122
tp171
F0.005405405405405406
s(S'switched'
p172
S'to'
p173
tp174
F0.021621621621621623
s(S's'
p175
g154
tp176
F0.005405405405405406
s(S'sold'
p177
S'to'
p178
tp179
F0.021621621621621623
s(g126
S'that'
p180
tp181
F0.016216216216216217
s(S'not'
p182
S'owned'
p183
tp184
F0.005405405405405406
s(S'programming'
p185
S'to'
p186
tp187
F0.005405405405405406
s(S'[[prp]]'
p188
S'programming'
p189
tp190
F0.005405405405405406
s(S'are'
p191
S'owned'
p192
tp193
F0.005405405405405406
s(S'sold'
p194
S'most'
p195
tp196
F0.005405405405405406
s(S'was'
p197
S'rebranded'
p198
tp199
F0.005405405405405406
s(S'stayed'
p200
S'at'
p201
tp202
F0.005405405405405406
s(S'[[det]]'
p203
S'programming'
p204
tp205
F0.005405405405405406
s(S'programming'
p206
S'[[con]]'
p207
tp208
F0.005405405405405406
s(S'stayed'
p209
S'until'
p210
tp211
F0.005405405405405406
s(S'owned'
p212
S'[[num]]'
p213
tp214
F0.005405405405405406
s(g11
S'features'
p215
tp216
F0.005405405405405406
s(S'also'
p217
g144
tp218
F0.010810810810810811
s(S'[[det]]'
p219
S'sold'
p220
tp221
F0.005405405405405406
s(S'stayed'
p222
S'when'
p223
tp224
F0.005405405405405406
s(g114
S'of'
p225
tp226
F0.021621621621621623
s(g69
S'for'
p227
tp228
F0.010810810810810811
s(S'then'
p229
g172
tp230
F0.005405405405405406
s(S'be'
p231
g77
tp232
F0.016216216216216217
s(S'affiliated'
p233
S'[[con]]'
p234
tp235
F0.005405405405405406
s(S'home'
p236
S'[[det]]'
p237
tp238
F0.005405405405405406
s(S'stayed'
p239
S'before'
p240
tp241
F0.005405405405405406
s(S'been'
p242
g7
tp243
F0.016216216216216217
s(S'became'
p244
S'affiliated'
p245
tp246
F0.010810810810810811
s(g180
S'[[det]]'
p247
tp248
F0.005405405405405406
s(S'was'
p249
g233
tp250
F0.021621621621621623
s(S'[[con]]'
p251
S'switched'
p252
tp253
F0.005405405405405406
s(g245
S'with'
p254
tp255
F0.02702702702702703
s(g129
S'off'
p256
tp257
F0.010810810810810811
s(S'had'
p258
g39
tp259
F0.016216216216216217
s(S'is'
p260
S'owned'
p261
tp262
F0.021621621621621623
s(S'[[det]]'
p263
S'owned'
p264
tp265
F0.010810810810810811
s.