(dp0
(S'sailed'
p1
S'on'
p2
tp3
F0.003424657534246575
s(S'when'
p4
S'sailed'
p5
tp6
F0.00684931506849315
s(S'built'
p7
S'up'
p8
tp9
F0.003424657534246575
s(S'launched'
p10
S'[[num]]'
p11
tp12
F0.003424657534246575
s(S'[[num]]'
p13
S'cargo'
p14
tp15
F0.017123287671232876
s(S'sailed'
p16
S'to'
p17
tp18
F0.0136986301369863
s(S'built'
p19
S'on'
p20
tp21
F0.003424657534246575
s(S'built'
p22
S'was'
p23
tp24
F0.003424657534246575
s(S'were'
p25
S'built'
p26
tp27
F0.010273972602739725
s(S'[[det]]'
p28
S'submarine'
p29
tp30
F0.00684931506849315
s(S'was'
p31
S'completed'
p32
tp33
F0.0136986301369863
s(S'at'
p34
S'[[det]]'
p35
tp36
F0.003424657534246575
s(S'was'
p37
g28
tp38
F0.0136986301369863
s(S'liner'
p39
S'built'
p40
tp41
F0.003424657534246575
s(S'originally'
p42
S'been'
p43
tp44
F0.003424657534246575
s(S'sailed'
p45
S'from'
p46
tp47
F0.0136986301369863
s(S'was'
p48
S'laid'
p49
tp50
F0.0136986301369863
s(S'then'
p51
S'sailed'
p52
tp53
F0.0136986301369863
s(S'ship'
p54
S'which'
p55
tp56
F0.0136986301369863
s(S'built'
p57
S'as'
p58
tp59
F0.0136986301369863
s(S'be'
p60
S'built'
p61
tp62
F0.010273972602739725
s(g32
S'at'
p63
tp64
F0.003424657534246575
s(S'was'
p65
g57
tp66
F0.08904109589041095
s(S'[[det]]'
p67
S'ocean'
p68
tp69
F0.003424657534246575
s(S'built'
p70
S'at'
p71
tp72
F0.0136986301369863
s(S'sailed'
p73
S'for'
p74
tp75
F0.0136986301369863
s(S'submarine'
p76
S'built'
p77
tp78
F0.003424657534246575
s(S'image'
p79
S'built'
p80
tp81
F0.003424657534246575
s(S'is'
p82
S'launched'
p83
tp84
F0.010273972602739725
s(S'built'
p85
S'over'
p86
tp87
F0.003424657534246575
s(S'built'
p88
S'around'
p89
tp90
F0.003424657534246575
s(S'had'
p91
S'sailed'
p92
tp93
F0.003424657534246575
s(S'[[con]]'
p94
S'launched'
p95
tp96
F0.003424657534246575
s(S'[[adj]]'
p97
S'built'
p98
tp99
F0.0136986301369863
s(S'originally'
p100
S'built'
p101
tp102
F0.017123287671232876
s(S'built'
p103
S'[[num]]'
p104
tp105
F0.003424657534246575
s(S'built'
p106
S'circa'
p107
tp108
F0.003424657534246575
s(S'sailed'
p109
S'at'
p110
tp111
F0.00684931506849315
s(S'[[con]]'
p112
S'built'
p113
tp114
F0.003424657534246575
s(S'laid'
p115
S'by'
p116
tp117
F0.003424657534246575
s(S'was'
p118
S'ordered'
p119
tp120
F0.00684931506849315
s(S'[[det]]'
p121
S'cargo'
p122
tp123
F0.003424657534246575
s(S'that'
p124
S'was'
p125
tp126
F0.003424657534246575
s(S'sailed'
p127
S'back'
p128
tp129
F0.003424657534246575
s(S'be'
p130
S'launched'
p131
tp132
F0.003424657534246575
s(S'was'
p133
S'constructed'
p134
tp135
F0.00684931506849315
s(S'been'
p136
S'built'
p137
tp138
F0.02054794520547945
s(S'completed'
p139
S'for'
p140
tp141
F0.003424657534246575
s(S'launched'
p142
S'to'
p143
tp144
F0.003424657534246575
s(S'built'
p145
S'along'
p146
tp147
F0.003424657534246575
s(S'[[det]]'
p148
S'completed'
p149
tp150
F0.003424657534246575
s(S'had'
p151
g42
tp152
F0.003424657534246575
s(S'built'
p153
S'[[con]]'
p154
tp155
F0.00684931506849315
s(S'also'
p156
S'built'
p157
tp158
F0.003424657534246575
s(S'is'
p159
S'built'
p160
tp161
F0.017123287671232876
s(g134
S'by'
p162
tp163
F0.003424657534246575
s(S'built'
p164
S'is'
p165
tp166
F0.003424657534246575
s(S'[[adj]]'
p167
S'sailed'
p168
tp169
F0.003424657534246575
s(g131
S'in'
p170
tp171
F0.0136986301369863
s(S'built'
p172
S'[[det]]'
p173
tp174
F0.00684931506849315
s(S'built'
p175
S'by'
p176
tp177
F0.0684931506849315
s(S'shipyard'
p178
S'in'
p179
tp180
F0.010273972602739725
s(g35
S'shipyard'
p181
tp182
F0.00684931506849315
s(S'was'
p183
S'launched'
p184
tp185
F0.0273972602739726
s(S'built'
p186
S'after'
p187
tp188
F0.003424657534246575
s(S'sailed'
p189
S'[[adj]]'
p190
tp191
F0.003424657534246575
s(S'been'
p192
S'launched'
p193
tp194
F0.003424657534246575
s(S'built'
p195
S'near'
p196
tp197
F0.00684931506849315
s(S'launched'
p198
S'[[pro]]'
p199
tp200
F0.003424657534246575
s(g55
S'was'
p201
tp202
F0.0136986301369863
s(S'built'
p203
S'with'
p204
tp205
F0.003424657534246575
s(S'built'
p206
S'in'
p207
tp208
F0.03424657534246575
s(S'[[det]]'
p209
S'laid'
p210
tp211
F0.00684931506849315
s(S'[[con]]'
p212
g16
tp213
F0.00684931506849315
s(S'completed'
p214
S'[[con]]'
p215
tp216
F0.003424657534246575
s(S'[[det]]'
p217
g175
tp218
F0.017123287671232876
s(S'constructed'
p219
S'for'
p220
tp221
F0.003424657534246575
s(S'[[num]]'
p222
S'launched'
p223
tp224
F0.003424657534246575
s(S'launched'
p225
S'by'
p226
tp227
F0.010273972602739725
s(S'sailed'
p228
S'out'
p229
tp230
F0.003424657534246575
s(S'ship'
p231
g124
tp232
F0.003424657534246575
s(S'completed'
p233
S'by'
p234
tp235
F0.003424657534246575
s(S'image'
p236
S'was'
p237
tp238
F0.030821917808219176
s(S'launched'
p239
S'on'
p240
tp241
F0.00684931506849315
s(S'in'
p242
S'built'
p243
tp244
F0.003424657534246575
s(S'[[num]]'
p245
S'built'
p246
tp247
F0.010273972602739725
s(S'ordered'
p248
S'from'
p249
tp250
F0.003424657534246575
s(S'launched'
p251
S'from'
p252
tp253
F0.00684931506849315
s(S'by'
p254
S'[[det]]'
p255
tp256
F0.003424657534246575
s(S'built'
p257
S'[[prp]]'
p258
tp259
F0.003424657534246575
s(g14
g54
tp260
F0.02054794520547945
s(g26
S'for'
p261
tp262
F0.04794520547945205
s(S'laid'
p263
S'up'
p264
tp265
F0.00684931506849315
s(g68
g39
tp266
F0.003424657534246575
s(g237
g13
tp267
F0.010273972602739725
s(S'sailed'
p268
S'[[con]]'
p269
tp270
F0.003424657534246575
s(S'was'
p271
g100
tp272
F0.017123287671232876
s(S'ship'
p273
S'image'
p274
tp275
F0.023972602739726026
s(S'built'
p276
S'between'
p277
tp278
F0.00684931506849315
s(S'at'
p279
g178
tp280
F0.003424657534246575
s(S'laid'
p281
S'down'
p282
tp283
F0.010273972602739725
s(S'ship'
p284
S'built'
p285
tp286
F0.003424657534246575
s(g107
S'[[num]]'
p287
tp288
F0.003424657534246575
s(S'has'
p289
S'built'
p290
tp291
F0.003424657534246575
s(S'launched'
p292
S'as'
p293
tp294
F0.003424657534246575
s.