(dp0
(S'was'
p1
S'beatified'
p2
tp3
F0.06521739130434782
s(S'had'
p4
S'declared'
p5
tp6
F0.043478260869565216
s(S'[[adj]]'
p7
S'declared'
p8
tp9
F0.021739130434782608
s(S'declared'
p10
S'that'
p11
tp12
F0.043478260869565216
s(S'declared'
p13
S'as'
p14
tp15
F0.021739130434782608
s(S'canonized'
p16
S'by'
p17
tp18
F0.08695652173913043
s(S'declared'
p19
S'[[pro]]'
p20
tp21
F0.043478260869565216
s(S'declared'
p22
S'[[prp]]'
p23
tp24
F0.021739130434782608
s(S'declared'
p25
S'to'
p26
tp27
F0.043478260869565216
s(S'was'
p28
g16
tp29
F0.06521739130434782
s(S'when'
p30
S'declared'
p31
tp32
F0.021739130434782608
s(S'declared'
p33
S'by'
p34
tp35
F0.043478260869565216
s(S'declared'
p36
S'[[det]]'
p37
tp38
F0.043478260869565216
s(S'[[det]]'
p39
S'saint'
p40
tp41
F0.021739130434782608
s(S'also'
p42
S'declared'
p43
tp44
F0.021739130434782608
s(S'declared'
p45
S'[[adj]]'
p46
tp47
F0.06521739130434782
s(S'that'
p48
S'declared'
p49
tp50
F0.021739130434782608
s(S'canonized'
p51
g39
tp52
F0.021739130434782608
s(S'was'
p53
g33
tp54
F0.10869565217391304
s(g2
S'was'
p55
tp56
F0.021739130434782608
s(S'[[con]]'
p57
S'declared'
p58
tp59
F0.06521739130434782
s(S'declared'
p60
S'[[con]]'
p61
tp62
F0.021739130434782608
s(S'beatified'
p63
S'canonized'
p64
tp65
F0.021739130434782608
s(S'been'
p66
S'declared'
p67
tp68
F0.021739130434782608
s(S'is'
p69
S'declared'
p70
tp71
F0.021739130434782608
s.