(dp0
(S'capital'
p1
S'from'
p2
tp3
F0.024390243902439025
s(S'[[adj]]'
p4
S'ambassador'
p5
tp6
F0.024390243902439025
s(S'railway'
p7
S'between'
p8
tp9
F0.024390243902439025
s(S'was'
p10
S'divided'
p11
tp12
F0.024390243902439025
s(S'capital'
p13
S'city'
p14
tp15
F0.04878048780487805
s(S'capital'
p16
S'in'
p17
tp18
F0.024390243902439025
s(S'[[adj]]'
p19
S'artist'
p20
tp21
F0.024390243902439025
s(S'is'
p22
S'represented'
p23
tp24
F0.04878048780487805
s(S'[[prp]]'
p25
S'capital'
p26
tp27
F0.024390243902439025
s(S'[[adj]]'
p28
S'capital'
p29
tp30
F0.04878048780487805
s(g23
S'through'
p31
tp32
F0.04878048780487805
s(S's'
p33
S'capital'
p34
tp35
F0.14634146341463414
s(S'[[adj]]'
p36
S'commission'
p37
tp38
F0.024390243902439025
s(g5
S'based'
p39
tp40
F0.024390243902439025
s(S'capital'
p41
S'of'
p42
tp43
F0.024390243902439025
s(S'cities'
p44
S'[[con]]'
p45
tp46
F0.024390243902439025
s(S'capital'
p47
S'[[con]]'
p48
tp49
F0.024390243902439025
s(S'through'
p50
g4
tp51
F0.024390243902439025
s(S'based'
p52
S'in'
p53
tp54
F0.0975609756097561
s(S'city'
p55
S'of'
p56
tp57
F0.024390243902439025
s(g37
S'in'
p58
tp59
F0.024390243902439025
s(S'[[det]]'
p60
S'artist'
p61
tp62
F0.024390243902439025
s(g31
S'based'
p63
tp64
F0.024390243902439025
s(S'[[adj]]'
p65
S'cities'
p66
tp67
F0.04878048780487805
s(S'[[adj]]'
p68
S'railway'
p69
tp70
F0.04878048780487805
s(g61
g52
tp71
F0.04878048780487805
s.