(dp0
(S'aired'
p1
S'by'
p2
tp3
F0.0196078431372549
s(S'aired'
p4
S'[[det]]'
p5
tp6
F0.0196078431372549
s(S'[[num]]'
p7
S'pm'
p8
tp9
F0.0196078431372549
s(S'broadcast'
p10
S'with'
p11
tp12
F0.0196078431372549
s(S'also'
p13
S'aired'
p14
tp15
F0.0196078431372549
s(S'aired'
p16
S'[[adj]]'
p17
tp18
F0.0196078431372549
s(S'first'
p19
S'aired'
p20
tp21
F0.058823529411764705
s(S'that'
p22
S'aired'
p23
tp24
F0.0392156862745098
s(S'when'
p25
S'debuted'
p26
tp27
F0.0196078431372549
s(S'was'
p28
S'broadcast'
p29
tp30
F0.0784313725490196
s(S'is'
p31
S'broadcast'
p32
tp33
F0.058823529411764705
s(S'be'
p34
S'broadcast'
p35
tp36
F0.0196078431372549
s(g29
S'by'
p37
tp38
F0.0392156862745098
s(S'debuted'
p39
S'on'
p40
tp41
F0.0196078431372549
s(S'[[adj]]'
p42
S'broadcast'
p43
tp44
F0.0196078431372549
s(S'[[det]]'
p45
S'sitcom'
p46
tp47
F0.0196078431372549
s(S'is'
p48
S'aired'
p49
tp50
F0.0196078431372549
s(S'been'
p51
S'broadcast'
p52
tp53
F0.0196078431372549
s(S'broadcast'
p54
S'on'
p55
tp56
F0.11764705882352941
s(g46
S'that'
p57
tp58
F0.0196078431372549
s(S'[[adj]]'
p59
S'aired'
p60
tp61
F0.0196078431372549
s(S'show'
p62
S'aired'
p63
tp64
F0.0196078431372549
s(S'was'
p65
S'aired'
p66
tp67
F0.0392156862745098
s(S'aired'
p68
S'on'
p69
tp70
F0.17647058823529413
s(g20
S'in'
p71
tp72
F0.0392156862745098
s(S'broadcast'
p73
S'[[adj]]'
p74
tp75
F0.0196078431372549
s(S'also'
p76
S'broadcast'
p77
tp78
F0.0196078431372549
s.