(dp0
(S'confessed'
p1
S'to'
p2
tp3
F0.004291845493562232
s(S'served'
p4
S'while'
p5
tp6
F0.004291845493562232
s(S'when'
p7
S'served'
p8
tp9
F0.008583690987124463
s(S'also'
p10
S'told'
p11
tp12
F0.008583690987124463
s(S'told'
p13
S'[[mod]]'
p14
tp15
F0.004291845493562232
s(S'as'
p16
S'told'
p17
tp18
F0.008583690987124463
s(S'who'
p19
S'served'
p20
tp21
F0.012875536480686695
s(S'served'
p22
S'under'
p23
tp24
F0.04291845493562232
s(S'told'
p25
S'[[det]]'
p26
tp27
F0.012875536480686695
s(S'confessed'
p28
S'that'
p29
tp30
F0.004291845493562232
s(S'served'
p31
S'as'
p32
tp33
F0.09012875536480687
s(S'told'
p34
S'[[prp]]'
p35
tp36
F0.008583690987124463
s(S'served'
p37
S'then'
p38
tp39
F0.004291845493562232
s(S'have'
p40
S'told'
p41
tp42
F0.004291845493562232
s(S'told'
p43
S'that'
p44
tp45
F0.034334763948497854
s(S'served'
p46
S'first'
p47
tp48
F0.004291845493562232
s(S'formerly'
p49
S'served'
p50
tp51
F0.004291845493562232
s(S'served'
p52
S'on'
p53
tp54
F0.008583690987124463
s(S'[[con]]'
p55
S'served'
p56
tp57
F0.034334763948497854
s(S'served'
p58
S'also'
p59
tp60
F0.004291845493562232
s(S'told'
p61
S'about'
p62
tp63
F0.004291845493562232
s(S'once'
p64
S'told'
p65
tp66
F0.004291845493562232
s(S'then'
p67
g25
tp68
F0.012875536480686695
s(S'then'
p69
S'served'
p70
tp71
F0.030042918454935622
s(S'who'
p72
S'told'
p73
tp74
F0.004291845493562232
s(S'served'
p75
S'when'
p76
tp77
F0.012875536480686695
s(S'when'
p78
S'told'
p79
tp80
F0.004291845493562232
s(S'also'
p81
S'served'
p82
tp83
F0.05150214592274678
s(S'told'
p84
S'[[pro]]'
p85
tp86
F0.02145922746781116
s(S'of'
p87
S'served'
p88
tp89
F0.004291845493562232
s(S'served'
p90
S'[[prp]]'
p91
tp92
F0.004291845493562232
s(S'served'
p93
S'along'
p94
tp95
F0.008583690987124463
s(S'confessed'
p96
S'[[con]]'
p97
tp98
F0.004291845493562232
s(g56
S'to'
p99
tp100
F0.02575107296137339
s(S'that'
p101
S'told'
p102
tp103
F0.004291845493562232
s(S'first'
p104
S'served'
p105
tp106
F0.012875536480686695
s(S'[[det]]'
p107
S'served'
p108
tp109
F0.004291845493562232
s(S'served'
p110
S'with'
p111
tp112
F0.008583690987124463
s(g17
S'to'
p113
tp114
F0.008583690987124463
s(S'had'
p115
g34
tp116
F0.017167381974248927
s(g82
S'against'
p117
tp118
F0.008583690987124463
s(S'whom'
p119
S'served'
p120
tp121
F0.004291845493562232
s(S'[[pro]]'
p122
S'served'
p123
tp124
F0.004291845493562232
s(S'has'
p125
S'told'
p126
tp127
F0.008583690987124463
s(S'told'
p128
S'was'
p129
tp130
F0.004291845493562232
s(S'which'
p131
S'served'
p132
tp133
F0.004291845493562232
s(S'again'
p134
S'served'
p135
tp136
F0.008583690987124463
s(S'served'
p137
S'from'
p138
tp139
F0.004291845493562232
s(S'[[pro]]'
p140
S'told'
p141
tp142
F0.004291845493562232
s(S'has'
p143
g31
tp144
F0.030042918454935622
s(S'served'
p145
S'[[adj]]'
p146
tp147
F0.004291845493562232
s(S'served'
p148
S'until'
p149
tp150
F0.008583690987124463
s(S'have'
p151
S'served'
p152
tp153
F0.017167381974248927
s(S'served'
p154
S'after'
p155
tp156
F0.008583690987124463
s(S'been'
p157
S'told'
p158
tp159
F0.008583690987124463
s(S'served'
p160
S'before'
p161
tp162
F0.008583690987124463
s(S'later'
p163
S'told'
p164
tp165
F0.012875536480686695
s(S'served'
p166
S'for'
p167
tp168
F0.004291845493562232
s(S'served'
p169
S'again'
p170
tp171
F0.004291845493562232
s(S'served'
p172
S'becoming'
p173
tp174
F0.004291845493562232
s(S'was'
p175
S'told'
p176
tp177
F0.017167381974248927
s(S'never'
p178
S'told'
p179
tp180
F0.004291845493562232
s(S'had'
p181
g22
tp182
F0.02145922746781116
s(S'[[num]]'
p183
g52
tp184
F0.008583690987124463
s(S'served'
p185
S'where'
p186
tp187
F0.012875536480686695
s(S'told'
p188
S'by'
p189
tp190
F0.017167381974248927
s(S'served'
p191
S'twice'
p192
tp193
F0.012875536480686695
s(S'while'
p194
S'served'
p195
tp196
F0.008583690987124463
s(S'[[adj]]'
p197
S'told'
p198
tp199
F0.004291845493562232
s(S'where'
p200
S'served'
p201
tp202
F0.017167381974248927
s(S'served'
p203
S'[[con]]'
p204
tp205
F0.02575107296137339
s(S'where'
p206
S'told'
p207
tp208
F0.004291845493562232
s(S'[[adj]]'
p209
g166
tp210
F0.012875536480686695
s(S'twice'
p211
S'served'
p212
tp213
F0.004291845493562232
s(S'served'
p214
S'was'
p215
tp216
F0.004291845493562232
s(S'is'
p217
g188
tp218
F0.012875536480686695
s(S'served'
p219
S'by'
p220
tp221
F0.008583690987124463
s(g70
S'[[num]]'
p222
tp223
F0.017167381974248927
s(S'[[con]]'
p224
S'told'
p225
tp226
F0.017167381974248927
s(S'told'
p227
S'[[adj]]'
p228
tp229
F0.004291845493562232
s(S'told'
p230
S'had'
p231
tp232
F0.004291845493562232
s(S'told'
p233
S'[[con]]'
p234
tp235
F0.004291845493562232
s(S'once'
p236
S'served'
p237
tp238
F0.004291845493562232
s(S'later'
p239
g203
tp240
F0.02145922746781116
s(S'was'
p241
S'served'
p242
tp243
F0.004291845493562232
s(S'served'
p244
S'in'
p245
tp246
F0.004291845493562232
s.