(dp0
(S'[[pro]]'
p1
S'wife'
p2
tp3
F0.0004399472063352398
s(S'with'
p4
S'wrote'
p5
tp6
F0.0004399472063352398
s(S'child'
p7
S'to'
p8
tp9
F0.0004399472063352398
s(S'[[con]]'
p10
S'tells'
p11
tp12
F0.002199736031676199
s(S'daughters'
p13
S'[[con]]'
p14
tp15
F0.0030796304443466782
s(S'only'
p16
S'daughter'
p17
tp18
F0.0004399472063352398
s(S'[[det]]'
p19
S'said'
p20
tp21
F0.0004399472063352398
s(S'included'
p22
S'[[pro]]'
p23
tp24
F0.0013198416190057193
s(S'son'
p25
S'of'
p26
tp27
F0.010998680158380994
s(S'married'
p28
S'when'
p29
tp30
F0.0008798944126704796
s(S'succeeded'
p31
S'[[prp]]'
p32
tp33
F0.0004399472063352398
s(S'wife'
p34
S'of'
p35
tp36
F0.0026396832380114386
s(S'to'
p37
S'sister'
p38
tp39
F0.0004399472063352398
s(S'while'
p40
S'wrote'
p41
tp42
F0.0004399472063352398
s(S'married'
p43
S'[[num]]'
p44
tp45
F0.004839419269687638
s(S'know'
p46
S'[[adj]]'
p47
tp48
F0.0004399472063352398
s(S'in'
p49
S'death'
p50
tp51
F0.0004399472063352398
s(S'[[det]]'
p52
S'children'
p53
tp54
F0.002199736031676199
s(S'that'
p55
S'included'
p56
tp57
F0.0013198416190057193
s(S'had'
p58
S'[[num]]'
p59
tp60
F0.0013198416190057193
s(S'with'
p61
S'took'
p62
tp63
F0.0004399472063352398
s(S'[[con]]'
p64
S'relationship'
p65
tp66
F0.0004399472063352398
s(S'with'
p67
S'father'
p68
tp69
F0.0004399472063352398
s(S'had'
p70
S'said'
p71
tp72
F0.002199736031676199
s(S'was'
p73
S'included'
p74
tp75
F0.0026396832380114386
s(S'[[pro]]'
p76
S'relationship'
p77
tp78
F0.0004399472063352398
s(S'later'
p79
S'wrote'
p80
tp81
F0.0030796304443466782
s(S'[[pro]]'
p82
S'married'
p83
tp84
F0.0004399472063352398
s(S'daughter'
p85
S'son'
p86
tp87
F0.0004399472063352398
s(S'son'
p88
S'[[det]]'
p89
tp90
F0.004839419269687638
s(S'as'
p91
S'wrote'
p92
tp93
F0.0008798944126704796
s(S'more'
p94
S'children'
p95
tp96
F0.0017597888253409592
s(S'wife'
p97
S'with'
p98
tp99
F0.0004399472063352398
s(S'then'
p100
S'tells'
p101
tp102
F0.0013198416190057193
s(S'wife'
p103
S'[[con]]'
p104
tp105
F0.002199736031676199
s(S'to'
p106
S'daughter'
p107
tp108
F0.0035195776506819184
s(S'included'
p109
S'by'
p110
tp111
F0.0004399472063352398
s(S's'
p112
S'son'
p113
tp114
F0.007039155301363837
s(S'children'
p115
S'including'
p116
tp117
F0.0013198416190057193
s(S'twice'
p118
S'married'
p119
tp120
F0.0008798944126704796
s(S'death'
p121
S'as'
p122
tp123
F0.0004399472063352398
s(S'secondly'
p124
S'daughter'
p125
tp126
F0.0004399472063352398
s(S'father'
p127
S'as'
p128
tp129
F0.0004399472063352398
s(S'now'
p130
S'married'
p131
tp132
F0.0004399472063352398
s(S'wife'
p133
S'to'
p134
tp135
F0.0013198416190057193
s(S'said'
p136
S'that'
p137
tp138
F0.005719313682358117
s(S'wrote'
p139
S'on'
p140
tp141
F0.0013198416190057193
s(S'[[con]]'
p142
S'is'
p143
tp144
F0.0008798944126704796
s(g112
S'sister'
p145
tp146
F0.002199736031676199
s(S'married'
p147
S'[[adj]]'
p148
tp149
F0.0013198416190057193
s(S'[[prp]]'
p150
S'daughters'
p151
tp152
F0.0013198416190057193
s(S'married'
p153
S'after'
p154
tp155
F0.0004399472063352398
s(S'[[con]]'
p156
S'said'
p157
tp158
F0.0026396832380114386
s(S'[[pro]]'
p159
S'gave'
p160
tp161
F0.0004399472063352398
s(S'know'
p162
S'where'
p163
tp164
F0.0004399472063352398
s(S'by'
p165
S'[[adj]]'
p166
tp167
F0.0004399472063352398
s(S'after'
p168
S'tells'
p169
tp170
F0.0004399472063352398
s(S'is'
p171
S'mother'
p172
tp173
F0.0008798944126704796
s(S'[[pro]]'
p174
S'wrote'
p175
tp176
F0.0008798944126704796
s(S'after'
p177
S'said'
p178
tp179
F0.0004399472063352398
s(S'[[con]]'
p180
S'sister'
p181
tp182
F0.0008798944126704796
s(S'later'
p183
S'tells'
p184
tp185
F0.0008798944126704796
s(S'daughter'
p186
S'[[con]]'
p187
tp188
F0.0061592608886933565
s(S'before'
p189
S'took'
p190
tp191
F0.0004399472063352398
s(S'[[pro]]'
p192
S'sister'
p193
tp194
F0.0004399472063352398
s(S'said'
p195
S'to'
p196
tp197
F0.0030796304443466782
s(S'actresses'
p198
S'[[con]]'
p199
tp200
F0.0004399472063352398
s(S'death'
p201
S'[[num]]'
p202
tp203
F0.0004399472063352398
s(S'have'
p204
g195
tp205
F0.0013198416190057193
s(S'[[det]]'
p206
S'daughters'
p207
tp208
F0.0004399472063352398
s(S'formerly'
p209
S'married'
p210
tp211
F0.0004399472063352398
s(S'whom'
p212
S'wrote'
p213
tp214
F0.0004399472063352398
s(S'which'
p215
S'tells'
p216
tp217
F0.0004399472063352398
s(S'wrote'
p218
S'as'
p219
tp220
F0.0008798944126704796
s(S'[[adj]]'
p221
S'sister'
p222
tp223
F0.002199736031676199
s(S'daughter'
p224
S'who'
p225
tp226
F0.0026396832380114386
s(S'tells'
p227
S'has'
p228
tp229
F0.0004399472063352398
s(S'said'
p230
S'have'
p231
tp232
F0.0004399472063352398
s(S'married'
p233
S'by'
p234
tp235
F0.0013198416190057193
s(S'on'
p236
S'death'
p237
tp238
F0.0004399472063352398
s(S'wrote'
p239
S'is'
p240
tp241
F0.0004399472063352398
s(S'tells'
p242
S'to'
p243
tp244
F0.0004399472063352398
s(S'son'
p245
S'brother'
p246
tp247
F0.0004399472063352398
s(S'married'
p248
S'with'
p249
tp250
F0.006599208095028597
s(S'already'
p251
S'married'
p252
tp253
F0.0004399472063352398
s(S'sister'
p254
S'to'
p255
tp256
F0.0017597888253409592
s(S'[[det]]'
p257
S'relationship'
p258
tp259
F0.0017597888253409592
s(S'included'
p260
S'[[adj]]'
p261
tp262
F0.0013198416190057193
s(S'of'
p263
S'wife'
p264
tp265
F0.0004399472063352398
s(S'of'
p266
S'death'
p267
tp268
F0.0004399472063352398
s(S'as'
p269
S'said'
p270
tp271
F0.0004399472063352398
s(S'wrote'
p272
S'at'
p273
tp274
F0.0004399472063352398
s(S'succeeded'
p275
S'[[adj]]'
p276
tp277
F0.0004399472063352398
s(S'by'
p278
S'[[num]]'
p279
tp280
F0.0017597888253409592
s(g112
S'youngest'
p281
tp282
F0.0004399472063352398
s(S'wife'
p283
S'[[num]]'
p284
tp285
F0.0008798944126704796
s(S'know'
p286
S'how'
p287
tp288
F0.0004399472063352398
s(S'secondly'
p289
S'de'
p290
tp291
F0.0004399472063352398
s(S'[[adj]]'
p292
S'children'
p293
tp294
F0.004839419269687638
s(S'daughter'
p295
S'with'
p296
tp297
F0.0008798944126704796
s(S'wife'
p298
S'[[adj]]'
p299
tp300
F0.0013198416190057193
s(S'[[con]]'
p301
S'more'
p302
tp303
F0.0004399472063352398
s(S'sister'
p304
S'of'
p305
tp306
F0.002199736031676199
s(S'mother'
p307
S'to'
p308
tp309
F0.0013198416190057193
s(S'wrote'
p310
S'what'
p311
tp312
F0.0004399472063352398
s(S'of'
p313
S'mother'
p314
tp315
F0.0004399472063352398
s(S'married'
p316
S'in'
p317
tp318
F0.0035195776506819184
s(S'younger'
p319
S'brother'
p320
tp321
F0.005279366476022877
s(S'said'
p322
S'think'
p323
tp324
F0.0004399472063352398
s(S'know'
p325
S'that'
p326
tp327
F0.0017597888253409592
s(S'[[det]]'
p328
S'sons'
p329
tp330
F0.0013198416190057193
s(S'was'
p331
S'daughter'
p332
tp333
F0.0008798944126704796
s(S'wife'
p334
S'had'
p335
tp336
F0.0004399472063352398
s(S'[[con]]'
p337
S'children'
p338
tp339
F0.0008798944126704796
s(S'widower'
p340
S'[[det]]'
p341
tp342
F0.0004399472063352398
s(S'married'
p343
g58
tp344
F0.0017597888253409592
s(S'sons'
p345
S'who'
p346
tp347
F0.0004399472063352398
s(S'[[mod]]'
p348
S'accompany'
p349
tp350
F0.0004399472063352398
s(S'by'
p351
S'wife'
p352
tp353
F0.0004399472063352398
s(g112
S'father'
p354
tp355
F0.003959524857017158
s(S'mother'
p356
S'was'
p357
tp358
F0.0008798944126704796
s(S'that'
p359
S'mother'
p360
tp361
F0.0004399472063352398
s(S'married'
p362
S'on'
p363
tp364
F0.0008798944126704796
s(S'father'
p365
S'to'
p366
tp367
F0.0017597888253409592
s(S'said'
p368
S'[[mod]]'
p369
tp370
F0.0008798944126704796
s(S'mother'
p371
S'that'
p372
tp373
F0.0004399472063352398
s(S'after'
p374
S'took'
p375
tp376
F0.0004399472063352398
s(S'which'
p377
S'said'
p378
tp379
F0.0004399472063352398
s(S'[[adj]]'
p380
S'son'
p381
tp382
F0.011438627364716234
s(S'[[con]]'
p383
S'[[det]]'
p384
tp385
F0.009238891333040036
s(S'married'
p386
S'[[det]]'
p387
tp388
F0.010118785745710514
s(S'said'
p389
S'there'
p390
tp391
F0.0004399472063352398
s(S'to'
p392
g286
tp393
F0.004399472063352398
s(S'after'
p394
S'death'
p395
tp396
F0.0004399472063352398
s(S'said'
p397
S'by'
p398
tp399
F0.0008798944126704796
s(S'survived'
p400
S'[[num]]'
p401
tp402
F0.0004399472063352398
s(S'by'
p403
S'[[prp]]'
p404
tp405
F0.0030796304443466782
s(S'wrote'
p406
S'[[adj]]'
p407
tp408
F0.0013198416190057193
s(S'so'
p409
S'took'
p410
tp411
F0.0004399472063352398
s(g95
S'[[det]]'
p412
tp413
F0.0017597888253409592
s(g290
S'daughter'
p414
tp415
F0.0017597888253409592
s(S'included'
p416
S'as'
p417
tp418
F0.0008798944126704796
s(S'is'
p419
S'succeeded'
p420
tp421
F0.0004399472063352398
s(S'took'
p422
S'out'
p423
tp424
F0.0004399472063352398
s(S'of'
p425
S'children'
p426
tp427
F0.0004399472063352398
s(S'to'
p428
S'death'
p429
tp430
F0.0004399472063352398
s(S'[[con]]'
p431
S'son'
p432
tp433
F0.0026396832380114386
s(S'children'
p434
S'from'
p435
tp436
F0.0008798944126704796
s(S'with'
p437
S'[[det]]'
p438
tp439
F0.0008798944126704796
s(S'also'
p440
S'refer'
p441
tp442
F0.0017597888253409592
s(S'took'
p443
S'while'
p444
tp445
F0.0004399472063352398
s(S'of'
p446
S'daughter'
p447
tp448
F0.0004399472063352398
s(S'[[adj]]'
p449
S'daughters'
p450
tp451
F0.0008798944126704796
s(S'of'
p452
S'sons'
p453
tp454
F0.0004399472063352398
s(S'[[num]]'
p455
S'sons'
p456
tp457
F0.010558732952045754
s(S'that'
p458
S'said'
p459
tp460
F0.0004399472063352398
s(S'wrote'
p461
S'while'
p462
tp463
F0.0008798944126704796
s(S'children'
p464
S'by'
p465
tp466
F0.0008798944126704796
s(S'twice'
p467
S'[[det]]'
p468
tp469
F0.0004399472063352398
s(S'[[con]]'
p470
S'[[num]]'
p471
tp472
F0.01627804663440387
s(S'was'
p473
S'mother'
p474
tp475
F0.0013198416190057193
s(S'[[prp]]'
p476
g334
tp477
F0.002199736031676199
s(S'[[det]]'
p478
S'sister'
p479
tp480
F0.0026396832380114386
s(S'took'
p481
S'[[det]]'
p482
tp483
F0.0017597888253409592
s(S'first'
p484
S'took'
p485
tp486
F0.0004399472063352398
s(S'married'
p487
S'at'
p488
tp489
F0.0004399472063352398
s(S'before'
p490
S'death'
p491
tp492
F0.0004399472063352398
s(S'that'
p493
S'know'
p494
tp495
F0.0004399472063352398
s(S'son'
p496
S'whom'
p497
tp498
F0.0008798944126704796
s(S'currently'
p499
S'married'
p500
tp501
F0.0013198416190057193
s(S'said'
p502
S'were'
p503
tp504
F0.0004399472063352398
s(S'son'
p505
S'later'
p506
tp507
F0.0008798944126704796
s(S'with'
p508
S'daughter'
p509
tp510
F0.0004399472063352398
s(S'of'
p511
S'son'
p512
tp513
F0.0008798944126704796
s(S'[[mod]]'
p514
S'refer'
p515
tp516
F0.0026396832380114386
s(S'know'
p517
S'who'
p518
tp519
F0.0004399472063352398
s(S'father'
p520
S'[[con]]'
p521
tp522
F0.0026396832380114386
s(S'was'
p523
S'father'
p524
tp525
F0.0013198416190057193
s(S'[[det]]'
p526
S'engineer'
p527
tp528
F0.0004399472063352398
s(S'daughter'
p529
S'of'
p530
tp531
F0.025516937967443906
s(S'son'
p532
S'[[pro]]'
p533
tp534
F0.0017597888253409592
s(S'also'
p535
g272
tp536
F0.006599208095028597
s(S'was'
p537
S'survived'
p538
tp539
F0.0026396832380114386
s(S'wrote'
p540
S'by'
p541
tp542
F0.0008798944126704796
s(S'relationship'
p543
S'between'
p544
tp545
F0.0013198416190057193
s(S'youngest'
p546
S'son'
p547
tp548
F0.002199736031676199
s(S'get'
p549
S'married'
p550
tp551
F0.0008798944126704796
s(S'[[con]]'
p552
S'wrote'
p553
tp554
F0.0017597888253409592
s(S'mother'
p555
g112
tp556
F0.0004399472063352398
s(S'daughter'
p557
S'by'
p558
tp559
F0.0013198416190057193
s(S'as'
p560
S'took'
p561
tp562
F0.0004399472063352398
s(S'[[con]]'
p563
S'[[prp]]'
p564
tp565
F0.0017597888253409592
s(S'children'
p566
S'who'
p567
tp568
F0.0004399472063352398
s(S'said'
p569
S'as'
p570
tp571
F0.0004399472063352398
s(S'had'
p572
g487
tp573
F0.005719313682358117
s(S'by'
p574
S'son'
p575
tp576
F0.0004399472063352398
s(S'refer'
p577
S'[[num]]'
p578
tp579
F0.0008798944126704796
s(S'married'
p580
S'who'
p581
tp582
F0.0013198416190057193
s(S'married'
p583
S'd'
p584
tp585
F0.0013198416190057193
s(S'tells'
p586
S'of'
p587
tp588
F0.0008798944126704796
s(S'wrote'
p589
S'about'
p590
tp591
F0.0008798944126704796
s(S'whose'
p592
S'son'
p593
tp594
F0.0004399472063352398
s(S'[[pro]]'
p595
g136
tp596
F0.0008798944126704796
s(S'included'
p597
S'[[con]]'
p598
tp599
F0.0035195776506819184
s(S'then'
p600
S'took'
p601
tp602
F0.0017597888253409592
s(S'daughter'
p603
S'[[pro]]'
p604
tp605
F0.0008798944126704796
s(S'father'
p606
S'was'
p607
tp608
F0.002199736031676199
s(S'took'
p609
S'away'
p610
tp611
F0.0004399472063352398
s(S'actors'
p612
S'[[con]]'
p613
tp614
F0.0004399472063352398
s(S'married'
p615
S'daughter'
p616
tp617
F0.004399472063352398
s(S'twice'
p618
S'[[num]]'
p619
tp620
F0.0004399472063352398
s(S'who'
p621
S'said'
p622
tp623
F0.0008798944126704796
s(S'relationship'
p624
S'with'
p625
tp626
F0.0026396832380114386
s(S'of'
p627
S'[[num]]'
p628
tp629
F0.0008798944126704796
s(S'tells'
p630
S'[[pro]]'
p631
tp632
F0.0017597888253409592
s(S'wrote'
p633
g112
tp634
F0.0004399472063352398
s(S'father'
p635
S'of'
p636
tp637
F0.0061592608886933565
s(S'[[adj]]'
p638
g307
tp639
F0.0017597888253409592
s(S'been'
p640
S'married'
p641
tp642
F0.0026396832380114386
s(S'[[con]]'
p643
S'sons'
p644
tp645
F0.0004399472063352398
s(S'said'
p646
S'm'
p647
tp648
F0.0004399472063352398
s(S'whose'
p649
S'father'
p650
tp651
F0.0008798944126704796
s(g249
S'[[num]]'
p652
tp653
F0.003959524857017158
s(S'where'
p654
S'wrote'
p655
tp656
F0.0004399472063352398
s(S'know'
p657
S'why'
p658
tp659
F0.0004399472063352398
s(S'tells'
p660
S'about'
p661
tp662
F0.0004399472063352398
s(S'until'
p663
S'death'
p664
tp665
F0.0004399472063352398
s(S'about'
p666
S'death'
p667
tp668
F0.0004399472063352398
s(S'be'
p669
S'married'
p670
tp671
F0.0004399472063352398
s(S'refer'
p672
S'[[adj]]'
p673
tp674
F0.0004399472063352398
s(S'[[det]]'
p675
S'mother'
p676
tp677
F0.0061592608886933565
s(S'[[det]]'
p678
S'patriarch'
p679
tp680
F0.0004399472063352398
s(S'took'
p681
S'on'
p682
tp683
F0.0017597888253409592
s(S'later'
p684
S'married'
p685
tp686
F0.003959524857017158
s(S'to'
p687
S'[[num]]'
p688
tp689
F0.0035195776506819184
s(S'[[adj]]'
p690
S'wife'
p691
tp692
F0.003959524857017158
s(g293
S'[[num]]'
p693
tp694
F0.0030796304443466782
s(S'is'
p695
S'included'
p696
tp697
F0.0004399472063352398
s(S'son'
p698
S'by'
p699
tp700
F0.0026396832380114386
s(g527
S'in'
p701
tp702
F0.0013198416190057193
s(S'son'
p703
S'in'
p704
tp705
F0.0008798944126704796
s(S'were'
p706
S'married'
p707
tp708
F0.0004399472063352398
s(g207
S'of'
p709
tp710
F0.0013198416190057193
s(S'wife'
p711
S'as'
p712
tp713
F0.0008798944126704796
s(S'took'
p714
S'for'
p715
tp716
F0.0004399472063352398
s(S'was'
p717
g254
tp718
F0.0013198416190057193
s(S'tells'
p719
S'[[mod]]'
p720
tp721
F0.0004399472063352398
s(S'[[pro]]'
p722
S'daughter'
p723
tp724
F0.0004399472063352398
s(S'children'
p725
g112
tp726
F0.0008798944126704796
s(S'where'
p727
S'said'
p728
tp729
F0.0004399472063352398
s(S'son'
p730
S'was'
p731
tp732
F0.002199736031676199
s(S'said'
p733
S'if'
p734
tp735
F0.0004399472063352398
s(S'death'
p736
S'[[det]]'
p737
tp738
F0.0004399472063352398
s(S'death'
p739
S'by'
p740
tp741
F0.0008798944126704796
s(S'once'
p742
S'wrote'
p743
tp744
F0.0008798944126704796
s(S'sister'
p745
S'was'
p746
tp747
F0.0004399472063352398
s(S'with'
p748
S'death'
p749
tp750
F0.0004399472063352398
s(S'then'
p751
S'married'
p752
tp753
F0.002199736031676199
s(S'not'
p754
S'know'
p755
tp756
F0.0013198416190057193
s(S'survived'
p757
S'[[con]]'
p758
tp759
F0.0013198416190057193
s(S'from'
p760
S'son'
p761
tp762
F0.0004399472063352398
s(g113
S'[[adj]]'
p763
tp764
F0.002199736031676199
s(S'of'
p765
S'child'
p766
tp767
F0.0004399472063352398
s(S'[[num]]'
p768
S'child'
p769
tp770
F0.0008798944126704796
s(S'included'
p771
S'on'
p772
tp773
F0.0004399472063352398
s(g743
S'that'
p774
tp775
F0.002199736031676199
s(S'[[pro]]'
p776
S'[[det]]'
p777
tp778
F0.0004399472063352398
s(S'[[con]]'
p779
S'death'
p780
tp781
F0.0004399472063352398
s(S'that'
p782
S'father'
p783
tp784
F0.0004399472063352398
s(S'to'
p785
S'children'
p786
tp787
F0.0004399472063352398
s(S'whom'
p788
S'married'
p789
tp790
F0.0004399472063352398
s(S'wrote'
p791
S'was'
p792
tp793
F0.0004399472063352398
s(S'mother'
p794
S'[[adj]]'
p795
tp796
F0.0004399472063352398
s(S'not'
p797
S'refer'
p798
tp799
F0.0004399472063352398
s(S'which'
p800
S'wrote'
p801
tp802
F0.0013198416190057193
s(S'of'
p803
g198
tp804
F0.0008798944126704796
s(S'[[con]]'
p805
S'married'
p806
tp807
F0.0013198416190057193
s(S'know'
p808
S'[[con]]'
p809
tp810
F0.0004399472063352398
s(S'[[adj]]'
p811
S'took'
p812
tp813
F0.0004399472063352398
s(S'is'
p814
S'father'
p815
tp816
F0.0013198416190057193
s(S'[[con]]'
p817
S'younger'
p818
tp819
F0.0008798944126704796
s(S'that'
p820
S'took'
p821
tp822
F0.0004399472063352398
s(S'took'
p823
S'part'
p824
tp825
F0.0004399472063352398
s(S'once'
p826
S'said'
p827
tp828
F0.0030796304443466782
s(S'included'
p829
S'[[num]]'
p830
tp831
F0.0004399472063352398
s(S'[[con]]'
p832
S'included'
p833
tp834
F0.0004399472063352398
s(S'[[prp]]'
p835
S'death'
p836
tp837
F0.0004399472063352398
s(S'took'
p838
S'[[con]]'
p839
tp840
F0.0013198416190057193
s(S'[[num]]'
p841
S'daughter'
p842
tp843
F0.007039155301363837
s(S'to'
p844
S'[[det]]'
p845
tp846
F0.0035195776506819184
s(S'know'
p847
S'[[det]]'
p848
tp849
F0.0008798944126704796
s(S'tells'
p850
S'is'
p851
tp852
F0.0004399472063352398
s(S'said'
p853
S'[[num]]'
p854
tp855
F0.0004399472063352398
s(S'for'
p856
S'death'
p857
tp858
F0.0004399472063352398
s(S'[[prp]]'
p859
S'relationship'
p860
tp861
F0.0008798944126704796
s(g553
S'to'
p862
tp863
F0.003959524857017158
s(g112
S'relationship'
p864
tp865
F0.0013198416190057193
s(g320
S'of'
p866
tp867
F0.0026396832380114386
s(S'is'
p868
g757
tp869
F0.002199736031676199
s(S'as'
p870
S'father'
p871
tp872
F0.0004399472063352398
s(S'[[prp]]'
p873
S'youngest'
p874
tp875
F0.0004399472063352398
s(S'when'
p876
S'took'
p877
tp878
F0.0008798944126704796
s(S'also'
p879
S'included'
p880
tp881
F0.0013198416190057193
s(S'[[prp]]'
p882
S'children'
p883
tp884
F0.0013198416190057193
s(S'daughter'
p885
S'married'
p886
tp887
F0.0004399472063352398
s(g515
S'[[det]]'
p888
tp889
F0.0004399472063352398
s(S'death'
p890
S'to'
p891
tp892
F0.0004399472063352398
s(S'said'
p893
S'[[con]]'
p894
tp895
F0.0008798944126704796
s(S'took'
p896
S'off'
p897
tp898
F0.0004399472063352398
s(S'when'
p899
S'wrote'
p900
tp901
F0.0008798944126704796
s(S'son'
p902
S'as'
p903
tp904
F0.0008798944126704796
s(S'[[adj]]'
p905
S'daughter'
p906
tp907
F0.006599208095028597
s(S'son'
p908
S'became'
p909
tp910
F0.0008798944126704796
s(S'[[prp]]'
p911
S'child'
p912
tp913
F0.0004399472063352398
s(S'[[con]]'
p914
S'survived'
p915
tp916
F0.0004399472063352398
s(S'took'
p917
S'after'
p918
tp919
F0.0004399472063352398
s(S'daughter'
p920
S'was'
p921
tp922
F0.0008798944126704796
s(S'son'
p923
S'[[mod]]'
p924
tp925
F0.0004399472063352398
s(S'[[adj]]'
p926
S'sons'
p927
tp928
F0.0017597888253409592
s(g112
g186
tp929
F0.004399472063352398
s(S'also'
p930
S'said'
p931
tp932
F0.002199736031676199
s(S'[[adj]]'
p933
S'said'
p934
tp935
F0.0004399472063352398
s(S'that'
p936
S'tells'
p937
tp938
F0.0004399472063352398
s(S'then'
p939
S'wrote'
p940
tp941
F0.0004399472063352398
s(S'said'
p942
S'[[prp]]'
p943
tp944
F0.0004399472063352398
s(g157
S'[[pro]]'
p945
tp946
F0.0013198416190057193
s(S'married'
p947
g618
tp948
F0.002199736031676199
s(S'[[con]]'
p949
S'gave'
p950
tp951
F0.0008798944126704796
s(S'wrote'
p952
S'[[pro]]'
p953
tp954
F0.0004399472063352398
s(S'who'
p955
S'[[det]]'
p956
tp957
F0.0008798944126704796
s(S'[[det]]'
p958
S'set'
p959
tp960
F0.0004399472063352398
s(S'son'
p961
S'de'
p962
tp963
F0.0013198416190057193
s(S'what'
p964
S'said'
p965
tp966
F0.0004399472063352398
s(S'took'
p967
S'when'
p968
tp969
F0.0004399472063352398
s(S'[[det]]'
p970
S'daughter'
p971
tp972
F0.020237571491421028
s(S'birth'
p973
S'[[con]]'
p974
tp975
F0.0004399472063352398
s(S'have'
p976
S'included'
p977
tp978
F0.0008798944126704796
s(S'of'
p979
S'actors'
p980
tp981
F0.0008798944126704796
s(g112
S'younger'
p982
tp983
F0.0004399472063352398
s(S'is'
p984
S'wife'
p985
tp986
F0.0004399472063352398
s(S'[[con]]'
p987
S'mother'
p988
tp989
F0.0013198416190057193
s(S'[[det]]'
p990
S'death'
p991
tp992
F0.0013198416190057193
s(S'father'
p993
g112
tp994
F0.0004399472063352398
s(S'[[det]]'
p995
g505
tp996
F0.02067751869775627
s(S'in'
p997
S'[[adj]]'
p998
tp999
F0.0004399472063352398
s(S'secondly'
p1000
S'[[det]]'
p1001
tp1002
F0.0004399472063352398
s(S'father'
p1003
S'in'
p1004
tp1005
F0.0008798944126704796
s(S'children'
p1006
S'to'
p1007
tp1008
F0.0004399472063352398
s(S'sons'
p1009
S'[[det]]'
p1010
tp1011
F0.0004399472063352398
s(S'[[num]]'
p1012
S'daughters'
p1013
tp1014
F0.003959524857017158
s(S'only'
p1015
S'son'
p1016
tp1017
F0.0004399472063352398
s(S'[[num]]'
p1018
S'sister'
p1019
tp1020
F0.0004399472063352398
s(S'wife'
p1021
S'in'
p1022
tp1023
F0.0013198416190057193
s(S'with'
p1024
S'son'
p1025
tp1026
F0.0008798944126704796
s(S'wife'
p1027
S'was'
p1028
tp1029
F0.0004399472063352398
s(S'[[con]]'
p1030
S'wife'
p1031
tp1032
F0.0008798944126704796
s(S'of'
p1033
S'father'
p1034
tp1035
F0.0004399472063352398
s(g112
S'child'
p1036
tp1037
F0.0004399472063352398
s(S'refer'
p1038
S'as'
p1039
tp1040
F0.0008798944126704796
s(S'said'
p1041
S'[[adj]]'
p1042
tp1043
F0.0008798944126704796
s(S'daughters'
p1044
S'[[num]]'
p1045
tp1046
F0.0004399472063352398
s(S'not'
p1047
S'included'
p1048
tp1049
F0.0004399472063352398
s(g931
S'[[det]]'
p1050
tp1051
F0.0017597888253409592
s(S'where'
p1052
g823
tp1053
F0.0008798944126704796
s(S'[[adj]]'
p1054
S'wrote'
p1055
tp1056
F0.0008798944126704796
s(S'[[adj]]'
p1057
S'death'
p1058
tp1059
F0.0008798944126704796
s(S'is'
p1060
g529
tp1061
F0.0008798944126704796
s(S'that'
p1062
S'son'
p1063
tp1064
F0.0004399472063352398
s(g112
S'children'
p1065
tp1066
F0.0013198416190057193
s(S'said'
p1067
S'of'
p1068
tp1069
F0.0026396832380114386
s(S'with'
p1070
S'child'
p1071
tp1072
F0.0004399472063352398
s(S'wife'
p1073
S'[[pro]]'
p1074
tp1075
F0.0004399472063352398
s(S'[[pro]]'
p1076
S'tells'
p1077
tp1078
F0.0004399472063352398
s(S'brother'
p1079
S'[[con]]'
p1080
tp1081
F0.0026396832380114386
s(S'with'
p1082
S'mother'
p1083
tp1084
F0.0004399472063352398
s(S'of'
p1085
S'said'
p1086
tp1087
F0.0004399472063352398
s(S'was'
p1088
S'said'
p1089
tp1090
F0.0017597888253409592
s(S'refer'
p1091
S'to'
p1092
tp1093
F0.002199736031676199
s(S'as'
p1094
S'wife'
p1095
tp1096
F0.0004399472063352398
s(S'daughter'
p1097
S'in'
p1098
tp1099
F0.0004399472063352398
s(S'married'
p1100
S'secondly'
p1101
tp1102
F0.0017597888253409592
s(S'wrote'
p1103
S'more'
p1104
tp1105
F0.0004399472063352398
s(S'when'
p1106
S'married'
p1107
tp1108
F0.0008798944126704796
s(S'children'
p1109
S'together'
p1110
tp1111
F0.0017597888253409592
s(S'does'
p1112
S'know'
p1113
tp1114
F0.0004399472063352398
s(S'who'
p1115
S'married'
p1116
tp1117
F0.0030796304443466782
s(S'[[det]]'
p1118
S'youngest'
p1119
tp1120
F0.0004399472063352398
s(S'included'
p1121
S'to'
p1122
tp1123
F0.0004399472063352398
s(S'birth'
p1124
S'to'
p1125
tp1126
F0.0013198416190057193
s(S'also'
p1127
S'married'
p1128
tp1129
F0.0013198416190057193
s(S'wrote'
p1130
S'under'
p1131
tp1132
F0.0008798944126704796
s(S'[[det]]'
p1133
S'younger'
p1134
tp1135
F0.0035195776506819184
s(S'[[adj]]'
p1136
S'married'
p1137
tp1138
F0.0013198416190057193
s(S'[[con]]'
p1139
S'know'
p1140
tp1141
F0.0004399472063352398
s(S'took'
p1142
S'as'
p1143
tp1144
F0.0004399472063352398
s(S'[[det]]'
p1145
S'[[adj]]'
p1146
tp1147
F0.002199736031676199
s(S'[[pro]]'
p1148
S'death'
p1149
tp1150
F0.0008798944126704796
s(S'with'
p1151
S'wife'
p1152
tp1153
F0.0004399472063352398
s(S'later'
p1154
S'took'
p1155
tp1156
F0.0008798944126704796
s(S'children'
p1157
S'with'
p1158
tp1159
F0.002199736031676199
s(g906
S'[[det]]'
p1160
tp1161
F0.0026396832380114386
s(S'child'
p1162
S'[[det]]'
p1163
tp1164
F0.0004399472063352398
s(S'know'
p1165
S'[[pro]]'
p1166
tp1167
F0.0004399472063352398
s(S'son'
p1168
S'is'
p1169
tp1170
F0.0008798944126704796
s(S'[[adj]]'
p1171
S'relationship'
p1172
tp1173
F0.002199736031676199
s(S'relationship'
p1174
S'[[con]]'
p1175
tp1176
F0.0008798944126704796
s(S'[[det]]'
p1177
S'father'
p1178
tp1179
F0.007039155301363837
s(S'is'
p1180
S'sister'
p1181
tp1182
F0.0004399472063352398
s(S'while'
p1183
S'said'
p1184
tp1185
F0.0004399472063352398
s(S'son'
p1186
S'[[con]]'
p1187
tp1188
F0.009678838539375276
s(g317
S'[[num]]'
p1189
tp1190
F0.002199736031676199
s(S'wrote'
p1191
S'of'
p1192
tp1193
F0.0013198416190057193
s(S'[[pro]]'
p1194
S'took'
p1195
tp1196
F0.0004399472063352398
s(S'[[det]]'
p1197
g340
tp1198
F0.0004399472063352398
s(S'[[pro]]'
p1199
S'father'
p1200
tp1201
F0.0004399472063352398
s(S'of'
p1202
S'[[prp]]'
p1203
tp1204
F0.0004399472063352398
s(S'[[con]]'
p1205
S'took'
p1206
tp1207
F0.0035195776506819184
s(g222
S'who'
p1208
tp1209
F0.0013198416190057193
s(S'who'
p1210
S'included'
p1211
tp1212
F0.0004399472063352398
s(S'married'
p1213
S'as'
p1214
tp1215
F0.0004399472063352398
s(S'by'
p1216
S'[[det]]'
p1217
tp1218
F0.0004399472063352398
s(S'be'
p1219
S'said'
p1220
tp1221
F0.0004399472063352398
s(S'death'
p1222
S'[[con]]'
p1223
tp1224
F0.0017597888253409592
s(S'to'
p1225
S'[[adj]]'
p1226
tp1227
F0.0013198416190057193
s(S'[[pro]]'
p1228
S'[[num]]'
p1229
tp1230
F0.003959524857017158
s(S'later'
p1231
S'said'
p1232
tp1233
F0.002199736031676199
s(S'[[num]]'
p1234
g1006
tp1235
F0.026396832380114386
s(S'[[prp]]'
p1236
g698
tp1237
F0.009238891333040036
s(S'by'
p1238
S'sister'
p1239
tp1240
F0.0004399472063352398
s(S'to'
p1241
S'father'
p1242
tp1243
F0.0004399472063352398
s(S'wife'
p1244
S'[[det]]'
p1245
tp1246
F0.0008798944126704796
s(S'[[num]]'
p1247
S'son'
p1248
tp1249
F0.005279366476022877
s(S'father'
p1250
S'[[det]]'
p1251
tp1252
F0.0017597888253409592
s(S'has'
p1253
S'said'
p1254
tp1255
F0.0026396832380114386
s(S'[[adj]]'
p1256
S'child'
p1257
tp1258
F0.0026396832380114386
s(S'said'
p1259
S'about'
p1260
tp1261
F0.0017597888253409592
s(S'wrote'
p1262
S'[[prp]]'
p1263
tp1264
F0.0004399472063352398
s(S'mother'
p1265
S'who'
p1266
tp1267
F0.0004399472063352398
s(S'[[mod]]'
p1268
S'know'
p1269
tp1270
F0.0004399472063352398
s(S'said'
p1271
S'was'
p1272
tp1273
F0.0004399472063352398
s(S'survived'
p1274
S'by'
p1275
tp1276
F0.0035195776506819184
s(S'took'
p1277
S'[[adj]]'
p1278
tp1279
F0.0004399472063352398
s(S'wrote'
p1280
S'for'
p1281
tp1282
F0.0004399472063352398
s(S'took'
p1283
S'from'
p1284
tp1285
F0.0004399472063352398
s(S'[[num]]'
p1286
S'[[det]]'
p1287
tp1288
F0.0004399472063352398
s(S'said'
p1289
S'has'
p1290
tp1291
F0.0004399472063352398
s(g1248
S'who'
p1292
tp1293
F0.0035195776506819184
s(S'married'
p1294
S'again'
p1295
tp1296
F0.0013198416190057193
s(S'son'
p1297
g319
tp1298
F0.0004399472063352398
s(S'as'
p1299
S'son'
p1300
tp1301
F0.0004399472063352398
s(S'[[det]]'
p1302
S'child'
p1303
tp1304
F0.0017597888253409592
s(S'father'
p1305
S'when'
p1306
tp1307
F0.0004399472063352398
s(S'sister'
p1308
S'[[num]]'
p1309
tp1310
F0.0004399472063352398
s(S'with'
p1311
S'sister'
p1312
tp1313
F0.0004399472063352398
s(S'sons'
p1314
S'of'
p1315
tp1316
F0.0017597888253409592
s(S'birth'
p1317
S'[[det]]'
p1318
tp1319
F0.0004399472063352398
s(g112
S'daughters'
p1320
tp1321
F0.0008798944126704796
s(S'was'
p1322
S'wife'
p1323
tp1324
F0.0008798944126704796
s(S'married'
p1325
S'de'
p1326
tp1327
F0.002199736031676199
s(S'death'
p1328
S'which'
p1329
tp1330
F0.0004399472063352398
s(S'married'
p1331
S'[[prp]]'
p1332
tp1333
F0.002199736031676199
s(S'[[prp]]'
p1334
g993
tp1335
F0.0026396832380114386
s(S'son'
p1336
S'with'
p1337
tp1338
F0.002199736031676199
s(S'in'
p1339
S'said'
p1340
tp1341
F0.0004399472063352398
s(g112
S'sons'
p1342
tp1343
F0.0013198416190057193
s(g1178
S'[[num]]'
p1344
tp1345
F0.0013198416190057193
s(S'have'
p1346
S'married'
p1347
tp1348
F0.0004399472063352398
s(S'also'
p1349
S'took'
p1350
tp1351
F0.0017597888253409592
s(S'[[prp]]'
p1352
S'sister'
p1353
tp1354
F0.0008798944126704796
s(S'whose'
p1355
g356
tp1356
F0.0004399472063352398
s(S'wrote'
p1357
S'[[con]]'
p1358
tp1359
F0.0008798944126704796
s(S'while'
p1360
S'took'
p1361
tp1362
F0.0004399472063352398
s(S'know'
p1363
S'whether'
p1364
tp1365
F0.0004399472063352398
s(S'took'
p1366
S'with'
p1367
tp1368
F0.0004399472063352398
s(S'death'
p1369
S'of'
p1370
tp1371
F0.0013198416190057193
s(g112
g201
tp1372
F0.004399472063352398
s(S'[[prp]]'
p1373
S'mother'
p1374
tp1375
F0.0013198416190057193
s(S'tells'
p1376
S'[[det]]'
p1377
tp1378
F0.0008798944126704796
s(S'accompany'
p1379
S'[[det]]'
p1380
tp1381
F0.0004399472063352398
s(S'is'
p1382
S'married'
p1383
tp1384
F0.014078310602727673
s(S'who'
p1385
S'wrote'
p1386
tp1387
F0.0004399472063352398
s(S'which'
p1388
S'took'
p1389
tp1390
F0.0004399472063352398
s(S'said'
p1391
S'in'
p1392
tp1393
F0.0008798944126704796
s(g1303
S'[[con]]'
p1394
tp1395
F0.0008798944126704796
s(S'tells'
p1396
S'[[adj]]'
p1397
tp1398
F0.0004399472063352398
s(S'son'
p1399
S'[[num]]'
p1400
tp1401
F0.002199736031676199
s(S'of'
p1402
S'wrote'
p1403
tp1404
F0.0004399472063352398
s(S'by'
p1405
S'daughter'
p1406
tp1407
F0.0004399472063352398
s(S'who'
p1408
S'took'
p1409
tp1410
F0.0008798944126704796
s(g971
S'[[num]]'
p1411
tp1412
F0.0008798944126704796
s(S'first'
p1413
S'daughter'
p1414
tp1415
F0.0004399472063352398
s(S'took'
p1416
S'[[prp]]'
p1417
tp1418
F0.0008798944126704796
s(S'[[adj]]'
p1419
g1003
tp1420
F0.0017597888253409592
s(S'is'
p1421
g1186
tp1422
F0.0017597888253409592
s(S'gave'
p1423
g973
tp1424
F0.0030796304443466782
s(g116
g958
tp1425
F0.0004399472063352398
s(S'has'
p1426
S'married'
p1427
tp1428
F0.0004399472063352398
s(S'wrote'
p1429
S'from'
p1430
tp1431
F0.0004399472063352398
s(S'[[num]]'
p1432
S'married'
p1433
tp1434
F0.0008798944126704796
s(S'mother'
p1435
S'[[det]]'
p1436
tp1437
F0.0013198416190057193
s(S'also'
p1438
g586
tp1439
F0.0013198416190057193
s(S'as'
p1440
S'daughter'
p1441
tp1442
F0.0004399472063352398
s(g112
g711
tp1443
F0.003959524857017158
s(S'wrote'
p1444
S'[[det]]'
p1445
tp1446
F0.0013198416190057193
s(S'father'
p1447
S'who'
p1448
tp1449
F0.0008798944126704796
s(S'wife'
p1450
S'who'
p1451
tp1452
F0.0008798944126704796
s(g864
S'to'
p1453
tp1454
F0.0013198416190057193
s(S'mother'
p1455
S'from'
p1456
tp1457
F0.0004399472063352398
s(g1353
S'[[con]]'
p1458
tp1459
F0.0017597888253409592
s(S'then'
p1460
S'said'
p1461
tp1462
F0.0008798944126704796
s(g584
S'[[det]]'
p1463
tp1464
F0.0004399472063352398
s(S'[[det]]'
p1465
S'wrote'
p1466
tp1467
F0.0004399472063352398
s(g112
g1435
tp1468
F0.0030796304443466782
s(S'said'
p1469
S'had'
p1470
tp1471
F0.0008798944126704796
s(S'sister'
p1472
S'[[det]]'
p1473
tp1474
F0.0004399472063352398
s(g584
S'[[num]]'
p1475
tp1476
F0.0004399472063352398
s(S'children'
p1477
S'[[adj]]'
p1478
tp1479
F0.0013198416190057193
s(S'took'
p1480
S'where'
p1481
tp1482
F0.0004399472063352398
s(S'refer'
p1483
S'also'
p1484
tp1485
F0.0008798944126704796
s(S'wrote'
p1486
S'when'
p1487
tp1488
F0.0004399472063352398
s(S'[[prp]]'
p1489
g920
tp1490
F0.004399472063352398
s(g101
S'that'
p1491
tp1492
F0.0013198416190057193
s(S'took'
p1493
S'[[pro]]'
p1494
tp1495
F0.0008798944126704796
s(S'mother'
p1496
S'[[con]]'
p1497
tp1498
F0.0026396832380114386
s(S'wrote'
p1499
S'[[num]]'
p1500
tp1501
F0.0013198416190057193
s(S'brother'
p1502
S'[[det]]'
p1503
tp1504
F0.0004399472063352398
s(S'with'
p1505
S'[[adj]]'
p1506
tp1507
F0.0004399472063352398
s(g11
S'[[prp]]'
p1508
tp1509
F0.0008798944126704796
s(S'daughter'
p1510
S'[[adj]]'
p1511
tp1512
F0.0017597888253409592
s(S'[[con]]'
p1513
S'daughter'
p1514
tp1515
F0.0035195776506819184
s(S'took'
p1516
S'up'
p1517
tp1518
F0.0004399472063352398
s(S'where'
p1519
S'married'
p1520
tp1521
F0.0004399472063352398
s(S'married'
p1522
S'[[con]]'
p1523
tp1524
F0.025516937967443906
s(S'children'
p1525
S'of'
p1526
tp1527
F0.0013198416190057193
s(S'in'
p1528
S'[[det]]'
p1529
tp1530
F0.0004399472063352398
s(S'married'
p1531
S'while'
p1532
tp1533
F0.0004399472063352398
s(S'is'
p1534
S'said'
p1535
tp1536
F0.0013198416190057193
s(S'to'
p1537
S'accompany'
p1538
tp1539
F0.0008798944126704796
s(S'took'
p1540
S'back'
p1541
tp1542
F0.0004399472063352398
s(g74
S'with'
p1543
tp1544
F0.0004399472063352398
s(g1254
S'is'
p1545
tp1546
F0.0008798944126704796
s(S'again'
p1547
S'to'
p1548
tp1549
F0.0004399472063352398
s(S'daughters'
p1550
S'who'
p1551
tp1552
F0.0004399472063352398
s(S'wrote'
p1553
S'with'
p1554
tp1555
F0.0013198416190057193
s(S'tells'
p1556
S'[[con]]'
p1557
tp1558
F0.0008798944126704796
s(S'[[num]]'
p1559
S'took'
p1560
tp1561
F0.0004399472063352398
s(S'son'
p1562
S'daughter'
p1563
tp1564
F0.0013198416190057193
s(S'father'
p1565
S'is'
p1566
tp1567
F0.0004399472063352398
s(S'[[det]]'
p1568
g133
tp1569
F0.0017597888253409592
s(S'child'
p1570
S'of'
p1571
tp1572
F0.0013198416190057193
s(S'[[num]]'
p1573
S'wrote'
p1574
tp1575
F0.0008798944126704796
s(S'was'
p1576
S'married'
p1577
tp1578
F0.02111746590409151
s(g1257
S'with'
p1579
tp1580
F0.0013198416190057193
s(S'married'
p1581
S'first'
p1582
tp1583
F0.002199736031676199
s(S'married'
p1584
g1228
tp1585
F0.005279366476022877
s(S'daughter'
p1586
S'to'
p1587
tp1588
F0.002199736031676199
s(S'[[con]]'
p1589
S'child'
p1590
tp1591
F0.0004399472063352398
s(S'until'
p1592
S'took'
p1593
tp1594
F0.0004399472063352398
s(S'[[pro]]'
p1595
g25
tp1596
F0.0013198416190057193
s(S'that'
p1597
S'married'
p1598
tp1599
F0.0004399472063352398
s(S'son'
p1600
S'to'
p1601
tp1602
F0.0026396832380114386
s(g581
S'[[num]]'
p1603
tp1604
F0.0004399472063352398
s(S'to'
p1605
S'wife'
p1606
tp1607
F0.0004399472063352398
s(S'de'
p1608
S'[[det]]'
p1609
tp1610
F0.0004399472063352398
s(S'[[pro]]'
p1611
S'know'
p1612
tp1613
F0.0004399472063352398
s(S'sons'
p1614
S'[[num]]'
p1615
tp1616
F0.0013198416190057193
s(S'was'
p1617
S'son'
p1618
tp1619
F0.0026396832380114386
s(S'[[adj]]'
p1620
S'engineer'
p1621
tp1622
F0.0004399472063352398
s(g1350
S'over'
p1623
tp1624
F0.0026396832380114386
s(S'tells'
p1625
S'how'
p1626
tp1627
F0.0004399472063352398
s(g1383
g687
tp1628
F0.02111746590409151
s(S'death'
p1629
S'when'
p1630
tp1631
F0.0004399472063352398
s(S'sister'
p1632
S'[[adj]]'
p1633
tp1634
F0.0008798944126704796
s(S'[[prp]]'
p1635
S'sons'
p1636
tp1637
F0.0008798944126704796
s(S'[[num]]'
p1638
S'[[adj]]'
p1639
tp1640
F0.0004399472063352398
s(S'to'
p1641
S'son'
p1642
tp1643
F0.0017597888253409592
s(S'still'
p1644
S'married'
p1645
tp1646
F0.0004399472063352398
s(S'to'
p1647
S'mother'
p1648
tp1649
F0.0004399472063352398
s(S'was'
p1650
S'succeeded'
p1651
tp1652
F0.003959524857017158
s(S'when'
p1653
S'said'
p1654
tp1655
F0.0004399472063352398
s(S'took'
p1656
S'[[num]]'
p1657
tp1658
F0.0008798944126704796
s(S'be'
p1659
S'included'
p1660
tp1661
F0.0004399472063352398
s(S'[[con]]'
p1662
g546
tp1663
F0.0004399472063352398
s(g1651
g403
tp1664
F0.003959524857017158
s(S'often'
p1665
S'said'
p1666
tp1667
F0.0008798944126704796
s(S'[[num]]'
p1668
S'said'
p1669
tp1670
F0.0004399472063352398
s(S'[[pro]]'
p1671
S'mother'
p1672
tp1673
F0.0004399472063352398
s(S'[[con]]'
p1674
g635
tp1675
F0.0013198416190057193
s(S'that'
p1676
S'wrote'
p1677
tp1678
F0.0004399472063352398
s(S'children'
p1679
S'[[con]]'
p1680
tp1681
F0.010118785745710514
s(g1523
S'[[adj]]'
p1682
tp1683
F0.0008798944126704796
s(g329
S'[[con]]'
p1684
tp1685
F0.007039155301363837
s(S'[[adj]]'
p1686
S'tells'
p1687
tp1688
F0.0004399472063352398
s(S'which'
p1689
g597
tp1690
F0.0017597888253409592
s(S'included'
p1691
S'[[det]]'
p1692
tp1693
F0.0008798944126704796
s(S'death'
p1694
S'in'
p1695
tp1696
F0.0008798944126704796
s(S'know'
p1697
S'what'
p1698
tp1699
F0.0004399472063352398
s(g988
S'of'
p1700
tp1701
F0.007479102507699076
s(S'[[con]]'
p1702
g1115
tp1703
F0.0004399472063352398
s(S'when'
p1704
S'tells'
p1705
tp1706
F0.0004399472063352398
s(S'to'
p1707
g1091
tp1708
F0.0008798944126704796
s.