(dp0
(S'television'
p1
S'drama'
p2
tp3
F0.00040816326530612246
s(S'[[adj]]'
p4
S'adventure'
p5
tp6
F0.0008163265306122449
s(S'[[det]]'
p7
S'thriller'
p8
tp9
F0.0012244897959183673
s(S'thriller'
p10
S'directed'
p11
tp12
F0.0012244897959183673
s(S'gt'
p13
S'[[con]]'
p14
tp15
F0.00040816326530612246
s(S'with'
p16
S'[[det]]'
p17
tp18
F0.0016326530612244899
s(S'into'
p19
S'[[det]]'
p20
tp21
F0.00040816326530612246
s(S'comedy'
p22
S'horror'
p23
tp24
F0.00040816326530612246
s(S'by'
p25
S'[[con]]'
p26
tp27
F0.02040816326530612
s(S'made'
p28
S'by'
p29
tp30
F0.00040816326530612246
s(S'from'
p31
S'directed'
p32
tp33
F0.0008163265306122449
s(S'[[adj]]'
p34
S'cast'
p35
tp36
F0.00040816326530612246
s(S'adapted'
p37
S'[[num]]'
p38
tp39
F0.00040816326530612246
s(S'mystery'
p40
S'crime'
p41
tp42
F0.00040816326530612246
s(S'fantasy'
p43
S'adventure'
p44
tp45
F0.00040816326530612246
s(S'adapted'
p46
S'into'
p47
tp48
F0.0008163265306122449
s(S'film'
p49
S'in'
p50
tp51
F0.00040816326530612246
s(S'directed'
p52
S'that'
p53
tp54
F0.00040816326530612246
s(S'about'
p55
S'directed'
p56
tp57
F0.0008163265306122449
s(S'[[det]]'
p58
S'sports'
p59
tp60
F0.00040816326530612246
s(S'as'
p61
S'[[det]]'
p62
tp63
F0.00040816326530612246
s(S'[[con]]'
p64
S'starred'
p65
tp66
F0.00040816326530612246
s(S'directed'
p67
S'based'
p68
tp69
F0.0008163265306122449
s(S'feature'
p70
S'film'
p71
tp72
F0.006122448979591836
s(S'starring'
p73
S'with'
p74
tp75
F0.0008163265306122449
s(S'directed'
p76
S'about'
p77
tp78
F0.00040816326530612246
s(S'[[adj]]'
p79
S'[[con]]'
p80
tp81
F0.0008163265306122449
s(S'[[det]]'
p82
S'cult'
p83
tp84
F0.00040816326530612246
s(g68
S'by'
p85
tp86
F0.0012244897959183673
s(S'was'
p87
S'written'
p88
tp89
F0.0016326530612244899
s(S'[[adj]]'
p90
S'comedy'
p91
tp92
F0.012244897959183673
s(S'television'
p93
S'film'
p94
tp95
F0.0012244897959183673
s(S'was'
p96
S'released'
p97
tp98
F0.00040816326530612246
s(g53
S'starred'
p99
tp100
F0.00040816326530612246
s(S'edited'
p101
S'[[con]]'
p102
tp103
F0.00040816326530612246
s(S'comedy'
p104
S'crime'
p105
tp106
F0.00040816326530612246
s(S'film'
p107
S'of'
p108
tp109
F0.00040816326530612246
s(S'documentary'
p110
S'directed'
p111
tp112
F0.0008163265306122449
s(S'family'
p113
S'film'
p114
tp115
F0.0012244897959183673
s(S'[[det]]'
p116
S'adventure'
p117
tp118
F0.00040816326530612246
s(S'fantasy'
p119
S'film'
p120
tp121
F0.0016326530612244899
s(S'[[num]]'
p122
S'crime'
p123
tp124
F0.01020408163265306
s(S'[[num]]'
p125
S'comedydrama'
p126
tp127
F0.003673469387755102
s(S'comedy'
p128
S'directed'
p129
tp130
F0.0016326530612244899
s(S'adapted'
p131
g61
tp132
F0.00040816326530612246
s(S'horror'
p133
S'film'
p134
tp135
F0.010612244897959184
s(S'[[num]]'
p136
S'road'
p137
tp138
F0.0008163265306122449
s(S'[[adj]]'
p139
S'crime'
p140
tp141
F0.0020408163265306124
s(S'romance'
p142
S'film'
p143
tp144
F0.0024489795918367346
s(S'was'
p145
g46
tp146
F0.0016326530612244899
s(S'film'
p147
S'[[con]]'
p148
tp149
F0.0008163265306122449
s(S'drama'
p150
S'written'
p151
tp152
F0.00040816326530612246
s(S'[[con]]'
p153
S'featuring'
p154
tp155
F0.0032653061224489797
s(S'[[det]]'
p156
S'directed'
p157
tp158
F0.00040816326530612246
s(S'[[det]]'
p159
S'feature'
p160
tp161
F0.0016326530612244899
s(S'[[adj]]'
p162
S'film'
p163
tp164
F0.013877551020408163
s(S'film'
p165
S'written'
p166
tp167
F0.02489795918367347
s(S'[[con]]'
p168
S'action'
p169
tp170
F0.00040816326530612246
s(S'known'
p171
S'is'
p172
tp173
F0.004081632653061225
s(S'written'
p174
S'[[con]]'
p175
tp176
F0.030204081632653063
s(g88
S'directed'
p177
tp178
F0.0016326530612244899
s(S'directed'
p179
S'at'
p180
tp181
F0.00040816326530612246
s(S'film'
p182
S'[[adj]]'
p183
tp184
F0.0020408163265306124
s(S'produced'
p185
S'by'
p186
tp187
F0.006122448979591836
s(S'[[con]]'
p188
S'starring'
p189
tp190
F0.060408163265306125
s(S'produced'
p191
S'[[con]]'
p192
tp193
F0.005714285714285714
s(S'[[num]]'
p194
S'detective'
p195
tp196
F0.0008163265306122449
s(S'also'
p197
g171
tp198
F0.003673469387755102
s(S'[[con]]'
p199
S'crime'
p200
tp201
F0.00040816326530612246
s(g91
S'film'
p202
tp203
F0.027346938775510202
s(S'edited'
p204
S'by'
p205
tp206
F0.00040816326530612246
s(S'film'
p207
S'that'
p208
tp209
F0.0008163265306122449
s(S'by'
p210
S'produced'
p211
tp212
F0.00040816326530612246
s(S'[[num]]'
p213
g70
tp214
F0.002857142857142857
s(S'action'
p215
S'thriller'
p216
tp217
F0.0016326530612244899
s(S'is'
p218
S'film'
p219
tp220
F0.00040816326530612246
s(S'action'
p221
S'written'
p222
tp223
F0.0008163265306122449
s(S'assassination'
p224
g168
tp225
F0.00040816326530612246
s(S'film'
p226
g28
tp227
F0.0008163265306122449
s(S'drama'
p228
S'film'
p229
tp230
F0.026530612244897958
s(g137
S'movie'
p231
tp232
F0.0008163265306122449
s(S'[[adj]]'
p233
S'action'
p234
tp235
F0.0016326530612244899
s(S'directed'
p236
S'as'
p237
tp238
F0.0008163265306122449
s(S'by'
p239
S'starring'
p240
tp241
F0.013877551020408163
s(S'[[det]]'
p242
S'war'
p243
tp244
F0.00040816326530612246
s(S'thriller'
p245
S'film'
p246
tp247
F0.014285714285714285
s(S'[[num]]'
p248
g215
tp249
F0.009795918367346938
s(S'noir'
p250
S'directed'
p251
tp252
F0.0012244897959183673
s(S'as'
p253
S'[[num]]'
p254
tp255
F0.00040816326530612246
s(S'[[adj]]'
p256
S'movie'
p257
tp258
F0.00040816326530612246
s(S'[[num]]'
p259
S'produced'
p260
tp261
F0.00040816326530612246
s(S'directed'
p262
S'which'
p263
tp264
F0.00040816326530612246
s(S'is'
p265
S'[[num]]'
p266
tp267
F0.005714285714285714
s(S'[[det]]'
p268
S'drama'
p269
tp270
F0.0012244897959183673
s(S'comedy'
p271
S'action'
p272
tp273
F0.00040816326530612246
s(g65
S'by'
p274
tp275
F0.00040816326530612246
s(S'was'
p276
S'directed'
p277
tp278
F0.002857142857142857
s(S'[[con]]'
p279
S'based'
p280
tp281
F0.00040816326530612246
s(S'thriller'
p282
S'written'
p283
tp284
F0.00040816326530612246
s(S'[[adj]]'
p285
S'fantasy'
p286
tp287
F0.00040816326530612246
s(S'written'
p288
S'by'
p289
tp290
F0.011428571428571429
s(S'released'
p291
S'starring'
p292
tp293
F0.0016326530612244899
s(S'film'
p294
g191
tp295
F0.004081632653061225
s(g134
g31
tp296
F0.0012244897959183673
s(S'family'
p297
S'comedy'
p298
tp299
F0.0008163265306122449
s(g172
S'[[adj]]'
p300
tp301
F0.0008163265306122449
s(g83
S'[[num]]'
p302
tp303
F0.00040816326530612246
s(S'[[det]]'
p304
S'gentleman'
p305
tp306
F0.00040816326530612246
s(S'film'
p307
S'noir'
p308
tp309
F0.0016326530612244899
s(S'[[adj]]'
p310
S'documentary'
p311
tp312
F0.00040816326530612246
s(S'directed'
p313
S'starring'
p314
tp315
F0.013469387755102041
s(S'produced'
p316
S'with'
p317
tp318
F0.00040816326530612246
s(g59
S'drama'
p319
tp320
F0.00040816326530612246
s(S'[[con]]'
p321
S'stars'
p322
tp323
F0.0020408163265306124
s(S'starring'
p324
S'directed'
p325
tp326
F0.0008163265306122449
s(S'[[num]]'
p327
g40
tp328
F0.002857142857142857
s(S'[[adj]]'
p329
S'mystery'
p330
tp331
F0.00040816326530612246
s(S'produced'
p332
S'directed'
p333
tp334
F0.0012244897959183673
s(S'[[adj]]'
p335
S'horror'
p336
tp337
F0.0020408163265306124
s(S'[[det]]'
p338
S'horror'
p339
tp340
F0.0012244897959183673
s(S'[[num]]'
p341
g93
tp342
F0.0016326530612244899
s(S'film'
p343
S'comedy'
p344
tp345
F0.00040816326530612246
s(g189
S'[[con]]'
p346
tp347
F0.03428571428571429
s(S'documentary'
p348
S'film'
p349
tp350
F0.004897959183673469
s(g266
S'film'
p351
tp352
F0.0236734693877551
s(S'released'
p353
S'is'
p354
tp355
F0.00040816326530612246
s(S'[[num]]'
p356
S'adventure'
p357
tp358
F0.002857142857142857
s(g357
S'film'
p359
tp360
F0.004489795918367347
s(g208
S'was'
p361
tp362
F0.0008163265306122449
s(S'drama'
p363
S'directed'
p364
tp365
F0.0016326530612244899
s(S'[[con]]'
p366
S'directed'
p367
tp368
F0.03387755102040816
s(S'is'
p369
g179
tp370
F0.0008163265306122449
s(S'[[det]]'
p371
S'script'
p372
tp373
F0.00040816326530612246
s(S'[[det]]'
p374
S'color'
p375
tp376
F0.0008163265306122449
s(S'[[num]]'
p377
S'language'
p378
tp379
F0.0016326530612244899
s(S'based'
p380
S'directed'
p381
tp382
F0.00040816326530612246
s(g108
S'directed'
p383
tp384
F0.00040816326530612246
s(S'[[num]]'
p385
S'fantasy'
p386
tp387
F0.0020408163265306124
s(S'action'
p388
S'comedy'
p389
tp390
F0.0020408163265306124
s(S'[[num]]'
p391
S'movie'
p392
tp393
F0.0024489795918367346
s(S'[[num]]'
p394
g348
tp395
F0.003673469387755102
s(S'screenplay'
p396
S'written'
p397
tp398
F0.00040816326530612246
s(S'comedy'
p399
S'family'
p400
tp401
F0.00040816326530612246
s(g378
S'film'
p402
tp403
F0.0024489795918367346
s(S'[[adj]]'
p404
S'directed'
p405
tp406
F0.0012244897959183673
s(S'[[det]]'
p407
S'crime'
p408
tp409
F0.00040816326530612246
s(S'mystery'
p410
S'film'
p411
tp412
F0.002857142857142857
s(S'crime'
p413
S'thriller'
p414
tp415
F0.0016326530612244899
s(S'[[num]]'
p416
g297
tp417
F0.0020408163265306124
s(S'directed'
p418
g16
tp419
F0.0020408163265306124
s(S'[[det]]'
p420
S'written'
p421
tp422
F0.00040816326530612246
s(S'comedy'
p423
g162
tp424
F0.0020408163265306124
s(g47
S'[[num]]'
p425
tp426
F0.00040816326530612246
s(g202
S'directed'
p427
tp428
F0.10489795918367346
s(S'made'
p429
S'directed'
p430
tp431
F0.00040816326530612246
s(g263
S'starred'
p432
tp433
F0.00040816326530612246
s(S'directed'
p434
S'written'
p435
tp436
F0.004489795918367347
s(S'written'
p437
S'produced'
p438
tp439
F0.0008163265306122449
s(g386
S'action'
p440
tp441
F0.00040816326530612246
s(S'drama'
p442
S'[[adj]]'
p443
tp444
F0.0008163265306122449
s(S'film'
p445
S'by'
p446
tp447
F0.0008163265306122449
s(S'[[con]]'
p448
g101
tp449
F0.0008163265306122449
s(S'starring'
p450
S'[[det]]'
p451
tp452
F0.0008163265306122449
s(S'directed'
p453
S'by'
p454
tp455
F0.08204081632653061
s(S'created'
p456
S'[[con]]'
p457
tp458
F0.00040816326530612246
s(g440
S'film'
p459
tp460
F0.00816326530612245
s(g231
S'directed'
p461
tp462
F0.0032653061224489797
s(S'known'
p463
g253
tp464
F0.00040816326530612246
s(g308
S'starring'
p465
tp466
F0.00040816326530612246
s(S'in'
p467
S'[[num]]'
p468
tp469
F0.0008163265306122449
s(g392
S'[[con]]'
p470
tp471
F0.00040816326530612246
s(S'[[det]]'
p472
g110
tp473
F0.0016326530612244899
s(S'film'
p474
S'stars'
p475
tp476
F0.00040816326530612246
s(S'war'
p477
S'film'
p478
tp479
F0.002857142857142857
s(S'[[det]]'
p480
S'mystery'
p481
tp482
F0.00040816326530612246
s(g126
S'film'
p483
tp484
F0.006122448979591836
s(S'film'
p485
g380
tp486
F0.0008163265306122449
s(g123
S'drama'
p487
tp488
F0.003673469387755102
s(g427
g188
tp489
F0.053469387755102044
s(S'[[con]]'
p490
g185
tp491
F0.005714285714285714
s(S'titled'
p492
S'is'
p493
tp494
F0.00040816326530612246
s(S'by'
p495
g474
tp496
F0.0008163265306122449
s(S'film'
p497
g55
tp498
F0.0012244897959183673
s(S'[[adj]]'
p499
S'written'
p500
tp501
F0.0008163265306122449
s(S'film'
p502
g96
tp503
F0.00040816326530612246
s(S'[[adj]]'
p504
S'drama'
p505
tp506
F0.008979591836734694
s(S'[[num]]'
p507
g128
tp508
F0.013877551020408163
s(g17
S'screenplay'
p509
tp510
F0.0008163265306122449
s(g35
S'comedydrama'
p511
tp512
F0.00040816326530612246
s(S'[[adj]]'
p513
S'romance'
p514
tp515
F0.00040816326530612246
s(S'[[det]]'
p516
g343
tp517
F0.006122448979591836
s(S'[[num]]'
p518
g228
tp519
F0.013469387755102041
s(g183
S'starring'
p520
tp521
F0.00040816326530612246
s(S'[[num]]'
p522
g133
tp523
F0.005306122448979592
s(S'[[det]]'
p524
g224
tp525
F0.00040816326530612246
s(S'comedy'
p526
S'written'
p527
tp528
F0.00040816326530612246
s(S'[[adj]]'
p529
S'feature'
p530
tp531
F0.0008163265306122449
s(S'movie'
p532
S'produced'
p533
tp534
F0.00040816326530612246
s(g468
S'starring'
p535
tp536
F0.0008163265306122449
s(S'comedy'
p537
S'drama'
p538
tp539
F0.0012244897959183673
s(S'film'
p540
g291
tp541
F0.0012244897959183673
s(S'starring'
p542
S'as'
p543
tp544
F0.0012244897959183673
s(g305
S'[[num]]'
p545
tp546
F0.00040816326530612246
s(S'[[adj]]'
p547
g245
tp548
F0.0032653061224489797
s(S'[[det]]'
p549
S'language'
p550
tp551
F0.0008163265306122449
s(g344
S'starring'
p552
tp553
F0.0008163265306122449
s(S'film'
p554
g363
tp555
F0.00040816326530612246
s(S'article'
p556
g265
tp557
F0.00040816326530612246
s(S'[[num]]'
p558
S'thriller'
p559
tp560
F0.007346938775510204
s(S'from'
p561
S'written'
p562
tp563
F0.00040816326530612246
s(g140
S'film'
p564
tp565
F0.008571428571428572
s(S'arts'
p566
S'film'
p567
tp568
F0.0012244897959183673
s(S'family'
p569
S'adventure'
p570
tp571
F0.00040816326530612246
s(g402
S'starring'
p572
tp573
F0.03469387755102041
s(S'drama'
p574
S'starring'
p575
tp576
F0.00040816326530612246
s(S'film'
p577
S'is'
p578
tp579
F0.00040816326530612246
s(g148
S'[[adj]]'
p580
tp581
F0.00040816326530612246
s(S'aka'
p582
S'is'
p583
tp584
F0.0012244897959183673
s(g195
S'film'
p585
tp586
F0.0008163265306122449
s(S'[[num]]'
p587
g477
tp588
F0.0020408163265306124
s(S'[[con]]'
p589
g288
tp590
F0.009795918367346938
s(S'[[num]]'
p591
g142
tp592
F0.0020408163265306124
s(S'film'
p593
S'featuring'
p594
tp595
F0.0016326530612244899
s(g322
S'[[con]]'
p596
tp597
F0.0008163265306122449
s(g375
S'film'
p598
tp599
F0.0008163265306122449
s(g594
S'[[con]]'
p600
tp601
F0.00040816326530612246
s(S'drama'
p602
S'thriller'
p603
tp604
F0.00040816326530612246
s(S'[[det]]'
p605
S'starring'
p606
tp607
F0.00040816326530612246
s(S'[[num]]'
p608
S'directed'
p609
tp610
F0.00040816326530612246
s(S'directed'
p611
S'produced'
p612
tp613
F0.0016326530612244899
s(S'[[adj]]'
p614
g566
tp615
F0.0012244897959183673
s(S'[[det]]'
p616
g423
tp617
F0.0024489795918367346
s(S'released'
p618
g467
tp619
F0.00040816326530612246
s(S'mystery'
p620
S'thriller'
p621
tp622
F0.00040816326530612246
s(S'directed'
p623
g13
tp624
F0.00040816326530612246
s(g117
g618
tp625
F0.00040816326530612246
s.