(dp0
(S'[[con]]'
p1
S'return'
p2
tp3
F0.0012315270935960591
s(S'joined'
p4
S'then'
p5
tp6
F0.0024630541871921183
s(S'of'
p7
S'member'
p8
tp9
F0.0012315270935960591
s(S'honored'
p10
S'with'
p11
tp12
F0.003694581280788177
s(S'was'
p13
S'member'
p14
tp15
F0.008620689655172414
s(S'worked'
p16
S'[[con]]'
p17
tp18
F0.007389162561576354
s(S'awarded'
p19
S'at'
p20
tp21
F0.003694581280788177
s(S'when'
p22
S'served'
p23
tp24
F0.0012315270935960591
s(S'joined'
p25
S'now'
p26
tp27
F0.0012315270935960591
s(S'joined'
p28
S'was'
p29
tp30
F0.0012315270935960591
s(S'joined'
p31
S'[[con]]'
p32
tp33
F0.003694581280788177
s(S'worked'
p34
S'[[num]]'
p35
tp36
F0.0012315270935960591
s(S'until'
p37
S'joined'
p38
tp39
F0.0024630541871921183
s(S'[[pro]]'
p40
S'worked'
p41
tp42
F0.0012315270935960591
s(S'worked'
p43
S'out'
p44
tp45
F0.0024630541871921183
s(S'return'
p46
S'[[pro]]'
p47
tp48
F0.0012315270935960591
s(S'who'
p49
S'served'
p50
tp51
F0.0049261083743842365
s(S'did'
p52
S'return'
p53
tp54
F0.0012315270935960591
s(S'introduced'
p55
S'in'
p56
tp57
F0.0012315270935960591
s(S'[[det]]'
p58
S'honored'
p59
tp60
F0.0012315270935960591
s(S'joined'
p61
S'[[pro]]'
p62
tp63
F0.0012315270935960591
s(S'became'
p64
S'member'
p65
tp66
F0.003694581280788177
s(S'of'
p67
S'appointed'
p68
tp69
F0.0012315270935960591
s(S'served'
p70
S'as'
p71
tp72
F0.012315270935960592
s(S'[[det]]'
p73
S'member'
p74
tp75
F0.022167487684729065
s(S's'
p76
S'return'
p77
tp78
F0.003694581280788177
s(S'first'
p79
S'worked'
p80
tp81
F0.0049261083743842365
s(S'then'
p82
S'awarded'
p83
tp84
F0.0012315270935960591
s(S'is'
p85
S'awarded'
p86
tp87
F0.0012315270935960591
s(S'[[det]]'
p88
S'awarded'
p89
tp90
F0.0024630541871921183
s(S'before'
p91
S'joined'
p92
tp93
F0.0012315270935960591
s(S'served'
p94
S'then'
p95
tp96
F0.0012315270935960591
s(S'worked'
p97
S'there'
p98
tp99
F0.0012315270935960591
s(S'joined'
p100
S'who'
p101
tp102
F0.0012315270935960591
s(S'member'
p103
g76
tp104
F0.0012315270935960591
s(S'to'
p105
S'return'
p106
tp107
F0.003694581280788177
s(S'later'
p108
S'joined'
p109
tp110
F0.0049261083743842365
s(S'joined'
p111
S'which'
p112
tp113
F0.0012315270935960591
s(S'known'
p114
S'only'
p115
tp116
F0.0012315270935960591
s(S'worked'
p117
S'on'
p118
tp119
F0.0012315270935960591
s(S'served'
p120
S'first'
p121
tp122
F0.0012315270935960591
s(S'worked'
p123
S'in'
p124
tp125
F0.0024630541871921183
s(S'appointed'
p126
S'where'
p127
tp128
F0.0012315270935960591
s(S'formerly'
p129
S'served'
p130
tp131
F0.0049261083743842365
s(S'first'
p132
S'joined'
p133
tp134
F0.003694581280788177
s(S'later'
p135
g16
tp136
F0.007389162561576354
s(S'served'
p137
S'on'
p138
tp139
F0.011083743842364532
s(S'worked'
p140
S'also'
p141
tp142
F0.0012315270935960591
s(S'later'
p143
S'appointed'
p144
tp145
F0.0024630541871921183
s(S'worked'
p146
S'when'
p147
tp148
F0.0012315270935960591
s(S'person'
p149
S'from'
p150
tp151
F0.0012315270935960591
s(S'[[con]]'
p152
S'served'
p153
tp154
F0.007389162561576354
s(S'member'
p155
S'to'
p156
tp157
F0.0012315270935960591
s(S'joined'
p158
S'when'
p159
tp160
F0.0012315270935960591
s(S'worked'
p161
S'then'
p162
tp163
F0.0012315270935960591
s(S'awarded'
p164
S'[[num]]'
p165
tp166
F0.0024630541871921183
s(S'[[adj]]'
p167
S'award'
p168
tp169
F0.0012315270935960591
s(S'known'
p170
S'throughout'
p171
tp172
F0.0024630541871921183
s(S'[[adj]]'
p173
S'joined'
p174
tp175
F0.0024630541871921183
s(S'joined'
p176
S'[[prp]]'
p177
tp178
F0.0012315270935960591
s(S'worked'
p179
S'was'
p180
tp181
F0.0012315270935960591
s(S'joined'
p182
S'with'
p183
tp184
F0.0012315270935960591
s(S'joined'
p185
g76
tp186
F0.0012315270935960591
s(S'known'
p187
S'in'
p188
tp189
F0.014778325123152709
s(S'also'
p190
S'appointed'
p191
tp192
F0.0024630541871921183
s(S'honored'
p193
S'at'
p194
tp195
F0.0024630541871921183
s(S'joined'
p196
S'later'
p197
tp198
F0.0012315270935960591
s(S'joined'
p199
S'at'
p200
tp201
F0.0049261083743842365
s(S'appointed'
p202
S'for'
p203
tp204
F0.0024630541871921183
s(S'that'
p205
S'worked'
p206
tp207
F0.0012315270935960591
s(S'also'
p208
S'awarded'
p209
tp210
F0.006157635467980296
s(S'then'
p211
S'served'
p212
tp213
F0.009852216748768473
s(S'awarded'
p214
S'[[pro]]'
p215
tp216
F0.0012315270935960591
s(S'member'
p217
S'of'
p218
tp219
F0.012315270935960592
s(S'introduced'
p220
S'into'
p221
tp222
F0.0012315270935960591
s(S'migrated'
p223
S'to'
p224
tp225
F0.0024630541871921183
s(S'is'
p226
S'known'
p227
tp228
F0.003694581280788177
s(S'also'
p229
S'known'
p230
tp231
F0.0024630541871921183
s(S'appointed'
p232
S'to'
p233
tp234
F0.003694581280788177
s(S'also'
p235
S'served'
p236
tp237
F0.01847290640394089
s(S'person'
p238
S'in'
p239
tp240
F0.0024630541871921183
s(S'member'
p241
S'during'
p242
tp243
F0.0012315270935960591
s(S'of'
p244
S'served'
p245
tp246
F0.0012315270935960591
s(S'member'
p247
S'when'
p248
tp249
F0.0012315270935960591
s(S'[[mod]]'
p250
S'return'
p251
tp252
F0.0024630541871921183
s(S'[[con]]'
p253
S'joined'
p254
tp255
F0.007389162561576354
s(S'appointed'
p256
S'in'
p257
tp258
F0.006157635467980296
s(g168
S'from'
p259
tp260
F0.0012315270935960591
s(S'return'
p261
S'in'
p262
tp263
F0.003694581280788177
s(S'migrated'
p264
S'from'
p265
tp266
F0.0012315270935960591
s(g83
S'[[det]]'
p267
tp268
F0.012315270935960592
s(S'return'
p269
S'[[con]]'
p270
tp271
F0.0024630541871921183
s(S'awarded'
p272
S'by'
p273
tp274
F0.011083743842364532
s(S'member'
p275
S'at'
p276
tp277
F0.003694581280788177
s(S'[[det]]'
p278
S'award'
p279
tp280
F0.0012315270935960591
s(S'had'
p281
S'worked'
p282
tp283
F0.006157635467980296
s(S'is'
p284
S'appointed'
p285
tp286
F0.003694581280788177
s(S'known'
p287
S'[[adj]]'
p288
tp289
F0.0012315270935960591
s(S'[[pro]]'
p290
S'return'
p291
tp292
F0.0012315270935960591
s(S'was'
p293
g170
tp294
F0.003694581280788177
s(S'attention'
p295
S'in'
p296
tp297
F0.0012315270935960591
s(S'did'
p298
S'not'
p299
tp300
F0.0012315270935960591
s(S'known'
p301
S'outside'
p302
tp303
F0.0049261083743842365
s(S'appointed'
p304
S'[[num]]'
p305
tp306
F0.0012315270935960591
s(S'worked'
p307
S'for'
p308
tp309
F0.01847290640394089
s(S'joined'
p310
S'from'
p311
tp312
F0.0049261083743842365
s(S'have'
p313
S'worked'
p314
tp315
F0.0012315270935960591
s(S'honored'
p316
S'to'
p317
tp318
F0.0012315270935960591
s(S'appointed'
p319
S'[[det]]'
p320
tp321
F0.0012315270935960591
s(S'well'
p322
g301
tp323
F0.0024630541871921183
s(S'awarded'
p324
S'with'
p325
tp326
F0.0012315270935960591
s(g144
S'on'
p327
tp328
F0.0012315270935960591
s(S'[[pro]]'
p329
S'joined'
p330
tp331
F0.0012315270935960591
s(S'also'
p332
S'joined'
p333
tp334
F0.0012315270935960591
s(S'joined'
p335
S'before'
p336
tp337
F0.0012315270935960591
s(S'member'
p338
S'as'
p339
tp340
F0.0024630541871921183
s(S'served'
p341
S'[[det]]'
p342
tp343
F0.007389162561576354
s(S'introduced'
p344
S'[[adj]]'
p345
tp346
F0.0012315270935960591
s(S'of'
p347
S'joined'
p348
tp349
F0.0012315270935960591
s(S'[[prp]]'
p350
S'return'
p351
tp352
F0.0024630541871921183
s(S'better'
p353
S'known'
p354
tp355
F0.0012315270935960591
s(g130
S'to'
p356
tp357
F0.007389162561576354
s(g282
S'as'
p358
tp359
F0.006157635467980296
s(S'[[prp]]'
p360
g295
tp361
F0.003694581280788177
s(S'had'
p362
S'joined'
p363
tp364
F0.006157635467980296
s(g76
S'known'
p365
tp366
F0.0012315270935960591
s(g74
S'until'
p367
tp368
F0.0012315270935960591
s(S'[[num]]'
p369
S'worked'
p370
tp371
F0.0012315270935960591
s(S'worked'
p372
S'again'
p373
tp374
F0.0012315270935960591
s(S'became'
p375
g114
tp376
F0.0024630541871921183
s(S'member'
p377
S'which'
p378
tp379
F0.0012315270935960591
s(S'[[adj]]'
p380
S'citizenship'
p381
tp382
F0.0012315270935960591
s(S'were'
p383
S'awarded'
p384
tp385
F0.0024630541871921183
s(S'first'
p386
S'served'
p387
tp388
F0.0024630541871921183
s(S'awarded'
p389
S'from'
p390
tp391
F0.006157635467980296
s(S'who'
p392
S'joined'
p393
tp394
F0.003694581280788177
s(S'worked'
p395
S'from'
p396
tp397
F0.0024630541871921183
s(S'[[det]]'
p398
S'served'
p399
tp400
F0.0024630541871921183
s(S'best'
p401
S'known'
p402
tp403
F0.0012315270935960591
s(S'served'
p404
S'with'
p405
tp406
F0.014778325123152709
s(S'while'
p407
S'joined'
p408
tp409
F0.0012315270935960591
s(S'served'
p410
S'later'
p411
tp412
F0.0012315270935960591
s(S'awarded'
p413
S'[[con]]'
p414
tp415
F0.0024630541871921183
s(S'member'
p416
S'from'
p417
tp418
F0.0024630541871921183
s(S'worked'
p419
S'to'
p420
tp421
F0.0024630541871921183
s(S'is'
p422
S'member'
p423
tp424
F0.003694581280788177
s(S'worked'
p425
S'with'
p426
tp427
F0.003694581280788177
s(g299
S'return'
p428
tp429
F0.0024630541871921183
s(S'joined'
p430
S'for'
p431
tp432
F0.0012315270935960591
s(S'as'
p433
S'member'
p434
tp435
F0.0012315270935960591
s(S'joined'
p436
S'[[det]]'
p437
tp438
F0.027093596059113302
s(S'member'
p439
S'[[adj]]'
p440
tp441
F0.0024630541871921183
s(S'been'
p442
g413
tp443
F0.008620689655172414
s(S'mostly'
p444
S'known'
p445
tp446
F0.0012315270935960591
s(S'[[pro]]'
p447
S'served'
p448
tp449
F0.0012315270935960591
s(S'[[adj]]'
p450
S'return'
p451
tp452
F0.0012315270935960591
s(S'be'
p453
g319
tp454
F0.0012315270935960591
s(S'formerly'
p455
S'worked'
p456
tp457
F0.0012315270935960591
s(S'honored'
p458
S'by'
p459
tp460
F0.007389162561576354
s(S'been'
p461
S'introduced'
p462
tp463
F0.0012315270935960591
s(S'member'
p464
S'who'
p465
tp466
F0.0012315270935960591
s(S'was'
p467
S'honored'
p468
tp469
F0.009852216748768473
s(S'had'
p470
g223
tp471
F0.0012315270935960591
s(S'again'
p472
S'served'
p473
tp474
F0.0024630541871921183
s(S'served'
p475
S'from'
p476
tp477
F0.0024630541871921183
s(S'then'
p478
S'joined'
p479
tp480
F0.013546798029556651
s(S'has'
p481
g70
tp482
F0.017241379310344827
s(S'was'
p483
S'awarded'
p484
tp485
F0.01600985221674877
s(S'[[adj]]'
p486
g149
tp487
F0.0024630541871921183
s(S'then'
p488
g307
tp489
F0.006157635467980296
s(S'served'
p490
S'[[adj]]'
p491
tp492
F0.0049261083743842365
s(S'joined'
p493
S'side'
p494
tp495
F0.003694581280788177
s(S'[[det]]'
p496
g167
tp497
F0.0012315270935960591
s(S'return'
p498
S'at'
p499
tp500
F0.0012315270935960591
s(S'served'
p501
S'at'
p502
tp503
F0.011083743842364532
s(S'appointed'
p504
S'from'
p505
tp506
F0.0024630541871921183
s(S'joined'
p507
S'[[num]]'
p508
tp509
F0.0024630541871921183
s(g236
S'of'
p510
tp511
F0.0024630541871921183
s(S'served'
p512
S'until'
p513
tp514
F0.0024630541871921183
s(S'have'
p515
S'served'
p516
tp517
F0.0012315270935960591
s(S'joined'
p518
S'in'
p519
tp520
F0.0012315270935960591
s(S'never'
p521
S'return'
p522
tp523
F0.0012315270935960591
s(S'joined'
p524
S'de'
p525
tp526
F0.0012315270935960591
s(g479
S'on'
p527
tp528
F0.003694581280788177
s(g428
S'to'
p529
tp530
F0.014778325123152709
s(S'worked'
p531
S'until'
p532
tp533
F0.0012315270935960591
s(g351
S'from'
p534
tp535
F0.003694581280788177
s(S'member'
p536
S'[[det]]'
p537
tp538
F0.008620689655172414
s(S'worked'
p539
S'first'
p540
tp541
F0.0012315270935960591
s(S'who'
p542
S'worked'
p543
tp544
F0.003694581280788177
s(S'joined'
p545
S'that'
p546
tp547
F0.0012315270935960591
s(S'also'
p548
S'worked'
p549
tp550
F0.009852216748768473
s(S'[[num]]'
p551
g272
tp552
F0.0012315270935960591
s(S'also'
p553
S'member'
p554
tp555
F0.0024630541871921183
s(S'joined'
p556
S'after'
p557
tp558
F0.0012315270935960591
s(S'already'
p559
S'known'
p560
tp561
F0.0012315270935960591
s(S'[[det]]'
p562
g269
tp563
F0.0024630541871921183
s(S'soon'
p564
S'joined'
p565
tp566
F0.0024630541871921183
s(S'[[adj]]'
p567
S'awarded'
p568
tp569
F0.0012315270935960591
s(S'served'
p570
S'before'
p571
tp572
F0.003694581280788177
s(S'when'
p573
S'joined'
p574
tp575
F0.0024630541871921183
s(g153
S'for'
p576
tp577
F0.011083743842364532
s(S'[[adj]]'
p578
S'worked'
p579
tp580
F0.0012315270935960591
s(S'member'
p581
S'on'
p582
tp583
F0.0024630541871921183
s(S'was'
p584
g504
tp585
F0.003694581280788177
s(S'honored'
p586
S'[[con]]'
p587
tp588
F0.0012315270935960591
s(S'worked'
p589
S'[[adj]]'
p590
tp591
F0.0024630541871921183
s(S'where'
p592
S'joined'
p593
tp594
F0.0024630541871921183
s(S'joined'
p595
S'becoming'
p596
tp597
F0.0012315270935960591
s(S'worked'
p598
S'mainly'
p599
tp600
F0.0012315270935960591
s(S'served'
p601
S'again'
p602
tp603
F0.0012315270935960591
s(S'served'
p604
S'becoming'
p605
tp606
F0.0012315270935960591
s(g80
S'at'
p607
tp608
F0.013546798029556651
s(S'honored'
p609
S'as'
p610
tp611
F0.003694581280788177
s(S'had'
p612
S'served'
p613
tp614
F0.007389162561576354
s(S'be'
p615
S'honored'
p616
tp617
F0.0012315270935960591
s(S'had'
p618
S'known'
p619
tp620
F0.0012315270935960591
s(S'attention'
p621
S'to'
p622
tp623
F0.0012315270935960591
s(S'appointed'
p624
S'[[pro]]'
p625
tp626
F0.0012315270935960591
s(S'[[con]]'
p627
g372
tp628
F0.006157635467980296
s(S'with'
p629
S'joined'
p630
tp631
F0.0024630541871921183
s(S'then'
p632
g256
tp633
F0.006157635467980296
s(S'[[num]]'
p634
S'served'
p635
tp636
F0.0049261083743842365
s(S'served'
p637
S'where'
p638
tp639
F0.0012315270935960591
s(S'awarded'
p640
S'to'
p641
tp642
F0.0012315270935960591
s(g76
g425
tp643
F0.003694581280788177
s(S'member'
p644
S'[[num]]'
p645
tp646
F0.0049261083743842365
s(S'awarded'
p647
S'[[prp]]'
p648
tp649
F0.0012315270935960591
s(S'[[con]]'
p650
S'member'
p651
tp652
F0.003694581280788177
s(S'has'
p653
g419
tp654
F0.007389162561576354
s(S'been'
p655
S'honored'
p656
tp657
F0.006157635467980296
s(g549
S'[[det]]'
p658
tp659
F0.003694581280788177
s(S'member'
p660
S'[[con]]'
p661
tp662
F0.007389162561576354
s(S'be'
p663
S'awarded'
p664
tp665
F0.003694581280788177
s(S'been'
p666
g187
tp667
F0.0012315270935960591
s(g468
S'in'
p668
tp669
F0.0024630541871921183
s(S'served'
p670
S'now'
p671
tp672
F0.0012315270935960591
s(S'was'
p673
g199
tp674
F0.0049261083743842365
s(S'later'
p675
S'awarded'
p676
tp677
F0.0012315270935960591
s(S'where'
p678
S'served'
p679
tp680
F0.0024630541871921183
s(S'joined'
p681
S'[[adj]]'
p682
tp683
F0.003694581280788177
s(S'served'
p684
S'[[con]]'
p685
tp686
F0.006157635467980296
s(S'member'
p687
S'for'
p688
tp689
F0.0049261083743842365
s(S'served'
p690
S'there'
p691
tp692
F0.0012315270935960591
s(S'is'
p693
g458
tp694
F0.0012315270935960591
s(S'member'
p695
S'has'
p696
tp697
F0.0012315270935960591
s(S'[[adj]]'
p698
g501
tp699
F0.0049261083743842365
s(S'again'
p700
g436
tp701
F0.0024630541871921183
s(S'awarded'
p702
S'of'
p703
tp704
F0.0012315270935960591
s(S'has'
p705
S'joined'
p706
tp707
F0.0024630541871921183
s(S'being'
p708
S'awarded'
p709
tp710
F0.0012315270935960591
s(S'joined'
p711
S'to'
p712
tp713
F0.0024630541871921183
s(S'worked'
p714
S'[[prp]]'
p715
tp716
F0.0012315270935960591
s(g656
S'[[det]]'
p717
tp718
F0.0024630541871921183
s(S'twice'
p719
S'served'
p720
tp721
F0.0024630541871921183
s(S'awarded'
p722
S'[[adj]]'
p723
tp724
F0.0024630541871921183
s(S'worked'
p725
S'mostly'
p726
tp727
F0.0012315270935960591
s(S'worked'
p728
S'before'
p729
tp730
F0.0024630541871921183
s(S'[[num]]'
p731
S'joined'
p732
tp733
F0.0012315270935960591
s(S'[[num]]'
p734
S'member'
p735
tp736
F0.0012315270935960591
s(g462
S'[[con]]'
p737
tp738
F0.0012315270935960591
s(S'as'
p739
S'joined'
p740
tp741
F0.0012315270935960591
s(S'served'
p742
S'[[num]]'
p743
tp744
F0.0024630541871921183
s(S'have'
p745
S'joined'
p746
tp747
F0.0012315270935960591
s(S'again'
p748
S'worked'
p749
tp750
F0.0012315270935960591
s(g285
S'of'
p751
tp752
F0.0024630541871921183
s(S'holds'
p753
g380
tp754
F0.0012315270935960591
s(g14
S'in'
p755
tp756
F0.003694581280788177
s(S'since'
p757
S'worked'
p758
tp759
F0.0024630541871921183
s(S'turned'
p760
g360
tp761
F0.003694581280788177
s(S'instead'
p762
S'joined'
p763
tp764
F0.0024630541871921183
s(S'[[adj]]'
p765
g660
tp766
F0.014778325123152709
s(S'also'
p767
S'honored'
p768
tp769
F0.006157635467980296
s(g254
S'of'
p770
tp771
F0.0049261083743842365
s(S'later'
p772
g684
tp773
F0.009852216748768473
s(S'was'
p774
S'served'
p775
tp776
F0.0012315270935960591
s(S'served'
p777
S'in'
p778
tp779
F0.019704433497536946
s.