(dp0
(S'airport'
p1
S'in'
p2
tp3
F0.012903225806451613
s(S'[[det]]'
p4
g1
tp5
F0.002150537634408602
s(S'school'
p6
S'situated'
p7
tp8
F0.002150537634408602
s(S'broadcasts'
p9
S'to'
p10
tp11
F0.004301075268817204
s(S'runs'
p12
S'through'
p13
tp14
F0.004301075268817204
s(S'is'
p15
S'licensed'
p16
tp17
F0.004301075268817204
s(S'[[adj]]'
p18
S'football'
p19
tp20
F0.002150537634408602
s(S'[[con]]'
p21
S'runs'
p22
tp23
F0.0064516129032258064
s(S'broadcasts'
p24
S'[[det]]'
p25
tp26
F0.004301075268817204
s(S'[[det]]'
p27
S'cities'
p28
tp29
F0.002150537634408602
s(S'[[adj]]'
p30
S'road'
p31
tp32
F0.002150537634408602
s(S'[[adj]]'
p33
S'mountain'
p34
tp35
F0.0064516129032258064
s(S'[[det]]'
p36
S'neighborhood'
p37
tp38
F0.004301075268817204
s(S'were'
p39
S'founded'
p40
tp41
F0.002150537634408602
s(S'founded'
p42
S'is'
p43
tp44
F0.002150537634408602
s(S'[[det]]'
p45
S'school'
p46
tp47
F0.004301075268817204
s(S'at'
p48
g36
tp49
F0.002150537634408602
s(S'has'
p50
S'campuses'
p51
tp52
F0.0064516129032258064
s(S'now'
p53
S'located'
p54
tp55
F0.004301075268817204
s(S'runs'
p56
S'to'
p57
tp58
F0.002150537634408602
s(S'university'
p59
S'in'
p60
tp61
F0.008602150537634409
s(S'based'
p62
S'out'
p63
tp64
F0.004301075268817204
s(g28
S'of'
p65
tp66
F0.002150537634408602
s(S'were'
p67
S'based'
p68
tp69
F0.002150537634408602
s(S'rises'
p70
S'[[con]]'
p71
tp72
F0.002150537634408602
s(S'been'
p73
S'located'
p74
tp75
F0.002150537634408602
s(S'located'
p76
S'just'
p77
tp78
F0.002150537634408602
s(S'university'
p79
S'located'
p80
tp81
F0.008602150537634409
s(S'[[adj]]'
p82
S'connections'
p83
tp84
F0.002150537634408602
s(S'station'
p85
S'off'
p86
tp87
F0.002150537634408602
s(S'situated'
p88
S'[[det]]'
p89
tp90
F0.002150537634408602
s(S'founded'
p91
S'in'
p92
tp93
F0.008602150537634409
s(S'runs'
p94
S'away'
p95
tp96
F0.002150537634408602
s(S'runs'
p97
S'[[con]]'
p98
tp99
F0.004301075268817204
s(S'historically'
p100
S'[[adj]]'
p101
tp102
F0.002150537634408602
s(S's'
p103
S'campus'
p104
tp105
F0.002150537634408602
s(S'which'
p106
S'runs'
p107
tp108
F0.002150537634408602
s(S'to'
p109
S'serve'
p110
tp111
F0.004301075268817204
s(S'located'
p112
S'in'
p113
tp114
F0.04946236559139785
s(S'relocated'
p115
S'from'
p116
tp117
F0.004301075268817204
s(S'is'
p118
g88
tp119
F0.002150537634408602
s(S'was'
p120
S'relocated'
p121
tp122
F0.002150537634408602
s(S'launched'
p123
S'[[num]]'
p124
tp125
F0.004301075268817204
s(S'were'
p126
S'relocated'
p127
tp128
F0.004301075268817204
s(S'currently'
p129
S'located'
p130
tp131
F0.002150537634408602
s(S'[[adj]]'
p132
S'gospel'
p133
tp134
F0.002150537634408602
s(S'located'
p135
S'[[det]]'
p136
tp137
F0.004301075268817204
s(S'established'
p138
S'in'
p139
tp140
F0.0064516129032258064
s(S'[[det]]'
p141
S'largest'
p142
tp143
F0.004301075268817204
s(S'runs'
p144
S'as'
p145
tp146
F0.002150537634408602
s(S'[[det]]'
p147
S'runs'
p148
tp149
F0.002150537634408602
s(S'forecast'
p150
S'office'
p151
tp152
F0.004301075268817204
s(S'founded'
p153
S'[[det]]'
p154
tp155
F0.002150537634408602
s(S'are'
p156
S'based'
p157
tp158
F0.002150537634408602
s(S'programmed'
p159
S'from'
p160
tp161
F0.004301075268817204
s(S'is'
p162
S'established'
p163
tp164
F0.002150537634408602
s(S'railway'
p165
S'station'
p166
tp167
F0.004301075268817204
s(S'[[det]]'
p168
S'district'
p169
tp170
F0.004301075268817204
s(S'founded'
p171
S'[[num]]'
p172
tp173
F0.002150537634408602
s(S'has'
p174
S'established'
p175
tp176
F0.002150537634408602
s(S'operate'
p177
g82
tp178
F0.002150537634408602
s(S'serves'
p179
S'[[det]]'
p180
tp181
F0.004301075268817204
s(g60
S'[[det]]'
p182
tp183
F0.0064516129032258064
s(S'based'
p184
S'near'
p185
tp186
F0.002150537634408602
s(S'runs'
p187
S'[[num]]'
p188
tp189
F0.002150537634408602
s(g103
S'based'
p190
tp191
F0.002150537634408602
s(S'in'
p192
S'school'
p193
tp194
F0.002150537634408602
s(S'thoroughfare'
p195
S'connecting'
p196
tp197
F0.002150537634408602
s(S'airports'
p198
S'in'
p199
tp200
F0.004301075268817204
s(S'[[adj]]'
p201
S'freeway'
p202
tp203
F0.002150537634408602
s(S'[[adj]]'
p204
S'busiest'
p205
tp206
F0.002150537634408602
s(S'[[det]]'
p207
g165
tp208
F0.004301075268817204
s(g7
S'on'
p209
tp210
F0.002150537634408602
s(S'flows'
p211
S'through'
p212
tp213
F0.004301075268817204
s(S'[[det]]'
p214
S'acronym'
p215
tp216
F0.002150537634408602
s(S'[[det]]'
p217
S'engineering'
p218
tp219
F0.002150537634408602
s(S'runs'
p220
S'by'
p221
tp222
F0.002150537634408602
s(S'was'
p223
S'located'
p224
tp225
F0.0064516129032258064
s(g16
S'in'
p226
tp227
F0.004301075268817204
s(S'[[det]]'
p228
S'campus'
p229
tp230
F0.002150537634408602
s(S'[[det]]'
p231
S'freeway'
p232
tp233
F0.002150537634408602
s(S'then'
p234
S'flows'
p235
tp236
F0.002150537634408602
s(S'is'
p237
g159
tp238
F0.004301075268817204
s(g205
S'airport'
p239
tp240
F0.0064516129032258064
s(S'also'
p241
S'runs'
p242
tp243
F0.002150537634408602
s(g19
S'team'
p244
tp245
F0.004301075268817204
s(S'[[det]]'
p246
g150
tp247
F0.004301075268817204
s(S'[[det]]'
p248
S'radio'
p249
tp250
F0.0064516129032258064
s(S'is'
p251
S'launched'
p252
tp253
F0.002150537634408602
s(S'broadcasts'
p254
S'on'
p255
tp256
F0.002150537634408602
s(S'state'
p257
S'of'
p258
tp259
F0.004301075268817204
s(S'[[adj]]'
p260
g198
tp261
F0.002150537634408602
s(S'community'
p262
S'of'
p263
tp264
F0.002150537634408602
s(S'also'
p265
S'located'
p266
tp267
F0.004301075268817204
s(S'located'
p268
S'outside'
p269
tp270
F0.002150537634408602
s(g31
S'linking'
p271
tp272
F0.002150537634408602
s(g175
S'[[det]]'
p273
tp274
F0.002150537634408602
s(S'[[det]]'
p275
S'[[num]]'
p276
tp277
F0.002150537634408602
s(S'[[det]]'
p278
g100
tp279
F0.002150537634408602
s(S'relocated'
p280
S'in'
p281
tp282
F0.002150537634408602
s(S'campus'
p283
S'at'
p284
tp285
F0.002150537634408602
s(S'[[adj]]'
p286
S'campuses'
p287
tp288
F0.002150537634408602
s(S'[[adj]]'
p289
S'airport'
p290
tp291
F0.004301075268817204
s(S'located'
p292
S'on'
p293
tp294
F0.0064516129032258064
s(g151
S'in'
p295
tp296
F0.004301075268817204
s(S'school'
p297
S'on'
p298
tp299
F0.002150537634408602
s(S'university'
p300
S'[[det]]'
p301
tp302
F0.002150537634408602
s(S'be'
p303
S'launched'
p304
tp305
F0.002150537634408602
s(S'be'
p306
S'established'
p307
tp308
F0.002150537634408602
s(S'[[adj]]'
p309
S'centres'
p310
tp311
F0.002150537634408602
s(S'[[det]]'
p312
S'bone'
p313
tp314
F0.002150537634408602
s(S'was'
p315
S'licensed'
p316
tp317
F0.002150537634408602
s(S'is'
p318
g184
tp319
F0.0064516129032258064
s(S'with'
p320
S'[[num]]'
p321
tp322
F0.002150537634408602
s(S'passes'
p323
S'in'
p324
tp325
F0.002150537634408602
s(S'links'
p326
g27
tp327
F0.002150537634408602
s(g71
S'flows'
p328
tp329
F0.002150537634408602
s(S'university'
p330
g320
tp331
F0.004301075268817204
s(S'mountain'
p332
S'range'
p333
tp334
F0.012903225806451613
s(S'established'
p335
S'on'
p336
tp337
F0.002150537634408602
s(S'had'
p338
g115
tp339
F0.002150537634408602
s(S'radio'
p340
S'station'
p341
tp342
F0.008602150537634409
s(S'located'
p343
S'between'
p344
tp345
F0.002150537634408602
s(S'[[det]]'
p346
g332
tp347
F0.0064516129032258064
s(S'formerly'
p348
S'located'
p349
tp350
F0.002150537634408602
s(S'[[num]]'
p351
S'runs'
p352
tp353
F0.0064516129032258064
s(S'centres'
p354
S'in'
p355
tp356
F0.002150537634408602
s(S'then'
p357
S'runs'
p358
tp359
F0.002150537634408602
s(S'runs'
p360
S'over'
p361
tp362
F0.002150537634408602
s(S'had'
p363
S'established'
p364
tp365
F0.002150537634408602
s(S'[[con]]'
p366
S'located'
p367
tp368
F0.002150537634408602
s(g242
S'on'
p369
tp370
F0.004301075268817204
s(S'station'
p371
S'that'
p372
tp373
F0.002150537634408602
s(g304
S'in'
p374
tp375
F0.0064516129032258064
s(g169
S'of'
p376
tp377
F0.004301075268817204
s(S'founded'
p378
S'on'
p379
tp380
F0.002150537634408602
s(g271
S'[[con]]'
p381
tp382
F0.002150537634408602
s(g160
g246
tp383
F0.004301075268817204
s(S'founded'
p384
S'at'
p385
tp386
F0.002150537634408602
s(S'serves'
p387
S'[[adj]]'
p388
tp389
F0.002150537634408602
s(S'runs'
p390
S'from'
p391
tp392
F0.004301075268817204
s(S'station'
p393
S'in'
p394
tp395
F0.015053763440860216
s(g180
S'area'
p396
tp397
F0.004301075268817204
s(g110
S'[[det]]'
p398
tp399
F0.002150537634408602
s(S'serves'
p400
S'in'
p401
tp402
F0.002150537634408602
s(S'also'
p403
S'based'
p404
tp405
F0.002150537634408602
s(S'runs'
p406
S'with'
p407
tp408
F0.002150537634408602
s(S'[[adj]]'
p409
S'established'
p410
tp411
F0.002150537634408602
s(S'flows'
p412
S'to'
p413
tp414
F0.002150537634408602
s(S'was'
p415
g123
tp416
F0.004301075268817204
s(S'[[adj]]'
p417
S'college'
p418
tp419
F0.002150537634408602
s(S'located'
p420
S'[[adj]]'
p421
tp422
F0.002150537634408602
s(S'then'
p423
S'passes'
p424
tp425
F0.004301075268817204
s(g352
S'between'
p426
tp427
F0.0064516129032258064
s(S'station'
p428
S'licensed'
p429
tp430
F0.004301075268817204
s(S'of'
p431
S'founded'
p432
tp433
F0.002150537634408602
s(g25
g132
tp434
F0.004301075268817204
s(S'[[num]]'
p435
S'licensed'
p436
tp437
F0.002150537634408602
s(g218
S'college'
p438
tp439
F0.002150537634408602
s(S'passes'
p440
S'through'
p441
tp442
F0.004301075268817204
s(S'runs'
p443
S'along'
p444
tp445
F0.002150537634408602
s(g244
S'based'
p446
tp447
F0.004301075268817204
s(g182
g257
tp448
F0.004301075268817204
s(S'[[num]]'
p449
g112
tp450
F0.002150537634408602
s(S'station'
p451
S'[[det]]'
p452
tp453
F0.0064516129032258064
s(S'[[det]]'
p454
S'football'
p455
tp456
F0.002150537634408602
s(S'school'
p457
S'near'
p458
tp459
F0.002150537634408602
s(S'station'
p460
S'to'
p461
tp462
F0.002150537634408602
s(S'runs'
p463
S'where'
p464
tp465
F0.002150537634408602
s(g103
S'located'
p466
tp467
F0.002150537634408602
s(S'in'
p468
S'college'
p469
tp470
F0.002150537634408602
s(S'busiest'
p471
S'in'
p472
tp473
F0.002150537634408602
s(g133
S'format'
p474
tp475
F0.002150537634408602
s(g372
S'is'
p476
tp477
F0.002150537634408602
s(S'[[det]]'
p478
g451
tp479
F0.015053763440860216
s(S'station'
p480
S'near'
p481
tp482
F0.002150537634408602
s(S'[[num]]'
p483
S'airports'
p484
tp485
F0.002150537634408602
s(S'school'
p486
S'[[det]]'
p487
tp488
F0.002150537634408602
s(S'as'
p489
S'runs'
p490
tp491
F0.002150537634408602
s(S'located'
p492
S'is'
p493
tp494
F0.002150537634408602
s(g215
S'derived'
p495
tp496
F0.002150537634408602
s(S'are'
p497
S'situated'
p498
tp499
F0.002150537634408602
s(S'be'
p500
S'based'
p501
tp502
F0.002150537634408602
s(S'runs'
p503
S'[[adj]]'
p504
tp505
F0.0064516129032258064
s(S'situated'
p506
S'in'
p507
tp508
F0.004301075268817204
s(S'largest'
p509
S'[[adj]]'
p510
tp511
F0.002150537634408602
s(S'[[adj]]'
p512
S'based'
p513
tp514
F0.004301075268817204
s(S'[[mod]]'
p515
g177
tp516
F0.002150537634408602
s(S'with'
p517
S'campuses'
p518
tp519
F0.004301075268817204
s(S'established'
p520
S'[[num]]'
p521
tp522
F0.002150537634408602
s(S'[[adj]]'
p523
S'school'
p524
tp525
F0.01935483870967742
s(S'[[adj]]'
p526
S'university'
p527
tp528
F0.012903225806451613
s(S'broadcasts'
p529
S'in'
p530
tp531
F0.002150537634408602
s(S'runs'
p532
S'across'
p533
tp534
F0.002150537634408602
s(S'been'
p535
S'founded'
p536
tp537
F0.002150537634408602
s(S'largest'
p538
S'university'
p539
tp540
F0.004301075268817204
s(S'located'
p541
S'[[num]]'
p542
tp543
F0.002150537634408602
s(S'station'
p544
S'from'
p545
tp546
F0.002150537634408602
s(S'located'
p547
S'at'
p548
tp549
F0.008602150537634409
s(S'[[det]]'
p550
S'university'
p551
tp552
F0.004301075268817204
s(S'campus'
p553
S'in'
p554
tp555
F0.010752688172043012
s(g474
S'to'
p556
tp557
F0.002150537634408602
s(S'to'
p558
S'[[det]]'
p559
tp560
F0.002150537634408602
s(S'campuses'
p561
S'[[con]]'
p562
tp563
F0.0064516129032258064
s(S'[[adj]]'
p564
g538
tp565
F0.002150537634408602
s(S'also'
p566
g254
tp567
F0.0064516129032258064
s(S'established'
p568
S'at'
p569
tp570
F0.004301075268817204
s(g495
S'[[det]]'
p571
tp572
F0.002150537634408602
s(S'[[det]]'
p573
S'located'
p574
tp575
F0.004301075268817204
s(S'launched'
p576
S'at'
p577
tp578
F0.002150537634408602
s(S'is'
p579
S'located'
p580
tp581
F0.012903225806451613
s(S'[[adj]]'
p582
g340
tp583
F0.002150537634408602
s(S'sometimes'
p584
S'referred'
p585
tp586
F0.002150537634408602
s(S'[[adj]]'
p587
S'station'
p588
tp589
F0.004301075268817204
s(S'be'
p590
S'located'
p591
tp592
F0.002150537634408602
s(S'[[prp]]'
p593
S'campus'
p594
tp595
F0.002150537634408602
s(S'relocated'
p596
S'to'
p597
tp598
F0.004301075268817204
s(g276
S'cities'
p599
tp600
F0.002150537634408602
s(S'was'
p601
S'based'
p602
tp603
F0.002150537634408602
s(S'licensed'
p604
S'to'
p605
tp606
F0.012903225806451613
s(S'[[num]]'
p607
S'campuses'
p608
tp609
F0.008602150537634409
s(g37
S'of'
p610
tp611
F0.004301075268817204
s(S'in'
p612
S'located'
p613
tp614
F0.002150537634408602
s(S'[[det]]'
p615
S'busiest'
p616
tp617
F0.002150537634408602
s(S'runs'
p618
S'at'
p619
tp620
F0.002150537634408602
s(S'broadcasts'
p621
S'from'
p622
tp623
F0.002150537634408602
s(S'research'
p624
g79
tp625
F0.002150537634408602
s(g585
g558
tp626
F0.002150537634408602
s(S'[[adj]]'
p627
g195
tp628
F0.002150537634408602
s(S'was'
p629
g520
tp630
F0.008602150537634409
s(S'range'
p631
S'[[det]]'
p632
tp633
F0.004301075268817204
s(S'[[adj]]'
p634
g283
tp635
F0.004301075268817204
s(g518
S'in'
p636
tp637
F0.015053763440860216
s(g524
S'located'
p638
tp639
F0.017204301075268817
s(S'area'
p640
S'of'
p641
tp642
F0.002150537634408602
s(S'located'
p643
S'near'
p644
tp645
F0.004301075268817204
s(g438
S'in'
p646
tp647
F0.004301075268817204
s(S'located'
p648
S'of'
p649
tp650
F0.004301075268817204
s(S'[[adj]]'
p651
g624
tp652
F0.002150537634408602
s(S'was'
p653
g171
tp654
F0.008602150537634409
s(S'is'
p655
g384
tp656
F0.004301075268817204
s(g446
S'in'
p657
tp658
F0.023655913978494623
s(S'[[adj]]'
p659
g547
tp660
F0.0064516129032258064
s(g196
g275
tp661
F0.002150537634408602
s(S'as'
p662
S'station'
p663
tp664
F0.002150537634408602
s(g398
g262
tp665
F0.002150537634408602
s(S'range'
p666
S'in'
p667
tp668
F0.004301075268817204
s(S'[[num]]'
p669
S'station'
p670
tp671
F0.002150537634408602
s.