(dp0
(S'[[con]]'
p1
S'led'
p2
tp3
F0.017241379310344827
s(S'occurred'
p4
S'when'
p5
tp6
F0.017241379310344827
s(S'[[pro]]'
p7
S'fought'
p8
tp9
F0.017241379310344827
s(S'fought'
p10
S'by'
p11
tp12
F0.017241379310344827
s(S'in'
p13
S'[[det]]'
p14
tp15
F0.05172413793103448
s(S'force'
p16
S'under'
p17
tp18
F0.017241379310344827
s(S'fought'
p19
S'during'
p20
tp21
F0.017241379310344827
s(S'battle'
p22
S'between'
p23
tp24
F0.017241379310344827
s(S'fought'
p25
g13
tp26
F0.05172413793103448
s(S'[[det]]'
p27
S'army'
p28
tp29
F0.017241379310344827
s(S'battle'
p30
S'fought'
p31
tp32
F0.017241379310344827
s(S'[[det]]'
p33
g16
tp34
F0.017241379310344827
s(S'on'
p35
S'[[det]]'
p36
tp37
F0.017241379310344827
s(S'fought'
p38
g35
tp39
F0.017241379310344827
s(S'[[con]]'
p40
S'resulted'
p41
tp42
F0.017241379310344827
s(g36
S'forces'
p43
tp44
F0.05172413793103448
s(g28
S'led'
p45
tp46
F0.017241379310344827
s(S'battle'
p47
S'against'
p48
tp49
F0.017241379310344827
s(g43
S'of'
p50
tp51
F0.05172413793103448
s(S'fought'
p52
S'between'
p53
tp54
F0.05172413793103448
s(S'fought'
p55
g1
tp56
F0.034482758620689655
s(S'was'
p57
S'fought'
p58
tp59
F0.1896551724137931
s(S'waited'
p60
S'for'
p61
tp62
F0.017241379310344827
s(g2
S'by'
p63
tp64
F0.05172413793103448
s(S'undertaken'
p65
S'by'
p66
tp67
F0.017241379310344827
s(S'[[det]]'
p68
S'led'
p69
tp70
F0.017241379310344827
s(S'between'
p71
S'[[det]]'
p72
tp73
F0.017241379310344827
s(S'is'
p74
S'fought'
p75
tp76
F0.034482758620689655
s(g58
S'under'
p77
tp78
F0.034482758620689655
s(g20
g33
tp79
F0.017241379310344827
s(S'[[det]]'
p80
g30
tp81
F0.05172413793103448
s.