(dp0
(S'assigned'
p1
S'to'
p2
tp3
F0.125
s(S'[[con]]'
p4
S'assigned'
p5
tp6
F0.05
s(S'unit'
p7
S'[[con]]'
p8
tp9
F0.025
s(S'assigned'
p10
S'[[pro]]'
p11
tp12
F0.025
s(S'unit'
p13
S'[[det]]'
p14
tp15
F0.025
s(S'were'
p16
S'assigned'
p17
tp18
F0.025
s(S'inactivated'
p19
S'[[con]]'
p20
tp21
F0.025
s(S'unit'
p22
S'in'
p23
tp24
F0.05
s(S'was'
p25
S'inactivated'
p26
tp27
F0.05
s(S'[[adj]]'
p28
S'assigned'
p29
tp30
F0.025
s(S'was'
p31
S'activated'
p32
tp33
F0.025
s(S'[[det]]'
p34
S'unit'
p35
tp36
F0.1
s(S'unit'
p37
S'of'
p38
tp39
F0.075
s(S'assigned'
p40
S'with'
p41
tp42
F0.025
s(S'[[con]]'
p43
S'activated'
p44
tp45
F0.025
s(S'activated'
p46
S'[[det]]'
p47
tp48
F0.025
s(S'was'
p49
S'reactivated'
p50
tp51
F0.025
s(S'[[det]]'
p52
S'assigned'
p53
tp54
F0.025
s(S'is'
p55
S'assigned'
p56
tp57
F0.025
s(S'then'
p58
g40
tp59
F0.05
s(S'assigned'
p60
S'by'
p61
tp62
F0.025
s(S'assigned'
p63
S'[[det]]'
p64
tp65
F0.05
s(S'[[adj]]'
p66
g22
tp67
F0.1
s.