(dp0
(S'television'
p1
S'drama'
p2
tp3
F0.02564102564102564
s(S'also'
p4
S'airs'
p5
tp6
F0.01282051282051282
s(S'[[con]]'
p7
S'produced'
p8
tp9
F0.01282051282051282
s(S'television'
p10
S'series'
p11
tp12
F0.07692307692307693
s(S's'
p13
S'television'
p14
tp15
F0.01282051282051282
s(S'produced'
p16
S'[[con]]'
p17
tp18
F0.01282051282051282
s(S'[[adj]]'
p19
S'series'
p20
tp21
F0.01282051282051282
s(S'series'
p22
S'created'
p23
tp24
F0.01282051282051282
s(S'[[det]]'
p25
S'children'
p26
tp27
F0.01282051282051282
s(S'[[num]]'
p28
S'television'
p29
tp30
F0.01282051282051282
s(S'coproduced'
p31
S'by'
p32
tp33
F0.01282051282051282
s(S'[[det]]'
p34
g10
tp35
F0.02564102564102564
s(S'collaboration'
p36
S'between'
p37
tp38
F0.01282051282051282
s(S'also'
p39
S'produced'
p40
tp41
F0.02564102564102564
s(S'airs'
p42
S'on'
p43
tp44
F0.02564102564102564
s(S'[[num]]'
p45
S'produced'
p46
tp47
F0.01282051282051282
s(g26
g13
tp48
F0.01282051282051282
s(S'[[det]]'
p49
S'drama'
p50
tp51
F0.02564102564102564
s(S'[[det]]'
p52
S'coproduction'
p53
tp54
F0.01282051282051282
s(S'[[det]]'
p55
S'series'
p56
tp57
F0.01282051282051282
s(g50
S'television'
p58
tp59
F0.01282051282051282
s(S'produced'
p60
S'in'
p61
tp62
F0.01282051282051282
s(S'produced'
p63
S'with'
p64
tp65
F0.01282051282051282
s(g56
S'produced'
p66
tp67
F0.1282051282051282
s(g23
g7
tp68
F0.01282051282051282
s(S'produced'
p69
S'for'
p70
tp71
F0.02564102564102564
s(S'drama'
p72
S'produced'
p73
tp74
F0.01282051282051282
s(S'[[det]]'
p75
S'produced'
p76
tp77
F0.02564102564102564
s(g2
S'series'
p78
tp79
F0.02564102564102564
s(S'is'
p80
g63
tp81
F0.02564102564102564
s(S'then'
p82
S'produced'
p83
tp84
F0.01282051282051282
s(S'was'
p85
g69
tp86
F0.02564102564102564
s(g66
S'by'
p87
tp88
F0.21794871794871795
s(S'[[adj]]'
p89
g1
tp90
F0.038461538461538464
s(S'[[adj]]'
p91
g36
tp92
F0.01282051282051282
s(S'be'
p93
S'produced'
p94
tp95
F0.01282051282051282
s.