(dp0
(S'written'
p1
S'[[con]]'
p2
tp3
F0.02
s(S'[[det]]'
p4
S'written'
p5
tp6
F0.01
s(S'is'
p7
S'created'
p8
tp9
F0.01
s(S'written'
p10
S'as'
p11
tp12
F0.01
s(S'song'
p13
S'that'
p14
tp15
F0.02
s(S'[[adj]]'
p16
S'created'
p17
tp18
F0.01
s(S'song'
p19
S'from'
p20
tp21
F0.01
s(g14
S'was'
p22
tp23
F0.01
s(S'written'
p24
S'for'
p25
tp26
F0.03
s(S'song'
p27
S'written'
p28
tp29
F0.08
s(S'was'
p30
S'composed'
p31
tp32
F0.01
s(S'[[num]]'
p33
S'written'
p34
tp35
F0.01
s(S'song'
p36
S'by'
p37
tp38
F0.04
s(S'song'
p39
S'[[mod]]'
p40
tp41
F0.01
s(S'song'
p42
S'on'
p43
tp44
F0.01
s(S'song'
p45
S's'
p46
tp47
F0.01
s(S'were'
p48
S'created'
p49
tp50
F0.01
s(S'written'
p51
S'with'
p52
tp53
F0.01
s(S'song'
p54
S'with'
p55
tp56
F0.01
s(S'is'
p57
S'composed'
p58
tp59
F0.01
s(S'[[det]]'
p60
g13
tp61
F0.12
s(S'created'
p62
S'by'
p63
tp64
F0.05
s(S'folk'
p65
S'song'
p66
tp67
F0.01
s(S'song'
p68
S'[[con]]'
p69
tp70
F0.02
s(g40
S'written'
p71
tp72
F0.01
s(S'written'
p73
S'in'
p74
tp75
F0.01
s(g22
S'written'
p76
tp77
F0.1
s(S'[[det]]'
p78
g65
tp79
F0.01
s(S'written'
p80
S'about'
p81
tp82
F0.01
s(S'is'
p83
S'written'
p84
tp85
F0.01
s(g76
S'by'
p86
tp87
F0.12
s(S'song'
p88
S'[[det]]'
p89
tp90
F0.01
s(S'was'
p91
g62
tp92
F0.02
s(S'written'
p93
S'after'
p94
tp95
F0.01
s(S'[[num]]'
p96
S'song'
p97
tp98
F0.02
s(S'[[adj]]'
p99
S'composed'
p100
tp101
F0.01
s(S'been'
p102
S'written'
p103
tp104
F0.01
s(S'[[adj]]'
p105
g27
tp106
F0.06
s(S'created'
p107
S'with'
p108
tp109
F0.01
s(g31
S'by'
p110
tp111
F0.04
s.