(dp0
(S'[[adj]]'
p1
S'adventure'
p2
tp3
F0.0033112582781456954
s(S'gt'
p4
S'[[con]]'
p5
tp6
F0.0033112582781456954
s(S'released'
p7
S'later'
p8
tp9
F0.0033112582781456954
s(S'for'
p10
S'[[adj]]'
p11
tp12
F0.006622516556291391
s(S'game'
p13
S'[[con]]'
p14
tp15
F0.006622516556291391
s(S'later'
p16
S'ported'
p17
tp18
F0.016556291390728478
s(S'[[con]]'
p19
S'developed'
p20
tp21
F0.0033112582781456954
s(S'released'
p22
S'[[con]]'
p23
tp24
F0.013245033112582781
s(S'had'
p25
S'developed'
p26
tp27
F0.0033112582781456954
s(S'[[det]]'
p28
S'computer'
p29
tp30
F0.009933774834437087
s(S'action'
p31
S'video'
p32
tp33
F0.006622516556291391
s(S'[[det]]'
p34
S'console'
p35
tp36
F0.0033112582781456954
s(S'was'
p37
S'released'
p38
tp39
F0.03642384105960265
s(g23
S'later'
p40
tp41
F0.006622516556291391
s(S'actionadventure'
p42
S'video'
p43
tp44
F0.0033112582781456954
s(S'was'
p45
S'ported'
p46
tp47
F0.0033112582781456954
s(S'[[det]]'
p48
S'adventure'
p49
tp50
F0.0033112582781456954
s(S'game'
p51
S'in'
p52
tp53
F0.0033112582781456954
s(S'been'
p54
S'released'
p55
tp56
F0.006622516556291391
s(S'[[det]]'
p57
S'puzzle'
p58
tp59
F0.0033112582781456954
s(S'ref'
p60
S'gt'
p61
tp62
F0.006622516556291391
s(S'game'
p63
S'by'
p64
tp65
F0.0033112582781456954
s(S'game'
p66
S'developed'
p67
tp68
F0.046357615894039736
s(S'published'
p69
S'for'
p70
tp71
F0.013245033112582781
s(S'has'
p72
S'developed'
p73
tp74
F0.0033112582781456954
s(S'developed'
p75
S'for'
p76
tp77
F0.033112582781456956
s(S'produced'
p78
g19
tp79
F0.0033112582781456954
s(S'being'
p80
S'developed'
p81
tp82
F0.009933774834437087
s(S'including'
p83
S'[[det]]'
p84
tp85
F0.006622516556291391
s(S'lt'
p86
g60
tp87
F0.006622516556291391
s(g52
S'be'
p88
tp89
F0.0033112582781456954
s(S'was'
p90
S'initially'
p91
tp92
F0.006622516556291391
s(S'originally'
p93
S'released'
p94
tp95
F0.009933774834437087
s(S'[[con]]'
p96
S'released'
p97
tp98
F0.013245033112582781
s(S'published'
p99
S'was'
p100
tp101
F0.0033112582781456954
s(S'[[adj]]'
p102
S'action'
p103
tp104
F0.0033112582781456954
s(S'generation'
p105
S'video'
p106
tp107
F0.0033112582781456954
s(S'[[det]]'
p108
S'hockey'
p109
tp110
F0.0033112582781456954
s(S'subsequently'
p111
S'ported'
p112
tp113
F0.0033112582781456954
s(g61
S'in'
p114
tp115
F0.0033112582781456954
s(S'[[num]]'
p116
S'game'
p117
tp118
F0.0033112582781456954
s(S'announced'
p119
S'for'
p120
tp121
F0.009933774834437087
s(S'game'
p122
S'originally'
p123
tp124
F0.0033112582781456954
s(S'platform'
p125
g66
tp126
F0.006622516556291391
s(g109
S'video'
p127
tp128
F0.0033112582781456954
s(S'licensed'
p129
S'game'
p130
tp131
F0.0033112582781456954
s(g38
S'[[det]]'
p132
tp133
F0.006622516556291391
s(S'gt'
p134
S'lt'
p135
tp136
F0.0033112582781456954
s(g17
S'to'
p137
tp138
F0.019867549668874173
s(S'exclusively'
p139
S'in'
p140
tp141
F0.0033112582781456954
s(S'produced'
p142
S'for'
p143
tp144
F0.0033112582781456954
s(S'was'
p145
S'announced'
p146
tp147
F0.0033112582781456954
s(S'game'
p148
g78
tp149
F0.0033112582781456954
s(S'game'
p150
S'for'
p151
tp152
F0.046357615894039736
s(S'game'
p153
S'was'
p154
tp155
F0.006622516556291391
s(g135
g4
tp156
F0.0033112582781456954
s(S'was'
p157
g111
tp158
F0.0033112582781456954
s(S'game'
p159
S'is'
p160
tp161
F0.0033112582781456954
s(S'[[det]]'
p162
S'platform'
p163
tp164
F0.0033112582781456954
s(S'of'
p165
S'video'
p166
tp167
F0.0033112582781456954
s(S'[[adj]]'
p168
S'video'
p169
tp170
F0.013245033112582781
s(S'released'
p171
S'[[num]]'
p172
tp173
F0.0033112582781456954
s(S'released'
p174
S'on'
p175
tp176
F0.006622516556291391
s(S'[[det]]'
p177
S'[[adj]]'
p178
tp179
F0.0033112582781456954
s(S'[[num]]'
p180
g129
tp181
F0.0033112582781456954
s(S'is'
p182
S'developed'
p183
tp184
F0.0033112582781456954
s(S'is'
p185
g119
tp186
F0.0033112582781456954
s(S'[[det]]'
p187
S'game'
p188
tp189
F0.023178807947019868
s(g64
g93
tp190
F0.0033112582781456954
s(S'game'
p191
S'released'
p192
tp193
F0.023178807947019868
s(g88
S'released'
p194
tp195
F0.006622516556291391
s(S'[[adj]]'
p196
S'platforms'
p197
tp198
F0.006622516556291391
s(S'released'
p199
S'exclusively'
p200
tp201
F0.009933774834437087
s(g29
S'game'
p202
tp203
F0.013245033112582781
s(S'[[adj]]'
p204
S'strategy'
p205
tp206
F0.0033112582781456954
s(S'developed'
p207
S'in'
p208
tp209
F0.0033112582781456954
s(S'[[adj]]'
p210
g125
tp211
F0.0033112582781456954
s(S'[[adj]]'
p212
S'console'
p213
tp214
F0.0033112582781456954
s(S'[[con]]'
p215
S'game'
p216
tp217
F0.0033112582781456954
s(S'[[con]]'
p218
g142
tp219
F0.0033112582781456954
s(S'[[con]]'
p220
g69
tp221
F0.026490066225165563
s(g197
S'including'
p222
tp223
F0.006622516556291391
s(S'[[num]]'
p224
g86
tp225
F0.006622516556291391
s(g130
S'[[adj]]'
p226
tp227
F0.0033112582781456954
s(g205
S'video'
p228
tp229
F0.0033112582781456954
s(S'[[adj]]'
p230
g191
tp231
F0.006622516556291391
s(S'developed'
p232
g220
tp233
F0.04304635761589404
s(S'game'
p234
S'show'
p235
tp236
F0.0033112582781456954
s(g200
S'on'
p237
tp238
F0.006622516556291391
s(S'[[num]]'
p239
S'video'
p240
tp241
F0.0033112582781456954
s(S'been'
p242
S'ported'
p243
tp244
F0.006622516556291391
s(g192
S'for'
p245
tp246
F0.04966887417218543
s(S'was'
p247
S'originally'
p248
tp249
F0.0033112582781456954
s(S'was'
p250
S'developed'
p251
tp252
F0.016556291390728478
s(g67
S'by'
p253
tp254
F0.006622516556291391
s(S'[[con]]'
p255
g196
tp256
F0.0033112582781456954
s(S'released'
p257
g83
tp258
F0.006622516556291391
s(g91
S'released'
p259
tp260
F0.006622516556291391
s(S'game'
p261
g80
tp262
F0.0033112582781456954
s(g49
S'game'
p263
tp264
F0.006622516556291391
s(S'[[num]]'
p265
S'computer'
p266
tp267
F0.0033112582781456954
s(S'[[det]]'
p268
g31
tp269
F0.0033112582781456954
s(S'[[det]]'
p270
g42
tp271
F0.0033112582781456954
s(S'developed'
p272
S'on'
p273
tp274
F0.0033112582781456954
s(S'published'
p275
S'by'
p276
tp277
F0.009933774834437087
s(S'series'
p278
g75
tp279
F0.0033112582781456954
s(g58
S'game'
p280
tp281
F0.0033112582781456954
s(S'[[det]]'
p282
S'video'
p283
tp284
F0.033112582781456956
s(S'game'
p285
g278
tp286
F0.0033112582781456954
s(S'released'
p287
S'in'
p288
tp289
F0.006622516556291391
s(g169
g150
tp290
F0.08609271523178808
s(g11
g105
tp291
F0.0033112582781456954
s(S'game'
p292
S'on'
p293
tp294
F0.0033112582781456954
s.