(dp0
(S'[[adj]]'
p1
S'ambassador'
p2
tp3
F0.0007668711656441718
s(S'born'
p4
S'of'
p5
tp6
F0.0001278118609406953
s(S'rises'
p7
S'in'
p8
tp9
F0.0001278118609406953
s(S'when'
p10
S'served'
p11
tp12
F0.0002556237218813906
s(S'constituency'
p13
S'[[det]]'
p14
tp15
F0.0002556237218813906
s(S'joined'
p16
S'was'
p17
tp18
F0.0001278118609406953
s(S'first'
p19
S'arrived'
p20
tp21
F0.0001278118609406953
s(S'where'
p22
S'entered'
p23
tp24
F0.0001278118609406953
s(S'who'
p25
S'served'
p26
tp27
F0.0005112474437627812
s(S'also'
p28
S'elected'
p29
tp30
F0.0001278118609406953
s(S'[[det]]'
p31
S'champion'
p32
tp33
F0.0002556237218813906
s(S'scored'
p34
S'with'
p35
tp36
F0.0001278118609406953
s(S'to'
p37
S'live'
p38
tp39
F0.0002556237218813906
s(S'then'
p40
S'promoted'
p41
tp42
F0.0003834355828220859
s(S'[[det]]'
p43
S'neighborhood'
p44
tp45
F0.0003834355828220859
s(S'union'
p46
S'in'
p47
tp48
F0.0002556237218813906
s(S'[[num]]'
p49
S'runs'
p50
tp51
F0.0006390593047034765
s(S's'
p52
S'return'
p53
tp54
F0.0005112474437627812
s(S'graduate'
p55
S'[[det]]'
p56
tp57
F0.0002556237218813906
s(S'[[con]]'
p58
S'live'
p59
tp60
F0.0001278118609406953
s(S'been'
p61
S'recognized'
p62
tp63
F0.0001278118609406953
s(S'graduated'
p64
S'[[adj]]'
p65
tp66
F0.0001278118609406953
s(S'later'
p67
S'joined'
p68
tp69
F0.0005112474437627812
s(S'already'
p70
S'known'
p71
tp72
F0.0001278118609406953
s(S'command'
p73
S'in'
p74
tp75
F0.0005112474437627812
s(S'returned'
p76
S'before'
p77
tp78
F0.0001278118609406953
s(S'suburb'
p79
S'[[det]]'
p80
tp81
F0.0001278118609406953
s(S'served'
p82
S'first'
p83
tp84
F0.0001278118609406953
s(S'be'
p85
S'admitted'
p86
tp87
F0.0001278118609406953
s(S'going'
p88
S'to'
p89
tp90
F0.0001278118609406953
s(S'[[adj]]'
p91
S'swimmer'
p92
tp93
F0.0001278118609406953
s(S'be'
p94
S'built'
p95
tp96
F0.0001278118609406953
s(S'first'
p97
S'joined'
p98
tp99
F0.0003834355828220859
s(S'confirmed'
p100
S'by'
p101
tp102
F0.0001278118609406953
s(S'league'
p103
S'appearances'
p104
tp105
F0.0001278118609406953
s(S'[[adj]]'
p106
S'constituency'
p107
tp108
F0.0002556237218813906
s(S'municipality'
p109
S'belonging'
p110
tp111
F0.0002556237218813906
s(S'[[adj]]'
p112
S'highest'
p113
tp114
F0.0001278118609406953
s(S'center'
p115
S'[[con]]'
p116
tp117
F0.0001278118609406953
s(S'played'
p118
S'on'
p119
tp120
F0.0003834355828220859
s(S'when'
p121
S'transferred'
p122
tp123
F0.0001278118609406953
s(S'joined'
p124
S'[[prp]]'
p125
tp126
F0.0001278118609406953
s(S'[[con]]'
p127
S'programs'
p128
tp129
F0.0001278118609406953
s(S'player'
p130
S'at'
p131
tp132
F0.0003834355828220859
s(S'called'
p133
S'in'
p134
tp135
F0.0003834355828220859
s(S'joined'
p136
g52
tp137
F0.0001278118609406953
s(S'suburb'
p138
S'in'
p139
tp140
F0.0001278118609406953
s(S'who'
p141
S'fought'
p142
tp143
F0.0001278118609406953
s(S'district'
p144
S'of'
p145
tp146
F0.0008946830265848671
s(S'has'
p147
S'established'
p148
tp149
F0.0001278118609406953
s(S'polo'
p150
S'player'
p151
tp152
F0.0001278118609406953
s(S'called'
p153
S'out'
p154
tp155
F0.0001278118609406953
s(S'viewed'
p156
S'by'
p157
tp158
F0.0001278118609406953
s(S'selection'
p159
S'at'
p160
tp161
F0.0001278118609406953
s(S'[[det]]'
p162
S'took'
p163
tp164
F0.0001278118609406953
s(S'before'
p165
S'enrolling'
p166
tp167
F0.0002556237218813906
s(S'served'
p168
S'again'
p169
tp170
F0.0001278118609406953
s(S'command'
p171
S'as'
p172
tp173
F0.0001278118609406953
s(S'moved'
p174
S'onto'
p175
tp176
F0.0002556237218813906
s(S'while'
p177
S'living'
p178
tp179
F0.0001278118609406953
s(S'is'
p180
S'shown'
p181
tp182
F0.0001278118609406953
s(S'declared'
p183
S'[[con]]'
p184
tp185
F0.0001278118609406953
s(S'recalled'
p186
S'from'
p187
tp188
F0.0002556237218813906
s(S'alternative'
p189
S'[[adj]]'
p190
tp191
F0.0001278118609406953
s(S'[[num]]'
p192
S'universities'
p193
tp194
F0.0001278118609406953
s(S'founded'
p195
S'now'
p196
tp197
F0.0001278118609406953
s(S'was'
p198
S'ambassador'
p199
tp200
F0.0006390593047034765
s(S'also'
p201
S'remained'
p202
tp203
F0.0001278118609406953
s(S'is'
p204
S'appointed'
p205
tp206
F0.0005112474437627812
s(S'[[adj]]'
p207
S'debut'
p208
tp209
F0.0014059304703476483
s(S'returned'
p210
S'to'
p211
tp212
F0.0028118609406952966
s(S'[[adj]]'
p213
S'innings'
p214
tp215
F0.0001278118609406953
s(S'[[det]]'
p216
S'suburb'
p217
tp218
F0.0003834355828220859
s(S'[[adj]]'
p219
S'oldest'
p220
tp221
F0.0003834355828220859
s(S'observed'
p222
S'in'
p223
tp224
F0.0001278118609406953
s(S'selected'
p225
S'[[adj]]'
p226
tp227
F0.0002556237218813906
s(S'south'
p228
S'of'
p229
tp230
F0.0001278118609406953
s(S'[[det]]'
p231
S'force'
p232
tp233
F0.0001278118609406953
s(S'man'
p234
S'in'
p235
tp236
F0.0003834355828220859
s(S'largest'
p237
S'cities'
p238
tp239
F0.0001278118609406953
s(S'spread'
p240
S'over'
p241
tp242
F0.0001278118609406953
s(S'then'
p243
S'came'
p244
tp245
F0.0001278118609406953
s(S'served'
p246
S'[[det]]'
p247
tp248
F0.0008946830265848671
s(S'[[pro]]'
p249
S'played'
p250
tp251
F0.0002556237218813906
s(S'fled'
p252
S'to'
p253
tp254
F0.0007668711656441718
s(S'forming'
p255
S'part'
p256
tp257
F0.0001278118609406953
s(S'[[det]]'
p258
S'record'
p259
tp260
F0.0001278118609406953
s(S'graduated'
p261
S'[[det]]'
p262
tp263
F0.0002556237218813906
s(S'attended'
p264
S'then'
p265
tp266
F0.0003834355828220859
s(S'is'
p267
g240
tp268
F0.0001278118609406953
s(S'where'
p269
S'attended'
p270
tp271
F0.0002556237218813906
s(S'[[det]]'
p272
S'candidate'
p273
tp274
F0.0010224948875255625
s(S'[[adj]]'
p275
S'helping'
p276
tp277
F0.0001278118609406953
s(S'[[con]]'
p278
S'received'
p279
tp280
F0.0006390593047034765
s(S'which'
p281
S'debuted'
p282
tp283
F0.0001278118609406953
s(S'then'
p284
S'studied'
p285
tp286
F0.0005112474437627812
s(S'president'
p287
S'[[det]]'
p288
tp289
F0.0014059304703476483
s(S'was'
p290
S'returned'
p291
tp292
F0.0003834355828220859
s(S'in'
p293
S'squad'
p294
tp295
F0.0005112474437627812
s(S'served'
p296
S'later'
p297
tp298
F0.0001278118609406953
s(S'[[adj]]'
p299
S'programs'
p300
tp301
F0.0003834355828220859
s(S'debut'
p302
S'against'
p303
tp304
F0.0008946830265848671
s(S'[[adj]]'
p305
S'return'
p306
tp307
F0.0003834355828220859
s(S'admitted'
p308
S'in'
p309
tp310
F0.0001278118609406953
s(S'[[adj]]'
p311
S'citizen'
p312
tp313
F0.0002556237218813906
s(S'had'
p314
S'acquired'
p315
tp316
F0.0005112474437627812
s(S'again'
p317
S'served'
p318
tp319
F0.0002556237218813906
s(S'border'
p320
S'with'
p321
tp322
F0.0001278118609406953
s(S'built'
p323
S'near'
p324
tp325
F0.0001278118609406953
s(S'also'
p326
S'commanded'
p327
tp328
F0.0002556237218813906
s(S'candidate'
p329
S'at'
p330
tp331
F0.0002556237218813906
s(S'[[det]]'
p332
S'previously'
p333
tp334
F0.0001278118609406953
s(S'matches'
p335
S'of'
p336
tp337
F0.0001278118609406953
s(S'comprise'
p338
S'[[det]]'
p339
tp340
F0.0001278118609406953
s(S'schools'
p341
S'[[con]]'
p342
tp343
F0.0002556237218813906
s(S'return'
p344
S'at'
p345
tp346
F0.0005112474437627812
s(S'is'
p347
S'connected'
p348
tp349
F0.0001278118609406953
s(S'served'
p350
S'of'
p351
tp352
F0.0002556237218813906
s(S'later'
p353
S'transferred'
p354
tp355
F0.0003834355828220859
s(S'served'
p356
S'until'
p357
tp358
F0.0002556237218813906
s(S'station'
p359
S'[[det]]'
p360
tp361
F0.0002556237218813906
s(S'[[det]]'
p362
S'football'
p363
tp364
F0.0003834355828220859
s(S'after'
p365
S'returning'
p366
tp367
F0.0001278118609406953
s(S'joined'
p368
S'that'
p369
tp370
F0.0001278118609406953
s(S'[[adj]]'
p371
S'force'
p372
tp373
F0.0005112474437627812
s(S'[[num]]'
p374
S'awarded'
p375
tp376
F0.0001278118609406953
s(S'operates'
p377
S'[[con]]'
p378
tp379
F0.0001278118609406953
s(S'also'
p380
S'aired'
p381
tp382
F0.0001278118609406953
s(g52
S'career'
p383
tp384
F0.0006390593047034765
s(S'[[det]]'
p385
S'moved'
p386
tp387
F0.0002556237218813906
s(S'schools'
p388
S'[[det]]'
p389
tp390
F0.0001278118609406953
s(S'represented'
p391
S'[[det]]'
p392
tp393
F0.0014059304703476483
s(S'founded'
p394
S'was'
p395
tp396
F0.0001278118609406953
s(S'cricket'
p397
S'in'
p398
tp399
F0.0002556237218813906
s(S'times'
p400
S'for'
p401
tp402
F0.0008946830265848671
s(S'[[con]]'
p403
S'commander'
p404
tp405
F0.0001278118609406953
s(g52
S'known'
p406
tp407
F0.0001278118609406953
s(S'is'
p408
S'situated'
p409
tp410
F0.0010224948875255625
s(S'[[det]]'
p411
S'represented'
p412
tp413
F0.0001278118609406953
s(S'[[adj]]'
p414
S'school'
p415
tp416
F0.003450920245398773
s(S'founded'
p417
S'[[prp]]'
p418
tp419
F0.0001278118609406953
s(S'runs'
p420
S'with'
p421
tp422
F0.0001278118609406953
s(S'[[det]]'
p423
S'called'
p424
tp425
F0.0001278118609406953
s(S'honored'
p426
S'as'
p427
tp428
F0.0003834355828220859
s(S'who'
p429
S'play'
p430
tp431
F0.0001278118609406953
s(S'dropped'
p432
S'[[con]]'
p433
tp434
F0.0001278118609406953
s(S'came'
p435
S'in'
p436
tp437
F0.0001278118609406953
s(S'[[adj]]'
p438
S'state'
p439
tp440
F0.0006390593047034765
s(S'now'
p441
S'resides'
p442
tp443
F0.0001278118609406953
s(S'returning'
p444
S'after'
p445
tp446
F0.0001278118609406953
s(S'been'
p447
S'involved'
p448
tp449
F0.0002556237218813906
s(S'[[num]]'
p450
S'served'
p451
tp452
F0.0005112474437627812
s(S'as'
p453
S'ambassador'
p454
tp455
F0.0002556237218813906
s(S'[[con]]'
p456
S'member'
p457
tp458
F0.0003834355828220859
s(S'lineman'
p459
S'who'
p460
tp461
F0.001278118609406953
s(S'been'
p462
S'honored'
p463
tp464
F0.0006390593047034765
s(S'[[adj]]'
p465
S'tennis'
p466
tp467
F0.0003834355828220859
s(S'honored'
p468
S'in'
p469
tp470
F0.0002556237218813906
s(S'when'
p471
S'came'
p472
tp473
F0.0001278118609406953
s(S'acquired'
p474
S'[[det]]'
p475
tp476
F0.0003834355828220859
s(S'[[adj]]'
p477
S'matches'
p478
tp479
F0.002556237218813906
s(S'studied'
p480
S'for'
p481
tp482
F0.0001278118609406953
s(S'have'
p483
S'studied'
p484
tp485
F0.0001278118609406953
s(S'[[pro]]'
p486
S'of'
p487
tp488
F0.0001278118609406953
s(S'[[adj]]'
p489
S'members'
p490
tp491
F0.0002556237218813906
s(S'made'
p492
S'debut'
p493
tp494
F0.0005112474437627812
s(S'[[adj]]'
p495
S'author'
p496
tp497
F0.0001278118609406953
s(S'[[num]]'
p498
S'attended'
p499
tp500
F0.0001278118609406953
s(S'received'
p501
S'as'
p502
tp503
F0.0001278118609406953
s(S'came'
p504
S'with'
p505
tp506
F0.0001278118609406953
s(S'show'
p507
S'broadcast'
p508
tp509
F0.0001278118609406953
s(S'[[con]]'
p510
S'then'
p511
tp512
F0.0008946830265848671
s(S'selected'
p513
S'as'
p514
tp515
F0.0006390593047034765
s(S'events'
p516
S'held'
p517
tp518
F0.0001278118609406953
s(g250
S'together'
p519
tp520
F0.0002556237218813906
s(S'[[num]]'
p521
S'released'
p522
tp523
F0.0002556237218813906
s(S'[[con]]'
p524
S'leave'
p525
tp526
F0.0001278118609406953
s(S'commander'
p527
S'[[con]]'
p528
tp529
F0.0005112474437627812
s(S'ranks'
p530
S'in'
p531
tp532
F0.0001278118609406953
s(S'that'
p533
S'won'
p534
tp535
F0.0007668711656441718
s(S'[[det]]'
p536
S'institution'
p537
tp538
F0.0003834355828220859
s(S'who'
p539
S'attended'
p540
tp541
F0.0002556237218813906
s(S'play'
p542
S'in'
p543
tp544
F0.0008946830265848671
s(S'been'
p545
S'ranked'
p546
tp547
F0.0002556237218813906
s(S'[[mod]]'
p548
S'split'
p549
tp550
F0.0001278118609406953
s(S'born'
p551
S'[[con]]'
p552
tp553
F0.0014059304703476483
s(S'served'
p554
S'in'
p555
tp556
F0.003067484662576687
s(S'to'
p557
S'come'
p558
tp559
F0.0001278118609406953
s(S'place'
p560
S'at'
p561
tp562
F0.0002556237218813906
s(S'acquired'
p563
S'[[num]]'
p564
tp565
F0.0002556237218813906
s(g52
S'oldest'
p566
tp567
F0.0001278118609406953
s(S'had'
p568
S'graduated'
p569
tp570
F0.0001278118609406953
s(S'ever'
p571
S'play'
p572
tp573
F0.0002556237218813906
s(S'[[num]]'
p574
S'members'
p575
tp576
F0.0002556237218813906
s(S'had'
p577
S'called'
p578
tp579
F0.0002556237218813906
s(S'return'
p580
S'[[pro]]'
p581
tp582
F0.0001278118609406953
s(S'debut'
p583
S'when'
p584
tp585
F0.0001278118609406953
s(g20
S'in'
p586
tp587
F0.0010224948875255625
s(S'joined'
p588
S'[[pro]]'
p589
tp590
F0.0001278118609406953
s(S'district'
p591
S'[[num]]'
p592
tp593
F0.0001278118609406953
s(S'then'
p594
S'transferred'
p595
tp596
F0.0008946830265848671
s(S'ran'
p597
S'when'
p598
tp599
F0.0001278118609406953
s(S'used'
p600
S'as'
p601
tp602
F0.0001278118609406953
s(S'is'
p603
S'awarded'
p604
tp605
F0.0001278118609406953
s(S'village'
p606
S'[[det]]'
p607
tp608
F0.0001278118609406953
s(S'founded'
p609
S'[[adj]]'
p610
tp611
F0.0001278118609406953
s(S'released'
p612
S'[[con]]'
p613
tp614
F0.0001278118609406953
s(S'been'
p615
S'commissioned'
p616
tp617
F0.0002556237218813906
s(S'based'
p618
S'out'
p619
tp620
F0.0002556237218813906
s(S'station'
p621
S'on'
p622
tp623
F0.0001278118609406953
s(S'been'
p624
S'located'
p625
tp626
F0.0001278118609406953
s(S'in'
p627
S'founded'
p628
tp629
F0.0001278118609406953
s(S'launched'
p630
S'at'
p631
tp632
F0.0001278118609406953
s(S'for'
p633
S'[[det]]'
p634
tp635
F0.0008946830265848671
s(S'while'
p636
S'returned'
p637
tp638
F0.0001278118609406953
s(S'channel'
p639
S'in'
p640
tp641
F0.0002556237218813906
s(S'while'
p642
S'played'
p643
tp644
F0.0001278118609406953
s(S'who'
p645
S'received'
p646
tp647
F0.0001278118609406953
s(S'is'
p648
S'called'
p649
tp650
F0.0001278118609406953
s(S'promoted'
p651
S'at'
p652
tp653
F0.0003834355828220859
s(S'moved'
p654
S'[[con]]'
p655
tp656
F0.0003834355828220859
s(S'member'
p657
S'to'
p658
tp659
F0.0001278118609406953
s(S'currently'
p660
S'located'
p661
tp662
F0.0001278118609406953
s(S'moved'
p663
S'on'
p664
tp665
F0.0008946830265848671
s(S'[[adj]]'
p666
S'producer'
p667
tp668
F0.0001278118609406953
s(S'[[prp]]'
p669
S'tour'
p670
tp671
F0.0002556237218813906
s(g52
S'released'
p672
tp673
F0.0001278118609406953
s(S'lies'
p674
S'[[con]]'
p675
tp676
F0.0001278118609406953
s(S'moved'
p677
S'across'
p678
tp679
F0.0001278118609406953
s(S'[[adj]]'
p680
S'woman'
p681
tp682
F0.0001278118609406953
s(S'first'
p683
S'studied'
p684
tp685
F0.0003834355828220859
s(S'operated'
p686
S'with'
p687
tp688
F0.0005112474437627812
s(S'helped'
p689
S'[[pro]]'
p690
tp691
F0.0001278118609406953
s(S'command'
p692
S'[[num]]'
p693
tp694
F0.0001278118609406953
s(S'village'
p695
S'in'
p696
tp697
F0.0003834355828220859
s(S'flows'
p698
S'through'
p699
tp700
F0.0002556237218813906
s(S'town'
p701
S'situated'
p702
tp703
F0.0003834355828220859
s(S'been'
p704
S'broadcast'
p705
tp706
F0.0002556237218813906
s(S'[[det]]'
p707
S'engineering'
p708
tp709
F0.0001278118609406953
s(S'was'
p710
S'restored'
p711
tp712
F0.0001278118609406953
s(S'that'
p713
S'win'
p714
tp715
F0.0001278118609406953
s(S'graduated'
p716
S'now'
p717
tp718
F0.0003834355828220859
s(S'fought'
p719
S'[[prp]]'
p720
tp721
F0.0001278118609406953
s(S'[[det]]'
p722
S'seaport'
p723
tp724
F0.0001278118609406953
s(S'have'
p725
S'played'
p726
tp727
F0.0003834355828220859
s(S'state'
p728
S'of'
p729
tp730
F0.0026840490797546013
s(S'studied'
p731
S'at'
p732
tp733
F0.0017893660531697342
s(S'ranked'
p734
S'in'
p735
tp736
F0.0002556237218813906
s(g448
S'in'
p737
tp738
F0.0001278118609406953
s(S'port'
p739
S'for'
p740
tp741
F0.0001278118609406953
s(S'[[con]]'
p742
S'station'
p743
tp744
F0.0002556237218813906
s(S'selection'
p745
S'[[det]]'
p746
tp747
F0.0001278118609406953
s(S'[[adj]]'
p748
S'trade'
p749
tp750
F0.0002556237218813906
s(S'officer'
p751
S'was'
p752
tp753
F0.0001278118609406953
s(S'more'
p754
S'times'
p755
tp756
F0.0001278118609406953
s(S'transferred'
p757
S'to'
p758
tp759
F0.002939672801635992
s(S'leave'
p760
S'[[adj]]'
p761
tp762
F0.0001278118609406953
s(S'victory'
p763
S'over'
p764
tp765
F0.0002556237218813906
s(S'elected'
p766
S'president'
p767
tp768
F0.0008946830265848671
s(S'received'
p769
S'[[adj]]'
p770
tp771
F0.0002556237218813906
s(S'[[con]]'
p772
S'represented'
p773
tp774
F0.0001278118609406953
s(S'member'
p775
S'as'
p776
tp777
F0.0003834355828220859
s(S'play'
p778
S'for'
p779
tp780
F0.0011503067484662577
s(S'institute'
p781
S'in'
p782
tp783
F0.0001278118609406953
s(S'had'
p784
S'joined'
p785
tp786
F0.0006390593047034765
s(S'where'
p787
S'enrolled'
p788
tp789
F0.0002556237218813906
s(S'appointed'
p790
S'before'
p791
tp792
F0.0001278118609406953
s(S'member'
p793
S'until'
p794
tp795
F0.0001278118609406953
s(S'of'
p796
S'[[det]]'
p797
tp798
F0.0001278118609406953
s(S'states'
p799
S'[[det]]'
p800
tp801
F0.0001278118609406953
s(S'suburb'
p802
S'of'
p803
tp804
F0.0001278118609406953
s(S'is'
p805
S'accepted'
p806
tp807
F0.0001278118609406953
s(S'built'
p808
S'[[con]]'
p809
tp810
F0.0002556237218813906
s(S'power'
p811
S'station'
p812
tp813
F0.0001278118609406953
s(S'hockey'
p814
S'defender'
p815
tp816
F0.0001278118609406953
s(S'helped'
p817
S'[[prp]]'
p818
tp819
F0.0001278118609406953
s(S'previously'
p820
S'played'
p821
tp822
F0.0023006134969325155
s(S'is'
p823
S'elected'
p824
tp825
F0.0001278118609406953
s(S'[[det]]'
p826
S'unit'
p827
tp828
F0.0005112474437627812
s(S'scored'
p829
S'as'
p830
tp831
F0.0001278118609406953
s(S'officer'
p832
S'of'
p833
tp834
F0.0003834355828220859
s(S'district'
p835
S'in'
p836
tp837
F0.0011503067484662577
s(S'appearance'
p838
S'[[con]]'
p839
tp840
F0.0001278118609406953
s(S'promoted'
p841
S'[[adj]]'
p842
tp843
F0.0001278118609406953
s(S'then'
p844
S'received'
p845
tp846
F0.0007668711656441718
s(S'was'
p847
S'superintendent'
p848
tp849
F0.0001278118609406953
s(S'to'
p850
S'ratify'
p851
tp852
F0.0001278118609406953
s(S'[[det]]'
p853
S'gateway'
p854
tp855
F0.0002556237218813906
s(S'then'
p856
S'joined'
p857
tp858
F0.0014059304703476483
s(S'in'
p859
S'which'
p860
tp861
F0.0001278118609406953
s(S'has'
p862
S'ranked'
p863
tp864
F0.0001278118609406953
s(S'appointed'
p865
S'[[adj]]'
p866
tp867
F0.0003834355828220859
s(S'helping'
p868
S'[[det]]'
p869
tp870
F0.0002556237218813906
s(S'debut'
p871
S'[[con]]'
p872
tp873
F0.0005112474437627812
s(S'[[adj]]'
p874
S'gt'
p875
tp876
F0.0001278118609406953
s(S'later'
p877
S'moved'
p878
tp879
F0.0005112474437627812
s(S'city'
p880
S'on'
p881
tp882
F0.0001278118609406953
s(S'accredited'
p883
S'by'
p884
tp885
F0.0006390593047034765
s(S'then'
p886
S'dropped'
p887
tp888
F0.0003834355828220859
s(S'station'
p889
S'as'
p890
tp891
F0.0001278118609406953
s(S'being'
p892
S'named'
p893
tp894
F0.0001278118609406953
s(S'station'
p895
S'for'
p896
tp897
F0.0002556237218813906
s(S'longest'
p898
S'river'
p899
tp900
F0.0002556237218813906
s(S'form'
p901
S'[[num]]'
p902
tp903
F0.0001278118609406953
s(S'largest'
p904
S'[[con]]'
p905
tp906
F0.0002556237218813906
s(S'[[con]]'
p907
S'remained'
p908
tp909
F0.0001278118609406953
s(S'member'
p910
S'[[det]]'
p911
tp912
F0.0010224948875255625
s(S'involved'
p913
S'[[det]]'
p914
tp915
F0.0001278118609406953
s(S'have'
p916
S'ruled'
p917
tp918
F0.0001278118609406953
s(S'[[adj]]'
p919
S'level'
p920
tp921
F0.0001278118609406953
s(S'left'
p922
S'take'
p923
tp924
F0.0001278118609406953
s(S'played'
p925
S'cricket'
p926
tp927
F0.001278118609406953
s(S'volleyball'
p928
S'player'
p929
tp930
F0.0003834355828220859
s(S'was'
p931
S'moved'
p932
tp933
F0.0006390593047034765
s(S'later'
p934
S'return'
p935
tp936
F0.0001278118609406953
s(S'posted'
p937
S'as'
p938
tp939
F0.0001278118609406953
s(S'was'
p940
S'aired'
p941
tp942
F0.0001278118609406953
s(S'moved'
p943
S'before'
p944
tp945
F0.0001278118609406953
s(S'situated'
p946
S'[[adj]]'
p947
tp948
F0.0001278118609406953
s(S'transferred'
p949
S'with'
p950
tp951
F0.0001278118609406953
s(S'played'
p952
S'once'
p953
tp954
F0.0002556237218813906
s(S'appointed'
p955
S'of'
p956
tp957
F0.0015337423312883436
s(S'returned'
p958
S'on'
p959
tp960
F0.0002556237218813906
s(S'played'
p961
S'until'
p962
tp963
F0.0001278118609406953
s(g52
S'command'
p964
tp965
F0.0001278118609406953
s(S'recognized'
p966
S'by'
p967
tp968
F0.0007668711656441718
s(S'in'
p969
S'built'
p970
tp971
F0.0001278118609406953
s(S'started'
p972
S'against'
p973
tp974
F0.0002556237218813906
s(S'[[adj]]'
p975
S'schools'
p976
tp977
F0.0011503067484662577
s(S'has'
p978
S'acquired'
p979
tp980
F0.0001278118609406953
s(S'serving'
p981
S'in'
p982
tp983
F0.0001278118609406953
s(S'constitute'
p984
S'[[det]]'
p985
tp986
F0.0001278118609406953
s(S'[[num]]'
p987
S'places'
p988
tp989
F0.0001278118609406953
s(S'member'
p990
S'[[num]]'
p991
tp992
F0.0005112474437627812
s(S'won'
p993
S'with'
p994
tp995
F0.0008946830265848671
s(S'career'
p996
S'at'
p997
tp998
F0.0005112474437627812
s(S'shown'
p999
S'[[adj]]'
p1000
tp1001
F0.0001278118609406953
s(S'also'
p1002
S'attended'
p1003
tp1004
F0.001278118609406953
s(S'[[adj]]'
p1005
S'jumper'
p1006
tp1007
F0.0001278118609406953
s(S'debuted'
p1008
S'[[prp]]'
p1009
tp1010
F0.0001278118609406953
s(S'wickets'
p1011
S'against'
p1012
tp1013
F0.0002556237218813906
s(S'ranked'
p1014
S'among'
p1015
tp1016
F0.0002556237218813906
s(S'[[prp]]'
p1017
S'students'
p1018
tp1019
F0.0001278118609406953
s(g372
S'of'
p1020
tp1021
F0.0001278118609406953
s(g52
S'home'
p1022
tp1023
F0.0001278118609406953
s(S'transferred'
p1024
S'from'
p1025
tp1026
F0.0003834355828220859
s(S'won'
p1027
S'to'
p1028
tp1029
F0.0001278118609406953
s(S'[[mod]]'
p1030
S'win'
p1031
tp1032
F0.0001278118609406953
s(S'kilometers'
p1033
S'[[adj]]'
p1034
tp1035
F0.0001278118609406953
s(S'was'
p1036
S'recognized'
p1037
tp1038
F0.0003834355828220859
s(S'[[det]]'
p1039
S'captain'
p1040
tp1041
F0.0006390593047034765
s(S'enrolled'
p1042
S'as'
p1043
tp1044
F0.0002556237218813906
s(S'president'
p1045
S'of'
p1046
tp1047
F0.0033231083844580778
s(S'affiliated'
p1048
S'with'
p1049
tp1050
F0.0007668711656441718
s(S'tournaments'
p1051
S'in'
p1052
tp1053
F0.0001278118609406953
s(S'also'
p1054
S'involved'
p1055
tp1056
F0.0002556237218813906
s(S'entered'
p1057
S'[[con]]'
p1058
tp1059
F0.0001278118609406953
s(g537
S'of'
p1060
tp1061
F0.0005112474437627812
s(S'[[det]]'
p1062
S'southeast'
p1063
tp1064
F0.0001278118609406953
s(S'was'
p1065
S'nominated'
p1066
tp1067
F0.0002556237218813906
s(S'[[det]]'
p1068
S'lake'
p1069
tp1070
F0.0006390593047034765
s(S'joined'
p1071
S'of'
p1072
tp1073
F0.0005112474437627812
s(S'was'
p1074
S'ranked'
p1075
tp1076
F0.0003834355828220859
s(S'[[con]]'
p1077
S'return'
p1078
tp1079
F0.0001278118609406953
s(g566
S'[[con]]'
p1080
tp1081
F0.0001278118609406953
s(S'village'
p1082
g228
tp1083
F0.0001278118609406953
s(S'in'
p1084
S'helping'
p1085
tp1086
F0.0002556237218813906
s(S'left'
p1087
S'as'
p1088
tp1089
F0.0001278118609406953
s(S'[[prp]]'
p1090
g871
tp1091
F0.0017893660531697342
s(S'[[det]]'
p1092
S'island'
p1093
tp1094
F0.0003834355828220859
s(S'commissioned'
p1095
S'[[adj]]'
p1096
tp1097
F0.0001278118609406953
s(S'of'
p1098
S'called'
p1099
tp1100
F0.0001278118609406953
s(S'up'
p1101
S'[[det]]'
p1102
tp1103
F0.0001278118609406953
s(S'commission'
p1104
S'[[con]]'
p1105
tp1106
F0.0001278118609406953
s(S'won'
p1107
S'[[adj]]'
p1108
tp1109
F0.0001278118609406953
s(S'matches'
p1110
S'for'
p1111
tp1112
F0.002939672801635992
s(S'affiliated'
p1113
S'to'
p1114
tp1115
F0.0006390593047034765
s(S'ranked'
p1116
S'by'
p1117
tp1118
F0.0005112474437627812
s(S'[[adj]]'
p1119
S'published'
p1120
tp1121
F0.0001278118609406953
s(S'[[adj]]'
p1122
S'lead'
p1123
tp1124
F0.0001278118609406953
s(S'retired'
p1125
S'in'
p1126
tp1127
F0.0001278118609406953
s(S'started'
p1128
S'as'
p1129
tp1130
F0.0001278118609406953
s(S'then'
p1131
S'played'
p1132
tp1133
F0.0014059304703476483
s(S'appointed'
p1134
S'captain'
p1135
tp1136
F0.0003834355828220859
s(S'grades'
p1137
S'[[num]]'
p1138
tp1139
F0.0001278118609406953
s(S'to'
p1140
S'return'
p1141
tp1142
F0.0006390593047034765
s(S'known'
p1143
S'only'
p1144
tp1145
F0.0001278118609406953
s(S'cricketer'
p1146
S'who'
p1147
tp1148
F0.0001278118609406953
s(S'debuted'
p1149
S'in'
p1150
tp1151
F0.0001278118609406953
s(g815
S'[[con]]'
p1152
tp1153
F0.0001278118609406953
s(S'was'
p1154
S'built'
p1155
tp1156
F0.0006390593047034765
s(S'rest'
p1157
S'to'
p1158
tp1159
F0.0001278118609406953
s(S'station'
p1160
S'along'
p1161
tp1162
F0.0002556237218813906
s(S'came'
p1163
S'to'
p1164
tp1165
F0.0007668711656441718
s(S'established'
p1166
S'[[det]]'
p1167
tp1168
F0.0001278118609406953
s(S'promoted'
p1169
S'when'
p1170
tp1171
F0.0001278118609406953
s(S'representative'
p1172
S'for'
p1173
tp1174
F0.0002556237218813906
s(S'now'
p1175
g133
tp1176
F0.0003834355828220859
s(S'also'
p1177
S'selected'
p1178
tp1179
F0.0008946830265848671
s(S'[[adj]]'
p1180
S'minister'
p1181
tp1182
F0.0001278118609406953
s(S'represented'
p1183
S'while'
p1184
tp1185
F0.0002556237218813906
s(S'oldest'
p1186
S'schools'
p1187
tp1188
F0.0001278118609406953
s(S'released'
p1189
S'by'
p1190
tp1191
F0.0014059304703476483
s(S'returning'
p1192
S'from'
p1193
tp1194
F0.0001278118609406953
s(g851
S'[[det]]'
p1195
tp1196
F0.0001278118609406953
s(S'[[adj]]'
p1197
S'capital'
p1198
tp1199
F0.0003834355828220859
s(S'[[mod]]'
p1200
S'return'
p1201
tp1202
F0.0006390593047034765
s(S'man'
p1203
S'for'
p1204
tp1205
F0.0001278118609406953
s(S'came'
p1206
S'through'
p1207
tp1208
F0.0001278118609406953
s(S'been'
p1209
S'living'
p1210
tp1211
F0.0001278118609406953
s(S'nominated'
p1212
S'for'
p1213
tp1214
F0.0002556237218813906
s(S'state'
p1215
S'in'
p1216
tp1217
F0.0005112474437627812
s(S'attended'
p1218
S'graduated'
p1219
tp1220
F0.0002556237218813906
s(S'[[det]]'
p1221
S'[[num]]'
p1222
tp1223
F0.0005112474437627812
s(S'career'
p1224
S'[[adj]]'
p1225
tp1226
F0.0001278118609406953
s(S'[[det]]'
p1227
S'minister'
p1228
tp1229
F0.0002556237218813906
s(S'was'
p1230
S'declared'
p1231
tp1232
F0.0001278118609406953
s(S'branch'
p1233
S'of'
p1234
tp1235
F0.0002556237218813906
s(S'[[adj]]'
p1236
S'women'
p1237
tp1238
F0.0001278118609406953
s(S'soon'
p1239
S'left'
p1240
tp1241
F0.0002556237218813906
s(S'situated'
p1242
S'from'
p1243
tp1244
F0.0001278118609406953
s(S'to'
p1245
S'join'
p1246
tp1247
F0.0007668711656441718
s(S'founded'
p1248
S'for'
p1249
tp1250
F0.0003834355828220859
s(S'played'
p1251
S'against'
p1252
tp1253
F0.0019171779141104294
s(S'win'
p1254
S'on'
p1255
tp1256
F0.0001278118609406953
s(S'city'
p1257
S'in'
p1258
tp1259
F0.0007668711656441718
s(S'arts'
p1260
S'college'
p1261
tp1262
F0.0001278118609406953
s(S'resigned'
p1263
S'for'
p1264
tp1265
F0.0001278118609406953
s(S'[[num]]'
p1266
S'largest'
p1267
tp1268
F0.0001278118609406953
s(S'being'
p1269
S'appointed'
p1270
tp1271
F0.0005112474437627812
s(S'[[det]]'
p1272
g1157
tp1273
F0.0003834355828220859
s(S'is'
p1274
S'[[adj]]'
p1275
tp1276
F0.0002556237218813906
s(S'member'
p1277
S'from'
p1278
tp1279
F0.0002556237218813906
s(S'lake'
p1280
S'located'
p1281
tp1282
F0.0003834355828220859
s(S'member'
p1283
S'[[adj]]'
p1284
tp1285
F0.0002556237218813906
s(S'founded'
p1286
S'at'
p1287
tp1288
F0.0002556237218813906
s(S'returned'
p1289
S'at'
p1290
tp1291
F0.0003834355828220859
s(S'times'
p1292
S'as'
p1293
tp1294
F0.0001278118609406953
s(S'has'
p1295
S'returned'
p1296
tp1297
F0.0001278118609406953
s(S'be'
p1298
g955
tp1299
F0.0005112474437627812
s(S'[[det]]'
p1300
S'area'
p1301
tp1302
F0.0005112474437627812
s(S'where'
p1303
S'won'
p1304
tp1305
F0.0002556237218813906
s(S'[[det]]'
p1306
S'women'
p1307
tp1308
F0.0001278118609406953
s(S'rule'
p1309
S'over'
p1310
tp1311
F0.0002556237218813906
s(S'named'
p1312
S'with'
p1313
tp1314
F0.0001278118609406953
s(S'accepted'
p1315
S'[[det]]'
p1316
tp1317
F0.0005112474437627812
s(g52
S'rule'
p1318
tp1319
F0.0002556237218813906
s(S'released'
p1320
S'on'
p1321
tp1322
F0.0001278118609406953
s(g569
S'from'
p1323
tp1324
F0.0033231083844580778
s(S'later'
p1325
S'received'
p1326
tp1327
F0.0007668711656441718
s(S'has'
p1328
S'founded'
p1329
tp1330
F0.0002556237218813906
s(S'also'
p1331
S'home'
p1332
tp1333
F0.0005112474437627812
s(S'also'
p1334
S'assigned'
p1335
tp1336
F0.0001278118609406953
s(g708
S'college'
p1337
tp1338
F0.0001278118609406953
s(S'then'
p1339
S'named'
p1340
tp1341
F0.0001278118609406953
s(S'never'
p1342
S'return'
p1343
tp1344
F0.0001278118609406953
s(S'[[con]]'
p1345
S'appointed'
p1346
tp1347
F0.0005112474437627812
s(S'[[adj]]'
p1348
S'hub'
p1349
tp1350
F0.0002556237218813906
s(S'candidate'
p1351
S'as'
p1352
tp1353
F0.0002556237218813906
s(S'was'
p1354
S'filmed'
p1355
tp1356
F0.0005112474437627812
s(S'lake'
p1357
S'of'
p1358
tp1359
F0.0001278118609406953
s(S'studied'
p1360
S'to'
p1361
tp1362
F0.0001278118609406953
s(S'author'
p1363
S'of'
p1364
tp1365
F0.0001278118609406953
s(S'then'
p1366
S'ruled'
p1367
tp1368
F0.0001278118609406953
s(S'[[con]]'
p1369
g1289
tp1370
F0.0007668711656441718
s(S'play'
p1371
S'with'
p1372
tp1373
F0.0006390593047034765
s(S'when'
p1374
S'joined'
p1375
tp1376
F0.0002556237218813906
s(S'come'
p1377
S'in'
p1378
tp1379
F0.0001278118609406953
s(S'won'
p1380
S'when'
p1381
tp1382
F0.0001278118609406953
s(S'ranked'
p1383
S'[[adj]]'
p1384
tp1385
F0.0005112474437627812
s(S'been'
p1386
S'named'
p1387
tp1388
F0.0011503067484662577
s(S'returning'
p1389
S'in'
p1390
tp1391
F0.0001278118609406953
s(S'assigned'
p1392
S'to'
p1393
tp1394
F0.0015337423312883436
s(S'since'
p1395
S'played'
p1396
tp1397
F0.0002556237218813906
s(S'had'
p1398
S'admitted'
p1399
tp1400
F0.0001278118609406953
s(g478
S'against'
p1401
tp1402
F0.002556237218813906
s(S'appearance'
p1403
S'during'
p1404
tp1405
F0.0001278118609406953
s(S'returning'
p1406
S'to'
p1407
tp1408
F0.0011503067484662577
s(S'named'
p1409
S'by'
p1410
tp1411
F0.0006390593047034765
s(S'also'
p1412
g542
tp1413
F0.0006390593047034765
s(S'fled'
p1414
S'[[con]]'
p1415
tp1416
F0.0001278118609406953
s(S'college'
p1417
g796
tp1418
F0.0005112474437627812
s(S'called'
p1419
S'from'
p1420
tp1421
F0.0003834355828220859
s(S'man'
p1422
S'at'
p1423
tp1424
F0.0002556237218813906
s(S'had'
p1425
S'added'
p1426
tp1427
F0.0002556237218813906
s(S'appearance'
p1428
S'at'
p1429
tp1430
F0.0001278118609406953
s(S'established'
p1431
S'at'
p1432
tp1433
F0.0002556237218813906
s(S'commissioned'
p1434
S'in'
p1435
tp1436
F0.0003834355828220859
s(S'win'
p1437
S'against'
p1438
tp1439
F0.0002556237218813906
s(S'attended'
p1440
S'[[adj]]'
p1441
tp1442
F0.0001278118609406953
s(S'[[det]]'
p1443
S'panchayat'
p1444
tp1445
F0.0002556237218813906
s(S'member'
p1446
S'[[con]]'
p1447
tp1448
F0.0007668711656441718
s(S'play'
p1449
S'from'
p1450
tp1451
F0.0001278118609406953
s(S'wickets'
p1452
S'[[num]]'
p1453
tp1454
F0.0002556237218813906
s(S'then'
p1455
S'acquired'
p1456
tp1457
F0.0001278118609406953
s(S'[[prp]]'
p1458
S'post'
p1459
tp1460
F0.0001278118609406953
s(g1063
S'of'
p1461
tp1462
F0.0001278118609406953
s(S'nominated'
p1463
S'of'
p1464
tp1465
F0.0002556237218813906
s(S'transferred'
p1466
S'into'
p1467
tp1468
F0.0001278118609406953
s(S'joined'
p1469
S'[[adj]]'
p1470
tp1471
F0.0003834355828220859
s(S'served'
p1472
S'[[con]]'
p1473
tp1474
F0.0007668711656441718
s(S'first'
p1475
S'played'
p1476
tp1477
F0.0008946830265848671
s(S'promoted'
p1478
S'for'
p1479
tp1480
F0.0001278118609406953
s(S'elected'
p1481
S'[[adj]]'
p1482
tp1483
F0.0001278118609406953
s(S'coach'
p1484
S'[[num]]'
p1485
tp1486
F0.0003834355828220859
s(S'promoted'
p1487
S'[[con]]'
p1488
tp1489
F0.0002556237218813906
s(S'been'
p1490
S'nominated'
p1491
tp1492
F0.0002556237218813906
s(S'then'
p1493
S'began'
p1494
tp1495
F0.0001278118609406953
s(S'was'
p1496
S'struck'
p1497
tp1498
F0.0002556237218813906
s(S'town'
p1499
S'under'
p1500
tp1501
F0.0001278118609406953
s(S'became'
p1502
S'minister'
p1503
tp1504
F0.0001278118609406953
s(S'appointed'
p1505
S'to'
p1506
tp1507
F0.0016615541922290389
s(S'served'
p1508
S'[[num]]'
p1509
tp1510
F0.0014059304703476483
s(S'school'
p1511
g1137
tp1512
F0.0001278118609406953
s(S'when'
p1513
S'won'
p1514
tp1515
F0.0002556237218813906
s(S'album'
p1516
S'in'
p1517
tp1518
F0.0001278118609406953
s(S'released'
p1519
S'in'
p1520
tp1521
F0.0011503067484662577
s(S'rated'
p1522
S'[[det]]'
p1523
tp1524
F0.0001278118609406953
s(S'[[adj]]'
p1525
S'attended'
p1526
tp1527
F0.0003834355828220859
s(S'scored'
p1528
S'again'
p1529
tp1530
F0.0001278118609406953
s(S'learning'
p1531
S'in'
p1532
tp1533
F0.0001278118609406953
s(S'to'
p1534
S'win'
p1535
tp1536
F0.0008946830265848671
s(S'player'
p1537
S'[[det]]'
p1538
tp1539
F0.0001278118609406953
s(S'was'
p1540
S'member'
p1541
tp1542
F0.0008946830265848671
s(S'ran'
p1543
S'on'
p1544
tp1545
F0.0001278118609406953
s(S'was'
p1546
S'involved'
p1547
tp1548
F0.0003834355828220859
s(S'capital'
p1549
S'in'
p1550
tp1551
F0.0001278118609406953
s(S'states'
p1552
S'[[con]]'
p1553
tp1554
F0.0003834355828220859
s(S'transferred'
p1555
S'for'
p1556
tp1557
F0.0001278118609406953
s(S'not'
p1558
S'recognized'
p1559
tp1560
F0.0002556237218813906
s(S'represented'
p1561
S'matches'
p1562
tp1563
F0.001278118609406953
s(S'accepted'
p1564
S'[[num]]'
p1565
tp1566
F0.0001278118609406953
s(S'[[con]]'
p1567
S'operated'
p1568
tp1569
F0.0001278118609406953
s(S'when'
p1570
S'attended'
p1571
tp1572
F0.0001278118609406953
s(S'released'
p1573
S'as'
p1574
tp1575
F0.0001278118609406953
s(S'fled'
p1576
S'[[det]]'
p1577
tp1578
F0.0001278118609406953
s(S'also'
p1579
g1116
tp1580
F0.0001278118609406953
s(S'years'
p1581
S'in'
p1582
tp1583
F0.0005112474437627812
s(S'graduated'
p1584
S'to'
p1585
tp1586
F0.0001278118609406953
s(S'[[adj]]'
p1587
g1251
tp1588
F0.0007668711656441718
s(S'served'
p1589
S'now'
p1590
tp1591
F0.0001278118609406953
s(S'[[con]]'
p1592
S'living'
p1593
tp1594
F0.0001278118609406953
s(S'playing'
p1595
S'against'
p1596
tp1597
F0.0001278118609406953
s(S'received'
p1598
S'by'
p1599
tp1600
F0.0001278118609406953
s(S'[[con]]'
p1601
S'served'
p1602
tp1603
F0.001278118609406953
s(S'schools'
p1604
S'at'
p1605
tp1606
F0.0001278118609406953
s(S'[[det]]'
p1607
S'lost'
p1608
tp1609
F0.0001278118609406953
s(S'river'
p1610
S'flowing'
p1611
tp1612
F0.0003834355828220859
s(S'[[det]]'
p1613
S'left'
p1614
tp1615
F0.0002556237218813906
s(S'operated'
p1616
S'until'
p1617
tp1618
F0.0001278118609406953
s(g549
S'[[adj]]'
p1619
tp1620
F0.0001278118609406953
s(S'[[con]]'
p1621
S'later'
p1622
tp1623
F0.0006390593047034765
s(S'[[adj]]'
p1624
S'lakes'
p1625
tp1626
F0.0001278118609406953
s(S'[[det]]'
p1627
S'born'
p1628
tp1629
F0.0001278118609406953
s(S'resigned'
p1630
S'after'
p1631
tp1632
F0.0001278118609406953
s(S'[[adj]]'
p1633
S'man'
p1634
tp1635
F0.0006390593047034765
s(S'contained'
p1636
S'[[num]]'
p1637
tp1638
F0.0001278118609406953
s(S'area'
p1639
S'in'
p1640
tp1641
F0.0005112474437627812
s(S'duty'
p1642
S'in'
p1643
tp1644
F0.0001278118609406953
s(S'transferred'
p1645
S'after'
p1646
tp1647
F0.0001278118609406953
s(S'also'
p1648
S'started'
p1649
tp1650
F0.0005112474437627812
s(S'known'
p1651
S'[[det]]'
p1652
tp1653
F0.0001278118609406953
s(S'is'
p1654
g222
tp1655
F0.0001278118609406953
s(S'later'
p1656
S'named'
p1657
tp1658
F0.0002556237218813906
s(S'to'
p1659
S'prevent'
p1660
tp1661
F0.0001278118609406953
s(S'was'
p1662
g999
tp1663
F0.0002556237218813906
s(S'game'
p1664
S'by'
p1665
tp1666
F0.0002556237218813906
s(S'built'
p1667
S'at'
p1668
tp1669
F0.0001278118609406953
s(S'moved'
p1670
S'from'
p1671
tp1672
F0.0003834355828220859
s(S'before'
p1673
g88
tp1674
F0.0001278118609406953
s(S'station'
p1675
S'between'
p1676
tp1677
F0.0002556237218813906
s(S'founded'
p1678
S'[[num]]'
p1679
tp1680
F0.0002556237218813906
s(S'started'
p1681
S'[[adj]]'
p1682
tp1683
F0.0001278118609406953
s(S'first'
p1684
S'ran'
p1685
tp1686
F0.0001278118609406953
s(S'been'
p1687
S'dropped'
p1688
tp1689
F0.0001278118609406953
s(S'assigned'
p1690
S'by'
p1691
tp1692
F0.0002556237218813906
s(S'took'
p1693
S'[[prp]]'
p1694
tp1695
F0.0001278118609406953
s(S'also'
p1696
S'helped'
p1697
tp1698
F0.0010224948875255625
s(S'[[adj]]'
p1699
S'built'
p1700
tp1701
F0.0001278118609406953
s(S'[[num]]'
p1702
S'teams'
p1703
tp1704
F0.0006390593047034765
s(S'[[num]]'
p1705
S'schools'
p1706
tp1707
F0.0005112474437627812
s(S'champion'
p1708
S'[[con]]'
p1709
tp1710
F0.0001278118609406953
s(S'premiered'
p1711
S'in'
p1712
tp1713
F0.0001278118609406953
s(S'[[det]]'
p1714
S'man'
p1715
tp1716
F0.0002556237218813906
s(S'moved'
p1717
S'again'
p1718
tp1719
F0.0001278118609406953
s(S'[[con]]'
p1720
S'released'
p1721
tp1722
F0.0002556237218813906
s(S'played'
p1723
S'well'
p1724
tp1725
F0.0001278118609406953
s(S'acquired'
p1726
S'[[adj]]'
p1727
tp1728
F0.0001278118609406953
s(S'[[con]]'
p1729
S'head'
p1730
tp1731
F0.0001278118609406953
s(S'was'
p1732
S'acquired'
p1733
tp1734
F0.0003834355828220859
s(S'long'
p1735
S'river'
p1736
tp1737
F0.0001278118609406953
s(S'[[det]]'
p1738
S'school'
p1739
tp1740
F0.0007668711656441718
s(S'gt'
p1741
S'in'
p1742
tp1743
F0.0001278118609406953
s(S'currently'
p1744
S'operated'
p1745
tp1746
F0.0001278118609406953
s(S'largest'
p1747
S'river'
p1748
tp1749
F0.0002556237218813906
s(g282
S'on'
p1750
tp1751
F0.0001278118609406953
s(g534
S'for'
p1752
tp1753
F0.0003834355828220859
s(S'selected'
p1754
S'at'
p1755
tp1756
F0.0002556237218813906
s(S'[[con]]'
p1757
S'assumed'
p1758
tp1759
F0.0001278118609406953
s(S'operated'
p1760
S'on'
p1761
tp1762
F0.0001278118609406953
s(S'also'
p1763
S'released'
p1764
tp1765
F0.0002556237218813906
s(S'came'
p1766
S'[[adj]]'
p1767
tp1768
F0.0001278118609406953
s(g546
S'as'
p1769
tp1770
F0.0001278118609406953
s(S'[[det]]'
p1771
S'coach'
p1772
tp1773
F0.0011503067484662577
s(S'also'
p1774
S'shown'
p1775
tp1776
F0.0001278118609406953
s(S'[[det]]'
p1777
S'commune'
p1778
tp1779
F0.0001278118609406953
s(S'were'
p1780
S'awarded'
p1781
tp1782
F0.0002556237218813906
s(S'first'
p1783
S'served'
p1784
tp1785
F0.0003834355828220859
s(S'acquired'
p1786
S'to'
p1787
tp1788
F0.0001278118609406953
s(S'title'
p1789
S'by'
p1790
tp1791
F0.0001278118609406953
s(S'municipality'
p1792
S'of'
p1793
tp1794
F0.0001278118609406953
s(g193
S'in'
p1795
tp1796
F0.0005112474437627812
s(S'player'
p1797
S'for'
p1798
tp1799
F0.0006390593047034765
s(S'awarded'
p1800
S'[[con]]'
p1801
tp1802
F0.0002556237218813906
s(S'broadcast'
p1803
S'by'
p1804
tp1805
F0.0002556237218813906
s(S'struck'
p1806
S'by'
p1807
tp1808
F0.0001278118609406953
s(S'matches'
p1809
S'at'
p1810
tp1811
F0.0002556237218813906
s(S'largest'
p1812
S'in'
p1813
tp1814
F0.0003834355828220859
s(S'been'
p1815
S'accepted'
p1816
tp1817
F0.0003834355828220859
s(S'commissioned'
p1818
S'into'
p1819
tp1820
F0.0003834355828220859
s(S'[[adj]]'
p1821
S'appointment'
p1822
tp1823
F0.0005112474437627812
s(S'dropped'
p1824
S'to'
p1825
tp1826
F0.0002556237218813906
s(S'[[adj]]'
p1827
S'established'
p1828
tp1829
F0.0001278118609406953
s(S'years'
p1830
S'with'
p1831
tp1832
F0.0001278118609406953
s(S'station'
p1833
S'of'
p1834
tp1835
F0.0002556237218813906
s(S'[[adj]]'
p1836
S'officer'
p1837
tp1838
F0.0010224948875255625
s(S'[[adj]]'
p1839
S'college'
p1840
tp1841
F0.0010224948875255625
s(S'officer'
p1842
S'with'
p1843
tp1844
F0.0002556237218813906
s(S'appeared'
p1845
S'[[adj]]'
p1846
tp1847
F0.0001278118609406953
s(S'later'
p1848
S'won'
p1849
tp1850
F0.0002556237218813906
s(S'[[prp]]'
p1851
S'place'
p1852
tp1853
F0.0002556237218813906
s(S'command'
p1854
S'of'
p1855
tp1856
F0.001278118609406953
s(S'[[adj]]'
p1857
S'recognized'
p1858
tp1859
F0.0001278118609406953
s(S'[[adj]]'
p1860
S'medalist'
p1861
tp1862
F0.0001278118609406953
s(S'[[adj]]'
p1863
g320
tp1864
F0.0001278118609406953
s(S'[[num]]'
p1865
S'km'
p1866
tp1867
F0.0002556237218813906
s(S'were'
p1868
S'released'
p1869
tp1870
F0.0001278118609406953
s(g52
S'located'
p1871
tp1872
F0.0002556237218813906
s(S'scored'
p1873
S'to'
p1874
tp1875
F0.0001278118609406953
s(S'[[adj]]'
p1876
S'regions'
p1877
tp1878
F0.0001278118609406953
s(S'transferred'
p1879
S'as'
p1880
tp1881
F0.0003834355828220859
s(S'governor'
p1882
S'of'
p1883
tp1884
F0.0008946830265848671
s(g1559
S'[[con]]'
p1885
tp1886
F0.0001278118609406953
s(S'took'
p1887
S'at'
p1888
tp1889
F0.0002556237218813906
s(S'won'
p1890
S'more'
p1891
tp1892
F0.0001278118609406953
s(S'entered'
p1893
S'at'
p1894
tp1895
F0.0002556237218813906
s(S'[[det]]'
p1896
S'appointment'
p1897
tp1898
F0.0010224948875255625
s(S'player'
p1899
S'with'
p1900
tp1901
F0.0006390593047034765
s(S'students'
p1902
S'to'
p1903
tp1904
F0.0001278118609406953
s(S'is'
p1905
S'returning'
p1906
tp1907
F0.0001278118609406953
s(S'named'
p1908
S'at'
p1909
tp1910
F0.0005112474437627812
s(S'aircraft'
p1911
S'to'
p1912
tp1913
F0.0001278118609406953
s(S'coach'
p1914
S'of'
p1915
tp1916
F0.0008946830265848671
s(S'largest'
p1917
S'[[adj]]'
p1918
tp1919
F0.0011503067484662577
s(S'where'
p1920
S'joined'
p1921
tp1922
F0.0002556237218813906
s(S'[[con]]'
p1923
g1045
tp1924
F0.0002556237218813906
s(S'attended'
p1925
S'of'
p1926
tp1927
F0.0003834355828220859
s(S'retired'
p1928
S'with'
p1929
tp1930
F0.0001278118609406953
s(S'been'
p1931
S'assigned'
p1932
tp1933
F0.0001278118609406953
s(S'center'
p1934
S'for'
p1935
tp1936
F0.0001278118609406953
s(S'studied'
p1937
S'before'
p1938
tp1939
F0.0001278118609406953
s(S'released'
p1940
S'[[adj]]'
p1941
tp1942
F0.0001278118609406953
s(g1822
S'to'
p1943
tp1944
F0.0006390593047034765
s(S'[[prp]]'
p1945
S'squad'
p1946
tp1947
F0.0001278118609406953
s(S'to'
p1948
S'head'
p1949
tp1950
F0.0003834355828220859
s(S'twice'
p1951
S'won'
p1952
tp1953
F0.0001278118609406953
s(S'[[det]]'
p1954
S'received'
p1955
tp1956
F0.0002556237218813906
s(S'was'
p1957
S'coach'
p1958
tp1959
F0.0003834355828220859
s(S'[[adj]]'
p1960
S'size'
p1961
tp1962
F0.0001278118609406953
s(S'currently'
p1963
S'operates'
p1964
tp1965
F0.0003834355828220859
s(S'was'
p1966
g1363
tp1967
F0.0002556237218813906
s(S'[[num]]'
p1968
S'moved'
p1969
tp1970
F0.0001278118609406953
s(S'since'
p1971
S'left'
p1972
tp1973
F0.0002556237218813906
s(S'[[det]]'
p1974
S'soldiers'
p1975
tp1976
F0.0001278118609406953
s(S'called'
p1977
S'at'
p1978
tp1979
F0.0003834355828220859
s(S'[[adj]]'
p1980
S'colleges'
p1981
tp1982
F0.0003834355828220859
s(S'came'
p1983
S'over'
p1984
tp1985
F0.0001278118609406953
s(S'had'
p1986
S'appointed'
p1987
tp1988
F0.0001278118609406953
s(S'player'
p1989
S'from'
p1990
tp1991
F0.0015337423312883436
s(S'member'
p1992
S'for'
p1993
tp1994
F0.0005112474437627812
s(S'started'
p1995
S'off'
p1996
tp1997
F0.0001278118609406953
s(S'had'
p1998
S'received'
p1999
tp2000
F0.0003834355828220859
s(S'appearance'
p2001
S'against'
p2002
tp2003
F0.0005112474437627812
s(S'internationally'
p2004
S'for'
p2005
tp2006
F0.0001278118609406953
s(S'selection'
p2007
S'in'
p2008
tp2009
F0.0001278118609406953
s(S'has'
p2010
S'built'
p2011
tp2012
F0.0001278118609406953
s(S'[[con]]'
p2013
S'previously'
p2014
tp2015
F0.0001278118609406953
s(S'situated'
p2016
S'at'
p2017
tp2018
F0.0002556237218813906
s(S'[[adj]]'
p2019
g811
tp2020
F0.0001278118609406953
s(S'[[mod]]'
p2021
S'rule'
p2022
tp2023
F0.0001278118609406953
s(S'is'
p2024
S'recognized'
p2025
tp2026
F0.0003834355828220859
s(S'played'
p2027
S'to'
p2028
tp2029
F0.0003834355828220859
s(S'who'
p2030
S'remained'
p2031
tp2032
F0.0001278118609406953
s(S'[[det]]'
p2033
S'president'
p2034
tp2035
F0.0010224948875255625
s(S'was'
p2036
S'played'
p2037
tp2038
F0.0001278118609406953
s(S'station'
p2039
S'at'
p2040
tp2041
F0.0003834355828220859
s(S'belonging'
p2042
S'district'
p2043
tp2044
F0.0001278118609406953
s(S'selected'
p2045
S'[[num]]'
p2046
tp2047
F0.0001278118609406953
s(S'[[adj]]'
p2048
S'research'
p2049
tp2050
F0.0002556237218813906
s(S'had'
p2051
S'transferred'
p2052
tp2053
F0.0003834355828220859
s(S'location'
p2054
S'in'
p2055
tp2056
F0.0001278118609406953
s(S'leave'
p2057
S'[[con]]'
p2058
tp2059
F0.0001278118609406953
s(S'[[con]]'
p2060
S'filmed'
p2061
tp2062
F0.0001278118609406953
s(S'played'
p2063
S'[[prp]]'
p2064
tp2065
F0.0015337423312883436
s(S'entered'
p2066
S'to'
p2067
tp2068
F0.0001278118609406953
s(S'elected'
p2069
S'[[con]]'
p2070
tp2071
F0.0003834355828220859
s(S'is'
p2072
S'largest'
p2073
tp2074
F0.0001278118609406953
s(g552
g441
tp2075
F0.0001278118609406953
s(S'tour'
p2076
S'in'
p2077
tp2078
F0.0008946830265848671
s(S'[[det]]'
p2079
g1899
tp2080
F0.0011503067484662577
s(S'born'
p2081
S'was'
p2082
tp2083
F0.0001278118609406953
s(S'[[adj]]'
p2084
S'place'
p2085
tp2086
F0.0002556237218813906
s(S'[[adj]]'
p2087
S'career'
p2088
tp2089
F0.0010224948875255625
s(S'transferred'
p2090
S'[[det]]'
p2091
tp2092
F0.0001278118609406953
s(S'formerly'
p2093
S'operated'
p2094
tp2095
F0.0001278118609406953
s(S'started'
p2096
S'with'
p2097
tp2098
F0.0001278118609406953
s(S'has'
p2099
S'previously'
p2100
tp2101
F0.001278118609406953
s(S'[[adj]]'
p2102
g639
tp2103
F0.0001278118609406953
s(S'[[det]]'
p2104
S'ran'
p2105
tp2106
F0.0001278118609406953
s(S'resigned'
p2107
S'[[det]]'
p2108
tp2109
F0.0001278118609406953
s(S'[[det]]'
p2110
S'department'
p2111
tp2112
F0.0002556237218813906
s(S'situated'
p2113
S'to'
p2114
tp2115
F0.0002556237218813906
s(S'were'
p2116
S'built'
p2117
tp2118
F0.0002556237218813906
s(S'leave'
p2119
S'[[prp]]'
p2120
tp2121
F0.0001278118609406953
s(S'[[adj]]'
p2122
S'freestyle'
p2123
tp2124
F0.0001278118609406953
s(S'founded'
p2125
S'of'
p2126
tp2127
F0.0001278118609406953
s(S'who'
p2128
S'ruled'
p2129
tp2130
F0.0001278118609406953
s(S'is'
p2131
S'transferred'
p2132
tp2133
F0.0001278118609406953
s(S'named'
p2134
S'as'
p2135
tp2136
F0.0007668711656441718
s(S'school'
p2137
S'to'
p2138
tp2139
F0.0001278118609406953
s(S'returning'
p2140
S'with'
p2141
tp2142
F0.0002556237218813906
s(S'moved'
p2143
S'over'
p2144
tp2145
F0.0002556237218813906
s(S'where'
p2146
S'played'
p2147
tp2148
F0.0005112474437627812
s(S'seasons'
p2149
S'in'
p2150
tp2151
F0.0005112474437627812
s(S'lake'
p2152
S'at'
p2153
tp2154
F0.0001278118609406953
s(S'[[adj]]'
p2155
g1033
tp2156
F0.0001278118609406953
s(S'is'
p2157
S'head'
p2158
tp2159
F0.0003834355828220859
s(S'called'
p2160
S'to'
p2161
tp2162
F0.0003834355828220859
s(S'for'
p2163
S'played'
p2164
tp2165
F0.0001278118609406953
s(S'times'
p2166
S'[[con]]'
p2167
tp2168
F0.0002556237218813906
s(S'has'
p2169
S'moved'
p2170
tp2171
F0.0002556237218813906
s(S'had'
p2172
S'founded'
p2173
tp2174
F0.0002556237218813906
s(g220
S'university'
p2175
tp2176
F0.0002556237218813906
s(S'[[num]]'
p2177
S'years'
p2178
tp2179
F0.0016615541922290389
s(S'served'
p2180
S'[[pro]]'
p2181
tp2182
F0.0001278118609406953
s(S'scored'
p2183
S'[[con]]'
p2184
tp2185
F0.0001278118609406953
s(S'was'
p2186
S'promoted'
p2187
tp2188
F0.0014059304703476483
s(S'later'
p2189
S'founded'
p2190
tp2191
F0.0002556237218813906
s(S'cricket'
p2192
S'for'
p2193
tp2194
F0.0016615541922290389
s(S'[[num]]'
p2195
S'matches'
p2196
tp2197
F0.0048568507157464216
s(S'schools'
p2198
S'for'
p2199
tp2200
F0.0001278118609406953
s(S'be'
p2201
S'assigned'
p2202
tp2203
F0.0001278118609406953
s(S'that'
p2204
S'took'
p2205
tp2206
F0.0001278118609406953
s(g711
S'to'
p2207
tp2208
F0.0001278118609406953
s(S'known'
p2209
S'in'
p2210
tp2211
F0.0015337423312883436
s(g52
g728
tp2212
F0.0001278118609406953
s(S'universities'
p2213
S'of'
p2214
tp2215
F0.0001278118609406953
s(S'center'
p2216
S'in'
p2217
tp2218
F0.0007668711656441718
s(S'be'
p2219
S'educated'
p2220
tp2221
F0.0001278118609406953
s(S'come'
p2222
S'to'
p2223
tp2224
F0.0006390593047034765
s(S'then'
p2225
S'served'
p2226
tp2227
F0.0014059304703476483
s(S'[[num]]'
p2228
S'career'
p2229
tp2230
F0.0001278118609406953
s(S'[[con]]'
p2231
S'members'
p2232
tp2233
F0.0001278118609406953
s(S'received'
p2234
S'to'
p2235
tp2236
F0.0002556237218813906
s(S'founded'
p2237
S'[[con]]'
p2238
tp2239
F0.0002556237218813906
s(S'was'
p2240
S'dropped'
p2241
tp2242
F0.0007668711656441718
s(S'commander'
p2243
S'of'
p2244
tp2245
F0.0010224948875255625
s(S'won'
p2246
S'in'
p2247
tp2248
F0.0006390593047034765
s(S'was'
p2249
S'retired'
p2250
tp2251
F0.0001278118609406953
s(S'[[num]]'
p2252
S'debut'
p2253
tp2254
F0.0002556237218813906
s(S'enrolled'
p2255
S'[[det]]'
p2256
tp2257
F0.0001278118609406953
s(S'of'
p2258
S'born'
p2259
tp2260
F0.0001278118609406953
s(S'emigrating'
p2261
S'to'
p2262
tp2263
F0.0001278118609406953
s(S'field'
p2264
S'hockey'
p2265
tp2266
F0.0008946830265848671
s(S'then'
p2267
S'ran'
p2268
tp2269
F0.0002556237218813906
s(S'started'
p2270
S'to'
p2271
tp2272
F0.0002556237218813906
s(S'base'
p2273
S'in'
p2274
tp2275
F0.0002556237218813906
s(S'[[pro]]'
p2276
S'return'
p2277
tp2278
F0.0001278118609406953
s(S'[[det]]'
p2279
S'judge'
p2280
tp2281
F0.0001278118609406953
s(S'came'
p2282
S'at'
p2283
tp2284
F0.0002556237218813906
s(S'upon'
p2285
g1406
tp2286
F0.0002556237218813906
s(S'minister'
p2287
S'[[con]]'
p2288
tp2289
F0.0002556237218813906
s(S'attended'
p2290
g52
tp2291
F0.0001278118609406953
s(S'[[det]]'
p2292
S'living'
p2293
tp2294
F0.0001278118609406953
s(S'innings'
p2295
S'of'
p2296
tp2297
F0.0001278118609406953
s(g439
S'after'
p2298
tp2299
F0.0001278118609406953
s(S'returned'
p2300
S'was'
p2301
tp2302
F0.0001278118609406953
s(g857
S'on'
p2303
tp2304
F0.0003834355828220859
s(S'graduated'
p2305
S'as'
p2306
tp2307
F0.0001278118609406953
s(S'who'
p2308
S'came'
p2309
tp2310
F0.0002556237218813906
s(S'born'
p2311
S'[[num]]'
p2312
tp2313
F0.0001278118609406953
s(S'becoming'
p2314
S'president'
p2315
tp2316
F0.0001278118609406953
s(S'played'
p2317
S'with'
p2318
tp2319
F0.0028118609406952966
s(S'[[adj]]'
p2320
S'market'
p2321
tp2322
F0.0001278118609406953
s(S'[[det]]'
p2323
S'served'
p2324
tp2325
F0.0002556237218813906
s(S'fled'
p2326
S'back'
p2327
tp2328
F0.0001278118609406953
s(S'[[con]]'
p2329
S'located'
p2330
tp2331
F0.0001278118609406953
s(S'[[mod]]'
p2332
S'come'
p2333
tp2334
F0.0002556237218813906
s(S'educated'
p2335
S'in'
p2336
tp2337
F0.0006390593047034765
s(S'for'
p2338
g2177
tp2339
F0.0005112474437627812
s(S'enrolled'
p2340
S'[[con]]'
p2341
tp2342
F0.0001278118609406953
s(S'broadcast'
p2343
S'with'
p2344
tp2345
F0.0001278118609406953
s(S'awarded'
p2346
S'[[num]]'
p2347
tp2348
F0.0002556237218813906
s(S'had'
p2349
S'retired'
p2350
tp2351
F0.0001278118609406953
s(S'became'
p2352
S'coach'
p2353
tp2354
F0.0006390593047034765
s(S'[[num]]'
p2355
S'graduated'
p2356
tp2357
F0.0002556237218813906
s(S'college'
p2358
g52
tp2359
F0.0001278118609406953
s(S'who'
p2360
g1670
tp2361
F0.0001278118609406953
s(S'been'
p2362
S'selected'
p2363
tp2364
F0.0005112474437627812
s(S'member'
p2365
S'who'
p2366
tp2367
F0.0001278118609406953
s(S'[[num]]'
p2368
S'studied'
p2369
tp2370
F0.0001278118609406953
s(S'[[adj]]'
p2371
S'parts'
p2372
tp2373
F0.0001278118609406953
s(S'[[adj]]'
p2374
S'lake'
p2375
tp2376
F0.0005112474437627812
s(g1181
S'of'
p2377
tp2378
F0.0001278118609406953
s(S'coach'
p2379
S'for'
p2380
tp2381
F0.0006390593047034765
s(S'also'
p2382
S'enrolled'
p2383
tp2384
F0.0002556237218813906
s(S'served'
p2385
S'at'
p2386
tp2387
F0.0015337423312883436
s(S'basketball'
p2388
S'player'
p2389
tp2390
F0.0010224948875255625
s(S'well'
p2391
S'known'
p2392
tp2393
F0.0002556237218813906
s(S'party'
p2394
S'in'
p2395
tp2396
F0.0005112474437627812
s(S'state'
p2397
S'[[adj]]'
p2398
tp2399
F0.0001278118609406953
s(g2085
S'in'
p2400
tp2401
F0.0003834355828220859
s(S'appointment'
p2402
S'with'
p2403
tp2404
F0.0001278118609406953
s(S'[[det]]'
p2405
S'released'
p2406
tp2407
F0.0001278118609406953
s(S'[[adj]]'
p2408
g527
tp2409
F0.0002556237218813906
s(S'village'
p2410
S'located'
p2411
tp2412
F0.0007668711656441718
s(S'[[con]]'
p2413
S'studied'
p2414
tp2415
F0.0003834355828220859
s(S'of'
p2416
S'universities'
p2417
tp2418
F0.0001278118609406953
s(S'[[con]]'
p2419
S'school'
p2420
tp2421
F0.0001278118609406953
s(S'never'
p2422
S'received'
p2423
tp2424
F0.0001278118609406953
s(S'where'
p2425
S'received'
p2426
tp2427
F0.0002556237218813906
s(S'[[con]]'
p2428
S'teams'
p2429
tp2430
F0.0001278118609406953
s(S'lead'
p2431
S'to'
p2432
tp2433
F0.0001278118609406953
s(g1346
S'as'
p2434
tp2435
F0.0010224948875255625
s(S'transferred'
p2436
S'back'
p2437
tp2438
F0.0002556237218813906
s(S'capital'
p2439
S'[[det]]'
p2440
tp2441
F0.0001278118609406953
s(S'scored'
p2442
S'against'
p2443
tp2444
F0.0005112474437627812
s(S'became'
p2445
S'head'
p2446
tp2447
F0.0006390593047034765
s(S'[[prp]]'
p2448
S'ambassador'
p2449
tp2450
F0.0001278118609406953
s(S'resigned'
p2451
S'with'
p2452
tp2453
F0.0001278118609406953
s(S'[[adj]]'
p2454
S'come'
p2455
tp2456
F0.0001278118609406953
s(S'[[con]]'
p2457
S'captained'
p2458
tp2459
F0.0002556237218813906
s(S'[[adj]]'
p2460
S'longest'
p2461
tp2462
F0.0001278118609406953
s(S'[[con]]'
p2463
S'ruled'
p2464
tp2465
F0.0002556237218813906
s(S'admission'
p2466
S'to'
p2467
tp2468
F0.0001278118609406953
s(S'came'
p2469
S'against'
p2470
tp2471
F0.0001278118609406953
s(S'[[adj]]'
p2472
g1309
tp2473
F0.0002556237218813906
s(S'also'
p2474
S'established'
p2475
tp2476
F0.0001278118609406953
s(g1652
S'frontier'
p2477
tp2478
F0.0001278118609406953
s(S'[[det]]'
p2479
S'dropped'
p2480
tp2481
F0.0001278118609406953
s(S'located'
p2482
S'at'
p2483
tp2484
F0.0005112474437627812
s(S'headquarters'
p2485
S'[[det]]'
p2486
tp2487
F0.0001278118609406953
s(S'promoted'
p2488
S'in'
p2489
tp2490
F0.0002556237218813906
s(S'which'
p2491
g2431
tp2492
F0.0001278118609406953
s(S'again'
p2493
S'ran'
p2494
tp2495
F0.0001278118609406953
s(S'[[det]]'
p2496
g1125
tp2497
F0.0002556237218813906
s(S'[[det]]'
p2498
g2264
tp2499
F0.0002556237218813906
s(S'where'
p2500
S'studied'
p2501
tp2502
F0.0001278118609406953
s(S'[[det]]'
p2503
S'situated'
p2504
tp2505
F0.0001278118609406953
s(S'champion'
p2506
S'[[num]]'
p2507
tp2508
F0.0001278118609406953
s(S'regions'
p2509
S'[[con]]'
p2510
tp2511
F0.0001278118609406953
s(S'[[det]]'
p2512
S'acquired'
p2513
tp2514
F0.0001278118609406953
s(S'for'
p2515
S'coming'
p2516
tp2517
F0.0003834355828220859
s(S'teams'
p2518
S'of'
p2519
tp2520
F0.0002556237218813906
s(S'played'
p2521
S'which'
p2522
tp2523
F0.0002556237218813906
s(S'joined'
p2524
S'later'
p2525
tp2526
F0.0001278118609406953
s(S'graduate'
p2527
S'in'
p2528
tp2529
F0.0001278118609406953
s(S'states'
p2530
S'in'
p2531
tp2532
F0.0001278118609406953
s(S'[[det]]'
p2533
g898
tp2534
F0.0001278118609406953
s(S'title'
p2535
S'[[det]]'
p2536
tp2537
F0.0001278118609406953
s(S'range'
p2538
S'[[det]]'
p2539
tp2540
F0.0002556237218813906
s(S'acquired'
p2541
S'with'
p2542
tp2543
F0.0001278118609406953
s(S'[[det]]'
p2544
S'entered'
p2545
tp2546
F0.0001278118609406953
s(S'received'
p2547
S'more'
p2548
tp2549
F0.0001278118609406953
s(g1840
S'in'
p2550
tp2551
F0.0006390593047034765
s(S'lead'
p2552
S'[[con]]'
p2553
tp2554
F0.0002556237218813906
s(S'to'
p2555
S'lead'
p2556
tp2557
F0.0003834355828220859
s(S'unit'
p2558
S'[[con]]'
p2559
tp2560
F0.0001278118609406953
s(S'[[adj]]'
p2561
S'field'
p2562
tp2563
F0.0006390593047034765
s(S'[[det]]'
p2564
S'cantonment'
p2565
tp2566
F0.0001278118609406953
s(S'[[det]]'
p2567
S'community'
p2568
tp2569
F0.0001278118609406953
s(S'city'
p2570
S'[[det]]'
p2571
tp2572
F0.0001278118609406953
s(S'have'
p2573
g1377
tp2574
F0.0002556237218813906
s(S'is'
p2575
S'[[det]]'
p2576
tp2577
F0.0001278118609406953
s(S'was'
p2578
S'champion'
p2579
tp2580
F0.0001278118609406953
s(S'cities'
p2581
S'in'
p2582
tp2583
F0.0005112474437627812
s(S'was'
p2584
S'elected'
p2585
tp2586
F0.0016615541922290389
s(g348
S'to'
p2587
tp2588
F0.0001278118609406953
s(S'has'
p2589
S'competed'
p2590
tp2591
F0.0001278118609406953
s(S'including'
p2592
S'what'
p2593
tp2594
F0.0002556237218813906
s(g2350
S'from'
p2595
tp2596
F0.0008946830265848671
s(g1688
S'by'
p2597
tp2598
F0.0001278118609406953
s(S'commanded'
p2599
S'[[adj]]'
p2600
tp2601
F0.0001278118609406953
s(S'champion'
p2602
S'at'
p2603
tp2604
F0.0001278118609406953
s(S'[[det]]'
p2605
S'honored'
p2606
tp2607
F0.0001278118609406953
s(S'[[det]]'
p2608
S'commission'
p2609
tp2610
F0.0007668711656441718
s(S'debut'
p2611
S'[[num]]'
p2612
tp2613
F0.0002556237218813906
s(S'selected'
p2614
S'in'
p2615
tp2616
F0.0005112474437627812
s(S'became'
p2617
S'member'
p2618
tp2619
F0.0003834355828220859
s(S'in'
p2620
S'called'
p2621
tp2622
F0.0001278118609406953
s(S'[[adj]]'
p2623
S'aired'
p2624
tp2625
F0.0001278118609406953
s(S'before'
p2626
S'moved'
p2627
tp2628
F0.0001278118609406953
s(S'were'
p2629
S'used'
p2630
tp2631
F0.0001278118609406953
s(S'left'
p2632
S'go'
p2633
tp2634
F0.0001278118609406953
s(S'as'
p2635
g2279
tp2636
F0.0005112474437627812
s(S'was'
p2637
S'returning'
p2638
tp2639
F0.0002556237218813906
s(S'[[adj]]'
p2640
S'students'
p2641
tp2642
F0.0002556237218813906
s(S'left'
p2643
S'[[adj]]'
p2644
tp2645
F0.0002556237218813906
s(S'match'
p2646
S'against'
p2647
tp2648
F0.0014059304703476483
s(S'ward'
p2649
S'in'
p2650
tp2651
F0.0002556237218813906
s(S'appointment'
p2652
S'as'
p2653
tp2654
F0.0002556237218813906
s(S'[[adj]]'
p2655
g1639
tp2656
F0.0005112474437627812
s(S'[[det]]'
p2657
S'colleges'
p2658
tp2659
F0.0001278118609406953
s(S'[[adj]]'
p2660
S'duty'
p2661
tp2662
F0.0002556237218813906
s(S'programs'
p2663
S'with'
p2664
tp2665
F0.0001278118609406953
s(S'[[prp]]'
p2666
S'career'
p2667
tp2668
F0.0003834355828220859
s(S'over'
p2669
S'[[num]]'
p2670
tp2671
F0.0006390593047034765
s(S'village'
p2672
S'tehsil'
p2673
tp2674
F0.0001278118609406953
s(S'established'
p2675
S'in'
p2676
tp2677
F0.0011503067484662577
s(S'also'
p2678
S'appointed'
p2679
tp2680
F0.0010224948875255625
s(S'[[det]]'
p2681
S'largest'
p2682
tp2683
F0.002556237218813906
s(S'had'
p2684
S'lost'
p2685
tp2686
F0.0001278118609406953
s(S'[[adj]]'
p2687
S'territories'
p2688
tp2689
F0.0001278118609406953
s(S'appointment'
p2690
S'in'
p2691
tp2692
F0.0003834355828220859
s(S'history'
p2693
S'in'
p2694
tp2695
F0.0001278118609406953
s(S'honored'
p2696
S'at'
p2697
tp2698
F0.0002556237218813906
s(S'joined'
p2699
S'at'
p2700
tp2701
F0.0005112474437627812
s(S'is'
p2702
g734
tp2703
F0.0007668711656441718
s(S'[[adj]]'
p2704
S'lieutenant'
p2705
tp2706
F0.0005112474437627812
s(S'who'
p2707
S'graduated'
p2708
tp2709
F0.0002556237218813906
s(S'[[det]]'
p2710
S'constituency'
p2711
tp2712
F0.0003834355828220859
s(S'river'
p2713
S'of'
p2714
tp2715
F0.0002556237218813906
s(S'attended'
p2716
S'from'
p2717
tp2718
F0.0002556237218813906
s(g920
S'in'
p2719
tp2720
F0.0001278118609406953
s(S'had'
p2721
S'attended'
p2722
tp2723
F0.0003834355828220859
s(S'who'
p2724
S'studied'
p2725
tp2726
F0.0001278118609406953
s(S'[[adj]]'
p2727
S'air'
p2728
tp2729
F0.0001278118609406953
s(S'who'
p2730
S'ran'
p2731
tp2732
F0.0001278118609406953
s(S'[[prp]]'
p2733
S'cricket'
p2734
tp2735
F0.0001278118609406953
s(g634
S'team'
p2736
tp2737
F0.0002556237218813906
s(S'also'
p2738
g731
tp2739
F0.0005112474437627812
s(S'citizen'
p2740
S'of'
p2741
tp2742
F0.0002556237218813906
s(S'[[det]]'
p2743
S'location'
p2744
tp2745
F0.0001278118609406953
s(S'dropped'
p2746
S'for'
p2747
tp2748
F0.0002556237218813906
s(S'[[det]]'
p2749
S'municipality'
p2750
tp2751
F0.0010224948875255625
s(g1337
S'located'
p2752
tp2753
F0.0003834355828220859
s(g2147
S'in'
p2754
tp2755
F0.004984662576687116
s(S'broadcast'
p2756
S'to'
p2757
tp2758
F0.0001278118609406953
s(S'district'
p2759
S'for'
p2760
tp2761
F0.0001278118609406953
s(S'[[con]]'
p2762
S'was'
p2763
tp2764
F0.0002556237218813906
s(S'also'
p2765
S'scored'
p2766
tp2767
F0.0006390593047034765
s(S'not'
p2768
S'leave'
p2769
tp2770
F0.0001278118609406953
s(S'with'
p2771
S'teams'
p2772
tp2773
F0.0001278118609406953
s(S'became'
p2774
S'president'
p2775
tp2776
F0.0007668711656441718
s(S'station'
p2777
S'with'
p2778
tp2779
F0.0001278118609406953
s(S'of'
p2780
S'schools'
p2781
tp2782
F0.0001278118609406953
s(S'broadcast'
p2783
S'on'
p2784
tp2785
F0.0007668711656441718
s(S'take'
p2786
S'command'
p2787
tp2788
F0.0002556237218813906
s(S'is'
p2789
S'based'
p2790
tp2791
F0.0003834355828220859
s(S'[[det]]'
p2792
S'founded'
p2793
tp2794
F0.0001278118609406953
s(S'lost'
p2795
S'[[num]]'
p2796
tp2797
F0.0003834355828220859
s(S'arrived'
p2798
S'after'
p2799
tp2800
F0.0001278118609406953
s(S'known'
p2801
g2575
tp2802
F0.0001278118609406953
s(S'join'
p2803
S'up'
p2804
tp2805
F0.0002556237218813906
s(S'[[det]]'
p2806
S'air'
p2807
tp2808
F0.0001278118609406953
s(S'is'
p2809
S'nominated'
p2810
tp2811
F0.0001278118609406953
s(S'located'
p2812
S'between'
p2813
tp2814
F0.0001278118609406953
s(S'was'
p2815
S'living'
p2816
tp2817
F0.0002556237218813906
s(S'appearance'
p2818
S'[[det]]'
p2819
tp2820
F0.0001278118609406953
s(S'to'
p2821
S'bolster'
p2822
tp2823
F0.0001278118609406953
s(S'hockey'
p2824
S'forward'
p2825
tp2826
F0.0001278118609406953
s(S'commanded'
p2827
S'[[num]]'
p2828
tp2829
F0.0002556237218813906
s(S'while'
p2830
S'attended'
p2831
tp2832
F0.0001278118609406953
s(g2446
S'of'
p2833
tp2834
F0.0014059304703476483
s(S'[[con]]'
p2835
S'also'
p2836
tp2837
F0.0002556237218813906
s(S'commission'
p2838
S'in'
p2839
tp2840
F0.0003834355828220859
s(S'attended'
p2841
S'[[num]]'
p2842
tp2843
F0.0001278118609406953
s(S'was'
p2844
S'head'
p2845
tp2846
F0.0008946830265848671
s(S'mostly'
p2847
S'known'
p2848
tp2849
F0.0001278118609406953
s(S'fought'
p2850
S'in'
p2851
tp2852
F0.0001278118609406953
s(S'serve'
p2853
S'[[det]]'
p2854
tp2855
F0.0002556237218813906
s(S'commissioned'
p2856
S'lieutenant'
p2857
tp2858
F0.0001278118609406953
s(S'town'
p2859
S'[[det]]'
p2860
tp2861
F0.0002556237218813906
s(S'appointed'
p2862
S'[[det]]'
p2863
tp2864
F0.0006390593047034765
s(S'was'
p2865
g468
tp2866
F0.0010224948875255625
s(S'also'
p2867
S'lost'
p2868
tp2869
F0.0001278118609406953
s(S'as'
p2870
S'portions'
p2871
tp2872
F0.0001278118609406953
s(S'[[adj]]'
p2873
S'pitcher'
p2874
tp2875
F0.0001278118609406953
s(S'colleges'
p2876
S'in'
p2877
tp2878
F0.0002556237218813906
s(S'was'
p2879
S'commissioned'
p2880
tp2881
F0.0021728016359918202
s(S'later'
p2882
S'acquired'
p2883
tp2884
F0.0003834355828220859
s(S'graduate'
p2885
S'from'
p2886
tp2887
F0.0006390593047034765
s(S'century'
p2888
S'for'
p2889
tp2890
F0.0001278118609406953
s(S'[[con]]'
p2891
S'won'
p2892
tp2893
F0.0005112474437627812
s(S'[[adj]]'
p2894
S'town'
p2895
tp2896
F0.0008946830265848671
s(S'awarded'
p2897
S'[[det]]'
p2898
tp2899
F0.002044989775051125
s(g1526
S'at'
p2900
tp2901
F0.0008946830265848671
s(S'campus'
p2902
S'[[con]]'
p2903
tp2904
F0.0002556237218813906
s(S'[[adj]]'
p2905
S'countries'
p2906
tp2907
F0.0001278118609406953
s(S'oldest'
p2908
S'in'
p2909
tp2910
F0.0001278118609406953
s(S'also'
p2911
S'operates'
p2912
tp2913
F0.0002556237218813906
s(S'also'
p2914
S'member'
p2915
tp2916
F0.0003834355828220859
s(S'[[con]]'
p2917
S'schools'
p2918
tp2919
F0.0001278118609406953
s(S'has'
p2920
S'attended'
p2921
tp2922
F0.0003834355828220859
s(S'became'
p2923
S'ambassador'
p2924
tp2925
F0.0002556237218813906
s(S'left'
p2926
S'[[num]]'
p2927
tp2928
F0.0001278118609406953
s(S'filmed'
p2929
S'on'
p2930
tp2931
F0.0001278118609406953
s(S'appearance'
p2932
S'for'
p2933
tp2934
F0.0006390593047034765
s(S'being'
p2935
g1434
tp2936
F0.0002556237218813906
s(S'[[adj]]'
p2937
S'selected'
p2938
tp2939
F0.0001278118609406953
s(S'retired'
p2940
S'when'
p2941
tp2942
F0.0001278118609406953
s(S'of'
p2943
S'located'
p2944
tp2945
F0.0001278118609406953
s(S'is'
p2946
S'assigned'
p2947
tp2948
F0.0001278118609406953
s(S'also'
p2949
S'broadcast'
p2950
tp2951
F0.0002556237218813906
s(S'[[det]]'
p2952
g1146
tp2953
F0.0001278118609406953
s(S'leave'
p2954
S'for'
p2955
tp2956
F0.0002556237218813906
s(S'[[con]]'
p2957
S'assigned'
p2958
tp2959
F0.0002556237218813906
s(S'seasons'
p2960
S'for'
p2961
tp2962
F0.0003834355828220859
s(S'attended'
p2963
S'later'
p2964
tp2965
F0.0001278118609406953
s(S'again'
p2966
S'played'
p2967
tp2968
F0.0002556237218813906
s(S'arrived'
p2969
S'from'
p2970
tp2971
F0.0002556237218813906
s(S'gateway'
p2972
S'to'
p2973
tp2974
F0.0002556237218813906
s(S'only'
p2975
S'appearance'
p2976
tp2977
F0.0001278118609406953
s(S'later'
p2978
S'play'
p2979
tp2980
F0.0002556237218813906
s(S'charge'
p2981
S'[[det]]'
p2982
tp2983
F0.0001278118609406953
s(S'redesignated'
p2984
S'as'
p2985
tp2986
F0.0002556237218813906
s(S'force'
p2987
S'in'
p2988
tp2989
F0.0002556237218813906
s(S'[[adj]]'
p2990
S'states'
p2991
tp2992
F0.0006390593047034765
s(S'[[adj]]'
p2993
S'returned'
p2994
tp2995
F0.0001278118609406953
s(S'graduated'
p2996
S'[[con]]'
p2997
tp2998
F0.0021728016359918202
s(S'had'
p2999
S'previously'
p3000
tp3001
F0.0008946830265848671
s(S'[[adj]]'
p3002
S'unit'
p3003
tp3004
F0.0005112474437627812
s(S'candidate'
p3005
S'for'
p3006
tp3007
F0.0003834355828220859
s(S'again'
p3008
S'joined'
p3009
tp3010
F0.0002556237218813906
s(S'[[det]]'
p3011
S'win'
p3012
tp3013
F0.0008946830265848671
s(S'[[det]]'
p3014
g1233
tp3015
F0.0002556237218813906
s(S'selected'
p3016
S'against'
p3017
tp3018
F0.0003834355828220859
s(S'governor'
p3019
S'[[con]]'
p3020
tp3021
F0.0001278118609406953
s(S'when'
p3022
S'started'
p3023
tp3024
F0.0001278118609406953
s(S'also'
p3025
S'testified'
p3026
tp3027
F0.0002556237218813906
s(S'police'
p3028
S'station'
p3029
tp3030
F0.0001278118609406953
s(S'[[adj]]'
p3031
S'miles'
p3032
tp3033
F0.0003834355828220859
s(S'never'
p3034
S'used'
p3035
tp3036
F0.0001278118609406953
s(S'wins'
p3037
S'[[det]]'
p3038
tp3039
F0.0001278118609406953
s(S'[[adj]]'
p3040
g2482
tp3041
F0.0003834355828220859
s(S'as'
p3042
S'station'
p3043
tp3044
F0.0001278118609406953
s(S'typically'
p3045
g2990
tp3046
F0.0001278118609406953
s(S'known'
p3047
S'throughout'
p3048
tp3049
F0.0002556237218813906
s(S'towns'
p3050
S'lt'
p3051
tp3052
F0.0001278118609406953
s(S'recalled'
p3053
S'to'
p3054
tp3055
F0.0001278118609406953
s(S'members'
p3056
S'to'
p3057
tp3058
F0.0001278118609406953
s(S'[[det]]'
p3059
g210
tp3060
F0.0001278118609406953
s(S'was'
p3061
g551
tp3062
F0.0016615541922290389
s(S'hockey'
p3063
S'midfielder'
p3064
tp3065
F0.0001278118609406953
s(S'promoted'
p3066
S'to'
p3067
tp3068
F0.0005112474437627812
s(S'[[det]]'
p3069
S'hospital'
p3070
tp3071
F0.0001278118609406953
s(S'serves'
p3072
S'as'
p3073
tp3074
F0.0001278118609406953
s(S'[[adj]]'
p3075
S'charge'
p3076
tp3077
F0.0001278118609406953
s(g107
S'of'
p3078
tp3079
F0.0002556237218813906
s(S'adviser'
p3080
S'to'
p3081
tp3082
F0.0002556237218813906
s(S'played'
p3083
S'between'
p3084
tp3085
F0.0001278118609406953
s(S'scored'
p3086
S'in'
p3087
tp3088
F0.0001278118609406953
s(S'ranked'
p3089
S'[[det]]'
p3090
tp3091
F0.0001278118609406953
s(S'given'
p3092
S'[[adj]]'
p3093
tp3094
F0.0001278118609406953
s(S'now'
p3095
S'located'
p3096
tp3097
F0.0002556237218813906
s(S'more'
p3098
S'recently'
p3099
tp3100
F0.0001278118609406953
s(S'[[adj]]'
p3101
S'dictator'
p3102
tp3103
F0.0001278118609406953
s(S'involved'
p3104
S'[[pro]]'
p3105
tp3106
F0.0001278118609406953
s(S'[[prp]]'
p3107
S'commission'
p3108
tp3109
F0.0002556237218813906
s(S'station'
p3110
S'off'
p3111
tp3112
F0.0001278118609406953
s(S'been'
p3113
S'promoted'
p3114
tp3115
F0.0003834355828220859
s(S'which'
p3116
S'returned'
p3117
tp3118
F0.0001278118609406953
s(S'island'
p3119
S'in'
p3120
tp3121
F0.0002556237218813906
s(S'region'
p3122
S'in'
p3123
tp3124
F0.0001278118609406953
s(S'ran'
p3125
S'for'
p3126
tp3127
F0.0007668711656441718
s(S'station'
p3128
S'is'
p3129
tp3130
F0.0002556237218813906
s(S'joined'
p3131
S'now'
p3132
tp3133
F0.0001278118609406953
s(S'[[adj]]'
p3134
g1371
tp3135
F0.0003834355828220859
s(S'soldiers'
p3136
S'[[con]]'
p3137
tp3138
F0.0001278118609406953
s(S'being'
p3139
S'transferred'
p3140
tp3141
F0.0001278118609406953
s(S'being'
p3142
S'shown'
p3143
tp3144
F0.0001278118609406953
s(S'[[det]]'
p3145
S'debut'
p3146
tp3147
F0.0002556237218813906
s(S'born'
p3148
S'from'
p3149
tp3150
F0.0001278118609406953
s(S'[[con]]'
p3151
S'entered'
p3152
tp3153
F0.0002556237218813906
s(S'university'
p3154
S'[[con]]'
p3155
tp3156
F0.0001278118609406953
s(S'[[det]]'
p3157
S'century'
p3158
tp3159
F0.0001278118609406953
s(S'returned'
p3160
S'[[det]]'
p3161
tp3162
F0.0001278118609406953
s(S'cover'
p3163
S'[[det]]'
p3164
tp3165
F0.0001278118609406953
s(S'[[det]]'
p3166
S'district'
p3167
tp3168
F0.0016615541922290389
s(S'help'
p3169
S'win'
p3170
tp3171
F0.0002556237218813906
s(S'command'
p3172
S'[[con]]'
p3173
tp3174
F0.0002556237218813906
s(S'of'
p3175
S'cities'
p3176
tp3177
F0.0001278118609406953
s(S'[[adj]]'
p3178
S'representative'
p3179
tp3180
F0.0003834355828220859
s(S'member'
p3181
S'of'
p3182
tp3183
F0.001278118609406953
s(S'[[det]]'
p3184
S'[[con]]'
p3185
tp3186
F0.0001278118609406953
s(S'in'
p3187
S'school'
p3188
tp3189
F0.0001278118609406953
s(S'situated'
p3190
S'between'
p3191
tp3192
F0.0001278118609406953
s(S'school'
p3193
S'in'
p3194
tp3195
F0.001278118609406953
s(S'serve'
p3196
g2635
tp3197
F0.0001278118609406953
s(S'in'
p3198
S'[[adj]]'
p3199
tp3200
F0.0008946830265848671
s(S'received'
p3201
S'into'
p3202
tp3203
F0.0001278118609406953
s(S'[[det]]'
p3204
g1516
tp3205
F0.0001278118609406953
s(S'against'
p3206
S'which'
p3207
tp3208
F0.0001278118609406953
s(S'[[adj]]'
p3209
S'scorer'
p3210
tp3211
F0.0006390593047034765
s(S'come'
p3212
S'from'
p3213
tp3214
F0.0005112474437627812
s(S'then'
p3215
S'president'
p3216
tp3217
F0.0002556237218813906
s(S'[[adj]]'
p3218
S'seasons'
p3219
tp3220
F0.0002556237218813906
s(S'of'
p3221
S'matches'
p3222
tp3223
F0.0003834355828220859
s(S'been'
p3224
S'known'
p3225
tp3226
F0.0001278118609406953
s(g442
S'in'
p3227
tp3228
F0.0003834355828220859
s(S'[[mod]]'
p3229
S'serve'
p3230
tp3231
F0.0006390593047034765
s(S'be'
p3232
S'selected'
p3233
tp3234
F0.0005112474437627812
s(g52
S'debut'
p3235
tp3236
F0.0003834355828220859
s(S'up'
p3237
S'[[adj]]'
p3238
tp3239
F0.0001278118609406953
s(S'offices'
p3240
S'in'
p3241
tp3242
F0.0001278118609406953
s(S'headquarters'
p3243
S'in'
p3244
tp3245
F0.0001278118609406953
s(S'so'
p3246
S'left'
p3247
tp3248
F0.0001278118609406953
s(S'in'
p3249
S'matches'
p3250
tp3251
F0.0003834355828220859
s(S'was'
p3252
S'posted'
p3253
tp3254
F0.0005112474437627812
s(S'helping'
p3255
S'[[pro]]'
p3256
tp3257
F0.0002556237218813906
s(S'[[det]]'
p3258
g1172
tp3259
F0.0005112474437627812
s(S'transferred'
p3260
S'where'
p3261
tp3262
F0.0001278118609406953
s(S'retired'
p3263
S'[[det]]'
p3264
tp3265
F0.0001278118609406953
s(S'reservoir'
p3266
S'in'
p3267
tp3268
F0.0001278118609406953
s(S'ranks'
p3269
S'as'
p3270
tp3271
F0.0001278118609406953
s(S'department'
p3272
S'in'
p3273
tp3274
F0.0001278118609406953
s(S'started'
p3275
S'up'
p3276
tp3277
F0.0001278118609406953
s(S'on'
p3278
S'[[adj]]'
p3279
tp3280
F0.0001278118609406953
s(S'[[adj]]'
p3281
g781
tp3282
F0.0001278118609406953
s(S'students'
p3283
S'from'
p3284
tp3285
F0.0005112474437627812
s(S'states'
p3286
S'of'
p3287
tp3288
F0.0006390593047034765
s(S'matches'
p3289
S'between'
p3290
tp3291
F0.0001278118609406953
s(S'of'
p3292
S'school'
p3293
tp3294
F0.0001278118609406953
s(S'played'
p3295
S'mostly'
p3296
tp3297
F0.0001278118609406953
s(S'before'
p3298
S'returned'
p3299
tp3300
F0.0001278118609406953
s(S'also'
p3301
S'came'
p3302
tp3303
F0.0002556237218813906
s(S'county'
p3304
S'coming'
p3305
tp3306
F0.0003834355828220859
s(S'member'
p3307
S'which'
p3308
tp3309
F0.0001278118609406953
s(S'as'
p3310
S'lost'
p3311
tp3312
F0.0003834355828220859
s(S'[[con]]'
p3313
S'[[num]]'
p3314
tp3315
F0.0002556237218813906
s(S'again'
p3316
S'appointed'
p3317
tp3318
F0.0002556237218813906
s(g1152
S'midfielder'
p3319
tp3320
F0.0001278118609406953
s(S'arrived'
p3321
S'back'
p3322
tp3323
F0.0001278118609406953
s(S'lake'
p3324
S'in'
p3325
tp3326
F0.0007668711656441718
s(S'studied'
p3327
S'from'
p3328
tp3329
F0.0002556237218813906
s(S'representative'
p3330
S'in'
p3331
tp3332
F0.0005112474437627812
s(S'with'
p3333
S'members'
p3334
tp3335
F0.0001278118609406953
s(S'founded'
p3336
S'on'
p3337
tp3338
F0.0001278118609406953
s(S'scored'
p3339
S'for'
p3340
tp3341
F0.0003834355828220859
s(S'form'
p3342
S'in'
p3343
tp3344
F0.0001278118609406953
s(S'[[con]]'
p3345
S'ambassador'
p3346
tp3347
F0.0001278118609406953
s(S'[[num]]'
p3348
S'tour'
p3349
tp3350
F0.0003834355828220859
s(S'play'
p3351
S'until'
p3352
tp3353
F0.0001278118609406953
s(S'[[adj]]'
p3354
S'invasion'
p3355
tp3356
F0.0001278118609406953
s(S'largest'
p3357
S'university'
p3358
tp3359
F0.0002556237218813906
s(S'has'
p3360
S'recognized'
p3361
tp3362
F0.0001278118609406953
s(S'[[num]]'
p3363
S'returned'
p3364
tp3365
F0.0001278118609406953
s(S'of'
p3366
S'students'
p3367
tp3368
F0.0001278118609406953
s(S'[[det]]'
p3369
S'campus'
p3370
tp3371
F0.0002556237218813906
s(S'saw'
p3372
S'win'
p3373
tp3374
F0.0001278118609406953
s(S'[[adj]]'
p3375
S'aircraft'
p3376
tp3377
F0.0001278118609406953
s(g1459
S'[[con]]'
p3378
tp3379
F0.0001278118609406953
s(g887
S'out'
p3380
tp3381
F0.0003834355828220859
s(g2123
S'swimmer'
p3382
tp3383
F0.0001278118609406953
s(S'[[num]]'
p3384
S'transferred'
p3385
tp3386
F0.0001278118609406953
s(S'border'
p3387
S'between'
p3388
tp3389
F0.0006390593047034765
s(S'volunteered'
p3390
S'at'
p3391
tp3392
F0.0001278118609406953
s(S'for'
p3393
S'tour'
p3394
tp3395
F0.0001278118609406953
s(S'helped'
p3396
S'in'
p3397
tp3398
F0.0001278118609406953
s(S'[[adj]]'
p3399
S'title'
p3400
tp3401
F0.0001278118609406953
s(S'president'
p3402
S'[[adj]]'
p3403
tp3404
F0.0001278118609406953
s(S'joined'
p3405
S'who'
p3406
tp3407
F0.0001278118609406953
s(S'[[det]]'
p3408
S'return'
p3409
tp3410
F0.0008946830265848671
s(S'[[adj]]'
p3411
S'hill'
p3412
tp3413
F0.0001278118609406953
s(S'soon'
p3414
S'joined'
p3415
tp3416
F0.0002556237218813906
s(S'left'
p3417
g52
tp3418
F0.0001278118609406953
s(S'served'
p3419
S'before'
p3420
tp3421
F0.0005112474437627812
s(S'in'
p3422
S'[[num]]'
p3423
tp3424
F0.0005112474437627812
s(S'lost'
p3425
S'at'
p3426
tp3427
F0.0002556237218813906
s(S'man'
p3428
S'from'
p3429
tp3430
F0.0001278118609406953
s(S'been'
p3431
S'established'
p3432
tp3433
F0.0001278118609406953
s(g1706
S'in'
p3434
tp3435
F0.0006390593047034765
s(S'[[con]]'
p3436
S'took'
p3437
tp3438
F0.0003834355828220859
s(S'mainly'
p3439
g600
tp3440
F0.0001278118609406953
s(S'had'
p3441
S'arrived'
p3442
tp3443
F0.0003834355828220859
s(S'[[con]]'
p3444
S'founded'
p3445
tp3446
F0.0002556237218813906
s(S'play'
p3447
S'[[det]]'
p3448
tp3449
F0.0003834355828220859
s(S'play'
p3450
S'of'
p3451
tp3452
F0.0001278118609406953
s(S'match'
p3453
S'coming'
p3454
tp3455
F0.0002556237218813906
s(S'be'
p3456
S'released'
p3457
tp3458
F0.0002556237218813906
s(S'to'
p3459
S'command'
p3460
tp3461
F0.0007668711656441718
s(S'after'
p3462
S'living'
p3463
tp3464
F0.0001278118609406953
s(S'was'
p3465
S'accredited'
p3466
tp3467
F0.0001278118609406953
s(S'operated'
p3468
S'under'
p3469
tp3470
F0.0001278118609406953
s(S'of'
p3471
S'higher'
p3472
tp3473
F0.0002556237218813906
s(g575
S'[[det]]'
p3474
tp3475
F0.0003834355828220859
s(S'to'
p3476
S'leave'
p3477
tp3478
F0.0006390593047034765
s(S'had'
p3479
g3212
tp3480
F0.0002556237218813906
s(S'university'
p3481
S'[[det]]'
p3482
tp3483
F0.0003834355828220859
s(S'served'
p3484
S'where'
p3485
tp3486
F0.0001278118609406953
s(S'[[num]]'
p3487
S'player'
p3488
tp3489
F0.0001278118609406953
s(g1999
S'in'
p3490
tp3491
F0.0010224948875255625
s(S'also'
p3492
S'captained'
p3493
tp3494
F0.0002556237218813906
s(S'was'
p3495
g2335
tp3496
F0.0001278118609406953
s(S'accredited'
p3497
S'on'
p3498
tp3499
F0.0005112474437627812
s(S'returned'
p3500
S'again'
p3501
tp3502
F0.0001278118609406953
s(S'represent'
p3503
S'[[adj]]'
p3504
tp3505
F0.0001278118609406953
s(S'where'
p3506
S'served'
p3507
tp3508
F0.0002556237218813906
s(S'[[adj]]'
p3509
S'shown'
p3510
tp3511
F0.0001278118609406953
s(S'home'
p3512
S'[[det]]'
p3513
tp3514
F0.0002556237218813906
s(S'has'
p3515
S'scored'
p3516
tp3517
F0.0001278118609406953
s(S'then'
p3518
S'head'
p3519
tp3520
F0.0001278118609406953
s(S'served'
p3521
S'there'
p3522
tp3523
F0.0001278118609406953
s(S'named'
p3524
S'[[det]]'
p3525
tp3526
F0.0010224948875255625
s(g696
S'located'
p3527
tp3528
F0.0002556237218813906
s(g667
S'with'
p3529
tp3530
F0.0001278118609406953
s(S'college'
p3531
S'[[con]]'
p3532
tp3533
F0.0002556237218813906
s(S'moved'
p3534
S'as'
p3535
tp3536
F0.0002556237218813906
s(S'became'
p3537
g1048
tp3538
F0.0002556237218813906
s(S'twice'
p3539
S'served'
p3540
tp3541
F0.0002556237218813906
s(S'remained'
p3542
S'to'
p3543
tp3544
F0.0001278118609406953
s(S'union'
p3545
S'center'
p3546
tp3547
F0.0002556237218813906
s(S'army'
p3548
S'of'
p3549
tp3550
F0.0001278118609406953
s(S'[[num]]'
p3551
S'member'
p3552
tp3553
F0.0001278118609406953
s(S'has'
p3554
S'helped'
p3555
tp3556
F0.0002556237218813906
s(S'first'
p3557
S'appointed'
p3558
tp3559
F0.0001278118609406953
s(S'[[num]]'
p3560
g3283
tp3561
F0.0003834355828220859
s(S'was'
p3562
S'broadcast'
p3563
tp3564
F0.0007668711656441718
s(S'moved'
p3565
S'[[prp]]'
p3566
tp3567
F0.0001278118609406953
s(S'institution'
p3568
S'in'
p3569
tp3570
F0.0001278118609406953
s(S'graduated'
p3571
S'in'
p3572
tp3573
F0.0001278118609406953
s(S'[[det]]'
p3574
S'join'
p3575
tp3576
F0.0001278118609406953
s(S'[[con]]'
p3577
S'helped'
p3578
tp3579
F0.0002556237218813906
s(g52
S'invasion'
p3580
tp3581
F0.0001278118609406953
s(S'since'
p3582
S'returned'
p3583
tp3584
F0.0001278118609406953
s(S'[[pro]]'
p3585
S'acquired'
p3586
tp3587
F0.0001278118609406953
s(S'wickets'
p3588
S'[[det]]'
p3589
tp3590
F0.0001278118609406953
s(S'joined'
p3591
S'[[con]]'
p3592
tp3593
F0.0003834355828220859
s(S'until'
p3594
S'joined'
p3595
tp3596
F0.0002556237218813906
s(S'moved'
p3597
S'after'
p3598
tp3599
F0.0002556237218813906
s(S'dropped'
p3600
S'after'
p3601
tp3602
F0.0001278118609406953
s(S'with'
p3603
S'played'
p3604
tp3605
F0.0001278118609406953
s(S'middle'
p3606
S'of'
p3607
tp3608
F0.0001278118609406953
s(S'appointed'
p3609
S'was'
p3610
tp3611
F0.0001278118609406953
s(S'established'
p3612
S'[[con]]'
p3613
tp3614
F0.0001278118609406953
s(S'take'
p3615
S'charge'
p3616
tp3617
F0.0002556237218813906
s(S'lost'
p3618
S'on'
p3619
tp3620
F0.0001278118609406953
s(S'play'
p3621
S'again'
p3622
tp3623
F0.0002556237218813906
s(S'served'
p3624
S'then'
p3625
tp3626
F0.0001278118609406953
s(S'attended'
p3627
S'was'
p3628
tp3629
F0.0001278118609406953
s(S'played'
p3630
S'matches'
p3631
tp3632
F0.0007668711656441718
s(S'appointed'
p3633
S'[[num]]'
p3634
tp3635
F0.0002556237218813906
s(S'then'
p3636
S'left'
p3637
tp3638
F0.0006390593047034765
s(S'joined'
p3639
S'which'
p3640
tp3641
F0.0001278118609406953
s(S'later'
p3642
S'assigned'
p3643
tp3644
F0.0001278118609406953
s(S'matches'
p3645
S'in'
p3646
tp3647
F0.0011503067484662577
s(S'state'
p3648
S'school'
p3649
tp3650
F0.0001278118609406953
s(g1444
S'in'
p3651
tp3652
F0.0001278118609406953
s(S'election'
p3653
S'in'
p3654
tp3655
F0.0002556237218813906
s(S'published'
p3656
S'in'
p3657
tp3658
F0.0003834355828220859
s(S'assigned'
p3659
S'with'
p3660
tp3661
F0.0002556237218813906
s(g52
S'campus'
p3662
tp3663
F0.0002556237218813906
s(S'province'
p3664
S'[[adj]]'
p3665
tp3666
F0.0002556237218813906
s(S'posted'
p3667
S'in'
p3668
tp3669
F0.0002556237218813906
s(S'entered'
p3670
S'for'
p3671
tp3672
F0.0001278118609406953
s(S'president'
p3673
S'which'
p3674
tp3675
F0.0001278118609406953
s(S'[[con]]'
p3676
S'played'
p3677
tp3678
F0.0016615541922290389
s(S'[[det]]'
p3679
S'network'
p3680
tp3681
F0.0002556237218813906
s(S'studied'
p3682
S'[[adj]]'
p3683
tp3684
F0.0002556237218813906
s(S'be'
p3685
S'operated'
p3686
tp3687
F0.0001278118609406953
s(S'located'
p3688
S'[[det]]'
p3689
tp3690
F0.0002556237218813906
s(g3253
S'to'
p3691
tp3692
F0.0003834355828220859
s(S'also'
p3693
S'affiliated'
p3694
tp3695
F0.0001278118609406953
s(S'is'
p3696
S'living'
p3697
tp3698
F0.0001278118609406953
s(S'flows'
p3699
S'in'
p3700
tp3701
F0.0001278118609406953
s(S'fought'
p3702
S'[[num]]'
p3703
tp3704
F0.0001278118609406953
s(S'[[adj]]'
p3705
g2410
tp3706
F0.0002556237218813906
s(S'ruled'
p3707
S'[[det]]'
p3708
tp3709
F0.0001278118609406953
s(S'university'
p3710
S'based'
p3711
tp3712
F0.0002556237218813906
s(S'released'
p3713
S'album'
p3714
tp3715
F0.0001278118609406953
s(S'be'
p3716
g966
tp3717
F0.0001278118609406953
s(S'[[con]]'
p3718
S'enrolled'
p3719
tp3720
F0.0003834355828220859
s(S'become'
p3721
S'president'
p3722
tp3723
F0.0002556237218813906
s(S'[[adj]]'
p3724
S'university'
p3725
tp3726
F0.0015337423312883436
s(S'located'
p3727
S'[[con]]'
p3728
tp3729
F0.0002556237218813906
s(S'member'
p3730
S'during'
p3731
tp3732
F0.0001278118609406953
s(g3210
S'in'
p3733
tp3734
F0.0001278118609406953
s(S'[[det]]'
p3735
S'market'
p3736
tp3737
F0.0001278118609406953
s(S'nominated'
p3738
S'[[num]]'
p3739
tp3740
F0.0001278118609406953
s(S'list'
p3741
S'[[adj]]'
p3742
tp3743
F0.0001278118609406953
s(S'college'
p3744
S'at'
p3745
tp3746
F0.0002556237218813906
s(S'campus'
p3747
S'of'
p3748
tp3749
F0.0002556237218813906
s(S'captained'
p3750
S'[[det]]'
p3751
tp3752
F0.0003834355828220859
s(S'party'
p3753
S'for'
p3754
tp3755
F0.0001278118609406953
s(S'[[adj]]'
p3756
g2385
tp3757
F0.0007668711656441718
s(S'to'
p3758
S'coach'
p3759
tp3760
F0.0007668711656441718
s(S'lies'
p3761
S'in'
p3762
tp3763
F0.0001278118609406953
s(S'was'
p3764
g2436
tp3765
F0.0011503067484662577
s(S'[[det]]'
p3766
S'party'
p3767
tp3768
F0.0001278118609406953
s(S'selection'
p3769
S'by'
p3770
tp3771
F0.0002556237218813906
s(S'school'
p3772
S'for'
p3773
tp3774
F0.0001278118609406953
s(S'[[mod]]'
p3775
S'play'
p3776
tp3777
F0.0011503067484662577
s(S'awarded'
p3778
S'with'
p3779
tp3780
F0.0001278118609406953
s(S'career'
p3781
S'[[num]]'
p3782
tp3783
F0.0001278118609406953
s(S'called'
p3784
S'up'
p3785
tp3786
F0.001278118609406953
s(g1846
S'population'
p3787
tp3788
F0.0001278118609406953
s(S'coast'
p3789
S'of'
p3790
tp3791
F0.0001278118609406953
s(S'joined'
p3792
S'before'
p3793
tp3794
F0.0001278118609406953
s(g3400
S'of'
p3795
tp3796
F0.0002556237218813906
s(S'[[det]]'
p3797
S'declared'
p3798
tp3799
F0.0001278118609406953
s(g1535
S'with'
p3800
tp3801
F0.0002556237218813906
s(g3578
S'[[det]]'
p3802
tp3803
F0.0006390593047034765
s(S'[[con]]'
p3804
g2442
tp3805
F0.0003834355828220859
s(S'born'
p3806
S'moved'
p3807
tp3808
F0.0002556237218813906
s(S'played'
p3809
S'there'
p3810
tp3811
F0.0001278118609406953
s(S'[[adj]]'
p3812
g2713
tp3813
F0.0005112474437627812
s(S'captain'
p3814
S'at'
p3815
tp3816
F0.0002556237218813906
s(S'officer'
p3817
S'for'
p3818
tp3819
F0.0002556237218813906
s(S'selected'
p3820
S'[[det]]'
p3821
tp3822
F0.0003834355828220859
s(S'was'
p3823
S'published'
p3824
tp3825
F0.0001278118609406953
s(S'was'
p3826
S'commander'
p3827
tp3828
F0.0005112474437627812
s(S'also'
p3829
S'won'
p3830
tp3831
F0.0003834355828220859
s(S'been'
p3832
g1800
tp3833
F0.0008946830265848671
s(S'with'
p3834
S'[[adj]]'
p3835
tp3836
F0.0011503067484662577
s(S'[[num]]'
p3837
S'represented'
p3838
tp3839
F0.0001278118609406953
s(S'was'
p3840
S'home'
p3841
tp3842
F0.0001278118609406953
s(g2117
S'by'
p3843
tp3844
F0.0001278118609406953
s(S'then'
p3845
S'commissioned'
p3846
tp3847
F0.0001278118609406953
s(S'be'
p3848
S'filmed'
p3849
tp3850
F0.0001278118609406953
s(S'took'
p3851
S'up'
p3852
tp3853
F0.0003834355828220859
s(S'were'
p3854
S'members'
p3855
tp3856
F0.0001278118609406953
s(S'won'
p3857
S'by'
p3858
tp3859
F0.0001278118609406953
s(S'represented'
p3860
S'from'
p3861
tp3862
F0.0001278118609406953
s(S'representative'
p3863
S'from'
p3864
tp3865
F0.0001278118609406953
s(S'was'
p3866
g186
tp3867
F0.0006390593047034765
s(S'places'
p3868
S'in'
p3869
tp3870
F0.0003834355828220859
s(S'also'
p3871
S'founded'
p3872
tp3873
F0.0005112474437627812
s(S'since'
p3874
S'served'
p3875
tp3876
F0.0001278118609406953
s(S'to'
p3877
S'rule'
p3878
tp3879
F0.0003834355828220859
s(S'fought'
p3880
S'as'
p3881
tp3882
F0.0001278118609406953
s(S'then'
p3883
S'coach'
p3884
tp3885
F0.0001278118609406953
s(S'fought'
p3886
S'for'
p3887
tp3888
F0.0001278118609406953
s(S'[[det]]'
p3889
g3122
tp3890
F0.0003834355828220859
s(S'ever'
p3891
S'win'
p3892
tp3893
F0.0001278118609406953
s(S'school'
p3894
S'situated'
p3895
tp3896
F0.0002556237218813906
s(S'[[pro]]'
p3897
g2795
tp3898
F0.0002556237218813906
s(S'university'
p3899
S'situated'
p3900
tp3901
F0.0001278118609406953
s(S'represent'
p3902
S'[[num]]'
p3903
tp3904
F0.0001278118609406953
s(S'then'
p3905
g2827
tp3906
F0.0003834355828220859
s(S'[[adj]]'
p3907
S'seaport'
p3908
tp3909
F0.0001278118609406953
s(S'situated'
p3910
S'on'
p3911
tp3912
F0.0002556237218813906
s(S'smaller'
p3913
S'[[adj]]'
p3914
tp3915
F0.0001278118609406953
s(S'[[adj]]'
p3916
S'transferred'
p3917
tp3918
F0.0002556237218813906
s(S'be'
p3919
S'based'
p3920
tp3921
F0.0001278118609406953
s(g208
S'in'
p3922
tp3923
F0.0005112474437627812
s(S'as'
p3924
S'won'
p3925
tp3926
F0.0003834355828220859
s(S'[[adj]]'
p3927
S'based'
p3928
tp3929
F0.0001278118609406953
s(S'citizen'
p3930
S'[[con]]'
p3931
tp3932
F0.0001278118609406953
s(S'[[num]]'
p3933
S'appearance'
p3934
tp3935
F0.0010224948875255625
s(S'currently'
p3936
S'ranked'
p3937
tp3938
F0.0002556237218813906
s(g2363
S'for'
p3939
tp3940
F0.0010224948875255625
s(S'river'
p3941
S'on'
p3942
tp3943
F0.0001278118609406953
s(S'was'
p3944
S'left'
p3945
tp3946
F0.0002556237218813906
s(g705
S'in'
p3947
tp3948
F0.0008946830265848671
s(S'was'
p3949
S'accepted'
p3950
tp3951
F0.0006390593047034765
s(S'then'
p3952
S'fled'
p3953
tp3954
F0.0002556237218813906
s(S'squad'
p3955
S'in'
p3956
tp3957
F0.0001278118609406953
s(S'as'
p3958
S'representative'
p3959
tp3960
F0.0001278118609406953
s(S'while'
p3961
S'moved'
p3962
tp3963
F0.0001278118609406953
s(S'join'
p3964
S'[[adj]]'
p3965
tp3966
F0.0002556237218813906
s(g3230
S'on'
p3967
tp3968
F0.0002556237218813906
s(S'as'
p3969
S'president'
p3970
tp3971
F0.0002556237218813906
s(S'has'
p3972
S'graduated'
p3973
tp3974
F0.0001278118609406953
s(S'win'
p3975
S'at'
p3976
tp3977
F0.0002556237218813906
s(S'on'
p3978
S'tour'
p3979
tp3980
F0.0005112474437627812
s(S'coaches'
p3981
S'at'
p3982
tp3983
F0.0001278118609406953
s(S'scorer'
p3984
S'of'
p3985
tp3986
F0.0001278118609406953
s(S'states'
p3987
S'[[adj]]'
p3988
tp3989
F0.0001278118609406953
s(S'was'
p3990
S'redesignated'
p3991
tp3992
F0.0005112474437627812
s(S'was'
p3993
g2699
tp3994
F0.0005112474437627812
s(S'took'
p3995
S'[[num]]'
p3996
tp3997
F0.0019171779141104294
s(S'president'
p3998
S'[[num]]'
p3999
tp4000
F0.0002556237218813906
s(g2321
S'town'
p4001
tp4002
F0.0002556237218813906
s(S'released'
p4003
S'was'
p4004
tp4005
F0.0001278118609406953
s(S'ports'
p4006
S'of'
p4007
tp4008
F0.0001278118609406953
s(S'been'
p4009
g1113
tp4010
F0.0001278118609406953
s(S'has'
p4011
S'testified'
p4012
tp4013
F0.0003834355828220859
s(S'became'
p4014
S'captain'
p4015
tp4016
F0.0002556237218813906
s(S'also'
p4017
S'operated'
p4018
tp4019
F0.0001278118609406953
s(S'was'
p4020
g1166
tp4021
F0.0007668711656441718
s(S'tour'
p4022
S'[[det]]'
p4023
tp4024
F0.0001278118609406953
s(S'of'
p4025
S'state'
p4026
tp4027
F0.0002556237218813906
s(S'joined'
p4028
S'[[num]]'
p4029
tp4030
F0.0002556237218813906
s(S'involved'
p4031
S'[[adj]]'
p4032
tp4033
F0.0001278118609406953
s(S'[[adj]]'
p4034
g2054
tp4035
F0.0001278118609406953
s(g845
S'[[con]]'
p4036
tp4037
F0.0006390593047034765
s(S'[[adj]]'
p4038
S'municipality'
p4039
tp4040
F0.0005112474437627812
s(S'named'
p4041
S'[[con]]'
p4042
tp4043
F0.0003834355828220859
s(S'[[adj]]'
p4044
S'president'
p4045
tp4046
F0.0011503067484662577
s(S'number'
p4047
g1272
tp4048
F0.0001278118609406953
s(S'struck'
p4049
S'[[num]]'
p4050
tp4051
F0.0001278118609406953
s(S'so'
p4052
S'returned'
p4053
tp4054
F0.0001278118609406953
s(S'then'
p4055
S'called'
p4056
tp4057
F0.0006390593047034765
s(g4015
S'of'
p4058
tp4059
F0.0008946830265848671
s(S'commissioned'
p4060
S'to'
p4061
tp4062
F0.0001278118609406953
s(S'before'
p4063
g2261
tp4064
F0.0001278118609406953
s(S'school'
p4065
S'that'
p4066
tp4067
F0.0001278118609406953
s(S'received'
p4068
S'[[pro]]'
p4069
tp4070
F0.0001278118609406953
s(S'to'
p4071
S'squad'
p4072
tp4073
F0.0001278118609406953
s(S'[[det]]'
p4074
g3606
tp4075
F0.0001278118609406953
s(S'network'
p4076
S'of'
p4077
tp4078
F0.0002556237218813906
s(S'to'
p4079
g1595
tp4080
F0.0001278118609406953
s(S'appointed'
p4081
S'first'
p4082
tp4083
F0.0001278118609406953
s(S'[[det]]'
p4084
S'head'
p4085
tp4086
F0.0007668711656441718
s(S'[[adj]]'
p4087
S'football'
p4088
tp4089
F0.0010224948875255625
s(S'in'
p4090
S'victory'
p4091
tp4092
F0.0001278118609406953
s(S'which'
p4093
S'ran'
p4094
tp4095
F0.0001278118609406953
s(S'province'
p4096
S'in'
p4097
tp4098
F0.0003834355828220859
s(S'[[det]]'
p4099
g2216
tp4100
F0.0003834355828220859
s(S'[[adj]]'
p4101
S'captain'
p4102
tp4103
F0.0005112474437627812
s(g3437
S'in'
p4104
tp4105
F0.0002556237218813906
s(S'represented'
p4106
S'to'
p4107
tp4108
F0.0002556237218813906
s(S'as'
p4109
S'head'
p4110
tp4111
F0.0001278118609406953
s(S'[[det]]'
p4112
S'awarded'
p4113
tp4114
F0.0002556237218813906
s(S'km'
p4115
g1735
tp4116
F0.0001278118609406953
s(S'[[adj]]'
p4117
g2602
tp4118
F0.0002556237218813906
s(S'then'
p4119
S'selected'
p4120
tp4121
F0.0006390593047034765
s(g3878
S'[[det]]'
p4122
tp4123
F0.0001278118609406953
s(S'ran'
p4124
S'again'
p4125
tp4126
F0.0001278118609406953
s(S'debuted'
p4127
S'against'
p4128
tp4129
F0.0001278118609406953
s(S'called'
p4130
S'into'
p4131
tp4132
F0.0001278118609406953
s(S'school'
p4133
S'[[con]]'
p4134
tp4135
F0.0003834355828220859
s(S'appointed'
p4136
S'in'
p4137
tp4138
F0.0003834355828220859
s(S'arrived'
p4139
S'for'
p4140
tp4141
F0.0001278118609406953
s(S'[[con]]'
p4142
S'resigned'
p4143
tp4144
F0.0001278118609406953
s(S'[[det]]'
p4145
S'boundary'
p4146
tp4147
F0.0003834355828220859
s(S'then'
p4148
S'living'
p4149
tp4150
F0.0001278118609406953
s(S'in'
p4151
S'history'
p4152
tp4153
F0.0001278118609406953
s(S'be'
p4154
S'named'
p4155
tp4156
F0.0002556237218813906
s(S'[[con]]'
p4157
S'ranked'
p4158
tp4159
F0.0002556237218813906
s(S'broadcast'
p4160
S'from'
p4161
tp4162
F0.0002556237218813906
s(g2190
S'[[det]]'
p4163
tp4164
F0.0010224948875255625
s(S'moved'
p4165
S'[[det]]'
p4166
tp4167
F0.0002556237218813906
s(S'times'
p4168
S'to'
p4169
tp4170
F0.0001278118609406953
s(S'ambassador'
p4171
S'of'
p4172
tp4173
F0.0005112474437627812
s(S'[[adj]]'
p4174
S'history'
p4175
tp4176
F0.0001278118609406953
s(S'[[det]]'
p4177
S'town'
p4178
tp4179
F0.0019171779141104294
s(S'was'
p4180
S'operated'
p4181
tp4182
F0.0001278118609406953
s(S'oldest'
p4183
S'universities'
p4184
tp4185
F0.0001278118609406953
s(S'had'
p4186
S'studied'
p4187
tp4188
F0.0001278118609406953
s(S'matches'
p4189
S'[[con]]'
p4190
tp4191
F0.0005112474437627812
s(S'regions'
p4192
S'of'
p4193
tp4194
F0.0002556237218813906
s(S'recognized'
p4195
S'as'
p4196
tp4197
F0.0003834355828220859
s(S'career'
p4198
S'of'
p4199
tp4200
F0.0001278118609406953
s(S'represented'
p4201
S'against'
p4202
tp4203
F0.0002556237218813906
s(S'was'
p4204
S'disbanded'
p4205
tp4206
F0.0001278118609406953
s(S'situated'
p4207
S'in'
p4208
tp4209
F0.001278118609406953
s(S'entered'
p4210
S'into'
p4211
tp4212
F0.0001278118609406953
s(S'who'
p4213
S'represented'
p4214
tp4215
F0.0001278118609406953
s(S'[[det]]'
p4216
S'author'
p4217
tp4218
F0.0003834355828220859
s(S'released'
p4219
S'to'
p4220
tp4221
F0.0001278118609406953
s(g2392
S'outside'
p4222
tp4223
F0.0005112474437627812
s(S'is'
p4224
S'returned'
p4225
tp4226
F0.0001278118609406953
s(S'made'
p4227
g2693
tp4228
F0.0001278118609406953
s(S'governor'
p4229
S'in'
p4230
tp4231
F0.0003834355828220859
s(S'head'
p4232
S'at'
p4233
tp4234
F0.0011503067484662577
s(S'[[det]]'
p4235
S'of'
p4236
tp4237
F0.0001278118609406953
s(S'by'
p4238
S'[[adj]]'
p4239
tp4240
F0.0001278118609406953
s(S'operates'
p4241
S'with'
p4242
tp4243
F0.0002556237218813906
s(g375
S'by'
p4244
tp4245
F0.0011503067484662577
s(S'member'
p4246
S'at'
p4247
tp4248
F0.0003834355828220859
s(S'instructor'
p4249
S'of'
p4250
tp4251
F0.0001278118609406953
s(S'flows'
p4252
S'[[con]]'
p4253
tp4254
F0.0001278118609406953
s(S'subsequently'
p4255
S'appointed'
p4256
tp4257
F0.0002556237218813906
s(S'was'
p4258
g3047
tp4259
F0.0003834355828220859
s(S'[[det]]'
p4260
S'history'
p4261
tp4262
F0.0001278118609406953
s(S'selected'
p4263
S'from'
p4264
tp4265
F0.0001278118609406953
s(S'[[num]]'
p4266
S'left'
p4267
tp4268
F0.0001278118609406953
s(S'is'
p4269
S'built'
p4270
tp4271
F0.0002556237218813906
s(S'representative'
p4272
S'[[con]]'
p4273
tp4274
F0.0001278118609406953
s(S'match'
p4275
S'in'
p4276
tp4277
F0.0003834355828220859
s(S'struck'
p4278
S'[[det]]'
p4279
tp4280
F0.0001278118609406953
s(S'[[num]]'
p4281
S'towns'
p4282
tp4283
F0.0001278118609406953
s(g2766
S'once'
p4284
tp4285
F0.0002556237218813906
s(S'which'
p4286
S'lost'
p4287
tp4288
F0.0002556237218813906
s(S'was'
p4289
g1893
tp4290
F0.0001278118609406953
s(S'appearance'
p4291
S'in'
p4292
tp4293
F0.0001278118609406953
s(S'abbreviated'
p4294
S'is'
p4295
tp4296
F0.0001278118609406953
s(S'[[con]]'
p4297
S'graduated'
p4298
tp4299
F0.0014059304703476483
s(S'ever'
p4300
S'played'
p4301
tp4302
F0.0001278118609406953
s(S'return'
p4303
S'after'
p4304
tp4305
F0.0001278118609406953
s(S'operates'
p4306
S'[[det]]'
p4307
tp4308
F0.0001278118609406953
s(S'[[adj]]'
p4309
S'longdistance'
p4310
tp4311
F0.0001278118609406953
s(S'[[num]]'
p4312
S'president'
p4313
tp4314
F0.0001278118609406953
s(g2871
S'of'
p4315
tp4316
F0.0001278118609406953
s(S'[[adj]]'
p4317
g516
tp4318
F0.0001278118609406953
s(S'representative'
p4319
S'[[det]]'
p4320
tp4321
F0.0002556237218813906
s(S'awarded'
p4322
S'[[adj]]'
p4323
tp4324
F0.0002556237218813906
s(S'when'
p4325
S'lost'
p4326
tp4327
F0.0001278118609406953
s(S'became'
p4328
g1143
tp4329
F0.0002556237218813906
s(S'operates'
p4330
S'[[num]]'
p4331
tp4332
F0.0002556237218813906
s(S'coach'
p4333
S'[[det]]'
p4334
tp4335
F0.0006390593047034765
s(S'[[adj]]'
p4336
S'branch'
p4337
tp4338
F0.0001278118609406953
s(S'while'
p4339
S'joined'
p4340
tp4341
F0.0001278118609406953
s(S'return'
p4342
S'for'
p4343
tp4344
F0.0001278118609406953
s(S'entered'
p4345
S'[[adj]]'
p4346
tp4347
F0.0003834355828220859
s(S'who'
p4348
S'began'
p4349
tp4350
F0.0001278118609406953
s(S'joined'
p4351
S'for'
p4352
tp4353
F0.0001278118609406953
s(S'served'
p4354
S'against'
p4355
tp4356
F0.0001278118609406953
s(S'dropped'
p4357
S'down'
p4358
tp4359
F0.0002556237218813906
s(S'came'
p4360
S'from'
p4361
tp4362
F0.0002556237218813906
s(S'[[num]]'
p4363
S'[[con]]'
p4364
tp4365
F0.0001278118609406953
s(S'wickets'
p4366
S'for'
p4367
tp4368
F0.0001278118609406953
s(S'transferred'
p4369
S'[[pro]]'
p4370
tp4371
F0.0001278118609406953
s(S'just'
p4372
S'[[adj]]'
p4373
tp4374
F0.0002556237218813906
s(S'played'
p4375
S'most'
p4376
tp4377
F0.0002556237218813906
s(S'assigned'
p4378
S'as'
p4379
tp4380
F0.0003834355828220859
s(S'[[adj]]'
p4381
S'adviser'
p4382
tp4383
F0.0002556237218813906
s(S'town'
p4384
S'[[adj]]'
p4385
tp4386
F0.0001278118609406953
s(S'returned'
p4387
S'[[num]]'
p4388
tp4389
F0.0001278118609406953
s(g285
S'[[det]]'
p4390
tp4391
F0.0002556237218813906
s(S'[[adj]]'
p4392
S'form'
p4393
tp4394
F0.0001278118609406953
s(S'called'
p4395
S'that'
p4396
tp4397
F0.0001278118609406953
s(S'[[adj]]'
p4398
S'neighborhood'
p4399
tp4400
F0.0001278118609406953
s(S'[[con]]'
p4401
S'municipality'
p4402
tp4403
F0.0003834355828220859
s(S'station'
p4404
S'[[con]]'
p4405
tp4406
F0.0003834355828220859
s(S'been'
p4407
S'called'
p4408
tp4409
F0.0002556237218813906
s(S'[[det]]'
p4410
S'promoted'
p4411
tp4412
F0.0001278118609406953
s(S'mountain'
p4413
S'in'
p4414
tp4415
F0.0002556237218813906
s(S'played'
p4416
S'when'
p4417
tp4418
F0.0001278118609406953
s(g681
S'to'
p4419
tp4420
F0.0001278118609406953
s(S'then'
p4421
S'helped'
p4422
tp4423
F0.0002556237218813906
s(S'from'
p4424
S'[[con]]'
p4425
tp4426
F0.0001278118609406953
s(S'is'
p4427
g3045
tp4428
F0.0001278118609406953
s(S'member'
p4429
S'on'
p4430
tp4431
F0.0002556237218813906
s(S'left'
p4432
S'out'
p4433
tp4434
F0.0001278118609406953
s(S'also'
p4435
S'president'
p4436
tp4437
F0.0006390593047034765
s(S'not'
p4438
S'selected'
p4439
tp4440
F0.0003834355828220859
s(S'scored'
p4441
S'[[det]]'
p4442
tp4443
F0.0006390593047034765
s(S'play'
p4444
S'to'
p4445
tp4446
F0.0001278118609406953
s(S'is'
p4447
S'named'
p4448
tp4449
F0.0005112474437627812
s(g3787
S'[[det]]'
p4450
tp4451
F0.0001278118609406953
s(S'candidate'
p4452
S'of'
p4453
tp4454
F0.0005112474437627812
s(S'ruled'
p4455
S'[[num]]'
p4456
tp4457
F0.0001278118609406953
s(S'helped'
p4458
S'win'
p4459
tp4460
F0.0002556237218813906
s(S'were'
p4461
S'acquired'
p4462
tp4463
F0.0001278118609406953
s(S'[[det]]'
p4464
S'highest'
p4465
tp4466
F0.0001278118609406953
s(S'[[num]]'
p4467
S'times'
p4468
tp4469
F0.0015337423312883436
s(S'in'
p4470
S'served'
p4471
tp4472
F0.0001278118609406953
s(S'called'
p4473
S'with'
p4474
tp4475
F0.0001278118609406953
s(S'parts'
p4476
S'of'
p4477
tp4478
F0.0002556237218813906
s(S'position'
p4479
S'as'
p4480
tp4481
F0.0001278118609406953
s(S'tehsil'
p4482
S'of'
p4483
tp4484
F0.0002556237218813906
s(S'played'
p4485
S'only'
p4486
tp4487
F0.0002556237218813906
s(S'[[adj]]'
p4488
g835
tp4489
F0.0008946830265848671
s(S'[[det]]'
p4490
S'graduate'
p4491
tp4492
F0.0007668711656441718
s(g1491
S'by'
p4493
tp4494
F0.0003834355828220859
s(S'operates'
p4495
S'as'
p4496
tp4497
F0.0003834355828220859
s(S'named'
p4498
S'to'
p4499
tp4500
F0.0006390593047034765
s(S'oldest'
p4501
S'[[adj]]'
p4502
tp4503
F0.0003834355828220859
s(S'[[con]]'
p4504
S'[[det]]'
p4505
tp4506
F0.0005112474437627812
s(S'district'
p4507
S'[[det]]'
p4508
tp4509
F0.0001278118609406953
s(S'[[adj]]'
p4510
S'ranked'
p4511
tp4512
F0.0001278118609406953
s(S'was'
p4513
S'summoned'
p4514
tp4515
F0.0001278118609406953
s(S'played'
p4516
S'during'
p4517
tp4518
F0.0001278118609406953
s(S'joined'
p4519
S'to'
p4520
tp4521
F0.0002556237218813906
s(S'[[con]]'
p4522
S'comune'
p4523
tp4524
F0.0001278118609406953
s(S'representative'
p4525
S'to'
p4526
tp4527
F0.0001278118609406953
s(S'rule'
p4528
S'of'
p4529
tp4530
F0.0003834355828220859
s(S'[[det]]'
p4531
S'won'
p4532
tp4533
F0.0001278118609406953
s(S'flows'
p4534
S'[[det]]'
p4535
tp4536
F0.0001278118609406953
s(S'later'
p4537
S'enrolled'
p4538
tp4539
F0.0003834355828220859
s(g1093
S'of'
p4540
tp4541
F0.0003834355828220859
s(S'is'
p4542
S'home'
p4543
tp4544
F0.0005112474437627812
s(S'was'
p4545
S'given'
p4546
tp4547
F0.0006390593047034765
s(S'retired'
p4548
S'[[con]]'
p4549
tp4550
F0.0002556237218813906
s(S'[[det]]'
p4551
S'video'
p4552
tp4553
F0.0002556237218813906
s(S'be'
p4554
S'returning'
p4555
tp4556
F0.0001278118609406953
s(S'moved'
p4557
S'in'
p4558
tp4559
F0.0001278118609406953
s(S'[[adj]]'
p4560
S'hospital'
p4561
tp4562
F0.0001278118609406953
s(S'joined'
p4563
S'then'
p4564
tp4565
F0.0002556237218813906
s(S'honored'
p4566
S'with'
p4567
tp4568
F0.0003834355828220859
s(g1494
g4079
tp4569
F0.0001278118609406953
s(S'ambassador'
p4570
S'[[con]]'
p4571
tp4572
F0.0003834355828220859
s(g3003
S'in'
p4573
tp4574
F0.0002556237218813906
s(S'started'
p4575
S'at'
p4576
tp4577
F0.0002556237218813906
s(S'became'
p4578
g666
tp4579
F0.0001278118609406953
s(S'had'
p4580
S'established'
p4581
tp4582
F0.0002556237218813906
s(S'[[det]]'
p4583
S'cathedral'
p4584
tp4585
F0.0001278118609406953
s(g4450
S'governments'
p4586
tp4587
F0.0001278118609406953
s(S'[[det]]'
p4588
S'superintendent'
p4589
tp4590
F0.0001278118609406953
s(S'were'
p4591
S'assigned'
p4592
tp4593
F0.0001278118609406953
s(S'founded'
p4594
S'from'
p4595
tp4596
F0.0002556237218813906
s(S'served'
p4597
S'as'
p4598
tp4599
F0.0016615541922290389
s(S'moved'
p4600
S'then'
p4601
tp4602
F0.0001278118609406953
s(S'be'
p4603
S'broadcast'
p4604
tp4605
F0.0001278118609406953
s(S'won'
p4606
S'[[prp]]'
p4607
tp4608
F0.0001278118609406953
s(S'component'
p4609
S'of'
p4610
tp4611
F0.0003834355828220859
s(S'member'
p4612
g52
tp4613
F0.0001278118609406953
s(S'[[prp]]'
p4614
S'coach'
p4615
tp4616
F0.0001278118609406953
s(S'helping'
p4617
S'to'
p4618
tp4619
F0.0001278118609406953
s(S'elected'
p4620
S'as'
p4621
tp4622
F0.0003834355828220859
s(g607
g4482
tp4623
F0.0001278118609406953
s(S'located'
p4624
S'just'
p4625
tp4626
F0.0001278118609406953
s(S'who'
p4627
S'left'
p4628
tp4629
F0.0001278118609406953
s(S'mainly'
p4630
g2317
tp4631
F0.0002556237218813906
s(S'born'
p4632
S'c'
p4633
tp4634
F0.0001278118609406953
s(S'became'
p4635
S'involved'
p4636
tp4637
F0.0002556237218813906
s(S'was'
p4638
S'admitted'
p4639
tp4640
F0.0007668711656441718
s(S'to'
p4641
g3196
tp4642
F0.0010224948875255625
s(S'located'
p4643
S'in'
p4644
tp4645
F0.004217791411042945
s(S'[[num]]'
p4646
S'operated'
p4647
tp4648
F0.0002556237218813906
s(S'then'
p4649
g4441
tp4650
F0.0003834355828220859
s(S'appointed'
p4651
S'[[prp]]'
p4652
tp4653
F0.0001278118609406953
s(g1619
g103
tp4654
F0.0001278118609406953
s(S'[[det]]'
p4655
S'aircraft'
p4656
tp4657
F0.0001278118609406953
s(g3662
S'[[det]]'
p4658
tp4659
F0.0001278118609406953
s(S'[[det]]'
p4660
S'match'
p4661
tp4662
F0.0006390593047034765
s(S'annexed'
p4663
S'to'
p4664
tp4665
F0.0002556237218813906
s(S'unit'
p4666
S'[[det]]'
p4667
tp4668
F0.0001278118609406953
s(S'[[adj]]'
p4669
S'cathedral'
p4670
tp4671
F0.0001278118609406953
s(S'started'
p4672
S'[[prp]]'
p4673
tp4674
F0.0001278118609406953
s(g4146
S'with'
p4675
tp4676
F0.0001278118609406953
s(g3305
S'against'
p4677
tp4678
F0.0007668711656441718
s(S'best'
p4679
S'known'
p4680
tp4681
F0.0001278118609406953
s(S'tour'
p4682
S'with'
p4683
tp4684
F0.0003834355828220859
s(S'now'
p4685
S'operated'
p4686
tp4687
F0.0001278118609406953
s(S'were'
p4688
S'transferred'
p4689
tp4690
F0.0001278118609406953
s(S'now'
p4691
S'used'
p4692
tp4693
F0.0001278118609406953
s(S'came'
p4694
S'back'
p4695
tp4696
F0.0001278118609406953
s(S'instructor'
p4697
S'in'
p4698
tp4699
F0.0002556237218813906
s(S'as'
p4700
S'took'
p4701
tp4702
F0.0002556237218813906
s(S'[[adj]]'
p4703
g3272
tp4704
F0.0003834355828220859
s(S'[[adj]]'
p4705
S'wickets'
p4706
tp4707
F0.0002556237218813906
s(g4639
S'[[det]]'
p4708
tp4709
F0.0001278118609406953
s(S'[[num]]'
p4710
g2149
tp4711
F0.0006390593047034765
s(S'[[con]]'
p4712
S'started'
p4713
tp4714
F0.0001278118609406953
s(S'serve'
p4715
S'for'
p4716
tp4717
F0.0001278118609406953
s(S'scored'
p4718
S'twice'
p4719
tp4720
F0.0002556237218813906
s(S'match'
p4721
S'with'
p4722
tp4723
F0.0002556237218813906
s(S'appointed'
p4724
S'[[con]]'
p4725
tp4726
F0.0005112474437627812
s(S'represented'
p4727
S'on'
p4728
tp4729
F0.0002556237218813906
s(S'[[pro]]'
p4730
S'graduated'
p4731
tp4732
F0.0001278118609406953
s(S'incorporated'
p4733
S'into'
p4734
tp4735
F0.0001278118609406953
s(S'rule'
p4736
S'in'
p4737
tp4738
F0.0002556237218813906
s(g4661
S'for'
p4739
tp4740
F0.002556237218813906
s(S'office'
p4741
S'of'
p4742
tp4743
F0.0001278118609406953
s(S'experienced'
p4744
S'[[adj]]'
p4745
tp4746
F0.0001278118609406953
s(S'made'
p4747
S'captain'
p4748
tp4749
F0.0001278118609406953
s(S'left'
p4750
S'when'
p4751
tp4752
F0.0001278118609406953
s(S'later'
p4753
S'established'
p4754
tp4755
F0.0001278118609406953
s(S'left'
p4756
S'[[con]]'
p4757
tp4758
F0.0005112474437627812
s(S'received'
p4759
g1896
tp4760
F0.0024284253578732108
s(S'now'
p4761
S'operates'
p4762
tp4763
F0.0002556237218813906
s(S'graduated'
p4764
S'then'
p4765
tp4766
F0.0005112474437627812
s(S'officer'
p4767
S'to'
p4768
tp4769
F0.0001278118609406953
s(S'commanded'
p4770
S'[[det]]'
p4771
tp4772
F0.0007668711656441718
s(S'center'
p4773
S'of'
p4774
tp4775
F0.0002556237218813906
s(S'[[con]]'
p4776
g630
tp4777
F0.0001278118609406953
s(S'once'
p4778
S'played'
p4779
tp4780
F0.0002556237218813906
s(S'of'
p4781
S'named'
p4782
tp4783
F0.0001278118609406953
s(S'been'
p4784
g287
tp4785
F0.0003834355828220859
s(S'coaches'
p4786
S'in'
p4787
tp4788
F0.0001278118609406953
s(S'just'
p4789
g754
tp4790
F0.0001278118609406953
s(S'given'
p4791
S'command'
p4792
tp4793
F0.0003834355828220859
s(g1697
S'with'
p4794
tp4795
F0.0002556237218813906
s(g3510
S'in'
p4796
tp4797
F0.0007668711656441718
s(S'had'
p4798
S'left'
p4799
tp4800
F0.0006390593047034765
s(S'[[adj]]'
p4801
S'province'
p4802
tp4803
F0.0003834355828220859
s(S'[[det]]'
p4804
S'recognized'
p4805
tp4806
F0.0001278118609406953
s(S'represented'
p4807
S'[[num]]'
p4808
tp4809
F0.0001278118609406953
s(S'[[adj]]'
p4810
S'port'
p4811
tp4812
F0.0003834355828220859
s(g3108
S'from'
p4813
tp4814
F0.0002556237218813906
s(S'came'
p4815
S'as'
p4816
tp4817
F0.0001278118609406953
s(S'[[adj]]'
p4818
S'soldiers'
p4819
tp4820
F0.0001278118609406953
s(S'then'
p4821
S'accepted'
p4822
tp4823
F0.0002556237218813906
s(S'[[det]]'
p4824
S'matches'
p4825
tp4826
F0.0007668711656441718
s(S'won'
p4827
S'[[pro]]'
p4828
tp4829
F0.0001278118609406953
s(S'studied'
p4830
S'first'
p4831
tp4832
F0.0001278118609406953
s(S'moved'
p4833
S'[[adj]]'
p4834
tp4835
F0.0001278118609406953
s(S'also'
p4836
S'accredited'
p4837
tp4838
F0.0002556237218813906
s(S'also'
p4839
S'honored'
p4840
tp4841
F0.0006390593047034765
s(g2280
S'of'
p4842
tp4843
F0.0001278118609406953
s(S'admitted'
p4844
S'to'
p4845
tp4846
F0.0007668711656441718
s(S'return'
p4847
S'of'
p4848
tp4849
F0.0001278118609406953
s(g3991
S'[[con]]'
p4850
tp4851
F0.0002556237218813906
s(S'as'
p4852
S'governor'
p4853
tp4854
F0.0001278118609406953
s(S'represented'
p4855
S'[[prp]]'
p4856
tp4857
F0.0001278118609406953
s(S'[[num]]'
p4858
g1741
tp4859
F0.0001278118609406953
s(g4239
g4741
tp4860
F0.0001278118609406953
s(S'also'
p4861
g4727
tp4862
F0.0016615541922290389
s(S'became'
p4863
S'governor'
p4864
tp4865
F0.0002556237218813906
s(S'played'
p4866
S'twice'
p4867
tp4868
F0.0006390593047034765
s(S'remained'
p4869
S'[[det]]'
p4870
tp4871
F0.0002556237218813906
s(S'year'
p4872
g1673
tp4873
F0.0001278118609406953
s(S'[[num]]'
p4874
S'played'
p4875
tp4876
F0.0003834355828220859
s(S'later'
p4877
S'entered'
p4878
tp4879
F0.0002556237218813906
s(S'[[det]]'
p4880
g3266
tp4881
F0.0001278118609406953
s(S'in'
p4882
S'command'
p4883
tp4884
F0.0005112474437627812
s(S'compete'
p4885
S'for'
p4886
tp4887
F0.0001278118609406953
s(S'appointment'
p4888
S'at'
p4889
tp4890
F0.0006390593047034765
s(S'[[adj]]'
p4891
S'coach'
p4892
tp4893
F0.0010224948875255625
s(S'of'
p4894
S'won'
p4895
tp4896
F0.0001278118609406953
s(g3032
g2592
tp4897
F0.0002556237218813906
s(S'that'
p4898
S'lost'
p4899
tp4900
F0.0002556237218813906
s(g2253
S'for'
p4901
tp4902
F0.0008946830265848671
s(g1871
S'near'
p4903
tp4904
F0.0003834355828220859
s(S'for'
p4905
S'matches'
p4906
tp4907
F0.0002556237218813906
s(g4155
S'of'
p4908
tp4909
F0.0010224948875255625
s(S'never'
p4910
S'left'
p4911
tp4912
F0.0001278118609406953
s(S'returned'
p4913
S'against'
p4914
tp4915
F0.0001278118609406953
s(S'is'
p4916
g686
tp4917
F0.0006390593047034765
s(S'[[adj]]'
p4918
S'record'
p4919
tp4920
F0.0002556237218813906
s(S'were'
p4921
S'named'
p4922
tp4923
F0.0001278118609406953
s(S'[[pro]]'
p4924
S'returned'
p4925
tp4926
F0.0001278118609406953
s(S'to'
p4927
S'graduate'
p4928
tp4929
F0.0001278118609406953
s(S'[[con]]'
p4930
S'college'
p4931
tp4932
F0.0001278118609406953
s(S'station'
p4933
S'near'
p4934
tp4935
F0.0001278118609406953
s(S'enrolling'
p4936
S'in'
p4937
tp4938
F0.0001278118609406953
s(g1837
S'at'
p4939
tp4940
F0.0002556237218813906
s(S'[[det]]'
p4941
S'capital'
p4942
tp4943
F0.0014059304703476483
s(S'became'
p4944
S'superintendent'
p4945
tp4946
F0.0001278118609406953
s(S'annexed'
p4947
S'[[det]]'
p4948
tp4949
F0.0001278118609406953
s(S'[[det]]'
p4950
S'officer'
p4951
tp4952
F0.0007668711656441718
s(S'also'
p4953
S'competed'
p4954
tp4955
F0.0001278118609406953
s(S'[[adj]]'
p4956
S'broadcast'
p4957
tp4958
F0.0002556237218813906
s(g3256
S'to'
p4959
tp4960
F0.0001278118609406953
s(S'been'
p4961
g883
tp4962
F0.0003834355828220859
s(S'career'
p4963
S'for'
p4964
tp4965
F0.0001278118609406953
s(S'win'
p4966
S'for'
p4967
tp4968
F0.0002556237218813906
s(S'[[det]]'
p4969
S'operated'
p4970
tp4971
F0.0002556237218813906
s(S'played'
p4972
S'at'
p4973
tp4974
F0.0011503067484662577
s(S'promoted'
p4975
S'by'
p4976
tp4977
F0.0001278118609406953
s(S'served'
p4978
S'most'
p4979
tp4980
F0.0001278118609406953
s(S'[[adj]]'
p4981
S'volleyball'
p4982
tp4983
F0.0001278118609406953
s(S'[[det]]'
p4984
S'coming'
p4985
tp4986
F0.0001278118609406953
s(S'to'
p4987
g4885
tp4988
F0.0001278118609406953
s(g3207
S'won'
p4989
tp4990
F0.0005112474437627812
s(S'[[adj]]'
p4991
S'network'
p4992
tp4993
F0.0001278118609406953
s(S'volunteered'
p4994
S'to'
p4995
tp4996
F0.0001278118609406953
s(S'times'
p4997
S'against'
p4998
tp4999
F0.0001278118609406953
s(S'awarded'
p5000
S'[[prp]]'
p5001
tp5002
F0.0001278118609406953
s(S'acquired'
p5003
S'from'
p5004
tp5005
F0.0003834355828220859
s(S'issue'
p5006
S'[[prp]]'
p5007
tp5008
F0.0001278118609406953
s(S'river'
p5009
S'in'
p5010
tp5011
F0.0008946830265848671
s(S'squad'
p5012
S'of'
p5013
tp5014
F0.0001278118609406953
s(S'operated'
p5015
S'by'
p5016
tp5017
F0.0015337423312883436
s(S'[[det]]'
p5018
S'came'
p5019
tp5020
F0.0001278118609406953
s(S'studied'
p5021
S'in'
p5022
tp5023
F0.0001278118609406953
s(S'filmed'
p5024
S'[[con]]'
p5025
tp5026
F0.0001278118609406953
s(S'accepted'
p5027
S'as'
p5028
tp5029
F0.0001278118609406953
s(S'[[adj]]'
p5030
S'component'
p5031
tp5032
F0.0002556237218813906
s(S'cricket'
p5033
S'[[con]]'
p5034
tp5035
F0.0006390593047034765
s(S'appointed'
p5036
S'ambassador'
p5037
tp5038
F0.0008946830265848671
s(S'match'
p5039
S'to'
p5040
tp5041
F0.0001278118609406953
s(S'debut'
p5042
S'on'
p5043
tp5044
F0.0003834355828220859
s(S'was'
p5045
S'ceded'
p5046
tp5047
F0.0001278118609406953
s(S'[[mod]]'
p5048
S'represent'
p5049
tp5050
F0.0001278118609406953
s(S'also'
p5051
S'entered'
p5052
tp5053
F0.0001278118609406953
s(S'party'
p5054
S'with'
p5055
tp5056
F0.0001278118609406953
s(S'has'
p5057
S'received'
p5058
tp5059
F0.0010224948875255625
s(S'neighborhood'
p5060
S'of'
p5061
tp5062
F0.0001278118609406953
s(S'had'
p5063
g3339
tp5064
F0.0003834355828220859
s(S'[[con]]'
p5065
S'largest'
p5066
tp5067
F0.0001278118609406953
s(g3349
S'to'
p5068
tp5069
F0.0003834355828220859
s(S'has'
p5070
S'joined'
p5071
tp5072
F0.0002556237218813906
s(S'was'
p5073
S'representative'
p5074
tp5075
F0.0002556237218813906
s(S'[[det]]'
p5076
S'mountain'
p5077
tp5078
F0.0007668711656441718
s(S'originates'
p5079
S'in'
p5080
tp5081
F0.0001278118609406953
s(g2205
S'part'
p5082
tp5083
F0.0001278118609406953
s(S'[[adj]]'
p5084
g3747
tp5085
F0.0003834355828220859
s(g3580
S'of'
p5086
tp5087
F0.0007668711656441718
s(S'located'
p5088
S'of'
p5089
tp5090
F0.0002556237218813906
s(g4499
S'[[det]]'
p5091
tp5092
F0.0002556237218813906
s(S'being'
p5093
S'selected'
p5094
tp5095
F0.0001278118609406953
s(S'[[num]]'
p5096
S'station'
p5097
tp5098
F0.0001278118609406953
s(S'instead'
p5099
S'joined'
p5100
tp5101
F0.0002556237218813906
s(S'studied'
p5102
S'then'
p5103
tp5104
F0.0001278118609406953
s(S'ambassador'
p5105
S'for'
p5106
tp5107
F0.0002556237218813906
s(S'called'
p5108
S'back'
p5109
tp5110
F0.0001278118609406953
s(S'tour'
p5111
S'[[con]]'
p5112
tp5113
F0.0001278118609406953
s(S'[[det]]'
p5114
S'component'
p5115
tp5116
F0.0002556237218813906
s(S'have'
p5117
S'left'
p5118
tp5119
F0.0001278118609406953
s(S'have'
p5120
S'attended'
p5121
tp5122
F0.0002556237218813906
s(S'helped'
p5123
S'to'
p5124
tp5125
F0.0002556237218813906
s(g4393
S'as'
p5126
tp5127
F0.0001278118609406953
s(S'has'
p5128
S'arrived'
p5129
tp5130
F0.0001278118609406953
s(g3279
g3789
tp5131
F0.0001278118609406953
s(S'retired'
p5132
S'as'
p5133
tp5134
F0.0001278118609406953
s(S'[[num]]'
p5135
S'established'
p5136
tp5137
F0.0001278118609406953
s(S'has'
p5138
S'studied'
p5139
tp5140
F0.0005112474437627812
s(S'commissioned'
p5141
S'from'
p5142
tp5143
F0.0001278118609406953
s(S'[[adj]]'
p5144
S'mountain'
p5145
tp5146
F0.0005112474437627812
s(g4546
S'[[det]]'
p5147
tp5148
F0.0001278118609406953
s(S'was'
p5149
S'selected'
p5150
tp5151
F0.002044989775051125
s(S'[[con]]'
p5152
g778
tp5153
F0.0001278118609406953
s(S'largest'
p5154
S'of'
p5155
tp5156
F0.0001278118609406953
s(S'imported'
p5157
S'into'
p5158
tp5159
F0.0001278118609406953
s(S'[[det]]'
p5160
S'river'
p5161
tp5162
F0.0008946830265848671
s(S'debut'
p5163
S'at'
p5164
tp5165
F0.0001278118609406953
s(S'teams'
p5166
S'from'
p5167
tp5168
F0.0002556237218813906
s(S'[[prp]]'
p5169
S'armies'
p5170
tp5171
F0.0001278118609406953
s(S'fled'
p5172
S'from'
p5173
tp5174
F0.0001278118609406953
s(S'cities'
p5175
S'of'
p5176
tp5177
F0.0001278118609406953
s(S'station'
p5178
S'was'
p5179
tp5180
F0.0001278118609406953
s(g1614
S'of'
p5181
tp5182
F0.0002556237218813906
s(S'hub'
p5183
S'of'
p5184
tp5185
F0.0001278118609406953
s(S'[[adj]]'
p5186
g3548
tp5187
F0.0001278118609406953
s(S'[[adj]]'
p5188
S'player'
p5189
tp5190
F0.0014059304703476483
s(S'was'
p5191
S'named'
p5192
tp5193
F0.0017893660531697342
s(S'when'
p5194
S'left'
p5195
tp5196
F0.0001278118609406953
s(S'[[det]]'
p5197
S'place'
p5198
tp5199
F0.0003834355828220859
s(S'win'
p5200
S'to'
p5201
tp5202
F0.0001278118609406953
s(S'[[det]]'
p5203
S'province'
p5204
tp5205
F0.0008946830265848671
s(g4802
S'of'
p5206
tp5207
F0.0005112474437627812
s(S'miles'
p5208
S'in'
p5209
tp5210
F0.0001278118609406953
s(S'[[con]]'
p5211
S'resides'
p5212
tp5213
F0.0001278118609406953
s(S'[[adj]]'
p5214
g2972
tp5215
F0.0001278118609406953
s(g1301
S'within'
p5216
tp5217
F0.0002556237218813906
s(S'[[prp]]'
p5218
S'[[num]]'
p5219
tp5220
F0.0001278118609406953
s(g4102
S'for'
p5221
tp5222
F0.0002556237218813906
s(g908
S'in'
p5223
tp5224
F0.0005112474437627812
s(S'joined'
p5225
S'with'
p5226
tp5227
F0.0001278118609406953
s(S'[[det]]'
p5228
S'then'
p5229
tp5230
F0.0001278118609406953
s(S'acquired'
p5231
S'as'
p5232
tp5233
F0.0001278118609406953
s(S'moved'
p5234
S'with'
p5235
tp5236
F0.0003834355828220859
s(S'[[num]]'
p5237
g3955
tp5238
F0.0001278118609406953
s(S'are'
p5239
S'operated'
p5240
tp5241
F0.0001278118609406953
s(S'[[con]]'
p5242
S'commanded'
p5243
tp5244
F0.0001278118609406953
s(S'appointed'
p5245
S'for'
p5246
tp5247
F0.0003834355828220859
s(g466
g1989
tp5248
F0.0003834355828220859
s(S'promoted'
p5249
S'as'
p5250
tp5251
F0.0002556237218813906
s(S'awarded'
p5252
S'[[pro]]'
p5253
tp5254
F0.0001278118609406953
s(S'played'
p5255
S'mainly'
p5256
tp5257
F0.0002556237218813906
s(S'coach'
p5258
S'at'
p5259
tp5260
F0.0008946830265848671
s(S'[[con]]'
p5261
S'attended'
p5262
tp5263
F0.0014059304703476483
s(S'also'
p5264
g2801
tp5265
F0.0003834355828220859
s(S'is'
p5266
S'accredited'
p5267
tp5268
F0.0005112474437627812
s(S'was'
p5269
g3201
tp5270
F0.0001278118609406953
s(S'represent'
p5271
S'[[det]]'
p5272
tp5273
F0.0003834355828220859
s(S'already'
p5274
S'played'
p5275
tp5276
F0.0002556237218813906
s(g50
S'against'
p5277
tp5278
F0.0001278118609406953
s(S'who'
p5279
S'played'
p5280
tp5281
F0.0016615541922290389
s(g463
S'[[det]]'
p5282
tp5283
F0.0002556237218813906
s(S'nominated'
p5284
S'as'
p5285
tp5286
F0.0002556237218813906
s(g214
S'against'
p5287
tp5288
F0.0001278118609406953
s(S'students'
p5289
S'of'
p5290
tp5291
F0.0002556237218813906
s(g2232
S'of'
p5292
tp5293
F0.0010224948875255625
s(S'town'
p5294
S'of'
p5295
tp5296
F0.0002556237218813906
s(S'attended'
p5297
S'to'
p5298
tp5299
F0.0001278118609406953
s(S'states'
p5300
g2870
tp5301
F0.0001278118609406953
s(S'left'
p5302
S'is'
p5303
tp5304
F0.0001278118609406953
s(S'[[det]]'
p5305
S'schools'
p5306
tp5307
F0.0001278118609406953
s(g166
S'at'
p5308
tp5309
F0.0001278118609406953
s(S'has'
p5310
S'commanded'
p5311
tp5312
F0.0001278118609406953
s(S'[[mod]]'
p5313
g2803
tp5314
F0.0006390593047034765
s(g4713
S'[[det]]'
p5315
tp5316
F0.0003834355828220859
s(S'[[adj]]'
p5317
g4682
tp5318
F0.0007668711656441718
s(S'win'
p5319
S'over'
p5320
tp5321
F0.0002556237218813906
s(S'mountain'
p5322
S'of'
p5323
tp5324
F0.0001278118609406953
s(S'be'
p5325
S'called'
p5326
tp5327
F0.0002556237218813906
s(g2590
S'for'
p5328
tp5329
F0.0003834355828220859
s(S'appearance'
p5330
S'with'
p5331
tp5332
F0.0002556237218813906
s(g1332
S'[[con]]'
p5333
tp5334
F0.0003834355828220859
s(S'century'
p5335
S'against'
p5336
tp5337
F0.0003834355828220859
s(g4120
S'to'
p5338
tp5339
F0.0006390593047034765
s(S'[[det]]'
p5340
S'matter'
p5341
tp5342
F0.0001278118609406953
s(S'[[det]]'
p5343
S'assigned'
p5344
tp5345
F0.0002556237218813906
s(S'then'
p5346
S'assigned'
p5347
tp5348
F0.0006390593047034765
s(S'also'
p5349
S'played'
p5350
tp5351
F0.004601226993865031
s(S'[[adj]]'
p5352
S'returning'
p5353
tp5354
F0.0001278118609406953
s(S'took'
p5355
S'to'
p5356
tp5357
F0.0001278118609406953
s(S'wickets'
p5358
S'as'
p5359
tp5360
F0.0001278118609406953
s(S'awarded'
p5361
S'of'
p5362
tp5363
F0.0001278118609406953
s(S'primarily'
p5364
S'with'
p5365
tp5366
F0.0001278118609406953
s(S'[[det]]'
p5367
S'played'
p5368
tp5369
F0.0002556237218813906
s(S'party'
p5370
S'of'
p5371
tp5372
F0.0001278118609406953
s(S'[[con]]'
p5373
S'aircraft'
p5374
tp5375
F0.0001278118609406953
s(S'ranked'
p5376
S'first'
p5377
tp5378
F0.0001278118609406953
s(S'built'
p5379
S'is'
p5380
tp5381
F0.0001278118609406953
s(S'player'
p5382
S'of'
p5383
tp5384
F0.0003834355828220859
s(g3412
S'town'
p5385
tp5386
F0.0001278118609406953
s(g3093
g73
tp5387
F0.0006390593047034765
s(g2389
S'currently'
p5388
tp5389
F0.0001278118609406953
s(S'later'
p5390
S'appointed'
p5391
tp5392
F0.0006390593047034765
s(S'then'
p5393
S'attended'
p5394
tp5395
F0.0015337423312883436
s(S'which'
p5396
S'acquired'
p5397
tp5398
F0.0001278118609406953
s(S'[[det]]'
p5399
g2001
tp5400
F0.0002556237218813906
s(S'instead'
p5401
S'appointed'
p5402
tp5403
F0.0001278118609406953
s(S'municipality'
p5404
S'[[det]]'
p5405
tp5406
F0.0002556237218813906
s(g2661
S'with'
p5407
tp5408
F0.0001278118609406953
s(S'later'
p5409
S'left'
p5410
tp5411
F0.0003834355828220859
s(S'has'
p5412
g4597
tp5413
F0.0017893660531697342
s(g4942
S'of'
p5414
tp5415
F0.0006390593047034765
s(g4088
S'[[adj]]'
p5416
tp5417
F0.001278118609406953
s(S'[[adj]]'
p5418
S'assigned'
p5419
tp5420
F0.0003834355828220859
s(S'redesignated'
p5421
S'[[det]]'
p5422
tp5423
F0.0002556237218813906
s(S'label'
p5424
S'based'
p5425
tp5426
F0.0003834355828220859
s(S'[[det]]'
p5427
S'returning'
p5428
tp5429
F0.0001278118609406953
s(S'was'
p5430
S'represented'
p5431
tp5432
F0.0001278118609406953
s(S'unit'
p5433
S'of'
p5434
tp5435
F0.0003834355828220859
s(S'[[det]]'
p5436
g1215
tp5437
F0.0028118609406952966
s(S'[[adj]]'
p5438
S'boarding'
p5439
tp5440
F0.0001278118609406953
s(S'fought'
p5441
S'[[det]]'
p5442
tp5443
F0.0001278118609406953
s(S'received'
p5444
S'at'
p5445
tp5446
F0.0007668711656441718
s(S'born'
p5447
g1274
tp5448
F0.0002556237218813906
s(g2196
S'[[num]]'
p5449
tp5450
F0.0002556237218813906
s(S'enrolled'
p5451
S'in'
p5452
tp5453
F0.0008946830265848671
s(S'officer'
p5454
g981
tp5455
F0.0001278118609406953
s(S'[[det]]'
p5456
S'named'
p5457
tp5458
F0.0001278118609406953
s(g5147
g1854
tp5459
F0.0001278118609406953
s(S'beach'
p5460
S'volleyball'
p5461
tp5462
F0.0001278118609406953
s(S'capital'
p5463
g2570
tp5464
F0.0003834355828220859
s(S'been'
p5465
S'educated'
p5466
tp5467
F0.0001278118609406953
s(S'played'
p5468
S'after'
p5469
tp5470
F0.0001278118609406953
s(S'schools'
p5471
S'[[num]]'
p5472
tp5473
F0.0001278118609406953
s(S'[[det]]'
p5474
S'members'
p5475
tp5476
F0.0002556237218813906
s(S'[[det]]'
p5477
S'station'
p5478
tp5479
F0.0014059304703476483
s(S'had'
p5480
S'dropped'
p5481
tp5482
F0.0001278118609406953
s(S'now'
p5483
S'living'
p5484
tp5485
F0.0001278118609406953
s(S'[[adj]]'
p5486
S'awarded'
p5487
tp5488
F0.0001278118609406953
s(S'[[adj]]'
p5489
S'moved'
p5490
tp5491
F0.0001278118609406953
s(g113
S'decoration'
p5492
tp5493
F0.0002556237218813906
s(S'broadcast'
p5494
S'[[adj]]'
p5495
tp5496
F0.0001278118609406953
s(g2880
S'as'
p5497
tp5498
F0.0007668711656441718
s(S'established'
p5499
S'[[num]]'
p5500
tp5501
F0.0001278118609406953
s(g241
S'[[det]]'
p5502
tp5503
F0.0001278118609406953
s(S'town'
p5504
S'[[con]]'
p5505
tp5506
F0.0008946830265848671
s(S'serve'
p5507
S'at'
p5508
tp5509
F0.0001278118609406953
s(g1637
g1552
tp5510
F0.0002556237218813906
s(S'called'
p5511
S'as'
p5512
tp5513
F0.0001278118609406953
s(S'[[det]]'
p5514
g4249
tp5515
F0.0007668711656441718
s(S'started'
p5516
S'[[con]]'
p5517
tp5518
F0.0001278118609406953
s(g2630
S'in'
p5519
tp5520
F0.0003834355828220859
s(S'located'
p5521
S'[[num]]'
p5522
tp5523
F0.0001278118609406953
s(g616
S'by'
p5524
tp5525
F0.0003834355828220859
s(S'when'
p5526
S'retired'
p5527
tp5528
F0.0001278118609406953
s(S'received'
p5529
S'of'
p5530
tp5531
F0.0001278118609406953
s(S'moved'
p5532
S'by'
p5533
tp5534
F0.0001278118609406953
s(S'then'
p5535
g3633
tp5536
F0.0007668711656441718
s(S'[[adj]]'
p5537
g3568
tp5538
F0.0007668711656441718
s(S'awarded'
p5539
S'to'
p5540
tp5541
F0.0001278118609406953
s(S'never'
p5542
S'played'
p5543
tp5544
F0.0007668711656441718
s(S'again'
p5545
S'represented'
p5546
tp5547
F0.0001278118609406953
s(S'debut'
p5548
S'to'
p5549
tp5550
F0.0002556237218813906
s(S'part'
p5551
S'[[det]]'
p5552
tp5553
F0.0001278118609406953
s(S'commander'
p5554
S'in'
p5555
tp5556
F0.0003834355828220859
s(S'[[adj]]'
p5557
S'station'
p5558
tp5559
F0.0024284253578732108
s(S'laws'
p5560
S'of'
p5561
tp5562
F0.0001278118609406953
s(S'leave'
p5563
S'in'
p5564
tp5565
F0.0002556237218813906
s(S'scored'
p5566
S'[[prp]]'
p5567
tp5568
F0.0005112474437627812
s(S'represented'
p5569
S'[[con]]'
p5570
tp5571
F0.0003834355828220859
s(S'later'
p5572
S'awarded'
p5573
tp5574
F0.0001278118609406953
s(S'[[adj]]'
p5575
S'water'
p5576
tp5577
F0.0001278118609406953
s(S'in'
p5578
S'match'
p5579
tp5580
F0.0002556237218813906
s(S'teams'
p5581
S'at'
p5582
tp5583
F0.0001278118609406953
s(g848
S'of'
p5584
tp5585
F0.0005112474437627812
s(S'[[adj]]'
p5586
g2649
tp5587
F0.0002556237218813906
s(S'ambassador'
p5588
S'in'
p5589
tp5590
F0.0002556237218813906
s(g2736
S'in'
p5591
tp5592
F0.0001278118609406953
s(S'that'
p5593
S'played'
p5594
tp5595
F0.0001278118609406953
s(S'appointed'
p5596
S'when'
p5597
tp5598
F0.0001278118609406953
s(S'commissioned'
p5599
S'[[det]]'
p5600
tp5601
F0.0006390593047034765
s(S'career'
p5602
S'as'
p5603
tp5604
F0.0002556237218813906
s(S'returned'
p5605
S'with'
p5606
tp5607
F0.0002556237218813906
s(g4349
S'as'
p5608
tp5609
F0.0001278118609406953
s(S'debut'
p5610
S'away'
p5611
tp5612
F0.0002556237218813906
s(S'district'
p5613
S'as'
p5614
tp5615
F0.0001278118609406953
s(S'was'
p5616
g1392
tp5617
F0.0010224948875255625
s(g1355
S'in'
p5618
tp5619
F0.0003834355828220859
s(S'officer'
p5620
S'[[con]]'
p5621
tp5622
F0.0001278118609406953
s(S'who'
p5623
S'won'
p5624
tp5625
F0.0001278118609406953
s(S'teams'
p5626
S'[[det]]'
p5627
tp5628
F0.0003834355828220859
s(S'[[det]]'
p5629
S'college'
p5630
tp5631
F0.0008946830265848671
s(S'candidate'
p5632
S'in'
p5633
tp5634
F0.0001278118609406953
s(S'operated'
p5635
S'[[con]]'
p5636
tp5637
F0.0002556237218813906
s(S'is'
p5638
g2756
tp5639
F0.0007668711656441718
s(S'video'
p5640
S'game'
p5641
tp5642
F0.0005112474437627812
s(S'later'
p5643
g1472
tp5644
F0.001278118609406953
s(S'[[mod]]'
p5645
S'tour'
p5646
tp5647
F0.0001278118609406953
s(S'transferred'
p5648
S'[[con]]'
p5649
tp5650
F0.0005112474437627812
s(S'[[det]]'
p5651
g189
tp5652
F0.0001278118609406953
s(S'head'
p5653
S'[[det]]'
p5654
tp5655
F0.0007668711656441718
s(g1758
S'command'
p5656
tp5657
F0.0008946830265848671
s(S'volunteered'
p5658
S'in'
p5659
tp5660
F0.0001278118609406953
s(S'[[adj]]'
p5661
g1882
tp5662
F0.0003834355828220859
s(S'[[det]]'
p5663
g3387
tp5664
F0.0006390593047034765
s(S'captained'
p5665
S'[[con]]'
p5666
tp5667
F0.0001278118609406953
s(S'[[det]]'
p5668
g1224
tp5669
F0.0005112474437627812
s(S'only'
p5670
g4866
tp5671
F0.0007668711656441718
s(S'theater'
p5672
S'in'
p5673
tp5674
F0.0002556237218813906
s(g5416
g459
tp5675
F0.001278118609406953
s(S'have'
p5676
S'fled'
p5677
tp5678
F0.0001278118609406953
s(S'played'
p5679
S'was'
p5680
tp5681
F0.0001278118609406953
s(g2568
S'belonging'
p5682
tp5683
F0.0001278118609406953
s(S'been'
p5684
S'acquired'
p5685
tp5686
F0.0001278118609406953
s(g3739
S'people'
p5687
tp5688
F0.0001278118609406953
s(S'before'
p5689
S'returning'
p5690
tp5691
F0.0002556237218813906
s(S'comprises'
p5692
S'[[det]]'
p5693
tp5694
F0.0001278118609406953
s(S'then'
p5695
S'entered'
p5696
tp5697
F0.0002556237218813906
s(S'census'
p5698
S'village'
p5699
tp5700
F0.0001278118609406953
s(S'fled'
p5701
S'into'
p5702
tp5703
F0.0001278118609406953
s(S'[[adj]]'
p5704
g5335
tp5705
F0.0005112474437627812
s(S'programs'
p5706
S'[[con]]'
p5707
tp5708
F0.0001278118609406953
s(S'came'
p5709
S'was'
p5710
tp5711
F0.0001278118609406953
s(S'helped'
p5712
S'[[adj]]'
p5713
tp5714
F0.0001278118609406953
s(g4143
S'from'
p5715
tp5716
F0.0003834355828220859
s(S'also'
p5717
g3851
tp5718
F0.0006390593047034765
s(S'officer'
p5719
S'[[det]]'
p5720
tp5721
F0.0001278118609406953
s(S'captain'
p5722
S'in'
p5723
tp5724
F0.0006390593047034765
s(g1231
S'[[det]]'
p5725
tp5726
F0.0003834355828220859
s(g4282
S'in'
p5727
tp5728
F0.0002556237218813906
s(S'matches'
p5729
S'to'
p5730
tp5731
F0.0001278118609406953
s(S'formerly'
p5732
S'served'
p5733
tp5734
F0.0005112474437627812
s(S'municipality'
p5735
S'located'
p5736
tp5737
F0.0001278118609406953
s(S'[[det]]'
p5738
S'governor'
p5739
tp5740
F0.0003834355828220859
s(S'was'
p5741
S'resigned'
p5742
tp5743
F0.0001278118609406953
s(S'played'
p5744
S'also'
p5745
tp5746
F0.0002556237218813906
s(S'join'
p5747
S'at'
p5748
tp5749
F0.0002556237218813906
s(S'at'
p5750
S'won'
p5751
tp5752
F0.0001278118609406953
s(S'left'
p5753
S'at'
p5754
tp5755
F0.0001278118609406953
s(S'ratified'
p5756
S'[[det]]'
p5757
tp5758
F0.0001278118609406953
s(S'[[con]]'
p5759
S'southwest'
p5760
tp5761
F0.0001278118609406953
s(S'as'
p5762
S'member'
p5763
tp5764
F0.0001278118609406953
s(S'had'
p5765
S'entered'
p5766
tp5767
F0.0002556237218813906
s(S'currently'
p5768
g3981
tp5769
F0.0001278118609406953
s(S'be'
p5770
S'accepted'
p5771
tp5772
F0.0001278118609406953
s(g3776
S'[[num]]'
p5773
tp5774
F0.0002556237218813906
s(S'assigned'
p5775
S'[[det]]'
p5776
tp5777
F0.0003834355828220859
s(S'[[adj]]'
p5778
S'commission'
p5779
tp5780
F0.0001278118609406953
s(S'form'
p5781
S'[[det]]'
p5782
tp5783
F0.0001278118609406953
s(S'being'
p5784
S'acquired'
p5785
tp5786
F0.0001278118609406953
s(S'[[det]]'
p5787
S'adviser'
p5788
tp5789
F0.0003834355828220859
s(S'county'
p5790
S'constituency'
p5791
tp5792
F0.0001278118609406953
s(S'was'
p5793
S'candidate'
p5794
tp5795
F0.0002556237218813906
s(S'from'
p5796
S'[[det]]'
p5797
tp5798
F0.0001278118609406953
s(S'again'
p5799
S'moved'
p5800
tp5801
F0.0001278118609406953
s(S'played'
p5802
S'then'
p5803
tp5804
F0.0001278118609406953
s(S'in'
p5805
S'[[det]]'
p5806
tp5807
F0.0035787321063394683
s(S'assigned'
p5808
S'[[con]]'
p5809
tp5810
F0.0001278118609406953
s(S'is'
p5811
S'known'
p5812
tp5813
F0.0003834355828220859
s(S'of'
p5814
S'served'
p5815
tp5816
F0.0001278118609406953
s(S'runner'
p5817
S'from'
p5818
tp5819
F0.0001278118609406953
s(S'to'
p5820
S'played'
p5821
tp5822
F0.0001278118609406953
s(g4175
S'of'
p5823
tp5824
F0.0005112474437627812
s(S'instructor'
p5825
S'for'
p5826
tp5827
F0.0002556237218813906
s(S'accepted'
p5828
S'to'
p5829
tp5830
F0.0003834355828220859
s(S'began'
p5831
S'competing'
p5832
tp5833
F0.0001278118609406953
s(g2708
S'at'
p5834
tp5835
F0.0007668711656441718
s(S'runs'
p5836
S'at'
p5837
tp5838
F0.0001278118609406953
s(S'moved'
p5839
S'at'
p5840
tp5841
F0.0003834355828220859
s(S'[[adj]]'
p5842
S'living'
p5843
tp5844
F0.0001278118609406953
s(g2187
S'[[det]]'
p5845
tp5846
F0.0003834355828220859
s(S'candidate'
p5847
S'[[det]]'
p5848
tp5849
F0.0002556237218813906
s(S'debuted'
p5850
S'for'
p5851
tp5852
F0.0001278118609406953
s(S'[[det]]'
p5853
S'census'
p5854
tp5855
F0.0003834355828220859
s(S'ambassador'
p5856
S'to'
p5857
tp5858
F0.0015337423312883436
s(S'win'
p5859
S'by'
p5860
tp5861
F0.0001278118609406953
s(S'coach'
p5862
S'with'
p5863
tp5864
F0.0005112474437627812
s(S'played'
p5865
S'as'
p5866
tp5867
F0.0008946830265848671
s(S'[[con]]'
p5868
S'moved'
p5869
tp5870
F0.0005112474437627812
s(S'played'
p5871
S'[[num]]'
p5872
tp5873
F0.006134969325153374
s(S'was'
p5874
S'president'
p5875
tp5876
F0.0008946830265848671
s(S'[[adj]]'
p5877
g5033
tp5878
F0.0015337423312883436
s(S'made'
p5879
S'commander'
p5880
tp5881
F0.0001278118609406953
s(S'[[prp]]'
p5882
S'return'
p5883
tp5884
F0.0008946830265848671
s(S'[[adj]]'
p5885
S'graduate'
p5886
tp5887
F0.0003834355828220859
s(g5077
S'range'
p5888
tp5889
F0.0007668711656441718
s(S'received'
p5890
S'[[prp]]'
p5891
tp5892
F0.0008946830265848671
s(S'[[det]]'
p5893
S'nominated'
p5894
tp5895
F0.0001278118609406953
s(S'player'
p5896
S'[[con]]'
p5897
tp5898
F0.0002556237218813906
s(S'[[mod]]'
p5899
S'lead'
p5900
tp5901
F0.0002556237218813906
s(S'played'
p5902
S'[[con]]'
p5903
tp5904
F0.0017893660531697342
s(S'schools'
p5905
S'of'
p5906
tp5907
F0.0001278118609406953
s(S'[[det]]'
p5908
S'oldest'
p5909
tp5910
F0.0008946830265848671
s(g2585
S'[[det]]'
p5911
tp5912
F0.0002556237218813906
s(S'has'
p5913
g3880
tp5914
F0.0001278118609406953
s(g3009
S'[[det]]'
p5915
tp5916
F0.0028118609406952966
s(S'was'
p5917
g4255
tp5918
F0.0002556237218813906
s(S'accredited'
p5919
S'[[con]]'
p5920
tp5921
F0.0001278118609406953
s(S'in'
p5922
S'charge'
p5923
tp5924
F0.0005112474437627812
s(S'covers'
p5925
S'[[num]]'
p5926
tp5927
F0.0001278118609406953
s(S'named'
p5928
S'for'
p5929
tp5930
F0.0002556237218813906
s(S'[[adj]]'
p5931
S'times'
p5932
tp5933
F0.0002556237218813906
s(S'return'
p5934
S'against'
p5935
tp5936
F0.0005112474437627812
s(S'[[det]]'
p5937
S'attended'
p5938
tp5939
F0.0001278118609406953
s(S'served'
p5940
S'[[adj]]'
p5941
tp5942
F0.0005112474437627812
s(S'[[adj]]'
p5943
S'founded'
p5944
tp5945
F0.0002556237218813906
s(S'football'
p5946
S'for'
p5947
tp5948
F0.0001278118609406953
s(S'[[adj]]'
p5949
g745
tp5950
F0.0006390593047034765
s(S'founded'
p5951
S'as'
p5952
tp5953
F0.0001278118609406953
s(S'return'
p5954
S'with'
p5955
tp5956
F0.0006390593047034765
s(S'took'
p5957
S'back'
p5958
tp5959
F0.0001278118609406953
s(g5883
S'from'
p5960
tp5961
F0.0003834355828220859
s(S'[[prp]]'
p5962
S'invasion'
p5963
tp5964
F0.0001278118609406953
s(g5350
S'before'
p5965
tp5966
F0.0002556237218813906
s(S'[[adj]]'
p5967
S'superintendent'
p5968
tp5969
F0.0003834355828220859
s(S'[[det]]'
p5970
g4047
tp5971
F0.0001278118609406953
s(S'has'
p5972
S'left'
p5973
tp5974
F0.0003834355828220859
s(S'river'
p5975
S'[[con]]'
p5976
tp5977
F0.0001278118609406953
s(S'form'
p5978
S'of'
p5979
tp5980
F0.0001278118609406953
s(S'programs'
p5981
S'[[adj]]'
p5982
tp5983
F0.0001278118609406953
s(S'left'
p5984
S'while'
p5985
tp5986
F0.0001278118609406953
s(S'command'
p5987
S'[[adj]]'
p5988
tp5989
F0.0001278118609406953
s(S'ran'
p5990
S'as'
p5991
tp5992
F0.0002556237218813906
s(g52
S'history'
p5993
tp5994
F0.0001278118609406953
s(S'arrived'
p5995
S'to'
p5996
tp5997
F0.0002556237218813906
s(S'[[num]]'
p5998
g3857
tp5999
F0.0001278118609406953
s(g3945
S'with'
p6000
tp6001
F0.0001278118609406953
s(S'graduate'
p6002
S'[[con]]'
p6003
tp6004
F0.0002556237218813906
s(g3319
S'from'
p6005
tp6006
F0.0002556237218813906
s(S'just'
p6007
S'[[num]]'
p6008
tp6009
F0.0001278118609406953
s(S'adviser'
p6010
S'of'
p6011
tp6012
F0.0001278118609406953
s(S'has'
p6013
g5871
tp6014
F0.0028118609406952966
s(S'[[adj]]'
p6015
S'match'
p6016
tp6017
F0.0035787321063394683
s(S'took'
p6018
S'over'
p6019
tp6020
F0.0003834355828220859
s(S'ranked'
p6021
S'[[num]]'
p6022
tp6023
F0.0003834355828220859
s(S'returning'
p6024
S'as'
p6025
tp6026
F0.0001278118609406953
s(g2111
S'of'
p6027
tp6028
F0.0002556237218813906
s(S'be'
p6029
g3066
tp6030
F0.0001278118609406953
s(S'marks'
p6031
S'[[det]]'
p6032
tp6033
F0.0001278118609406953
s(S'is'
p6034
g3688
tp6035
F0.0005112474437627812
s(S'represented'
p6036
S'where'
p6037
tp6038
F0.0001278118609406953
s(S'moved'
p6039
S'for'
p6040
tp6041
F0.0003834355828220859
s(g1426
S'[[det]]'
p6042
tp6043
F0.0002556237218813906
s(g5189
S'by'
p6044
tp6045
F0.0001278118609406953
s(S'until'
p6046
S'retired'
p6047
tp6048
F0.0001278118609406953
s(S'soldiers'
p6049
S'in'
p6050
tp6051
F0.0001278118609406953
s(S'also'
p6052
g4195
tp6053
F0.0001278118609406953
s(g291
S'by'
p6054
tp6055
F0.0002556237218813906
s(S'town'
p6056
S'in'
p6057
tp6058
F0.0011503067484662577
s(S'[[num]]'
p6059
S'campuses'
p6060
tp6061
F0.0002556237218813906
s(S'won'
p6062
S'[[det]]'
p6063
tp6064
F0.0006390593047034765
s(S'is'
p6065
S'honored'
p6066
tp6067
F0.0001278118609406953
s(S'started'
p6068
S'when'
p6069
tp6070
F0.0001278118609406953
s(g5854
S'town'
p6071
tp6072
F0.0002556237218813906
s(S'state'
p6073
S'that'
p6074
tp6075
F0.0001278118609406953
s(g4094
S'to'
p6076
tp6077
F0.0001278118609406953
s(S'live'
p6078
S'from'
p6079
tp6080
F0.0001278118609406953
s(S'first'
p6081
S'attended'
p6082
tp6083
F0.0003834355828220859
s(S'fought'
p6084
S'over'
p6085
tp6086
F0.0001278118609406953
s(S'[[det]]'
p6087
S'invasion'
p6088
tp6089
F0.0001278118609406953
s(S'[[adj]]'
p6090
S'educated'
p6091
tp6092
F0.0001278118609406953
s(S'school'
p6093
S'located'
p6094
tp6095
F0.0010224948875255625
s(S'called'
p6096
S'for'
p6097
tp6098
F0.0005112474437627812
s(S'as'
p6099
S'joined'
p6100
tp6101
F0.0001278118609406953
s(S'[[det]]'
p6102
S'independence'
p6103
tp6104
F0.0001278118609406953
s(S'board'
p6105
S'in'
p6106
tp6107
F0.0001278118609406953
s(S'scored'
p6108
S'only'
p6109
tp6110
F0.0001278118609406953
s(g1541
S'in'
p6111
tp6112
F0.0005112474437627812
s(S'during'
p6113
S'tour'
p6114
tp6115
F0.0001278118609406953
s(S'fled'
p6116
S'in'
p6117
tp6118
F0.0001278118609406953
s(S'represented'
p6119
S'in'
p6120
tp6121
F0.0005112474437627812
s(S'to'
p6122
S'captain'
p6123
tp6124
F0.0002556237218813906
s(S'released'
p6125
S'only'
p6126
tp6127
F0.0001278118609406953
s(S'in'
p6128
S'won'
p6129
tp6130
F0.0001278118609406953
s(g1237
g52
tp6131
F0.0002556237218813906
s(g2070
S'became'
p6132
tp6133
F0.0001278118609406953
s(S'[[num]]'
p6134
g4966
tp6135
F0.0002556237218813906
s(S'[[pro]]'
p6136
S'arrived'
p6137
tp6138
F0.0001278118609406953
s(S'[[adj]]'
p6139
S'released'
p6140
tp6141
F0.0003834355828220859
s(S'[[det]]'
p6142
g2243
tp6143
F0.0006390593047034765
s(g1660
S'[[det]]'
p6144
tp6145
F0.0001278118609406953
s(S'[[adj]]'
p6146
g1254
tp6147
F0.0001278118609406953
s(S'lost'
p6148
S'to'
p6149
tp6150
F0.0006390593047034765
s(S'previously'
p6151
S'served'
p6152
tp6153
F0.002556237218813906
s(S'is'
p6154
S'selected'
p6155
tp6156
F0.0002556237218813906
s(S'students'
p6157
S'[[con]]'
p6158
tp6159
F0.0002556237218813906
s(g4951
S'in'
p6160
tp6161
F0.0002556237218813906
s(S'named'
p6162
S'on'
p6163
tp6164
F0.0001278118609406953
s(S'years'
p6165
S'on'
p6166
tp6167
F0.0002556237218813906
s(S'candidate'
p6168
S'[[con]]'
p6169
tp6170
F0.0001278118609406953
s(g2624
S'in'
p6171
tp6172
F0.0005112474437627812
s(S'played'
p6173
S'over'
p6174
tp6175
F0.0008946830265848671
s(S'of'
p6176
S'squad'
p6177
tp6178
F0.0001278118609406953
s(S'again'
p6179
S'named'
p6180
tp6181
F0.0006390593047034765
s(S'is'
p6182
S'retired'
p6183
tp6184
F0.0002556237218813906
s(S'is'
p6185
S'released'
p6186
tp6187
F0.0002556237218813906
s(S'accepted'
p6188
S'at'
p6189
tp6190
F0.0005112474437627812
s(S'been'
p6191
S'admitted'
p6192
tp6193
F0.0001278118609406953
s(g1198
S'[[con]]'
p6194
tp6195
F0.0005112474437627812
s(g3170
S'[[det]]'
p6196
tp6197
F0.0005112474437627812
s(g5425
S'in'
p6198
tp6199
F0.0014059304703476483
s(S'transferred'
p6200
S'by'
p6201
tp6202
F0.0001278118609406953
s(S'played'
p6203
S'where'
p6204
tp6205
F0.0005112474437627812
s(S'became'
p6206
S'champion'
p6207
tp6208
F0.0001278118609406953
s(g5742
S'by'
p6209
tp6210
F0.0002556237218813906
s(S'joined'
p6211
S'when'
p6212
tp6213
F0.0001278118609406953
s(S'schools'
p6214
S'as'
p6215
tp6216
F0.0001278118609406953
s(g2593
S'today'
p6217
tp6218
F0.0002556237218813906
s(S'college'
p6219
S'[[det]]'
p6220
tp6221
F0.0002556237218813906
s(S'first'
p6222
S'represented'
p6223
tp6224
F0.0003834355828220859
s(S'tour'
p6225
S'of'
p6226
tp6227
F0.0007668711656441718
s(S'not'
p6228
S'represent'
p6229
tp6230
F0.0001278118609406953
s(S'state'
p6231
S'[[con]]'
p6232
tp6233
F0.0001278118609406953
s(S'appearance'
p6234
S'on'
p6235
tp6236
F0.0001278118609406953
s(S'[[det]]'
p6237
S'basketball'
p6238
tp6239
F0.0002556237218813906
s(S'port'
p6240
S'in'
p6241
tp6242
F0.0001278118609406953
s(S'who'
p6243
S'has'
p6244
tp6245
F0.0001278118609406953
s(S'of'
p6246
S'tour'
p6247
tp6248
F0.0001278118609406953
s(S'captain'
p6249
S'[[det]]'
p6250
tp6251
F0.0002556237218813906
s(S'when'
p6252
S'acquired'
p6253
tp6254
F0.0001278118609406953
s(S'debuted'
p6255
S'with'
p6256
tp6257
F0.0001278118609406953
s(S'[[con]]'
p6258
g1071
tp6259
F0.0007668711656441718
s(S'[[num]]'
p6260
S'based'
p6261
tp6262
F0.0001278118609406953
s(S'city'
p6263
g4504
tp6264
F0.0002556237218813906
s(S'debuted'
p6265
S'[[num]]'
p6266
tp6267
F0.0001278118609406953
s(g3409
S'[[con]]'
p6268
tp6269
F0.0003834355828220859
s(g5121
S'[[det]]'
p6270
tp6271
F0.002556237218813906
s(S'community'
p6272
S'of'
p6273
tp6274
F0.0003834355828220859
s(S'established'
p6275
S'on'
p6276
tp6277
F0.0001278118609406953
s(S'join'
p6278
S'[[det]]'
p6279
tp6280
F0.0003834355828220859
s(g52
S'coach'
p6281
tp6282
F0.0001278118609406953
s(S'moved'
p6283
S'there'
p6284
tp6285
F0.0001278118609406953
s(S'later'
p6286
S'returned'
p6287
tp6288
F0.0002556237218813906
s(S'joined'
p6289
S'from'
p6290
tp6291
F0.0005112474437627812
s(g6094
S'on'
p6292
tp6293
F0.0005112474437627812
s(g3472
S'learning'
p6294
tp6295
F0.0002556237218813906
s(S'was'
p6296
S'captain'
p6297
tp6298
F0.0003834355828220859
s(S'again'
p6299
g2614
tp6300
F0.0002556237218813906
s(S'being'
p6301
S'awarded'
p6302
tp6303
F0.0001278118609406953
s(S'of'
p6304
S'joined'
p6305
tp6306
F0.0001278118609406953
s(S'been'
p6307
S'built'
p6308
tp6309
F0.0001278118609406953
s(S'football'
p6310
S'in'
p6311
tp6312
F0.0001278118609406953
s(S'represented'
p6313
S'for'
p6314
tp6315
F0.0003834355828220859
s(S'[[num]]'
p6316
S'champion'
p6317
tp6318
F0.0001278118609406953
s(S'[[det]]'
p6319
S'scorer'
p6320
tp6321
F0.0001278118609406953
s(S'won'
p6322
S'against'
p6323
tp6324
F0.0001278118609406953
s(S'[[con]]'
p6325
S'governor'
p6326
tp6327
F0.0001278118609406953
s(g1055
S'to'
p6328
tp6329
F0.0003834355828220859
s(S'awarded'
p6330
S'from'
p6331
tp6332
F0.0006390593047034765
s(S'won'
p6333
S'[[num]]'
p6334
tp6335
F0.0002556237218813906
s(g110
S'[[det]]'
p6336
tp6337
F0.0002556237218813906
s(S'[[pro]]'
p6338
g3125
tp6339
F0.0001278118609406953
s(S'just'
p6340
S'left'
p6341
tp6342
F0.0002556237218813906
s(S'not'
p6343
S'return'
p6344
tp6345
F0.0001278118609406953
s(S'also'
p6346
S'graduated'
p6347
tp6348
F0.0002556237218813906
s(S'started'
p6349
S'for'
p6350
tp6351
F0.0001278118609406953
s(S'[[con]]'
p6352
S'transferred'
p6353
tp6354
F0.0003834355828220859
s(S'after'
p6355
S'lost'
p6356
tp6357
F0.0001278118609406953
s(S'as'
p6358
S'moved'
p6359
tp6360
F0.0002556237218813906
s(S'[[num]]'
p6361
g2646
tp6362
F0.0010224948875255625
s(S'play'
p6363
S'at'
p6364
tp6365
F0.0001278118609406953
s(S'when'
p6366
S'moved'
p6367
tp6368
F0.0001278118609406953
s(S'started'
p6369
S'out'
p6370
tp6371
F0.0001278118609406953
s(S'have'
p6372
g2850
tp6373
F0.0001278118609406953
s(S'ports'
p6374
S'[[con]]'
p6375
tp6376
F0.0001278118609406953
s(S'was'
p6377
S'won'
p6378
tp6379
F0.0001278118609406953
s(S'[[prp]]'
p6380
S'[[adj]]'
p6381
tp6382
F0.0014059304703476483
s(S'returned'
p6383
S'where'
p6384
tp6385
F0.0001278118609406953
s(S'[[adj]]'
p6386
g1260
tp6387
F0.0001278118609406953
s(g38
S'in'
p6388
tp6389
F0.0005112474437627812
s(S'km'
p6390
S'away'
p6391
tp6392
F0.0001278118609406953
s(g1078
S'to'
p6393
tp6394
F0.0015337423312883436
s(S'village'
p6395
g4207
tp6396
F0.0002556237218813906
s(S'in'
p6397
g3221
tp6398
F0.0001278118609406953
s(S'testified'
p6399
S'before'
p6400
tp6401
F0.0003834355828220859
s(S'is'
p6402
g308
tp6403
F0.0002556237218813906
s(S'form'
p6404
S'[[con]]'
p6405
tp6406
F0.0001278118609406953
s(S'ruled'
p6407
S'in'
p6408
tp6409
F0.0001278118609406953
s(S'also'
p6410
g3738
tp6411
F0.0002556237218813906
s(S'recalled'
p6412
S'by'
p6413
tp6414
F0.0002556237218813906
s(S'theater'
p6415
S'of'
p6416
tp6417
F0.0001278118609406953
s(S'[[adj]]'
p6418
S'arrived'
p6419
tp6420
F0.0001278118609406953
s(g1602
S'for'
p6421
tp6422
F0.0019171779141104294
s(g4085
S'in'
p6423
tp6424
F0.0001278118609406953
s(g699
g4476
tp6425
F0.0001278118609406953
s(S'graduate'
p6426
S'of'
p6427
tp6428
F0.0005112474437627812
s(S'author'
p6429
S'[[det]]'
p6430
tp6431
F0.0002556237218813906
s(S'[[num]]'
p6432
S'as'
p6433
tp6434
F0.0001278118609406953
s(S'transferred'
p6435
S'at'
p6436
tp6437
F0.0001278118609406953
s(S'also'
p6438
S'ran'
p6439
tp6440
F0.0002556237218813906
s(S'teams'
p6441
S'in'
p6442
tp6443
F0.0003834355828220859
s(S'acquired'
p6444
S'in'
p6445
tp6446
F0.0001278118609406953
s(S'declared'
p6447
S'independence'
p6448
tp6449
F0.0001278118609406953
s(S'had'
p6450
S'served'
p6451
tp6452
F0.0008946830265848671
s(S'has'
p6453
S'remained'
p6454
tp6455
F0.0001278118609406953
s(S'hockey'
p6456
S'player'
p6457
tp6458
F0.0002556237218813906
s(S'ruled'
p6459
S'over'
p6460
tp6461
F0.0001278118609406953
s(g259
g5424
tp6462
F0.0003834355828220859
s(S'also'
p6463
S'acquired'
p6464
tp6465
F0.0003834355828220859
s(S'testified'
p6466
S'on'
p6467
tp6468
F0.0002556237218813906
s(S'attended'
p6469
S'before'
p6470
tp6471
F0.0003834355828220859
s(S'was'
p6472
S'annexed'
p6473
tp6474
F0.0005112474437627812
s(S'represented'
p6475
S'with'
p6476
tp6477
F0.0005112474437627812
s(S'is'
p6478
S'president'
p6479
tp6480
F0.0006390593047034765
s(S'rest'
p6481
S'of'
p6482
tp6483
F0.0001278118609406953
s(g5968
S'in'
p6484
tp6485
F0.0001278118609406953
s(S'play'
p6486
S'cricket'
p6487
tp6488
F0.0001278118609406953
s(S'who'
p6489
S'arrived'
p6490
tp6491
F0.0001278118609406953
s(g3099
g2371
tp6492
F0.0001278118609406953
s(S'[[adj]]'
p6493
S'towns'
p6494
tp6495
F0.0003834355828220859
s(S'born'
p6496
S'into'
p6497
tp6498
F0.0001278118609406953
s(g872
S'debut'
p6499
tp6500
F0.0003834355828220859
s(S'recalled'
p6501
S'in'
p6502
tp6503
F0.0001278118609406953
s(S'scorer'
p6504
S'[[con]]'
p6505
tp6506
F0.0001278118609406953
s(S'commander'
p6507
S'[[det]]'
p6508
tp6509
F0.0003834355828220859
s(S'minister'
p6510
S'to'
p6511
tp6512
F0.0003834355828220859
s(S'was'
p6513
S'affiliated'
p6514
tp6515
F0.0001278118609406953
s(S'commanded'
p6516
S'[[con]]'
p6517
tp6518
F0.0001278118609406953
s(S'[[num]]'
p6519
S'regions'
p6520
tp6521
F0.0002556237218813906
s(S'have'
p6522
S'arrived'
p6523
tp6524
F0.0001278118609406953
s(S'in'
p6525
S'released'
p6526
tp6527
F0.0001278118609406953
s(S'player'
p6528
S'on'
p6529
tp6530
F0.0002556237218813906
s(S'had'
p6531
g5441
tp6532
F0.0002556237218813906
s(S'in'
p6533
S'win'
p6534
tp6535
F0.0001278118609406953
s(S'honor'
p6536
S'in'
p6537
tp6538
F0.0001278118609406953
s(S'in'
p6539
S'innings'
p6540
tp6541
F0.0001278118609406953
s(g4561
S'in'
p6542
tp6543
F0.0002556237218813906
s(S'was'
p6544
S'served'
p6545
tp6546
F0.0001278118609406953
s(S'head'
p6547
S'to'
p6548
tp6549
F0.0002556237218813906
s(g4799
S'for'
p6550
tp6551
F0.0006390593047034765
s(g875
g3741
tp6552
F0.0001278118609406953
s(S'not'
p6553
S'released'
p6554
tp6555
F0.0003834355828220859
s(S'to'
p6556
g3621
tp6557
F0.0019171779141104294
s(S'founded'
p6558
S'which'
p6559
tp6560
F0.0001278118609406953
s(S'enrolled'
p6561
S'at'
p6562
tp6563
F0.0008946830265848671
s(S'just'
p6564
S'returned'
p6565
tp6566
F0.0001278118609406953
s(S'soon'
p6567
S'moved'
p6568
tp6569
F0.0001278118609406953
s(S'[[det]]'
p6570
g793
tp6571
F0.0024284253578732108
s(g52
S'appointment'
p6572
tp6573
F0.0002556237218813906
s(S'started'
p6574
S'in'
p6575
tp6576
F0.0001278118609406953
s(S'took'
p6577
S'[[det]]'
p6578
tp6579
F0.0003834355828220859
s(S'university'
p6580
g5805
tp6581
F0.0014059304703476483
s(S'received'
p6582
S'[[num]]'
p6583
tp6584
F0.0003834355828220859
s(S'[[det]]'
p6585
S'graduated'
p6586
tp6587
F0.0001278118609406953
s(S'[[det]]'
p6588
S'selection'
p6589
tp6590
F0.0001278118609406953
s(S'then'
p6591
S'graduated'
p6592
tp6593
F0.0005112474437627812
s(S'attended'
p6594
S'[[con]]'
p6595
tp6596
F0.0033231083844580778
s(S'started'
p6597
S'[[num]]'
p6598
tp6599
F0.0001278118609406953
s(g517
S'in'
p6600
tp6601
F0.0001278118609406953
s(g6565
S'from'
p6602
tp6603
F0.0001278118609406953
s(S'also'
p6604
S'left'
p6605
tp6606
F0.0001278118609406953
s(g5806
S'city'
p6607
tp6608
F0.0008946830265848671
s(S'attended'
p6609
S'for'
p6610
tp6611
F0.0001278118609406953
s(g2682
S'city'
p6612
tp6613
F0.0008946830265848671
s(S'helped'
p6614
S'found'
p6615
tp6616
F0.0006390593047034765
s(S'represented'
p6617
S'before'
p6618
tp6619
F0.0001278118609406953
s(S'who'
p6620
S'joined'
p6621
tp6622
F0.0003834355828220859
s(S'nominated'
p6623
g4641
tp6624
F0.0005112474437627812
s(S'as'
p6625
S'coach'
p6626
tp6627
F0.0001278118609406953
s(S'served'
p6628
S'off'
p6629
tp6630
F0.0001278118609406953
s(S'who'
p6631
g100
tp6632
F0.0001278118609406953
s(g1593
S'in'
p6633
tp6634
F0.0017893660531697342
s(S'[[adj]]'
p6635
S'joined'
p6636
tp6637
F0.0002556237218813906
s(S'dropped'
p6638
S'from'
p6639
tp6640
F0.0002556237218813906
s(S'entered'
p6641
S'after'
p6642
tp6643
F0.0001278118609406953
s(S'come'
p6644
S'back'
p6645
tp6646
F0.0002556237218813906
s(S'serve'
p6647
S'to'
p6648
tp6649
F0.0002556237218813906
s(g6294
S'located'
p6650
tp6651
F0.0001278118609406953
s(S'[[adj]]'
p6652
g2213
tp6653
F0.0002556237218813906
s(S'operates'
p6654
S'under'
p6655
tp6656
F0.0001278118609406953
s(S'as'
p6657
S'commander'
p6658
tp6659
F0.0001278118609406953
s(g52
S'based'
p6660
tp6661
F0.0001278118609406953
s(S'title'
p6662
S'with'
p6663
tp6664
F0.0001278118609406953
s(S'posted'
p6665
S'[[con]]'
p6666
tp6667
F0.0001278118609406953
s(S'dropped'
p6668
S'[[num]]'
p6669
tp6670
F0.0001278118609406953
s(g5478
S'[[adj]]'
p6671
tp6672
F0.0003834355828220859
s(S'author'
p6673
S'[[con]]'
p6674
tp6675
F0.0001278118609406953
s(S'home'
p6676
S'to'
p6677
tp6678
F0.0002556237218813906
s(S'[[adj]]'
p6679
S'city'
p6680
tp6681
F0.0003834355828220859
s(S'after'
p6682
S'played'
p6683
tp6684
F0.0001278118609406953
s(S'tour'
p6685
S'through'
p6686
tp6687
F0.0002556237218813906
s(S'have'
p6688
S'won'
p6689
tp6690
F0.0001278118609406953
s(S'[[adj]]'
p6691
g1351
tp6692
F0.0006390593047034765
s(S'[[adj]]'
p6693
S'studied'
p6694
tp6695
F0.0001278118609406953
s(S'later'
p6696
g6119
tp6697
F0.0002556237218813906
s(S'testified'
p6698
S'in'
p6699
tp6700
F0.0001278118609406953
s(S'known'
p6701
S'[[adj]]'
p6702
tp6703
F0.0001278118609406953
s(S'also'
p6704
S'located'
p6705
tp6706
F0.0002556237218813906
s(S'governor'
p6707
S'[[det]]'
p6708
tp6709
F0.0003834355828220859
s(S'runs'
p6710
S'for'
p6711
tp6712
F0.0001278118609406953
s(S'to'
p6713
g3163
tp6714
F0.0001278118609406953
s(S'released'
p6715
g3204
tp6716
F0.0001278118609406953
s(S'called'
p6717
S'of'
p6718
tp6719
F0.0001278118609406953
s(g1955
S'from'
p6720
tp6721
F0.001278118609406953
s(S'also'
p6722
S'named'
p6723
tp6724
F0.0008946830265848671
s(g2679
S'on'
p6725
tp6726
F0.0002556237218813906
s(S'[[pro]]'
p6727
S'joined'
p6728
tp6729
F0.0001278118609406953
s(S'of'
p6730
g1865
tp6731
F0.0001278118609406953
s(S'innings'
p6732
S'for'
p6733
tp6734
F0.0001278118609406953
s(S'also'
p6735
S'serve'
p6736
tp6737
F0.0001278118609406953
s(S'be'
p6738
g2675
tp6739
F0.0001278118609406953
s(S'as'
p6740
S'[[adj]]'
p6741
tp6742
F0.0005112474437627812
s(S'served'
p6743
S'from'
p6744
tp6745
F0.0006390593047034765
s(S'school'
p6746
S'of'
p6747
tp6748
F0.0002556237218813906
s(S'was'
p6749
g790
tp6750
F0.0031952965235173825
s(S'when'
p6751
S'entered'
p6752
tp6753
F0.0002556237218813906
s(S'resigned'
p6754
S'as'
p6755
tp6756
F0.0001278118609406953
s(S'imported'
p6757
S'from'
p6758
tp6759
F0.0001278118609406953
s(S'remained'
p6760
S'part'
p6761
tp6762
F0.0001278118609406953
s(g4462
S'by'
p6763
tp6764
F0.0011503067484662577
s(S'[[det]]'
p6765
S'ward'
p6766
tp6767
F0.0002556237218813906
s(S'station'
p6768
S'after'
p6769
tp6770
F0.0002556237218813906
s(g1500
g3028
tp6771
F0.0001278118609406953
s(g2906
S'including'
p6772
tp6773
F0.0001278118609406953
s(S'started'
p6774
S'from'
p6775
tp6776
F0.0001278118609406953
s(S'[[det]]'
p6777
g4192
tp6778
F0.0001278118609406953
s(S'[[adj]]'
p6779
g5370
tp6780
F0.0006390593047034765
s(S'[[adj]]'
p6781
S'represented'
p6782
tp6783
F0.0001278118609406953
s(S'assigned'
p6784
S'[[pro]]'
p6785
tp6786
F0.0001278118609406953
s(S'promoted'
p6787
S'from'
p6788
tp6789
F0.0001278118609406953
s(S'quickly'
p6790
g4578
tp6791
F0.0001278118609406953
s(S'built'
p6792
S'[[det]]'
p6793
tp6794
F0.0001278118609406953
s(S'in'
p6795
S'played'
p6796
tp6797
F0.0001278118609406953
s(S'career'
p6798
S'[[con]]'
p6799
tp6800
F0.0001278118609406953
s(S'matches'
p6801
S'then'
p6802
tp6803
F0.0001278118609406953
s(S'[[adj]]'
p6804
g6272
tp6805
F0.0003834355828220859
s(S'located'
p6806
S'[[adj]]'
p6807
tp6808
F0.0002556237218813906
s(g493
S'with'
p6809
tp6810
F0.0005112474437627812
s(S'took'
p6811
S'for'
p6812
tp6813
F0.0001278118609406953
s(S'be'
p6814
S'returned'
p6815
tp6816
F0.0001278118609406953
s(S'was'
p6817
S'awarded'
p6818
tp6819
F0.0024284253578732108
s(g4792
S'[[det]]'
p6820
tp6821
F0.0005112474437627812
s(S'based'
p6822
g5364
tp6823
F0.0001278118609406953
s(S'[[adj]]'
p6824
g6415
tp6825
F0.0002556237218813906
s(g2807
g2273
tp6826
F0.0002556237218813906
s(S'oldest'
p6827
S'school'
p6828
tp6829
F0.0001278118609406953
s(S'being'
p6830
S'assigned'
p6831
tp6832
F0.0001278118609406953
s(g5161
S'[[det]]'
p6833
tp6834
F0.0001278118609406953
s(S'was'
p6835
g3571
tp6836
F0.0010224948875255625
s(S'who'
p6837
S'founded'
p6838
tp6839
F0.0001278118609406953
s(S'have'
p6840
S'served'
p6841
tp6842
F0.0001278118609406953
s(S'was'
p6843
S'based'
p6844
tp6845
F0.0001278118609406953
s(S'situated'
p6846
S'near'
p6847
tp6848
F0.0001278118609406953
s(S'instructor'
p6849
S'at'
p6850
tp6851
F0.0003834355828220859
s(S'[[adj]]'
p6852
g1446
tp6853
F0.0015337423312883436
s(S'not'
p6854
S'play'
p6855
tp6856
F0.0001278118609406953
s(S'[[adj]]'
p6857
S'received'
p6858
tp6859
F0.0001278118609406953
s(S'forms'
p6860
g5551
tp6861
F0.0001278118609406953
s(S'joined'
p6862
S'after'
p6863
tp6864
F0.0001278118609406953
s(S'left'
p6865
S'[[det]]'
p6866
tp6867
F0.0015337423312883436
s(S'recognized'
p6868
S'with'
p6869
tp6870
F0.0001278118609406953
s(S'built'
p6871
S'in'
p6872
tp6873
F0.0010224948875255625
s(S'promoted'
p6874
S'with'
p6875
tp6876
F0.0002556237218813906
s(S'constituency'
p6877
S'in'
p6878
tp6879
F0.0001278118609406953
s(g104
S'for'
p6880
tp6881
F0.0001278118609406953
s(S'had'
p6882
S'returned'
p6883
tp6884
F0.0001278118609406953
s(S'years'
p6885
S'[[num]]'
p6886
tp6887
F0.0001278118609406953
s(S'play'
p6888
S'during'
p6889
tp6890
F0.0001278118609406953
s(g3164
S'landings'
p6891
tp6892
F0.0001278118609406953
s(g5923
S'at'
p6893
tp6894
F0.0001278118609406953
s(S'of'
p6895
S'soldiers'
p6896
tp6897
F0.0001278118609406953
s(S'played'
p6898
S'of'
p6899
tp6900
F0.0002556237218813906
s(S'[[det]]'
p6901
S'theater'
p6902
tp6903
F0.0002556237218813906
s(S'have'
p6904
S'represented'
p6905
tp6906
F0.0001278118609406953
s(S'appointed'
p6907
S'at'
p6908
tp6909
F0.0011503067484662577
s(S'been'
p6910
S'transferred'
p6911
tp6912
F0.0001278118609406953
s(S'[[adj]]'
p6913
g138
tp6914
F0.0001278118609406953
s(S'ruled'
p6915
S'[[con]]'
p6916
tp6917
F0.0001278118609406953
s(S'returned'
p6918
S'[[con]]'
p6919
tp6920
F0.0003834355828220859
s(S'[[adj]]'
p6921
S'appointed'
p6922
tp6923
F0.0002556237218813906
s(g52
S'college'
p6924
tp6925
F0.0002556237218813906
s(S'[[adj]]'
p6926
S'largest'
p6927
tp6928
F0.0014059304703476483
s(g6479
S'[[con]]'
p6929
tp6930
F0.0011503067484662577
s(S'studied'
p6931
S'[[num]]'
p6932
tp6933
F0.0001278118609406953
s(S'not'
p6934
S'played'
p6935
tp6936
F0.0003834355828220859
s(S'returned'
p6937
S'for'
p6938
tp6939
F0.0002556237218813906
s(S'had'
p6940
S'moved'
p6941
tp6942
F0.0001278118609406953
s(S'head'
p6943
S'[[con]]'
p6944
tp6945
F0.0003834355828220859
s(S'then'
p6946
S'returned'
p6947
tp6948
F0.0008946830265848671
s(g4399
S'in'
p6949
tp6950
F0.0002556237218813906
s(S'which'
p6951
S'received'
p6952
tp6953
F0.0001278118609406953
s(S'been'
p6954
S'appointed'
p6955
tp6956
F0.0008946830265848671
s(S'player'
p6957
S'in'
p6958
tp6959
F0.0006390593047034765
s(S'[[det]]'
p6960
S'lieutenant'
p6961
tp6962
F0.0003834355828220859
s(g1703
S'[[con]]'
p6963
tp6964
F0.0002556237218813906
s(g3759
S'in'
p6965
tp6966
F0.0005112474437627812
s(S'scorer'
p6967
S'for'
p6968
tp6969
F0.0001278118609406953
s(S'was'
p6970
S'minister'
p6971
tp6972
F0.0003834355828220859
s(S'[[adj]]'
p6973
g2388
tp6974
F0.0007668711656441718
s(S'player'
p6975
S'to'
p6976
tp6977
F0.0001278118609406953
s(S'in'
p6978
S'tour'
p6979
tp6980
F0.0001278118609406953
s(S'[[num]]'
p6981
S'joined'
p6982
tp6983
F0.0001278118609406953
s(S'wickets'
p6984
S'in'
p6985
tp6986
F0.0001278118609406953
s(S'[[det]]'
p6987
S'appointed'
p6988
tp6989
F0.0001278118609406953
s(S'is'
p6990
S'founded'
p6991
tp6992
F0.0001278118609406953
s(S'[[det]]'
p6993
g2740
tp6994
F0.0003834355828220859
s(g2565
S'town'
p6995
tp6996
F0.0001278118609406953
s(S'best'
p6997
g6957
tp6998
F0.0001278118609406953
s(S'station'
p6999
S'when'
p7000
tp7001
F0.0001278118609406953
s(g6473
S'by'
p7002
tp7003
F0.0002556237218813906
s(S'largest'
p7004
S'lake'
p7005
tp7006
F0.0003834355828220859
s(S'where'
p7007
S'graduated'
p7008
tp7009
F0.0001278118609406953
s(S'[[adj]]'
p7010
S'waterway'
p7011
tp7012
F0.0001278118609406953
s(S'represent'
p7013
S'[[con]]'
p7014
tp7015
F0.0001278118609406953
s(S'also'
p7016
g3784
tp7017
F0.0002556237218813906
s(S'admitted'
p7018
S'as'
p7019
tp7020
F0.0001278118609406953
s(S'won'
p7021
S'from'
p7022
tp7023
F0.0002556237218813906
s(S'later'
p7024
S'attended'
p7025
tp7026
F0.0011503067484662577
s(S'had'
p7027
S'represented'
p7028
tp7029
F0.0003834355828220859
s(S'of'
p7030
S'member'
p7031
tp7032
F0.0001278118609406953
s(S'to'
p7033
g6404
tp7034
F0.0008946830265848671
s(S'[[det]]'
p7035
S'title'
p7036
tp7037
F0.0007668711656441718
s(S'more'
p7038
S'[[num]]'
p7039
tp7040
F0.0002556237218813906
s(S'played'
p7041
S'again'
p7042
tp7043
F0.0001278118609406953
s(S'[[num]]'
p7044
S'acquired'
p7045
tp7046
F0.0001278118609406953
s(S'was'
p7047
S'enrolled'
p7048
tp7049
F0.0005112474437627812
s(S'victory'
p7050
S'in'
p7051
tp7052
F0.0001278118609406953
s(S'then'
p7053
g2897
tp7054
F0.0001278118609406953
s(g5192
S'in'
p7055
tp7056
F0.0010224948875255625
s(S'also'
p7057
g651
tp7058
F0.0001278118609406953
s(S'charge'
p7059
S'of'
p7060
tp7061
F0.0003834355828220859
s(S'selection'
p7062
S'[[con]]'
p7063
tp7064
F0.0001278118609406953
s(S'left'
p7065
S'because'
p7066
tp7067
F0.0001278118609406953
s(S'had'
p7068
S'started'
p7069
tp7070
F0.0001278118609406953
s(S'be'
p7071
g156
tp7072
F0.0002556237218813906
s(S'[[con]]'
p7073
S'retired'
p7074
tp7075
F0.0001278118609406953
s(S'called'
p7076
S'before'
p7077
tp7078
F0.0001278118609406953
s(S'was'
p7079
g1940
tp7080
F0.0007668711656441718
s(S'colleges'
p7081
S'of'
p7082
tp7083
F0.0002556237218813906
s(S'player'
p7084
S'that'
p7085
tp7086
F0.0001278118609406953
s(g4514
S'to'
p7087
tp7088
F0.0001278118609406953
s(S'[[con]]'
p7089
S'fled'
p7090
tp7091
F0.0002556237218813906
s(S'[[con]]'
p7092
S'acquired'
p7093
tp7094
F0.0002556237218813906
s(S'founded'
p7095
S'in'
p7096
tp7097
F0.0005112474437627812
s(S'left'
p7098
S'to'
p7099
tp7100
F0.0005112474437627812
s(S'later'
p7101
S'graduated'
p7102
tp7103
F0.0003834355828220859
s(g5869
S'to'
p7104
tp7105
F0.0016615541922290389
s(S'served'
p7106
S'on'
p7107
tp7108
F0.0015337423312883436
s(S'admitted'
p7109
S'at'
p7110
tp7111
F0.0001278118609406953
s(g5687
g6631
tp7112
F0.0001278118609406953
s(S'[[prp]]'
p7113
S'[[det]]'
p7114
tp7115
F0.0001278118609406953
s(S'later'
p7116
S'commanded'
p7117
tp7118
F0.0001278118609406953
s(g5204
S'[[con]]'
p7119
tp7120
F0.0001278118609406953
s(S'[[con]]'
p7121
S'champion'
p7122
tp7123
F0.0001278118609406953
s(S'flows'
p7124
S'out'
p7125
tp7126
F0.0001278118609406953
s(S'soon'
p7127
S'transferred'
p7128
tp7129
F0.0002556237218813906
s(S'[[con]]'
p7130
S'come'
p7131
tp7132
F0.0001278118609406953
s(S'had'
p7133
S'played'
p7134
tp7135
F0.0011503067484662577
s(S'return'
p7136
S'in'
p7137
tp7138
F0.0006390593047034765
s(S'currently'
p7139
S'resides'
p7140
tp7141
F0.0001278118609406953
s(S'is'
p7142
g1431
tp7143
F0.0002556237218813906
s(S'times'
p7144
S'in'
p7145
tp7146
F0.0001278118609406953
s(S'established'
p7147
S'[[pro]]'
p7148
tp7149
F0.0002556237218813906
s(S'[[pro]]'
p7150
S'won'
p7151
tp7152
F0.0001278118609406953
s(S'ran'
p7153
S'in'
p7154
tp7155
F0.0001278118609406953
s(S'instructor'
p7156
S'[[con]]'
p7157
tp7158
F0.0002556237218813906
s(S'was'
p7159
g6096
tp7160
F0.0019171779141104294
s(S'[[con]]'
p7161
g7139
tp7162
F0.0001278118609406953
s(S'played'
p7163
S'for'
p7164
tp7165
F0.0054959100204498975
s(S'[[adj]]'
p7166
g1651
tp7167
F0.0001278118609406953
s(g5832
g2004
tp7168
F0.0001278118609406953
s(S'[[num]]'
p7169
S'ranked'
p7170
tp7171
F0.0001278118609406953
s(g3143
S'on'
p7172
tp7173
F0.0001278118609406953
s(S'member'
p7174
S'when'
p7175
tp7176
F0.0001278118609406953
s(S'[[det]]'
p7177
g7050
tp7178
F0.0003834355828220859
s(S'[[adj]]'
p7179
S'boundary'
p7180
tp7181
F0.0001278118609406953
s(S'competed'
p7182
S'on'
p7183
tp7184
F0.0001278118609406953
s(S'is'
p7185
S'affiliated'
p7186
tp7187
F0.0003834355828220859
s(S'member'
p7188
S'has'
p7189
tp7190
F0.0001278118609406953
s(S'played'
p7191
g7038
tp7192
F0.0002556237218813906
s(S'on'
p7193
S'[[det]]'
p7194
tp7195
F0.0001278118609406953
s(S'serve'
p7196
S'in'
p7197
tp7198
F0.0005112474437627812
s(S'returned'
p7199
S'[[pro]]'
p7200
tp7201
F0.0001278118609406953
s(S'[[mod]]'
p7202
S'live'
p7203
tp7204
F0.0001278118609406953
s(S'later'
p7205
S'join'
p7206
tp7207
F0.0001278118609406953
s(S'later'
p7208
S'selected'
p7209
tp7210
F0.0001278118609406953
s(S'part'
p7211
S'called'
p7212
tp7213
F0.0001278118609406953
s(S'[[det]]'
p7214
S'athlete'
p7215
tp7216
F0.0001278118609406953
s(S'also'
p7217
g5890
tp7218
F0.0010224948875255625
s(S'west'
p7219
g5759
tp7220
F0.0001278118609406953
s(S'which'
p7221
g5902
tp7222
F0.0001278118609406953
s(g496
S'to'
p7223
tp7224
F0.0001278118609406953
s(S'also'
p7225
S'joined'
p7226
tp7227
F0.0001278118609406953
s(S'graduated'
p7228
S'[[num]]'
p7229
tp7230
F0.0001278118609406953
s(S'[[adj]]'
p7231
g2818
tp7232
F0.0008946830265848671
s(S'only'
p7233
S'[[num]]'
p7234
tp7235
F0.0001278118609406953
s(g4217
S'in'
p7236
tp7237
F0.0001278118609406953
s(S'[[adj]]'
p7238
g5460
tp7239
F0.0001278118609406953
s(S'situated'
p7240
S'just'
p7241
tp7242
F0.0002556237218813906
s(g5733
S'to'
p7243
tp7244
F0.0015337423312883436
s(g5760
g255
tp7245
F0.0001278118609406953
s(S'be'
p7246
g1212
tp7247
F0.0002556237218813906
s(S'[[adj]]'
p7248
S'places'
p7249
tp7250
F0.0001278118609406953
s(S'retired'
p7251
S'at'
p7252
tp7253
F0.0001278118609406953
s(S'[[num]]'
p7254
g1452
tp7255
F0.0008946830265848671
s(S'volunteered'
p7256
S'for'
p7257
tp7258
F0.0001278118609406953
s(g5341
g1659
tp7259
F0.0001278118609406953
s(S'served'
p7260
S'with'
p7261
tp7262
F0.0019171779141104294
s(g2667
S'with'
p7263
tp7264
F0.0006390593047034765
s(S'founded'
p7265
S'to'
p7266
tp7267
F0.0001278118609406953
s(g4636
S'from'
p7268
tp7269
F0.0003834355828220859
s(S'moved'
p7270
S'[[num]]'
p7271
tp7272
F0.0001278118609406953
s(S'first'
p7273
S'entered'
p7274
tp7275
F0.0002556237218813906
s(S'again'
p7276
S'returned'
p7277
tp7278
F0.0002556237218813906
s(S'[[pro]]'
p7279
S'attended'
p7280
tp7281
F0.0001278118609406953
s(S'[[pro]]'
p7282
S'served'
p7283
tp7284
F0.0001278118609406953
s(g3631
S'with'
p7285
tp7286
F0.0007668711656441718
s(S'played'
p7287
S'[[det]]'
p7288
tp7289
F0.0031952965235173825
s(g3841
S'of'
p7290
tp7291
F0.0003834355828220859
s(g4584
S'in'
p7292
tp7293
F0.0002556237218813906
s(g6066
S'by'
p7294
tp7295
F0.0007668711656441718
s(g3914
g3240
tp7296
F0.0001278118609406953
s(S'had'
p7297
g6754
tp7298
F0.0002556237218813906
s(S'then'
p7299
g5451
tp7300
F0.0002556237218813906
s(S'[[num]]'
p7301
g6871
tp7302
F0.0001278118609406953
s(S'be'
p7303
S'acquired'
p7304
tp7305
F0.0001278118609406953
s(S'be'
p7306
S'living'
p7307
tp7308
F0.0001278118609406953
s(S'joined'
p7309
S'side'
p7310
tp7311
F0.0003834355828220859
s(g6042
g3031
tp7312
F0.002939672801635992
s(S'attended'
p7313
S'now'
p7314
tp7315
F0.0005112474437627812
s(S'play'
p7316
S'when'
p7317
tp7318
F0.0001278118609406953
s(S'teams'
p7319
S'[[adj]]'
p7320
tp7321
F0.0002556237218813906
s(g315
S'[[con]]'
p7322
tp7323
F0.0003834355828220859
s(S'[[det]]'
p7324
S'village'
p7325
tp7326
F0.0015337423312883436
s(S'station'
p7327
S'to'
p7328
tp7329
F0.0002556237218813906
s(S'[[con]]'
p7330
S'ran'
p7331
tp7332
F0.0001278118609406953
s(S'[[adj]]'
p7333
S'cities'
p7334
tp7335
F0.0002556237218813906
s(S'has'
p7336
g993
tp7337
F0.0002556237218813906
s(g4310
g5817
tp7338
F0.0001278118609406953
s(S'was'
p7339
S'governor'
p7340
tp7341
F0.0005112474437627812
s(g2874
g4348
tp7342
F0.0001278118609406953
s(S'fought'
p7343
S'[[con]]'
p7344
tp7345
F0.0001278118609406953
s(S'were'
p7346
g5249
tp7347
F0.0001278118609406953
s(S'also'
p7348
S'awarded'
p7349
tp7350
F0.0006390593047034765
s(S'form'
p7351
S'part'
p7352
tp7353
F0.0001278118609406953
s(g6103
S'of'
p7354
tp7355
F0.0001278118609406953
s(S'school'
p7356
S'[[det]]'
p7357
tp7358
F0.0002556237218813906
s(g1634
S'of'
p7359
tp7360
F0.0001278118609406953
s(S'that'
p7361
S'established'
p7362
tp7363
F0.0001278118609406953
s(S'school'
p7364
S'[[adj]]'
p7365
tp7366
F0.0001278118609406953
s(S'mountain'
p7367
S'[[det]]'
p7368
tp7369
F0.0001278118609406953
s(g2705
S'in'
p7370
tp7371
F0.0006390593047034765
s(g2750
S'in'
p7372
tp7373
F0.0010224948875255625
s(S'[[num]]'
p7374
S'invasion'
p7375
tp7376
F0.0001278118609406953
s(S'acquired'
p7377
S'[[prp]]'
p7378
tp7379
F0.0001278118609406953
s(g578
S'[[det]]'
p7380
tp7381
F0.0005112474437627812
s(S'later'
p7382
g4219
tp7383
F0.0002556237218813906
s(S'later'
p7384
S'studied'
p7385
tp7386
F0.0003834355828220859
s(g1778
S'in'
p7387
tp7388
F0.0001278118609406953
s(S'with'
p7389
S'team'
p7390
tp7391
F0.0001278118609406953
s(S'president'
p7392
S'for'
p7393
tp7394
F0.0001278118609406953
s(S'[[pro]]'
p7395
S'fled'
p7396
tp7397
F0.0002556237218813906
s(S'had'
p7398
S'known'
p7399
tp7400
F0.0001278118609406953
s(S'[[det]]'
p7401
S'play'
p7402
tp7403
F0.0001278118609406953
s(S'[[det]]'
p7404
S'trade'
p7405
tp7406
F0.0002556237218813906
s(S'with'
p7407
S'joined'
p7408
tp7409
F0.0002556237218813906
s(S'been'
p7410
S'shown'
p7411
tp7412
F0.0001278118609406953
s(S'debut'
p7413
S'as'
p7414
tp7415
F0.0001278118609406953
s(S'played'
p7416
g486
tp7417
F0.0001278118609406953
s(g5046
S'to'
p7418
tp7419
F0.0001278118609406953
s(S'admitted'
p7420
S'into'
p7421
tp7422
F0.0001278118609406953
s(S'built'
p7423
S'[[prp]]'
p7424
tp7425
F0.0001278118609406953
s(S'has'
p7426
S'represented'
p7427
tp7428
F0.0003834355828220859
s(S'be'
p7429
g757
tp7430
F0.0001278118609406953
s(S'came'
p7431
S'under'
p7432
tp7433
F0.0001278118609406953
s(S'of'
p7434
S'appointed'
p7435
tp7436
F0.0001278118609406953
s(g2556
S'[[det]]'
p7437
tp7438
F0.0003834355828220859
s(g7405
g3545
tp7439
F0.0005112474437627812
s(S'moved'
p7440
S'into'
p7441
tp7442
F0.0002556237218813906
s(S'[[pro]]'
p7443
S'states'
p7444
tp7445
F0.0001278118609406953
s(S'[[adj]]'
p7446
g3653
tp7447
F0.0002556237218813906
s(S'play'
p7448
S'as'
p7449
tp7450
F0.0001278118609406953
s(S'then'
p7451
S'took'
p7452
tp7453
F0.0006390593047034765
s(S'students'
p7454
S'[[det]]'
p7455
tp7456
F0.0002556237218813906
s(S'entered'
p7457
S'[[det]]'
p7458
tp7459
F0.0010224948875255625
s(g2049
S'university'
p7460
tp7461
F0.0003834355828220859
s(g3233
S'by'
p7462
tp7463
F0.001278118609406953
s(S'largest'
p7464
S'center'
p7465
tp7466
F0.0001278118609406953
s(S'resigned'
p7467
g1458
tp7468
F0.0001278118609406953
s(S'[[det]]'
p7469
S'located'
p7470
tp7471
F0.0003834355828220859
s(g6947
S'in'
p7472
tp7473
F0.0005112474437627812
s(S'formerly'
p7474
S'located'
p7475
tp7476
F0.0001278118609406953
s(S'joined'
p7477
S'de'
p7478
tp7479
F0.0001278118609406953
s(S'returned'
p7480
S'once'
p7481
tp7482
F0.0001278118609406953
s(S'was'
p7483
g6148
tp7484
F0.0001278118609406953
s(S'have'
p7485
S'joined'
p7486
tp7487
F0.0001278118609406953
s(S'[[det]]'
p7488
g5790
tp7489
F0.0005112474437627812
s(S'when'
p7490
S'played'
p7491
tp7492
F0.0006390593047034765
s(S'selected'
p7493
S'[[con]]'
p7494
tp7495
F0.0001278118609406953
s(S'that'
p7496
S'released'
p7497
tp7498
F0.0001278118609406953
s(S'[[det]]'
p7499
S'township'
p7500
tp7501
F0.0001278118609406953
s(g52
S'representative'
p7502
tp7503
F0.0001278118609406953
s(S'which'
p7504
S'ruled'
p7505
tp7506
F0.0001278118609406953
s(S'serve'
p7507
S'with'
p7508
tp7509
F0.0001278118609406953
s(S'join'
p7510
S'[[num]]'
p7511
tp7512
F0.0001278118609406953
s(S'range'
p7513
S'in'
p7514
tp7515
F0.0002556237218813906
s(S'[[det]]'
p7516
g6225
tp7517
F0.0005112474437627812
s(S'came'
p7518
S'on'
p7519
tp7520
F0.0001278118609406953
s(g4523
S'in'
p7521
tp7522
F0.0001278118609406953
s(S'[[det]]'
p7523
S'honor'
p7524
tp7525
F0.0005112474437627812
s(g4892
S'[[con]]'
p7526
tp7527
F0.0003834355828220859
s(S'shown'
p7528
S'at'
p7529
tp7530
F0.0001278118609406953
s(S'awarded'
p7531
S'at'
p7532
tp7533
F0.0003834355828220859
s(S'station'
p7534
S'which'
p7535
tp7536
F0.0001278118609406953
s(S'be'
p7537
S'awarded'
p7538
tp7539
F0.0003834355828220859
s(S'[[det]]'
p7540
S'home'
p7541
tp7542
F0.0003834355828220859
s(S'swimmer'
p7543
S'from'
p7544
tp7545
F0.0003834355828220859
s(S'assumed'
p7546
S'[[adj]]'
p7547
tp7548
F0.0001278118609406953
s(S'still'
p7549
S'living'
p7550
tp7551
F0.0001278118609406953
s(S'with'
p7552
S'founded'
p7553
tp7554
F0.0001278118609406953
s(S'play'
p7555
S'[[con]]'
p7556
tp7557
F0.0002556237218813906
s(S'moved'
p7558
S'back'
p7559
tp7560
F0.0003834355828220859
s(S'before'
p7561
S'joined'
p7562
tp7563
F0.0001278118609406953
s(S'away'
p7564
g5319
tp7565
F0.0001278118609406953
s(S'to'
p7566
S'members'
p7567
tp7568
F0.0001278118609406953
s(S'then'
p7569
S'posted'
p7570
tp7571
F0.0001278118609406953
s(S'[[adj]]'
p7572
g4006
tp7573
F0.0001278118609406953
s(S'[[det]]'
p7574
S'submission'
p7575
tp7576
F0.0001278118609406953
s(S'[[con]]'
p7577
S'affiliated'
p7578
tp7579
F0.0002556237218813906
s(S'minister'
p7580
S'in'
p7581
tp7582
F0.0001278118609406953
s(S'acquired'
p7583
S'[[pro]]'
p7584
tp7585
F0.0001278118609406953
s(S'university'
p7586
g4643
tp7587
F0.0005112474437627812
s(g7180
S'between'
p7588
tp7589
F0.0002556237218813906
s(S'village'
p7590
g7193
tp7591
F0.0001278118609406953
s(S'been'
p7592
S'released'
p7593
tp7594
F0.0002556237218813906
s(g6612
S'of'
p7595
tp7596
F0.001278118609406953
s(g5576
g150
tp7597
F0.0001278118609406953
s(S'then'
p7598
S'established'
p7599
tp7600
F0.0001278118609406953
s(S'of'
p7601
S'returning'
p7602
tp7603
F0.0001278118609406953
s(S'award'
p7604
g4467
tp7605
F0.0001278118609406953
s(S'institution'
p7606
S'located'
p7607
tp7608
F0.0002556237218813906
s(S'[[adj]]'
p7609
g6849
tp7610
F0.0005112474437627812
s(S'scored'
p7611
S'[[adj]]'
p7612
tp7613
F0.0001278118609406953
s(S'in'
p7614
S'member'
p7615
tp7616
F0.0001278118609406953
s(S'had'
p7617
g4827
tp7618
F0.0001278118609406953
s(S'not'
p7619
S'affiliated'
p7620
tp7621
F0.0001278118609406953
s(g3950
S'into'
p7622
tp7623
F0.0007668711656441718
s(S'matches'
p7624
S'[[det]]'
p7625
tp7626
F0.0003834355828220859
s(g52
S'won'
p7627
tp7628
F0.0001278118609406953
s(S'better'
p7629
S'known'
p7630
tp7631
F0.0001278118609406953
s(S'moved'
p7632
S'up'
p7633
tp7634
F0.0002556237218813906
s(S'was'
p7635
g4733
tp7636
F0.0001278118609406953
s(S'was'
p7637
g1522
tp7638
F0.0001278118609406953
s(S'twice'
p7639
S'named'
p7640
tp7641
F0.0001278118609406953
s(S'also'
p7642
g350
tp7643
F0.0021728016359918202
s(S'again'
p7644
S'called'
p7645
tp7646
F0.0001278118609406953
s(S'area'
p7647
g7219
tp7648
F0.0001278118609406953
s(S'largest'
p7649
S'universities'
p7650
tp7651
F0.0001278118609406953
s(S'force'
p7652
S'[[det]]'
p7653
tp7654
F0.0001278118609406953
s(S'was'
p7655
S'located'
p7656
tp7657
F0.0003834355828220859
s(S'was'
p7658
S'situated'
p7659
tp7660
F0.0008946830265848671
s(S'played'
p7661
S'just'
p7662
tp7663
F0.0006390593047034765
s(g6144
g5006
tp7664
F0.0001278118609406953
s(S'soon'
p7665
S'returned'
p7666
tp7667
F0.0001278118609406953
s(S'scored'
p7668
S'[[num]]'
p7669
tp7670
F0.0015337423312883436
s(g6063
g7604
tp7671
F0.0001278118609406953
s(S'ran'
p7672
S'[[det]]'
p7673
tp7674
F0.0001278118609406953
s(S'had'
p7675
S'fled'
p7676
tp7677
F0.0002556237218813906
s(S'[[num]]'
p7678
g2876
tp7679
F0.0003834355828220859
s(S'later'
p7680
S'played'
p7681
tp7682
F0.0011503067484662577
s(S'played'
p7683
S'[[adj]]'
p7684
tp7685
F0.0024284253578732108
s(S'honored'
p7686
S'to'
p7687
tp7688
F0.0001278118609406953
s(S'also'
p7689
S'previously'
p7690
tp7691
F0.0003834355828220859
s(S'forms'
p7692
g4145
tp7693
F0.0007668711656441718
s(S'played'
p7694
S'from'
p7695
tp7696
F0.0003834355828220859
s(S'up'
p7697
g4071
tp7698
F0.0001278118609406953
s(S'serve'
p7699
S'[[num]]'
p7700
tp7701
F0.0001278118609406953
s(g3051
g4858
tp7702
F0.0001278118609406953
s(S'[[adj]]'
p7703
g5653
tp7704
F0.0006390593047034765
s(S'[[det]]'
p7705
S'squad'
p7706
tp7707
F0.0007668711656441718
s(S'to'
p7708
S'tour'
p7709
tp7710
F0.0006390593047034765
s(S'assigned'
p7711
S'for'
p7712
tp7713
F0.0001278118609406953
s(S'made'
p7714
S'head'
p7715
tp7716
F0.0002556237218813906
s(g2464
S'until'
p7717
tp7718
F0.0001278118609406953
s(S'represented'
p7719
S'as'
p7720
tp7721
F0.0001278118609406953
s(S'career'
p7722
S'in'
p7723
tp7724
F0.0005112474437627812
s(S'then'
p7725
S'founded'
p7726
tp7727
F0.0003834355828220859
s(S'years'
p7728
S'at'
p7729
tp7730
F0.0002556237218813906
s(S'selected'
p7731
S'with'
p7732
tp7733
F0.0001278118609406953
s(g5007
g4479
tp7734
F0.0001278118609406953
s(S'appearance'
p7735
S'to'
p7736
tp7737
F0.0002556237218813906
s(S'[[adj]]'
p7738
g1934
tp7739
F0.0005112474437627812
s(S'serve'
p7740
S'[[con]]'
p7741
tp7742
F0.0001278118609406953
s(S'teams'
p7743
S'[[num]]'
p7744
tp7745
F0.0001278118609406953
s(S'is'
p7746
S'member'
p7747
tp7748
F0.0005112474437627812
s(g812
S'in'
p7749
tp7750
F0.0006390593047034765
s(g7215
S'from'
p7751
tp7752
F0.0001278118609406953
s(S'[[det]]'
p7753
S'selected'
p7754
tp7755
F0.0001278118609406953
s(S'[[adj]]'
p7756
S'squad'
p7757
tp7758
F0.0002556237218813906
s(S'currently'
p7759
S'living'
p7760
tp7761
F0.0002556237218813906
s(g2178
S'as'
p7762
tp7763
F0.0003834355828220859
s(S'had'
p7764
S'helped'
p7765
tp7766
F0.0001278118609406953
s(S'[[det]]'
p7767
g3243
tp7768
F0.0002556237218813906
s(S'play'
p7769
S'against'
p7770
tp7771
F0.0005112474437627812
s(S'was'
p7772
S'submission'
p7773
tp7774
F0.0001278118609406953
s(S'joined'
p7775
S'in'
p7776
tp7777
F0.0001278118609406953
s(g7500
S'in'
p7778
tp7779
F0.0001278118609406953
s(S'[[pro]]'
p7780
S'studied'
p7781
tp7782
F0.0001278118609406953
s(g5788
S'[[con]]'
p7783
tp7784
F0.0001278118609406953
s(S'center'
p7785
S'[[det]]'
p7786
tp7787
F0.0001278118609406953
s(S'until'
p7788
S'returned'
p7789
tp7790
F0.0001278118609406953
s(S'president'
p7791
S'in'
p7792
tp7793
F0.0002556237218813906
s(S'studied'
p7794
S'[[con]]'
p7795
tp7796
F0.0007668711656441718
s(S'selected'
p7797
S'after'
p7798
tp7799
F0.0001278118609406953
s(S'[[det]]'
p7800
g5300
tp7801
F0.0003834355828220859
s(S'was'
p7802
g1678
tp7803
F0.0005112474437627812
s(g4408
S'[[num]]'
p7804
tp7805
F0.0001278118609406953
s(g4468
S'[[det]]'
p7806
tp7807
F0.0001278118609406953
s(g6217
g7800
tp7808
F0.0002556237218813906
s(S'honored'
p7809
S'[[con]]'
p7810
tp7811
F0.0001278118609406953
s(S'then'
p7812
S'moved'
p7813
tp7814
F0.0021728016359918202
s(S'[[adj]]'
p7815
S'island'
p7816
tp7817
F0.0002556237218813906
s(S'joined'
p7818
S'becoming'
p7819
tp7820
F0.0001278118609406953
s(S'served'
p7821
S'becoming'
p7822
tp7823
F0.0001278118609406953
s(S'[[num]]'
p7824
S'programs'
p7825
tp7826
F0.0001278118609406953
s(S'first'
p7827
S'called'
p7828
tp7829
F0.0001278118609406953
s(S'resigned'
p7830
S'at'
p7831
tp7832
F0.0001278118609406953
s(S'[[num]]'
p7833
g6732
tp7834
F0.0001278118609406953
s(S'station'
p7835
S'from'
p7836
tp7837
F0.0001278118609406953
s(S'be'
p7838
S'honored'
p7839
tp7840
F0.0001278118609406953
s(S'been'
p7841
S'operated'
p7842
tp7843
F0.0001278118609406953
s(S'become'
p7844
S'head'
p7845
tp7846
F0.0002556237218813906
s(S'[[num]]'
p7847
S'located'
p7848
tp7849
F0.0002556237218813906
s(S'appointed'
p7850
S'[[pro]]'
p7851
tp7852
F0.0006390593047034765
s(S'selection'
p7853
S'for'
p7854
tp7855
F0.0002556237218813906
s(g4045
S'at'
p7856
tp7857
F0.0003834355828220859
s(S'established'
p7858
S'[[adj]]'
p7859
tp7860
F0.0001278118609406953
s(g6060
S'[[con]]'
p7861
tp7862
F0.0001278118609406953
s(S'accepted'
p7863
S'by'
p7864
tp7865
F0.0002556237218813906
s(S'retired'
p7866
S'by'
p7867
tp7868
F0.0001278118609406953
s(S'head'
p7869
S'for'
p7870
tp7871
F0.0002556237218813906
s(S'formerly'
p7872
S'played'
p7873
tp7874
F0.0008946830265848671
s(S'[[con]]'
p7875
g6865
tp7876
F0.0002556237218813906
s(S'[[adj]]'
p7877
g6441
tp7878
F0.0008946830265848671
s(S'town'
p7879
S'for'
p7880
tp7881
F0.0001278118609406953
s(S'school'
p7882
S'near'
p7883
tp7884
F0.0001278118609406953
s(g217
S'on'
p7885
tp7886
F0.0001278118609406953
s(S'schools'
p7887
S'from'
p7888
tp7889
F0.0001278118609406953
s(g5926
g2155
tp7890
F0.0016615541922290389
s(S'home'
p7891
S'as'
p7892
tp7893
F0.0001278118609406953
s(S'[[det]]'
p7894
g5856
tp7895
F0.0006390593047034765
s(S'[[num]]'
p7896
S'cities'
p7897
tp7898
F0.0001278118609406953
s(g52
S'tour'
p7899
tp7900
F0.0001278118609406953
s(S'is'
p7901
S'published'
p7902
tp7903
F0.0002556237218813906
s(S'schools'
p7904
S'[[adj]]'
p7905
tp7906
F0.0002556237218813906
s(g5439
S'school'
p7907
tp7908
F0.0001278118609406953
s(S'region'
p7909
S'of'
p7910
tp7911
F0.0001278118609406953
s(S'who'
p7912
g6018
tp7913
F0.0001278118609406953
s(S'[[det]]'
p7914
S'charge'
p7915
tp7916
F0.0001278118609406953
s(S'dropped'
p7917
S'in'
p7918
tp7919
F0.0001278118609406953
s(S'squad'
p7920
S'for'
p7921
tp7922
F0.0002556237218813906
s(S'represent'
p7923
S'in'
p7924
tp7925
F0.0001278118609406953
s(g1085
S'win'
p7926
tp7927
F0.0002556237218813906
s(S'[[det]]'
p7928
g7586
tp7929
F0.0005112474437627812
s(S'born'
p7930
S'[[adj]]'
p7931
tp7932
F0.0001278118609406953
s(S'[[adj]]'
p7933
S'operated'
p7934
tp7935
F0.0001278118609406953
s(S'debut'
p7936
S'[[det]]'
p7937
tp7938
F0.0002556237218813906
s(g415
S'on'
p7939
tp7940
F0.0001278118609406953
s(g1553
g2687
tp7941
F0.0006390593047034765
s(S'annexed'
p7942
S'[[con]]'
p7943
tp7944
F0.0002556237218813906
s(S'[[num]]'
p7945
g55
tp7946
F0.0006390593047034765
s(S'first'
p7947
g1163
tp7948
F0.0006390593047034765
s(S'made'
p7949
S'governor'
p7950
tp7951
F0.0001278118609406953
s(S'area'
p7952
S'of'
p7953
tp7954
F0.0003834355828220859
s(S'[[adj]]'
p7955
g6105
tp7956
F0.0001278118609406953
s(S'[[det]]'
p7957
S'studied'
p7958
tp7959
F0.0001278118609406953
s(g4586
S'of'
p7960
tp7961
F0.0001278118609406953
s(g7902
g4238
tp7962
F0.0001278118609406953
s(S'to'
p7963
S'represent'
p7964
tp7965
F0.0008946830265848671
s(g1611
S'through'
p7966
tp7967
F0.0002556237218813906
s(S'became'
p7968
g5554
tp7969
F0.0005112474437627812
s(S'[[det]]'
p7970
S'teams'
p7971
tp7972
F0.0001278118609406953
s.