(dp0
(S'known'
p1
S'of'
p2
tp3
F0.011029411764705883
s(S'again'
p4
S'teamed'
p5
tp6
F0.007352941176470588
s(S'have'
p7
S'known'
p8
tp9
F0.011029411764705883
s(S'as'
p10
S'known'
p11
tp12
F0.003676470588235294
s(S'become'
p13
S'known'
p14
tp15
F0.011029411764705883
s(S'[[adj]]'
p16
S'known'
p17
tp18
F0.007352941176470588
s(S'known'
p19
S'especially'
p20
tp21
F0.007352941176470588
s(S'be'
p22
S'known'
p23
tp24
F0.011029411764705883
s(S'later'
p25
S'teamed'
p26
tp27
F0.007352941176470588
s(S'had'
p28
S'known'
p29
tp30
F0.011029411764705883
s(S'is'
p31
S'known'
p32
tp33
F0.0661764705882353
s(S'also'
p34
S'known'
p35
tp36
F0.04779411764705882
s(S'mostly'
p37
S'known'
p38
tp39
F0.007352941176470588
s(S'known'
p40
S'when'
p41
tp42
F0.007352941176470588
s(S'[[num]]'
p43
S'known'
p44
tp45
F0.007352941176470588
s(S'[[pro]]'
p46
S'known'
p47
tp48
F0.003676470588235294
s(S'known'
p49
S'after'
p50
tp51
F0.011029411764705883
s(S'known'
p52
S'while'
p53
tp54
F0.003676470588235294
s(S'has'
p55
S'known'
p56
tp57
F0.003676470588235294
s(S'then'
p58
S'teamed'
p59
tp60
F0.007352941176470588
s(S'known'
p61
S'where'
p62
tp63
F0.003676470588235294
s(S'known'
p64
S'to'
p65
tp66
F0.029411764705882353
s(S'that'
p67
S'known'
p68
tp69
F0.003676470588235294
s(S'was'
p70
S'teamed'
p71
tp72
F0.011029411764705883
s(S'known'
p73
S'from'
p74
tp75
F0.007352941176470588
s(S'been'
p76
S'known'
p77
tp78
F0.003676470588235294
s(S'most'
p79
S'known'
p80
tp81
F0.011029411764705883
s(S'known'
p82
S'except'
p83
tp84
F0.003676470588235294
s(S'known'
p85
S'about'
p86
tp87
F0.007352941176470588
s(S'known'
p88
S'[[con]]'
p89
tp90
F0.029411764705882353
s(S'later'
p91
S'known'
p92
tp93
F0.003676470588235294
s(S'with'
p94
S'known'
p95
tp96
F0.003676470588235294
s(S'was'
p97
g88
tp98
F0.04779411764705882
s(S'known'
p99
S'on'
p100
tp101
F0.003676470588235294
s(S'then'
p102
S'known'
p103
tp104
F0.003676470588235294
s(S'known'
p105
S'being'
p106
tp107
F0.007352941176470588
s(S'teamed'
p108
S'[[con]]'
p109
tp110
F0.003676470588235294
s(g32
S'only'
p111
tp112
F0.003676470588235294
s(g35
S'with'
p113
tp114
F0.029411764705882353
s(S'now'
p115
S'known'
p116
tp117
F0.003676470588235294
s(S'known'
p118
S'[[prp]]'
p119
tp120
F0.003676470588235294
s(S'[[con]]'
p121
S'teamed'
p122
tp123
F0.011029411764705883
s(S'known'
p124
S'along'
p125
tp126
F0.007352941176470588
s(S'well'
p127
S'known'
p128
tp129
F0.029411764705882353
s(S'of'
p130
S'known'
p131
tp132
F0.007352941176470588
s(S'sometimes'
p133
S'known'
p134
tp135
F0.003676470588235294
s(S'not'
p136
S'known'
p137
tp138
F0.011029411764705883
s(S'often'
p139
S'known'
p140
tp141
F0.003676470588235294
s(S'known'
p142
S'that'
p143
tp144
F0.01838235294117647
s(S'known'
p145
S'[[num]]'
p146
tp147
F0.007352941176470588
s(S'known'
p148
S'although'
p149
tp150
F0.003676470588235294
s(S'[[con]]'
p151
S'known'
p152
tp153
F0.007352941176470588
s(S'known'
p154
S'as'
p155
tp156
F0.08823529411764706
s(S'known'
p157
S'[[adj]]'
p158
tp159
F0.014705882352941176
s(S'known'
p160
S'by'
p161
tp162
F0.01838235294117647
s(S'known'
p163
S'though'
p164
tp165
F0.003676470588235294
s(g5
S'up'
p166
tp167
F0.029411764705882353
s(S'known'
p168
S'[[det]]'
p169
tp170
F0.011029411764705883
s(g38
S'for'
p171
tp172
F0.03676470588235294
s(S'teamed'
p173
S'to'
p174
tp175
F0.003676470588235294
s(S'known'
p176
S'was'
p177
tp178
F0.003676470588235294
s(S'where'
p179
S'teamed'
p180
tp181
F0.003676470588235294
s(S'became'
p182
S'known'
p183
tp184
F0.03308823529411765
s(S'known'
p185
S'also'
p186
tp187
F0.007352941176470588
s(S'usually'
p188
S'known'
p189
tp190
F0.007352941176470588
s(S'also'
p191
S'teamed'
p192
tp193
F0.011029411764705883
s(S'[[det]]'
p194
S'known'
p195
tp196
F0.003676470588235294
s(S'known'
p197
S'in'
p198
tp199
F0.003676470588235294
s(S'particularly'
p200
g197
tp201
F0.003676470588235294
s(g8
S'among'
p202
tp203
F0.007352941176470588
s(g122
S'with'
p204
tp205
F0.03308823529411765
s(g29
S'since'
p206
tp207
F0.003676470588235294
s(S'better'
p208
g154
tp209
F0.011029411764705883
s(S'were'
p210
S'known'
p211
tp212
F0.003676470588235294
s(S'best'
p213
S'known'
p214
tp215
F0.0625
s(S'has'
p216
S'teamed'
p217
tp218
F0.007352941176470588
s.