(dp0
(S'is'
p1
S'built'
p2
tp3
F0.013888888888888888
s(S'[[adj]]'
p4
S'designed'
p5
tp6
F0.013888888888888888
s(S'steam'
p7
S'locomotives'
p8
tp9
F0.013888888888888888
s(S'is'
p10
S'created'
p11
tp12
F0.013888888888888888
s(S'designed'
p13
S'with'
p14
tp15
F0.013888888888888888
s(S'[[adj]]'
p16
S'created'
p17
tp18
F0.013888888888888888
s(S'[[adj]]'
p19
S'built'
p20
tp21
F0.013888888888888888
s(S'built'
p22
S'over'
p23
tp24
F0.013888888888888888
s(S'were'
p25
S'created'
p26
tp27
F0.013888888888888888
s(S'were'
p28
S'built'
p29
tp30
F0.013888888888888888
s(S'built'
p31
S'[[num]]'
p32
tp33
F0.013888888888888888
s(g20
S'by'
p34
tp35
F0.08333333333333333
s(S'built'
p36
S'with'
p37
tp38
F0.013888888888888888
s(S'created'
p39
S'by'
p40
tp41
F0.06944444444444445
s(S'built'
p42
S'for'
p43
tp44
F0.027777777777777776
s(S'of'
p45
S'designed'
p46
tp47
F0.013888888888888888
s(S'designed'
p48
S'[[con]]'
p49
tp50
F0.013888888888888888
s(S'built'
p51
S'as'
p52
tp53
F0.013888888888888888
s(g8
S'designed'
p54
tp55
F0.013888888888888888
s(S'[[det]]'
p56
S'designed'
p57
tp58
F0.013888888888888888
s(S'is'
p59
S'designed'
p60
tp61
F0.013888888888888888
s(S'were'
p62
S'designed'
p63
tp64
F0.013888888888888888
s(S'been'
p65
S'designed'
p66
tp67
F0.013888888888888888
s(S'[[num]]'
p68
S'designed'
p69
tp70
F0.027777777777777776
s(S'created'
p71
S'with'
p72
tp73
F0.013888888888888888
s(S'designed'
p74
S'to'
p75
tp76
F0.013888888888888888
s(S'was'
p77
g39
tp78
F0.027777777777777776
s(S'built'
p79
S'between'
p80
tp81
F0.027777777777777776
s(S'was'
p82
g31
tp83
F0.1111111111111111
s(S'was'
p84
S'designed'
p85
tp86
F0.08333333333333333
s(S'been'
p87
g42
tp88
F0.041666666666666664
s(S'[[det]]'
p89
S'class'
p90
tp91
F0.013888888888888888
s(g90
g45
tp92
F0.013888888888888888
s(g85
S'by'
p93
tp94
F0.1388888888888889
s(S'designed'
p95
S'for'
p96
tp97
F0.013888888888888888
s(S'built'
p98
S'[[con]]'
p99
tp100
F0.013888888888888888
s.