(dp0
(S'[[adj]]'
p1
S'passenger'
p2
tp3
F0.024390243902439025
s(S'service'
p4
S'from'
p5
tp6
F0.04878048780487805
s(S'service'
p7
S'of'
p8
tp9
F0.024390243902439025
s(S'rail'
p10
S'system'
p11
tp12
F0.024390243902439025
s(S'[[det]]'
p13
S'trains'
p14
tp15
F0.024390243902439025
s(S'[[det]]'
p16
S'direction'
p17
tp18
F0.024390243902439025
s(S'operated'
p19
S'services'
p20
tp21
F0.024390243902439025
s(S'service'
p22
S'between'
p23
tp24
F0.07317073170731707
s(S'provides'
p25
S'service'
p26
tp27
F0.024390243902439025
s(g11
S'operating'
p28
tp29
F0.024390243902439025
s(S'following'
p30
S'[[adj]]'
p31
tp32
F0.024390243902439025
s(S'daily'
p33
S'in'
p34
tp35
F0.024390243902439025
s(g31
S'scheduled'
p36
tp37
F0.024390243902439025
s(g2
g10
tp38
F0.024390243902439025
s(S'services'
p39
S'to'
p40
tp41
F0.04878048780487805
s(g34
g16
tp42
F0.024390243902439025
s(S'scheduled'
p43
g39
tp44
F0.024390243902439025
s(g14
S'between'
p45
tp46
F0.024390243902439025
s(S'[[prp]]'
p47
g33
tp48
F0.024390243902439025
s(S'[[adj]]'
p49
g22
tp50
F0.07317073170731707
s(S's'
p51
S'service'
p52
tp53
F0.07317073170731707
s(S'service'
p54
S'to'
p55
tp56
F0.12195121951219512
s(S'operated'
p57
g43
tp58
F0.024390243902439025
s(S'with'
p59
S'service'
p60
tp61
F0.024390243902439025
s(S'[[det]]'
p62
g30
tp63
F0.024390243902439025
s(S'to'
p64
g62
tp65
F0.024390243902439025
s(S'service'
p66
S'on'
p67
tp68
F0.024390243902439025
s(g28
g47
tp69
F0.024390243902439025
s(S'[[det]]'
p70
g54
tp71
F0.024390243902439025
s.