(dp0
(S'distributed'
p1
S'through'
p2
tp3
F0.11764705882352941
s(S'operates'
p4
S'[[con]]'
p5
tp6
F0.058823529411764705
s(S'be'
p7
S'distributed'
p8
tp9
F0.11764705882352941
s(S'is'
p10
S'distributed'
p11
tp12
F0.17647058823529413
s(g11
S'by'
p13
tp14
F0.29411764705882354
s(S'was'
p15
S'distributed'
p16
tp17
F0.17647058823529413
s(g5
g10
tp18
F0.058823529411764705
s.