(dp0
(S'on'
p1
S'located'
p2
tp3
F0.0033500837520938024
s(S'villages'
p4
S'[[con]]'
p5
tp6
F0.0016750418760469012
s(S'station'
p7
S'which'
p8
tp9
F0.0016750418760469012
s(S'[[con]]'
p10
S'operated'
p11
tp12
F0.0033500837520938024
s(S'opened'
p13
S'by'
p14
tp15
F0.0033500837520938024
s(S'of'
p16
S'serve'
p17
tp18
F0.0016750418760469012
s(S'situated'
p19
S'to'
p20
tp21
F0.0033500837520938024
s(S'[[det]]'
p22
S'suburbs'
p23
tp24
F0.0016750418760469012
s(S'now'
p25
S'located'
p26
tp27
F0.0016750418760469012
s(S'station'
p28
S'on'
p29
tp30
F0.03015075376884422
s(S'schools'
p31
S'at'
p32
tp33
F0.0016750418760469012
s(S'[[adj]]'
p34
S'area'
p35
tp36
F0.0016750418760469012
s(S'[[det]]'
p37
S'city'
p38
tp39
F0.03015075376884422
s(S'station'
p40
S'serving'
p41
tp42
F0.03350083752093802
s(S'located'
p43
S'in'
p44
tp45
F0.04187604690117253
s(S'km'
p46
S'[[con]]'
p47
tp48
F0.0016750418760469012
s(S'area'
p49
S'in'
p50
tp51
F0.0033500837520938024
s(S'[[det]]'
p52
S'tracks'
p53
tp54
F0.0016750418760469012
s(S'schools'
p55
S'as'
p56
tp57
F0.0016750418760469012
s(S'located'
p58
S'[[det]]'
p59
tp60
F0.0033500837520938024
s(S'schools'
p61
S'for'
p62
tp63
F0.0016750418760469012
s(S'station'
p64
S'along'
p65
tp66
F0.0016750418760469012
s(S'station'
p67
S'built'
p68
tp69
F0.0033500837520938024
s(S'[[adj]]'
p70
S'suburbs'
p71
tp72
F0.0016750418760469012
s(S'[[con]]'
p73
S'km'
p74
tp75
F0.0016750418760469012
s(S'suburb'
p76
S'in'
p77
tp78
F0.0016750418760469012
s(S'in'
p79
S'city'
p80
tp81
F0.0016750418760469012
s(S'located'
p82
S'of'
p83
tp84
F0.0016750418760469012
s(S'railway'
p85
S'station'
p86
tp87
F0.07872696817420435
s(S'[[det]]'
p88
S'district'
p89
tp90
F0.006700167504187605
s(S'[[det]]'
p91
S'train'
p92
tp93
F0.020100502512562814
s(S'km'
p94
S'[[num]]'
p95
tp96
F0.0016750418760469012
s(g89
S'of'
p97
tp98
F0.005025125628140704
s(S'council'
p99
S'in'
p100
tp101
F0.0016750418760469012
s(S'in'
p102
S'[[det]]'
p103
tp104
F0.03015075376884422
s(S'km'
p105
S'from'
p106
tp107
F0.0033500837520938024
s(S'serving'
p108
S'on'
p109
tp110
F0.0016750418760469012
s(S'situated'
p111
S'on'
p112
tp113
F0.0033500837520938024
s(S'situated'
p114
S'in'
p115
tp116
F0.0016750418760469012
s(S'km'
p117
S'[[adj]]'
p118
tp119
F0.0016750418760469012
s(S'station'
p120
S'in'
p121
tp122
F0.01675041876046901
s(S'[[num]]'
p123
S'schools'
p124
tp125
F0.006700167504187605
s(S'that'
p126
S'served'
p127
tp128
F0.0016750418760469012
s(S'was'
p129
S'located'
p130
tp131
F0.0016750418760469012
s(g38
S'[[con]]'
p132
tp133
F0.006700167504187605
s(S'was'
p134
S'situated'
p135
tp136
F0.010050251256281407
s(S'km'
p137
S'away'
p138
tp139
F0.0033500837520938024
s(S'village'
p140
S'[[con]]'
p141
tp142
F0.0016750418760469012
s(S'built'
p143
S'by'
p144
tp145
F0.0016750418760469012
s(S'census'
p146
S'town'
p147
tp148
F0.0016750418760469012
s(S'on'
p149
S'[[det]]'
p150
tp151
F0.020100502512562814
s(S'town'
p152
S'of'
p153
tp154
F0.02680067001675042
s(S'[[det]]'
p155
S'municipality'
p156
tp157
F0.0016750418760469012
s(S'[[det]]'
p158
S'schools'
p159
tp160
F0.0016750418760469012
s(S'[[det]]'
p161
S'suburb'
p162
tp163
F0.006700167504187605
s(g162
S'of'
p164
tp165
F0.008375209380234505
s(g141
S'was'
p166
tp167
F0.0033500837520938024
s(S'[[det]]'
p168
S'town'
p169
tp170
F0.03015075376884422
s(S'located'
p171
S'on'
p172
tp173
F0.0016750418760469012
s(S'[[det]]'
p174
g146
tp175
F0.0016750418760469012
s(S'situated'
p176
S'at'
p177
tp178
F0.0033500837520938024
s(S'[[det]]'
p179
S'commune'
p180
tp181
F0.0016750418760469012
s(S'on'
p182
S'[[adj]]'
p183
tp184
F0.0016750418760469012
s(S'is'
p185
S'situated'
p186
tp187
F0.01340033500837521
s(g127
S'[[det]]'
p188
tp189
F0.0016750418760469012
s(S'situated'
p190
S'just'
p191
tp192
F0.0016750418760469012
s(S'[[adj]]'
p193
S'committee'
p194
tp195
F0.0016750418760469012
s(S'of'
p196
S'[[det]]'
p197
tp198
F0.0016750418760469012
s(S's'
p199
S'area'
p200
tp201
F0.0016750418760469012
s(g41
S'[[det]]'
p202
tp203
F0.02680067001675042
s(S'railway'
p204
S'stations'
p205
tp206
F0.0033500837520938024
s(g68
S'[[con]]'
p207
tp208
F0.0016750418760469012
s(S'station'
p209
S'after'
p210
tp211
F0.0016750418760469012
s(S'schools'
p212
S'of'
p213
tp214
F0.0016750418760469012
s(g194
S'in'
p215
tp216
F0.0016750418760469012
s(S'[[con]]'
p217
S'located'
p218
tp219
F0.0016750418760469012
s(S'station'
p220
S'that'
p221
tp222
F0.0033500837520938024
s(S'hamlet'
p223
S'of'
p224
tp225
F0.0016750418760469012
s(S'[[det]]'
p226
g85
tp227
F0.05695142378559464
s(g202
S'area'
p228
tp229
F0.010050251256281407
s(g17
g52
tp230
F0.0016750418760469012
s(S'of'
p231
S'schools'
p232
tp233
F0.0016750418760469012
s(S'town'
p234
S'[[det]]'
p235
tp236
F0.0016750418760469012
s(S'located'
p237
S'outside'
p238
tp239
F0.0016750418760469012
s(S'[[con]]'
p240
S'serves'
p241
tp242
F0.0016750418760469012
s(S'station'
p243
S'of'
p244
tp245
F0.005025125628140704
s(S'situated'
p246
S'from'
p247
tp248
F0.0016750418760469012
s(S'schools'
p249
S'[[con]]'
p250
tp251
F0.0033500837520938024
s(S'[[det]]'
p252
S'[[adj]]'
p253
tp254
F0.0033500837520938024
s(g228
S'of'
p255
tp256
F0.008375209380234505
s(S'consists'
p257
g16
tp258
F0.0016750418760469012
s(S'[[adj]]'
p259
S'town'
p260
tp261
F0.010050251256281407
s(S'station'
p262
S'[[det]]'
p263
tp264
F0.005025125628140704
s(S'[[num]]'
p265
g105
tp266
F0.01340033500837521
s(S'station'
p267
S'for'
p268
tp269
F0.0016750418760469012
s(g205
S'serving'
p270
tp271
F0.0033500837520938024
s(S'[[det]]'
p272
g140
tp273
F0.0033500837520938024
s(g35
S'[[adj]]'
p274
tp275
F0.0016750418760469012
s(S'near'
p276
S'[[det]]'
p277
tp278
F0.0016750418760469012
s(g132
S'municipality'
p279
tp280
F0.0016750418760469012
s(S'station'
p281
S'[[con]]'
p282
tp283
F0.005025125628140704
s(S'[[con]]'
p284
S'schools'
p285
tp286
F0.0016750418760469012
s(S'[[det]]'
p287
g40
tp288
F0.023450586264656615
s(S'[[adj]]'
p289
S'railway'
p290
tp291
F0.021775544388609715
s(g166
g13
tp292
F0.0033500837520938024
s(S'[[adj]]'
p293
g99
tp294
F0.0016750418760469012
s(S'station'
p295
S'near'
p296
tp297
F0.005025125628140704
s(g23
S'of'
p298
tp299
F0.0033500837520938024
s(S'schools'
p300
S'[[det]]'
p301
tp302
F0.0016750418760469012
s(S'located'
p303
S'is'
p304
tp305
F0.0016750418760469012
s(g186
S'[[adj]]'
p306
tp307
F0.0016750418760469012
s(g124
S'in'
p308
tp309
F0.0033500837520938024
s(g279
S'in'
p310
tp311
F0.0033500837520938024
s(S'town'
p312
S'[[con]]'
p313
tp314
F0.0016750418760469012
s(g150
S'operated'
p315
tp316
F0.005025125628140704
s(S'km'
p317
S'to'
p318
tp319
F0.0016750418760469012
s(S'[[adj]]'
p320
g31
tp321
F0.01340033500837521
s(S'station'
p322
S'from'
p323
tp324
F0.0016750418760469012
s(g253
S'suburb'
p325
tp326
F0.0033500837520938024
s(g26
S'at'
p327
tp328
F0.0016750418760469012
s(S'[[det]]'
p329
g223
tp330
F0.0016750418760469012
s(S'town'
p331
S'[[adj]]'
p332
tp333
F0.0016750418760469012
s(S'situated'
p334
S'near'
p335
tp336
F0.0016750418760469012
s(S'[[adj]]'
p337
S'located'
p338
tp339
F0.0016750418760469012
s(g221
S'serves'
p340
tp341
F0.0016750418760469012
s(S'[[det]]'
p342
S'located'
p343
tp344
F0.01340033500837521
s(S'is'
p345
g58
tp346
F0.010050251256281407
s(S'[[adj]]'
p347
S'station'
p348
tp349
F0.008375209380234505
s(S'be'
p350
S'located'
p351
tp352
F0.0016750418760469012
s(S'schools'
p353
S'from'
p354
tp355
F0.0016750418760469012
s(g180
S'of'
p356
tp357
F0.0016750418760469012
s(g315
S'in'
p358
tp359
F0.008375209380234505
s(S'of'
p360
S'south'
p361
tp362
F0.0016750418760469012
s(S'schools'
p363
S'[[adj]]'
p364
tp365
F0.0033500837520938024
s(g147
S'in'
p366
tp367
F0.005025125628140704
s(S'serves'
p368
S'[[det]]'
p369
tp370
F0.018425460636515914
s(S'[[det]]'
p371
g4
tp372
F0.0033500837520938024
s(S'in'
p373
S'located'
p374
tp375
F0.0016750418760469012
s(S'[[con]]'
p376
g155
tp377
F0.0016750418760469012
s(S'serving'
p378
S'in'
p379
tp380
F0.0033500837520938024
s(S'station'
p381
S'located'
p382
tp383
F0.008375209380234505
s(S'city'
p384
S'to'
p385
tp386
F0.0016750418760469012
s(S'[[con]]'
p387
g193
tp388
F0.0033500837520938024
s(S'operated'
p389
S'by'
p390
tp391
F0.006700167504187605
s(S'km'
p392
S'of'
p393
tp394
F0.0016750418760469012
s(g86
S'at'
p395
tp396
F0.0016750418760469012
s(g390
S'located'
p397
tp398
F0.005025125628140704
s(g92
S'station'
p399
tp400
F0.021775544388609715
s(g8
S'serves'
p401
tp402
F0.0016750418760469012
s(S'station'
p403
g389
tp404
F0.006700167504187605
s(S'town'
p405
S'for'
p406
tp407
F0.0016750418760469012
s(S'[[num]]'
p408
g204
tp409
F0.0033500837520938024
s(S'situated'
p410
S'between'
p411
tp412
F0.0016750418760469012
s(S'as'
p413
S'station'
p414
tp415
F0.0016750418760469012
s(S'[[num]]'
p416
S'station'
p417
tp418
F0.0016750418760469012
s(S'city'
p419
S'of'
p420
tp421
F0.023450586264656615
s.