(dp0
(S'student'
p1
S'[[con]]'
p2
tp3
F0.0032258064516129032
s(S'met'
p4
S'by'
p5
tp6
F0.0032258064516129032
s(S'had'
p7
S'taught'
p8
tp9
F0.001075268817204301
s(S'work'
p10
S'by'
p11
tp12
F0.0032258064516129032
s(S'had'
p13
S'studied'
p14
tp15
F0.004301075268817204
s(S'group'
p16
S'with'
p17
tp18
F0.002150537634408602
s(S'met'
p19
S'at'
p20
tp21
F0.001075268817204301
s(S'work'
p22
S'[[con]]'
p23
tp24
F0.005376344086021506
s(S'of'
p25
S'work'
p26
tp27
F0.001075268817204301
s(S'work'
p28
S'while'
p29
tp30
F0.001075268817204301
s(S'work'
p31
S'for'
p32
tp33
F0.001075268817204301
s(S'[[det]]'
p34
S'group'
p35
tp36
F0.005376344086021506
s(S's'
p37
S'assistant'
p38
tp39
F0.001075268817204301
s(S'[[adj]]'
p40
S'assistant'
p41
tp42
F0.005376344086021506
s(S'is'
p43
S'studying'
p44
tp45
F0.001075268817204301
s(S'group'
p46
S'[[adj]]'
p47
tp48
F0.001075268817204301
s(S'worked'
p49
S'where'
p50
tp51
F0.0032258064516129032
s(S'[[adj]]'
p52
S'associate'
p53
tp54
F0.0032258064516129032
s(S'been'
p55
S'influenced'
p56
tp57
F0.002150537634408602
s(S'found'
p58
g31
tp59
F0.004301075268817204
s(S'met'
p60
S'where'
p61
tp62
F0.001075268817204301
s(S'also'
p63
S'coauthored'
p64
tp65
F0.002150537634408602
s(S'received'
p66
S'to'
p67
tp68
F0.001075268817204301
s(S'under'
p69
S'direction'
p70
tp71
F0.002150537634408602
s(g35
S'[[con]]'
p72
tp73
F0.001075268817204301
s(S'worked'
p74
S'after'
p75
tp76
F0.001075268817204301
s(S'met'
p77
S'when'
p78
tp79
F0.0032258064516129032
s(S'were'
p80
S'influenced'
p81
tp82
F0.001075268817204301
s(g37
S'study'
p83
tp84
F0.001075268817204301
s(S'work'
p85
S'on'
p86
tp87
F0.004301075268817204
s(S'worked'
p88
S'there'
p89
tp90
F0.001075268817204301
s(S'had'
p91
S'worked'
p92
tp93
F0.005376344086021506
s(S'have'
p94
S'studied'
p95
tp96
F0.0032258064516129032
s(S'taught'
p97
S'[[con]]'
p98
tp99
F0.001075268817204301
s(S'dissertation'
p100
S'on'
p101
tp102
F0.002150537634408602
s(S'soon'
p103
S'met'
p104
tp105
F0.002150537634408602
s(S'[[num]]'
p106
S'worked'
p107
tp108
F0.002150537634408602
s(S'[[num]]'
p109
S'received'
p110
tp111
F0.001075268817204301
s(S'often'
p112
S'worked'
p113
tp114
F0.002150537634408602
s(S'who'
p115
S'met'
p116
tp117
F0.001075268817204301
s(S'that'
p118
S'worked'
p119
tp120
F0.002150537634408602
s(S'studying'
p121
S'under'
p122
tp123
F0.002150537634408602
s(g64
S'with'
p124
tp125
F0.0032258064516129032
s(S'wrote'
p126
S'[[prp]]'
p127
tp128
F0.002150537634408602
s(S'[[con]]'
p129
S'received'
p130
tp131
F0.001075268817204301
s(S'winter'
p132
S'[[con]]'
p133
tp134
F0.001075268817204301
s(S'met'
p135
S'from'
p136
tp137
F0.001075268817204301
s(S'well'
p138
S'received'
p139
tp140
F0.002150537634408602
s(S'met'
p141
S'[[adj]]'
p142
tp143
F0.004301075268817204
s(S'worked'
p144
S'with'
p145
tp146
F0.01935483870967742
s(S'as'
p147
S'taught'
p148
tp149
F0.002150537634408602
s(S'have'
p150
S'influenced'
p151
tp152
F0.002150537634408602
s(S'formerly'
p153
S'worked'
p154
tp155
F0.001075268817204301
s(S'received'
p156
S'[[adj]]'
p157
tp158
F0.0032258064516129032
s(S'[[con]]'
p159
S'shared'
p160
tp161
F0.002150537634408602
s(S'was'
p162
S'tutor'
p163
tp164
F0.002150537634408602
s(S'[[num]]'
p165
S'studied'
p166
tp167
F0.001075268817204301
s(S'at'
p168
S'work'
p169
tp170
F0.001075268817204301
s(S'was'
p171
S'taught'
p172
tp173
F0.005376344086021506
s(S'taught'
p174
S'before'
p175
tp176
F0.001075268817204301
s(S'for'
p177
S'work'
p178
tp179
F0.001075268817204301
s(S'[[con]]'
p180
S'studied'
p181
tp182
F0.0032258064516129032
s(S'studied'
p183
S'[[det]]'
p184
tp185
F0.0032258064516129032
s(S'studying'
p186
S'[[con]]'
p187
tp188
F0.001075268817204301
s(S'where'
p189
S'received'
p190
tp191
F0.002150537634408602
s(S'received'
p192
S'with'
p193
tp194
F0.001075268817204301
s(S'tutor'
p195
S'of'
p196
tp197
F0.002150537634408602
s(S'[[det]]'
p198
S'work'
p199
tp200
F0.0064516129032258064
s(S'is'
p201
S'influenced'
p202
tp203
F0.002150537634408602
s(S'became'
p204
S'assistant'
p205
tp206
F0.0032258064516129032
s(S'[[con]]'
p207
S'worked'
p208
tp209
F0.0064516129032258064
s(S'work'
p210
S'where'
p211
tp212
F0.001075268817204301
s(g199
S'[[adj]]'
p213
tp214
F0.005376344086021506
s(S'has'
p215
S'coauthored'
p216
tp217
F0.001075268817204301
s(S'first'
p218
S'met'
p219
tp220
F0.0064516129032258064
s(S'work'
p221
S'after'
p222
tp223
F0.001075268817204301
s(S'where'
p224
S'studied'
p225
tp226
F0.0064516129032258064
s(S'that'
p227
S'received'
p228
tp229
F0.001075268817204301
s(S'direction'
p230
S'[[con]]'
p231
tp232
F0.001075268817204301
s(S'studied'
p233
S'[[con]]'
p234
tp235
F0.0032258064516129032
s(S'since'
p236
S'worked'
p237
tp238
F0.002150537634408602
s(S'met'
p239
S'[[con]]'
p240
tp241
F0.00967741935483871
s(S'associate'
p242
S'[[con]]'
p243
tp244
F0.002150537634408602
s(S'to'
p245
S'continue'
p246
tp247
F0.001075268817204301
s(S'[[det]]'
p248
S'met'
p249
tp250
F0.001075268817204301
s(S'[[adj]]'
p251
S'worked'
p252
tp253
F0.002150537634408602
s(S'received'
p254
S'under'
p255
tp256
F0.0064516129032258064
s(S'[[con]]'
p257
S'[[det]]'
p258
tp259
F0.001075268817204301
s(S'received'
p260
S'as'
p261
tp262
F0.001075268817204301
s(S'[[prp]]'
p263
S'doctorate'
p264
tp265
F0.0032258064516129032
s(S'tutor'
p266
S'in'
p267
tp268
F0.001075268817204301
s(S'student'
p269
S'where'
p270
tp271
F0.002150537634408602
s(S'received'
p272
S'more'
p273
tp274
F0.001075268817204301
s(S'again'
p275
S'worked'
p276
tp277
F0.002150537634408602
s(S'singing'
p278
S'[[con]]'
p279
tp280
F0.001075268817204301
s(S'which'
p281
S'worked'
p282
tp283
F0.001075268817204301
s(S'was'
p284
S'studying'
p285
tp286
F0.0032258064516129032
s(S'as'
p287
S'assistant'
p288
tp289
F0.001075268817204301
s(S'with'
p290
S'[[det]]'
p291
tp292
F0.001075268817204301
s(S'[[det]]'
p293
S'direction'
p294
tp295
F0.0032258064516129032
s(S'awards'
p296
S'that'
p297
tp298
F0.001075268817204301
s(S'worked'
p299
S'[[num]]'
p300
tp301
F0.001075268817204301
s(S'gave'
p302
S'[[pro]]'
p303
tp304
F0.001075268817204301
s(S'[[prp]]'
p305
S'studies'
p306
tp307
F0.001075268817204301
s(S'[[det]]'
p308
S'laboratory'
p309
tp310
F0.001075268817204301
s(S'[[adj]]'
p311
S'influenced'
p312
tp313
F0.002150537634408602
s(S'followed'
p314
S'[[det]]'
p315
tp316
F0.001075268817204301
s(S'[[det]]'
p317
S'tutor'
p318
tp319
F0.0032258064516129032
s(S'worked'
p320
S'under'
p321
tp322
F0.013978494623655914
s(S'[[mod]]'
p323
S'work'
p324
tp325
F0.002150537634408602
s(S'student'
p326
S'of'
p327
tp328
F0.007526881720430108
s(S'first'
p329
g144
tp330
F0.002150537634408602
s(S'as'
p331
S'[[det]]'
p332
tp333
F0.002150537634408602
s(S'received'
p334
S'[[num]]'
p335
tp336
F0.001075268817204301
s(S'associate'
p337
S'of'
p338
tp339
F0.0032258064516129032
s(S'who'
p340
S'received'
p341
tp342
F0.001075268817204301
s(S'[[adj]]'
p343
S'received'
p344
tp345
F0.001075268817204301
s(S'worked'
p346
S'then'
p347
tp348
F0.001075268817204301
s(g148
S'by'
p349
tp350
F0.004301075268817204
s(S'taught'
p351
S'that'
p352
tp353
F0.001075268817204301
s(S'work'
p354
S'in'
p355
tp356
F0.001075268817204301
s(S'shared'
p357
S'[[con]]'
p358
tp359
F0.001075268817204301
s(S'first'
p360
S'studied'
p361
tp362
F0.002150537634408602
s(S'then'
p363
S'worked'
p364
tp365
F0.011827956989247311
s(S'was'
p366
S'assistant'
p367
tp368
F0.002150537634408602
s(S'assistant'
p369
S'of'
p370
tp371
F0.004301075268817204
s(S'work'
p372
S'as'
p373
tp374
F0.005376344086021506
s(S'whose'
p375
S'work'
p376
tp377
F0.001075268817204301
s(S'[[adj]]'
p378
g326
tp379
F0.0032258064516129032
s(S'work'
p380
S'to'
p381
tp382
F0.0032258064516129032
s(S'who'
p383
S'studied'
p384
tp385
F0.001075268817204301
s(S'also'
p386
g183
tp387
F0.0064516129032258064
s(S'by'
p388
S'work'
p389
tp390
F0.001075268817204301
s(S'in'
p391
S'where'
p392
tp393
F0.001075268817204301
s(S'[[adj]]'
p394
S'studied'
p395
tp396
F0.001075268817204301
s(g341
S'[[det]]'
p397
tp398
F0.008602150537634409
s(S'assistant'
p399
S'for'
p400
tp401
F0.002150537634408602
s(S'worked'
p402
S'along'
p403
tp404
F0.0064516129032258064
s(S'[[con]]'
p405
S'work'
p406
tp407
F0.0032258064516129032
s(S'have'
p408
S'worked'
p409
tp410
F0.0032258064516129032
s(S'received'
p411
S'from'
p412
tp413
F0.002150537634408602
s(S'studied'
p414
S'under'
p415
tp416
F0.011827956989247311
s(S'taught'
p417
S'[[pro]]'
p418
tp419
F0.001075268817204301
s(S'[[det]]'
p420
g100
tp421
F0.002150537634408602
s(S'also'
p422
S'shared'
p423
tp424
F0.002150537634408602
s(S'have'
p425
S'received'
p426
tp427
F0.002150537634408602
s(S'friends'
p428
S'with'
p429
tp430
F0.001075268817204301
s(S'[[det]]'
p431
S'student'
p432
tp433
F0.011827956989247311
s(S'work'
p434
S'again'
p435
tp436
F0.001075268817204301
s(S'study'
p437
S'[[con]]'
p438
tp439
F0.002150537634408602
s(S'later'
p440
S'met'
p441
tp442
F0.002150537634408602
s(S'stage'
p443
S'career'
p444
tp445
F0.001075268817204301
s(S'under'
p446
S'supervision'
p447
tp448
F0.0032258064516129032
s(S'then'
p449
S'received'
p450
tp451
F0.002150537634408602
s(S'taught'
p452
S'where'
p453
tp454
F0.001075268817204301
s(S'met'
p455
S'with'
p456
tp457
F0.010752688172043012
s(S'[[con]]'
p458
S'met'
p459
tp460
F0.0064516129032258064
s(S'studied'
p461
S'first'
p462
tp463
F0.001075268817204301
s(g252
S'for'
p464
tp465
F0.0032258064516129032
s(S'[[mod]]'
p466
S'study'
p467
tp468
F0.0032258064516129032
s(S'[[det]]'
p469
S'study'
p470
tp471
F0.002150537634408602
s(S'worked'
p472
S'until'
p473
tp474
F0.002150537634408602
s(S'also'
p475
S'influenced'
p476
tp477
F0.0032258064516129032
s(S'worked'
p478
S'first'
p479
tp480
F0.001075268817204301
s(S'earned'
p481
S'[[prp]]'
p482
tp483
F0.002150537634408602
s(S'been'
p484
S'studying'
p485
tp486
F0.002150537634408602
s(S'also'
p487
S'met'
p488
tp489
F0.007526881720430108
s(S'[[det]]'
p490
g132
tp491
F0.001075268817204301
s(S'influenced'
p492
S'[[det]]'
p493
tp494
F0.001075268817204301
s(S'where'
p495
S'taught'
p496
tp497
F0.001075268817204301
s(S'[[adj]]'
p498
S'chemistry'
p499
tp500
F0.001075268817204301
s(S'where'
p501
g455
tp502
F0.005376344086021506
s(S'[[con]]'
p503
S'tutor'
p504
tp505
F0.001075268817204301
s(S'studied'
p506
S'physics'
p507
tp508
F0.002150537634408602
s(g285
S'with'
p509
tp510
F0.004301075268817204
s(S'assistant'
p511
S'to'
p512
tp513
F0.005376344086021506
s(S'met'
p514
S'as'
p515
tp516
F0.001075268817204301
s(S'[[prp]]'
p517
S'assistant'
p518
tp519
F0.001075268817204301
s(S'studied'
p520
S'[[num]]'
p521
tp522
F0.001075268817204301
s(S'mainly'
p523
g320
tp524
F0.001075268817204301
s(S'worked'
p525
S'[[det]]'
p526
tp527
F0.001075268817204301
s(S'studying'
p528
S'[[det]]'
p529
tp530
F0.001075268817204301
s(S'studied'
p531
S'chemistry'
p532
tp533
F0.001075268817204301
s(S'where'
p534
S'worked'
p535
tp536
F0.008602150537634409
s(S'which'
p537
S'received'
p538
tp539
F0.002150537634408602
s(g37
S'work'
p540
tp541
F0.0064516129032258064
s(S'study'
p542
S'of'
p543
tp544
F0.005376344086021506
s(S'work'
p545
S'of'
p546
tp547
F0.004301075268817204
s(g208
S'[[prp]]'
p548
tp549
F0.001075268817204301
s(S'[[det]]'
p550
S'supervision'
p551
tp552
F0.005376344086021506
s(S'which'
p553
S'shared'
p554
tp555
F0.002150537634408602
s(S'worked'
p556
S'together'
p557
tp558
F0.0032258064516129032
s(S'to'
p559
g490
tp560
F0.001075268817204301
s(S'taught'
p561
S'to'
p562
tp563
F0.001075268817204301
s(S'associate'
p564
S'in'
p565
tp566
F0.001075268817204301
s(S'worked'
p567
S'[[con]]'
p568
tp569
F0.0064516129032258064
s(S'[[prp]]'
p570
S'student'
p571
tp572
F0.001075268817204301
s(S'has'
p573
S'studied'
p574
tp575
F0.0032258064516129032
s(S'shared'
p576
S'[[det]]'
p577
tp578
F0.002150537634408602
s(S'worked'
p579
S'by'
p580
tp581
F0.0032258064516129032
s(S'taught'
p582
S'from'
p583
tp584
F0.001075268817204301
s(S'received'
p585
S'while'
p586
tp587
F0.001075268817204301
s(S'influenced'
p588
S'[[prp]]'
p589
tp590
F0.001075268817204301
s(S'[[adj]]'
p591
g545
tp592
F0.005376344086021506
s(g279
g314
tp593
F0.001075268817204301
s(S'studied'
p594
S'there'
p595
tp596
F0.001075268817204301
s(S'worked'
p597
S'on'
p598
tp599
F0.002150537634408602
s(S'[[prp]]'
p600
S'tutor'
p601
tp602
F0.001075268817204301
s(S'had'
p603
S'shared'
p604
tp605
F0.002150537634408602
s(S'worked'
p606
S'when'
p607
tp608
F0.001075268817204301
s(S'has'
p609
g579
tp610
F0.012903225806451613
s(S'wordnetphuedue'
p611
S'[[det]]'
p612
tp613
F0.001075268817204301
s(S'later'
p614
g567
tp615
F0.007526881720430108
s(g297
g302
tp616
F0.001075268817204301
s(g172
S'in'
p617
tp618
F0.001075268817204301
s(S'then'
p619
S'met'
p620
tp621
F0.002150537634408602
s(S'[[adj]]'
p622
S'met'
p623
tp624
F0.0032258064516129032
s(S'was'
p625
S'received'
p626
tp627
F0.004301075268817204
s(S'[[det]]'
p628
S'doctorate'
p629
tp630
F0.001075268817204301
s(g205
S'[[con]]'
p631
tp632
F0.0032258064516129032
s(g574
S'with'
p633
tp634
F0.012903225806451613
s(S'worked'
p635
S'was'
p636
tp637
F0.001075268817204301
s(S'[[pro]]'
p638
S'received'
p639
tp640
F0.001075268817204301
s(S'worked'
p641
S'before'
p642
tp643
F0.0032258064516129032
s(S'met'
p644
S'up'
p645
tp646
F0.002150537634408602
s(S'[[det]]'
p647
g564
tp648
F0.005376344086021506
s(S'[[adj]]'
p649
S'physics'
p650
tp651
F0.001075268817204301
s(S'tutor'
p652
S'to'
p653
tp654
F0.005376344086021506
s(S'[[prp]]'
p655
g611
tp656
F0.0032258064516129032
s(S'[[det]]'
p657
S'opportunity'
p658
tp659
F0.001075268817204301
s(S'work'
p660
S'[[det]]'
p661
tp662
F0.001075268817204301
s(S'also'
p663
S'received'
p664
tp665
F0.0064516129032258064
s(S'was'
p666
S'influenced'
p667
tp668
F0.0064516129032258064
s(S'[[pro]]'
p669
S'taught'
p670
tp671
F0.001075268817204301
s(S'[[adj]]'
p672
S'direction'
p673
tp674
F0.002150537634408602
s(S'also'
p675
S'taught'
p676
tp677
F0.002150537634408602
s(g467
S'with'
p678
tp679
F0.0032258064516129032
s(g70
S'of'
p680
tp681
F0.004301075268817204
s(S'[[prp]]'
p682
g354
tp683
F0.005376344086021506
s(S'[[det]]'
p684
S'guidance'
p685
tp686
F0.001075268817204301
s(S'have'
p687
S'met'
p688
tp689
F0.0032258064516129032
s(S'studied'
p690
S'[[adj]]'
p691
tp692
F0.0032258064516129032
s(S'coauthored'
p693
S'[[det]]'
p694
tp695
F0.001075268817204301
s(S'when'
p696
S'met'
p697
tp698
F0.001075268817204301
s(g444
S'where'
p699
tp700
F0.001075268817204301
s(S'worked'
p701
S'mostly'
p702
tp703
F0.001075268817204301
s(S'met'
p704
S'[[prp]]'
p705
tp706
F0.002150537634408602
s(S'[[prp]]'
p707
g542
tp708
F0.001075268817204301
s(S'influenced'
p709
S'[[con]]'
p710
tp711
F0.002150537634408602
s(S'which'
p712
S'met'
p713
tp714
F0.001075268817204301
s(S'met'
p715
S'after'
p716
tp717
F0.001075268817204301
s(S'supervised'
p718
S'by'
p719
tp720
F0.001075268817204301
s(S'later'
p721
S'received'
p722
tp723
F0.004301075268817204
s(S'[[det]]'
p724
S'[[adj]]'
p725
tp726
F0.0032258064516129032
s(S'met'
p727
S'[[det]]'
p728
tp729
F0.007526881720430108
s(S'currently'
p730
S'studying'
p731
tp732
F0.001075268817204301
s(S'where'
p733
S'[[det]]'
p734
tp735
F0.001075268817204301
s(g540
S'which'
p736
tp737
F0.002150537634408602
s(S'met'
p738
S'[[pro]]'
p739
tp740
F0.001075268817204301
s(S'shared'
p741
S'[[adj]]'
p742
tp743
F0.001075268817204301
s(g725
g16
tp744
F0.0032258064516129032
s(S'later'
p745
S'studied'
p746
tp747
F0.0032258064516129032
s(S'[[con]]'
p748
S'student'
p749
tp750
F0.001075268817204301
s(S'[[det]]'
p751
S'assistant'
p752
tp753
F0.0064516129032258064
s(S'had'
p754
S'met'
p755
tp756
F0.007526881720430108
s(S'received'
p757
S'of'
p758
tp759
F0.001075268817204301
s(S'study'
p760
S'under'
p761
tp762
F0.0032258064516129032
s(g127
S'dissertation'
p763
tp764
F0.002150537634408602
s(S'[[adj]]'
p765
S'members'
p766
tp767
F0.001075268817204301
s(g315
g443
tp768
F0.001075268817204301
s(S'[[num]]'
p769
S'work'
p770
tp771
F0.001075268817204301
s(g432
S'to'
p772
tp773
F0.001075268817204301
s(g37
S'worked'
p774
tp775
F0.002150537634408602
s(S'received'
p776
S'was'
p777
tp778
F0.001075268817204301
s(S'received'
p779
g296
tp780
F0.001075268817204301
s(g364
S'to'
p781
tp782
F0.0064516129032258064
s(S'while'
p783
S'received'
p784
tp785
F0.001075268817204301
s(S'then'
p786
S'studied'
p787
tp788
F0.002150537634408602
s(S'[[con]]'
p789
S'study'
p790
tp791
F0.001075268817204301
s(S'under'
p792
g293
tp793
F0.005376344086021506
s(S'has'
p794
S'met'
p795
tp796
F0.0032258064516129032
s(S'has'
p797
S'shared'
p798
tp799
F0.002150537634408602
s(S'completed'
p800
S'[[prp]]'
p801
tp802
F0.001075268817204301
s(S'to'
p803
g210
tp804
F0.015053763440860216
s(S'in'
p805
S'work'
p806
tp807
F0.001075268817204301
s(S'studied'
p808
S'where'
p809
tp810
F0.002150537634408602
s(S'[[adj]]'
p811
S'study'
p812
tp813
F0.002150537634408602
s(S'studied'
p814
S'as'
p815
tp816
F0.0032258064516129032
s(S'[[pro]]'
p817
S'met'
p818
tp819
F0.001075268817204301
s(g154
S'as'
p820
tp821
F0.012903225806451613
s(S'group'
p822
S'of'
p823
tp824
F0.002150537634408602
s(S'work'
p825
S'with'
p826
tp827
F0.008602150537634409
s(S'that'
p828
S'shared'
p829
tp830
F0.001075268817204301
s(S'supervised'
p831
S'[[det]]'
p832
tp833
F0.001075268817204301
s(S'received'
p834
S'by'
p835
tp836
F0.004301075268817204
s(S'with'
p837
S'work'
p838
tp839
F0.001075268817204301
s(S'worked'
p840
S'in'
p841
tp842
F0.001075268817204301
s(S'work'
p843
S'under'
p844
tp845
F0.002150537634408602
s(S'met'
p846
S'again'
p847
tp848
F0.001075268817204301
s(S'[[adj]]'
p849
g652
tp850
F0.002150537634408602
s(S'that'
p851
S'work'
p852
tp853
F0.001075268817204301
s(S'began'
p854
g278
tp855
F0.001075268817204301
s(S'[[adj]]'
p856
g428
tp857
F0.001075268817204301
s(S'work'
p858
S'from'
p859
tp860
F0.001075268817204301
s(S'worked'
p861
S'again'
p862
tp863
F0.002150537634408602
s(g841
g308
tp864
F0.001075268817204301
s(S'[[con]]'
p865
S'taught'
p866
tp867
F0.001075268817204301
s(g306
g391
tp868
F0.001075268817204301
s(S'student'
p869
S'[[det]]'
p870
tp871
F0.001075268817204301
s(S'worked'
p872
S'among'
p873
tp874
F0.0032258064516129032
s(g309
S'of'
p875
tp876
F0.001075268817204301
s(S'wrote'
p877
g420
tp878
F0.002150537634408602
s(S'while'
p879
S'studying'
p880
tp881
F0.001075268817204301
s(S'completed'
p882
g628
tp883
F0.001075268817204301
s(S'shared'
p884
S'with'
p885
tp886
F0.005376344086021506
s(S'met'
p887
S'while'
p888
tp889
F0.0032258064516129032
s(S'was'
p890
S'met'
p891
tp892
F0.002150537634408602
s(S'done'
p893
S'work'
p894
tp895
F0.002150537634408602
s(S'whom'
p896
S'met'
p897
tp898
F0.001075268817204301
s(g499
S'[[con]]'
p899
tp900
F0.001075268817204301
s(S'after'
p901
S'met'
p902
tp903
F0.001075268817204301
s(S'[[con]]'
p904
S'assistant'
p905
tp906
F0.001075268817204301
s(g664
S'[[prp]]'
p907
tp908
F0.0064516129032258064
s(S'worked'
p909
S'later'
p910
tp911
F0.002150537634408602
s(S'[[det]]'
p912
S'worked'
p913
tp914
F0.001075268817204301
s(S'joined'
p915
g724
tp916
F0.008602150537634409
s(S'work'
p917
S'among'
p918
tp919
F0.001075268817204301
s(S'work'
p920
S'together'
p921
tp922
F0.001075268817204301
s(g429
g765
tp923
F0.001075268817204301
s(S'studied'
p924
S'to'
p925
tp926
F0.001075268817204301
s(S'work'
p927
S'[[num]]'
p928
tp929
F0.001075268817204301
s(S'met'
p930
S'who'
p931
tp932
F0.001075268817204301
s(S'while'
p933
S'worked'
p934
tp935
F0.001075268817204301
s(S'[[con]]'
p936
S'influenced'
p937
tp938
F0.001075268817204301
s(S'when'
p939
S'received'
p940
tp941
F0.002150537634408602
s(g303
g657
tp942
F0.001075268817204301
s(S'as'
p943
S'worked'
p944
tp945
F0.001075268817204301
s(S'group'
p946
S'along'
p947
tp948
F0.001075268817204301
s(S'who'
p949
S'worked'
p950
tp951
F0.0032258064516129032
s(S'also'
p952
S'worked'
p953
tp954
F0.012903225806451613
s(S'who'
p955
S'taught'
p956
tp957
F0.001075268817204301
s(S'[[num]]'
p958
S'met'
p959
tp960
F0.001075268817204301
s(g151
S'in'
p961
tp962
F0.002150537634408602
s(g246
g305
tp963
F0.001075268817204301
s(S'that'
p964
S'met'
p965
tp966
F0.001075268817204301
s(g81
S'by'
p967
tp968
F0.008602150537634409
s(S'worked'
p969
S'mainly'
p970
tp971
F0.002150537634408602
s(g685
S'of'
p972
tp973
F0.001075268817204301
s(S'mathematics'
p974
S'[[con]]'
p975
tp976
F0.001075268817204301
s(g658
g245
tp977
F0.001075268817204301
s(S'studied'
p978
S'later'
p979
tp980
F0.001075268817204301
s(g667
S'as'
p981
tp982
F0.004301075268817204
s(g604
S'[[num]]'
p983
tp984
F0.002150537634408602
s(S'met'
p985
S'[[num]]'
p986
tp987
F0.001075268817204301
s(S'associate'
p988
S'with'
p989
tp990
F0.001075268817204301
s(S'studied'
p991
S'mathematics'
p992
tp993
F0.002150537634408602
s(S'worked'
p994
S'while'
p995
tp996
F0.001075268817204301
s(S'had'
p997
S'received'
p998
tp999
F0.0032258064516129032
s(S'is'
p1000
g4
tp1001
F0.001075268817204301
s(S'to'
p1002
S'study'
p1003
tp1004
F0.004301075268817204
s(S'joined'
p1005
S'group'
p1006
tp1007
F0.001075268817204301
s(g755
S'through'
p1008
tp1009
F0.002150537634408602
s(S'whom'
p1010
S'worked'
p1011
tp1012
F0.001075268817204301
s(S'supervision'
p1013
S'of'
p1014
tp1015
F0.0064516129032258064
s(S'be'
p1016
S'influenced'
p1017
tp1018
F0.001075268817204301
s(S'never'
p1019
S'met'
p1020
tp1021
F0.001075268817204301
s(g139
S'[[con]]'
p1022
tp1023
F0.0032258064516129032
s(g953
S'[[adj]]'
p1024
tp1025
F0.0032258064516129032
s(S'worked'
p1026
S'from'
p1027
tp1028
F0.0032258064516129032
s.