(dp0
(S'[[adj]]'
p1
S'editorial'
p2
tp3
F0.1
s(S'[[num]]'
p4
S'edited'
p5
tp6
F0.1
s(S'was'
p7
S'edited'
p8
tp9
F0.2
s(S'[[con]]'
p10
S'edited'
p11
tp12
F0.1
s(g11
S'by'
p13
tp14
F0.4
s(g2
S'board'
p15
tp16
F0.1
s.