(dp0
(S'television'
p1
S'drama'
p2
tp3
F0.00040096230954290296
s(S'[[adj]]'
p4
S'adventure'
p5
tp6
F0.0008019246190858059
s(S'[[det]]'
p7
S'thriller'
p8
tp9
F0.0012028869286287089
s(S'thriller'
p10
S'directed'
p11
tp12
F0.0012028869286287089
s(S'gt'
p13
S'[[con]]'
p14
tp15
F0.00040096230954290296
s(S'with'
p16
S'[[det]]'
p17
tp18
F0.0016038492381716118
s(S'is'
p19
S'written'
p20
tp21
F0.00040096230954290296
s(S'into'
p22
S'[[det]]'
p23
tp24
F0.00040096230954290296
s(S'comedy'
p25
S'horror'
p26
tp27
F0.00040096230954290296
s(S'by'
p28
S'[[con]]'
p29
tp30
F0.020048115477145148
s(S'made'
p31
S'by'
p32
tp33
F0.00040096230954290296
s(S'[[num]]'
p34
S'written'
p35
tp36
F0.00040096230954290296
s(S'from'
p37
S'directed'
p38
tp39
F0.0008019246190858059
s(S'[[adj]]'
p40
S'cast'
p41
tp42
F0.00040096230954290296
s(S'adapted'
p43
S'[[num]]'
p44
tp45
F0.00040096230954290296
s(S'mystery'
p46
S'crime'
p47
tp48
F0.00040096230954290296
s(S'fantasy'
p49
S'adventure'
p50
tp51
F0.00040096230954290296
s(S'adapted'
p52
S'into'
p53
tp54
F0.0008019246190858059
s(S'film'
p55
S'in'
p56
tp57
F0.00040096230954290296
s(S'directed'
p58
S'that'
p59
tp60
F0.00040096230954290296
s(S'about'
p61
S'directed'
p62
tp63
F0.0008019246190858059
s(S'[[det]]'
p64
S'sports'
p65
tp66
F0.00040096230954290296
s(S'as'
p67
S'[[det]]'
p68
tp69
F0.00040096230954290296
s(S'[[con]]'
p70
S'starred'
p71
tp72
F0.00040096230954290296
s(S'directed'
p73
S'based'
p74
tp75
F0.0008019246190858059
s(S'feature'
p76
S'film'
p77
tp78
F0.006014434643143544
s(S'starring'
p79
S'with'
p80
tp81
F0.0008019246190858059
s(S'directed'
p82
S'about'
p83
tp84
F0.00040096230954290296
s(S'[[adj]]'
p85
S'[[con]]'
p86
tp87
F0.0008019246190858059
s(S'[[det]]'
p88
S'cult'
p89
tp90
F0.00040096230954290296
s(g74
S'by'
p91
tp92
F0.0012028869286287089
s(S'was'
p93
S'written'
p94
tp95
F0.0028067361668003207
s(S'[[adj]]'
p96
S'comedy'
p97
tp98
F0.012028869286287089
s(S'television'
p99
S'film'
p100
tp101
F0.0012028869286287089
s(S'was'
p102
S'released'
p103
tp104
F0.00040096230954290296
s(g59
S'starred'
p105
tp106
F0.00040096230954290296
s(S'edited'
p107
S'[[con]]'
p108
tp109
F0.00040096230954290296
s(S'comedy'
p110
S'crime'
p111
tp112
F0.00040096230954290296
s(S'film'
p113
S'of'
p114
tp115
F0.00040096230954290296
s(S'documentary'
p116
S'directed'
p117
tp118
F0.0008019246190858059
s(S'family'
p119
S'film'
p120
tp121
F0.0012028869286287089
s(S'[[det]]'
p122
S'adventure'
p123
tp124
F0.00040096230954290296
s(S'fantasy'
p125
S'film'
p126
tp127
F0.0016038492381716118
s(S'[[det]]'
p128
S'directed'
p129
tp130
F0.00040096230954290296
s(S'[[num]]'
p131
S'crime'
p132
tp133
F0.010024057738572574
s(S'[[num]]'
p134
S'comedydrama'
p135
tp136
F0.0036086607858861267
s(S'comedy'
p137
S'directed'
p138
tp139
F0.0016038492381716118
s(S'adapted'
p140
g67
tp141
F0.00040096230954290296
s(S'horror'
p142
S'film'
p143
tp144
F0.010425020048115477
s(S'[[num]]'
p145
S'road'
p146
tp147
F0.0008019246190858059
s(S'[[adj]]'
p148
S'crime'
p149
tp150
F0.002004811547714515
s(S'romance'
p151
S'film'
p152
tp153
F0.0024057738572574178
s(S'was'
p154
g52
tp155
F0.0016038492381716118
s(S'film'
p156
S'[[con]]'
p157
tp158
F0.0008019246190858059
s(S'drama'
p159
S'written'
p160
tp161
F0.00040096230954290296
s(S'[[con]]'
p162
S'featuring'
p163
tp164
F0.0032076984763432237
s(S's'
p165
S'written'
p166
tp167
F0.00040096230954290296
s(S'[[det]]'
p168
S'feature'
p169
tp170
F0.0016038492381716118
s(S'[[adj]]'
p171
S'film'
p172
tp173
F0.0136327185244587
s(S'film'
p174
S'written'
p175
tp176
F0.02445870088211708
s(S'[[con]]'
p177
S'action'
p178
tp179
F0.00040096230954290296
s(S'known'
p180
S'is'
p181
tp182
F0.00400962309542903
s(S'written'
p183
S'[[con]]'
p184
tp185
F0.03247794707297514
s(g94
S'directed'
p186
tp187
F0.002004811547714515
s(S'directed'
p188
S'at'
p189
tp190
F0.00040096230954290296
s(S'film'
p191
S'[[adj]]'
p192
tp193
F0.002004811547714515
s(S'produced'
p194
S'by'
p195
tp196
F0.006014434643143544
s(S'[[con]]'
p197
S'starring'
p198
tp199
F0.05934242181234964
s(S'produced'
p200
S'[[con]]'
p201
tp202
F0.0056134723336006415
s(S'[[num]]'
p203
S'detective'
p204
tp205
F0.0008019246190858059
s(S'also'
p206
g180
tp207
F0.0036086607858861267
s(S'[[con]]'
p208
S'crime'
p209
tp210
F0.00040096230954290296
s(g97
S'film'
p211
tp212
F0.0268644747393745
s(S'edited'
p213
S'by'
p214
tp215
F0.00040096230954290296
s(S'by'
p216
S'produced'
p217
tp218
F0.00040096230954290296
s(S'[[num]]'
p219
g76
tp220
F0.0028067361668003207
s(S'action'
p221
S'thriller'
p222
tp223
F0.0016038492381716118
s(S'is'
p224
S'film'
p225
tp226
F0.00040096230954290296
s(S'action'
p227
S'written'
p228
tp229
F0.0008019246190858059
s(S'assassination'
p230
g177
tp231
F0.00040096230954290296
s(S'film'
p232
S'made'
p233
tp234
F0.0008019246190858059
s(S'drama'
p235
S'film'
p236
tp237
F0.026062550120288693
s(g146
S'movie'
p238
tp239
F0.0008019246190858059
s(S'[[adj]]'
p240
S'action'
p241
tp242
F0.0016038492381716118
s(S'directed'
p243
S'as'
p244
tp245
F0.0008019246190858059
s(S'by'
p246
S'starring'
p247
tp248
F0.0136327185244587
s(S'[[det]]'
p249
S'war'
p250
tp251
F0.00040096230954290296
s(S'thriller'
p252
S'film'
p253
tp254
F0.014033680834001604
s(S'[[num]]'
p255
g221
tp256
F0.009623095429029671
s(S'noir'
p257
S'directed'
p258
tp259
F0.0012028869286287089
s(S'film'
p260
S'that'
p261
tp262
F0.0008019246190858059
s(S'[[adj]]'
p263
S'movie'
p264
tp265
F0.00040096230954290296
s(S'[[num]]'
p266
S'produced'
p267
tp268
F0.00040096230954290296
s(S'directed'
p269
S'which'
p270
tp271
F0.00040096230954290296
s(S'is'
p272
S'[[num]]'
p273
tp274
F0.0056134723336006415
s(S'[[det]]'
p275
S'drama'
p276
tp277
F0.0012028869286287089
s(S'comedy'
p278
S'action'
p279
tp280
F0.00040096230954290296
s(g71
S'by'
p281
tp282
F0.00040096230954290296
s(S'[[det]]'
p283
S'mystery'
p284
tp285
F0.00040096230954290296
s(S'[[con]]'
p286
S'was'
p287
tp288
F0.00040096230954290296
s(S'[[con]]'
p289
S'based'
p290
tp291
F0.00040096230954290296
s(S'thriller'
p292
S'written'
p293
tp294
F0.00040096230954290296
s(S'[[adj]]'
p295
S'fantasy'
p296
tp297
F0.00040096230954290296
s(S'written'
p298
S'by'
p299
tp300
F0.012830793905372895
s(S'released'
p301
S'starring'
p302
tp303
F0.0016038492381716118
s(S'film'
p304
g200
tp305
F0.00400962309542903
s(S'film'
p306
g37
tp307
F0.0012028869286287089
s(S'family'
p308
S'comedy'
p309
tp310
F0.0008019246190858059
s(g181
S'[[adj]]'
p311
tp312
F0.0008019246190858059
s(g89
S'[[num]]'
p313
tp314
F0.00040096230954290296
s(S'[[det]]'
p315
S'gentleman'
p316
tp317
F0.00040096230954290296
s(S'film'
p318
S'noir'
p319
tp320
F0.0016038492381716118
s(S'[[adj]]'
p321
S'documentary'
p322
tp323
F0.00040096230954290296
s(S'directed'
p324
S'starring'
p325
tp326
F0.013231756214915798
s(S'produced'
p327
S'with'
p328
tp329
F0.00040096230954290296
s(g65
S'drama'
p330
tp331
F0.00040096230954290296
s(S'[[con]]'
p332
S'stars'
p333
tp334
F0.002004811547714515
s(S'starring'
p335
S'directed'
p336
tp337
F0.0008019246190858059
s(S'[[num]]'
p338
g46
tp339
F0.0028067361668003207
s(S'[[adj]]'
p340
S'mystery'
p341
tp342
F0.00040096230954290296
s(S'produced'
p343
S'directed'
p344
tp345
F0.0012028869286287089
s(S'[[adj]]'
p346
S'horror'
p347
tp348
F0.002004811547714515
s(S'[[det]]'
p349
S'horror'
p350
tp351
F0.0012028869286287089
s(S'[[num]]'
p352
g99
tp353
F0.0016038492381716118
s(S'film'
p354
S'comedy'
p355
tp356
F0.00040096230954290296
s(g198
S'[[con]]'
p357
tp358
F0.03368083400160385
s(S'documentary'
p359
S'film'
p360
tp361
F0.0048115477145148355
s(S'[[num]]'
p362
g260
tp363
F0.023255813953488372
s(S'released'
p364
S'is'
p365
tp366
F0.00040096230954290296
s(S'[[num]]'
p367
S'adventure'
p368
tp369
F0.0028067361668003207
s(g368
S'film'
p370
tp371
F0.004410585404971933
s(g261
S'was'
p372
tp373
F0.0008019246190858059
s(S'drama'
p374
S'directed'
p375
tp376
F0.0016038492381716118
s(S'[[con]]'
p377
S'directed'
p378
tp379
F0.035685645549318364
s(S'is'
p380
S'directed'
p381
tp382
F0.0012028869286287089
s(S'[[det]]'
p383
S'script'
p384
tp385
F0.00040096230954290296
s(S'[[det]]'
p386
S'color'
p387
tp388
F0.0008019246190858059
s(S'[[num]]'
p389
S'language'
p390
tp391
F0.0016038492381716118
s(S'based'
p392
S'directed'
p393
tp394
F0.00040096230954290296
s(g114
S'directed'
p395
tp396
F0.00040096230954290296
s(S'[[num]]'
p397
S'fantasy'
p398
tp399
F0.002004811547714515
s(S'action'
p400
S'comedy'
p401
tp402
F0.002004811547714515
s(S'[[num]]'
p403
S'movie'
p404
tp405
F0.0024057738572574178
s(S'[[num]]'
p406
g359
tp407
F0.0036086607858861267
s(S'screenplay'
p408
S'written'
p409
tp410
F0.00040096230954290296
s(S'comedy'
p411
S'family'
p412
tp413
F0.00040096230954290296
s(g390
S'film'
p414
tp415
F0.0024057738572574178
s(S'[[adj]]'
p416
S'directed'
p417
tp418
F0.0012028869286287089
s(S'[[det]]'
p419
S'crime'
p420
tp421
F0.00040096230954290296
s(S'mystery'
p422
S'film'
p423
tp424
F0.0028067361668003207
s(S'crime'
p425
S'thriller'
p426
tp427
F0.0016038492381716118
s(S'[[num]]'
p428
g308
tp429
F0.002004811547714515
s(S'directed'
p430
g16
tp431
F0.002004811547714515
s(S'[[det]]'
p432
S'written'
p433
tp434
F0.00040096230954290296
s(S'comedy'
p435
S'[[adj]]'
p436
tp437
F0.002004811547714515
s(g53
S'[[num]]'
p438
tp439
F0.00040096230954290296
s(S'[[det]]'
p440
S'film'
p441
tp442
F0.006014434643143544
s(g233
S'directed'
p443
tp444
F0.00040096230954290296
s(g270
S'starred'
p445
tp446
F0.00040096230954290296
s(S'directed'
p447
S'written'
p448
tp449
F0.0048115477145148355
s(S'written'
p450
S'produced'
p451
tp452
F0.0008019246190858059
s(g398
S'action'
p453
tp454
F0.00040096230954290296
s(S'drama'
p455
S'[[adj]]'
p456
tp457
F0.0008019246190858059
s(S'film'
p458
S'by'
p459
tp460
F0.0008019246190858059
s(S'[[con]]'
p461
g107
tp462
F0.0008019246190858059
s(S'starring'
p463
S'[[det]]'
p464
tp465
F0.0008019246190858059
s(S'directed'
p466
S'by'
p467
tp468
F0.08340016038492382
s(S'created'
p469
S'[[con]]'
p470
tp471
F0.00040096230954290296
s(g453
S'film'
p472
tp473
F0.00801924619085806
s(g238
S'directed'
p474
tp475
F0.0032076984763432237
s(S'known'
p476
S'as'
p477
tp478
F0.00040096230954290296
s(g319
S'starring'
p479
tp480
F0.00040096230954290296
s(S'in'
p481
S'[[num]]'
p482
tp483
F0.0008019246190858059
s(g404
S'[[con]]'
p484
tp485
F0.00040096230954290296
s(S'[[det]]'
p486
g116
tp487
F0.0016038492381716118
s(S'film'
p488
S'stars'
p489
tp490
F0.00040096230954290296
s(S'war'
p491
S'film'
p492
tp493
F0.0028067361668003207
s(g372
S'directed'
p494
tp495
F0.00400962309542903
s(g135
S'film'
p496
tp497
F0.006014434643143544
s(S'film'
p498
g392
tp499
F0.0008019246190858059
s(g132
S'drama'
p500
tp501
F0.0036086607858861267
s(S'directed'
p502
S'[[con]]'
p503
tp504
F0.053728949478749
s(S'[[con]]'
p505
g194
tp506
F0.0056134723336006415
s(S'titled'
p507
S'is'
p508
tp509
F0.00040096230954290296
s(S'by'
p510
S'film'
p511
tp512
F0.0008019246190858059
s(S'film'
p513
g61
tp514
F0.0012028869286287089
s(S'[[adj]]'
p515
S'written'
p516
tp517
F0.0012028869286287089
s(S'film'
p518
g102
tp519
F0.00040096230954290296
s(S'[[adj]]'
p520
S'drama'
p521
tp522
F0.008821170809943865
s(S'[[num]]'
p523
g137
tp524
F0.0136327185244587
s(g17
S'screenplay'
p525
tp526
F0.0008019246190858059
s(g41
S'comedydrama'
p527
tp528
F0.00040096230954290296
s(S'[[adj]]'
p529
S'romance'
p530
tp531
F0.00040096230954290296
s(S'film'
p532
g466
tp533
F0.10304731355252607
s(S'[[num]]'
p534
g235
tp535
F0.013231756214915798
s(g192
S'starring'
p536
tp537
F0.00040096230954290296
s(S'[[num]]'
p538
g142
tp539
F0.0052125100240577385
s(g477
S'[[num]]'
p540
tp541
F0.00040096230954290296
s(S'[[det]]'
p542
g230
tp543
F0.00040096230954290296
s(S'comedy'
p544
S'written'
p545
tp546
F0.00040096230954290296
s(S'[[adj]]'
p547
S'feature'
p548
tp549
F0.0008019246190858059
s(S'movie'
p550
S'produced'
p551
tp552
F0.00040096230954290296
s(g482
S'starring'
p553
tp554
F0.0008019246190858059
s(S'comedy'
p555
S'drama'
p556
tp557
F0.0012028869286287089
s(S'film'
p558
g301
tp559
F0.0012028869286287089
s(S'starring'
p560
S'as'
p561
tp562
F0.0012028869286287089
s(g316
S'[[num]]'
p563
tp564
F0.00040096230954290296
s(S'[[adj]]'
p565
g252
tp566
F0.0032076984763432237
s(S'[[det]]'
p567
S'language'
p568
tp569
F0.0008019246190858059
s(g355
S'starring'
p570
tp571
F0.0008019246190858059
s(S'film'
p572
g374
tp573
F0.00040096230954290296
s(S'article'
p574
g272
tp575
F0.00040096230954290296
s(S'[[num]]'
p576
S'thriller'
p577
tp578
F0.007217321571772253
s(S'from'
p579
S'written'
p580
tp581
F0.00040096230954290296
s(g149
S'film'
p582
tp583
F0.008420208500400962
s(S'arts'
p584
S'film'
p585
tp586
F0.0012028869286287089
s(S'family'
p587
S'adventure'
p588
tp589
F0.00040096230954290296
s(g414
S'starring'
p590
tp591
F0.03408179631114675
s(S'drama'
p592
S'starring'
p593
tp594
F0.00040096230954290296
s(S'film'
p595
S'is'
p596
tp597
F0.00040096230954290296
s(g157
S'[[adj]]'
p598
tp599
F0.00040096230954290296
s(S'aka'
p600
S'is'
p601
tp602
F0.0012028869286287089
s(g204
S'film'
p603
tp604
F0.0008019246190858059
s(S'[[num]]'
p605
g491
tp606
F0.002004811547714515
s(S'[[con]]'
p607
g298
tp608
F0.01082598235765838
s(S'[[num]]'
p609
g151
tp610
F0.002004811547714515
s(S'film'
p611
S'featuring'
p612
tp613
F0.0016038492381716118
s(g333
S'[[con]]'
p614
tp615
F0.0008019246190858059
s(g387
S'film'
p616
tp617
F0.0008019246190858059
s(g612
S'[[con]]'
p618
tp619
F0.00040096230954290296
s(S'drama'
p620
S'thriller'
p621
tp622
F0.00040096230954290296
s(S'[[det]]'
p623
S'starring'
p624
tp625
F0.00040096230954290296
s(S'[[num]]'
p626
S'directed'
p627
tp628
F0.00040096230954290296
s(S'directed'
p629
S'produced'
p630
tp631
F0.0016038492381716118
s(S'[[adj]]'
p632
g584
tp633
F0.0012028869286287089
s(S'[[det]]'
p634
g435
tp635
F0.0024057738572574178
s(S'released'
p636
g481
tp637
F0.00040096230954290296
s(S'mystery'
p638
S'thriller'
p639
tp640
F0.00040096230954290296
s(S'directed'
p641
g13
tp642
F0.00040096230954290296
s(g123
g636
tp643
F0.00040096230954290296
s.