(dp0
(S'television'
p1
S'series'
p2
tp3
F0.06666666666666667
s(S'developed'
p4
S'by'
p5
tp6
F0.06666666666666667
s(S'is'
p7
S'created'
p8
tp9
F0.06666666666666667
s(g2
g4
tp10
F0.06666666666666667
s(S'[[adj]]'
p11
S'created'
p12
tp13
F0.06666666666666667
s(S'[[det]]'
p14
g1
tp15
F0.06666666666666667
s(S'created'
p16
S'with'
p17
tp18
F0.06666666666666667
s(S'was'
p19
S'created'
p20
tp21
F0.13333333333333333
s(g20
S'by'
p22
tp23
F0.3333333333333333
s(S'were'
p24
S'created'
p25
tp26
F0.06666666666666667
s.