(dp0
(S'also'
p1
S'coached'
p2
tp3
F0.0033222591362126247
s(S'coach'
p4
S'[[con]]'
p5
tp6
F0.006644518272425249
s(S'only'
p7
S'daughter'
p8
tp9
F0.0033222591362126247
s(S'work'
p10
S'by'
p11
tp12
F0.009966777408637873
s(S'trained'
p13
S'by'
p14
tp15
F0.016611295681063124
s(S'paired'
p16
S'up'
p17
tp18
F0.006644518272425249
s(S'was'
p19
S'coached'
p20
tp21
F0.006644518272425249
s(S'later'
p22
S'coached'
p23
tp24
F0.0033222591362126247
s(S'is'
p25
S'daughter'
p26
tp27
F0.006644518272425249
s(S'coached'
p28
S'by'
p29
tp30
F0.009966777408637873
s(S'[[mod]]'
p31
S'work'
p32
tp33
F0.006644518272425249
s(S'coached'
p34
S'before'
p35
tp36
F0.0033222591362126247
s(S'work'
p37
S'[[con]]'
p38
tp39
F0.016611295681063124
s(S'[[adj]]'
p40
S'work'
p41
tp42
F0.016611295681063124
s(S'of'
p43
S'work'
p44
tp45
F0.0033222591362126247
s(S'trained'
p46
S'for'
p47
tp48
F0.0033222591362126247
s(S'work'
p49
S'while'
p50
tp51
F0.0033222591362126247
s(S'work'
p52
S'for'
p53
tp54
F0.0033222591362126247
s(S'[[prp]]'
p55
S'coach'
p56
tp57
F0.0033222591362126247
s(S'daughter'
p58
S'was'
p59
tp60
F0.0033222591362126247
s(S'[[det]]'
p61
S'daughter'
p62
tp63
F0.036544850498338874
s(S'with'
p64
S'work'
p65
tp66
F0.0033222591362126247
s(S'is'
p67
g28
tp68
F0.0033222591362126247
s(S's'
p69
S'daughter'
p70
tp71
F0.026578073089700997
s(S'for'
p72
S'coach'
p73
tp74
F0.0033222591362126247
s(S'work'
p75
S'under'
p76
tp77
F0.006644518272425249
s(g26
S'of'
p78
tp79
F0.029900332225913623
s(S'to'
p80
S'daughter'
p81
tp82
F0.006644518272425249
s(S'with'
p83
S'daughter'
p84
tp85
F0.0033222591362126247
s(S'as'
p86
S'coach'
p87
tp88
F0.0033222591362126247
s(S'work'
p89
S'in'
p90
tp91
F0.0033222591362126247
s(S'that'
p92
S'work'
p93
tp94
F0.0033222591362126247
s(S'had'
p95
S'trained'
p96
tp97
F0.0033222591362126247
s(S'has'
p98
S'trained'
p99
tp100
F0.009966777408637873
s(S'[[adj]]'
p101
S'friends'
p102
tp103
F0.0033222591362126247
s(S'daughter'
p104
S'by'
p105
tp106
F0.009966777408637873
s(S'[[mod]]'
p107
S'train'
p108
tp109
F0.0033222591362126247
s(S'found'
p110
g52
tp111
F0.013289036544850499
s(S'work'
p112
S'from'
p113
tp114
F0.0033222591362126247
s(S'of'
p115
S'daughter'
p116
tp117
F0.0033222591362126247
s(S'had'
p118
S'coached'
p119
tp120
F0.0033222591362126247
s(S'has'
p121
S'coached'
p122
tp123
F0.006644518272425249
s(S'train'
p124
S'with'
p125
tp126
F0.0033222591362126247
s(S'work'
p127
S'as'
p128
tp129
F0.016611295681063124
s(S'whose'
p130
S'work'
p131
tp132
F0.0033222591362126247
s(S'work'
p133
S'to'
p134
tp135
F0.009966777408637873
s(S'be'
p136
S'trained'
p137
tp138
F0.0033222591362126247
s(S'train'
p139
S'for'
p140
tp141
F0.0033222591362126247
s(S'coach'
p142
S'under'
p143
tp144
F0.006644518272425249
s(S'as'
p145
S'daughter'
p146
tp147
F0.0033222591362126247
s(S'by'
p148
S'work'
p149
tp150
F0.0033222591362126247
s(S'work'
p151
S'on'
p152
tp153
F0.013289036544850499
s(S'daughter'
p154
S'[[pro]]'
p155
tp156
F0.0033222591362126247
s(g69
S'coach'
p157
tp158
F0.0033222591362126247
s(S'coached'
p159
S'[[num]]'
p160
tp161
F0.0033222591362126247
s(S'[[con]]'
p162
S'work'
p163
tp164
F0.009966777408637873
s(S'work'
p165
S'[[det]]'
p166
tp167
F0.0033222591362126247
s(g70
S'[[con]]'
p168
tp169
F0.019933554817275746
s(S'trained'
p170
S'[[det]]'
p171
tp172
F0.0033222591362126247
s(g102
S'with'
p173
tp174
F0.0033222591362126247
s(S'where'
p175
S'trained'
p176
tp177
F0.0033222591362126247
s(S'[[det]]'
p178
S'coach'
p179
tp180
F0.0033222591362126247
s(S'work'
p181
S'again'
p182
tp183
F0.0033222591362126247
s(g62
S'[[num]]'
p184
tp185
F0.006644518272425249
s(S'by'
p186
S'coach'
p187
tp188
F0.0033222591362126247
s(g99
S'with'
p189
tp190
F0.013289036544850499
s(S'coach'
p191
S'to'
p192
tp193
F0.0033222591362126247
s(S'daughter'
p194
S'who'
p195
tp196
F0.006644518272425249
s(S'[[prp]]'
p197
g58
tp198
F0.019933554817275746
s(S'[[prp]]'
p199
g89
tp200
F0.016611295681063124
s(S'work'
p201
S'with'
p202
tp203
F0.026578073089700997
s(S'with'
p204
S'coach'
p205
tp206
F0.0033222591362126247
s(S'daughter'
p207
S'in'
p208
tp209
F0.0033222591362126247
s(S'work'
p210
S'among'
p211
tp212
F0.0033222591362126247
s(S'work'
p213
S'together'
p214
tp215
F0.0033222591362126247
s(g173
S'[[adj]]'
p216
tp217
F0.0033222591362126247
s(S'daughter'
p218
S'[[adj]]'
p219
tp220
F0.013289036544850499
s(S'[[con]]'
p221
S'daughter'
p222
tp223
F0.006644518272425249
s(S'to'
p224
g124
tp225
F0.016611295681063124
s(S'trained'
p226
S'under'
p227
tp228
F0.016611295681063124
s(S'work'
p229
S'[[num]]'
p230
tp231
F0.0033222591362126247
s(S'of'
p232
S'coach'
p233
tp234
F0.0033222591362126247
s(S'at'
p235
S'work'
p236
tp237
F0.0033222591362126247
s(S'[[adj]]'
p238
g4
tp239
F0.016611295681063124
s(S'is'
p240
g13
tp241
F0.0033222591362126247
s(S'daughter'
p242
S'[[det]]'
p243
tp244
F0.013289036544850499
s(S'in'
p245
S'work'
p246
tp247
F0.0033222591362126247
s(S'paired'
p248
S'with'
p249
tp250
F0.009966777408637873
s(S'for'
p251
S'work'
p252
tp253
F0.0033222591362126247
s(S'[[con]]'
p254
S'trained'
p255
tp256
F0.0033222591362126247
s(S'[[adj]]'
p257
g242
tp258
F0.019933554817275746
s(S'coach'
p259
S'after'
p260
tp261
F0.0033222591362126247
s(S'train'
p262
S'under'
p263
tp264
F0.0033222591362126247
s(S'daughter'
p265
S'with'
p266
tp267
F0.006644518272425249
s(S'[[det]]'
p268
S'work'
p269
tp270
F0.019933554817275746
s(S'daughter'
p271
S'to'
p272
tp273
F0.013289036544850499
s(S'work'
p274
S'which'
p275
tp276
F0.006644518272425249
s(S'also'
p277
S'trained'
p278
tp279
F0.019933554817275746
s(S'was'
p280
S'daughter'
p281
tp282
F0.006644518272425249
s(S'work'
p283
S'where'
p284
tp285
F0.0033222591362126247
s(g269
S'[[adj]]'
p286
tp287
F0.016611295681063124
s(S'[[pro]]'
p288
S'daughter'
p289
tp290
F0.0033222591362126247
s(g216
S'members'
p291
tp292
F0.0033222591362126247
s(S'train'
p293
S'[[det]]'
p294
tp295
F0.0033222591362126247
s(S'work'
p296
S'after'
p297
tp298
F0.0033222591362126247
s(S'to'
p299
g283
tp300
F0.046511627906976744
s(S'was'
p301
S'trained'
p302
tp303
F0.016611295681063124
s(S'under'
p304
S'coach'
p305
tp306
F0.0033222591362126247
s(S'[[con]]'
p307
S'coached'
p308
tp309
F0.0033222591362126247
s(g69
g274
tp310
F0.019933554817275746
s(S'been'
p311
S'trained'
p312
tp313
F0.0033222591362126247
s(S'trained'
p314
S'[[con]]'
p315
tp316
F0.009966777408637873
s(g41
S'of'
p317
tp318
F0.013289036544850499
s(S'done'
p319
S'work'
p320
tp321
F0.006644518272425249
s(g122
S'[[con]]'
p322
tp323
F0.0033222591362126247
s(S'[[num]]'
p324
S'daughter'
p325
tp326
F0.009966777408637873
s(S'[[num]]'
p327
S'work'
p328
tp329
F0.0033222591362126247
s(S'was'
p330
S'paired'
p331
tp332
F0.009966777408637873
s(S'is'
p333
S'paired'
p334
tp335
F0.006644518272425249
s(S'[[con]]'
p336
S'coach'
p337
tp338
F0.0033222591362126247
s(S'trained'
p339
S'to'
p340
tp341
F0.0033222591362126247
s(g2
S'[[adj]]'
p342
tp343
F0.006644518272425249
s(S'was'
p344
S'coach'
p345
tp346
F0.0033222591362126247
s(g179
S'as'
p347
tp348
F0.0033222591362126247
s(S'train'
p349
S'[[adj]]'
p350
tp351
F0.0033222591362126247
s(S'trained'
p352
S'[[adj]]'
p353
tp354
F0.006644518272425249
s.