(dp0
(S'affiliated'
p1
S'to'
p2
tp3
F0.008064516129032258
s(S'to'
p4
S'affiliate'
p5
tp6
F0.004032258064516129
s(S'dropped'
p7
S'after'
p8
tp9
F0.004032258064516129
s(S'been'
p10
S'sold'
p11
tp12
F0.008064516129032258
s(S'be'
p13
S'picked'
p14
tp15
F0.008064516129032258
s(S'[[prp]]'
p16
S'affiliation'
p17
tp18
F0.012096774193548387
s(S'was'
p19
S'picked'
p20
tp21
F0.020161290322580645
s(S'sold'
p22
S'[[pro]]'
p23
tp24
F0.012096774193548387
s(S'now'
p25
S'owned'
p26
tp27
F0.008064516129032258
s(S'[[con]]'
p28
S'sold'
p29
tp30
F0.004032258064516129
s(S'picked'
p31
S'for'
p32
tp33
F0.012096774193548387
s(S'switched'
p34
S'from'
p35
tp36
F0.008064516129032258
s(S'also'
p37
S'owned'
p38
tp39
F0.004032258064516129
s(S'affiliation'
p40
S'with'
p41
tp42
F0.012096774193548387
s(S'dropped'
p43
S'out'
p44
tp45
F0.012096774193548387
s(S'picked'
p46
S'to'
p47
tp48
F0.004032258064516129
s(S'sold'
p49
S'for'
p50
tp51
F0.008064516129032258
s(S'being'
p52
S'sold'
p53
tp54
F0.008064516129032258
s(S'for'
p55
S'affiliate'
p56
tp57
F0.004032258064516129
s(S'dropped'
p58
S'from'
p59
tp60
F0.008064516129032258
s(S'switched'
p61
g16
tp62
F0.016129032258064516
s(S'[[adj]]'
p63
S'sold'
p64
tp65
F0.008064516129032258
s(S'owned'
p66
S'[[con]]'
p67
tp68
F0.004032258064516129
s(S'from'
p69
S'[[det]]'
p70
tp71
F0.004032258064516129
s(S'been'
p72
S'dropped'
p73
tp74
F0.004032258064516129
s(S'affiliations'
p75
S'with'
p76
tp77
F0.004032258064516129
s(S'[[adj]]'
p78
S'affiliate'
p79
tp80
F0.008064516129032258
s(S'was'
p81
S'dropped'
p82
tp83
F0.024193548387096774
s(S'[[con]]'
p84
S'owned'
p85
tp86
F0.004032258064516129
s(S'had'
p87
S'sold'
p88
tp89
F0.008064516129032258
s(S'sold'
p90
S'in'
p91
tp92
F0.016129032258064516
s(g38
S'by'
p93
tp94
F0.05241935483870968
s(S'affiliated'
p95
S'[[con]]'
p96
tp97
F0.004032258064516129
s(S'[[adj]]'
p98
g75
tp99
F0.004032258064516129
s(S'still'
p100
S'owned'
p101
tp102
F0.004032258064516129
s(S'is'
p103
S'sold'
p104
tp105
F0.008064516129032258
s(S'was'
p106
g49
tp107
F0.036290322580645164
s(g5
S'[[det]]'
p108
tp109
F0.008064516129032258
s(S'are'
p110
S'sold'
p111
tp112
F0.004032258064516129
s(S'currently'
p113
S'owned'
p114
tp115
F0.004032258064516129
s(S'dropped'
p116
S'for'
p117
tp118
F0.008064516129032258
s(S'been'
p119
g1
tp120
F0.012096774193548387
s(S'also'
p121
S'affiliated'
p122
tp123
F0.008064516129032258
s(S'until'
p124
S'sold'
p125
tp126
F0.004032258064516129
s(S'switch'
p127
S'to'
p128
tp129
F0.012096774193548387
s(S'[[det]]'
p130
S'affiliate'
p131
tp132
F0.016129032258064516
s(S'been'
p133
S'owned'
p134
tp135
F0.004032258064516129
s(S'sold'
p136
S'[[con]]'
p137
tp138
F0.004032258064516129
s(S'affiliation'
p139
S'to'
p140
tp141
F0.012096774193548387
s(S'were'
p142
S'sold'
p143
tp144
F0.008064516129032258
s(S'station'
p145
S'programs'
p146
tp147
F0.004032258064516129
s(S'was'
p148
S'owned'
p149
tp150
F0.004032258064516129
s(g104
S'by'
p151
tp152
F0.020161290322580645
s(S'[[mod]]'
p153
g127
tp154
F0.004032258064516129
s(S'[[det]]'
p155
S'switch'
p156
tp157
F0.004032258064516129
s(S'[[det]]'
p158
g40
tp159
F0.004032258064516129
s(S'has'
p160
S'sold'
p161
tp162
F0.004032258064516129
s(S'dropped'
p163
S'down'
p164
tp165
F0.008064516129032258
s(S'with'
p166
S'[[adj]]'
p167
tp168
F0.004032258064516129
s(S'sold'
p169
S'[[adj]]'
p170
tp171
F0.008064516129032258
s(g70
S'time'
p172
tp173
F0.004032258064516129
s(S'dropped'
p174
S'to'
p175
tp176
F0.008064516129032258
s(S'programming'
p177
S'from'
p178
tp179
F0.016129032258064516
s(S'[[prp]]'
p180
S'[[adj]]'
p181
tp182
F0.004032258064516129
s(S'then'
p183
g22
tp184
F0.008064516129032258
s(S'sold'
p185
S'[[det]]'
p186
tp187
F0.008064516129032258
s(S'also'
p188
S'carried'
p189
tp190
F0.004032258064516129
s(S'dropped'
p191
S'[[con]]'
p192
tp193
F0.004032258064516129
s(g189
g98
tp194
F0.004032258064516129
s(S'dropped'
p195
S'in'
p196
tp197
F0.004032258064516129
s(S'[[adj]]'
p198
S'programming'
p199
tp200
F0.004032258064516129
s(g181
g139
tp201
F0.012096774193548387
s(S'switched'
p202
S'to'
p203
tp204
F0.016129032258064516
s(S'picked'
p205
S'[[det]]'
p206
tp207
F0.004032258064516129
s(g167
S'networks'
p208
tp209
F0.004032258064516129
s(S'[[det]]'
p210
g145
tp211
F0.004032258064516129
s(S'had'
p212
S'dropped'
p213
tp214
F0.004032258064516129
s(S's'
p215
g177
tp216
F0.004032258064516129
s(S'sold'
p217
S'to'
p218
tp219
F0.04435483870967742
s(S'being'
p220
S'picked'
p221
tp222
F0.004032258064516129
s(g146
S'from'
p223
tp224
F0.004032258064516129
s(S'not'
p225
S'owned'
p226
tp227
F0.004032258064516129
s(S'are'
p228
S'owned'
p229
tp230
F0.004032258064516129
s(g88
S'[[prp]]'
p231
tp232
F0.004032258064516129
s(S'sold'
p233
S'most'
p234
tp235
F0.004032258064516129
s(S'then'
p236
g43
tp237
F0.012096774193548387
s(S'sold'
p238
S'back'
p239
tp240
F0.004032258064516129
s(S'dropped'
p241
S'[[num]]'
p242
tp243
F0.004032258064516129
s(S'[[det]]'
p244
S'dropped'
p245
tp246
F0.004032258064516129
s(S'picked'
p247
S'by'
p248
tp249
F0.012096774193548387
s(S'owned'
p250
S'[[num]]'
p251
tp252
F0.004032258064516129
s(S'then'
p253
S'picked'
p254
tp255
F0.004032258064516129
s(S'also'
p256
g169
tp257
F0.012096774193548387
s(S'[[det]]'
p258
S'sold'
p259
tp260
F0.004032258064516129
s(g73
S'by'
p261
tp262
F0.004032258064516129
s(S'affiliate'
p263
S'of'
p264
tp265
F0.016129032258064516
s(g79
S'for'
p266
tp267
F0.008064516129032258
s(S'then'
p268
g202
tp269
F0.004032258064516129
s(S'be'
p270
g90
tp271
F0.012096774193548387
s(S'formerly'
p272
S'owned'
p273
tp274
F0.004032258064516129
s(S'sold'
p275
S'more'
p276
tp277
F0.004032258064516129
s(S'later'
p278
S'sold'
p279
tp280
F0.004032258064516129
s(S'[[con]]'
p281
S'picked'
p282
tp283
F0.004032258064516129
s(S'[[det]]'
p284
S'charter'
p285
tp286
F0.004032258064516129
s(S'became'
p287
S'affiliated'
p288
tp289
F0.008064516129032258
s(S'was'
p290
g95
tp291
F0.020161290322580645
s(S'[[con]]'
p292
S'switched'
p293
tp294
F0.004032258064516129
s(g288
S'with'
p295
tp296
F0.024193548387096774
s(S'to'
p297
S'switch'
p298
tp299
F0.004032258064516129
s(g143
S'off'
p300
tp301
F0.008064516129032258
s(S'picked'
p302
S'up'
p303
tp304
F0.020161290322580645
s(S'had'
p305
g34
tp306
F0.012096774193548387
s(g285
S'affiliate'
p307
tp308
F0.004032258064516129
s(S'is'
p309
S'owned'
p310
tp311
F0.016129032258064516
s(S'also'
p312
g302
tp313
F0.008064516129032258
s(S'[[det]]'
p314
S'owned'
p315
tp316
F0.008064516129032258
s(S'sold'
p317
S'on'
p318
tp319
F0.004032258064516129
s.