(dp0
(S'play'
p1
S'[[det]]'
p2
tp3
F0.037037037037037035
s(S'play'
p4
S'of'
p5
tp6
F0.012345679012345678
s(S'who'
p7
S'play'
p8
tp9
F0.012345679012345678
s(S'also'
p10
S'play'
p11
tp12
F0.06172839506172839
s(S'[[det]]'
p13
S'play'
p14
tp15
F0.012345679012345678
s(S'[[con]]'
p16
S'play'
p17
tp18
F0.012345679012345678
s(S'play'
p19
S'from'
p20
tp21
F0.012345679012345678
s(S'play'
p22
S'until'
p23
tp24
F0.012345679012345678
s(S'later'
p25
S'play'
p26
tp27
F0.024691358024691357
s(S'play'
p28
S'again'
p29
tp30
F0.024691358024691357
s(S'play'
p31
S'[[con]]'
p32
tp33
F0.024691358024691357
s(S'play'
p34
S'when'
p35
tp36
F0.012345679012345678
s(S'play'
p37
S'against'
p38
tp39
F0.04938271604938271
s(S'play'
p40
S'as'
p41
tp42
F0.012345679012345678
s(S'[[mod]]'
p43
S'play'
p44
tp45
F0.1111111111111111
s(S'not'
p46
S'play'
p47
tp48
F0.012345679012345678
s(S'[[adj]]'
p49
S'play'
p50
tp51
F0.037037037037037035
s(S'to'
p52
g28
tp53
F0.1728395061728395
s(g17
S'for'
p54
tp55
F0.1111111111111111
s(g50
S'with'
p56
tp57
F0.06172839506172839
s(S'ever'
p58
S'play'
p59
tp60
F0.024691358024691357
s(g44
S'[[num]]'
p61
tp62
F0.024691358024691357
s(g11
S'in'
p63
tp64
F0.08641975308641975
s(S'play'
p65
S'during'
p66
tp67
F0.012345679012345678
s(S'play'
p68
S'at'
p69
tp70
F0.012345679012345678
s(S'play'
p71
S'to'
p72
tp73
F0.012345679012345678
s.