(dp0
(S'[[mod]]'
p1
S'train'
p2
tp3
F0.09090909090909091
s(S'to'
p4
S'train'
p5
tp6
F0.45454545454545453
s(S'train'
p7
S'[[det]]'
p8
tp9
F0.09090909090909091
s(S'train'
p10
S'for'
p11
tp12
F0.09090909090909091
s(S'train'
p13
S'under'
p14
tp15
F0.09090909090909091
s(S'train'
p16
S'[[adj]]'
p17
tp18
F0.09090909090909091
s(g5
S'with'
p19
tp20
F0.09090909090909091
s.