(dp0
(S'competed'
p1
S'together'
p2
tp3
F0.008
s(S'had'
p4
S'competed'
p5
tp6
F0.008
s(S'again'
p7
S'teamed'
p8
tp9
F0.016
s(S'competed'
p10
S'[[adj]]'
p11
tp12
F0.008
s(S'has'
p13
S'competed'
p14
tp15
F0.008
s(S'time'
p16
S'with'
p17
tp18
F0.04
s(S'competed'
p19
S'where'
p20
tp21
F0.016
s(S'time'
p22
S'[[con]]'
p23
tp24
F0.032
s(S'later'
p25
S'teamed'
p26
tp27
F0.016
s(S'time'
p28
S'under'
p29
tp30
F0.008
s(S'more'
p31
S'time'
p32
tp33
F0.016
s(S'which'
p34
S'time'
p35
tp36
F0.008
s(S'that'
p37
S'time'
p38
tp39
F0.008
s(S'then'
p40
S'teamed'
p41
tp42
F0.016
s(S'time'
p43
S'[[det]]'
p44
tp45
F0.024
s(S'time'
p46
S'was'
p47
tp48
F0.008
s(S'competed'
p49
S'with'
p50
tp51
F0.056
s(S'previously'
p52
S'competed'
p53
tp54
F0.008
s(S'was'
p55
S'teamed'
p56
tp57
F0.024
s(S'[[num]]'
p58
S'time'
p59
tp60
F0.032
s(S'time'
p61
S'[[adj]]'
p62
tp63
F0.016
s(S'time'
p64
S'as'
p65
tp66
F0.032
s(S'with'
p67
S'partner'
p68
tp69
F0.008
s(S'time'
p70
S'behind'
p71
tp72
F0.008
s(S'teamed'
p73
S'[[con]]'
p74
tp75
F0.008
s(S'[[con]]'
p76
S'teamed'
p77
tp78
F0.024
s(S'[[con]]'
p79
S'time'
p80
tp81
F0.008
s(S'[[con]]'
p82
S'competed'
p83
tp84
F0.008
s(S'time'
p85
S'on'
p86
tp87
F0.008
s(S'time'
p88
S'when'
p89
tp90
F0.008
s(S'[[prp]]'
p91
S'time'
p92
tp93
F0.016
s(S'[[adj]]'
p94
S'time'
p95
tp96
F0.08
s(S's'
p97
g64
tp98
F0.008
s(S'then'
p99
g49
tp100
F0.016
s(g8
S'up'
p101
tp102
F0.064
s(S'time'
p103
S'to'
p104
tp105
F0.016
s(S'competed'
p106
S'against'
p107
tp108
F0.024
s(S'competed'
p109
S'[[con]]'
p110
tp111
F0.008
s(S'where'
p112
S'teamed'
p113
tp114
F0.008
s(S'time'
p115
S'of'
p116
tp117
F0.016
s(S'also'
p118
g19
tp119
F0.032
s(S'also'
p120
S'teamed'
p121
tp122
F0.024
s(g77
S'with'
p123
tp124
F0.072
s(S'time'
p125
S'for'
p126
tp127
F0.016
s(S'[[det]]'
p128
g61
tp129
F0.088
s(S'teamed'
p130
S'to'
p131
tp132
F0.008
s(S'has'
p133
S'teamed'
p134
tp135
F0.016
s.