(dp0
(S'replaced'
p1
S'[[con]]'
p2
tp3
F0.015873015873015872
s(S'formed'
p4
S'[[num]]'
p5
tp6
F0.005291005291005291
s(S'formed'
p7
S'[[con]]'
p8
tp9
F0.015873015873015872
s(S'lead'
p10
S'singer'
p11
tp12
F0.015873015873015872
s(S's'
p13
S'drummer'
p14
tp15
F0.005291005291005291
s(S'soon'
p16
S'replaced'
p17
tp18
F0.010582010582010581
s(S'then'
p19
S'formed'
p20
tp21
F0.010582010582010581
s(S'has'
p22
S'replaced'
p23
tp24
F0.005291005291005291
s(S'year'
p25
S'with'
p26
tp27
F0.005291005291005291
s(S'[[adj]]'
p28
S'lead'
p29
tp30
F0.005291005291005291
s(S'noticed'
p31
S'that'
p32
tp33
F0.005291005291005291
s(S'consisted'
p34
S'of'
p35
tp36
F0.005291005291005291
s(S'[[adj]]'
p37
S'duo'
p38
tp39
F0.005291005291005291
s(g20
S'in'
p40
tp41
F0.005291005291005291
s(S'had'
p42
S'replaced'
p43
tp44
F0.021164021164021163
s(S'indie'
p45
S'rock'
p46
tp47
F0.005291005291005291
s(S'founded'
p48
S'by'
p49
tp50
F0.010582010582010581
s(S'[[con]]'
p51
g1
tp52
F0.031746031746031744
s(S'that'
p53
S'replaced'
p54
tp55
F0.005291005291005291
s(S'where'
p56
S'formed'
p57
tp58
F0.005291005291005291
s(S'also'
p59
S'formed'
p60
tp61
F0.015873015873015872
s(S'replaced'
p62
S'who'
p63
tp64
F0.005291005291005291
s(S'tours'
p65
S'[[det]]'
p66
tp67
F0.005291005291005291
s(S'[[det]]'
p68
S'rock'
p69
tp70
F0.005291005291005291
s(S'[[det]]'
p71
g45
tp72
F0.005291005291005291
s(S'noticed'
p73
S'[[det]]'
p74
tp75
F0.005291005291005291
s(S'noticed'
p76
S'by'
p77
tp78
F0.010582010582010581
s(S'by'
p79
S'singer'
p80
tp81
F0.005291005291005291
s(S'consisted'
p82
S'[[con]]'
p83
tp84
F0.005291005291005291
s(S'were'
p85
g7
tp86
F0.021164021164021163
s(S'replaced'
p87
S'while'
p88
tp89
F0.010582010582010581
s(S'was'
p90
S'formed'
p91
tp92
F0.015873015873015872
s(S'performed'
p93
S'with'
p94
tp95
F0.005291005291005291
s(S'where'
p96
S'performed'
p97
tp98
F0.005291005291005291
s(S'was'
p99
S'replaced'
p100
tp101
F0.047619047619047616
s(S'is'
p102
S'replaced'
p103
tp104
F0.015873015873015872
s(S'when'
p105
g93
tp106
F0.005291005291005291
s(S'which'
p107
S'replaced'
p108
tp109
F0.010582010582010581
s(S'when'
p110
S'replaced'
p111
tp112
F0.005291005291005291
s(S'replaced'
p113
S'[[adj]]'
p114
tp115
F0.010582010582010581
s(g13
S'lead'
p116
tp117
F0.005291005291005291
s(S'later'
p118
S'replaced'
p119
tp120
F0.021164021164021163
s(S'be'
p121
S'replaced'
p122
tp123
F0.015873015873015872
s(g91
S'with'
p124
tp125
F0.037037037037037035
s(S'being'
p126
S'replaced'
p127
tp128
F0.010582010582010581
s(S'who'
p129
S'replaced'
p130
tp131
F0.005291005291005291
s(S'formed'
p132
S'at'
p133
tp134
F0.005291005291005291
s(S'[[det]]'
p135
S'duo'
p136
tp137
F0.005291005291005291
s(S'song'
p138
S'by'
p139
tp140
F0.005291005291005291
s(S'were'
p141
S'replaced'
p142
tp143
F0.010582010582010581
s(S'[[con]]'
p144
S'formed'
p145
tp146
F0.010582010582010581
s(S'band'
p147
S'formed'
p148
tp149
F0.010582010582010581
s(S'was'
p150
g76
tp151
F0.005291005291005291
s(S'had'
p152
S'formed'
p153
tp154
F0.005291005291005291
s(S'[[det]]'
p155
g138
tp156
F0.005291005291005291
s(S'recorded'
p157
g155
tp158
F0.005291005291005291
s(S'that'
p159
S'performed'
p160
tp161
F0.005291005291005291
s(g46
g147
tp162
F0.010582010582010581
s(S'formed'
p163
S'along'
p164
tp165
F0.005291005291005291
s(S'replaced'
p166
S'after'
p167
tp168
F0.010582010582010581
s(S'replaced'
p169
S'[[prp]]'
p170
tp171
F0.005291005291005291
s(S'replaced'
p172
S'when'
p173
tp174
F0.005291005291005291
s(S'group'
p175
g48
tp176
F0.005291005291005291
s(S'where'
p177
S'replaced'
p178
tp179
F0.005291005291005291
s(S'bandmates'
p180
S'[[con]]'
p181
tp182
F0.005291005291005291
s(S'[[adj]]'
p183
g175
tp184
F0.005291005291005291
s(S'then'
p185
S'replaced'
p186
tp187
F0.021164021164021163
s(S'been'
p188
S'replaced'
p189
tp190
F0.005291005291005291
s(S'formed'
p191
S'after'
p192
tp193
F0.005291005291005291
s(S'[[adj]]'
p194
S'replaced'
p195
tp196
F0.005291005291005291
s(S'[[con]]'
p197
S'guitarist'
p198
tp199
F0.005291005291005291
s(S'also'
p200
S'replaced'
p201
tp202
F0.015873015873015872
s(g142
S'with'
p203
tp204
F0.042328042328042326
s(S'have'
p205
g132
tp206
F0.005291005291005291
s(g103
S'as'
p207
tp208
F0.037037037037037035
s(g17
S'by'
p209
tp210
F0.06878306878306878
s(g108
S'[[det]]'
p211
tp212
F0.015873015873015872
s(S'when'
p213
S'formed'
p214
tp215
F0.005291005291005291
s(g100
S'in'
p216
tp217
F0.010582010582010581
s(S'is'
p218
S'formed'
p219
tp220
F0.010582010582010581
s(S'replaced'
p221
S'[[pro]]'
p222
tp223
F0.015873015873015872
s(g66
g25
tp224
F0.005291005291005291
s(g80
g197
tp225
F0.005291005291005291
s(S'[[det]]'
p226
S'replaced'
p227
tp228
F0.005291005291005291
s(S'drummer'
p229
S'[[con]]'
p230
tp231
F0.005291005291005291
s(S'band'
p232
S'founded'
p233
tp234
F0.005291005291005291
s(g136
S'of'
p235
tp236
F0.010582010582010581
s(S'with'
p237
S'formed'
p238
tp239
F0.005291005291005291
s(S'[[pro]]'
p240
S'replaced'
p241
tp242
F0.005291005291005291
s(g219
S'by'
p243
tp244
F0.037037037037037035
s(S'replaced'
p245
S'from'
p246
tp247
F0.005291005291005291
s.