(dp0
(S'headquartered'
p1
S'at'
p2
tp3
F0.019230769230769232
s(S'assigned'
p4
S'to'
p5
tp6
F0.038461538461538464
s(S's'
p7
S'headquarters'
p8
tp9
F0.01282051282051282
s(S'headquarters'
p10
S'[[con]]'
p11
tp12
F0.00641025641025641
s(S'to'
p13
S'stationed'
p14
tp15
F0.00641025641025641
s(S'while'
p16
S'moved'
p17
tp18
F0.00641025641025641
s(S'to'
p19
S'[[num]]'
p20
tp21
F0.00641025641025641
s(S'assigned'
p22
S'[[con]]'
p23
tp24
F0.01282051282051282
s(S'[[con]]'
p25
S'headquartered'
p26
tp27
F0.00641025641025641
s(S'based'
p28
S'[[con]]'
p29
tp30
F0.00641025641025641
s(S'[[det]]'
p31
S'based'
p32
tp33
F0.00641025641025641
s(S'stationed'
p34
S'in'
p35
tp36
F0.019230769230769232
s(S'based'
p37
S'at'
p38
tp39
F0.07051282051282051
s(S'located'
p40
S'within'
p41
tp42
F0.00641025641025641
s(S'[[det]]'
p43
S'stationed'
p44
tp45
F0.01282051282051282
s(S'with'
p46
S'headquarters'
p47
tp48
F0.00641025641025641
s(S'was'
p49
S'located'
p50
tp51
F0.00641025641025641
s(S'to'
p52
S'being'
p53
tp54
F0.00641025641025641
s(S'[[num]]'
p55
S'based'
p56
tp57
F0.00641025641025641
s(S'was'
p58
S'activated'
p59
tp60
F0.00641025641025641
s(S'is'
p61
S'located'
p62
tp63
F0.00641025641025641
s(S'based'
p64
S'around'
p65
tp66
F0.00641025641025641
s(g5
S'[[adj]]'
p67
tp68
F0.01282051282051282
s(S'had'
p69
S'moved'
p70
tp71
F0.00641025641025641
s(S'[[adj]]'
p72
g4
tp73
F0.04487179487179487
s(S'reactivated'
p74
S'at'
p75
tp76
F0.01282051282051282
s(S'located'
p77
S'at'
p78
tp79
F0.02564102564102564
s(S'moved'
p80
S'into'
p81
tp82
F0.00641025641025641
s(g23
S'stationed'
p83
tp84
F0.01282051282051282
s(S'headquartered'
p85
S'with'
p86
tp87
F0.00641025641025641
s(S'currently'
p88
S'headquartered'
p89
tp90
F0.00641025641025641
s(S'also'
p91
S'located'
p92
tp93
F0.00641025641025641
s(S'were'
p94
S'based'
p95
tp96
F0.00641025641025641
s(S'assigned'
p97
S'stationed'
p98
tp99
F0.00641025641025641
s(S'been'
p100
S'located'
p101
tp102
F0.00641025641025641
s(S'was'
p103
S'based'
p104
tp105
F0.01282051282051282
s(S'currently'
p106
S'based'
p107
tp108
F0.00641025641025641
s(g50
S'[[adj]]'
p109
tp110
F0.00641025641025641
s(S'been'
p111
S'based'
p112
tp113
F0.00641025641025641
s(S'is'
p114
S'stationed'
p115
tp116
F0.01282051282051282
s(S'[[prp]]'
p117
S'headquarters'
p118
tp119
F0.019230769230769232
s(S'stationed'
p120
S'at'
p121
tp122
F0.08974358974358974
s(g92
S'on'
p123
tp124
F0.01282051282051282
s(S'bases'
p125
S'at'
p126
tp127
F0.00641025641025641
s(S'[[adj]]'
p128
S'stationed'
p129
tp130
F0.019230769230769232
s(S'based'
p131
S'in'
p132
tp133
F0.00641025641025641
s(S'moved'
p134
S'to'
p135
tp136
F0.01282051282051282
s(g7
g77
tp137
F0.019230769230769232
s(S'located'
p138
S'in'
p139
tp140
F0.00641025641025641
s(S'[[con]]'
p141
S'activated'
p142
tp143
F0.00641025641025641
s(S'[[det]]'
p144
g40
tp145
F0.00641025641025641
s(g62
S'by'
p146
tp147
F0.00641025641025641
s(g142
S'at'
p148
tp149
F0.019230769230769232
s(S'headquartered'
p150
S'in'
p151
tp152
F0.03205128205128205
s(S'based'
p153
S'[[adj]]'
p154
tp155
F0.00641025641025641
s(S'[[con]]'
p156
S'based'
p157
tp158
F0.00641025641025641
s(S'was'
p159
g74
tp160
F0.00641025641025641
s(g70
S'at'
p161
tp162
F0.00641025641025641
s(S'was'
p163
S'moved'
p164
tp165
F0.00641025641025641
s(S'is'
p166
g64
tp167
F0.02564102564102564
s(S'to'
p168
S'[[det]]'
p169
tp170
F0.00641025641025641
s(S'been'
p171
g134
tp172
F0.00641025641025641
s(S'is'
p173
S'assigned'
p174
tp175
F0.019230769230769232
s(S'assigned'
p176
S'being'
p177
tp178
F0.00641025641025641
s(S'[[adj]]'
p179
S'headquarters'
p180
tp181
F0.00641025641025641
s(S'is'
p182
g85
tp183
F0.02564102564102564
s(S'[[adj]]'
p184
S'located'
p185
tp186
F0.00641025641025641
s(S'are'
p187
g131
tp188
F0.01282051282051282
s(S'located'
p189
S'along'
p190
tp191
F0.00641025641025641
s(S'[[adj]]'
p192
g37
tp193
F0.00641025641025641
s(g177
S'stationed'
p194
tp195
F0.019230769230769232
s(S'headquartered'
p196
S'[[con]]'
p197
tp198
F0.00641025641025641
s(S'was'
p199
S'headquartered'
p200
tp201
F0.02564102564102564
s(S'headquarters'
p202
S'at'
p203
tp204
F0.02564102564102564
s(g20
S'stationed'
p205
tp206
F0.00641025641025641
s(g164
S'[[con]]'
p207
tp208
F0.00641025641025641
s.