(dp0
(S'served'
p1
S'while'
p2
tp3
F0.0025974025974025974
s(S'case'
p4
S'involving'
p5
tp6
F0.0025974025974025974
s(S'appointed'
p7
S'first'
p8
tp9
F0.0025974025974025974
s(S'when'
p10
S'served'
p11
tp12
F0.005194805194805195
s(S'[[pro]]'
p13
S'meet'
p14
tp15
F0.0025974025974025974
s(S'who'
p16
S'served'
p17
tp18
F0.007792207792207792
s(S'served'
p19
S'under'
p20
tp21
F0.025974025974025976
s(S'appointed'
p22
S'was'
p23
tp24
F0.0025974025974025974
s(S'succeed'
p25
S'[[det]]'
p26
tp27
F0.0025974025974025974
s(S'served'
p28
S'as'
p29
tp30
F0.05454545454545454
s(S'resignation'
p31
S'of'
p32
tp33
F0.0025974025974025974
s(S'meet'
p34
S'[[adj]]'
p35
tp36
F0.005194805194805195
s(S'appointed'
p37
S'under'
p38
tp39
F0.0025974025974025974
s(S'served'
p40
S'then'
p41
tp42
F0.0025974025974025974
s(S'when'
p43
S'appointed'
p44
tp45
F0.0025974025974025974
s(S'[[con]]'
p46
S'meet'
p47
tp48
F0.0025974025974025974
s(S'disagreed'
p49
S'with'
p50
tp51
F0.0025974025974025974
s(S'served'
p52
S'first'
p53
tp54
F0.0025974025974025974
s(S'formerly'
p55
S'served'
p56
tp57
F0.0025974025974025974
s(S'appointed'
p58
S'in'
p59
tp60
F0.005194805194805195
s(S'served'
p61
S'on'
p62
tp63
F0.005194805194805195
s(S'appointed'
p64
S'[[prp]]'
p65
tp66
F0.005194805194805195
s(S'[[con]]'
p67
S'served'
p68
tp69
F0.02077922077922078
s(S'appointed'
p70
S'where'
p71
tp72
F0.005194805194805195
s(S'served'
p73
S'also'
p74
tp75
F0.0025974025974025974
s(S'also'
p76
S'appointed'
p77
tp78
F0.015584415584415584
s(S'[[det]]'
p79
g4
tp80
F0.0025974025974025974
s(S'succeed'
p81
S'[[con]]'
p82
tp83
F0.0025974025974025974
s(S'meet'
p84
S'[[con]]'
p85
tp86
F0.005194805194805195
s(S'appeal'
p87
g79
tp88
F0.0025974025974025974
s(S'drawn'
p89
S'[[con]]'
p90
tp91
F0.0025974025974025974
s(S'then'
p92
S'served'
p93
tp94
F0.01818181818181818
s(S'served'
p95
S'when'
p96
tp97
F0.007792207792207792
s(S'appointed'
p98
S'[[con]]'
p99
tp100
F0.02077922077922078
s(S'also'
p101
S'served'
p102
tp103
F0.03116883116883117
s(S'that'
p104
S'appointed'
p105
tp106
F0.0025974025974025974
s(S'of'
p107
S'served'
p108
tp109
F0.0025974025974025974
s(S'to'
p110
g25
tp111
F0.015584415584415584
s(S'succeed'
p112
S'in'
p113
tp114
F0.005194805194805195
s(S'is'
p115
S'appointed'
p116
tp117
F0.01818181818181818
s(S'[[mod]]'
p118
g34
tp119
F0.01038961038961039
s(S'challenge'
p120
S'to'
p121
tp122
F0.0025974025974025974
s(S'following'
p123
S'[[det]]'
p124
tp125
F0.0025974025974025974
s(S'served'
p126
S'[[prp]]'
p127
tp128
F0.0025974025974025974
s(S'which'
p129
S'served'
p130
tp131
F0.0025974025974025974
s(S'appointed'
p132
S'[[num]]'
p133
tp134
F0.0025974025974025974
s(S'served'
p135
S'along'
p136
tp137
F0.005194805194805195
s(S'succeed'
p138
S'as'
p139
tp140
F0.007792207792207792
s(S'appointed'
p141
S'by'
p142
tp143
F0.03636363636363636
s(S'was'
p144
S'appointed'
p145
tp146
F0.03636363636363636
s(S'appointed'
p147
S'before'
p148
tp149
F0.0025974025974025974
s(g90
S'signed'
p150
tp151
F0.0025974025974025974
s(S'being'
p152
S'appointed'
p153
tp154
F0.012987012987012988
s(S'[[det]]'
p155
g87
tp156
F0.0025974025974025974
s(S'first'
p157
S'served'
p158
tp159
F0.007792207792207792
s(S'again'
p160
S'appointed'
p161
tp162
F0.007792207792207792
s(S'[[det]]'
p163
S'served'
p164
tp165
F0.0025974025974025974
s(S'served'
p166
S'with'
p167
tp168
F0.005194805194805195
s(S'[[mod]]'
p169
S'succeed'
p170
tp171
F0.007792207792207792
s(S'appointed'
p172
S'with'
p173
tp174
F0.005194805194805195
s(S'later'
p175
S'appointed'
p176
tp177
F0.015584415584415584
s(g170
S'[[pro]]'
p178
tp179
F0.007792207792207792
s(g102
S'against'
p180
tp181
F0.005194805194805195
s(S'whom'
p182
S'served'
p183
tp184
F0.0025974025974025974
s(S'[[pro]]'
p185
S'served'
p186
tp187
F0.0025974025974025974
s(S'be'
p188
S'appointed'
p189
tp190
F0.015584415584415584
s(S'instead'
p191
S'appointed'
p192
tp193
F0.005194805194805195
s(S'appointed'
p194
S'[[det]]'
p195
tp196
F0.03116883116883117
s(g5
S'[[det]]'
p197
tp198
F0.0025974025974025974
s(S'again'
p199
S'served'
p200
tp201
F0.005194805194805195
s(S'served'
p202
S'from'
p203
tp204
F0.0025974025974025974
s(S'has'
p205
g28
tp206
F0.01818181818181818
s(S'appointed'
p207
S'[[adj]]'
p208
tp209
F0.007792207792207792
s(S'meet'
p210
S'up'
p211
tp212
F0.005194805194805195
s(S'served'
p213
S'[[adj]]'
p214
tp215
F0.0025974025974025974
s(S'to'
p216
S'meet'
p217
tp218
F0.01818181818181818
s(S'meet'
p219
S'[[det]]'
p220
tp221
F0.005194805194805195
s(g197
S'[[adj]]'
p222
tp223
F0.0025974025974025974
s(S'served'
p224
S'until'
p225
tp226
F0.005194805194805195
s(S'have'
p227
S'served'
p228
tp229
F0.01038961038961039
s(S'served'
p230
S'by'
p231
tp232
F0.005194805194805195
s(S'[[con]]'
p233
S'appointed'
p234
tp235
F0.01038961038961039
s(g145
S'after'
p236
tp237
F0.005194805194805195
s(S'not'
p238
g219
tp239
F0.0025974025974025974
s(g93
S'[[num]]'
p240
tp241
F0.01038961038961039
s(g121
g89
tp242
F0.0025974025974025974
s(g217
S'[[pro]]'
p243
tp244
F0.0025974025974025974
s(g68
S'to'
p245
tp246
F0.015584415584415584
s(S'served'
p247
S'after'
p248
tp249
F0.005194805194805195
s(g234
S'as'
p250
tp251
F0.033766233766233764
s(S'served'
p252
S'before'
p253
tp254
F0.005194805194805195
s(S'served'
p255
S'for'
p256
tp257
F0.0025974025974025974
s(S'[[num]]'
p258
S'appointed'
p259
tp260
F0.005194805194805195
s(S'served'
p261
S'again'
p262
tp263
F0.0025974025974025974
s(S'served'
p264
S'becoming'
p265
tp266
F0.0025974025974025974
s(S'had'
p267
g19
tp268
F0.012987012987012988
s(S'appointed'
p269
S'[[pro]]'
p270
tp271
F0.005194805194805195
s(g222
g120
tp272
F0.0025974025974025974
s(S'then'
p273
g98
tp274
F0.015584415584415584
s(S'[[num]]'
p275
g61
tp276
F0.005194805194805195
s(S'[[adj]]'
p277
S'appointed'
p278
tp279
F0.005194805194805195
s(S'served'
p280
S'where'
p281
tp282
F0.007792207792207792
s(S'served'
p283
S'twice'
p284
tp285
F0.007792207792207792
s(S'while'
p286
S'served'
p287
tp288
F0.005194805194805195
s(S'disagreed'
p289
S'[[con]]'
p290
tp291
F0.0025974025974025974
s(g124
g31
tp292
F0.0025974025974025974
s(S'had'
p293
S'appointed'
p294
tp295
F0.012987012987012988
s(S'where'
p296
S'served'
p297
tp298
F0.01038961038961039
s(S'been'
p299
S'appointed'
p300
tp301
F0.01038961038961039
s(S'served'
p302
S'[[con]]'
p303
tp304
F0.015584415584415584
s(S'[[adj]]'
p305
g255
tp306
F0.007792207792207792
s(S'drop'
p307
g155
tp308
F0.0025974025974025974
s(S'appointed'
p309
S'when'
p310
tp311
F0.005194805194805195
s(S'twice'
p312
S'served'
p313
tp314
F0.0025974025974025974
s(S'served'
p315
S'was'
p316
tp317
F0.0025974025974025974
s(g294
S'to'
p318
tp319
F0.015584415584415584
s(S'first'
p320
g309
tp321
F0.01038961038961039
s(S'[[det]]'
p322
S'appointed'
p323
tp324
F0.007792207792207792
s(S'appointed'
p325
S'of'
p326
tp327
F0.0025974025974025974
s(S'were'
p328
S'appointed'
p329
tp330
F0.005194805194805195
s(S'who'
p331
S'appointed'
p332
tp333
F0.0025974025974025974
s(S'meet'
p334
S'with'
p335
tp336
F0.007792207792207792
s(S'once'
p337
S'served'
p338
tp339
F0.0025974025974025974
s(S'later'
p340
g302
tp341
F0.012987012987012988
s(S'was'
p342
S'served'
p343
tp344
F0.0025974025974025974
s(g150
S'by'
p345
tp346
F0.0025974025974025974
s(S'served'
p347
S'in'
p348
tp349
F0.0025974025974025974
s.