(dp0
(S'were'
p1
S'based'
p2
tp3
F0.006369426751592357
s(S'holding'
p4
S'home'
p5
tp6
F0.006369426751592357
s(S'from'
p7
S'[[det]]'
p8
tp9
F0.006369426751592357
s(S'[[det]]'
p10
S'association'
p11
tp12
F0.01910828025477707
s(S'games'
p13
S'at'
p14
tp15
F0.050955414012738856
s(S'based'
p16
S'near'
p17
tp18
F0.006369426751592357
s(S'matches'
p19
S'at'
p20
tp21
F0.006369426751592357
s(S'team'
p22
S'[[con]]'
p23
tp24
F0.006369426751592357
s(S'[[num]]'
p25
g4
tp26
F0.006369426751592357
s(S'to'
p27
S'play'
p28
tp29
F0.006369426751592357
s(S'[[prp]]'
p30
S'home'
p31
tp32
F0.050955414012738856
s(S'[[adj]]'
p33
S'football'
p34
tp35
F0.012738853503184714
s(S'football'
p36
S'soccer'
p37
tp38
F0.01910828025477707
s(g5
g13
tp39
F0.050955414012738856
s(S'[[con]]'
p40
S'[[mod]]'
p41
tp42
F0.006369426751592357
s(S'[[det]]'
p43
S'club'
p44
tp45
F0.012738853503184714
s(S'also'
p46
S'based'
p47
tp48
F0.006369426751592357
s(S'site'
p49
S'which'
p50
tp51
F0.006369426751592357
s(S'[[num]]'
p52
S'based'
p53
tp54
F0.006369426751592357
s(S'club'
p55
S'in'
p56
tp57
F0.03821656050955414
s(S'[[det]]'
p58
S'team'
p59
tp60
F0.006369426751592357
s(S'[[det]]'
p61
S'sports'
p62
tp63
F0.006369426751592357
s(S'led'
p64
g40
tp65
F0.006369426751592357
s(S'players'
p66
S'from'
p67
tp68
F0.006369426751592357
s(S'[[adj]]'
p69
S'association'
p70
tp71
F0.006369426751592357
s(S'based'
p72
S'out'
p73
tp74
F0.012738853503184714
s(S'club'
p75
S'from'
p76
tp77
F0.03821656050955414
s(S'team'
p78
S'from'
p79
tp80
F0.012738853503184714
s(S'was'
p81
S'based'
p82
tp83
F0.006369426751592357
s(S'currently'
p84
S'plays'
p85
tp86
F0.006369426751592357
s(S'[[det]]'
p87
S'football'
p88
tp89
F0.044585987261146494
s(S'plays'
p90
g30
tp91
F0.01910828025477707
s(S'[[adj]]'
p92
g49
tp93
F0.006369426751592357
s(S'rules'
p94
S'football'
p95
tp96
F0.006369426751592357
s(S'[[mod]]'
p97
S'play'
p98
tp99
F0.01910828025477707
s(S's'
p100
S'based'
p101
tp102
F0.006369426751592357
s(S'players'
p103
S'at'
p104
tp105
F0.006369426751592357
s(S'based'
p106
S'in'
p107
tp108
F0.10828025477707007
s(g8
S'city'
p109
tp110
F0.006369426751592357
s(g109
S'of'
p111
tp112
F0.006369426751592357
s(g37
S'club'
p113
tp114
F0.025477707006369428
s(g31
g19
tp115
F0.006369426751592357
s(S'be'
p116
g64
tp117
F0.006369426751592357
s(S'[[adj]]'
p118
g22
tp119
F0.012738853503184714
s(S'club'
p120
g106
tp121
F0.044585987261146494
s(S'[[adj]]'
p122
S'club'
p123
tp124
F0.012738853503184714
s(S'is'
p125
S'based'
p126
tp127
F0.025477707006369428
s(S'at'
p128
g92
tp129
F0.006369426751592357
s(g88
g75
tp130
F0.07006369426751592
s(S'in'
p131
g25
tp132
F0.006369426751592357
s(S'plays'
p133
g131
tp134
F0.006369426751592357
s(S'be'
p135
S'based'
p136
tp137
F0.006369426751592357
s(S'[[det]]'
p138
g94
tp139
F0.006369426751592357
s(g11
S'football'
p140
tp141
F0.025477707006369428
s(S'are'
p142
S'based'
p143
tp144
F0.006369426751592357
s(g62
S'club'
p145
tp146
F0.006369426751592357
s(S'[[det]]'
p147
S'soccer'
p148
tp149
F0.006369426751592357
s(S'[[adj]]'
p150
S'based'
p151
tp152
F0.012738853503184714
s(g98
S'[[prp]]'
p153
tp154
F0.03184713375796178
s(S'players'
p155
S'of'
p156
tp157
F0.006369426751592357
s.