(dp0
(S'transferred'
p1
S'[[con]]'
p2
tp3
F0.0033112582781456954
s(S'was'
p4
S'born'
p5
tp6
F0.0016556291390728477
s(S'football'
p7
S'after'
p8
tp9
F0.0016556291390728477
s(S'[[adj]]'
p10
S'games'
p11
tp12
F0.0016556291390728477
s(S'later'
p13
S'attended'
p14
tp15
F0.0033112582781456954
s(S'had'
p16
S'graduated'
p17
tp18
F0.0016556291390728477
s(S'transferred'
p19
S'for'
p20
tp21
F0.0016556291390728477
s(S'transferred'
p22
S'[[det]]'
p23
tp24
F0.0016556291390728477
s(g11
S'with'
p25
tp26
F0.0033112582781456954
s(S'college'
p27
S'for'
p28
tp29
F0.0016556291390728477
s(S'grew'
p30
S'up'
p31
tp32
F0.014900662251655629
s(S'professionally'
p33
S'in'
p34
tp35
F0.004966887417218543
s(S'was'
p36
S'selected'
p37
tp38
F0.004966887417218543
s(S'also'
p39
S'played'
p40
tp41
F0.008278145695364239
s(S'graduated'
p42
S'to'
p43
tp44
F0.0016556291390728477
s(S'then'
p45
S'transferred'
p46
tp47
F0.004966887417218543
s(S'is'
p48
S'transferred'
p49
tp50
F0.0016556291390728477
s(S'[[con]]'
p51
g39
tp52
F0.0016556291390728477
s(S'college'
p53
S'football'
p54
tp55
F0.07947019867549669
s(g8
S'graduating'
p56
tp57
F0.0016556291390728477
s(S'as'
p58
S'[[det]]'
p59
tp60
F0.0033112582781456954
s(S'then'
p61
S'played'
p62
tp63
F0.006622516556291391
s(S'graduated'
p64
S'[[adj]]'
p65
tp66
F0.0016556291390728477
s(S'then'
p67
S'graduated'
p68
tp69
F0.0033112582781456954
s(S'attended'
p70
S'[[con]]'
p71
tp72
F0.013245033112582781
s(S'football'
p73
S'thereafter'
p74
tp75
F0.0016556291390728477
s(S'professionally'
p76
S'for'
p77
tp78
F0.014900662251655629
s(S'school'
p79
S'[[con]]'
p80
tp81
F0.011589403973509934
s(S'later'
p82
S'graduated'
p83
tp84
F0.0033112582781456954
s(S'[[prp]]'
p85
S'college'
p86
tp87
F0.006622516556291391
s(S'transferred'
p88
S'by'
p89
tp90
F0.0016556291390728477
s(S'[[con]]'
p91
S'played'
p92
tp93
F0.029801324503311258
s(S'transferred'
p94
S'after'
p95
tp96
F0.0016556291390728477
s(S'played'
p97
g76
tp98
F0.018211920529801324
s(S'being'
p99
S'transferred'
p100
tp101
F0.0016556291390728477
s(S'soon'
p102
S'transferred'
p103
tp104
F0.0033112582781456954
s(S'when'
p105
S'transferred'
p106
tp107
F0.0016556291390728477
s(S'player'
p108
S'who'
p109
tp110
F0.0016556291390728477
s(S'football'
p111
S'[[det]]'
p112
tp113
F0.0016556291390728477
s(S'[[adj]]'
p114
S'football'
p115
tp116
F0.0016556291390728477
s(S'later'
p117
S'transferred'
p118
tp119
F0.0033112582781456954
s(S'football'
p120
S'in'
p121
tp122
F0.0016556291390728477
s(S'were'
p123
S'transferred'
p124
tp125
F0.0016556291390728477
s(S'before'
p126
S'transferring'
p127
tp128
F0.0033112582781456954
s(S'member'
p129
S'of'
p130
tp131
F0.004966887417218543
s(S'played'
p132
S'for'
p133
tp134
F0.0016556291390728477
s(S'football'
p135
S'with'
p136
tp137
F0.0016556291390728477
s(S'school'
p138
S'in'
p139
tp140
F0.0016556291390728477
s(g54
S'[[con]]'
p141
tp142
F0.0380794701986755
s(S'in'
p143
g114
tp144
F0.0016556291390728477
s(S'who'
p145
S'graduated'
p146
tp147
F0.0033112582781456954
s(S'[[pro]]'
p148
S'graduated'
p149
tp150
F0.0016556291390728477
s(g109
S'played'
p151
tp152
F0.0016556291390728477
s(S'college'
p153
S'basketball'
p154
tp155
F0.019867549668874173
s(S'basketball'
p156
S'[[con]]'
p157
tp158
F0.008278145695364239
s(S'graduated'
p159
S'now'
p160
tp161
F0.0033112582781456954
s(S'school'
p162
S'then'
p163
tp164
F0.0016556291390728477
s(g31
S'[[con]]'
p165
tp166
F0.008278145695364239
s(S'[[det]]'
p167
S'school'
p168
tp169
F0.004966887417218543
s(S'attended'
p170
S'[[det]]'
p171
tp172
F0.016556291390728478
s(S'was'
p173
S'transferred'
p174
tp175
F0.013245033112582781
s(g146
S'at'
p176
tp177
F0.008278145695364239
s(g62
S'in'
p178
tp179
F0.004966887417218543
s(S'up'
p180
S'later'
p181
tp182
F0.0016556291390728477
s(S'later'
p183
S'played'
p184
tp185
F0.0033112582781456954
s(g127
S'to'
p186
tp187
F0.0033112582781456954
s(S'played'
p188
S'[[adj]]'
p189
tp190
F0.018211920529801324
s(S'[[con]]'
p191
g36
tp192
F0.009933774834437087
s(g37
S'[[adj]]'
p193
tp194
F0.0016556291390728477
s(S'transferred'
p195
S'to'
p196
tp197
F0.024834437086092714
s(S'transferred'
p198
S'where'
p199
tp200
F0.0016556291390728477
s(S'[[con]]'
p201
S'has'
p202
tp203
F0.0033112582781456954
s(S'graduated'
p204
S'[[num]]'
p205
tp206
F0.0016556291390728477
s(S'[[con]]'
p207
S'graduated'
p208
tp209
F0.004966887417218543
s(S'[[num]]'
p210
S'transferred'
p211
tp212
F0.0016556291390728477
s(S'[[pro]]'
p213
S'played'
p214
tp215
F0.0016556291390728477
s(S'attended'
p216
S'[[adj]]'
p217
tp218
F0.018211920529801324
s(S'graduated'
p219
S'as'
p220
tp221
F0.0016556291390728477
s(S'school'
p222
S'of'
p223
tp224
F0.0033112582781456954
s(S'graduated'
p225
S'[[det]]'
p226
tp227
F0.0016556291390728477
s(S'basketball'
p228
S'was'
p229
tp230
F0.0016556291390728477
s(S'at'
p231
g61
tp232
F0.0016556291390728477
s(S'up'
p233
S'where'
p234
tp235
F0.004966887417218543
s(g234
S'attended'
p236
tp237
F0.004966887417218543
s(g189
S'school'
p238
tp239
F0.039735099337748346
s(S'[[con]]'
p240
S'basketball'
p241
tp242
F0.0033112582781456954
s(S'[[con]]'
p243
S'professionally'
p244
tp245
F0.0033112582781456954
s(S'was'
p246
S'drafted'
p247
tp248
F0.0033112582781456954
s(S'ndash'
p249
S'[[num]]'
p250
tp251
F0.0016556291390728477
s(S'played'
p252
S'with'
p253
tp254
F0.0016556291390728477
s(S'basketball'
p255
S'in'
p256
tp257
F0.0016556291390728477
s(S'football'
p258
g58
tp259
F0.004966887417218543
s(g229
S'recruited'
p260
tp261
F0.0016556291390728477
s(S'[[con]]'
p262
S'thereafter'
p263
tp264
F0.0033112582781456954
s(g112
g129
tp265
F0.004966887417218543
s(S'[[con]]'
p266
S'then'
p267
tp268
F0.0016556291390728477
s(S'school'
p269
S'football'
p270
tp271
F0.009933774834437087
s(g250
S'[[con]]'
p272
tp273
F0.0016556291390728477
s(S'also'
p274
S'graduated'
p275
tp276
F0.0033112582781456954
s(S'[[con]]'
p277
g249
tp278
F0.0016556291390728477
s(S'[[num]]'
p279
S'graduated'
p280
tp281
F0.0016556291390728477
s(S'[[con]]'
p282
S'transferred'
p283
tp284
F0.0016556291390728477
s(S'[[adj]]'
p285
S'basketball'
p286
tp287
F0.008278145695364239
s(S'played'
p288
g53
tp289
F0.07119205298013245
s(S'attended'
p290
S'school'
p291
tp292
F0.009933774834437087
s(S'football'
p293
g108
tp294
F0.0016556291390728477
s(S'transferred'
p295
S'[[pro]]'
p296
tp297
F0.0016556291390728477
s(S'played'
p298
S'[[num]]'
p299
tp300
F0.0016556291390728477
s(S'graduated'
p301
S'then'
p302
tp303
F0.0016556291390728477
s(S'football'
p304
S'where'
p305
tp306
F0.0016556291390728477
s(g17
S'from'
p307
tp308
F0.02152317880794702
s(S'[[prp]]'
p309
S'[[adj]]'
p310
tp311
F0.0016556291390728477
s(g171
S'[[adj]]'
p312
tp313
F0.006622516556291391
s(S'was'
p314
S'graduated'
p315
tp316
F0.008278145695364239
s(S'[[det]]'
p317
g293
tp318
F0.0033112582781456954
s(S'[[con]]'
p319
S'school'
p320
tp321
F0.0016556291390728477
s(g238
S'basketball'
p322
tp323
F0.0033112582781456954
s(S'was'
p324
S'signed'
p325
tp326
F0.0016556291390728477
s(S'played'
p327
S'football'
p328
tp329
F0.008278145695364239
s(S'[[det]]'
p330
S'quarterback'
p331
tp332
F0.0016556291390728477
s(S'at'
p333
S'professionally'
p334
tp335
F0.0016556291390728477
s(g174
S'back'
p336
tp337
F0.0033112582781456954
s(S'[[con]]'
p338
S'attended'
p339
tp340
F0.009933774834437087
s(g260
S'by'
p341
tp342
F0.0016556291390728477
s(S'football'
p343
g126
tp344
F0.0033112582781456954
s(S'[[adj]]'
p345
S'transferred'
p346
tp347
F0.0016556291390728477
s(S'[[con]]'
p348
g213
tp349
F0.0016556291390728477
s(S'transferred'
p350
S'with'
p351
tp352
F0.0016556291390728477
s(g56
S'from'
p353
tp354
F0.0016556291390728477
s(g59
S'tackle'
p355
tp356
F0.0016556291390728477
s(S'transferred'
p357
S'at'
p358
tp359
F0.0016556291390728477
s(S'then'
p360
S'attended'
p361
tp362
F0.004966887417218543
s(g331
S'at'
p363
tp364
F0.0016556291390728477
s(S'at'
p365
S'[[con]]'
p366
tp367
F0.0016556291390728477
s(S'been'
p368
S'transferred'
p369
tp370
F0.0016556291390728477
s(g202
S'played'
p371
tp372
F0.0033112582781456954
s(g115
S'games'
p373
tp374
F0.0016556291390728477
s(S'football'
p375
g231
tp376
F0.029801324503311258
s(S'college'
p377
S'[[con]]'
p378
tp379
F0.0016556291390728477
s(S'has'
p380
S'graduated'
p381
tp382
F0.0016556291390728477
s(S'be'
p383
g195
tp384
F0.0016556291390728477
s(g322
S'at'
p385
tp386
F0.018211920529801324
s(g299
g10
tp387
F0.0016556291390728477
s(S'also'
p388
S'attended'
p389
tp390
F0.0033112582781456954
s(S'graduated'
p391
S'[[con]]'
p392
tp393
F0.004966887417218543
s(g28
S'[[det]]'
p394
tp395
F0.0016556291390728477
s(S'transferred'
p396
S'into'
p397
tp398
F0.0016556291390728477
s(g315
S'in'
p399
tp400
F0.0016556291390728477
s(S'[[con]]'
p401
S'[[det]]'
p402
tp403
F0.0033112582781456954
s(S'transferred'
p404
S'from'
p405
tp406
F0.004966887417218543
s(S'selected'
p407
S'by'
p408
tp409
F0.0033112582781456954
s(g378
S'[[adj]]'
p410
tp411
F0.0016556291390728477
s(S'previously'
p412
S'played'
p413
tp414
F0.0016556291390728477
s(S'school'
p415
S'from'
p416
tp417
F0.0033112582781456954
s(g247
S'by'
p418
tp419
F0.0033112582781456954
s(S'professionally'
p420
S'[[con]]'
p421
tp422
F0.0016556291390728477
s(S'football'
p423
S'for'
p424
tp425
F0.009933774834437087
s(S'played'
p426
S'basketball'
p427
tp428
F0.011589403973509934
s(S'had'
p429
S'transferred'
p430
tp431
F0.004966887417218543
s(S'school'
p432
S'at'
p433
tp434
F0.011589403973509934
s(g263
g97
tp435
F0.004966887417218543
s(S'played'
p436
g85
tp437
F0.006622516556291391
s(S'basketball'
p438
S'for'
p439
tp440
F0.011589403973509934
s(g5
S'[[con]]'
p441
tp442
F0.0016556291390728477
s(S'transferred'
p443
S'as'
p444
tp445
F0.004966887417218543
s(g325
S'by'
p446
tp447
F0.0016556291390728477
s(S'where'
p448
S'graduated'
p449
tp450
F0.0016556291390728477
s.