(dp0
(S'written'
p1
S'[[con]]'
p2
tp3
F0.05555555555555555
s(S'book'
p4
S's'
p5
tp6
F0.027777777777777776
s(S'illustrations'
p7
S'by'
p8
tp9
F0.027777777777777776
s(S'book'
p10
S'by'
p11
tp12
F0.08333333333333333
s(S'[[det]]'
p13
S'children'
p14
tp15
F0.08333333333333333
s(S'[[adj]]'
p16
S'book'
p17
tp18
F0.05555555555555555
s(S'illustrated'
p19
S'by'
p20
tp21
F0.05555555555555555
s(S'book'
p22
S'written'
p23
tp24
F0.1111111111111111
s(S'[[num]]'
p25
S'children'
p26
tp27
F0.027777777777777776
s(g23
S'by'
p28
tp29
F0.05555555555555555
s(S'picture'
p30
S'book'
p31
tp32
F0.027777777777777776
s(g5
g22
tp33
F0.08333333333333333
s(g5
g30
tp34
F0.027777777777777776
s(g2
g19
tp35
F0.05555555555555555
s(g14
g5
tp36
F0.1111111111111111
s(g17
S'in'
p37
tp38
F0.027777777777777776
s(S'[[num]]'
p39
g10
tp40
F0.027777777777777776
s(S'[[det]]'
p41
g4
tp42
F0.05555555555555555
s.