(dp0
(S'defeated'
p1
S'with'
p2
tp3
F0.023529411764705882
s(S'who'
p4
S'defeated'
p5
tp6
F0.011764705882352941
s(S'defeated'
p7
S'while'
p8
tp9
F0.023529411764705882
s(S'be'
p10
S'defeated'
p11
tp12
F0.011764705882352941
s(S'[[con]]'
p13
S'defeated'
p14
tp15
F0.08235294117647059
s(S'defeated'
p16
S'by'
p17
tp18
F0.11764705882352941
s(S'defeated'
p19
S'[[num]]'
p20
tp21
F0.047058823529411764
s(S'being'
p22
S'defeated'
p23
tp24
F0.011764705882352941
s(S'defeated'
p25
S'[[pro]]'
p26
tp27
F0.011764705882352941
s(S'defeated'
p28
S'before'
p29
tp30
F0.011764705882352941
s(S'defeated'
p31
S'[[prp]]'
p32
tp33
F0.011764705882352941
s(S'[[adj]]'
p34
S'defeated'
p35
tp36
F0.011764705882352941
s(S'defeated'
p37
S'for'
p38
tp39
F0.011764705882352941
s(S'were'
p40
S'defeated'
p41
tp42
F0.011764705882352941
s(S'where'
p43
S'defeated'
p44
tp45
F0.011764705882352941
s(S'defeated'
p46
S'in'
p47
tp48
F0.011764705882352941
s(S'was'
p49
g19
tp50
F0.08235294117647059
s(S'defeated'
p51
S'after'
p52
tp53
F0.023529411764705882
s(S'while'
p54
S'defeated'
p55
tp56
F0.011764705882352941
s(S'has'
p57
S'defeated'
p58
tp59
F0.011764705882352941
s(S'defeated'
p60
S'[[det]]'
p61
tp62
F0.011764705882352941
s(S's'
p63
S'defeated'
p64
tp65
F0.023529411764705882
s(S'again'
p66
S'defeated'
p67
tp68
F0.03529411764705882
s(S'defeated'
p69
S'when'
p70
tp71
F0.011764705882352941
s(S'after'
p72
S'defeated'
p73
tp74
F0.011764705882352941
s(S'been'
p75
S'defeated'
p76
tp77
F0.023529411764705882
s(S'[[pro]]'
p78
S'defeated'
p79
tp80
F0.023529411764705882
s(S'also'
p81
S'defeated'
p82
tp83
F0.023529411764705882
s(S'when'
p84
S'defeated'
p85
tp86
F0.011764705882352941
s(S'defeated'
p87
S'to'
p88
tp89
F0.023529411764705882
s(S'had'
p90
S'defeated'
p91
tp92
F0.023529411764705882
s(S'then'
p93
g16
tp94
F0.047058823529411764
s(S'is'
p95
S'defeated'
p96
tp97
F0.03529411764705882
s(g14
S'[[adj]]'
p98
tp99
F0.047058823529411764
s(S'later'
p100
S'defeated'
p101
tp102
F0.011764705882352941
s(S'defeated'
p103
S'[[con]]'
p104
tp105
F0.08235294117647059
s.