(dp0
(S'fed'
p1
S'by'
p2
tp3
F0.3333333333333333
s(S'water'
p4
S'from'
p5
tp6
F0.16666666666666666
s(S'[[det]]'
p7
S'rivers'
p8
tp9
F0.16666666666666666
s(S'is'
p10
S'fed'
p11
tp12
F0.3333333333333333
s.