(dp0
(S'studied'
p1
S'as'
p2
tp3
F0.0029411764705882353
s(S'used'
p4
S'when'
p5
tp6
F0.0029411764705882353
s(S'like'
p7
S'for'
p8
tp9
F0.0014705882352941176
s(S'was'
p10
S'playing'
p11
tp12
F0.0029411764705882353
s(S'studied'
p13
S'with'
p14
tp15
F0.016176470588235296
s(S'[[num]]'
p16
S'play'
p17
tp18
F0.0014705882352941176
s(S'been'
p19
S'played'
p20
tp21
F0.0014705882352941176
s(S'used'
p22
S'[[num]]'
p23
tp24
F0.0014705882352941176
s(S'that'
p25
S'using'
p26
tp27
F0.0014705882352941176
s(S'to'
p28
S'play'
p29
tp30
F0.0029411764705882353
s(S'recorded'
p31
S'more'
p32
tp33
F0.0014705882352941176
s(S'be'
p34
S'used'
p35
tp36
F0.0029411764705882353
s(S'[[pro]]'
p37
S'used'
p38
tp39
F0.0014705882352941176
s(S'has'
p40
g13
tp41
F0.004411764705882353
s(S'had'
p42
S'studied'
p43
tp44
F0.0058823529411764705
s(S'played'
p45
S'who'
p46
tp47
F0.0014705882352941176
s(S'played'
p48
S'was'
p49
tp50
F0.0014705882352941176
s(S'while'
p51
S'used'
p52
tp53
F0.0014705882352941176
s(S'with'
p54
S'played'
p55
tp56
F0.0029411764705882353
s(S'where'
p57
S'recorded'
p58
tp59
F0.0014705882352941176
s(S'then'
p60
S'released'
p61
tp62
F0.0014705882352941176
s(S'prefers'
p63
S'[[det]]'
p64
tp65
F0.0014705882352941176
s(S'use'
p66
S'to'
p67
tp68
F0.0014705882352941176
s(S'of'
p69
S'played'
p70
tp71
F0.0014705882352941176
s(S'had'
p72
S'designed'
p73
tp74
F0.0014705882352941176
s(S'uses'
p75
S'in'
p76
tp77
F0.0014705882352941176
s(S'use'
p78
S'[[det]]'
p79
tp80
F0.004411764705882353
s(S'use'
p81
S'of'
p82
tp83
F0.007352941176470588
s(S'also'
p84
S'played'
p85
tp86
F0.023529411764705882
s(S'is'
p87
S'played'
p88
tp89
F0.0029411764705882353
s(S'uses'
p90
S'[[pro]]'
p91
tp92
F0.0014705882352941176
s(S'playing'
p93
S'at'
p94
tp95
F0.004411764705882353
s(S'is'
p96
S'using'
p97
tp98
F0.0014705882352941176
s(S'has'
p99
S'used'
p100
tp101
F0.0029411764705882353
s(S'play'
p102
S'[[con]]'
p103
tp104
F0.0014705882352941176
s(S'use'
p105
S'[[adj]]'
p106
tp107
F0.0014705882352941176
s(S'playing'
p108
S'[[con]]'
p109
tp110
F0.0014705882352941176
s(S'released'
p111
S'[[con]]'
p112
tp113
F0.0014705882352941176
s(S'then'
p114
S'played'
p115
tp116
F0.011764705882352941
s(S'using'
p117
S'[[pro]]'
p118
tp119
F0.0014705882352941176
s(S'have'
p120
S'played'
p121
tp122
F0.010294117647058823
s(S'where'
p123
S'played'
p124
tp125
F0.0058823529411764705
s(S'use'
p126
S'for'
p127
tp128
F0.0014705882352941176
s(S'played'
p129
S's'
p130
tp131
F0.0029411764705882353
s(S'used'
p132
S'[[prp]]'
p133
tp134
F0.0014705882352941176
s(S'is'
p135
S'like'
p136
tp137
F0.0014705882352941176
s(S'recorded'
p138
S'on'
p139
tp140
F0.0014705882352941176
s(S'recorded'
p141
S'[[num]]'
p142
tp143
F0.004411764705882353
s(S'is'
p144
S'released'
p145
tp146
F0.0014705882352941176
s(S'studied'
p147
S'where'
p148
tp149
F0.0014705882352941176
s(S'been'
p150
S'using'
p151
tp152
F0.0029411764705882353
s(S'that'
p153
S'played'
p154
tp155
F0.0014705882352941176
s(S'is'
p156
S'recorded'
p157
tp158
F0.0029411764705882353
s(S'used'
p159
S'at'
p160
tp161
F0.0014705882352941176
s(S'while'
p162
S'played'
p163
tp164
F0.0014705882352941176
s(S'have'
p165
S'studied'
p166
tp167
F0.004411764705882353
s(S'studied'
p168
S'[[num]]'
p169
tp170
F0.0014705882352941176
s(S'designed'
p171
S'[[prp]]'
p172
tp173
F0.0014705882352941176
s(S'designed'
p174
S'[[num]]'
p175
tp176
F0.0014705882352941176
s(S'studied'
p177
S'later'
p178
tp179
F0.0014705882352941176
s(S'[[adj]]'
p180
S'play'
p181
tp182
F0.0058823529411764705
s(S'studied'
p183
S'[[adj]]'
p184
tp185
F0.0014705882352941176
s(S'uses'
p186
S'[[con]]'
p187
tp188
F0.0014705882352941176
s(S'[[adj]]'
p189
S'studied'
p190
tp191
F0.0014705882352941176
s(S'played'
p192
S'on'
p193
tp194
F0.008823529411764706
s(S'who'
p195
S'recorded'
p196
tp197
F0.0014705882352941176
s(S'had'
p198
S'played'
p199
tp200
F0.011764705882352941
s(S'of'
p201
S'used'
p202
tp203
F0.0014705882352941176
s(S'play'
p204
S'[[num]]'
p205
tp206
F0.0014705882352941176
s(S'play'
p207
S'on'
p208
tp209
F0.0014705882352941176
s(S'[[det]]'
p210
S'recorded'
p211
tp212
F0.0014705882352941176
s(S'still'
p213
S'played'
p214
tp215
F0.0014705882352941176
s(g130
S'plays'
p216
tp217
F0.0014705882352941176
s(S'plays'
p218
S'[[pro]]'
p219
tp220
F0.0014705882352941176
s(S'not'
p221
S'played'
p222
tp223
F0.0029411764705882353
s(S'designed'
p224
S'[[det]]'
p225
tp226
F0.0058823529411764705
s(S'using'
p227
S'[[det]]'
p228
tp229
F0.0029411764705882353
s(S'[[pro]]'
p230
S'like'
p231
tp232
F0.0014705882352941176
s(S'first'
p233
S'studied'
p234
tp235
F0.0029411764705882353
s(S'then'
p236
S'used'
p237
tp238
F0.0029411764705882353
s(S'then'
p239
S'recorded'
p240
tp241
F0.0014705882352941176
s(S'recorded'
p242
S'[[pro]]'
p243
tp244
F0.0029411764705882353
s(g214
S'for'
p245
tp246
F0.0014705882352941176
s(S'when'
p247
S'recorded'
p248
tp249
F0.0014705882352941176
s(S'played'
p250
S'then'
p251
tp252
F0.0014705882352941176
s(S'uses'
p253
S'[[adj]]'
p254
tp255
F0.0014705882352941176
s(S'uses'
p256
S'[[num]]'
p257
tp258
F0.0014705882352941176
s(S'[[pro]]'
p259
S'use'
p260
tp261
F0.0014705882352941176
s(S'already'
p262
S'played'
p263
tp264
F0.0014705882352941176
s(S'use'
p265
S'[[prp]]'
p266
tp267
F0.0014705882352941176
s(g240
S'with'
p268
tp269
F0.011764705882352941
s(S'later'
p270
S'recorded'
p271
tp272
F0.0029411764705882353
s(S'released'
p273
S'to'
p274
tp275
F0.0014705882352941176
s(S'also'
p276
S'plays'
p277
tp278
F0.0029411764705882353
s(S'designed'
p279
S'at'
p280
tp281
F0.0014705882352941176
s(S'who'
p282
S'played'
p283
tp284
F0.004411764705882353
s(S'who'
p285
S'studied'
p286
tp287
F0.0014705882352941176
s(S'[[con]]'
p288
S'released'
p289
tp290
F0.0014705882352941176
s(S'used'
p291
S'[[adj]]'
p292
tp293
F0.004411764705882353
s(S'also'
p294
S'studied'
p295
tp296
F0.008823529411764706
s(S'has'
p297
S'recorded'
p298
tp299
F0.011764705882352941
s(S'in'
p300
S'played'
p301
tp302
F0.0014705882352941176
s(S'first'
p303
S'recorded'
p304
tp305
F0.0014705882352941176
s(S'is'
p306
S'listed'
p307
tp308
F0.0014705882352941176
s(S'used'
p309
S'of'
p310
tp311
F0.0014705882352941176
s(S'used'
p312
S'was'
p313
tp314
F0.0014705882352941176
s(S'played'
p315
S'is'
p316
tp317
F0.0014705882352941176
s(S'be'
p318
S'played'
p319
tp320
F0.0014705882352941176
s(S'recorded'
p321
S'by'
p322
tp323
F0.007352941176470588
s(S'also'
p324
S'endorsed'
p325
tp326
F0.0014705882352941176
s(S'using'
p327
S'[[con]]'
p328
tp329
F0.0014705882352941176
s(S'played'
p330
S'in'
p331
tp332
F0.01911764705882353
s(S'plays'
p333
S'[[num]]'
p334
tp335
F0.0014705882352941176
s(S'released'
p336
S'of'
p337
tp338
F0.0014705882352941176
s(S'later'
p339
S'played'
p340
tp341
F0.004411764705882353
s(S'played'
p342
S'[[adj]]'
p343
tp344
F0.010294117647058823
s(S'use'
p345
S'with'
p346
tp347
F0.0029411764705882353
s(S'released'
p348
S'[[det]]'
p349
tp350
F0.0058823529411764705
s(g130
S'use'
p351
tp352
F0.0014705882352941176
s(S'like'
p353
S'[[num]]'
p354
tp355
F0.0014705882352941176
s(S'designed'
p356
S'on'
p357
tp358
F0.0014705882352941176
s(S'played'
p359
S'from'
p360
tp361
F0.0014705882352941176
s(S'in'
p362
S'used'
p363
tp364
F0.0014705882352941176
s(S'which'
p365
S'played'
p366
tp367
F0.004411764705882353
s(S'being'
p368
S'played'
p369
tp370
F0.0014705882352941176
s(S'were'
p371
S'recorded'
p372
tp373
F0.0014705882352941176
s(S'played'
p374
S'[[num]]'
p375
tp376
F0.0014705882352941176
s(S'recorded'
p377
S'[[con]]'
p378
tp379
F0.004411764705882353
s(S'played'
p380
S'by'
p381
tp382
F0.023529411764705882
s(S'also'
p383
S'released'
p384
tp385
F0.004411764705882353
s(S'been'
p386
S'playing'
p387
tp388
F0.0029411764705882353
s(g130
S'recorded'
p389
tp390
F0.0014705882352941176
s(S'[[pro]]'
p391
S'played'
p392
tp393
F0.0029411764705882353
s(S'recorded'
p394
S'[[prp]]'
p395
tp396
F0.0029411764705882353
s(S'play'
p397
S'for'
p398
tp399
F0.0014705882352941176
s(S'[[num]]'
p400
S'released'
p401
tp402
F0.0014705882352941176
s(S'has'
p403
S'designed'
p404
tp405
F0.0029411764705882353
s(g130
S'play'
p406
tp407
F0.007352941176470588
s(S'[[det]]'
p408
S'play'
p409
tp410
F0.004411764705882353
s(S'was'
p411
S'endorsed'
p412
tp413
F0.0014705882352941176
s(S'who'
p414
S'used'
p415
tp416
F0.0014705882352941176
s(S'[[mod]]'
p417
S'use'
p418
tp419
F0.004411764705882353
s(S'played'
p420
S'during'
p421
tp422
F0.004411764705882353
s(S'[[det]]'
p423
g81
tp424
F0.0029411764705882353
s(S'also'
p425
S'used'
p426
tp427
F0.0058823529411764705
s(g145
S'from'
p428
tp429
F0.0014705882352941176
s(S'[[adj]]'
p430
S'plays'
p431
tp432
F0.0029411764705882353
s(g404
S'for'
p433
tp434
F0.0029411764705882353
s(S'[[det]]'
p435
S'played'
p436
tp437
F0.004411764705882353
s(S'[[adj]]'
p438
S'used'
p439
tp440
F0.0029411764705882353
s(S'then'
p441
S'studied'
p442
tp443
F0.0058823529411764705
s(S'played'
p444
S'[[con]]'
p445
tp446
F0.008823529411764706
s(S'used'
p447
S'against'
p448
tp449
F0.0014705882352941176
s(S'have'
p450
S'used'
p451
tp452
F0.0029411764705882353
s(S'playing'
p453
S'[[det]]'
p454
tp455
F0.0058823529411764705
s(S'plays'
p456
S'[[det]]'
p457
tp458
F0.0029411764705882353
s(S'since'
p459
S'played'
p460
tp461
F0.0014705882352941176
s(S'[[det]]'
p462
S'playing'
p463
tp464
F0.0014705882352941176
s(S'also'
p465
g279
tp466
F0.008823529411764706
s(S'had'
p467
S'recorded'
p468
tp469
F0.0014705882352941176
s(S'later'
p470
S'used'
p471
tp472
F0.0014705882352941176
s(S'playing'
p473
S'[[adj]]'
p474
tp475
F0.0014705882352941176
s(S'that'
p476
S'plays'
p477
tp478
F0.0014705882352941176
s(g431
S'[[con]]'
p479
tp480
F0.0014705882352941176
s(S'later'
p481
g348
tp482
F0.0029411764705882353
s(S'used'
p483
S'with'
p484
tp485
F0.0014705882352941176
s(S'[[adj]]'
p486
S'played'
p487
tp488
F0.004411764705882353
s(g199
S'[[det]]'
p489
tp490
F0.01764705882352941
s(S'never'
p491
S'played'
p492
tp493
F0.0014705882352941176
s(S'recorded'
p494
S'in'
p495
tp496
F0.0014705882352941176
s(S'much'
p497
S'like'
p498
tp499
F0.0014705882352941176
s(S'is'
p500
S'playing'
p501
tp502
F0.0029411764705882353
s(S'when'
p503
S'used'
p504
tp505
F0.0014705882352941176
s(S'later'
p506
S'studied'
p507
tp508
F0.004411764705882353
s(S'which'
p509
S'used'
p510
tp511
F0.0014705882352941176
s(S'[[num]]'
p512
S'played'
p513
tp514
F0.004411764705882353
s(g501
S'with'
p515
tp516
F0.0014705882352941176
s(S'studied'
p517
S'to'
p518
tp519
F0.0014705882352941176
s(S'[[num]]'
p520
S'studied'
p521
tp522
F0.0014705882352941176
s(g121
S'along'
p523
tp524
F0.004411764705882353
s(S'use'
p525
S'as'
p526
tp527
F0.0014705882352941176
s(S'studied'
p528
S'first'
p529
tp530
F0.0014705882352941176
s(g409
S'at'
p531
tp532
F0.0058823529411764705
s(S'released'
p533
S'[[num]]'
p534
tp535
F0.004411764705882353
s(S'was'
p536
S'used'
p537
tp538
F0.0014705882352941176
s(S'currently'
p539
S'playing'
p540
tp541
F0.0029411764705882353
s(S'released'
p542
S'at'
p543
tp544
F0.0014705882352941176
s(g130
S'playing'
p545
tp546
F0.0014705882352941176
s(S'recorded'
p547
S'to'
p548
tp549
F0.0014705882352941176
s(S'also'
p550
S'playing'
p551
tp552
F0.0029411764705882353
s(g412
S'by'
p553
tp554
F0.004411764705882353
s(S'recorded'
p555
S'[[det]]'
p556
tp557
F0.004411764705882353
s(S'[[adj]]'
p558
S'use'
p559
tp560
F0.0029411764705882353
s(S'that'
p561
S'use'
p562
tp563
F0.0014705882352941176
s(S'studied'
p564
S'under'
p565
tp566
F0.014705882352941176
s(S'made'
p567
S'use'
p568
tp569
F0.004411764705882353
s(S'recorded'
p570
S'from'
p571
tp572
F0.0014705882352941176
s(S'used'
p573
S'[[con]]'
p574
tp575
F0.0029411764705882353
s(S'designed'
p576
S'[[con]]'
p577
tp578
F0.0029411764705882353
s(S'studied'
p579
S'[[det]]'
p580
tp581
F0.004411764705882353
s(S'used'
p582
S'while'
p583
tp584
F0.0014705882352941176
s(S'uses'
p585
S'[[det]]'
p586
tp587
F0.0029411764705882353
s(S'[[adj]]'
p588
S'like'
p589
tp590
F0.0014705882352941176
s(S'played'
p591
S'before'
p592
tp593
F0.0014705882352941176
s(S'used'
p594
S'for'
p595
tp596
F0.0029411764705882353
s(S'use'
p597
S'[[pro]]'
p598
tp599
F0.0014705882352941176
s(S'played'
p600
S'after'
p601
tp602
F0.0014705882352941176
s(S'[[con]]'
p603
S'played'
p604
tp605
F0.016176470588235296
s(S'because'
p606
S'used'
p607
tp608
F0.0014705882352941176
s(S'has'
p609
S'played'
p610
tp611
F0.011764705882352941
s(S'designing'
p612
S'[[det]]'
p613
tp614
F0.0014705882352941176
s(S'has'
p615
S'endorsed'
p616
tp617
F0.0014705882352941176
s(S'endorsed'
p618
S'[[det]]'
p619
tp620
F0.0014705882352941176
s(S'[[num]]'
p621
S'used'
p622
tp623
F0.0014705882352941176
s(S'also'
p624
g585
tp625
F0.0029411764705882353
s(S'as'
p626
S'played'
p627
tp628
F0.004411764705882353
s(g130
S'released'
p629
tp630
F0.0014705882352941176
s(S'has'
p631
S'released'
p632
tp633
F0.0058823529411764705
s(S'[[pro]]'
p634
S'released'
p635
tp636
F0.0014705882352941176
s(S'[[pro]]'
p637
S'play'
p638
tp639
F0.0014705882352941176
s(S'[[con]]'
p640
S'recorded'
p641
tp642
F0.0029411764705882353
s(S'mainly'
p643
S'used'
p644
tp645
F0.0014705882352941176
s(S'played'
p646
S'of'
p647
tp648
F0.0029411764705882353
s(S'that'
p649
S'used'
p650
tp651
F0.0014705882352941176
s(g426
S'[[pro]]'
p652
tp653
F0.0029411764705882353
s(g513
S'at'
p654
tp655
F0.013235294117647059
s(S'play'
p656
S'[[det]]'
p657
tp658
F0.0029411764705882353
s(g406
S'of'
p659
tp660
F0.0029411764705882353
s(S'like'
p661
S'of'
p662
tp663
F0.0014705882352941176
s(g589
S'[[det]]'
p664
tp665
F0.0058823529411764705
s(S'used'
p666
S'in'
p667
tp668
F0.0029411764705882353
s(S'released'
p669
S'[[adj]]'
p670
tp671
F0.0029411764705882353
s(S'be'
p672
S'released'
p673
tp674
F0.0014705882352941176
s(S'[[con]]'
p675
S'use'
p676
tp677
F0.0014705882352941176
s(S'use'
p678
S'[[con]]'
p679
tp680
F0.004411764705882353
s(S'[[con]]'
p681
S'used'
p682
tp683
F0.0029411764705882353
s(S'as'
p684
S'playing'
p685
tp686
F0.0014705882352941176
s(S'played'
p687
S'while'
p688
tp689
F0.0014705882352941176
s(S'only'
p690
S'played'
p691
tp692
F0.0029411764705882353
s(S'again'
p693
S'played'
p694
tp695
F0.0029411764705882353
s(S'plays'
p696
S'at'
p697
tp698
F0.0014705882352941176
s(S'that'
p699
S'recorded'
p700
tp701
F0.0014705882352941176
s(S'used'
p702
S'from'
p703
tp704
F0.0014705882352941176
s(S'had'
p705
S'used'
p706
tp707
F0.007352941176470588
s(S'often'
p708
S'used'
p709
tp710
F0.0029411764705882353
s(S'to'
p711
g105
tp712
F0.013235294117647059
s(S'playing'
p713
S'in'
p714
tp715
F0.0029411764705882353
s(S'released'
p716
S'[[pro]]'
p717
tp718
F0.0014705882352941176
s(S'designed'
p719
S'[[adj]]'
p720
tp721
F0.004411764705882353
s(g298
S'as'
p722
tp723
F0.007352941176470588
s(S'later'
p724
S'play'
p725
tp726
F0.0014705882352941176
s(S'played'
p727
S'under'
p728
tp729
F0.004411764705882353
s(g442
S'[[con]]'
p730
tp731
F0.007352941176470588
s(S'used'
p732
S'as'
p733
tp734
F0.0014705882352941176
s(S'[[con]]'
p735
S'designed'
p736
tp737
F0.0029411764705882353
s(g100
S'[[det]]'
p738
tp739
F0.010294117647058823
s(S'played'
p740
S'[[pro]]'
p741
tp742
F0.0029411764705882353
s(S'also'
p743
S'recorded'
p744
tp745
F0.014705882352941176
s(S'before'
p746
S'playing'
p747
tp748
F0.0014705882352941176
s(S'continue'
p749
g612
tp750
F0.0014705882352941176
s(S'recorded'
p751
S'that'
p752
tp753
F0.0014705882352941176
s(S'used'
p754
S'to'
p755
tp756
F0.0058823529411764705
s(S'plays'
p757
S'on'
p758
tp759
F0.0014705882352941176
s(S'studied'
p760
S'for'
p761
tp762
F0.0014705882352941176
s(S'played'
p763
S'when'
p764
tp765
F0.0014705882352941176
s(S'[[det]]'
p766
S'plays'
p767
tp768
F0.0014705882352941176
s(S'first'
p769
S'played'
p770
tp771
F0.0058823529411764705
s(S'released'
p772
S'[[prp]]'
p773
tp774
F0.0014705882352941176
s(S'used'
p775
S'on'
p776
tp777
F0.0014705882352941176
s(S'played'
p778
S'as'
p779
tp780
F0.0058823529411764705
s(S'played'
p781
S'that'
p782
tp783
F0.0014705882352941176
s(g130
S'played'
p784
tp785
F0.0029411764705882353
s(g124
S'with'
p786
tp787
F0.01764705882352941
s(S'played'
p788
S'to'
p789
tp790
F0.0014705882352941176
s(S'was'
p791
S'recorded'
p792
tp793
F0.0014705882352941176
s(g231
S'[[pro]]'
p794
tp795
F0.0014705882352941176
s(S'was'
p796
S'played'
p797
tp798
F0.004411764705882353
s(S'[[con]]'
p799
S'studied'
p800
tp801
F0.004411764705882353
s(S'used'
p802
S'by'
p803
tp804
F0.0014705882352941176
s(S'[[mod]]'
p805
g749
tp806
F0.0014705882352941176
s(S'played'
p807
S'together'
p808
tp809
F0.0029411764705882353
s(S'like'
p810
S'in'
p811
tp812
F0.0014705882352941176
s(S'for'
p813
g713
tp814
F0.0014705882352941176
s(S'recorded'
p815
S'[[adj]]'
p816
tp817
F0.0029411764705882353
s(S'which'
p818
S'recorded'
p819
tp820
F0.0014705882352941176
s(S'when'
p821
S'played'
p822
tp823
F0.004411764705882353
s(S'often'
p824
S'played'
p825
tp826
F0.0029411764705882353
s(S'never'
p827
S'used'
p828
tp829
F0.0014705882352941176
s(S'where'
p830
S'used'
p831
tp832
F0.0014705882352941176
s(S'were'
p833
S'played'
p834
tp835
F0.0014705882352941176
s(g725
S'in'
p836
tp837
F0.0029411764705882353
s(S'played'
p838
S'well'
p839
tp840
F0.0014705882352941176
s(S'where'
p841
S'studied'
p842
tp843
F0.007352941176470588
s(S'played'
p844
S'[[prp]]'
p845
tp846
F0.0014705882352941176
s(S'be'
p847
g93
tp848
F0.0029411764705882353
s(S'recorded'
p849
S'under'
p850
tp851
F0.0014705882352941176
s(g307
g684
tp852
F0.0014705882352941176
s(S'studied'
p853
S'there'
p854
tp855
F0.0014705882352941176
s.