(dp0
(S'founded'
p1
S'to'
p2
tp3
F0.0078125
s(S'[[con]]'
p4
S'founded'
p5
tp6
F0.015625
s(S'been'
p7
S'founded'
p8
tp9
F0.0078125
s(S's'
p10
S'president'
p11
tp12
F0.015625
s(S'established'
p13
S'under'
p14
tp15
F0.0078125
s(S'[[adj]]'
p16
S'headquarters'
p17
tp18
F0.0078125
s(S'is'
p19
S'based'
p20
tp21
F0.0078125
s(S'announced'
p22
S'[[pro]]'
p23
tp24
F0.0078125
s(S'formed'
p25
S'with'
p26
tp27
F0.015625
s(S'was'
p28
S'incorporated'
p29
tp30
F0.015625
s(S'announced'
p31
S'[[prp]]'
p32
tp33
F0.0078125
s(S'formed'
p34
S'[[con]]'
p35
tp36
F0.0078125
s(g20
S'[[con]]'
p37
tp38
F0.0078125
s(S'[[num]]'
p39
S'established'
p40
tp41
F0.0078125
s(S'founder'
p42
S'[[con]]'
p43
tp44
F0.0078125
s(S'announced'
p45
S'by'
p46
tp47
F0.015625
s(S'established'
p48
S'with'
p49
tp50
F0.0078125
s(S'formed'
p51
S'after'
p52
tp53
F0.0078125
s(S'is'
p54
S'chaired'
p55
tp56
F0.0078125
s(S'cofounded'
p57
S'[[con]]'
p58
tp59
F0.0078125
s(S'was'
p60
S'cofounded'
p61
tp62
F0.015625
s(S'president'
p63
S'[[con]]'
p64
tp65
F0.0078125
s(S'were'
p66
S'founded'
p67
tp68
F0.015625
s(S'opened'
p69
S'[[prp]]'
p70
tp71
F0.0078125
s(S'after'
p72
S'announced'
p73
tp74
F0.0078125
s(S'year'
p75
S'with'
p76
tp77
F0.0078125
s(S'[[con]]'
p78
S'formed'
p79
tp80
F0.0078125
s(S'also'
p81
S'announced'
p82
tp83
F0.0078125
s(S'founded'
p84
S'under'
p85
tp86
F0.0078125
s(g55
S'by'
p87
tp88
F0.0234375
s(g10
S'founder'
p89
tp90
F0.015625
s(g70
g16
tp91
F0.0078125
s(S'also'
p92
S'founded'
p93
tp94
F0.0078125
s(S'[[num]]'
p95
S'founded'
p96
tp97
F0.0078125
s(S'announced'
p98
S'had'
p99
tp100
F0.0078125
s(g17
S'in'
p101
tp102
F0.0078125
s(S'is'
p103
S'formed'
p104
tp105
F0.0078125
s(S'has'
p106
S'announced'
p107
tp108
F0.0078125
s(S'was'
p109
g25
tp110
F0.0234375
s(g37
S'was'
p111
tp112
F0.0078125
s(S'were'
p113
g34
tp114
F0.0234375
s(S'[[det]]'
p115
g75
tp116
F0.0078125
s(S'[[det]]'
p117
S'design'
p118
tp119
F0.0078125
s(S'which'
p120
S'founded'
p121
tp122
F0.0078125
s(g118
S'was'
p123
tp124
F0.0078125
s(S'founded'
p125
S'with'
p126
tp127
F0.015625
s(S'was'
p128
S'run'
p129
tp130
F0.0078125
s(S'was'
p131
S'established'
p132
tp133
F0.0390625
s(S'incorporated'
p134
S'by'
p135
tp136
F0.0078125
s(S'[[adj]]'
p137
S'engineer'
p138
tp139
F0.0078125
s(S'was'
p140
S'headed'
p141
tp142
F0.015625
s(g29
S'[[con]]'
p143
tp144
F0.0078125
s(S'was'
p145
S'chaired'
p146
tp147
F0.0078125
s(S'headed'
p148
S'by'
p149
tp150
F0.03125
s(g107
S'that'
p151
tp152
F0.03125
s(S'[[det]]'
p153
S'headed'
p154
tp155
F0.0078125
s(S'established'
p156
S'to'
p157
tp158
F0.0078125
s(S'was'
p159
g45
tp160
F0.0078125
s(S'run'
p161
S'by'
p162
tp163
F0.015625
s(S'founded'
p164
S'for'
p165
tp166
F0.0078125
s(g132
S'after'
p167
tp168
F0.0078125
s(S'announced'
p169
S'[[adj]]'
p170
tp171
F0.0078125
s(S'was'
p172
g125
tp173
F0.0625
s(S'[[prp]]'
p174
S'founder'
p175
tp176
F0.0078125
s(S'is'
p177
S'founded'
p178
tp179
F0.015625
s(S'[[det]]'
p180
S'founded'
p181
tp182
F0.0078125
s(g178
S'by'
p183
tp184
F0.078125
s(g104
S'by'
p185
tp186
F0.03125
s(S'is'
p187
S'headed'
p188
tp189
F0.0078125
s(S'been'
p190
S'established'
p191
tp192
F0.0078125
s(S'tours'
p193
g115
tp194
F0.0078125
s(S'had'
p195
S'announced'
p196
tp197
F0.0078125
s(S'is'
p198
S'established'
p199
tp200
F0.0078125
s(g61
S'by'
p201
tp202
F0.015625
s(S'established'
p203
S'by'
p204
tp205
F0.03125
s(S'[[con]]'
p206
S'founder'
p207
tp208
F0.0078125
s(S'[[num]]'
p209
S'president'
p210
tp211
F0.0078125
s.