(dp0
(S'received'
p1
S'only'
p2
tp3
F0.03896103896103896
s(S'had'
p4
S'picked'
p5
tp6
F0.05194805194805195
s(S'points'
p7
S'[[det]]'
p8
tp9
F0.025974025974025976
s(S'[[num]]'
p10
S'placing'
p11
tp12
F0.05194805194805195
s(g5
S'up'
p13
tp14
F0.05194805194805195
s(S'points'
p15
S'from'
p16
tp17
F0.012987012987012988
s(g2
S'[[num]]'
p18
tp19
F0.03896103896103896
s(S'placing'
p20
S'[[det]]'
p21
tp22
F0.012987012987012988
s(S'[[num]]'
p23
S'points'
p24
tp25
F0.15584415584415584
s(S'placing'
p26
S'[[adj]]'
p27
tp28
F0.1038961038961039
s(S'received'
p29
S'[[det]]'
p30
tp31
F0.025974025974025976
s(S'highest'
p32
S'placing'
p33
tp34
F0.012987012987012988
s(g8
g32
tp35
F0.025974025974025976
s(S'points'
p36
g10
tp37
F0.07792207792207792
s(S'received'
p38
S'[[num]]'
p39
tp40
F0.06493506493506493
s(S'had'
p41
g1
tp42
F0.11688311688311688
s(g24
g26
tp43
F0.05194805194805195
s(g30
S'points'
p44
tp45
F0.025974025974025976
s(g13
g23
tp46
F0.05194805194805195
s.