(dp0
(S'[[con]]'
p1
S'led'
p2
tp3
F0.014285714285714285
s(S'founded'
p4
S'to'
p5
tp6
F0.014285714285714285
s(S'[[con]]'
p7
S'founded'
p8
tp9
F0.02857142857142857
s(S'is'
p10
S'led'
p11
tp12
F0.014285714285714285
s(S'been'
p13
S'founded'
p14
tp15
F0.014285714285714285
s(S'formed'
p16
S'with'
p17
tp18
F0.02857142857142857
s(S'formed'
p19
S'[[con]]'
p20
tp21
F0.014285714285714285
s(S'tours'
p22
S'[[det]]'
p23
tp24
F0.014285714285714285
s(S'formed'
p25
S'after'
p26
tp27
F0.014285714285714285
s(S'were'
p28
S'led'
p29
tp30
F0.014285714285714285
s(S'were'
p31
S'founded'
p32
tp33
F0.02857142857142857
s(S'year'
p34
S'with'
p35
tp36
F0.014285714285714285
s(S'[[con]]'
p37
S'formed'
p38
tp39
F0.014285714285714285
s(S'[[con]]'
p40
S'leader'
p41
tp42
F0.014285714285714285
s(S'founded'
p43
S'under'
p44
tp45
F0.014285714285714285
s(S'leader'
p46
S'in'
p47
tp48
F0.014285714285714285
s(S'also'
p49
S'founded'
p50
tp51
F0.014285714285714285
s(S'[[prp]]'
p52
S'leader'
p53
tp54
F0.014285714285714285
s(S'[[num]]'
p55
S'founded'
p56
tp57
F0.014285714285714285
s(S'is'
p58
S'formed'
p59
tp60
F0.014285714285714285
s(S'was'
p61
g16
tp62
F0.04285714285714286
s(S'were'
p63
g19
tp64
F0.04285714285714286
s(g23
g34
tp65
F0.014285714285714285
s(S'which'
p66
S'founded'
p67
tp68
F0.014285714285714285
s(S'then'
p69
S'led'
p70
tp71
F0.014285714285714285
s(S'founded'
p72
S'with'
p73
tp74
F0.02857142857142857
s(S'now'
p75
S'led'
p76
tp77
F0.014285714285714285
s(S'led'
p78
S'by'
p79
tp80
F0.1
s(S'founded'
p81
S'for'
p82
tp83
F0.014285714285714285
s(S'was'
p84
S'led'
p85
tp86
F0.02857142857142857
s(S'was'
p87
g72
tp88
F0.08571428571428572
s(S'is'
p89
S'founded'
p90
tp91
F0.02857142857142857
s(S'[[det]]'
p92
S'founded'
p93
tp94
F0.014285714285714285
s(g90
S'by'
p95
tp96
F0.11428571428571428
s(g59
S'by'
p97
tp98
F0.05714285714285714
s(S's'
p99
g46
tp100
F0.04285714285714286
s(S'leader'
p101
S'[[con]]'
p102
tp103
F0.014285714285714285
s.