(dp0
(S'joined'
p1
S'[[con]]'
p2
tp3
F0.125
s(S'receives'
p4
S'[[con]]'
p5
tp6
F0.125
s(S'is'
p7
g1
tp8
F0.375
s(S'joined'
p9
S'by'
p10
tp11
F0.125
s(S'receives'
p12
S'[[det]]'
p13
tp14
F0.125
s(S'collects'
p15
S'[[det]]'
p16
tp17
F0.125
s.