(dp0
(S'[[adj]]'
p1
S'bridge'
p2
tp3
F0.005376344086021506
s(S'range'
p4
S'in'
p5
tp6
F0.010752688172043012
s(S'is'
p7
S'opened'
p8
tp9
F0.005376344086021506
s(S'border'
p10
S'with'
p11
tp12
F0.010752688172043012
s(S'[[adj]]'
p13
S'peak'
p14
tp15
F0.005376344086021506
s(S'highest'
p16
S'peak'
p17
tp18
F0.021505376344086023
s(S'border'
p19
S'between'
p20
tp21
F0.03763440860215054
s(g17
S'in'
p22
tp23
F0.021505376344086023
s(S'mountain'
p24
S'peak'
p25
tp26
F0.005376344086021506
s(S'located'
p27
S'at'
p28
tp29
F0.005376344086021506
s(S'crosses'
p30
S'[[det]]'
p31
tp32
F0.010752688172043012
s(S'[[det]]'
p33
S'states'
p34
tp35
F0.005376344086021506
s(S'[[adj]]'
p36
S'opened'
p37
tp38
F0.005376344086021506
s(S'[[det]]'
p39
S'highest'
p40
tp41
F0.043010752688172046
s(S'point'
p42
S'[[det]]'
p43
tp44
F0.010752688172043012
s(S'are'
p45
S'located'
p46
tp47
F0.010752688172043012
s(S'lies'
p48
S'just'
p49
tp50
F0.005376344086021506
s(g37
S'by'
p51
tp52
F0.005376344086021506
s(S'[[adj]]'
p53
S'mountain'
p54
tp55
F0.026881720430107527
s(S'[[adj]]'
p56
S'located'
p57
tp58
F0.005376344086021506
s(S'south'
p59
S'[[det]]'
p60
tp61
F0.005376344086021506
s(S'[[con]]'
p62
S'highest'
p63
tp64
F0.005376344086021506
s(S'was'
p65
S'located'
p66
tp67
F0.016129032258064516
s(S'is'
p68
S'located'
p69
tp70
F0.026881720430107527
s(S'mountain'
p71
S'[[con]]'
p72
tp73
F0.005376344086021506
s(g34
S'of'
p74
tp75
F0.005376344086021506
s(S'located'
p76
S'[[adj]]'
p77
tp78
F0.005376344086021506
s(S'mountains'
p79
S'in'
p80
tp81
F0.005376344086021506
s(S'mountain'
p82
S'range'
p83
tp84
F0.03225806451612903
s(S'[[det]]'
p85
S'hill'
p86
tp87
F0.005376344086021506
s(S'highest'
p88
S'point'
p89
tp90
F0.021505376344086023
s(S'connects'
p91
g33
tp92
F0.005376344086021506
s(S'now'
p93
g27
tp94
F0.005376344086021506
s(S'[[det]]'
p95
S'bridge'
p96
tp97
F0.016129032258064516
s(S'suspension'
p98
S'bridge'
p99
tp100
F0.005376344086021506
s(S'on'
p101
S'[[det]]'
p102
tp103
F0.021505376344086023
s(S'[[det]]'
p104
S'stratovolcano'
p105
tp106
F0.005376344086021506
s(S'linking'
p107
S'to'
p108
tp109
F0.005376344086021506
s(S'opened'
p110
S'in'
p111
tp112
F0.021505376344086023
s(g89
S'in'
p113
tp114
F0.005376344086021506
s(S'[[adj]]'
p115
S'border'
p116
tp117
F0.010752688172043012
s(S'[[adj]]'
p118
g79
tp119
F0.005376344086021506
s(S'longest'
p120
g98
tp121
F0.005376344086021506
s(g102
S'border'
p122
tp123
F0.06451612903225806
s(g66
S'just'
p124
tp125
F0.005376344086021506
s(S'opened'
p126
S'[[adj]]'
p127
tp128
F0.005376344086021506
s(g96
S'in'
p129
tp130
F0.021505376344086023
s(S'range'
p131
S'[[det]]'
p132
tp133
F0.010752688172043012
s(S'peak'
p134
g62
tp135
F0.005376344086021506
s(g122
S'of'
p136
tp137
F0.026881720430107527
s(S'mountain'
p138
S'located'
p139
tp140
F0.016129032258064516
s(S'located'
p141
g101
tp142
F0.016129032258064516
s(S'[[det]]'
p143
g120
tp144
F0.005376344086021506
s(S'then'
p145
g110
tp146
F0.005376344086021506
s(S'[[det]]'
p147
S'mountain'
p148
tp149
F0.05913978494623656
s(S'mountain'
p150
S'of'
p151
tp152
F0.005376344086021506
s(S'located'
p153
S'in'
p154
tp155
F0.04838709677419355
s(g86
S'in'
p156
tp157
F0.005376344086021506
s(S'[[det]]'
p158
S'located'
p159
tp160
F0.005376344086021506
s(S'opened'
p161
S'between'
p162
tp163
F0.005376344086021506
s(S'bridge'
p164
S'on'
p165
tp166
F0.005376344086021506
s(S'linking'
p167
S'[[con]]'
p168
tp169
F0.005376344086021506
s(S'was'
p170
S'opened'
p171
tp172
F0.016129032258064516
s(g31
S'[[adj]]'
p173
tp174
F0.005376344086021506
s(S'[[adj]]'
p175
S'highest'
p176
tp177
F0.010752688172043012
s(g176
S'mountain'
p178
tp179
F0.016129032258064516
s(S'located'
p180
S'of'
p181
tp182
F0.010752688172043012
s(S'located'
p183
S'[[det]]'
p184
tp185
F0.016129032258064516
s(S'mountain'
p186
S'in'
p187
tp188
F0.021505376344086023
s(g171
S'[[num]]'
p189
tp190
F0.005376344086021506
s(S'lies'
p191
S'on'
p192
tp193
F0.005376344086021506
s(S'also'
p194
S'located'
p195
tp196
F0.005376344086021506
s(g105
S'located'
p197
tp198
F0.005376344086021506
s(g49
g59
tp199
F0.005376344086021506
s(S'mountain'
p200
S'[[det]]'
p201
tp202
F0.016129032258064516
s(S'bridge'
p203
S'across'
p204
tp205
F0.005376344086021506
s(S'formerly'
p206
S'located'
p207
tp208
F0.005376344086021506
s(S'opened'
p209
S'[[con]]'
p210
tp211
F0.005376344086021506
s(S'located'
p212
S'[[num]]'
p213
tp214
F0.005376344086021506
s(S'border'
p215
S'in'
p216
tp217
F0.005376344086021506
s(S'point'
p218
S'of'
p219
tp220
F0.005376344086021506
s.