(dp0
(S'also'
p1
S'built'
p2
tp3
F0.007352941176470588
s(S'is'
p4
S'built'
p5
tp6
F0.022058823529411766
s(S'[[con]]'
p7
S'produced'
p8
tp9
F0.007352941176470588
s(S'built'
p10
S'around'
p11
tp12
F0.007352941176470588
s(S'[[num]]'
p13
S'built'
p14
tp15
F0.014705882352941176
s(S'was'
p16
S'manufactured'
p17
tp18
F0.014705882352941176
s(S'built'
p19
S'up'
p20
tp21
F0.007352941176470588
s(S'later'
p22
S'purchased'
p23
tp24
F0.007352941176470588
s(S'was'
p25
S'purchased'
p26
tp27
F0.022058823529411766
s(S'being'
p28
S'developed'
p29
tp30
F0.007352941176470588
s(S'manufactured'
p31
S'by'
p32
tp33
F0.022058823529411766
s(S'produced'
p34
S'at'
p35
tp36
F0.007352941176470588
s(S'purchased'
p37
S'by'
p38
tp39
F0.029411764705882353
s(S'purchased'
p40
S'[[det]]'
p41
tp42
F0.007352941176470588
s(S'built'
p43
S'on'
p44
tp45
F0.007352941176470588
s(S'built'
p46
S'was'
p47
tp48
F0.007352941176470588
s(S'built'
p49
S'by'
p50
tp51
F0.08088235294117647
s(S'[[adj]]'
p52
S'vehicle'
p53
tp54
F0.007352941176470588
s(S'that'
p55
S'developed'
p56
tp57
F0.007352941176470588
s(S'were'
p58
S'built'
p59
tp60
F0.007352941176470588
s(S'were'
p61
S'produced'
p62
tp63
F0.007352941176470588
s(S'was'
p64
S'marketed'
p65
tp66
F0.022058823529411766
s(S'produced'
p67
S'from'
p68
tp69
F0.007352941176470588
s(S'developed'
p70
S'at'
p71
tp72
F0.007352941176470588
s(S'[[det]]'
p73
S'purchased'
p74
tp75
F0.007352941176470588
s(S'developed'
p76
S'[[con]]'
p77
tp78
F0.014705882352941176
s(S'marketed'
p79
S'in'
p80
tp81
F0.014705882352941176
s(g26
S'for'
p82
tp83
F0.007352941176470588
s(S'built'
p84
S'in'
p85
tp86
F0.007352941176470588
s(S'built'
p87
S'with'
p88
tp89
F0.007352941176470588
s(S'being'
p90
S'produced'
p91
tp92
F0.007352941176470588
s(S'were'
p93
S'purchased'
p94
tp95
F0.007352941176470588
s(S'is'
p96
S'marketed'
p97
tp98
F0.007352941176470588
s(S'[[num]]'
p99
S'produced'
p100
tp101
F0.007352941176470588
s(S'[[det]]'
p102
g49
tp103
F0.022058823529411766
s(S'[[con]]'
p104
S'built'
p105
tp106
F0.022058823529411766
s(g59
S'for'
p107
tp108
F0.051470588235294115
s(S'was'
p109
g76
tp110
F0.03676470588235294
s(S'designed'
p111
S'[[con]]'
p112
tp113
F0.022058823529411766
s(S'built'
p114
S'as'
p115
tp116
F0.014705882352941176
s(S'marketed'
p117
S'by'
p118
tp119
F0.014705882352941176
s(S'was'
p120
g111
tp121
F0.007352941176470588
s(S'be'
p122
S'built'
p123
tp124
F0.014705882352941176
s(S'[[adj]]'
p125
S'engine'
p126
tp127
F0.007352941176470588
s(S'car'
p128
S'built'
p129
tp130
F0.007352941176470588
s(S'then'
p131
g37
tp132
F0.007352941176470588
s(g65
S'as'
p133
tp134
F0.007352941176470588
s(S'car'
p135
S'in'
p136
tp137
F0.007352941176470588
s(S'been'
p138
S'developed'
p139
tp140
F0.007352941176470588
s(S'was'
p141
g114
tp142
F0.051470588235294115
s(S'[[num]]'
p143
S'engine'
p144
tp145
F0.007352941176470588
s(S'built'
p146
S'after'
p147
tp148
F0.007352941176470588
s(g53
S'produced'
p149
tp150
F0.007352941176470588
s(S'been'
p151
S'built'
p152
tp153
F0.007352941176470588
s(S'[[det]]'
p154
S'produced'
p155
tp156
F0.014705882352941176
s(S'is'
p157
S'produced'
p158
tp159
F0.007352941176470588
s(S'be'
p160
S'produced'
p161
tp162
F0.007352941176470588
s(S'was'
p163
g67
tp164
F0.022058823529411766
s(g155
S'by'
p165
tp166
F0.0661764705882353
s(S'developed'
p167
S'with'
p168
tp169
F0.007352941176470588
s(S'had'
p170
g40
tp171
F0.007352941176470588
s(g139
S'by'
p172
tp173
F0.022058823529411766
s(S'built'
p174
S'at'
p175
tp176
F0.007352941176470588
s(S'[[adj]]'
p177
g135
tp178
F0.022058823529411766
s(S'[[adj]]'
p179
S'built'
p180
tp181
F0.014705882352941176
s(S'built'
p182
S'[[con]]'
p183
tp184
F0.007352941176470588
s(S'developed'
p185
S'for'
p186
tp187
F0.007352941176470588
s(S'when'
p188
S'purchased'
p189
tp190
F0.007352941176470588
s(S'is'
p191
S'manufactured'
p192
tp193
F0.014705882352941176
s.