(dp0
(S'[[con]]'
p1
S'merged'
p2
tp3
F0.06153846153846154
s(S'form'
p4
S'as'
p5
tp6
F0.015384615384615385
s(S'to'
p7
S'form'
p8
tp9
F0.1076923076923077
s(S'later'
p10
S'merged'
p11
tp12
F0.046153846153846156
s(S'merged'
p13
S'[[con]]'
p14
tp15
F0.046153846153846156
s(S'merged'
p16
S'with'
p17
tp18
F0.13846153846153847
s(S'form'
p19
S'in'
p20
tp21
F0.015384615384615385
s(S'be'
p22
S'merged'
p23
tp24
F0.046153846153846156
s(S'then'
p25
S'merged'
p26
tp27
F0.03076923076923077
s(S'merged'
p28
S'to'
p29
tp30
F0.046153846153846156
s(S'merged'
p31
S'[[prp]]'
p32
tp33
F0.015384615384615385
s(S'had'
p34
S'merged'
p35
tp36
F0.03076923076923077
s(S'form'
p37
S'[[num]]'
p38
tp39
F0.015384615384615385
s(S'merged'
p40
S'in'
p41
tp42
F0.015384615384615385
s(S'form'
p43
S'of'
p44
tp45
F0.015384615384615385
s(S'[[adj]]'
p46
g4
tp47
F0.015384615384615385
s(g8
S'[[con]]'
p48
tp49
F0.015384615384615385
s(S'merged'
p50
S'from'
p51
tp52
F0.015384615384615385
s(S'[[det]]'
p53
S'merged'
p54
tp55
F0.015384615384615385
s(S'form'
p56
S'part'
p57
tp58
F0.015384615384615385
s(S'were'
p59
S'merged'
p60
tp61
F0.015384615384615385
s(S'was'
p62
g13
tp63
F0.07692307692307693
s(S'merged'
p64
S'[[det]]'
p65
tp66
F0.015384615384615385
s(g11
S'into'
p67
tp68
F0.1076923076923077
s(S'when'
p69
S'merged'
p70
tp71
F0.03076923076923077
s(S'form'
p72
S'[[det]]'
p73
tp74
F0.015384615384615385
s(S'which'
p75
S'merged'
p76
tp77
F0.015384615384615385
s.