(dp0
(S'[[mod]]'
p1
S'join'
p2
tp3
F0.00544069640914037
s(S'joined'
p4
S'then'
p5
tp6
F0.002176278563656148
s(S'of'
p7
S'member'
p8
tp9
F0.001088139281828074
s(S'transferred'
p10
S'[[con]]'
p11
tp12
F0.002176278563656148
s(S'head'
p13
S'[[det]]'
p14
tp15
F0.006528835690968444
s(S'was'
p16
S'member'
p17
tp18
F0.007616974972796518
s(S'when'
p19
S'served'
p20
tp21
F0.001088139281828074
s(S'joined'
p22
S'now'
p23
tp24
F0.001088139281828074
s(S'transferred'
p25
S'for'
p26
tp27
F0.001088139281828074
s(S'[[det]]'
p28
S'head'
p29
tp30
F0.006528835690968444
s(S'joined'
p31
S'was'
p32
tp33
F0.001088139281828074
s(S'joined'
p34
S'[[con]]'
p35
tp36
F0.003264417845484222
s(S'officers'
p37
S'in'
p38
tp39
F0.001088139281828074
s(S'until'
p40
S'joined'
p41
tp42
F0.002176278563656148
s(S'prevent'
p43
S'[[det]]'
p44
tp45
F0.001088139281828074
s(S'as'
p46
S'head'
p47
tp48
F0.001088139281828074
s(S'commanded'
p49
S'[[det]]'
p50
tp51
F0.006528835690968444
s(S'who'
p52
S'served'
p53
tp54
F0.004352557127312296
s(S'also'
p55
S'member'
p56
tp57
F0.002176278563656148
s(S'head'
p58
S'[[con]]'
p59
tp60
F0.003264417845484222
s(S'was'
p61
S'posted'
p62
tp63
F0.00544069640914037
s(S'later'
p64
S'commanded'
p65
tp66
F0.001088139281828074
s(S'joined'
p67
S'[[pro]]'
p68
tp69
F0.001088139281828074
s(S'became'
p70
S'member'
p71
tp72
F0.003264417845484222
s(S'transferred'
p73
S'back'
p74
tp75
F0.002176278563656148
s(S'served'
p76
S'as'
p77
tp78
F0.01088139281828074
s(S'then'
p79
S'transferred'
p80
tp81
F0.003264417845484222
s(S'is'
p82
S'transferred'
p83
tp84
F0.001088139281828074
s(S'officer'
p85
S'in'
p86
tp87
F0.002176278563656148
s(S'until'
p88
S'returned'
p89
tp90
F0.001088139281828074
s(S'to'
p91
S'join'
p92
tp93
F0.006528835690968444
s(S'assigned'
p94
S'to'
p95
tp96
F0.008705114254624592
s(S'before'
p97
S'joined'
p98
tp99
F0.001088139281828074
s(S'served'
p100
S'then'
p101
tp102
F0.001088139281828074
s(S'been'
p103
S'commissioned'
p104
tp105
F0.002176278563656148
s(S'who'
p106
S'joined'
p107
tp108
F0.003264417845484222
s(S'member'
p109
S's'
p110
tp111
F0.001088139281828074
s(S'later'
p112
S'joined'
p113
tp114
F0.004352557127312296
s(S'joined'
p115
S'which'
p116
tp117
F0.001088139281828074
s(S'later'
p118
S'assigned'
p119
tp120
F0.001088139281828074
s(S'commanded'
p121
S'[[num]]'
p122
tp123
F0.002176278563656148
s(S'served'
p124
S'first'
p125
tp126
F0.001088139281828074
s(S'while'
p127
S'returned'
p128
tp129
F0.001088139281828074
s(S'as'
p130
S'member'
p131
tp132
F0.001088139281828074
s(S'which'
p133
S'returned'
p134
tp135
F0.001088139281828074
s(S'assigned'
p136
S'with'
p137
tp138
F0.001088139281828074
s(S'officer'
p139
S'at'
p140
tp141
F0.002176278563656148
s(S'years'
p142
S'for'
p143
tp144
F0.001088139281828074
s(S'first'
p145
S'joined'
p146
tp147
F0.003264417845484222
s(S'served'
p148
S'on'
p149
tp150
F0.009793253536452665
s(S'captain'
p151
S'in'
p152
tp153
F0.003264417845484222
s(S'officer'
p154
S'to'
p155
tp156
F0.001088139281828074
s(S'officer'
p157
S'for'
p158
tp159
F0.002176278563656148
s(S'commissioned'
p160
S'[[adj]]'
p161
tp162
F0.001088139281828074
s(S'was'
p163
S'head'
p164
tp165
F0.007616974972796518
s(S'[[con]]'
p166
S'served'
p167
tp168
F0.006528835690968444
s(S'member'
p169
S'to'
p170
tp171
F0.001088139281828074
s(S'joined'
p172
S'when'
p173
tp174
F0.001088139281828074
s(S'head'
p175
S'for'
p176
tp177
F0.002176278563656148
s(S'being'
p178
S'transferred'
p179
tp180
F0.001088139281828074
s(S'years'
p181
S'[[con]]'
p182
tp183
F0.001088139281828074
s(S'officer'
p184
S'of'
p185
tp186
F0.003264417845484222
s(S'when'
p187
S'transferred'
p188
tp189
F0.001088139281828074
s(S'transferred'
p190
S'into'
p191
tp192
F0.001088139281828074
s(S'be'
p193
S'assigned'
p194
tp195
F0.001088139281828074
s(S'[[adj]]'
p196
S'joined'
p197
tp198
F0.002176278563656148
s(S'joined'
p199
S'[[prp]]'
p200
tp201
F0.001088139281828074
s(S'is'
p202
S'head'
p203
tp204
F0.003264417845484222
s(g62
S'to'
p205
tp206
F0.002176278563656148
s(S'head'
p207
S'at'
p208
tp209
F0.009793253536452665
s(S'joined'
p210
S'with'
p211
tp212
F0.001088139281828074
s(S'rejoined'
p213
S'[[det]]'
p214
tp215
F0.003264417845484222
s(S'joined'
p216
g110
tp217
F0.001088139281828074
s(S'[[det]]'
p218
S'join'
p219
tp220
F0.001088139281828074
s(S'returned'
p221
S'to'
p222
tp223
F0.015233949945593036
s(S'[[det]]'
p224
S'officers'
p225
tp226
F0.001088139281828074
s(S'distinction'
p227
S'being'
p228
tp229
F0.001088139281828074
s(S'served'
p230
S'[[con]]'
p231
tp232
F0.00544069640914037
s(S'[[det]]'
p233
S'distinction'
p234
tp235
F0.001088139281828074
s(S'joined'
p236
S'at'
p237
tp238
F0.004352557127312296
s(S'[[con]]'
p239
S'commanded'
p240
tp241
F0.001088139281828074
s(S'then'
p242
S'head'
p243
tp244
F0.001088139281828074
s(S'then'
p245
S'served'
p246
tp247
F0.008705114254624592
s(S'member'
p248
S'of'
p249
tp250
F0.01088139281828074
s(S'[[adj]]'
p251
S'transferred'
p252
tp253
F0.001088139281828074
s(S'has'
p254
S'returned'
p255
tp256
F0.001088139281828074
s(S'years'
p257
S'[[adj]]'
p258
tp259
F0.018498367791077257
s(S'assigned'
p260
S'[[con]]'
p261
tp262
F0.001088139281828074
s(S'to'
p263
g43
tp264
F0.001088139281828074
s(S'[[adj]]'
p265
S'thbrigadesupportbattalionuunitedstatesu'
p266
tp267
F0.003264417845484222
s(S'returned'
p268
S'[[num]]'
p269
tp270
F0.001088139281828074
s(S'in'
p271
S'[[adj]]'
p272
tp273
F0.004352557127312296
s(S'also'
p274
S'served'
p275
tp276
F0.01632208922742111
s(S'member'
p277
S'during'
p278
tp279
F0.001088139281828074
s(S'was'
p280
S'seconded'
p281
tp282
F0.002176278563656148
s(S'assigned'
p283
S'[[det]]'
p284
tp285
F0.002176278563656148
s(S'of'
p286
S'served'
p287
tp288
F0.001088139281828074
s(S'member'
p289
S'when'
p290
tp291
F0.001088139281828074
s(S'member'
p292
S'on'
p293
tp294
F0.002176278563656148
s(S'is'
p295
S'returned'
p296
tp297
F0.001088139281828074
s(S'[[con]]'
p298
S'joined'
p299
tp300
F0.006528835690968444
s(S'joined'
p301
S'[[num]]'
p302
tp303
F0.002176278563656148
s(S'[[adj]]'
p304
S'[[det]]'
p305
tp306
F0.008705114254624592
s(S'officer'
p307
S'was'
p308
tp309
F0.001088139281828074
s(S'became'
p310
S'head'
p311
tp312
F0.00544069640914037
s(S'[[con]]'
p313
S'head'
p314
tp315
F0.001088139281828074
s(S'rejoined'
p316
S'[[adj]]'
p317
tp318
F0.001088139281828074
s(S'[[con]]'
p319
g213
tp320
F0.001088139281828074
s(S'member'
p321
S'has'
p322
tp323
F0.001088139281828074
s(S'member'
p324
S'at'
p325
tp326
F0.003264417845484222
s(S'returned'
p327
S'[[det]]'
p328
tp329
F0.001088139281828074
s(S'was'
p330
g73
tp331
F0.008705114254624592
s(S'[[num]]'
p332
S'years'
p333
tp334
F0.02720348204570185
s(S'in'
p335
S'took'
p336
tp337
F0.001088139281828074
s(S'returned'
p338
S'[[pro]]'
p339
tp340
F0.001088139281828074
s(S'officer'
p341
S'[[det]]'
p342
tp343
F0.001088139281828074
s(S'transferred'
p344
S'by'
p345
tp346
F0.001088139281828074
s(S'soon'
p347
S'transferred'
p348
tp349
F0.002176278563656148
s(S'join'
p350
S'[[det]]'
p351
tp352
F0.003264417845484222
s(S'later'
p353
S'join'
p354
tp355
F0.001088139281828074
s(S'[[adj]]'
p356
S'years'
p357
tp358
F0.002176278563656148
s(S'later'
p359
S'returned'
p360
tp361
F0.002176278563656148
s(S'being'
p362
S'assigned'
p363
tp364
F0.001088139281828074
s(S'joined'
p365
S'from'
p366
tp367
F0.004352557127312296
s(S'[[con]]'
p368
S'returned'
p369
tp370
F0.002176278563656148
s(S'[[adj]]'
p371
g151
tp372
F0.002176278563656148
s(S'joined'
p373
S'who'
p374
tp375
F0.001088139281828074
s(S'commissioned'
p376
S'from'
p377
tp378
F0.001088139281828074
s(S'transferred'
p379
S'to'
p380
tp381
F0.01632208922742111
s(S'[[pro]]'
p382
S'joined'
p383
tp384
F0.001088139281828074
s(g29
S'in'
p385
tp386
F0.001088139281828074
s(S'returned'
p387
S'on'
p388
tp389
F0.002176278563656148
s(S'also'
p390
S'joined'
p391
tp392
F0.001088139281828074
s(S'joined'
p393
S'before'
p394
tp395
F0.001088139281828074
s(S'member'
p396
S'as'
p397
tp398
F0.002176278563656148
s(S'served'
p399
S'[[det]]'
p400
tp401
F0.006528835690968444
s(S'[[num]]'
p402
S'transferred'
p403
tp404
F0.001088139281828074
s(S'of'
p405
S'joined'
p406
tp407
F0.001088139281828074
s(S'made'
p408
S'head'
p409
tp410
F0.002176278563656148
s(S'were'
p411
S'transferred'
p412
tp413
F0.001088139281828074
s(S'[[adj]]'
p414
S'sergeant'
p415
tp416
F0.001088139281828074
s(S'served'
p417
S'to'
p418
tp419
F0.006528835690968444
s(S'[[det]]'
p420
S'assigned'
p421
tp422
F0.001088139281828074
s(S'had'
p423
S'joined'
p424
tp425
F0.00544069640914037
s(S'then'
p426
S'assigned'
p427
tp428
F0.003264417845484222
s(S'years'
p429
S'at'
p430
tp431
F0.004352557127312296
s(S'member'
p432
S'until'
p433
tp434
F0.001088139281828074
s(S'transferred'
p435
S'where'
p436
tp437
F0.001088139281828074
s(g2
S'up'
p438
tp439
F0.002176278563656148
s(S'member'
p440
S'which'
p441
tp442
F0.001088139281828074
s(S'attached'
p443
S'to'
p444
tp445
F0.002176278563656148
s(S'first'
p446
S'served'
p447
tp448
F0.002176278563656148
s(S'commanded'
p449
S'[[adj]]'
p450
tp451
F0.001088139281828074
s(S'then'
p452
S'posted'
p453
tp454
F0.001088139281828074
s(S'[[det]]'
p455
S'served'
p456
tp457
F0.002176278563656148
s(S'matter'
p458
g263
tp459
F0.001088139281828074
s(S'served'
p460
S'with'
p461
tp462
F0.013057671381936888
s(S'was'
p463
S'returned'
p464
tp465
F0.002176278563656148
s(S'posted'
p466
S'[[det]]'
p467
tp468
F0.001088139281828074
s(S'while'
p469
S'joined'
p470
tp471
F0.001088139281828074
s(S'served'
p472
S'later'
p473
tp474
F0.001088139281828074
s(g44
S'issue'
p475
tp476
F0.001088139281828074
s(g311
S'of'
p477
tp478
F0.011969532100108813
s(S'member'
p479
S'from'
p480
tp481
F0.002176278563656148
s(S'join'
p482
S'at'
p483
tp484
F0.002176278563656148
s(S'is'
p485
S'member'
p486
tp487
F0.003264417845484222
s(S'thbrigadesupportbattalionuunitedstatesu'
p488
S'[[adj]]'
p489
tp490
F0.001088139281828074
s(S'[[adj]]'
p491
S'assigned'
p492
tp493
F0.002176278563656148
s(S'[[num]]'
p494
S'returned'
p495
tp496
F0.001088139281828074
s(S'joined'
p497
S'for'
p498
tp499
F0.001088139281828074
s(S'commissioned'
p500
S'into'
p501
tp502
F0.003264417845484222
s(S'joined'
p503
S'[[det]]'
p504
tp505
F0.023939064200217627
s(S'member'
p506
S'[[adj]]'
p507
tp508
F0.002176278563656148
s(g369
S'at'
p509
tp510
F0.003264417845484222
s(S'[[pro]]'
p511
S'served'
p512
tp513
F0.001088139281828074
s(S'years'
p514
S'of'
p515
tp516
F0.001088139281828074
s(S'[[con]]'
p517
S'transferred'
p518
tp519
F0.001088139281828074
s(S'then'
p520
S'commissioned'
p521
tp522
F0.001088139281828074
s(S'was'
p523
g443
tp524
F0.002176278563656148
s(S'has'
p525
S'commanded'
p526
tp527
F0.001088139281828074
s(S'member'
p528
S'who'
p529
tp530
F0.001088139281828074
s(S'transferred'
p531
S'[[pro]]'
p532
tp533
F0.001088139281828074
s(S'again'
p534
S'served'
p535
tp536
F0.002176278563656148
s(S'served'
p537
S'from'
p538
tp539
F0.002176278563656148
s(S'before'
p540
S'returned'
p541
tp542
F0.001088139281828074
s(S'then'
p543
S'joined'
p544
tp545
F0.011969532100108813
s(S'officer'
p546
S'with'
p547
tp548
F0.002176278563656148
s(S'has'
p549
g76
tp550
F0.015233949945593036
s(S'also'
p551
S'commanded'
p552
tp553
F0.002176278563656148
s(S'[[adj]]'
p554
g13
tp555
F0.00544069640914037
s(S'years'
p556
S'with'
p557
tp558
F0.002176278563656148
s(S'be'
p559
S'returned'
p560
tp561
F0.001088139281828074
s(S'served'
p562
S'[[adj]]'
p563
tp564
F0.004352557127312296
s(S'was'
p565
S'commissioned'
p566
tp567
F0.009793253536452665
s(S'joined'
p568
S'side'
p569
tp570
F0.003264417845484222
s(g333
S'as'
p571
tp572
F0.001088139281828074
s(S'seconded'
p573
S'to'
p574
tp575
F0.002176278563656148
s(S'served'
p576
S'at'
p577
tp578
F0.009793253536452665
s(S'also'
p579
S'assigned'
p580
tp581
F0.001088139281828074
s(S'[[num]]'
p582
S'joined'
p583
tp584
F0.001088139281828074
s(g275
S'of'
p585
tp586
F0.002176278563656148
s(S'[[num]]'
p587
S'took'
p588
tp589
F0.002176278563656148
s(S'served'
p590
S'until'
p591
tp592
F0.002176278563656148
s(S'have'
p593
S'served'
p594
tp595
F0.001088139281828074
s(S'joined'
p596
S'in'
p597
tp598
F0.001088139281828074
s(g544
S'on'
p599
tp600
F0.003264417845484222
s(S'[[adj]]'
p601
S'distinction'
p602
tp603
F0.002176278563656148
s(S'member'
p604
S'[[det]]'
p605
tp606
F0.007616974972796518
s(S'[[det]]'
p607
g432
tp608
F0.01958650707290533
s(S'years'
p609
S'later'
p610
tp611
F0.001088139281828074
s(S'joined'
p612
S'that'
p613
tp614
F0.001088139281828074
s(S'transferred'
p615
S'as'
p616
tp617
F0.003264417845484222
s(S'[[det]]'
p618
g458
tp619
F0.001088139281828074
s(S'transferred'
p620
S'after'
p621
tp622
F0.001088139281828074
s(S'assigned'
p623
S'for'
p624
tp625
F0.001088139281828074
s(S'returned'
p626
S'where'
p627
tp628
F0.001088139281828074
s(S'assigned'
p629
S'as'
p630
tp631
F0.003264417845484222
s(S'joined'
p632
S'after'
p633
tp634
F0.001088139281828074
s(S'[[adj]]'
p635
S'lieutenant'
p636
tp637
F0.001088139281828074
s(S'transferred'
p638
S'[[det]]'
p639
tp640
F0.001088139281828074
s(S'[[num]]'
p641
S'thbrigadesupportbattalionuunitedstatesu'
p642
tp643
F0.004352557127312296
s(S'soon'
p644
S'joined'
p645
tp646
F0.002176278563656148
s(S'posted'
p647
S'as'
p648
tp649
F0.001088139281828074
s(S'served'
p650
S'before'
p651
tp652
F0.003264417845484222
s(S'when'
p653
S'joined'
p654
tp655
F0.002176278563656148
s(S'in'
p656
S'[[num]]'
p657
tp658
F0.002176278563656148
s(S'since'
p659
S'returned'
p660
tp661
F0.001088139281828074
s(g167
S'for'
p662
tp663
F0.009793253536452665
s(S'[[adj]]'
p664
g587
tp665
F0.002176278563656148
s(S'being'
p666
S'commissioned'
p667
tp668
F0.002176278563656148
s(S'[[det]]'
p669
g85
tp670
F0.00544069640914037
s(S'transferred'
p671
S'with'
p672
tp673
F0.001088139281828074
s(S'posted'
p674
S'on'
p675
tp676
F0.001088139281828074
s(g464
S'by'
p677
tp678
F0.001088139281828074
s(S'lieutenant'
p679
S'in'
p680
tp681
F0.002176278563656148
s(S'where'
p682
S'joined'
p683
tp684
F0.002176278563656148
s(g566
S'as'
p685
tp686
F0.003264417845484222
s(S'returned'
p687
S'was'
p688
tp689
F0.001088139281828074
s(S'later'
p690
S'transferred'
p691
tp692
F0.002176278563656148
s(S'joined'
p693
S'becoming'
p694
tp695
F0.001088139281828074
s(S'transferred'
p696
S'at'
p697
tp698
F0.001088139281828074
s(S'served'
p699
S'again'
p700
tp701
F0.001088139281828074
s(S'served'
p702
S'becoming'
p703
tp704
F0.001088139281828074
s(S'rejoined'
p705
S'in'
p706
tp707
F0.001088139281828074
s(g415
g271
tp708
F0.00544069640914037
s(S'been'
p709
S'assigned'
p710
tp711
F0.001088139281828074
s(S'posted'
p712
S'[[num]]'
p713
tp714
F0.002176278563656148
s(S'had'
p715
S'served'
p716
tp717
F0.006528835690968444
s(S'rejoined'
p718
S'[[con]]'
p719
tp720
F0.001088139281828074
s(S'been'
p721
S'transferred'
p722
tp723
F0.001088139281828074
s(S'returned'
p724
S'once'
p725
tp726
F0.001088139281828074
s(g104
S'by'
p727
tp728
F0.003264417845484222
s(S'become'
p729
S'head'
p730
tp731
F0.002176278563656148
s(S'[[det]]'
p732
S'years'
p733
tp734
F0.001088139281828074
s(S'returned'
p735
S'for'
p736
tp737
F0.002176278563656148
s(S'with'
p738
S'joined'
p739
tp740
F0.002176278563656148
s(S'[[num]]'
p741
S'served'
p742
tp743
F0.004352557127312296
s(S'served'
p744
S'where'
p745
tp746
F0.001088139281828074
s(S'join'
p747
S'[[adj]]'
p748
tp749
F0.002176278563656148
s(g475
S'[[prp]]'
p750
tp751
F0.001088139281828074
s(g667
S'in'
p752
tp753
F0.003264417845484222
s(S'returned'
p754
S'[[con]]'
p755
tp756
F0.003264417845484222
s(S'[[con]]'
p757
S'member'
p758
tp759
F0.003264417845484222
s(g750
S'position'
p760
tp761
F0.001088139281828074
s(g760
S'as'
p762
tp763
F0.001088139281828074
s(S'be'
p764
g379
tp765
F0.001088139281828074
s(S'thbrigadesupportbattalionuunitedstatesu'
p766
S'[[num]]'
p767
tp768
F0.001088139281828074
s(S'[[adj]]'
p769
S'officers'
p770
tp771
F0.001088139281828074
s(S'member'
p772
S'[[con]]'
p773
tp774
F0.006528835690968444
s(S'[[det]]'
p775
S'sergeant'
p776
tp777
F0.004352557127312296
s(S'then'
p778
S'returned'
p779
tp780
F0.007616974972796518
s(S'served'
p781
S'now'
p782
tp783
F0.001088139281828074
s(S'to'
p784
S'head'
p785
tp786
F0.003264417845484222
s(S'joined'
p787
S'later'
p788
tp789
F0.001088139281828074
s(S'thbrigadesupportbattalionuunitedstatesu'
p790
S'[[con]]'
p791
tp792
F0.001088139281828074
s(S'was'
p793
g236
tp794
F0.004352557127312296
s(S'officers'
p795
S'of'
p796
tp797
F0.002176278563656148
s(S'[[det]]'
p798
g221
tp799
F0.001088139281828074
s(S'where'
p800
S'served'
p801
tp802
F0.002176278563656148
s(g602
S'of'
p803
tp804
F0.002176278563656148
s(S'joined'
p805
S'[[adj]]'
p806
tp807
F0.003264417845484222
s(S'took'
p808
S'[[num]]'
p809
tp810
F0.001088139281828074
s(S'member'
p811
S'for'
p812
tp813
F0.004352557127312296
s(S'served'
p814
S'there'
p815
tp816
F0.001088139281828074
s(g305
S'lieutenant'
p817
tp818
F0.002176278563656148
s(S'posted'
p819
S'[[con]]'
p820
tp821
F0.001088139281828074
s(S'[[adj]]'
p822
g576
tp823
F0.004352557127312296
s(S'again'
p824
g503
tp825
F0.002176278563656148
s(S'transferred'
p826
S'from'
p827
tp828
F0.003264417845484222
s(S'assigned'
p829
S'by'
p830
tp831
F0.001088139281828074
s(S'[[adj]]'
p832
S'took'
p833
tp834
F0.00544069640914037
s(S'member'
p835
S'[[num]]'
p836
tp837
F0.004352557127312296
s(S'has'
p838
S'joined'
p839
tp840
F0.002176278563656148
s(S'joined'
p841
S'to'
p842
tp843
F0.002176278563656148
s(S'commissioned'
p844
S'[[det]]'
p845
tp846
F0.001088139281828074
s(S'twice'
p847
S'served'
p848
tp849
F0.002176278563656148
s(S'[[det]]'
p850
S'captain'
p851
tp852
F0.002176278563656148
s(S'returned'
p853
S'with'
p854
tp855
F0.002176278563656148
s(g779
S'in'
p856
tp857
F0.001088139281828074
s(S'joined'
p858
S'de'
p859
tp860
F0.001088139281828074
s(S'[[num]]'
p861
S'member'
p862
tp863
F0.001088139281828074
s(S'returned'
p864
S'against'
p865
tp866
F0.001088139281828074
s(S'as'
p867
S'joined'
p868
tp869
F0.001088139281828074
s(S'served'
p870
S'[[num]]'
p871
tp872
F0.002176278563656148
s(S'then'
p873
g121
tp874
F0.003264417845484222
s(S'have'
p875
S'joined'
p876
tp877
F0.001088139281828074
s(S'was'
p878
g94
tp879
F0.008705114254624592
s(S'had'
p880
S'transferred'
p881
tp882
F0.003264417845484222
s(S'commissioned'
p883
S'to'
p884
tp885
F0.001088139281828074
s(S'returned'
p886
S'again'
p887
tp888
F0.001088139281828074
s(S'officer'
p889
S'[[con]]'
p890
tp891
F0.001088139281828074
s(S'again'
p892
S'returned'
p893
tp894
F0.002176278563656148
s(S'formerly'
p895
g417
tp896
F0.004352557127312296
s(g17
S'in'
p897
tp898
F0.003264417845484222
s(S'with'
p899
S'distinction'
p900
tp901
F0.001088139281828074
s(S'instead'
p902
S'joined'
p903
tp904
F0.002176278563656148
s(S'[[adj]]'
p905
g772
tp906
F0.013057671381936888
s(S'head'
p907
S'to'
p908
tp909
F0.002176278563656148
s(S'commanded'
p910
S'[[con]]'
p911
tp912
F0.001088139281828074
s(S'then'
p913
S'rejoined'
p914
tp915
F0.002176278563656148
s(g299
S'of'
p916
tp917
F0.004352557127312296
s(S'later'
p918
g230
tp919
F0.008705114254624592
s(S'was'
p920
S'served'
p921
tp922
F0.001088139281828074
s(S'[[adj]]'
p923
g139
tp924
F0.008705114254624592
s(S'join'
p925
S'[[num]]'
p926
tp927
F0.001088139281828074
s(S'served'
p928
S'in'
p929
tp930
F0.017410228509249184
s.