(dp0
(S'joined'
p1
S'then'
p2
tp3
F0.015267175572519083
s(S'joined'
p4
S'after'
p5
tp6
F0.007633587786259542
s(S'joined'
p7
S'[[con]]'
p8
tp9
F0.022900763358778626
s(S'[[num]]'
p10
S'joined'
p11
tp12
F0.007633587786259542
s(S'while'
p13
S'joined'
p14
tp15
F0.007633587786259542
s(S'joined'
p16
S'now'
p17
tp18
F0.007633587786259542
s(S'joined'
p19
S'for'
p20
tp21
F0.007633587786259542
s(S'joined'
p22
S'[[det]]'
p23
tp24
F0.16793893129770993
s(S'until'
p25
S'joined'
p26
tp27
F0.015267175572519083
s(S'with'
p28
S'joined'
p29
tp30
F0.015267175572519083
s(S'[[con]]'
p31
S'joined'
p32
tp33
F0.04580152671755725
s(S'joined'
p34
S'was'
p35
tp36
F0.007633587786259542
s(S'joined'
p37
S'[[pro]]'
p38
tp39
F0.007633587786259542
s(S'joined'
p40
S'[[num]]'
p41
tp42
F0.015267175572519083
s(S'instead'
p43
S'joined'
p44
tp45
F0.015267175572519083
s(S'then'
p46
S'joined'
p47
tp48
F0.08396946564885496
s(S'before'
p49
S'joined'
p50
tp51
F0.007633587786259542
s(S'joined'
p52
S'side'
p53
tp54
F0.022900763358778626
s(S'was'
p55
S'joined'
p56
tp57
F0.030534351145038167
s(S'joined'
p58
S'de'
p59
tp60
F0.007633587786259542
s(S'joined'
p61
S'[[adj]]'
p62
tp63
F0.022900763358778626
s(S'later'
p64
S'joined'
p65
tp66
F0.030534351145038167
s(S'joined'
p67
S'which'
p68
tp69
F0.007633587786259542
s(S'joined'
p70
S'in'
p71
tp72
F0.007633587786259542
s(S'of'
p73
S'joined'
p74
tp75
F0.007633587786259542
s(S'again'
p76
g22
tp77
F0.015267175572519083
s(S'joined'
p78
S'from'
p79
tp80
F0.030534351145038167
s(S'as'
p81
S'joined'
p82
tp83
F0.007633587786259542
s(S'joined'
p84
S'who'
p85
tp86
F0.007633587786259542
s(S'has'
p87
S'joined'
p88
tp89
F0.015267175572519083
s(S'joined'
p90
S'to'
p91
tp92
F0.015267175572519083
s(S'[[pro]]'
p93
S'joined'
p94
tp95
F0.007633587786259542
s(S'first'
p96
S'joined'
p97
tp98
F0.022900763358778626
s(S'also'
p99
S'joined'
p100
tp101
F0.007633587786259542
s(S'joined'
p102
S'before'
p103
tp104
F0.007633587786259542
s(S'who'
p105
S'joined'
p106
tp107
F0.022900763358778626
s(g47
S'on'
p108
tp109
F0.022900763358778626
s(S'joined'
p110
S'when'
p111
tp112
F0.007633587786259542
s(S'soon'
p113
S'joined'
p114
tp115
F0.015267175572519083
s(S'have'
p116
S'joined'
p117
tp118
F0.007633587786259542
s(S'had'
p119
S'joined'
p120
tp121
F0.03816793893129771
s(S'[[adj]]'
p122
S'joined'
p123
tp124
F0.015267175572519083
s(S'joined'
p125
S'[[prp]]'
p126
tp127
F0.007633587786259542
s(S'when'
p128
S'joined'
p129
tp130
F0.015267175572519083
s(S'joined'
p131
S'with'
p132
tp133
F0.007633587786259542
s(S'joined'
p134
S'that'
p135
tp136
F0.007633587786259542
s(S'joined'
p137
S's'
p138
tp139
F0.007633587786259542
s(S'where'
p140
S'joined'
p141
tp142
F0.015267175572519083
s(g32
S'of'
p143
tp144
F0.030534351145038167
s(S'joined'
p145
S'later'
p146
tp147
F0.007633587786259542
s(S'joined'
p148
S'becoming'
p149
tp150
F0.007633587786259542
s(g56
S'at'
p151
tp152
F0.030534351145038167
s.