(dp0
(S'dismissed'
p1
S'[[det]]'
p2
tp3
F0.0014367816091954023
s(S'offered'
p4
S'[[prp]]'
p5
tp6
F0.0014367816091954023
s(S'stand'
p7
S'in'
p8
tp9
F0.0028735632183908046
s(S'returned'
p10
S'[[adj]]'
p11
tp12
F0.0014367816091954023
s(S'met'
p13
S'by'
p14
tp15
F0.004310344827586207
s(S'was'
p16
S'advised'
p17
tp18
F0.0014367816091954023
s(S'appointed'
p19
S'first'
p20
tp21
F0.0014367816091954023
s(S'asks'
p22
S'if'
p23
tp24
F0.0028735632183908046
s(S'serves'
p25
S'to'
p26
tp27
F0.0028735632183908046
s(S'where'
p28
S'serves'
p29
tp30
F0.0014367816091954023
s(S'[[con]]'
p31
S'serve'
p32
tp33
F0.0014367816091954023
s(S'[[num]]'
p34
S'met'
p35
tp36
F0.0014367816091954023
s(S'requested'
p37
S'[[det]]'
p38
tp39
F0.0014367816091954023
s(S'advised'
p40
S'that'
p41
tp42
F0.0014367816091954023
s(S'[[pro]]'
p43
S'met'
p44
tp45
F0.0014367816091954023
s(S'returned'
p46
S'[[prp]]'
p47
tp48
F0.0014367816091954023
s(S'also'
p49
S'returned'
p50
tp51
F0.0028735632183908046
s(S'appointed'
p52
S'was'
p53
tp54
F0.0014367816091954023
s(S'[[pro]]'
p55
S'asks'
p56
tp57
F0.0014367816091954023
s(S'returned'
p58
S'later'
p59
tp60
F0.0014367816091954023
s(S'[[det]]'
p61
S'supporter'
p62
tp63
F0.005747126436781609
s(S'[[adj]]'
p64
S'supporter'
p65
tp66
F0.004310344827586207
s(S'was'
p67
S'formally'
p68
tp69
F0.0028735632183908046
s(S'asks'
p70
S'[[pro]]'
p71
tp72
F0.0014367816091954023
s(S'[[con]]'
p73
S'met'
p74
tp75
F0.008620689655172414
s(S'appointed'
p76
S'[[prp]]'
p77
tp78
F0.0028735632183908046
s(S'then'
p79
S'met'
p80
tp81
F0.0028735632183908046
s(S'were'
p82
S'nominated'
p83
tp84
F0.0014367816091954023
s(S'appointed'
p85
S'under'
p86
tp87
F0.0014367816091954023
s(S'presented'
p88
S'as'
p89
tp90
F0.004310344827586207
s(S'who'
p91
S'serves'
p92
tp93
F0.0014367816091954023
s(S'when'
p94
S'appointed'
p95
tp96
F0.0014367816091954023
s(S'also'
p97
S'serves'
p98
tp99
F0.0028735632183908046
s(S'[[con]]'
p100
S'presented'
p101
tp102
F0.0014367816091954023
s(S'met'
p103
S'[[prp]]'
p104
tp105
F0.0028735632183908046
s(S'returned'
p106
S'before'
p107
tp108
F0.0014367816091954023
s(S'met'
p109
S'[[num]]'
p110
tp111
F0.0014367816091954023
s(S'been'
p112
S'dismissed'
p113
tp114
F0.0028735632183908046
s(S'advised'
p115
S'[[det]]'
p116
tp117
F0.0014367816091954023
s(S'while'
p118
S'returned'
p119
tp120
F0.0014367816091954023
s(S'appointed'
p121
S'where'
p122
tp123
F0.0028735632183908046
s(S'which'
p124
S'returned'
p125
tp126
F0.0014367816091954023
s(S'[[mod]]'
p127
S'serve'
p128
tp129
F0.008620689655172414
s(S'appointed'
p130
S'in'
p131
tp132
F0.0028735632183908046
s(S'to'
p133
S'serve'
p134
tp135
F0.014367816091954023
s(S'be'
p136
S'presented'
p137
tp138
F0.0014367816091954023
s(S'have'
p139
S'met'
p140
tp141
F0.004310344827586207
s(S'[[con]]'
p142
S'requested'
p143
tp144
F0.0014367816091954023
s(S'not'
p145
S'stand'
p146
tp147
F0.0014367816091954023
s(S'is'
p148
S'appointed'
p149
tp150
F0.010057471264367816
s(S'resignation'
p151
S'as'
p152
tp153
F0.0014367816091954023
s(S'nominated'
p154
S'to'
p155
tp156
F0.004310344827586207
s(S'returned'
p157
S'under'
p158
tp159
F0.0028735632183908046
s(S'had'
p160
S'requested'
p161
tp162
F0.0014367816091954023
s(S'had'
p163
S'nominated'
p164
tp165
F0.0028735632183908046
s(S'asks'
p166
S'to'
p167
tp168
F0.0028735632183908046
s(S'also'
p169
S'appointed'
p170
tp171
F0.008620689655172414
s(S'dismissed'
p172
S'as'
p173
tp174
F0.0028735632183908046
s(S'[[con]]'
p175
S'advised'
p176
tp177
F0.0014367816091954023
s(S'which'
p178
S'nominated'
p179
tp180
F0.0014367816091954023
s(S'presented'
p181
S'[[prp]]'
p182
tp183
F0.0014367816091954023
s(S'sworn'
p184
S'in'
p185
tp186
F0.004310344827586207
s(S'nominated'
p187
S'[[adj]]'
p188
tp189
F0.0028735632183908046
s(S'when'
p190
S'met'
p191
tp192
F0.0014367816091954023
s(S'sworn'
p193
S'[[con]]'
p194
tp195
F0.0014367816091954023
s(S'during'
p196
S'[[det]]'
p197
tp198
F0.0028735632183908046
s(S'was'
p199
S'dismissed'
p200
tp201
F0.005747126436781609
s(S'stand'
p202
S'against'
p203
tp204
F0.0014367816091954023
s(S'nominated'
p205
S'with'
p206
tp207
F0.0028735632183908046
s(S'asks'
p208
S'why'
p209
tp210
F0.0014367816091954023
s(S'also'
p211
S'presented'
p212
tp213
F0.0028735632183908046
s(S'repeated'
p214
S'[[prp]]'
p215
tp216
F0.0014367816091954023
s(S'also'
p217
S'advised'
p218
tp219
F0.0028735632183908046
s(S'returned'
p220
S'while'
p221
tp222
F0.0014367816091954023
s(S'stand'
p223
S'by'
p224
tp225
F0.0014367816091954023
s(S'[[adj]]'
p226
S'presented'
p227
tp228
F0.0014367816091954023
s(S'met'
p229
S'again'
p230
tp231
F0.0014367816091954023
s(S'knighted'
p232
S'by'
p233
tp234
F0.0028735632183908046
s(S'serve'
p235
S'as'
p236
tp237
F0.007183908045977011
s(S'appointed'
p238
S'[[con]]'
p239
tp240
F0.011494252873563218
s(S'met'
p241
S'when'
p242
tp243
F0.004310344827586207
s(S'stand'
p244
S'as'
p245
tp246
F0.0014367816091954023
s(S'that'
p247
S'appointed'
p248
tp249
F0.0014367816091954023
s(g200
S'[[con]]'
p250
tp251
F0.0028735632183908046
s(S'stand'
p252
S'up'
p253
tp254
F0.004310344827586207
s(S'nominated'
p255
S'[[num]]'
p256
tp257
F0.0028735632183908046
s(S'met'
p258
S'[[pro]]'
p259
tp260
F0.0014367816091954023
s(S'is'
p261
S'returned'
p262
tp263
F0.0014367816091954023
s(S'[[adj]]'
p264
S'stand'
p265
tp266
F0.004310344827586207
s(S'asks'
p267
S'who'
p268
tp269
F0.0014367816091954023
s(S'also'
p270
S'met'
p271
tp272
F0.010057471264367816
s(S'stand'
p273
S'with'
p274
tp275
F0.0028735632183908046
s(S'nominated'
p276
S'as'
p277
tp278
F0.007183908045977011
s(S'soon'
p279
S'returned'
p280
tp281
F0.0014367816091954023
s(S'nominated'
p282
S'for'
p283
tp284
F0.01293103448275862
s(S'been'
p285
S'informed'
p286
tp287
F0.0014367816091954023
s(g197
S'reigns'
p288
tp289
F0.0028735632183908046
s(S'met'
p290
S'at'
p291
tp292
F0.0014367816091954023
s(S'serve'
p293
S'until'
p294
tp295
F0.0014367816091954023
s(S'met'
p296
S'up'
p297
tp298
F0.0028735632183908046
s(S'serve'
p299
S'in'
p300
tp301
F0.0014367816091954023
s(g212
S'by'
p302
tp303
F0.004310344827586207
s(S'had'
p304
S'met'
p305
tp306
F0.010057471264367816
s(S'dismissed'
p307
S'by'
p308
tp309
F0.004310344827586207
s(S'met'
p310
S'while'
p311
tp312
F0.004310344827586207
s(S'met'
p313
S'after'
p314
tp315
F0.0014367816091954023
s(S'that'
p316
S'returned'
p317
tp318
F0.0014367816091954023
s(S'was'
p319
S'met'
p320
tp321
F0.0028735632183908046
s(S'instead'
p322
S'appointed'
p323
tp324
F0.0028735632183908046
s(S'returned'
p325
S'when'
p326
tp327
F0.0014367816091954023
s(S'again'
p328
S'nominated'
p329
tp330
F0.0028735632183908046
s(S'nominated'
p331
S'twice'
p332
tp333
F0.004310344827586207
s(g134
S'[[adj]]'
p334
tp335
F0.0014367816091954023
s(S'appointed'
p336
S'[[num]]'
p337
tp338
F0.0014367816091954023
s(S'soon'
p339
S'met'
p340
tp341
F0.0028735632183908046
s(S'nominated'
p342
S'on'
p343
tp344
F0.004310344827586207
s(S'serve'
p345
S'[[num]]'
p346
tp347
F0.0014367816091954023
s(S'stand'
p348
S'for'
p349
tp350
F0.0014367816091954023
s(S'had'
p351
S'advised'
p352
tp353
F0.0014367816091954023
s(S'nominated'
p354
S'[[pro]]'
p355
tp356
F0.0014367816091954023
s(S'serves'
p357
S'[[con]]'
p358
tp359
F0.004310344827586207
s(S'presented'
p360
S'[[con]]'
p361
tp362
F0.0028735632183908046
s(g68
S'appointed'
p363
tp364
F0.0028735632183908046
s(S'knighted'
p365
S'[[con]]'
p366
tp367
F0.0014367816091954023
s(S'after'
p368
S'met'
p369
tp370
F0.0014367816091954023
s(S'returned'
p371
S'becoming'
p372
tp373
F0.0014367816091954023
s(S'appointed'
p374
S'by'
p375
tp376
F0.021551724137931036
s(S'was'
p377
S'appointed'
p378
tp379
F0.020114942528735632
s(S'later'
p380
S'serve'
p381
tp382
F0.0014367816091954023
s(S'is'
p383
S'informed'
p384
tp385
F0.0014367816091954023
s(S'appointed'
p386
S'before'
p387
tp388
F0.0014367816091954023
s(S'be'
p389
g282
tp390
F0.0028735632183908046
s(S'served'
p391
g196
tp392
F0.0028735632183908046
s(S'advised'
p393
S'[[pro]]'
p394
tp395
F0.0014367816091954023
s(S'first'
p396
S'met'
p397
tp398
F0.008620689655172414
s(S'is'
p399
S'nominated'
p400
tp401
F0.0028735632183908046
s(S'being'
p402
S'appointed'
p403
tp404
F0.007183908045977011
s(S'[[det]]'
p405
S'nominated'
p406
tp407
F0.0014367816091954023
s(S'nominated'
p408
S'at'
p409
tp410
F0.0028735632183908046
s(S'[[con]]'
p411
S'informed'
p412
tp413
F0.0014367816091954023
s(S'again'
p414
S'appointed'
p415
tp416
F0.004310344827586207
s(S'serve'
p417
S'[[con]]'
p418
tp419
F0.0014367816091954023
s(S'met'
p420
S'from'
p421
tp422
F0.0014367816091954023
s(S'was'
p423
S'returned'
p424
tp425
F0.004310344827586207
s(S'appointed'
p426
S'with'
p427
tp428
F0.0028735632183908046
s(S'later'
p429
S'met'
p430
tp431
F0.0028735632183908046
s(S'also'
p432
S'serve'
p433
tp434
F0.0014367816091954023
s(S'advised'
p435
S'to'
p436
tp437
F0.0014367816091954023
s(S'is'
p438
g88
tp439
F0.0014367816091954023
s(S'met'
p440
S'[[adj]]'
p441
tp442
F0.005747126436781609
s(S'later'
p443
S'appointed'
p444
tp445
F0.008620689655172414
s(S'again'
p446
S'returned'
p447
tp448
F0.0014367816091954023
s(S'nominated'
p449
S'again'
p450
tp451
F0.0014367816091954023
s(S'has'
p452
S'presented'
p453
tp454
F0.0028735632183908046
s(S'serve'
p455
S'to'
p456
tp457
F0.0028735632183908046
s(S'has'
p458
S'returned'
p459
tp460
F0.0014367816091954023
s(S'be'
p461
S'appointed'
p462
tp463
F0.008620689655172414
s(S'[[con]]'
p464
S'asks'
p465
tp466
F0.0014367816091954023
s(S'serve'
p467
S'[[det]]'
p468
tp469
F0.0014367816091954023
s(S'twice'
p470
S'nominated'
p471
tp472
F0.005747126436781609
s(S'returned'
p473
S'with'
p474
tp475
F0.004310344827586207
s(S'later'
p476
S'returned'
p477
tp478
F0.0028735632183908046
s(S'nominated'
p479
S'[[det]]'
p480
tp481
F0.005747126436781609
s(S'appointed'
p482
S'[[det]]'
p483
tp484
F0.017241379310344827
s(S'met'
p485
S'where'
p486
tp487
F0.0014367816091954023
s(S'met'
p488
S'with'
p489
tp490
F0.014367816091954023
s(S'[[num]]'
p491
S'returned'
p492
tp493
F0.0014367816091954023
s(g65
S'of'
p494
tp495
F0.004310344827586207
s(S'which'
p496
S'met'
p497
tp498
F0.0014367816091954023
s(S'met'
p499
S'who'
p500
tp501
F0.0014367816091954023
s(S'when'
p502
S'asks'
p503
tp504
F0.0014367816091954023
s(S'appointed'
p505
S'[[adj]]'
p506
tp507
F0.004310344827586207
s(S'whom'
p508
S'met'
p509
tp510
F0.0014367816091954023
s(S'was'
p511
g232
tp512
F0.004310344827586207
s(S'asks'
p513
S'[[con]]'
p514
tp515
F0.0014367816091954023
s(S'asks'
p516
S'[[prp]]'
p517
tp518
F0.0014367816091954023
s(S'has'
p519
S'met'
p520
tp521
F0.004310344827586207
s(g453
S'[[det]]'
p522
tp523
F0.0028735632183908046
s(S'returned'
p524
S'where'
p525
tp526
F0.0028735632183908046
s(S'later'
p527
S'asks'
p528
tp529
F0.0014367816091954023
s(S'informed'
p530
S'[[pro]]'
p531
tp532
F0.0014367816091954023
s(S'had'
p533
S'informed'
p534
tp535
F0.0014367816091954023
s(S'met'
p536
S'[[det]]'
p537
tp538
F0.010057471264367816
s(S'serves'
p539
S'with'
p540
tp541
F0.0014367816091954023
s(S'tendered'
p542
S'[[prp]]'
p543
tp544
F0.0028735632183908046
s(S'stand'
p545
S'[[det]]'
p546
tp547
F0.0014367816091954023
s(S'[[con]]'
p548
S'appointed'
p549
tp550
F0.005747126436781609
s(g378
S'after'
p551
tp552
F0.0028735632183908046
s(g384
S'by'
p553
tp554
F0.004310344827586207
s(S'who'
p555
S'met'
p556
tp557
F0.0014367816091954023
s(g288
S'of'
p558
tp559
F0.0028735632183908046
s(S'serve'
p560
S'after'
p561
tp562
F0.0014367816091954023
s(S'requested'
p563
S'that'
p564
tp565
F0.0028735632183908046
s(S'[[pro]]'
p566
S'returned'
p567
tp568
F0.0014367816091954023
s(S'was'
p569
S'informed'
p570
tp571
F0.005747126436781609
s(S'also'
p572
S'nominated'
p573
tp574
F0.01293103448275862
s(S'until'
p575
S'returned'
p576
tp577
F0.0014367816091954023
s(S'[[adj]]'
p578
S'met'
p579
tp580
F0.004310344827586207
s(S'[[con]]'
p581
g473
tp582
F0.005747126436781609
s(g549
S'as'
p583
tp584
F0.020114942528735632
s(S'has'
p585
S'advised'
p586
tp587
F0.0014367816091954023
s(g262
S'to'
p588
tp589
F0.0014367816091954023
s(S'that'
p590
S'requested'
p591
tp592
F0.0014367816091954023
s(S'serve'
p593
S'when'
p594
tp595
F0.0014367816091954023
s(S'advised'
p596
S'[[con]]'
p597
tp598
F0.0014367816091954023
s(S'[[num]]'
p599
S'appointed'
p600
tp601
F0.0028735632183908046
s(S'had'
p602
S'returned'
p603
tp604
F0.0014367816091954023
s(S'stand'
p605
S'down'
p606
tp607
F0.0014367816091954023
s(S'that'
p608
S'met'
p609
tp610
F0.0014367816091954023
s(S'returned'
p611
S'on'
p612
tp613
F0.0014367816091954023
s(S'returned'
p614
S'was'
p615
tp616
F0.0014367816091954023
s(S'nominated'
p617
S'[[con]]'
p618
tp619
F0.007183908045977011
s(S'is'
p620
S'sworn'
p621
tp622
F0.0014367816091954023
s(S'presented'
p623
S'[[pro]]'
p624
tp625
F0.0014367816091954023
s(S'returned'
p626
S'that'
p627
tp628
F0.0014367816091954023
s(S'where'
p629
g488
tp630
F0.007183908045977011
s(S'asks'
p631
S'what'
p632
tp633
F0.0014367816091954023
s(S'now'
p634
S'serves'
p635
tp636
F0.004310344827586207
s(S'returned'
p637
S'as'
p638
tp639
F0.005747126436781609
s(S'when'
p640
S'presented'
p641
tp642
F0.0014367816091954023
s(S'[[con]]'
p643
S'supporter'
p644
tp645
F0.0028735632183908046
s(S'asks'
p646
S'how'
p647
tp648
F0.0014367816091954023
s(S'[[con]]'
p649
S'nominated'
p650
tp651
F0.0014367816091954023
s(S'asks'
p652
S'about'
p653
tp654
F0.0014367816091954023
s(S'appointed'
p655
S'[[pro]]'
p656
tp657
F0.0028735632183908046
s(S'requested'
p658
S'by'
p659
tp660
F0.0028735632183908046
s(S'then'
p661
g238
tp662
F0.008620689655172414
s(S'returned'
p663
S'[[con]]'
p664
tp665
F0.0028735632183908046
s(S'[[adj]]'
p666
S'appointed'
p667
tp668
F0.0028735632183908046
s(S'nominated'
p669
S'by'
p670
tp671
F0.008620689655172414
s(S'never'
p672
S'met'
p673
tp674
F0.0014367816091954023
s(S'met'
p675
S'as'
p676
tp677
F0.0014367816091954023
s(S'being'
p678
S'nominated'
p679
tp680
F0.0014367816091954023
s(S'resignation'
p681
S'to'
p682
tp683
F0.0028735632183908046
s(S'was'
p684
g193
tp685
F0.004310344827586207
s(S'after'
p686
S'returned'
p687
tp688
F0.0014367816091954023
s(S'returned'
p689
S'for'
p690
tp691
F0.0014367816091954023
s(S'requested'
p692
S'[[con]]'
p693
tp694
F0.0014367816091954023
s(S'currently'
p695
S'serves'
p696
tp697
F0.005747126436781609
s(S'serves'
p698
S'as'
p699
tp700
F0.010057471264367816
s(S'then'
p701
S'returned'
p702
tp703
F0.004310344827586207
s(S'[[con]]'
p704
S'dismissed'
p705
tp706
F0.0014367816091954023
s(S'[[mod]]'
p707
S'stand'
p708
tp709
F0.0014367816091954023
s(S'then'
p710
S'asks'
p711
tp712
F0.004310344827586207
s(S'was'
p713
S'presented'
p714
tp715
F0.008620689655172414
s(S'met'
p716
S'[[con]]'
p717
tp718
F0.01293103448275862
s(S'had'
p719
S'appointed'
p720
tp721
F0.007183908045977011
s(S'returned'
p722
S'again'
p723
tp724
F0.0014367816091954023
s(S'nominated'
p725
S'of'
p726
tp727
F0.0014367816091954023
s(S'serve'
p728
S'with'
p729
tp730
F0.0014367816091954023
s(S'nominated'
p731
S'in'
p732
tp733
F0.005747126436781609
s(S'returned'
p734
S'by'
p735
tp736
F0.0014367816091954023
s(S'been'
p737
S'appointed'
p738
tp739
F0.005747126436781609
s(g5
g681
tp740
F0.004310344827586207
s(g17
S'by'
p741
tp742
F0.004310344827586207
s(S'[[det]]'
p743
S'met'
p744
tp745
F0.0014367816091954023
s(S'is'
p746
g13
tp747
F0.0014367816091954023
s(S'returned'
p748
S'after'
p749
tp750
F0.0014367816091954023
s(S'asks'
p751
S'[[det]]'
p752
tp753
F0.0014367816091954023
s(S'informed'
p754
S'[[det]]'
p755
tp756
F0.0014367816091954023
s(g137
S'to'
p757
tp758
F0.004310344827586207
s(S'knighted'
p759
S'in'
p760
tp761
F0.0014367816091954023
s(g305
S'through'
p762
tp763
F0.0028735632183908046
s(S'appointed'
p764
S'when'
p765
tp766
F0.0028735632183908046
s(S'supporter'
p767
S'[[con]]'
p768
tp769
F0.0028735632183908046
s(S'been'
p770
g669
tp771
F0.015804597701149427
s(g714
S'with'
p772
tp773
F0.005747126436781609
s(g128
S'under'
p774
tp775
F0.0028735632183908046
s(S'informed'
p776
S'of'
p777
tp778
F0.0028735632183908046
s(S'asks'
p779
S'for'
p780
tp781
F0.0014367816091954023
s(g720
S'to'
p782
tp783
F0.008620689655172414
s(S'supporter'
p784
S'[[det]]'
p785
tp786
F0.0014367816091954023
s(S'first'
p787
g764
tp788
F0.005747126436781609
s(S'presented'
p789
S'[[adj]]'
p790
tp791
F0.0014367816091954023
s(S'stand'
p792
S'at'
p793
tp794
F0.0014367816091954023
s(S'[[det]]'
p795
S'appointed'
p796
tp797
F0.004310344827586207
s(S'appointed'
p798
S'of'
p799
tp800
F0.0014367816091954023
s(S'were'
p801
S'appointed'
p802
tp803
F0.0028735632183908046
s(S'who'
p804
S'appointed'
p805
tp806
F0.0014367816091954023
s(S'when'
p807
S'returned'
p808
tp809
F0.0014367816091954023
s(S'to'
p810
g202
tp811
F0.01293103448275862
s(S'[[con]]'
p812
S'serves'
p813
tp814
F0.0028735632183908046
s(S'[[con]]'
p815
S'stand'
p816
tp817
F0.0014367816091954023
s(S'was'
p818
S'requested'
p819
tp820
F0.0014367816091954023
s(S'was'
p821
S'nominated'
p822
tp823
F0.022988505747126436
s(S'before'
p824
S'returned'
p825
tp826
F0.0014367816091954023
s(S'so'
p827
S'returned'
p828
tp829
F0.0014367816091954023
s(S'later'
p830
S'served'
p831
tp832
F0.0014367816091954023
s(S'informed'
p833
S'[[con]]'
p834
tp835
F0.0014367816091954023
s(S'informed'
p836
S'that'
p837
tp838
F0.0028735632183908046
s.