(dp0
(S'highest'
p1
S'[[adj]]'
p2
tp3
F0.025974025974025976
s(S'lies'
p4
S'near'
p5
tp6
F0.012987012987012988
s(S'fell'
p7
S'behind'
p8
tp9
F0.012987012987012988
s(S'[[adj]]'
p10
S'peak'
p11
tp12
F0.03896103896103896
s(S'highest'
p13
S'peak'
p14
tp15
F0.09090909090909091
s(S'stands'
p16
S'to'
p17
tp18
F0.012987012987012988
s(S'peak'
p19
S'in'
p20
tp21
F0.025974025974025976
s(S'stands'
p22
S'up'
p23
tp24
F0.012987012987012988
s(S'[[det]]'
p25
S'highest'
p26
tp27
F0.09090909090909091
s(S'soon'
p28
S'fell'
p29
tp30
F0.012987012987012988
s(S'fell'
p31
S'on'
p32
tp33
F0.012987012987012988
s(S'fell'
p34
S'after'
p35
tp36
F0.012987012987012988
s(S'[[adj]]'
p37
S'mountain'
p38
tp39
F0.025974025974025976
s(S'fell'
p40
S'out'
p41
tp42
F0.012987012987012988
s(S'fell'
p43
S'for'
p44
tp45
F0.012987012987012988
s(S'fell'
p46
S'down'
p47
tp48
F0.012987012987012988
s(S'fell'
p49
S'to'
p50
tp51
F0.012987012987012988
s(S'fell'
p52
S'off'
p53
tp54
F0.012987012987012988
s(S'after'
p55
S'fell'
p56
tp57
F0.012987012987012988
s(S'peak'
p58
S'of'
p59
tp60
F0.05194805194805195
s(S'[[det]]'
p61
S'stratovolcano'
p62
tp63
F0.012987012987012988
s(S'fell'
p64
S'in'
p65
tp66
F0.012987012987012988
s(S'stands'
p67
S'with'
p68
tp69
F0.012987012987012988
s(S'stands'
p70
S'in'
p71
tp72
F0.012987012987012988
s(S'highest'
p73
S'[[con]]'
p74
tp75
F0.012987012987012988
s(S'[[con]]'
p76
S'stands'
p77
tp78
F0.012987012987012988
s(S'fell'
p79
S'with'
p80
tp81
F0.025974025974025976
s(S'[[adj]]'
p82
S'volcano'
p83
tp84
F0.012987012987012988
s(S'lies'
p85
S'in'
p86
tp87
F0.012987012987012988
s(S'fell'
p88
S'as'
p89
tp90
F0.012987012987012988
s(S'when'
p91
S'fell'
p92
tp93
F0.012987012987012988
s(S'[[det]]'
p94
S'mountain'
p95
tp96
F0.025974025974025976
s(S'mountain'
p97
S'of'
p98
tp99
F0.012987012987012988
s(S'located'
p100
S'in'
p101
tp102
F0.012987012987012988
s(S'fell'
p103
S'under'
p104
tp105
F0.012987012987012988
s(S'[[con]]'
p106
S'fell'
p107
tp108
F0.012987012987012988
s(S'[[adj]]'
p109
g13
tp110
F0.06493506493506493
s(S'highest'
p111
S'mountain'
p112
tp113
F0.03896103896103896
s(S'mountain'
p114
S'in'
p115
tp116
F0.012987012987012988
s(S'as'
p117
S'fell'
p118
tp119
F0.012987012987012988
s(S'fell'
p120
S'from'
p121
tp122
F0.012987012987012988
s(S'fell'
p123
S'[[con]]'
p124
tp125
F0.012987012987012988
s(g62
g100
tp126
F0.012987012987012988
s(S'stands'
p127
S'at'
p128
tp129
F0.012987012987012988
s(S'lies'
p130
S'[[con]]'
p131
tp132
F0.012987012987012988
s(S'fell'
p133
S'[[adj]]'
p134
tp135
F0.012987012987012988
s(g74
S'[[adj]]'
p136
tp137
F0.012987012987012988
s(S'stands'
p138
S'[[con]]'
p139
tp140
F0.012987012987012988
s(S'[[det]]'
p141
S'fell'
p142
tp143
F0.012987012987012988
s.