(dp0
(S'released'
p1
S'after'
p2
tp3
F0.0007369196757553427
s(S'were'
p4
S'written'
p5
tp6
F0.0007369196757553427
s(S'be'
p7
S'taken'
p8
tp9
F0.0007369196757553427
s(S'not'
p10
S'released'
p11
tp12
F0.0029476787030213707
s(S'[[det]]'
p13
S'country'
p14
tp15
F0.0007369196757553427
s(S'lead'
p16
S'[[adj]]'
p17
tp18
F0.0007369196757553427
s(S'[[adj]]'
p19
S'recorded'
p20
tp21
F0.0014738393515106854
s(S'[[adj]]'
p22
g1
tp23
F0.013264554163596167
s(S'also'
p24
S'included'
p25
tp26
F0.0007369196757553427
s(S'from'
p27
S'[[det]]'
p28
tp29
F0.0014738393515106854
s(S'song'
p30
S's'
p31
tp32
F0.0007369196757553427
s(S'taken'
p33
S'[[con]]'
p34
tp35
F0.0007369196757553427
s(S'[[num]]'
p36
S'performed'
p37
tp38
F0.0007369196757553427
s(S'compilation'
p39
S'album'
p40
tp41
F0.002210759027266028
s(S'[[det]]'
p42
S'title'
p43
tp44
F0.0058953574060427415
s(S'that'
p45
S'recorded'
p46
tp47
F0.0007369196757553427
s(S'song'
p48
S'[[mod]]'
p49
tp50
F0.0007369196757553427
s(g11
S'as'
p51
tp52
F0.005158437730287398
s(S'[[adj]]'
p53
S'group'
p54
tp55
F0.0007369196757553427
s(S'sung'
p56
S'by'
p57
tp58
F0.0036845983787767134
s(S'alternative'
p59
S'rock'
p60
tp61
F0.0058953574060427415
s(S'[[adj]]'
p62
S'sung'
p63
tp64
F0.0007369196757553427
s(S'was'
p65
S'performed'
p66
tp67
F0.004421518054532056
s(S'features'
p68
S'[[det]]'
p69
tp70
F0.0007369196757553427
s(S'hit'
p71
S'[[con]]'
p72
tp73
F0.0007369196757553427
s(S'rock'
p74
S'singer'
p75
tp76
F0.0007369196757553427
s(S'song'
p77
S'released'
p78
tp79
F0.0014738393515106854
s(g8
S'from'
p80
tp81
F0.0014738393515106854
s(S'been'
p82
S'recorded'
p83
tp84
F0.0029476787030213707
s(S'as'
p85
S'[[det]]'
p86
tp87
F0.0014738393515106854
s(S'[[det]]'
p88
S'album'
p89
tp90
F0.010316875460574797
s(S'song'
p91
S'with'
p92
tp93
F0.0007369196757553427
s(S'[[det]]'
p94
S'thrash'
p95
tp96
F0.0007369196757553427
s(S'[[num]]'
p97
S'[[con]]'
p98
tp99
F0.0007369196757553427
s(S'rock'
p100
S'song'
p101
tp102
F0.002210759027266028
s(S'songs'
p103
S'by'
p104
tp105
F0.0007369196757553427
s(S'was'
p106
S'included'
p107
tp108
F0.002210759027266028
s(S'was'
p109
S'written'
p110
tp111
F0.011790714812085483
s(S'[[det]]'
p112
S'songs'
p113
tp114
F0.0007369196757553427
s(S'song'
p115
S'performed'
p116
tp117
F0.005158437730287398
s(S'[[det]]'
p118
S'band'
p119
tp120
F0.008843036109064112
s(S'be'
p121
S'written'
p122
tp123
F0.0007369196757553427
s(S'taken'
p124
S'over'
p125
tp126
F0.0007369196757553427
s(S'later'
p127
S'performed'
p128
tp129
F0.0007369196757553427
s(S'from'
p130
S'band'
p131
tp132
F0.0007369196757553427
s(S'[[adj]]'
p133
S'duo'
p134
tp135
F0.0007369196757553427
s(S'[[adj]]'
p136
S'metal'
p137
tp138
F0.008843036109064112
s(S'[[adj]]'
p139
S'composed'
p140
tp141
F0.0007369196757553427
s(S'punk'
p142
S'band'
p143
tp144
F0.0007369196757553427
s(S'taken'
p145
S'[[num]]'
p146
tp147
F0.0007369196757553427
s(S'by'
p148
S'thrash'
p149
tp150
F0.0007369196757553427
s(S'of'
p151
S'songs'
p152
tp153
F0.0007369196757553427
s(S'from'
p154
S'debut'
p155
tp156
F0.0014738393515106854
s(S'is'
p157
S'debut'
p158
tp159
F0.0007369196757553427
s(S'[[adj]]'
p160
S'rock'
p161
tp162
F0.009579955784819455
s(S'from'
p163
S'album'
p164
tp165
F0.005158437730287398
s(S'hit'
p166
S'by'
p167
tp168
F0.0007369196757553427
s(S'[[num]]'
p169
S'song'
p170
tp171
F0.006632277081798084
s(S'been'
p172
S'released'
p173
tp174
F0.0007369196757553427
s(S'was'
p175
S'hit'
p176
tp177
F0.0007369196757553427
s(S'death'
p178
S'metal'
p179
tp180
F0.006632277081798084
s(S'by'
p181
S'indie'
p182
tp183
F0.004421518054532056
s(S'[[det]]'
p184
S'debut'
p185
tp186
F0.009579955784819455
s(S'[[adj]]'
p187
S'studio'
p188
tp189
F0.017686072218128224
s(S'of'
p190
S'hits'
p191
tp192
F0.0007369196757553427
s(S'produced'
p193
S'by'
p194
tp195
F0.004421518054532056
s(g31
S'released'
p196
tp197
F0.0007369196757553427
s(S'ends'
p198
S'with'
p199
tp200
F0.0007369196757553427
s(S'country'
p201
S'singer'
p202
tp203
F0.0014738393515106854
s(S'performed'
p204
S'from'
p205
tp206
F0.0007369196757553427
s(g31
S'written'
p207
tp208
F0.0007369196757553427
s(S'by'
p209
S'musician'
p210
tp211
F0.0007369196757553427
s(S'by'
p212
g59
tp213
F0.0036845983787767134
s(S'known'
p214
S'is'
p215
tp216
F0.0014738393515106854
s(S'released'
p217
S'from'
p218
tp219
F0.0029476787030213707
s(S'written'
p220
S'[[con]]'
p221
tp222
F0.016212232866617538
s(S'song'
p223
S'pop'
p224
tp225
F0.0007369196757553427
s(S'[[adj]]'
p226
S'album'
p227
tp228
F0.020633750921149593
s(S'title'
p229
S'[[con]]'
p230
tp231
F0.0014738393515106854
s(S'features'
p232
S'[[adj]]'
p233
tp234
F0.0007369196757553427
s(S'[[con]]'
p235
S'is'
p236
tp237
F0.0007369196757553427
s(S'singer'
p238
S'written'
p239
tp240
F0.0007369196757553427
s(S'released'
p241
S'by'
p242
tp243
F0.021370670596904937
s(S'was'
p244
S'composed'
p245
tp246
F0.0007369196757553427
s(S'[[det]]'
p247
g178
tp248
F0.002210759027266028
s(g188
S'album'
p249
tp250
F0.01915991156963891
s(S'song'
p251
S'from'
p252
tp253
F0.0014738393515106854
s(S'also'
p254
g214
tp255
F0.0014738393515106854
s(S'written'
p256
S'for'
p257
tp258
F0.0029476787030213707
s(S'debut'
p259
S'studio'
p260
tp261
F0.0007369196757553427
s(S'written'
p262
S'as'
p263
tp264
F0.0007369196757553427
s(S'performed'
p265
S'[[adj]]'
p266
tp267
F0.0014738393515106854
s(S'[[det]]'
p268
S'metal'
p269
tp270
F0.0007369196757553427
s(S'later'
p271
S'recorded'
p272
tp273
F0.0007369196757553427
s(S'[[num]]'
p274
S'written'
p275
tp276
F0.0014738393515106854
s(S'were'
p277
S'released'
p278
tp279
F0.0007369196757553427
s(S'[[adj]]'
p280
S'track'
p281
tp282
F0.0007369196757553427
s(S'song'
p283
S'composed'
p284
tp285
F0.002210759027266028
s(S'[[det]]'
p286
S'musician'
p287
tp288
F0.0007369196757553427
s(S'released'
p289
S'with'
p290
tp291
F0.0014738393515106854
s(S'song'
p292
S'on'
p293
tp294
F0.0007369196757553427
s(S'hit'
p295
S'on'
p296
tp297
F0.0007369196757553427
s(S'[[det]]'
p298
S'rock'
p299
tp300
F0.0058953574060427415
s(S'recorded'
p301
S'during'
p302
tp303
F0.0007369196757553427
s(S'by'
p304
g160
tp305
F0.02431834929992631
s(S'[[det]]'
p306
S'power'
p307
tp308
F0.0014738393515106854
s(S'[[num]]'
p309
S'album'
p310
tp311
F0.0014738393515106854
s(S'from'
p312
S'rock'
p313
tp314
F0.0014738393515106854
s(S'by'
p315
S'singer'
p316
tp317
F0.007369196757553427
s(S'songs'
p318
S'[[con]]'
p319
tp320
F0.0007369196757553427
s(S'on'
p321
S'[[det]]'
p322
tp323
F0.0007369196757553427
s(S'recorded'
p324
S'by'
p325
tp326
F0.02210759027266028
s(g236
S'composed'
p327
tp328
F0.0014738393515106854
s(g98
S'number'
p329
tp330
F0.0007369196757553427
s(S'country'
p331
S'artist'
p332
tp333
F0.0007369196757553427
s(S'written'
p334
S'in'
p335
tp336
F0.0007369196757553427
s(S'as'
p337
S'performed'
p338
tp339
F0.0007369196757553427
s(S'[[adj]]'
p340
S'performed'
p341
tp342
F0.0007369196757553427
s(S'[[con]]'
p343
S'was'
p344
tp345
F0.0007369196757553427
s(S'rock'
p346
S'musician'
p347
tp348
F0.0007369196757553427
s(S'performed'
p349
S'with'
p350
tp351
F0.0014738393515106854
s(S'debut'
p352
S'of'
p353
tp354
F0.0007369196757553427
s(S'[[adj]]'
p355
S'length'
p356
tp357
F0.0007369196757553427
s(S'is'
p358
S'written'
p359
tp360
F0.0014738393515106854
s(g110
S'by'
p361
tp362
F0.02210759027266028
s(S'not'
p363
S'included'
p364
tp365
F0.0007369196757553427
s(S'that'
p366
g109
tp367
F0.0007369196757553427
s(S'is'
p368
S'[[adj]]'
p369
tp370
F0.0007369196757553427
s(g83
S'[[con]]'
p371
tp372
F0.0007369196757553427
s(S'[[det]]'
p373
S'recorded'
p374
tp375
F0.0007369196757553427
s(S'written'
p376
S'after'
p377
tp378
F0.0007369196757553427
s(S'also'
p379
S'released'
p380
tp381
F0.002210759027266028
s(g43
S'of'
p382
tp383
F0.004421518054532056
s(S'by'
p384
S'power'
p385
tp386
F0.0029476787030213707
s(S'singer'
p387
S'[[con]]'
p388
tp389
F0.0014738393515106854
s(S'singer'
p390
S'in'
p391
tp392
F0.0007369196757553427
s(S'by'
p393
S'released'
p394
tp395
F0.0007369196757553427
s(S'that'
p396
S'released'
p397
tp398
F0.0007369196757553427
s(S'[[adj]]'
p399
S'taken'
p400
tp401
F0.0007369196757553427
s(S'taken'
p402
S'[[det]]'
p403
tp404
F0.0007369196757553427
s(g382
S'[[det]]'
p405
tp406
F0.004421518054532056
s(S'song'
p407
S'in'
p408
tp409
F0.0007369196757553427
s(S'recorded'
p410
S'as'
p411
tp412
F0.0014738393515106854
s(S'[[con]]'
p413
S'performed'
p414
tp415
F0.002210759027266028
s(S'released'
p416
S'which'
p417
tp418
F0.0014738393515106854
s(S'also'
p419
S'sung'
p420
tp421
F0.0007369196757553427
s(S'be'
p422
S'released'
p423
tp424
F0.004421518054532056
s(S'is'
p425
g56
tp426
F0.0014738393515106854
s(S'pop'
p427
S'singer'
p428
tp429
F0.0029476787030213707
s(S'later'
p430
S'released'
p431
tp432
F0.0014738393515106854
s(S'[[det]]'
p433
g16
tp434
F0.0007369196757553427
s(S'hit'
p435
S'for'
p436
tp437
F0.0029476787030213707
s(S'country'
p438
S'music'
p439
tp440
F0.01105379513633014
s(S'released'
p441
S'is'
p442
tp443
F0.0007369196757553427
s(S'had'
p444
S'recorded'
p445
tp446
F0.0007369196757553427
s(S'for'
p447
S'album'
p448
tp449
F0.0007369196757553427
s(S'been'
p450
S'included'
p451
tp452
F0.0007369196757553427
s(S'[[adj]]'
p453
S'band'
p454
tp455
F0.0058953574060427415
s(S'song'
p456
S'[[det]]'
p457
tp458
F0.0014738393515106854
s(S'by'
p459
S'rapper'
p460
tp461
F0.0014738393515106854
s(g182
S'rock'
p462
tp463
F0.004421518054532056
s(S'been'
p464
S'performed'
p465
tp466
F0.0007369196757553427
s(S'[[adj]]'
p467
S'hit'
p468
tp469
F0.0014738393515106854
s(S'song'
p470
S'[[adj]]'
p471
tp472
F0.0007369196757553427
s(g20
S'in'
p473
tp474
F0.0007369196757553427
s(S'song'
p475
S'by'
p476
tp477
F0.03021370670596905
s(S'album'
p478
S'by'
p479
tp480
F0.051584377302873984
s(S'[[adj]]'
p481
S'death'
p482
tp483
F0.002210759027266028
s(S'was'
p484
S'sung'
p485
tp486
F0.002210759027266028
s(S'by'
p487
S'singersongwriter'
p488
tp489
F0.0007369196757553427
s(S'features'
p490
S'[[con]]'
p491
tp492
F0.0014738393515106854
s(g17
S'from'
p493
tp494
F0.0007369196757553427
s(S'song'
p495
g324
tp496
F0.0058953574060427415
s(S'[[adj]]'
p497
S'pop'
p498
tp499
F0.0014738393515106854
s(S'of'
p500
S'singles'
p501
tp502
F0.0007369196757553427
s(S'features'
p503
S'[[num]]'
p504
tp505
F0.0007369196757553427
s(S'pop'
p506
S'song'
p507
tp508
F0.0029476787030213707
s(S'released'
p509
S'on'
p510
tp511
F0.0029476787030213707
s(S'is'
p512
g349
tp513
F0.0007369196757553427
s(g498
S'group'
p514
tp515
F0.002210759027266028
s(S'[[det]]'
p516
S'singer'
p517
tp518
F0.002210759027266028
s(S'[[adj]]'
p519
g352
tp520
F0.0007369196757553427
s(S'taken'
p521
S'by'
p522
tp523
F0.0007369196757553427
s(S'[[con]]'
p524
S'written'
p525
tp526
F0.002210759027266028
s(g325
g427
tp527
F0.0036845983787767134
s(S'[[det]]'
p528
S'alternative'
p529
tp530
F0.002210759027266028
s(S'[[det]]'
p531
g30
tp532
F0.05747973470891673
s(S'recorded'
p533
S'[[det]]'
p534
tp535
F0.0014738393515106854
s(S'song'
p536
S'[[con]]'
p537
tp538
F0.002210759027266028
s(g49
S'written'
p539
tp540
F0.0007369196757553427
s(S'rock'
p541
S'group'
p542
tp543
F0.002210759027266028
s(S'[[det]]'
p544
S'written'
p545
tp546
F0.0007369196757553427
s(S'sung'
p547
S'with'
p548
tp549
F0.0007369196757553427
s(S'[[det]]'
p550
S'released'
p551
tp552
F0.002210759027266028
s(g299
S'band'
p553
tp554
F0.03389830508474576
s(S'released'
p555
S'[[con]]'
p556
tp557
F0.0014738393515106854
s(S'based'
p558
S'band'
p559
tp560
F0.0007369196757553427
s(S'sung'
p561
S'at'
p562
tp563
F0.0007369196757553427
s(S'[[adj]]'
p564
S'written'
p565
tp566
F0.0014738393515106854
s(S'written'
p567
S'produced'
p568
tp569
F0.0007369196757553427
s(S'music'
p570
S'artist'
p571
tp572
F0.0029476787030213707
s(g137
S'band'
p573
tp574
F0.027266028002947678
s(S'produced'
p575
S'[[con]]'
p576
tp577
F0.0014738393515106854
s(S'by'
p578
S'death'
p579
tp580
F0.0014738393515106854
s(S'pop'
p581
S'rock'
p582
tp583
F0.0007369196757553427
s(S'which'
p584
S'[[adj]]'
p585
tp586
F0.0007369196757553427
s(g227
S'rock'
p587
tp588
F0.0007369196757553427
s(S'from'
p589
S'[[adj]]'
p590
tp591
F0.0014738393515106854
s(S'debut'
p592
S'[[adj]]'
p593
tp594
F0.0014738393515106854
s(S'[[det]]'
p595
g295
tp596
F0.0014738393515106854
s(S'[[con]]'
p597
S'originally'
p598
tp599
F0.0007369196757553427
s(S'also'
p600
S'performed'
p601
tp602
F0.0014738393515106854
s(S'of'
p603
S'singer'
p604
tp605
F0.0007369196757553427
s(S'by'
p606
g438
tp607
F0.012527634487840826
s(S'performed'
p608
S'where'
p609
tp610
F0.0007369196757553427
s(S'been'
p611
S'written'
p612
tp613
F0.0014738393515106854
s(S'by'
p614
S'metal'
p615
tp616
F0.0029476787030213707
s(S'released'
p617
S'[[adj]]'
p618
tp619
F0.0007369196757553427
s(S'reached'
p620
S'number'
p621
tp622
F0.0007369196757553427
s(S'that'
p623
S'features'
p624
tp625
F0.0007369196757553427
s(S'by'
p626
S'recording'
p627
tp628
F0.002210759027266028
s(S'song'
p629
S'is'
p630
tp631
F0.0007369196757553427
s(S'album'
p632
g312
tp633
F0.005158437730287398
s(S'[[con]]'
p634
S'recorded'
p635
tp636
F0.008843036109064112
s(S'punk'
p637
S'rock'
p638
tp639
F0.0029476787030213707
s(S'band'
p640
S'released'
p641
tp642
F0.0014738393515106854
s(g113
S'with'
p643
tp644
F0.0007369196757553427
s(g356
S'album'
p645
tp646
F0.0007369196757553427
s(S'reached'
p647
g97
tp648
F0.0007369196757553427
s(S'[[con]]'
p649
g193
tp650
F0.0036845983787767134
s(S'by'
p651
S'band'
p652
tp653
F0.004421518054532056
s(S'has'
p654
S'taken'
p655
tp656
F0.0007369196757553427
s(S'band'
p657
S'album'
p658
tp659
F0.0014738393515106854
s(S'performed'
p660
S'[[con]]'
p661
tp662
F0.0014738393515106854
s(g388
S'songwriter'
p663
tp664
F0.0007369196757553427
s(S'song'
p665
S'that'
p666
tp667
F0.0014738393515106854
s(S'written'
p668
S'to'
p669
tp670
F0.0007369196757553427
s(S'album'
p671
S'released'
p672
tp673
F0.0029476787030213707
s(g185
g478
tp674
F0.008843036109064112
s(S'as'
p675
S'from'
p676
tp677
F0.0007369196757553427
s(S'by'
p678
S'punk'
p679
tp680
F0.0014738393515106854
s(S'[[det]]'
p681
g558
tp682
F0.0007369196757553427
s(S'[[adj]]'
p683
g475
tp684
F0.01105379513633014
s(S'[[det]]'
p685
S'duet'
p686
tp687
F0.0007369196757553427
s(g25
S'on'
p688
tp689
F0.0036845983787767134
s(S'was'
p690
S'released'
p691
tp692
F0.008106116433308769
s(S'[[det]]'
p693
g637
tp694
F0.002210759027266028
s(S'features'
p695
S'of'
p696
tp697
F0.0007369196757553427
s(S'by'
p698
g298
tp699
F0.025055268975681652
s(S'roll'
p700
S'song'
p701
tp702
F0.0007369196757553427
s(S'[[adj]]'
p703
S'artist'
p704
tp705
F0.0007369196757553427
s(S'is'
p706
S'released'
p707
tp708
F0.0007369196757553427
s(S'was'
p709
g575
tp710
F0.0014738393515106854
s(g439
S'singer'
p711
tp712
F0.008106116433308769
s(S'[[con]]'
p713
g700
tp714
F0.0007369196757553427
s(S'features'
p715
S'as'
p716
tp717
F0.0007369196757553427
s(g116
g304
tp718
F0.011790714812085483
s(g431
S'to'
p719
tp720
F0.0007369196757553427
s(S'written'
p721
S'with'
p722
tp723
F0.0007369196757553427
s(S'also'
p724
S'recorded'
p725
tp726
F0.002210759027266028
s(S'thrash'
p727
S'metal'
p728
tp729
F0.002210759027266028
s(S'later'
p730
S'included'
p731
tp732
F0.0007369196757553427
s(g385
S'metal'
p733
tp734
F0.004421518054532056
s(S'then'
p735
S'performed'
p736
tp737
F0.0007369196757553427
s(S'song'
p738
S'of'
p739
tp740
F0.0007369196757553427
s(S'[[det]]'
p741
S'vocalist'
p742
tp743
F0.0007369196757553427
s(S'[[num]]'
p744
S'hit'
p745
tp746
F0.0014738393515106854
s(S'not'
p747
S'written'
p748
tp749
F0.0007369196757553427
s(S'released'
p750
S'was'
p751
tp752
F0.0007369196757553427
s(S'written'
p753
S'about'
p754
tp755
F0.0007369196757553427
s(g281
S'on'
p756
tp757
F0.0007369196757553427
s(S'was'
p758
S'originally'
p759
tp760
F0.0007369196757553427
s(g278
S'in'
p761
tp762
F0.004421518054532056
s(S'album'
p763
g31
tp764
F0.0007369196757553427
s(S'is'
p765
S'taken'
p766
tp767
F0.0007369196757553427
s(g359
S'that'
p768
tp769
F0.0014738393515106854
s(S'included'
p770
S'to'
p771
tp772
F0.0007369196757553427
s(g756
S'album'
p773
tp774
F0.0007369196757553427
s(S'was'
p775
S'recorded'
p776
tp777
F0.004421518054532056
s(S'where'
p778
g620
tp779
F0.0007369196757553427
s(S'[[det]]'
p780
S'singersongwriter'
p781
tp782
F0.0007369196757553427
s(g627
S'artist'
p783
tp784
F0.002210759027266028
s(S'[[con]]'
p785
S'songs'
p786
tp787
F0.0007369196757553427
s(S'also'
p788
g490
tp789
F0.002210759027266028
s(S'[[num]]'
p790
S'released'
p791
tp792
F0.0014738393515106854
s(S'in'
p793
S'released'
p794
tp795
F0.0007369196757553427
s(S'[[con]]'
p796
S'released'
p797
tp798
F0.0014738393515106854
s(g598
S'recorded'
p799
tp800
F0.002210759027266028
s(S'song'
p801
S'written'
p802
tp803
F0.025055268975681652
s(S'by'
p804
S'rock'
p805
tp806
F0.008106116433308769
s(S'recorded'
p807
S'with'
p808
tp809
F0.002210759027266028
s(S'[[det]]'
p810
g506
tp811
F0.0036845983787767134
s(S'[[det]]'
p812
g39
tp813
F0.002210759027266028
s(S'rock'
p814
g713
tp815
F0.0007369196757553427
s(S'[[det]]'
p816
S'group'
p817
tp818
F0.0007369196757553427
s(g327
S'by'
p819
tp820
F0.0058953574060427415
s(g215
S'[[det]]'
p821
tp822
F0.0007369196757553427
s(g329
S'[[num]]'
p823
tp824
F0.0014738393515106854
s.