(dp0
(S'[[det]]'
p1
S'park'
p2
tp3
F0.03125
s(S'located'
p4
S'just'
p5
tp6
F0.03125
s(S'located'
p7
S'of'
p8
tp9
F0.0625
s(S'is'
p10
S'located'
p11
tp12
F0.09375
s(g2
S'in'
p13
tp14
F0.0625
s(S'located'
p15
S'[[adj]]'
p16
tp17
F0.03125
s(S'located'
p18
S'[[num]]'
p19
tp20
F0.03125
s(g11
S'[[det]]'
p21
tp22
F0.0625
s(S'[[adj]]'
p23
S'park'
p24
tp25
F0.09375
s(S'[[adj]]'
p26
S'located'
p27
tp28
F0.03125
s(S'located'
p29
S'at'
p30
tp31
F0.03125
s(S'now'
p32
g29
tp33
F0.03125
s(S'located'
p34
S'in'
p35
tp36
F0.1875
s(S'was'
p37
g4
tp38
F0.09375
s(S'formerly'
p39
S'located'
p40
tp41
F0.03125
s(S'[[det]]'
p42
S'located'
p43
tp44
F0.03125
s(g24
S'of'
p45
tp46
F0.03125
s(S'also'
p47
S'located'
p48
tp49
F0.03125
s.