(dp0
(S'version'
p1
S'is'
p2
tp3
F0.05263157894736842
s(S'version'
p4
S'of'
p5
tp6
F0.2631578947368421
s(S'[[adj]]'
p7
S'version'
p8
tp9
F0.21052631578947367
s(S'runs'
p10
S'on'
p11
tp12
F0.05263157894736842
s(S'[[num]]'
p13
S'version'
p14
tp15
F0.05263157894736842
s(S'[[det]]'
p16
S'runs'
p17
tp18
F0.05263157894736842
s(S's'
p19
S'version'
p20
tp21
F0.05263157894736842
s(S'version'
p22
S'[[con]]'
p23
tp24
F0.05263157894736842
s(S'now'
p25
g10
tp26
F0.05263157894736842
s(S'runs'
p27
S'off'
p28
tp29
F0.05263157894736842
s(S'[[det]]'
p30
g4
tp31
F0.10526315789473684
s.