(dp0
(S'be'
p1
S'operated'
p2
tp3
F0.003257328990228013
s(S'be'
p4
S'served'
p5
tp6
F0.003257328990228013
s(S'[[adj]]'
p7
S'services'
p8
tp9
F0.003257328990228013
s(S'built'
p10
S'up'
p11
tp12
F0.003257328990228013
s(S'formerly'
p13
S'operated'
p14
tp15
F0.003257328990228013
s(S'built'
p16
S'on'
p17
tp18
F0.003257328990228013
s(S'built'
p19
S'was'
p20
tp21
F0.003257328990228013
s(S'[[con]]'
p22
S'operated'
p23
tp24
F0.026058631921824105
s(S'opened'
p25
S'by'
p26
tp27
F0.006514657980456026
s(S'of'
p28
S'serve'
p29
tp30
F0.003257328990228013
s(S'were'
p31
S'built'
p32
tp33
F0.003257328990228013
s(g32
S'for'
p34
tp35
F0.02280130293159609
s(S'opened'
p36
S'with'
p37
tp38
F0.003257328990228013
s(S'station'
p39
S'on'
p40
tp41
F0.026058631921824105
s(S'[[det]]'
p42
S'built'
p43
tp44
F0.009771986970684038
s(S'operated'
p45
S'until'
p46
tp47
F0.003257328990228013
s(S'currently'
p48
S'owned'
p49
tp50
F0.003257328990228013
s(S'served'
p51
S'only'
p52
tp53
F0.003257328990228013
s(S'built'
p54
S'as'
p55
tp56
F0.006514657980456026
s(S'[[det]]'
p57
S'terminus'
p58
tp59
F0.003257328990228013
s(S'be'
p60
S'built'
p61
tp62
F0.006514657980456026
s(S'[[con]]'
p63
S'built'
p64
tp65
F0.003257328990228013
s(S'located'
p66
S'in'
p67
tp68
F0.003257328990228013
s(S'[[num]]'
p69
S'operated'
p70
tp71
F0.006514657980456026
s(S'[[det]]'
p72
S'opened'
p73
tp74
F0.003257328990228013
s(S'[[det]]'
p75
S'tracks'
p76
tp77
F0.003257328990228013
s(S'station'
p78
S'along'
p79
tp80
F0.003257328990228013
s(S'that'
p81
S'served'
p82
tp83
F0.003257328990228013
s(S'built'
p84
S'at'
p85
tp86
F0.003257328990228013
s(S'that'
p87
S'is'
p88
tp89
F0.003257328990228013
s(S'served'
p90
S'[[con]]'
p91
tp92
F0.003257328990228013
s(S'railway'
p93
g39
tp94
F0.016286644951140065
s(S'[[det]]'
p95
S'train'
p96
tp97
F0.013029315960912053
s(S'was'
p98
S'operated'
p99
tp100
F0.003257328990228013
s(S'built'
p101
S'around'
p102
tp103
F0.003257328990228013
s(S'[[con]]'
p104
S'is'
p105
tp106
F0.02280130293159609
s(S'operated'
p107
S'with'
p108
tp109
F0.013029315960912053
s(S'now'
p110
S'operated'
p111
tp112
F0.003257328990228013
s(g8
S'operated'
p113
tp114
F0.003257328990228013
s(S'[[adj]]'
p115
S'built'
p116
tp117
F0.006514657980456026
s(S'also'
p118
S'served'
p119
tp120
F0.003257328990228013
s(S'located'
p121
g104
tp122
F0.016286644951140065
s(S'control'
p123
S'of'
p124
tp125
F0.006514657980456026
s(S'managed'
p126
S'by'
p127
tp128
F0.013029315960912053
s(S'shared'
p129
S'by'
p130
tp131
F0.006514657980456026
s(S'[[det]]'
p132
S'managed'
p133
tp134
F0.003257328990228013
s(S'on'
p135
S'[[det]]'
p136
tp137
F0.003257328990228013
s(S'currently'
p138
S'operated'
p139
tp140
F0.003257328990228013
s(S'was'
p141
S'shared'
p142
tp143
F0.003257328990228013
s(S'[[adj]]'
p144
S'operated'
p145
tp146
F0.003257328990228013
s(S'been'
p147
S'owned'
p148
tp149
F0.003257328990228013
s(S'operated'
p150
S'on'
p151
tp152
F0.003257328990228013
s(S'taken'
p153
S'into'
p154
tp155
F0.003257328990228013
s(S'served'
p156
S'[[det]]'
p157
tp158
F0.003257328990228013
s(g142
S'between'
p159
tp160
F0.003257328990228013
s(S'been'
p161
S'built'
p162
tp163
F0.003257328990228013
s(g49
S'[[con]]'
p164
tp165
F0.02280130293159609
s(S'[[adj]]'
p166
S'taken'
p167
tp168
F0.003257328990228013
s(S'of'
p169
S'[[det]]'
p170
tp171
F0.003257328990228013
s(S'managed'
p172
S'[[con]]'
p173
tp174
F0.003257328990228013
s(S'are'
p175
S'operated'
p176
tp177
F0.003257328990228013
s(g170
S'line'
p178
tp179
F0.003257328990228013
s(S'subway'
p180
S'station'
p181
tp182
F0.003257328990228013
s(S'station'
p183
S'after'
p184
tp185
F0.003257328990228013
s(S'served'
p186
S'with'
p187
tp188
F0.003257328990228013
s(S'also'
p189
S'built'
p190
tp191
F0.003257328990228013
s(S'is'
p192
S'built'
p193
tp194
F0.009771986970684038
s(S'developed'
p195
S'jointly'
p196
tp197
F0.003257328990228013
s(S'station'
p198
g87
tp199
F0.003257328990228013
s(g58
g169
tp200
F0.003257328990228013
s(S'[[det]]'
p201
S'railway'
p202
tp203
F0.013029315960912053
s(g29
g75
tp204
F0.003257328990228013
s(S'taken'
p205
S'at'
p206
tp207
F0.003257328990228013
s(g43
S'by'
p208
tp209
F0.026058631921824105
s(S'which'
p210
g186
tp211
F0.003257328990228013
s(S'station'
p212
S'of'
p213
tp214
F0.013029315960912053
s(S'built'
p215
S'after'
p216
tp217
F0.003257328990228013
s(S'[[num]]'
p218
S'opened'
p219
tp220
F0.003257328990228013
s(S'automobile'
p221
S'was'
p222
tp223
F0.003257328990228013
s(S'served'
p224
g7
tp225
F0.003257328990228013
s(S'service'
p226
S'operated'
p227
tp228
F0.003257328990228013
s(S'built'
p229
S'with'
p230
tp231
F0.003257328990228013
s(S'built'
p232
S'in'
p233
tp234
F0.003257328990228013
s(S'consists'
p235
g28
tp236
F0.003257328990228013
s(S'is'
p237
g172
tp238
F0.009771986970684038
s(S'station'
p239
S'for'
p240
tp241
F0.003257328990228013
s(S'served'
p242
S'operated'
p243
tp244
F0.003257328990228013
s(S'is'
p245
g107
tp246
F0.026058631921824105
s(S'station'
p247
S'[[con]]'
p248
tp249
F0.009771986970684038
s(S'[[det]]'
p250
S'station'
p251
tp252
F0.02280130293159609
s(S'[[adj]]'
p253
g93
tp254
F0.003257328990228013
s(S'was'
p255
S'opened'
p256
tp257
F0.013029315960912053
s(S'was'
p258
S'built'
p259
tp260
F0.02280130293159609
s(S'[[det]]'
p261
g221
tp262
F0.003257328990228013
s(S'which'
p263
S'opened'
p264
tp265
F0.003257328990228013
s(S'[[det]]'
p266
g180
tp267
F0.003257328990228013
s(S'is'
p268
S'taken'
p269
tp270
F0.003257328990228013
s(S'station'
p271
S'served'
p272
tp273
F0.006514657980456026
s(S'[[det]]'
p274
S'operated'
p275
tp276
F0.013029315960912053
s(S'[[num]]'
p277
S'built'
p278
tp279
F0.006514657980456026
s(S'is'
p280
S'shared'
p281
tp282
F0.003257328990228013
s(S'[[adj]]'
p283
S'opened'
p284
tp285
F0.006514657980456026
s(S'operated'
p286
S'under'
p287
tp288
F0.003257328990228013
s(S'[[det]]'
p289
g123
tp290
F0.003257328990228013
s(S'was'
p291
g153
tp292
F0.006514657980456026
s(S'operated'
p293
S'by'
p294
tp295
F0.09120521172638436
s(S'is'
p296
g121
tp297
F0.016286644951140065
s(g256
S'[[num]]'
p298
tp299
F0.003257328990228013
s(S'[[adj]]'
p300
S'station'
p301
tp302
F0.013029315960912053
s(S'came'
p303
S'under'
p304
tp305
F0.006514657980456026
s(S'[[adj]]'
p306
g226
tp307
F0.003257328990228013
s(S'was'
p308
S'owned'
p309
tp310
F0.003257328990228013
s(g167
S'by'
p311
tp312
F0.003257328990228013
s(S'station'
p313
S'located'
p314
tp315
F0.003257328990228013
s(g222
g195
tp316
F0.003257328990228013
s(S'is'
p317
S'served'
p318
tp319
F0.029315960912052116
s(S'also'
p320
S'operated'
p321
tp322
F0.003257328990228013
s(S'railway'
p323
S'is'
p324
tp325
F0.003257328990228013
s(S'built'
p326
S'[[con]]'
p327
tp328
F0.003257328990228013
s(S'taken'
p329
S'over'
p330
tp331
F0.009771986970684038
s(g196
S'by'
p332
tp333
F0.003257328990228013
s(g318
S'by'
p334
tp335
F0.03257328990228013
s(S'[[adj]]'
p336
S'control'
p337
tp338
F0.003257328990228013
s(g96
S'station'
p339
tp340
F0.016286644951140065
s(S'only'
p341
S'served'
p342
tp343
F0.003257328990228013
s(g304
g289
tp344
F0.003257328990228013
s(S'been'
p345
S'served'
p346
tp347
F0.003257328990228013
s(S'been'
p348
S'operated'
p349
tp350
F0.003257328990228013
s(S'station'
p351
S'operated'
p352
tp353
F0.006514657980456026
s(S'is'
p354
S'owned'
p355
tp356
F0.009771986970684038
s(S'under'
p357
g336
tp358
F0.003257328990228013
s(S'[[det]]'
p359
S'owned'
p360
tp361
F0.003257328990228013
s(S'operated'
p362
S'[[con]]'
p363
tp364
F0.006514657980456026
s(S'opened'
p365
S'[[con]]'
p366
tp367
F0.006514657980456026
s(S'was'
p368
S'served'
p369
tp370
F0.003257328990228013
s(g324
S'[[det]]'
p371
tp372
F0.003257328990228013
s(g346
S'in'
p373
tp374
F0.006514657980456026
s.