(dp0
(S'written'
p1
S'[[con]]'
p2
tp3
F0.023255813953488372
s(S'[[det]]'
p4
S'written'
p5
tp6
F0.011627906976744186
s(S'written'
p7
S'to'
p8
tp9
F0.03488372093023256
s(S'be'
p10
S'written'
p11
tp12
F0.011627906976744186
s(S'have'
p13
S'written'
p14
tp15
F0.046511627906976744
s(S'written'
p16
S'[[det]]'
p17
tp18
F0.023255813953488372
s(S'written'
p19
S'as'
p20
tp21
F0.011627906976744186
s(S'[[num]]'
p22
S'written'
p23
tp24
F0.011627906976744186
s(S'written'
p25
S'on'
p26
tp27
F0.03488372093023256
s(S'also'
p28
S'written'
p29
tp30
F0.08139534883720931
s(S'has'
p31
S'written'
p32
tp33
F0.11627906976744186
s(S'written'
p34
S'with'
p35
tp36
F0.03488372093023256
s(S'written'
p37
S'of'
p38
tp39
F0.03488372093023256
s(S'since'
p40
S'written'
p41
tp42
F0.011627906976744186
s(S'were'
p43
S'written'
p44
tp45
F0.011627906976744186
s(S'written'
p46
S'in'
p47
tp48
F0.011627906976744186
s(S'written'
p49
S'[[adj]]'
p50
tp51
F0.023255813953488372
s(S'written'
p52
S'about'
p53
tp54
F0.03488372093023256
s(S'is'
p55
S'written'
p56
tp57
F0.011627906976744186
s(S'written'
p58
S'that'
p59
tp60
F0.023255813953488372
s(S'had'
p61
S'written'
p62
tp63
F0.10465116279069768
s(g62
S'by'
p64
tp65
F0.12790697674418605
s(S'was'
p66
S'written'
p67
tp68
F0.011627906976744186
s(g67
S'out'
p69
tp70
F0.011627906976744186
s(g29
S'[[num]]'
p71
tp72
F0.03488372093023256
s(S'[[con]]'
p73
S'written'
p74
tp75
F0.03488372093023256
s(S'been'
p76
S'written'
p77
tp78
F0.011627906976744186
s(S'that'
p79
S'written'
p80
tp81
F0.011627906976744186
s(S'written'
p82
S'for'
p83
tp84
F0.011627906976744186
s(S's'
p85
S'written'
p86
tp87
F0.011627906976744186
s(S'written'
p88
S'[[prp]]'
p89
tp90
F0.011627906976744186
s(S'being'
p91
S'written'
p92
tp93
F0.011627906976744186
s.