(dp0
(S'rises'
p1
S'in'
p2
tp3
F0.014598540145985401
s(S'[[adj]]'
p4
S'river'
p5
tp6
F0.021897810218978103
s(S'river'
p7
S'on'
p8
tp9
F0.0072992700729927005
s(S'west'
p10
S'from'
p11
tp12
F0.0072992700729927005
s(S'flows'
p13
S'through'
p14
tp15
F0.0072992700729927005
s(S'then'
p16
S'used'
p17
tp18
F0.0072992700729927005
s(S'[[det]]'
p19
S'border'
p20
tp21
F0.0072992700729927005
s(S'used'
p22
S'with'
p23
tp24
F0.0072992700729927005
s(S'is'
p25
S'used'
p26
tp27
F0.021897810218978103
s(S'been'
p28
S'used'
p29
tp30
F0.021897810218978103
s(S'from'
p31
S'[[det]]'
p32
tp33
F0.0072992700729927005
s(S'in'
p34
S'[[adj]]'
p35
tp36
F0.0072992700729927005
s(S'[[det]]'
p37
S'used'
p38
tp39
F0.0072992700729927005
s(S'flows'
p40
S'northwest'
p41
tp42
F0.014598540145985401
s(S'formed'
p43
S'at'
p44
tp45
F0.0072992700729927005
s(S'only'
p46
S'used'
p47
tp48
F0.0072992700729927005
s(g5
S'of'
p49
tp50
F0.014598540145985401
s(S'used'
p51
S'from'
p52
tp53
F0.0072992700729927005
s(S'river'
p54
S'in'
p55
tp56
F0.014598540145985401
s(S'by'
p57
S'[[det]]'
p58
tp59
F0.014598540145985401
s(S'rises'
p60
S'on'
p61
tp62
F0.021897810218978103
s(S'formed'
p63
g31
tp64
F0.0072992700729927005
s(S'[[adj]]'
p65
S'slopes'
p66
tp67
F0.014598540145985401
s(S'[[det]]'
p68
S'confluence'
p69
tp70
F0.029197080291970802
s(S'[[prp]]'
p71
S'sources'
p72
tp73
F0.0072992700729927005
s(g44
g68
tp74
F0.0072992700729927005
s(S'[[con]]'
p75
S'adopted'
p76
tp77
F0.0072992700729927005
s(S'was'
p78
S'used'
p79
tp80
F0.0364963503649635
s(g20
S'river'
p81
tp82
F0.0072992700729927005
s(S'used'
p83
S'as'
p84
tp85
F0.0072992700729927005
s(S'later'
p86
S'used'
p87
tp88
F0.0072992700729927005
s(S'on'
p89
S'[[det]]'
p90
tp91
F0.0072992700729927005
s(g72
S'in'
p92
tp93
F0.0072992700729927005
s(S'flows'
p94
g10
tp95
F0.0072992700729927005
s(S'river'
p96
S'[[det]]'
p97
tp98
F0.0072992700729927005
s(S'still'
p99
S'used'
p100
tp101
F0.0072992700729927005
s(S'adopted'
p102
S'by'
p103
tp104
F0.021897810218978103
s(g81
S'between'
p105
tp106
F0.0072992700729927005
s(g26
S'on'
p107
tp108
F0.021897810218978103
s(S'is'
p109
g43
tp110
F0.029197080291970802
s(S'[[det]]'
p111
g96
tp112
F0.0364963503649635
s(S'rises'
p113
S'at'
p114
tp115
F0.0072992700729927005
s(S'from'
p116
g71
tp117
F0.0072992700729927005
s(S'used'
p118
S'[[con]]'
p119
tp120
F0.0072992700729927005
s(S'rises'
p121
S'near'
p122
tp123
F0.0072992700729927005
s(S'used'
p124
S'by'
p125
tp126
F0.13138686131386862
s(S'flows'
p127
S'to'
p128
tp129
F0.0072992700729927005
s(g66
S'of'
p130
tp131
F0.021897810218978103
s(S'used'
p132
S'at'
p133
tp134
F0.0072992700729927005
s(S'was'
p135
g102
tp136
F0.014598540145985401
s(g41
S'from'
p137
tp138
F0.014598540145985401
s(S'south'
p139
S'from'
p140
tp141
F0.0072992700729927005
s(S'confluence'
p142
S'[[con]]'
p143
tp144
F0.0072992700729927005
s(g29
S'for'
p145
tp146
F0.0072992700729927005
s(S'be'
p147
g124
tp148
F0.014598540145985401
s(g90
S'slopes'
p149
tp150
F0.0072992700729927005
s(S'on'
p151
g65
tp152
F0.0072992700729927005
s(S'rises'
p153
S'[[det]]'
p154
tp155
F0.0072992700729927005
s(S'adopted'
p156
S'[[con]]'
p157
tp158
F0.0072992700729927005
s(S'river'
p159
S'[[con]]'
p160
tp161
F0.0072992700729927005
s(S'flows'
p162
S'out'
p163
tp164
F0.0072992700729927005
s(S'flows'
p165
S'[[det]]'
p166
tp167
F0.0072992700729927005
s(S'[[con]]'
p168
S'used'
p169
tp170
F0.0072992700729927005
s(g69
S'of'
p171
tp172
F0.021897810218978103
s(S'flows'
p173
S'[[con]]'
p174
tp175
F0.0072992700729927005
s(S'flows'
p176
g139
tp177
F0.0072992700729927005
s(S'being'
p178
S'used'
p179
tp180
F0.0072992700729927005
s(S'[[num]]'
p181
S'used'
p182
tp183
F0.0072992700729927005
s(S'currently'
p184
S'used'
p185
tp186
F0.0072992700729927005
s(S'formed'
p187
g57
tp188
F0.014598540145985401
s(S'not'
p189
S'used'
p190
tp191
F0.0072992700729927005
s(S'also'
p192
S'used'
p193
tp194
F0.014598540145985401
s(S'flows'
p195
S'from'
p196
tp197
F0.0072992700729927005
s(S'once'
p198
S'used'
p199
tp200
F0.0072992700729927005
s(S'name'
p201
S'used'
p202
tp203
F0.0072992700729927005
s(S'flows'
p204
S'in'
p205
tp206
F0.0072992700729927005
s(S'now'
p207
S'used'
p208
tp209
F0.0072992700729927005
s(S'mainly'
p210
S'used'
p211
tp212
F0.0072992700729927005
s(S'originates'
p213
S'in'
p214
tp215
F0.0072992700729927005
s.