(dp0
(S'form'
p1
S'as'
p2
tp3
F0.0018115942028985507
s(S'to'
p4
S'form'
p5
tp6
F0.012681159420289856
s(S'in'
p7
S'turn'
p8
tp9
F0.0018115942028985507
s(S'bought'
p10
S'from'
p11
tp12
F0.0018115942028985507
s(S'[[pro]]'
p13
S'acquired'
p14
tp15
F0.0018115942028985507
s(S'acquired'
p16
S'[[num]]'
p17
tp18
F0.0036231884057971015
s(S'announced'
p19
S'[[pro]]'
p20
tp21
F0.0018115942028985507
s(S'owned'
p22
S'subsidiary'
p23
tp24
F0.012681159420289856
s(S'also'
p25
S'bought'
p26
tp27
F0.0018115942028985507
s(S'venture'
p28
S'of'
p29
tp30
F0.0018115942028985507
s(S'merged'
p31
S'from'
p32
tp33
F0.0018115942028985507
s(S'[[con]]'
p34
S'operated'
p35
tp36
F0.010869565217391304
s(S'been'
p37
S'acquired'
p38
tp39
F0.0018115942028985507
s(S'[[num]]'
p40
S'sold'
p41
tp42
F0.0036231884057971015
s(S'been'
p43
S'sold'
p44
tp45
F0.0018115942028985507
s(S'television'
p46
S'station'
p47
tp48
F0.0018115942028985507
s(S'established'
p49
S'[[con]]'
p50
tp51
F0.0018115942028985507
s(S'[[num]]'
p52
S'acquired'
p53
tp54
F0.0018115942028985507
s(S'[[det]]'
p55
S'subsidiary'
p56
tp57
F0.009057971014492754
s(S'then'
p58
S'merged'
p59
tp60
F0.0036231884057971015
s(S'parent'
p61
S'company'
p62
tp63
F0.014492753623188406
s(S'announced'
p64
S'[[mod]]'
p65
tp66
F0.0018115942028985507
s(S'[[det]]'
p67
S'wholly'
p68
tp69
F0.010869565217391304
s(S'merged'
p70
S'to'
p71
tp72
F0.005434782608695652
s(S'form'
p73
S'part'
p74
tp75
F0.0018115942028985507
s(S'be'
p76
S'acquired'
p77
tp78
F0.005434782608695652
s(S'bought'
p79
S'back'
p80
tp81
F0.0018115942028985507
s(S'as'
p82
S'[[det]]'
p83
tp84
F0.0036231884057971015
s(S'[[con]]'
p85
S'established'
p86
tp87
F0.0018115942028985507
s(S'that'
p88
S'acquired'
p89
tp90
F0.0036231884057971015
s(S'sold'
p91
S'[[pro]]'
p92
tp93
F0.0018115942028985507
s(S'now'
p94
S'owned'
p95
tp96
F0.0036231884057971015
s(S'had'
p97
S'merged'
p98
tp99
F0.0036231884057971015
s(S'purchased'
p100
S'[[con]]'
p101
tp102
F0.0036231884057971015
s(S'acquired'
p103
S'[[pro]]'
p104
tp105
F0.0018115942028985507
s(S'[[con]]'
p106
S'sold'
p107
tp108
F0.0036231884057971015
s(S'[[con]]'
p109
S'acquired'
p110
tp111
F0.0036231884057971015
s(S'[[con]]'
p112
S'were'
p113
tp114
F0.0018115942028985507
s(S'based'
p115
S'in'
p116
tp117
F0.0018115942028985507
s(S'[[num]]'
p118
S'owned'
p119
tp120
F0.0018115942028985507
s(S'purchased'
p121
S'[[det]]'
p122
tp123
F0.0036231884057971015
s(S'locally'
p124
g82
tp125
F0.0018115942028985507
s(S'[[det]]'
p126
S'announced'
p127
tp128
F0.0018115942028985507
s(S'also'
p129
S'owned'
p130
tp131
F0.0036231884057971015
s(S'broadcasting'
p132
g124
tp133
F0.0018115942028985507
s(S'sell'
p134
S'[[det]]'
p135
tp136
F0.0036231884057971015
s(S'were'
p137
S'merged'
p138
tp139
F0.0018115942028985507
s(S'[[det]]'
p140
S'merged'
p141
tp142
F0.0018115942028985507
s(S'established'
p143
S'in'
p144
tp145
F0.0018115942028985507
s(S'sold'
p146
S'for'
p147
tp148
F0.0018115942028985507
s(S'then'
p149
S'owned'
p150
tp151
F0.0018115942028985507
s(S'being'
p152
S'sold'
p153
tp154
F0.0036231884057971015
s(S'purchased'
p155
S'from'
p156
tp157
F0.005434782608695652
s(S'being'
p158
S'acquired'
p159
tp160
F0.0018115942028985507
s(S'[[adj]]'
p161
S'sold'
p162
tp163
F0.0036231884057971015
s(S'established'
p164
S'[[det]]'
p165
tp166
F0.0018115942028985507
s(S'jointly'
p167
S'owned'
p168
tp169
F0.005434782608695652
s(S'established'
p170
S'by'
p171
tp172
F0.0036231884057971015
s(S'owned'
p173
S'[[con]]'
p174
tp175
F0.019927536231884056
s(S'purchased'
p176
S'[[adj]]'
p177
tp178
F0.0018115942028985507
s(S'then'
p179
S'bought'
p180
tp181
F0.0036231884057971015
s(S'is'
p182
S'offered'
p183
tp184
F0.0036231884057971015
s(S'has'
p185
S'established'
p186
tp187
F0.0018115942028985507
s(S'purchased'
p188
S'in'
p189
tp190
F0.0018115942028985507
s(S'[[con]]'
p191
S'is'
p192
tp193
F0.0018115942028985507
s(S'after'
p194
S'bought'
p195
tp196
F0.0018115942028985507
s(S'merged'
p197
S'[[con]]'
p198
tp199
F0.005434782608695652
s(S'established'
p200
S'as'
p201
tp202
F0.007246376811594203
s(S'merged'
p203
S'with'
p204
tp205
F0.016304347826086956
s(S'[[con]]'
p206
S'owned'
p207
tp208
F0.0036231884057971015
s(S'purchased'
p209
S'by'
p210
tp211
F0.012681159420289856
s(S'has'
p212
S'bought'
p213
tp214
F0.0018115942028985507
s(S'sold'
p215
S'in'
p216
tp217
F0.007246376811594203
s(S'when'
p218
S'sold'
p219
tp220
F0.0018115942028985507
s(S'which'
p221
S'sold'
p222
tp223
F0.0018115942028985507
s(g130
S'by'
p224
tp225
F0.041666666666666664
s(S'when'
p226
S'acquired'
p227
tp228
F0.0018115942028985507
s(S'bought'
p229
S'[[num]]'
p230
tp231
F0.0018115942028985507
s(S'then'
p232
S'purchased'
p233
tp234
F0.0036231884057971015
s(S'still'
p235
S'owned'
p236
tp237
F0.0018115942028985507
s(S'is'
p238
S'sold'
p239
tp240
F0.0036231884057971015
s(S'was'
p241
g146
tp242
F0.012681159420289856
s(S'acquired'
p243
S'[[adj]]'
p244
tp245
F0.0018115942028985507
s(S'was'
p246
S'acquired'
p247
tp248
F0.010869565217391304
s(S'[[con]]'
p249
S'[[det]]'
p250
tp251
F0.0036231884057971015
s(S'sold'
p252
S'[[num]]'
p253
tp254
F0.0018115942028985507
s(S'are'
p255
S'sold'
p256
tp257
F0.0018115942028985507
s(S'currently'
p258
S'owned'
p259
tp260
F0.0036231884057971015
s(S'purchased'
p261
S'for'
p262
tp263
F0.0018115942028985507
s(S'subsidiary'
p264
g112
tp265
F0.0018115942028985507
s(S'acquired'
p266
S'as'
p267
tp268
F0.0018115942028985507
s(S'[[adj]]'
p269
S'venture'
p270
tp271
F0.009057971014492754
s(S'bought'
p272
S'for'
p273
tp274
F0.0018115942028985507
s(S'venture'
p275
S'between'
p276
tp277
F0.0018115942028985507
s(S'is'
p278
S'established'
p279
tp280
F0.0018115942028985507
s(S'[[con]]'
p281
S'purchased'
p282
tp283
F0.0018115942028985507
s(S's'
p284
S'subsidiary'
p285
tp286
F0.0018115942028985507
s(S'merged'
p287
S'in'
p288
tp289
F0.0018115942028985507
s(S'[[prp]]'
p290
S'subsidiary'
p291
tp292
F0.0018115942028985507
s(g83
S'affiliate'
p293
tp294
F0.0018115942028985507
s(S'sell'
p295
S'[[prp]]'
p296
tp297
F0.0036231884057971015
s(S'been'
p298
S'owned'
p299
tp300
F0.0036231884057971015
s(S'sold'
p301
S'[[con]]'
p302
tp303
F0.0036231884057971015
s(S'venture'
p304
S'with'
p305
tp306
F0.0018115942028985507
s(S'be'
p307
S'established'
p308
tp309
F0.0036231884057971015
s(g284
S'owner'
p310
tp311
F0.0018115942028985507
s(S'parent'
p312
S'of'
p313
tp314
F0.0018115942028985507
s(S'offered'
p315
S'to'
p316
tp317
F0.0018115942028985507
s(S'was'
p318
S'announced'
p319
tp320
F0.007246376811594203
s(S'were'
p321
S'sold'
p322
tp323
F0.005434782608695652
s(S'announced'
p324
S'[[prp]]'
p325
tp326
F0.0018115942028985507
s(S'company'
p327
S'for'
p328
tp329
F0.0018115942028985507
s(S'were'
p330
S'acquired'
p331
tp332
F0.0036231884057971015
s(S'[[adj]]'
p333
g46
tp334
F0.0018115942028985507
s(S'[[prp]]'
p335
S'parent'
p336
tp337
F0.0018115942028985507
s(S'also'
p338
S'purchased'
p339
tp340
F0.0018115942028985507
s(S'was'
p341
S'owned'
p342
tp343
F0.007246376811594203
s(S'owned'
p344
S'jointly'
p345
tp346
F0.0018115942028985507
s(S'acquired'
p347
S'to'
p348
tp349
F0.0018115942028985507
s(S'[[det]]'
p350
g143
tp351
F0.0036231884057971015
s(g239
S'by'
p352
tp353
F0.009057971014492754
s(S'[[adj]]'
p354
S'offered'
p355
tp356
F0.0018115942028985507
s(S'bought'
p357
S'[[adj]]'
p358
tp359
F0.0018115942028985507
s(S'which'
p360
S'merged'
p361
tp362
F0.0018115942028985507
s(S'[[con]]'
p363
S'merged'
p364
tp365
F0.007246376811594203
s(S'was'
p366
S'offered'
p367
tp368
F0.005434782608695652
s(S'sold'
p369
S'[[prp]]'
p370
tp371
F0.0018115942028985507
s(S'[[det]]'
p372
S'purchased'
p373
tp374
F0.0018115942028985507
s(S'had'
p375
S'bought'
p376
tp377
F0.0018115942028985507
s(S'form'
p378
S'in'
p379
tp380
F0.0018115942028985507
s(S'which'
p381
S'acquired'
p382
tp383
F0.0018115942028985507
s(S'offered'
p384
S'in'
p385
tp386
F0.0036231884057971015
s(S'sold'
p387
S'[[adj]]'
p388
tp389
F0.0036231884057971015
s(S'be'
p390
S'merged'
p391
tp392
F0.005434782608695652
s(S'had'
p393
S'acquired'
p394
tp395
F0.010869565217391304
s(S'[[adj]]'
p396
S'established'
p397
tp398
F0.0018115942028985507
s(S'be'
p399
S'purchased'
p400
tp401
F0.0018115942028985507
s(S'sold'
p402
S'most'
p403
tp404
F0.0018115942028985507
s(S'established'
p405
S'when'
p406
tp407
F0.0018115942028985507
s(S'wholly'
p408
S'subsidiary'
p409
tp410
F0.0018115942028985507
s(S'[[adj]]'
p411
S'subsidiary'
p412
tp413
F0.0036231884057971015
s(S'was'
p414
S'purchased'
p415
tp416
F0.009057971014492754
s(S'of'
p417
S'is'
p418
tp419
F0.0018115942028985507
s(S'established'
p420
S'[[prp]]'
p421
tp422
F0.0018115942028985507
s(S'is'
p423
S'jointly'
p424
tp425
F0.0018115942028985507
s(S'[[mod]]'
p426
S'sell'
p427
tp428
F0.0036231884057971015
s(S'merged'
p429
S'[[prp]]'
p430
tp431
F0.0018115942028985507
s(S'then'
p432
S'sold'
p433
tp434
F0.0036231884057971015
s(S'sold'
p435
S'[[det]]'
p436
tp437
F0.005434782608695652
s(S'been'
p438
S'purchased'
p439
tp440
F0.0018115942028985507
s(S'were'
p441
S'bought'
p442
tp443
F0.0018115942028985507
s(g394
S'[[con]]'
p444
tp445
F0.009057971014492754
s(S'that'
p446
S'be'
p447
tp448
F0.0036231884057971015
s(S'form'
p449
S'[[num]]'
p450
tp451
F0.0018115942028985507
s(S'purchased'
p452
S'[[num]]'
p453
tp454
F0.0018115942028985507
s(S'had'
p455
S'sold'
p456
tp457
F0.0018115942028985507
s(g192
S'operated'
p458
tp459
F0.0018115942028985507
s(g5
S'[[con]]'
p460
tp461
F0.0018115942028985507
s(S'subsidiary'
p462
S'of'
p463
tp464
F0.019927536231884056
s(S'company'
p465
S'of'
p466
tp467
F0.0036231884057971015
s(S'announced'
p468
S'[[adj]]'
p469
tp470
F0.0018115942028985507
s(S'controlled'
p471
S'by'
p472
tp473
F0.0018115942028985507
s(S'form'
p474
S'of'
p475
tp476
F0.0018115942028985507
s(S'had'
p477
S'owned'
p478
tp479
F0.0018115942028985507
s(S'sold'
p480
S'to'
p481
tp482
F0.019927536231884056
s(S'was'
p483
g197
tp484
F0.009057971014492754
s(S'later'
p485
S'bought'
p486
tp487
F0.0036231884057971015
s(S'were'
p488
g209
tp489
F0.0036231884057971015
s(S'when'
p490
S'bought'
p491
tp492
F0.0018115942028985507
s(S'of'
p493
S'established'
p494
tp495
F0.0018115942028985507
s(S'sell'
p496
S'to'
p497
tp498
F0.005434782608695652
s(S'not'
p499
S'owned'
p500
tp501
F0.0018115942028985507
s(g284
S'parent'
p502
tp503
F0.0036231884057971015
s(S'when'
p504
S'merged'
p505
tp506
F0.0036231884057971015
s(S'offered'
p507
S'by'
p508
tp509
F0.005434782608695652
s(S'established'
p510
S'[[num]]'
p511
tp512
F0.0018115942028985507
s(S'acquired'
p513
S'[[prp]]'
p514
tp515
F0.0018115942028985507
s(S'when'
p516
S'purchased'
p517
tp518
F0.0018115942028985507
s(S'are'
p519
S'owned'
p520
tp521
F0.0018115942028985507
s(S'merged'
p522
S'[[det]]'
p523
tp524
F0.0018115942028985507
s(S'was'
p525
S'bought'
p526
tp527
F0.007246376811594203
s(S'bought'
p528
S'[[pro]]'
p529
tp530
F0.0018115942028985507
s(S'acquired'
p531
S'in'
p532
tp533
F0.0018115942028985507
s(S'established'
p534
S'under'
p535
tp536
F0.0018115942028985507
s(S'sold'
p537
S'back'
p538
tp539
F0.0018115942028985507
s(S'was'
p540
g167
tp541
F0.0018115942028985507
s(S'later'
p542
S'purchased'
p543
tp544
F0.0036231884057971015
s(S'later'
p545
S'merged'
p546
tp547
F0.005434782608695652
s(S'has'
p548
S'acquired'
p549
tp550
F0.0018115942028985507
s(S'sell'
p551
S'[[num]]'
p552
tp553
F0.0018115942028985507
s(S'that'
p554
S'had'
p555
tp556
F0.0018115942028985507
s(g367
S'as'
p557
tp558
F0.0018115942028985507
s(g8
S'owned'
p559
tp560
F0.0018115942028985507
s(S'bought'
p561
S'out'
p562
tp563
F0.0036231884057971015
s(S'acquired'
p564
S'from'
p565
tp566
F0.005434782608695652
s(S'owned'
p567
S'[[num]]'
p568
tp569
F0.005434782608695652
s(S'established'
p570
S'at'
p571
tp572
F0.0018115942028985507
s(S'also'
p573
S'acquired'
p574
tp575
F0.005434782608695652
s(g526
S'by'
p576
tp577
F0.005434782608695652
s(g35
S'by'
p578
tp579
F0.010869565217391304
s(S'announced'
p580
S'was'
p581
tp582
F0.0018115942028985507
s(S'also'
p583
g387
tp584
F0.007246376811594203
s(S'[[det]]'
p585
S'sold'
p586
tp587
F0.0018115942028985507
s(S'to'
p588
g295
tp589
F0.007246376811594203
s(S'[[det]]'
p590
S'acquired'
p591
tp592
F0.0018115942028985507
s(S'is'
p593
S'wholly'
p594
tp595
F0.0018115942028985507
s(S'then'
p596
S'acquired'
p597
tp598
F0.0018115942028985507
s(g546
S'into'
p599
tp600
F0.012681159420289856
s(g293
S'of'
p601
tp602
F0.0018115942028985507
s(S'has'
p603
S'announced'
p604
tp605
F0.0036231884057971015
s(S'acquired'
p606
S'[[det]]'
p607
tp608
F0.005434782608695652
s(S'be'
p609
g215
tp610
F0.007246376811594203
s(g331
S'by'
p611
tp612
F0.02355072463768116
s(S'established'
p613
S'with'
p614
tp615
F0.0018115942028985507
s(S'formerly'
p616
S'owned'
p617
tp618
F0.005434782608695652
s(S'bought'
p619
S'[[con]]'
p620
tp621
F0.005434782608695652
s(S'announced'
p622
S'had'
p623
tp624
F0.0018115942028985507
s(S'later'
p625
S'sold'
p626
tp627
F0.0036231884057971015
s(S'later'
p628
S'acquired'
p629
tp630
F0.005434782608695652
s(S'by'
p631
S'[[det]]'
p632
tp633
F0.0018115942028985507
s(S'which'
p634
S'owned'
p635
tp636
F0.0018115942028985507
s(S'[[adj]]'
p637
S'parent'
p638
tp639
F0.0036231884057971015
s(S'sold'
p640
S'at'
p641
tp642
F0.0018115942028985507
s(S'was'
p643
g405
tp644
F0.016304347826086956
s(S'of'
p645
g115
tp646
F0.0018115942028985507
s(S'acquired'
p647
S'with'
p648
tp649
F0.0018115942028985507
s(g270
S'[[con]]'
p650
tp651
F0.0018115942028985507
s(S'[[det]]'
p652
S'parent'
p653
tp654
F0.007246376811594203
s(g345
S'by'
p655
tp656
F0.0018115942028985507
s(g322
S'off'
p657
tp658
F0.005434782608695652
s(g604
S'that'
p659
tp660
F0.014492753623188406
s(S'[[adj]]'
p661
g1
tp662
F0.0018115942028985507
s(S'has'
p663
S'sold'
p664
tp665
F0.0018115942028985507
s(g319
S'[[det]]'
p666
tp667
F0.0018115942028985507
s(S'is'
p668
S'owned'
p669
tp670
F0.016304347826086956
s(S'[[det]]'
p671
S'owned'
p672
tp673
F0.005434782608695652
s(S'later'
p674
S'owned'
p675
tp676
F0.0018115942028985507
s(S'form'
p677
S'[[det]]'
p678
tp679
F0.0018115942028985507
s(g594
S'owned'
p680
tp681
F0.016304347826086956
s(g308
S'after'
p682
tp683
F0.0018115942028985507
s(S'had'
p684
S'purchased'
p685
tp686
F0.005434782608695652
s(g47
g132
tp687
F0.0018115942028985507
s.