(dp0
(S'lies'
p1
S'near'
p2
tp3
F0.03225806451612903
s(S'highest'
p4
S'[[adj]]'
p5
tp6
F0.03225806451612903
s(S'[[adj]]'
p7
S'highest'
p8
tp9
F0.0967741935483871
s(S'peak'
p10
S'in'
p11
tp12
F0.03225806451612903
s(g8
S'peak'
p13
tp14
F0.22580645161290322
s(S'[[adj]]'
p15
S'summit'
p16
tp17
F0.06451612903225806
s(S'lies'
p18
S'[[con]]'
p19
tp20
F0.03225806451612903
s(S'subsidiary'
p21
S'summit'
p22
tp23
F0.03225806451612903
s(S'peak'
p24
S'of'
p25
tp26
F0.0967741935483871
s(g16
S'of'
p27
tp28
F0.06451612903225806
s(S'[[con]]'
p29
S'[[adj]]'
p30
tp31
F0.03225806451612903
s(S'[[det]]'
p32
S'highest'
p33
tp34
F0.16129032258064516
s(S'lies'
p35
S'in'
p36
tp37
F0.03225806451612903
s(S'highest'
p38
g29
tp39
F0.03225806451612903
s(S'[[det]]'
p40
g21
tp41
F0.03225806451612903
s.