(dp0
(S'was'
p1
S'returned'
p2
tp3
F0.006289308176100629
s(S'[[det]]'
p4
S'returned'
p5
tp6
F0.006289308176100629
s(S'became'
p7
S'ruler'
p8
tp9
F0.006289308176100629
s(S'buried'
p10
S'at'
p11
tp12
F0.0440251572327044
s(S'[[con]]'
p13
S'is'
p14
tp15
F0.018867924528301886
s(S'buried'
p16
S'on'
p17
tp18
F0.025157232704402517
s(S'buried'
p19
S'near'
p20
tp21
F0.006289308176100629
s(S'buried'
p22
S'[[con]]'
p23
tp24
F0.012578616352201259
s(S'[[det]]'
p25
S'ruler'
p26
tp27
F0.031446540880503145
s(S'ruler'
p28
S'of'
p29
tp30
F0.031446540880503145
s(S'ruler'
p31
S'[[det]]'
p32
tp33
F0.012578616352201259
s(S'was'
p34
g10
tp35
F0.1069182389937107
s(S'again'
p36
S'returned'
p37
tp38
F0.006289308176100629
s(g14
S'buried'
p39
tp40
F0.06289308176100629
s(S'later'
p41
S'recalled'
p42
tp43
F0.006289308176100629
s(S'been'
p44
S'buried'
p45
tp46
F0.006289308176100629
s(S'recalled'
p47
S'from'
p48
tp49
F0.006289308176100629
s(S'just'
p50
S'returned'
p51
tp52
F0.006289308176100629
s(S'had'
p53
S'returned'
p54
tp55
F0.006289308176100629
s(S'died'
p56
S'on'
p57
tp58
F0.006289308176100629
s(S'[[num]]'
p59
S'returned'
p60
tp61
F0.006289308176100629
s(S'recalled'
p62
S'[[pro]]'
p63
tp64
F0.006289308176100629
s(S'buried'
p65
S'[[det]]'
p66
tp67
F0.012578616352201259
s(S'died'
p68
g13
tp69
F0.050314465408805034
s(S'soon'
p70
S'returned'
p71
tp72
F0.006289308176100629
s(S'ruler'
p73
S'in'
p74
tp75
F0.012578616352201259
s(S'then'
p76
S'returned'
p77
tp78
F0.006289308176100629
s(S'was'
p79
S'recalled'
p80
tp81
F0.018867924528301886
s(S'[[adj]]'
p82
S'returned'
p83
tp84
F0.006289308176100629
s(g57
S'was'
p85
tp86
F0.006289308176100629
s(S'returned'
p87
S'[[pro]]'
p88
tp89
F0.006289308176100629
s(S'returned'
p90
S'by'
p91
tp92
F0.006289308176100629
s(S'be'
p93
S'buried'
p94
tp95
F0.018867924528301886
s(S'there'
p96
S'is'
p97
tp98
F0.006289308176100629
s(S'returned'
p99
S'before'
p100
tp101
F0.006289308176100629
s(S'died'
p102
S'[[adj]]'
p103
tp104
F0.006289308176100629
s(S'[[con]]'
p105
g34
tp106
F0.031446540880503145
s(S'there'
p107
S'was'
p108
tp109
F0.006289308176100629
s(S'buried'
p110
S'with'
p111
tp112
F0.006289308176100629
s(S'buried'
p113
S'in'
p114
tp115
F0.06918238993710692
s(g51
S'from'
p116
tp117
F0.006289308176100629
s(S'which'
p118
S'returned'
p119
tp120
F0.006289308176100629
s(S'recalled'
p121
S'in'
p122
tp123
F0.012578616352201259
s(S'died'
p124
S'was'
p125
tp126
F0.006289308176100629
s(S'returned'
p127
S'once'
p128
tp129
F0.006289308176100629
s(S'[[adj]]'
p130
g31
tp131
F0.031446540880503145
s(S'[[pro]]'
p132
S'returned'
p133
tp134
F0.006289308176100629
s(g77
S'in'
p135
tp136
F0.025157232704402517
s(g103
S'was'
p137
tp138
F0.006289308176100629
s(S'died'
p139
g107
tp140
F0.012578616352201259
s(S'[[num]]'
p141
S'is'
p142
tp143
F0.006289308176100629
s(S'[[con]]'
p144
S'returned'
p145
tp146
F0.012578616352201259
s(S'buried'
p147
S'[[adj]]'
p148
tp149
F0.006289308176100629
s(g5
S'to'
p150
tp151
F0.06918238993710692
s(S'[[num]]'
p152
S'was'
p153
tp154
F0.006289308176100629
s(g26
S'[[con]]'
p155
tp156
F0.012578616352201259
s(S'died'
p157
g152
tp158
F0.012578616352201259
s(S'as'
p159
g28
tp160
F0.006289308176100629
s(g39
S'there'
p161
tp162
F0.012578616352201259
s(S'so'
p163
S'returned'
p164
tp165
F0.006289308176100629
s(g80
S'to'
p166
tp167
F0.018867924528301886
s.