(dp0
(S'battle'
p1
S'of'
p2
tp3
F0.02040816326530612
s(S'place'
p4
S'[[con]]'
p5
tp6
F0.01020408163265306
s(S'ended'
p7
S'in'
p8
tp9
F0.01020408163265306
s(S'place'
p10
S'at'
p11
tp12
F0.01020408163265306
s(S'is'
p13
S'fought'
p14
tp15
F0.030612244897959183
s(S'[[adj]]'
p16
S'took'
p17
tp18
F0.01020408163265306
s(S'occurred'
p19
S'when'
p20
tp21
F0.01020408163265306
s(S'place'
p22
S'[[num]]'
p23
tp24
F0.01020408163265306
s(S'occurred'
p25
S'near'
p26
tp27
F0.01020408163265306
s(S'battle'
p28
S'between'
p29
tp30
F0.02040816326530612
s(S'fought'
p31
S'in'
p32
tp33
F0.04081632653061224
s(S'[[det]]'
p34
S'allied'
p35
tp36
F0.01020408163265306
s(S'battle'
p37
S'fought'
p38
tp39
F0.02040816326530612
s(S'occurred'
p40
S'in'
p41
tp42
F0.02040816326530612
s(S'fought'
p43
S'with'
p44
tp45
F0.01020408163265306
s(S'[[det]]'
p46
S'aftermath'
p47
tp48
F0.01020408163265306
s(S'began'
p49
S'when'
p50
tp51
F0.01020408163265306
s(S'place'
p52
S'to'
p53
tp54
F0.01020408163265306
s(S'ended'
p55
S'with'
p56
tp57
F0.01020408163265306
s(S'place'
p58
S'[[det]]'
p59
tp60
F0.01020408163265306
s(S'[[det]]'
p61
S'fought'
p62
tp63
F0.01020408163265306
s(S'[[adj]]'
p64
S'battles'
p65
tp66
F0.01020408163265306
s(S'began'
p67
S'[[con]]'
p68
tp69
F0.01020408163265306
s(S'place'
p70
S'near'
p71
tp72
F0.01020408163265306
s(S'fought'
p73
S'on'
p74
tp75
F0.01020408163265306
s(S'occurred'
p76
S'[[num]]'
p77
tp78
F0.01020408163265306
s(S'out'
p79
S'[[det]]'
p80
tp81
F0.01020408163265306
s(S'place'
p82
S'in'
p83
tp84
F0.02040816326530612
s(g68
g46
tp85
F0.01020408163265306
s(S'armies'
p86
S'of'
p87
tp88
F0.01020408163265306
s(S'[[adj]]'
p89
g37
tp90
F0.04081632653061224
s(S'place'
p91
S'on'
p92
tp93
F0.01020408163265306
s(S'took'
p94
g10
tp95
F0.11224489795918367
s(S'broke'
p96
g79
tp97
F0.02040816326530612
s(S'occurred'
p98
S'at'
p99
tp100
F0.01020408163265306
s(S'was'
p101
g43
tp102
F0.08163265306122448
s(S'fought'
p103
S'at'
p104
tp105
F0.01020408163265306
s(g65
S'in'
p106
tp107
F0.01020408163265306
s(S'fought'
p108
S'near'
p109
tp110
F0.02040816326530612
s(g2
S'fought'
p111
tp112
F0.01020408163265306
s(S'began'
p113
S'after'
p114
tp115
F0.01020408163265306
s(g80
S'conflict'
p116
tp117
F0.01020408163265306
s(S'in'
p118
S'began'
p119
tp120
F0.01020408163265306
s(S'between'
p121
g34
tp122
F0.02040816326530612
s(S'which'
p123
S'ended'
p124
tp125
F0.01020408163265306
s(S'that'
p126
S'occurred'
p127
tp128
F0.01020408163265306
s(g116
g121
tp129
F0.01020408163265306
s(S'of'
p130
g61
tp131
F0.01020408163265306
s(g50
S'invaded'
p132
tp133
F0.01020408163265306
s(S'[[adj]]'
p134
S'engagement'
p135
tp136
F0.01020408163265306
s(S'[[det]]'
p137
g86
tp138
F0.01020408163265306
s(S'battle'
p139
S'[[con]]'
p140
tp141
F0.01020408163265306
s(S'ended'
p142
S'[[con]]'
p143
tp144
F0.01020408163265306
s(S'began'
p145
S'in'
p146
tp147
F0.01020408163265306
s(S'fought'
p148
S'between'
p149
tp150
F0.061224489795918366
s(S'place'
p151
S'from'
p152
tp153
F0.01020408163265306
s(S'[[det]]'
p154
g1
tp155
F0.04081632653061224
s.