(dp0
(S'been'
p1
S'played'
p2
tp3
F0.002257336343115124
s(S'portrayed'
p4
S'in'
p5
tp6
F0.009029345372460496
s(S'played'
p7
S'after'
p8
tp9
F0.002257336343115124
s(S'played'
p10
S'was'
p11
tp12
F0.002257336343115124
s(S'with'
p13
S'played'
p14
tp15
F0.004514672686230248
s(S'portrayed'
p16
S'by'
p17
tp18
F0.024830699774266364
s(S'also'
p19
S'played'
p20
tp21
F0.03160270880361174
s(S'is'
p22
S'played'
p23
tp24
F0.002257336343115124
s(S'also'
p25
S'portrayed'
p26
tp27
F0.013544018058690745
s(S'performed'
p28
S'[[det]]'
p29
tp30
F0.011286681715575621
s(S'[[adj]]'
p31
S'played'
p32
tp33
F0.004514672686230248
s(S'who'
p34
S'portrayed'
p35
tp36
F0.002257336343115124
s(S'then'
p37
S'played'
p38
tp39
F0.013544018058690745
s(S'where'
p40
S'played'
p41
tp42
F0.009029345372460496
s(S'on'
p43
S'[[det]]'
p44
tp45
F0.004514672686230248
s(S'played'
p46
S'is'
p47
tp48
F0.002257336343115124
s(S'voiced'
p49
S'[[prp]]'
p50
tp51
F0.002257336343115124
s(S'that'
p52
S'played'
p53
tp54
F0.002257336343115124
s(S'while'
p55
S'played'
p56
tp57
F0.002257336343115124
s(S'is'
p58
S'voiced'
p59
tp60
F0.009029345372460496
s(S'[[adj]]'
p61
S'performed'
p62
tp63
F0.002257336343115124
s(S'character'
p64
S'[[con]]'
p65
tp66
F0.004514672686230248
s(S'performed'
p67
S'as'
p68
tp69
F0.006772009029345372
s(S'[[con]]'
p70
S'played'
p71
tp72
F0.01805869074492099
s(S'had'
p73
S'played'
p74
tp75
F0.009029345372460496
s(S'portrayed'
p76
S'is'
p77
tp78
F0.002257336343115124
s(S'played'
p79
S's'
p80
tp81
F0.004514672686230248
s(S'played'
p82
S'when'
p83
tp84
F0.002257336343115124
s(S'as'
p85
g16
tp86
F0.002257336343115124
s(S'which'
p87
S'portrayed'
p88
tp89
F0.002257336343115124
s(S'since'
p90
S'performed'
p91
tp92
F0.002257336343115124
s(S'character'
p93
S'played'
p94
tp95
F0.009029345372460496
s(S'[[det]]'
p96
S'voiced'
p97
tp98
F0.002257336343115124
s(S'from'
p99
S'[[det]]'
p100
tp101
F0.002257336343115124
s(S'[[con]]'
p102
S'is'
p103
tp104
F0.002257336343115124
s(S'played'
p105
S'then'
p106
tp107
F0.002257336343115124
s(S'played'
p108
S'for'
p109
tp110
F0.002257336343115124
s(S'[[num]]'
p111
S'performed'
p112
tp113
F0.006772009029345372
s(S'performed'
p114
S'[[pro]]'
p115
tp116
F0.002257336343115124
s(S'[[adj]]'
p117
S'character'
p118
tp119
F0.024830699774266364
s(S'by'
p120
S'actor'
p121
tp122
F0.004514672686230248
s(S'performed'
p123
S'[[num]]'
p124
tp125
F0.002257336343115124
s(S'already'
p126
S'played'
p127
tp128
F0.002257336343115124
s(S'character'
p129
S'in'
p130
tp131
F0.002257336343115124
s(S'played'
p132
S'under'
p133
tp134
F0.006772009029345372
s(S'who'
p135
S'played'
p136
tp137
F0.004514672686230248
s(g59
S'by'
p138
tp139
F0.013544018058690745
s(S'still'
p140
g108
tp141
F0.002257336343115124
s(S'played'
p142
S'well'
p143
tp144
F0.002257336343115124
s(S'[[det]]'
p145
S'of'
p146
tp147
F0.002257336343115124
s(S'performed'
p148
S'from'
p149
tp150
F0.002257336343115124
s(S'by'
p151
S'[[adj]]'
p152
tp153
F0.004514672686230248
s(S'performed'
p154
S'before'
p155
tp156
F0.006772009029345372
s(S'have'
p157
S'played'
p158
tp159
F0.013544018058690745
s(S'voiced'
p160
S'in'
p161
tp162
F0.004514672686230248
s(S'be'
p163
S'played'
p164
tp165
F0.002257336343115124
s(S'performed'
p166
S'for'
p167
tp168
F0.011286681715575621
s(S'first'
p169
S'performed'
p170
tp171
F0.006772009029345372
s(S'voiced'
p172
S'is'
p173
tp174
F0.002257336343115124
s(g146
S'character'
p175
tp176
F0.002257336343115124
s(S'has'
p177
S'portrayed'
p178
tp179
F0.004514672686230248
s(S'later'
p180
S'played'
p181
tp182
F0.004514672686230248
s(S'played'
p183
S'[[adj]]'
p184
tp185
F0.013544018058690745
s(g44
S'drama'
p186
tp187
F0.002257336343115124
s(S'performed'
p188
S'with'
p189
tp190
F0.024830699774266364
s(S'played'
p191
S'from'
p192
tp193
F0.002257336343115124
s(S'also'
p194
S'voiced'
p195
tp196
F0.002257336343115124
s(S'which'
p197
S'played'
p198
tp199
F0.002257336343115124
s(S'played'
p200
S'[[num]]'
p201
tp202
F0.002257336343115124
s(S'as'
p203
S'performed'
p204
tp205
F0.002257336343115124
s(S'played'
p206
S'by'
p207
tp208
F0.05191873589164785
s(S'character'
p209
S'of'
p210
tp211
F0.006772009029345372
s(S'[[pro]]'
p212
S'played'
p213
tp214
F0.004514672686230248
s(S'where'
p215
S'performed'
p216
tp217
F0.004514672686230248
s(S'has'
p218
g148
tp219
F0.02708803611738149
s(S'portrayed'
p220
S'[[adj]]'
p221
tp222
F0.006772009029345372
s(S'[[con]]'
p223
S'performed'
p224
tp225
F0.013544018058690745
s(S'voiced'
p226
S'[[con]]'
p227
tp228
F0.004514672686230248
s(g41
S'with'
p229
tp230
F0.02708803611738149
s(S'is'
p231
S'portrayed'
p232
tp233
F0.01580135440180587
s(S'voiced'
p234
S'[[adj]]'
p235
tp236
F0.002257336343115124
s(S'were'
p237
S'played'
p238
tp239
F0.002257336343115124
s(S'performed'
p240
S'on'
p241
tp242
F0.006772009029345372
s(S'portrayed'
p243
S'[[num]]'
p244
tp245
F0.002257336343115124
s(g20
S'[[det]]'
p246
tp247
F0.03837471783295711
s(S'performed'
p248
S'to'
p249
tp250
F0.006772009029345372
s(S'[[con]]'
p251
S'voiced'
p252
tp253
F0.004514672686230248
s(S'[[num]]'
p254
S'played'
p255
tp256
F0.004514672686230248
s(S'portrayed'
p257
S'as'
p258
tp259
F0.006772009029345372
s(g158
S'along'
p260
tp261
F0.006772009029345372
s(S'was'
p262
S'portrayed'
p263
tp264
F0.01580135440180587
s(S'performed'
p265
S'was'
p266
tp267
F0.002257336343115124
s(S'[[det]]'
p268
S'[[adj]]'
p269
tp270
F0.009029345372460496
s(g80
S'performed'
p271
tp272
F0.004514672686230248
s(S'then'
p273
S'performed'
p274
tp275
F0.002257336343115124
s(g263
S'with'
p276
tp277
F0.004514672686230248
s(S'performed'
p278
S'[[con]]'
p279
tp280
F0.009029345372460496
s(g170
S'in'
p281
tp282
F0.004514672686230248
s(S'played'
p283
S'together'
p284
tp285
F0.004514672686230248
s(S'portrayed'
p286
S'[[pro]]'
p287
tp288
F0.002257336343115124
s(S'played'
p289
S'before'
p290
tp291
F0.002257336343115124
s(S'played'
p292
S'who'
p293
tp294
F0.002257336343115124
s(S'[[det]]'
p295
S'character'
p296
tp297
F0.01580135440180587
s(S'had'
p298
S'performed'
p299
tp300
F0.009029345372460496
s(S'performed'
p301
S'[[adj]]'
p302
tp303
F0.006772009029345372
s(S'also'
p304
g188
tp305
F0.02708803611738149
s(S'has'
p306
S'voiced'
p307
tp308
F0.002257336343115124
s(S'performed'
p309
S'under'
p310
tp311
F0.004514672686230248
s(S'as'
p312
S'played'
p313
tp314
F0.006772009029345372
s(S'character'
p315
g99
tp316
F0.002257336343115124
s(S'been'
p317
S'portrayed'
p318
tp319
F0.006772009029345372
s(S'was'
p320
g160
tp321
F0.006772009029345372
s(S'performed'
p322
S'along'
p323
tp324
F0.004514672686230248
s(S'television'
p325
S'series'
p326
tp327
F0.002257336343115124
s(S'[[con]]'
p328
S'portrayed'
p329
tp330
F0.004514672686230248
s(S'[[det]]'
p331
S'performed'
p332
tp333
F0.004514672686230248
s(S'has'
p334
S'played'
p335
tp336
F0.011286681715575621
s(S'played'
p337
S'[[pro]]'
p338
tp339
F0.004514672686230248
s(S'voiced'
p340
S'[[det]]'
p341
tp342
F0.002257336343115124
s(S'actors'
p343
S'including'
p344
tp345
F0.004514672686230248
s(S'performed'
p346
S'by'
p347
tp348
F0.01805869074492099
s(S'[[det]]'
p349
g325
tp350
F0.002257336343115124
s(S'later'
p351
S'performed'
p352
tp353
F0.002257336343115124
s(S'character'
p354
S'[[det]]'
p355
tp356
F0.002257336343115124
s(S'have'
p357
S'performed'
p358
tp359
F0.002257336343115124
s(g326
S'played'
p360
tp361
F0.002257336343115124
s(S'played'
p362
S'of'
p363
tp364
F0.002257336343115124
s(g118
g43
tp365
F0.004514672686230248
s(S'first'
p366
S'played'
p367
tp368
F0.004514672686230248
s(g152
g343
tp369
F0.004514672686230248
s(S'played'
p370
S'as'
p371
tp372
F0.009029345372460496
s(S'played'
p373
S'that'
p374
tp375
F0.002257336343115124
s(g80
S'played'
p376
tp377
F0.004514672686230248
s(S'portrayed'
p378
S'[[con]]'
p379
tp380
F0.009029345372460496
s(S'played'
p381
S'to'
p382
tp383
F0.002257336343115124
s(S'in'
p384
S'voiced'
p385
tp386
F0.002257336343115124
s(S'[[det]]'
p387
S'played'
p388
tp389
F0.004514672686230248
s(S'which'
p390
S'performed'
p391
tp392
F0.002257336343115124
s(S'performed'
p393
S'together'
p394
tp395
F0.006772009029345372
s(S'portrayed'
p396
S'[[det]]'
p397
tp398
F0.011286681715575621
s(S'when'
p399
S'played'
p400
tp401
F0.002257336343115124
s(S'often'
p402
S'played'
p403
tp404
F0.002257336343115124
s(S'played'
p405
S'while'
p406
tp407
F0.002257336343115124
s(S'played'
p408
S'[[con]]'
p409
tp410
F0.013544018058690745
s(S'played'
p411
S'[[prp]]'
p412
tp413
F0.002257336343115124
s(S'character'
p414
S'portrayed'
p415
tp416
F0.002257336343115124
s(S'was'
p417
S'played'
p418
tp419
F0.006772009029345372
s(g186
S'played'
p420
tp421
F0.002257336343115124
s(S'often'
p422
S'performed'
p423
tp424
F0.006772009029345372
s.