(dp0
(S'hosted'
p1
S'was'
p2
tp3
F0.027777777777777776
s(S'presented'
p4
S'[[adj]]'
p5
tp6
F0.027777777777777776
s(S'hosted'
p7
S'with'
p8
tp9
F0.027777777777777776
s(S'was'
p10
S'originally'
p11
tp12
F0.027777777777777776
s(S'was'
p13
S'hosted'
p14
tp15
F0.1388888888888889
s(S'hosted'
p16
S'by'
p17
tp18
F0.2222222222222222
s(S'[[con]]'
p19
S'hosted'
p20
tp21
F0.027777777777777776
s(S'[[adj]]'
p22
S'presented'
p23
tp24
F0.027777777777777776
s(S'hosted'
p25
S'[[con]]'
p26
tp27
F0.027777777777777776
s(S'replaced'
p28
S'by'
p29
tp30
F0.027777777777777776
s(S'[[num]]'
p31
S'hosted'
p32
tp33
F0.05555555555555555
s(g2
g28
tp34
F0.027777777777777776
s(g11
S'hosted'
p35
tp36
F0.027777777777777776
s(S'is'
p37
S'presented'
p38
tp39
F0.027777777777777776
s(S'is'
p40
S'hosted'
p41
tp42
F0.05555555555555555
s(S'was'
p43
g4
tp44
F0.027777777777777776
s(g23
S'by'
p45
tp46
F0.1111111111111111
s(S'be'
p47
S'presented'
p48
tp49
F0.027777777777777776
s(S'show'
p50
S'hosted'
p51
tp52
F0.027777777777777776
s(S'[[adj]]'
p53
g16
tp54
F0.027777777777777776
s.