(dp0
(S'[[adj]]'
p1
S'album'
p2
tp3
F0.1276595744680851
s(S'albums'
p4
S'[[con]]'
p5
tp6
F0.06382978723404255
s(S'[[con]]'
p7
S'contains'
p8
tp9
F0.02127659574468085
s(S'contains'
p10
S'[[det]]'
p11
tp12
F0.0425531914893617
s(S'[[con]]'
p13
S'albums'
p14
tp15
F0.02127659574468085
s(S'album'
p16
S'by'
p17
tp18
F0.10638297872340426
s(g2
S'where'
p19
tp20
F0.02127659574468085
s(S'[[det]]'
p21
S'contains'
p22
tp23
F0.02127659574468085
s(S'[[num]]'
p24
g16
tp25
F0.02127659574468085
s(S'was'
p26
S'album'
p27
tp28
F0.02127659574468085
s(S'[[adj]]'
p29
g4
tp30
F0.0425531914893617
s(S'[[det]]'
p31
S'album'
p32
tp33
F0.0851063829787234
s(S'contains'
p34
S'[[adj]]'
p35
tp36
F0.02127659574468085
s(S'[[num]]'
p37
S'albums'
p38
tp39
F0.02127659574468085
s(S'is'
p40
S'album'
p41
tp42
F0.0425531914893617
s(S'of'
p43
S'album'
p44
tp45
F0.02127659574468085
s(S'contains'
p46
S'[[num]]'
p47
tp48
F0.02127659574468085
s(S'contains'
p49
S'[[prp]]'
p50
tp51
F0.02127659574468085
s(S'also'
p52
S'contains'
p53
tp54
F0.0425531914893617
s(g32
S'as'
p55
tp56
F0.02127659574468085
s(S'album'
p57
S'that'
p58
tp59
F0.02127659574468085
s(S'contains'
p60
S'[[con]]'
p61
tp62
F0.02127659574468085
s(S'album'
p63
S'from'
p64
tp65
F0.0425531914893617
s(S'album'
p66
S'of'
p67
tp68
F0.02127659574468085
s(S'[[det]]'
p69
S'albums'
p70
tp71
F0.0425531914893617
s(S'album'
p72
S'with'
p73
tp74
F0.0425531914893617
s.