(dp0
(S'operates'
p1
S'between'
p2
tp3
F0.004329004329004329
s(S'models'
p4
S'[[con]]'
p5
tp6
F0.004329004329004329
s(S'[[adj]]'
p7
S'products'
p8
tp9
F0.004329004329004329
s(S'[[pro]]'
p10
S'acquired'
p11
tp12
F0.004329004329004329
s(S'acquired'
p13
S'[[num]]'
p14
tp15
F0.008658008658008658
s(S'[[adj]]'
p16
S'released'
p17
tp18
F0.004329004329004329
s(S'was'
p19
S'acquired'
p20
tp21
F0.012987012987012988
s(S'been'
p22
S'acquired'
p23
tp24
F0.004329004329004329
s(S'released'
p25
S'as'
p26
tp27
F0.004329004329004329
s(S'production'
p28
S'of'
p29
tp30
F0.004329004329004329
s(S'[[num]]'
p31
S'acquired'
p32
tp33
F0.004329004329004329
s(S'announced'
p34
S'that'
p35
tp36
F0.008658008658008658
s(S'announced'
p37
S'[[mod]]'
p38
tp39
F0.004329004329004329
s(S'be'
p40
S'acquired'
p41
tp42
F0.004329004329004329
s(S'products'
p43
S'for'
p44
tp45
F0.004329004329004329
s(S'released'
p46
S'[[con]]'
p47
tp48
F0.008658008658008658
s(S'[[num]]'
p49
S'release'
p50
tp51
F0.004329004329004329
s(S'operates'
p52
S'[[prp]]'
p53
tp54
F0.004329004329004329
s(S'sell'
p55
S'[[con]]'
p56
tp57
F0.004329004329004329
s(S'also'
p58
S'operates'
p59
tp60
F0.012987012987012988
s(S'production'
p61
S'[[det]]'
p62
tp63
F0.004329004329004329
s(S'acquired'
p64
S'[[pro]]'
p65
tp66
F0.004329004329004329
s(S'had'
p67
S'introduced'
p68
tp69
F0.004329004329004329
s(S'operates'
p70
S'[[adj]]'
p71
tp72
F0.004329004329004329
s(S'also'
p73
S'owns'
p74
tp75
F0.008658008658008658
s(S'[[con]]'
p76
S'acquired'
p77
tp78
F0.008658008658008658
s(S'involved'
p79
S'in'
p80
tp81
F0.008658008658008658
s(S'home'
p82
S'at'
p83
tp84
F0.004329004329004329
s(S'[[mod]]'
p85
S'release'
p86
tp87
F0.012987012987012988
s(S'sell'
p88
S'[[det]]'
p89
tp90
F0.004329004329004329
s(S'series'
p91
S'on'
p92
tp93
F0.012987012987012988
s(S'release'
p94
S'with'
p95
tp96
F0.004329004329004329
s(S'[[adj]]'
p97
S'home'
p98
tp99
F0.012987012987012988
s(S'manufacturer'
p100
S'of'
p101
tp102
F0.004329004329004329
s(S'products'
p103
S'[[adj]]'
p104
tp105
F0.004329004329004329
s(S'which'
p106
S'owns'
p107
tp108
F0.004329004329004329
s(S'being'
p109
S'acquired'
p110
tp111
F0.004329004329004329
s(S'acquired'
p112
S'as'
p113
tp114
F0.004329004329004329
s(S'introduced'
p115
S'[[prp]]'
p116
tp117
F0.004329004329004329
s(S'[[det]]'
p118
S'service'
p119
tp120
F0.004329004329004329
s(S'released'
p121
S'from'
p122
tp123
F0.004329004329004329
s(S'operates'
p124
S'out'
p125
tp126
F0.004329004329004329
s(S'console'
p127
S'[[con]]'
p128
tp129
F0.004329004329004329
s(S'has'
p130
S'acquired'
p131
tp132
F0.004329004329004329
s(S'were'
p133
g79
tp134
F0.004329004329004329
s(S'bundled'
p135
S'with'
p136
tp137
F0.004329004329004329
s(S'released'
p138
S'to'
p139
tp140
F0.004329004329004329
s(S'when'
p141
S'acquired'
p142
tp143
F0.004329004329004329
s(S'version'
p144
S'of'
p145
tp146
F0.004329004329004329
s(S'[[det]]'
p147
S'[[num]]'
p148
tp149
F0.012987012987012988
s(S'[[adj]]'
p150
S'production'
p151
tp152
F0.004329004329004329
s(S'acquired'
p153
S'[[adj]]'
p154
tp155
F0.004329004329004329
s(S'also'
p156
S'announced'
p157
tp158
F0.004329004329004329
s(g59
S'on'
p159
tp160
F0.008658008658008658
s(S'to'
p161
g94
tp162
F0.017316017316017316
s(S'now'
p163
S'operates'
p164
tp165
F0.004329004329004329
s(S'had'
p166
S'acquired'
p167
tp168
F0.017316017316017316
s(S'introduced'
p169
S'[[det]]'
p170
tp171
F0.017316017316017316
s(S'released'
p172
S'[[det]]'
p173
tp174
F0.047619047619047616
s(g119
S'for'
p175
tp176
F0.004329004329004329
s(S'owns'
p177
S'[[num]]'
p178
tp179
F0.008658008658008658
s(S'operates'
p180
S'[[det]]'
p181
tp182
F0.012987012987012988
s(S'currently'
p183
S'owns'
p184
tp185
F0.004329004329004329
s(S'sell'
p186
S'[[prp]]'
p187
tp188
F0.004329004329004329
s(S'release'
p189
S'[[con]]'
p190
tp191
F0.004329004329004329
s(S'also'
p192
S'introduced'
p193
tp194
F0.004329004329004329
s(S'also'
p195
S'released'
p196
tp197
F0.008658008658008658
s(g151
S'at'
p198
tp199
F0.004329004329004329
s(S'later'
p200
S'renamed'
p201
tp202
F0.004329004329004329
s(S'announced'
p203
S'[[adj]]'
p204
tp205
F0.004329004329004329
s(S'were'
p206
S'acquired'
p207
tp208
F0.004329004329004329
s(S'operates'
p209
S'[[num]]'
p210
tp211
F0.012987012987012988
s(g207
S'by'
p212
tp213
F0.03896103896103896
s(S'seasons'
p214
S'on'
p215
tp216
F0.008658008658008658
s(S'release'
p217
S'on'
p218
tp219
F0.004329004329004329
s(S'release'
p220
S'[[num]]'
p221
tp222
F0.004329004329004329
s(S'released'
p223
S'[[num]]'
p224
tp225
F0.004329004329004329
s(S'announced'
p226
S'[[con]]'
p227
tp228
F0.004329004329004329
s(S'had'
p229
S'released'
p230
tp231
F0.004329004329004329
s(S'which'
p232
S'acquired'
p233
tp234
F0.004329004329004329
s(S'renamed'
p235
S'in'
p236
tp237
F0.004329004329004329
s(S'[[con]]'
p238
S'introduced'
p239
tp240
F0.004329004329004329
s(S'released'
p241
S'of'
p242
tp243
F0.004329004329004329
s(S'announced'
p244
S'for'
p245
tp246
F0.004329004329004329
s(g74
S'[[det]]'
p247
tp248
F0.004329004329004329
s(S'[[adj]]'
p249
S'release'
p250
tp251
F0.008658008658008658
s(S'released'
p252
S'on'
p253
tp254
F0.004329004329004329
s(S'released'
p255
S'at'
p256
tp257
F0.004329004329004329
s(S'[[mod]]'
p258
S'sell'
p259
tp260
F0.004329004329004329
s(S'[[det]]'
p261
S'[[adj]]'
p262
tp263
F0.012987012987012988
s(S'released'
p264
S'[[adj]]'
p265
tp266
F0.004329004329004329
s(g167
S'[[con]]'
p267
tp268
F0.012987012987012988
s(S'series'
p269
S'of'
p270
tp271
F0.004329004329004329
s(S'owns'
p272
S'[[con]]'
p273
tp274
F0.004329004329004329
s(S'[[adj]]'
p275
g100
tp276
F0.004329004329004329
s(S'operates'
p277
S'[[con]]'
p278
tp279
F0.004329004329004329
s(S'[[adj]]'
p280
S'models'
p281
tp282
F0.004329004329004329
s(S'operates'
p283
S'at'
p284
tp285
F0.004329004329004329
s(S'release'
p286
S'[[prp]]'
p287
tp288
F0.004329004329004329
s(S'become'
p289
S'involved'
p290
tp291
F0.004329004329004329
s(S'has'
p292
S'released'
p293
tp294
F0.025974025974025976
s(S'[[adj]]'
p295
S'console'
p296
tp297
F0.004329004329004329
s(g148
g214
tp298
F0.012987012987012988
s(S'acquired'
p299
S'[[prp]]'
p300
tp301
F0.004329004329004329
s(S'renamed'
p302
S'[[prp]]'
p303
tp304
F0.004329004329004329
s(S'products'
p305
S'[[con]]'
p306
tp307
F0.004329004329004329
s(S'later'
p308
S'released'
p309
tp310
F0.004329004329004329
s(S'acquired'
p311
S'in'
p312
tp313
F0.004329004329004329
s(S's'
p314
S'release'
p315
tp316
F0.008658008658008658
s(S'have'
p317
S'released'
p318
tp319
F0.004329004329004329
s(g262
g91
tp320
F0.012987012987012988
s(S'sell'
p321
S'[[num]]'
p322
tp323
F0.004329004329004329
s(S'currently'
p324
g209
tp325
F0.012987012987012988
s(S'been'
p326
S'involved'
p327
tp328
F0.004329004329004329
s(S'acquired'
p329
S'from'
p330
tp331
F0.012987012987012988
s(S'also'
p332
S'acquired'
p333
tp334
F0.012987012987012988
s(S'releases'
p335
S'[[det]]'
p336
tp337
F0.004329004329004329
s(S'to'
p338
g88
tp339
F0.021645021645021644
s(S'[[det]]'
p340
S'acquired'
p341
tp342
F0.004329004329004329
s(S'launched'
p343
g118
tp344
F0.004329004329004329
s(S'then'
p345
S'acquired'
p346
tp347
F0.004329004329004329
s(S'not'
p348
S'release'
p349
tp350
F0.004329004329004329
s(S'has'
p351
g34
tp352
F0.012987012987012988
s(S'acquired'
p353
S'[[det]]'
p354
tp355
F0.012987012987012988
s(S'[[num]]'
p356
S'home'
p357
tp358
F0.004329004329004329
s(S'home'
p359
S'[[det]]'
p360
tp361
F0.004329004329004329
s(S'operates'
p362
S'to'
p363
tp364
F0.004329004329004329
s(S'[[adj]]'
p365
S'gaming'
p366
tp367
F0.004329004329004329
s(S'later'
p368
S'involved'
p369
tp370
F0.004329004329004329
s(S'released'
p371
S'for'
p372
tp373
F0.004329004329004329
s(g349
S'[[det]]'
p374
tp375
F0.012987012987012988
s(S'later'
p376
S'acquired'
p377
tp378
F0.012987012987012988
s(S'[[det]]'
p379
S'series'
p380
tp381
F0.004329004329004329
s(S'announced'
p382
S'[[num]]'
p383
tp384
F0.004329004329004329
s(S'acquired'
p385
S'to'
p386
tp387
F0.004329004329004329
s(S'[[con]]'
p388
S'sell'
p389
tp390
F0.004329004329004329
s(S'acquired'
p391
S'with'
p392
tp393
F0.004329004329004329
s(S'seasons'
p394
S'of'
p395
tp396
F0.004329004329004329
s(S'[[det]]'
p397
g144
tp398
F0.004329004329004329
s(g315
S'of'
p399
tp400
F0.008658008658008658
s(g327
S'[[adj]]'
p401
tp402
F0.004329004329004329
s(S'announced'
p403
S'[[det]]'
p404
tp405
F0.008658008658008658
s(g201
S'to'
p406
tp407
F0.004329004329004329
s.