(dp0
(S'playing'
p1
S'as'
p2
tp3
F0.0025188916876574307
s(S'was'
p4
S'playing'
p5
tp6
F0.017632241813602016
s(S'on'
p7
S'playing'
p8
tp9
F0.0025188916876574307
s(S'only'
p10
S'played'
p11
tp12
F0.012594458438287154
s(S'played'
p13
S'where'
p14
tp15
F0.005037783375314861
s(S'played'
p16
S'was'
p17
tp18
F0.0025188916876574307
s(S'with'
p19
S'played'
p20
tp21
F0.0025188916876574307
s(S'played'
p22
S'between'
p23
tp24
F0.0025188916876574307
s(S'[[pro]]'
p25
S'playing'
p26
tp27
F0.0025188916876574307
s(S'also'
p28
S'played'
p29
tp30
F0.037783375314861464
s(S'playing'
p31
S'at'
p32
tp33
F0.0025188916876574307
s(S'[[adj]]'
p34
S'played'
p35
tp36
F0.015113350125944584
s(g5
S'on'
p37
tp38
F0.0025188916876574307
s(S'played'
p39
S'over'
p40
tp41
F0.005037783375314861
s(S'then'
p42
S'played'
p43
tp44
F0.022670025188916875
s(S'playing'
p45
S'against'
p46
tp47
F0.005037783375314861
s(S'where'
p48
S'played'
p49
tp50
F0.010075566750629723
s(S'[[adj]]'
p51
S'league'
p52
tp53
F0.0025188916876574307
s(S'for'
p54
S'played'
p55
tp56
F0.0025188916876574307
s(S'split'
p57
g51
tp58
F0.0025188916876574307
s(S'mainly'
p59
S'played'
p60
tp61
F0.005037783375314861
s(S'that'
p62
S'played'
p63
tp64
F0.0025188916876574307
s(S'began'
p65
S'as'
p66
tp67
F0.0025188916876574307
s(S'while'
p68
S'played'
p69
tp70
F0.0025188916876574307
s(S'played'
p71
S'also'
p72
tp73
F0.005037783375314861
s(g52
S'appearances'
p74
tp75
F0.0025188916876574307
s(S'[[con]]'
p76
S'played'
p77
tp78
F0.015113350125944584
s(S'award'
p79
S'[[num]]'
p80
tp81
F0.0025188916876574307
s(S'played'
p82
S'on'
p83
tp84
F0.007556675062972292
s(S'had'
p85
S'played'
p86
tp87
F0.017632241813602016
s(S'[[prp]]'
p88
S'playing'
p89
tp90
F0.0025188916876574307
s(S'played'
p91
S'then'
p92
tp93
F0.0025188916876574307
s(S'played'
p94
S'mainly'
p95
tp96
F0.005037783375314861
s(S'played'
p97
S'for'
p98
tp99
F0.07304785894206549
s(S'played'
p100
S'[[det]]'
p101
tp102
F0.020151133501259445
s(S'back'
p103
S'playing'
p104
tp105
F0.005037783375314861
s(S'already'
p106
S'played'
p107
tp108
F0.005037783375314861
s(S'by'
p109
S'playing'
p110
tp111
F0.0025188916876574307
s(S'who'
p112
S'played'
p113
tp114
F0.007556675062972292
s(S'to'
p115
S'played'
p116
tp117
F0.0025188916876574307
s(S'played'
p118
S'well'
p119
tp120
F0.0025188916876574307
s(g110
S'for'
p121
tp122
F0.05793450881612091
s(S'played'
p123
S'just'
p124
tp125
F0.0025188916876574307
s(S'have'
p126
S'played'
p127
tp128
F0.007556675062972292
s(S'[[det]]'
p129
g79
tp130
F0.0025188916876574307
s(S'[[adj]]'
p131
S'playing'
p132
tp133
F0.007556675062972292
s(g49
S'in'
p134
tp135
F0.042821158690176324
s(S'later'
p136
S'played'
p137
tp138
F0.022670025188916875
s(S'played'
p139
S'[[adj]]'
p140
tp141
F0.0025188916876574307
s(S'once'
p142
S'played'
p143
tp144
F0.005037783375314861
s(S'played'
p145
S'from'
p146
tp147
F0.005037783375314861
s(S'which'
p148
S'played'
p149
tp150
F0.0025188916876574307
s(S'played'
p151
S'[[num]]'
p152
tp153
F0.007556675062972292
s(S'is'
p154
S'playing'
p155
tp156
F0.005037783375314861
s(S'been'
p157
S'playing'
p158
tp159
F0.010075566750629723
s(S'[[pro]]'
p160
S'played'
p161
tp162
F0.005037783375314861
s(g35
S'against'
p163
tp164
F0.030226700251889168
s(S'before'
p165
S'playing'
p166
tp167
F0.007556675062972292
s(S'played'
p168
S'mostly'
p169
tp170
F0.0025188916876574307
s(S'played'
p171
S'again'
p172
tp173
F0.0025188916876574307
s(S'playing'
p174
S'in'
p175
tp176
F0.02518891687657431
s(g60
S'with'
p177
tp178
F0.042821158690176324
s(S'played'
p179
S'there'
p180
tp181
F0.0025188916876574307
s(S'[[det]]'
p182
S'played'
p183
tp184
F0.005037783375314861
s(g149
S'[[con]]'
p185
tp186
F0.02518891687657431
s(S'now'
p187
S'playing'
p188
tp189
F0.005037783375314861
s(g104
S'[[det]]'
p190
tp191
F0.005037783375314861
s(S'[[det]]'
p192
S'playing'
p193
tp194
F0.005037783375314861
s(S'playing'
p195
S'[[adj]]'
p196
tp197
F0.0025188916876574307
s(S'after'
p198
S'playing'
p199
tp200
F0.005037783375314861
s(g11
S'twice'
p201
tp202
F0.012594458438287154
s(S'when'
p203
S'playing'
p204
tp205
F0.0025188916876574307
s(S'[[adj]]'
p206
S'pitcher'
p207
tp208
F0.0025188916876574307
s(S'in'
p209
S'played'
p210
tp211
F0.0025188916876574307
s(S'[[num]]'
p212
S'played'
p213
tp214
F0.005037783375314861
s(g158
S'with'
p215
tp216
F0.020151133501259445
s(S'currently'
p217
S'playing'
p218
tp219
F0.007556675062972292
s(S'played'
p220
S'most'
p221
tp222
F0.005037783375314861
s(S'still'
p223
S'playing'
p224
tp225
F0.0025188916876574307
s(g29
S'before'
p226
tp227
F0.005037783375314861
s(g207
S'who'
p228
tp229
F0.0025188916876574307
s(S'played'
p230
S'after'
p231
tp232
F0.0025188916876574307
s(S'has'
p233
g151
tp234
F0.030226700251889168
s(S'played'
p235
S'when'
p236
tp237
F0.0025188916876574307
s(g74
S'for'
p238
tp239
F0.0025188916876574307
s(S'times'
p240
S'[[det]]'
p241
tp242
F0.0025188916876574307
s(S'played'
p243
S'once'
p244
tp245
F0.005037783375314861
s(S'then'
p246
S'playing'
p247
tp248
F0.005037783375314861
s(S'ever'
p249
S'played'
p250
tp251
F0.0025188916876574307
s(S'played'
p252
S'until'
p253
tp254
F0.0025188916876574307
s(S'played'
p255
S'of'
p256
tp257
F0.005037783375314861
s(S'since'
p258
S'played'
p259
tp260
F0.005037783375314861
s(g228
g65
tp261
F0.0025188916876574307
s(S'played'
p262
S'at'
p263
tp264
F0.020151133501259445
s(S'also'
p265
S'playing'
p266
tp267
F0.007556675062972292
s(S'[[num]]'
p268
S'playing'
p269
tp270
F0.0025188916876574307
s(S'of'
p271
S'playing'
p272
tp273
F0.0025188916876574307
s(S'again'
p274
S'played'
p275
tp276
F0.005037783375314861
s(g80
g240
tp277
F0.0025188916876574307
s(S'never'
p278
S'played'
p279
tp280
F0.015113350125944584
s(S'formerly'
p281
S'played'
p282
tp283
F0.017632241813602016
s(S'not'
p284
S'played'
p285
tp286
F0.007556675062972292
s(S'in'
p287
S'playing'
p288
tp289
F0.0025188916876574307
s(S'played'
p290
S'only'
p291
tp292
F0.0025188916876574307
s(S'while'
p293
S'playing'
p294
tp295
F0.005037783375314861
s(S'played'
p296
S'[[prp]]'
p297
tp298
F0.0025188916876574307
s(S'up'
p299
S'playing'
p300
tp301
F0.0025188916876574307
s(S'won'
p302
g129
tp303
F0.0025188916876574307
s(S'first'
p304
S'played'
p305
tp306
F0.015113350125944584
s(S'after'
p307
S'played'
p308
tp309
F0.0025188916876574307
s(S'played'
p310
S'as'
p311
tp312
F0.010075566750629723
s(S'played'
p313
S'during'
p314
tp315
F0.0025188916876574307
s(S'played'
p316
S'to'
p317
tp318
F0.007556675062972292
s(S'from'
p319
S'playing'
p320
tp321
F0.0025188916876574307
s(g161
S'together'
p322
tp323
F0.005037783375314861
s(S'when'
p324
S'played'
p325
tp326
F0.010075566750629723
s(S'[[mod]]'
p327
g57
tp328
F0.0025188916876574307
s(S'be'
p329
S'playing'
p330
tp331
F0.0025188916876574307
s(S'was'
p332
S'played'
p333
tp334
F0.0025188916876574307
s.