(dp0
(S'[[det]]'
p1
S'magazine'
p2
tp3
F0.001451378809869376
s(S'[[adj]]'
p4
S'adventure'
p5
tp6
F0.001451378809869376
s(S'been'
p7
S'played'
p8
tp9
F0.001451378809869376
s(S'published'
p10
S'[[con]]'
p11
tp12
F0.005805515239477504
s(S'played'
p13
S'between'
p14
tp15
F0.0043541364296081275
s(S'wrestling'
p16
S'video'
p17
tp18
F0.001451378809869376
s(S'were'
p19
S'produced'
p20
tp21
F0.001451378809869376
s(S'produced'
p22
S'from'
p23
tp24
F0.001451378809869376
s(S'later'
p25
S'ported'
p26
tp27
F0.001451378809869376
s(S'[[adj]]'
p28
S'played'
p29
tp30
F0.001451378809869376
s(S'[[con]]'
p31
S'developed'
p32
tp33
F0.002902757619738752
s(S'[[det]]'
p34
S'sports'
p35
tp36
F0.0043541364296081275
s(S'sold'
p37
S'to'
p38
tp39
F0.005805515239477504
s(S'also'
p40
S'published'
p41
tp42
F0.001451378809869376
s(S'are'
p43
S'sold'
p44
tp45
F0.001451378809869376
s(S'is'
p46
S'sold'
p47
tp48
F0.001451378809869376
s(S'[[det]]'
p49
S'computer'
p50
tp51
F0.0043541364296081275
s(S'action'
p52
S'video'
p53
tp54
F0.001451378809869376
s(S'was'
p55
S'written'
p56
tp57
F0.001451378809869376
s(S'[[det]]'
p58
S'console'
p59
tp60
F0.002902757619738752
s(S'was'
p61
S'released'
p62
tp63
F0.00725689404934688
s(S'is'
p64
S'released'
p65
tp66
F0.001451378809869376
s(S'game'
p67
S'created'
p68
tp69
F0.002902757619738752
s(S'for'
p70
S'[[det]]'
p71
tp72
F0.001451378809869376
s(g5
S'video'
p73
tp74
F0.001451378809869376
s(S'was'
p75
S'ported'
p76
tp77
F0.001451378809869376
s(S'[[det]]'
p78
S'adventure'
p79
tp80
F0.001451378809869376
s(S'be'
p81
S'sold'
p82
tp83
F0.0043541364296081275
s(S'[[adj]]'
p84
S'card'
p85
tp86
F0.001451378809869376
s(S'also'
p87
S'owned'
p88
tp89
F0.001451378809869376
s(S'played'
p90
S'with'
p91
tp92
F0.001451378809869376
s(g59
S'[[adj]]'
p93
tp94
F0.002902757619738752
s(S'racing'
p95
S'game'
p96
tp97
F0.001451378809869376
s(S'actionadventure'
p98
S'video'
p99
tp100
F0.005805515239477504
s(S'series'
p101
S'on'
p102
tp103
F0.001451378809869376
s(S'played'
p104
S'on'
p105
tp106
F0.001451378809869376
s(S'[[det]]'
p107
S'puzzle'
p108
tp109
F0.0043541364296081275
s(S'be'
p110
S'produced'
p111
tp112
F0.001451378809869376
s(S'sold'
p113
S'for'
p114
tp115
F0.001451378809869376
s(S'produced'
p116
S'by'
p117
tp118
F0.01451378809869376
s(S'being'
p119
S'sold'
p120
tp121
F0.002902757619738752
s(S'[[adj]]'
p122
g16
tp123
F0.001451378809869376
s(S'was'
p124
S'contested'
p125
tp126
F0.001451378809869376
s(S'game'
p127
S'by'
p128
tp129
F0.00725689404934688
s(S'racing'
p130
S'video'
p131
tp132
F0.0043541364296081275
s(S'[[adj]]'
p133
S'journal'
p134
tp135
F0.002902757619738752
s(S'game'
p136
S'developed'
p137
tp138
F0.07547169811320754
s(g134
S'published'
p139
tp140
F0.002902757619738752
s(S'produced'
p141
S'at'
p142
tp143
F0.001451378809869376
s(S'owned'
p144
S'[[con]]'
p145
tp146
F0.002902757619738752
s(S'known'
p147
S'is'
p148
tp149
F0.002902757619738752
s(S'game'
p150
S'published'
p151
tp152
F0.00725689404934688
s(S'game'
p153
S'between'
p154
tp155
F0.002902757619738752
s(S'[[con]]'
p156
S'is'
p157
tp158
F0.001451378809869376
s(S'released'
p159
S'by'
p160
tp161
F0.02902757619738752
s(S'founded'
p162
g156
tp163
F0.001451378809869376
s(S'series'
p164
S'between'
p165
tp166
F0.001451378809869376
s(S'[[con]]'
p167
S'video'
p168
tp169
F0.001451378809869376
s(S'[[con]]'
p170
S'owned'
p171
tp172
F0.001451378809869376
s(S'sports'
p173
S'game'
p174
tp175
F0.002902757619738752
s(S'[[adj]]'
p176
S'run'
p177
tp178
F0.001451378809869376
s(S'[[adj]]'
p179
g164
tp180
F0.001451378809869376
s(S'action'
p181
S'[[adj]]'
p182
tp183
F0.002902757619738752
s(g88
S'by'
p184
tp185
F0.018867924528301886
s(S'formerly'
p186
S'owned'
p187
tp188
F0.001451378809869376
s(S'arcade'
p189
S'game'
p190
tp191
F0.001451378809869376
s(S'still'
p192
S'owned'
p193
tp194
F0.001451378809869376
s(S'[[con]]'
p195
g159
tp196
F0.005805515239477504
s(S'was'
p197
g113
tp198
F0.010159651669085631
s(S'[[det]]'
p199
g130
tp200
F0.0043541364296081275
s(S'[[adj]]'
p201
S'publication'
p202
tp203
F0.002902757619738752
s(S'published'
p204
S'[[adj]]'
p205
tp206
F0.0043541364296081275
s(S'currently'
p207
S'owned'
p208
tp209
F0.001451378809869376
s(S'strategy'
p210
S'computer'
p211
tp212
F0.002902757619738752
s(S'played'
p213
S'in'
p214
tp215
F0.002902757619738752
s(S'sciencefiction'
p216
S'[[adj]]'
p217
tp218
F0.001451378809869376
s(S'[[num]]'
p219
S'produced'
p220
tp221
F0.001451378809869376
s(S'action'
p222
S'game'
p223
tp224
F0.001451378809869376
s(S'[[con]]'
p225
S'was'
p226
tp227
F0.0043541364296081275
s(S'[[det]]'
p228
S'developed'
p229
tp230
F0.002902757619738752
s(S'[[adj]]'
p231
S'magazine'
p232
tp233
F0.001451378809869376
s(S'of'
p234
S'series'
p235
tp236
F0.001451378809869376
s(S'been'
p237
S'sold'
p238
tp239
F0.001451378809869376
s(S'been'
p240
S'owned'
p241
tp242
F0.001451378809869376
s(S'that'
p243
g61
tp244
F0.0043541364296081275
s(S'[[det]]'
p245
S'firstperson'
p246
tp247
F0.0043541364296081275
s(S'which'
p248
S'is'
p249
tp250
F0.001451378809869376
s(S'also'
p251
S'released'
p252
tp253
F0.001451378809869376
s(S'[[det]]'
p254
S'game'
p255
tp256
F0.010159651669085631
s(S'played'
p257
S'against'
p258
tp259
F0.001451378809869376
s(S'was'
p260
S'announced'
p261
tp262
F0.001451378809869376
s(S'now'
p263
S'owned'
p264
tp265
F0.002902757619738752
s(S'[[det]]'
p266
g116
tp267
F0.002902757619738752
s(S'edition'
p268
S'[[num]]'
p269
tp270
F0.001451378809869376
s(S'were'
p271
S'published'
p272
tp273
F0.001451378809869376
s(S'is'
p274
S'played'
p275
tp276
F0.0043541364296081275
s(S'game'
p277
g70
tp278
F0.001451378809869376
s(S'was'
p279
S'owned'
p280
tp281
F0.001451378809869376
s(S'still'
p282
S'played'
p283
tp284
F0.001451378809869376
s(S'be'
p285
S'released'
p286
tp287
F0.001451378809869376
s(g47
S'by'
p288
tp289
F0.00725689404934688
s(g56
S'[[con]]'
p290
tp291
F0.001451378809869376
s(S'[[det]]'
p292
S'card'
p293
tp294
F0.001451378809869376
s(g202
S'of'
p295
tp296
F0.002902757619738752
s(S'published'
p297
S'with'
p298
tp299
F0.001451378809869376
s(g125
S'by'
p300
tp301
F0.001451378809869376
s(S'later'
p302
S'published'
p303
tp304
F0.001451378809869376
s(S'published'
p305
S'at'
p306
tp307
F0.001451378809869376
s(g246
S'shooter'
p308
tp309
F0.0043541364296081275
s(S'[[adj]]'
p310
S'developed'
p311
tp312
F0.002902757619738752
s(S'created'
p313
S'by'
p314
tp315
F0.001451378809869376
s(S'[[num]]'
p316
g13
tp317
F0.001451378809869376
s(S'series'
p318
S'against'
p319
tp320
F0.001451378809869376
s(S'[[adj]]'
p321
S'video'
p322
tp323
F0.005805515239477504
s(S'was'
p324
S'published'
p325
tp326
F0.011611030478955007
s(g261
S'by'
p327
tp328
F0.001451378809869376
s(g177
g167
tp329
F0.001451378809869376
s(S'also'
p330
S'sold'
p331
tp332
F0.002902757619738752
s(S'defending'
p333
S'champion'
p334
tp335
F0.001451378809869376
s(S'been'
p336
S'developed'
p337
tp338
F0.001451378809869376
s(S'[[det]]'
p339
g52
tp340
F0.005805515239477504
s(S'sold'
p341
S'[[con]]'
p342
tp343
F0.001451378809869376
s(S'sold'
p344
S'[[det]]'
p345
tp346
F0.001451378809869376
s(S'is'
p347
S'developed'
p348
tp349
F0.002902757619738752
s(S'[[det]]'
p350
S'publication'
p351
tp352
F0.001451378809869376
s(g71
S'released'
p353
tp354
F0.001451378809869376
s(S'were'
p355
S'released'
p356
tp357
F0.001451378809869376
s(S'published'
p358
g248
tp359
F0.001451378809869376
s(S'released'
p360
S'[[con]]'
p361
tp362
F0.002902757619738752
s(S'game'
p363
S'released'
p364
tp365
F0.008708272859216255
s(S'developed'
p366
S'published'
p367
tp368
F0.001451378809869376
s(S'[[adj]]'
p369
S'edition'
p370
tp371
F0.002902757619738752
s(S'shooter'
p372
S'video'
p373
tp374
F0.008708272859216255
s(S'was'
p375
S'created'
p376
tp377
F0.002902757619738752
s(S'[[adj]]'
p378
S'sold'
p379
tp380
F0.002902757619738752
s(g376
S'[[con]]'
p381
tp382
F0.0043541364296081275
s(g325
S'as'
p383
tp384
F0.001451378809869376
s(S'being'
p385
S'developed'
p386
tp387
F0.001451378809869376
s(g50
g136
tp388
F0.010159651669085631
s(S'being'
p389
S'produced'
p390
tp391
F0.001451378809869376
s(S'were'
p392
S'sold'
p393
tp394
F0.002902757619738752
s(S'[[adj]]'
p395
S'strategy'
p396
tp397
F0.00725689404934688
s(S'was'
p398
g162
tp399
F0.001451378809869376
s(g331
S'[[adj]]'
p400
tp401
F0.001451378809869376
s(S'game'
p402
g243
tp403
F0.005805515239477504
s(S'not'
p404
S'owned'
p405
tp406
F0.001451378809869376
s(g108
S'video'
p407
tp408
F0.002902757619738752
s(S'are'
p409
S'owned'
p410
tp411
F0.001451378809869376
s(S'later'
p412
S'released'
p413
tp414
F0.002902757619738752
s(S'strategy'
p415
S'game'
p416
tp417
F0.002902757619738752
s(S'sold'
p418
S'most'
p419
tp420
F0.001451378809869376
s(S'[[con]]'
p421
S'published'
p422
tp423
F0.05079825834542816
s(S'[[det]]'
p424
g333
tp425
F0.001451378809869376
s(g82
S'in'
p426
tp427
F0.005805515239477504
s(S'publication'
p428
S'[[det]]'
p429
tp430
F0.001451378809869376
s(g85
S'game'
p431
tp432
F0.002902757619738752
s(S'owned'
p433
S'[[num]]'
p434
tp435
F0.002902757619738752
s(g300
g424
tp436
F0.001451378809869376
s(S'game'
p437
S'produced'
p438
tp439
F0.0043541364296081275
s(g396
S'video'
p440
tp441
F0.001451378809869376
s(S'[[det]]'
p442
S'sold'
p443
tp444
F0.001451378809869376
s(g93
S'game'
p445
tp446
F0.020319303338171262
s(g137
g421
tp447
F0.05224963715529753
s(S'game'
p448
S'show'
p449
tp450
F0.002902757619738752
s(S'[[adj]]'
p451
g372
tp452
F0.002902757619738752
s(S'is'
p453
S'owned'
p454
tp455
F0.008708272859216255
s(S'[[num]]'
p456
S'video'
p457
tp458
F0.001451378809869376
s(S'is'
p459
g204
tp460
F0.011611030478955007
s(S'been'
p461
S'published'
p462
tp463
F0.001451378809869376
s(S'published'
p464
S'from'
p465
tp466
F0.001451378809869376
s(S'was'
p467
S'originally'
p468
tp469
F0.001451378809869376
s(S'was'
p470
S'developed'
p471
tp472
F0.013062409288824383
s(S'published'
p473
S'in'
p474
tp475
F0.001451378809869376
s(S'developed'
p476
S'by'
p477
tp478
F0.05224963715529753
s(g468
S'published'
p479
tp480
F0.001451378809869376
s(g79
S'game'
p481
tp482
F0.001451378809869376
s(S'[[num]]'
p483
S'computer'
p484
tp485
F0.002902757619738752
s(S'[[adj]]'
p486
g10
tp487
F0.002902757619738752
s(S'[[adj]]'
p488
g95
tp489
F0.001451378809869376
s(g2
S'published'
p490
tp491
F0.0043541364296081275
s(S'[[det]]'
p492
g98
tp493
F0.002902757619738752
s(S'[[det]]'
p494
g216
tp495
F0.001451378809869376
s(g393
S'off'
p496
tp497
F0.002902757619738752
s(S'was'
p498
g22
tp499
F0.0043541364296081275
s(S'is'
p500
S'produced'
p501
tp502
F0.001451378809869376
s(g422
S'by'
p503
tp504
F0.08127721335268505
s(S'puzzle'
p505
S'game'
p506
tp507
F0.001451378809869376
s(g35
S'video'
p508
tp509
F0.001451378809869376
s(S'[[det]]'
p510
S'video'
p511
tp512
F0.01741654571843251
s(S'[[det]]'
p513
S'owned'
p514
tp515
F0.002902757619738752
s(g413
S'in'
p516
tp517
F0.001451378809869376
s(S'video'
p518
S'game'
p519
tp520
F0.06095791001451379
s(S'was'
p521
g257
tp522
F0.00725689404934688
s(g8
S'at'
p523
tp524
F0.0043541364296081275
s(g148
S'[[det]]'
p525
tp526
F0.002902757619738752
s.