(dp0
(S'differed'
p1
S'from'
p2
tp3
F0.005235602094240838
s(S'built'
p4
S'to'
p5
tp6
F0.010471204188481676
s(S'shorter'
p7
S'than'
p8
tp9
F0.005235602094240838
s(S'built'
p10
S'from'
p11
tp12
F0.005235602094240838
s(S'launched'
p13
S'[[num]]'
p14
tp15
F0.005235602094240838
s(S'built'
p16
S'on'
p17
tp18
F0.02617801047120419
s(S'built'
p19
S'was'
p20
tp21
F0.005235602094240838
s(S'based'
p22
S'with'
p23
tp24
F0.005235602094240838
s(S'has'
p25
S'replaced'
p26
tp27
F0.005235602094240838
s(S'[[det]]'
p28
S'launched'
p29
tp30
F0.005235602094240838
s(S'was'
p31
S'marketed'
p32
tp33
F0.010471204188481676
s(S'[[adj]]'
p34
S'version'
p35
tp36
F0.015706806282722512
s(S'[[adj]]'
p37
S'truck'
p38
tp39
F0.005235602094240838
s(S'alongside'
p40
S'[[det]]'
p41
tp42
F0.015706806282722512
s(S'was'
p43
S'virtually'
p44
tp45
F0.005235602094240838
s(S'discontinued'
p46
S'[[con]]'
p47
tp48
F0.005235602094240838
s(S'that'
p49
S'sold'
p50
tp51
F0.005235602094240838
s(S'were'
p52
S'based'
p53
tp54
F0.005235602094240838
s(S'shares'
p55
S'to'
p56
tp57
F0.005235602094240838
s(S'[[con]]'
p58
S'sold'
p59
tp60
F0.005235602094240838
s(S'built'
p61
S'as'
p62
tp63
F0.015706806282722512
s(S'[[con]]'
p64
S'uses'
p65
tp66
F0.005235602094240838
s(S'be'
p67
S'built'
p68
tp69
F0.03664921465968586
s(S'was'
p70
S'built'
p71
tp72
F0.06282722513089005
s(S'built'
p73
g40
tp74
F0.010471204188481676
s(S'sold'
p75
S'for'
p76
tp77
F0.005235602094240838
s(S'sold'
p78
S'as'
p79
tp80
F0.020942408376963352
s(S'based'
p81
S'upon'
p82
tp83
F0.010471204188481676
s(S'built'
p84
S'at'
p85
tp86
F0.02617801047120419
s(S'is'
p87
S'launched'
p88
tp89
F0.005235602094240838
s(S'built'
p90
S'over'
p91
tp92
F0.005235602094240838
s(S'based'
p93
S'[[con]]'
p94
tp95
F0.010471204188481676
s(S'[[adj]]'
p96
S'built'
p97
tp98
F0.015706806282722512
s(S'uses'
p99
S'[[num]]'
p100
tp101
F0.005235602094240838
s(S'version'
p102
S'in'
p103
tp104
F0.005235602094240838
s(S'built'
p105
S'[[det]]'
p106
tp107
F0.005235602094240838
s(S'version'
p108
S'of'
p109
tp110
F0.010471204188481676
s(S'[[num]]'
p111
S'based'
p112
tp113
F0.005235602094240838
s(S'shares'
p114
S'[[prp]]'
p115
tp116
F0.005235602094240838
s(S'is'
p117
S'sold'
p118
tp119
F0.010471204188481676
s(S'was'
p120
g75
tp121
F0.02617801047120419
s(S'[[adj]]'
p122
S'sold'
p123
tp124
F0.005235602094240838
s(S'were'
p125
S'built'
p126
tp127
F0.010471204188481676
s(S'sold'
p128
S'[[con]]'
p129
tp130
F0.005235602094240838
s(S'is'
p131
S'marketed'
p132
tp133
F0.005235602094240838
s(S'on'
p134
S'[[adj]]'
p135
tp136
F0.005235602094240838
s(S'be'
p137
S'launched'
p138
tp139
F0.005235602094240838
s(S'is'
p140
S'based'
p141
tp142
F0.020942408376963352
s(S'been'
p143
S'built'
p144
tp145
F0.010471204188481676
s(g44
S'[[adj]]'
p146
tp147
F0.010471204188481676
s(S'launched'
p148
S'to'
p149
tp150
F0.010471204188481676
s(S'was'
p151
S'replaced'
p152
tp153
F0.010471204188481676
s(g68
S'[[adj]]'
p154
tp155
F0.010471204188481676
s(S'built'
p156
S'[[con]]'
p157
tp158
F0.010471204188481676
s(S'version'
p159
S'[[num]]'
p160
tp161
F0.005235602094240838
s(S'be'
p162
S'replaced'
p163
tp164
F0.005235602094240838
s(S'shares'
p165
S'[[det]]'
p166
tp167
F0.005235602094240838
s(S'is'
p168
g73
tp169
F0.005235602094240838
s(S'built'
p170
S'is'
p171
tp172
F0.005235602094240838
s(S'[[det]]'
p173
S'shorter'
p174
tp175
F0.005235602094240838
s(S'was'
p176
S'discontinued'
p177
tp178
F0.010471204188481676
s(S'sold'
p179
S'alongside'
p180
tp181
F0.005235602094240838
s(S'replaced'
p182
S'[[num]]'
p183
tp184
F0.005235602094240838
s(S'based'
p185
S'at'
p186
tp187
F0.010471204188481676
s(S'shares'
p188
S'of'
p189
tp190
F0.005235602094240838
s(g97
S'by'
p191
tp192
F0.005235602094240838
s(S'was'
p193
g148
tp194
F0.031413612565445025
s(S'built'
p195
S'after'
p196
tp197
F0.010471204188481676
s(S'then'
p198
S'sold'
p199
tp200
F0.005235602094240838
s(S'built'
p201
S'with'
p202
tp203
F0.005235602094240838
s(S'based'
p204
S'on'
p205
tp206
F0.02617801047120419
s(g50
S'[[det]]'
p207
tp208
F0.005235602094240838
s(S'was'
p209
S'based'
p210
tp211
F0.020942408376963352
s(S'launched'
p212
S'[[con]]'
p213
tp214
F0.005235602094240838
s(S'uses'
p215
S'[[det]]'
p216
tp217
F0.010471204188481676
s(S'[[det]]'
p218
S'built'
p219
tp220
F0.010471204188481676
s(S'were'
p221
S'sold'
p222
tp223
F0.005235602094240838
s(S'[[adj]]'
p224
S'uses'
p225
tp226
F0.005235602094240838
s(S'being'
p227
S'built'
p228
tp229
F0.005235602094240838
s(g210
S'from'
p230
tp231
F0.005235602094240838
s(S'be'
p232
g204
tp233
F0.010471204188481676
s(g135
S'platform'
p234
tp235
F0.005235602094240838
s(S'[[num]]'
p236
S'uses'
p237
tp238
F0.005235602094240838
s(S'[[num]]'
p239
S'built'
p240
tp241
F0.010471204188481676
s(S'also'
p242
S'replaced'
p243
tp244
F0.005235602094240838
s(g163
S'with'
p245
tp246
F0.010471204188481676
s(S'launched'
p247
S'from'
p248
tp249
F0.010471204188481676
s(S'shares'
p250
S'with'
p251
tp252
F0.005235602094240838
s(S'launched'
p253
S'at'
p254
tp255
F0.010471204188481676
s(S'also'
p256
S'sold'
p257
tp258
F0.005235602094240838
s(S'[[det]]'
p259
S'sold'
p260
tp261
F0.005235602094240838
s(g243
S'[[det]]'
p262
tp263
F0.020942408376963352
s(S'marketed'
p264
S'as'
p265
tp266
F0.010471204188481676
s(S'of'
p267
S'built'
p268
tp269
F0.005235602094240838
s(S'version'
p270
S'[[det]]'
p271
tp272
F0.010471204188481676
s(S'been'
p273
S'based'
p274
tp275
F0.005235602094240838
s(S'were'
p276
S'replaced'
p277
tp278
F0.005235602094240838
s(S'[[det]]'
p279
S'replaced'
p280
tp281
F0.005235602094240838
s(S'version'
p282
S'is'
p283
tp284
F0.005235602094240838
s(S'built'
p285
S'between'
p286
tp287
F0.005235602094240838
s(S'replaced'
p288
S'to'
p289
tp290
F0.005235602094240838
s(S'launched'
p291
S'as'
p292
tp293
F0.010471204188481676
s(S'built'
p294
S'[[num]]'
p295
tp296
F0.010471204188481676
s(S'now'
p297
S'based'
p298
tp299
F0.005235602094240838
s(S'replaced'
p300
S'from'
p301
tp302
F0.005235602094240838
s.