(dp0
(S'[[adj]]'
p1
S'tributary'
p2
tp3
F0.043478260869565216
s(S'joined'
p4
S'[[con]]'
p5
tp6
F0.043478260869565216
s(S'then'
p7
S'joins'
p8
tp9
F0.043478260869565216
s(S'receives'
p10
S'[[con]]'
p11
tp12
F0.043478260869565216
s(S'which'
p13
S'joins'
p14
tp15
F0.043478260869565216
s(S'is'
p16
g4
tp17
F0.17391304347826086
s(S'where'
p18
S'joins'
p19
tp20
F0.043478260869565216
s(S'by'
p21
g1
tp22
F0.043478260869565216
s(S'[[det]]'
p23
S'joins'
p24
tp25
F0.043478260869565216
s(S'joined'
p26
S'by'
p27
tp28
F0.08695652173913043
s(S'joins'
p29
S'with'
p30
tp31
F0.043478260869565216
s(g19
S'[[det]]'
p32
tp33
F0.21739130434782608
s(g2
S'[[det]]'
p34
tp35
F0.043478260869565216
s(S'[[con]]'
p36
S'joins'
p37
tp38
F0.043478260869565216
s(S'receives'
p39
S'[[det]]'
p40
tp41
F0.043478260869565216
s.