(dp0
(S'to'
p1
S'form'
p2
tp3
F0.010362694300518135
s(S'[[det]]'
p4
S'border'
p5
tp6
F0.0051813471502590676
s(S'[[det]]'
p7
S'southwest'
p8
tp9
F0.0051813471502590676
s(S'which'
p10
S'flows'
p11
tp12
F0.015544041450777202
s(S'joins'
p13
S'[[det]]'
p14
tp15
F0.046632124352331605
s(S'[[det]]'
p16
S'close'
p17
tp18
F0.0051813471502590676
s(S'reaches'
p19
S'[[det]]'
p20
tp21
F0.0051813471502590676
s(S'[[det]]'
p22
S'confluence'
p23
tp24
F0.010362694300518135
s(S'flows'
p25
S'from'
p26
tp27
F0.010362694300518135
s(S'[[det]]'
p28
S'flows'
p29
tp30
F0.0051813471502590676
s(S'[[det]]'
p31
S'river'
p32
tp33
F0.05699481865284974
s(S'river'
p34
S'between'
p35
tp36
F0.0051813471502590676
s(S'reaches'
p37
S'[[prp]]'
p38
tp39
F0.0051813471502590676
s(S'which'
p40
S'joins'
p41
tp42
F0.0051813471502590676
s(S'enters'
p43
S'[[adj]]'
p44
tp45
F0.0051813471502590676
s(S'reaching'
p46
S'[[det]]'
p47
tp48
F0.0051813471502590676
s(S'flows'
p49
S'out'
p50
tp51
F0.0051813471502590676
s(S'tributary'
p52
S'[[det]]'
p53
tp54
F0.010362694300518135
s(S'[[det]]'
p55
S'largest'
p56
tp57
F0.0051813471502590676
s(S'[[det]]'
p58
S'joins'
p59
tp60
F0.0051813471502590676
s(S'[[adj]]'
p61
g46
tp62
F0.0051813471502590676
s(S'into'
p63
S'[[det]]'
p64
tp65
F0.010362694300518135
s(S'[[adj]]'
p66
S'tributary'
p67
tp68
F0.04145077720207254
s(g26
S'[[det]]'
p69
tp70
F0.0051813471502590676
s(S'in'
p71
S'[[det]]'
p72
tp73
F0.0051813471502590676
s(S'forming'
p74
S'[[det]]'
p75
tp76
F0.0051813471502590676
s(g23
S'with'
p77
tp78
F0.02072538860103627
s(S'flows'
p79
S'generally'
p80
tp81
F0.0051813471502590676
s(g38
S'mouth'
p82
tp83
F0.0051813471502590676
s(S'in'
p84
S'[[adj]]'
p85
tp86
F0.010362694300518135
s(S'reach'
p87
S'[[det]]'
p88
tp89
F0.015544041450777202
s(g64
S'south'
p90
tp91
F0.0051813471502590676
s(S'then'
p92
S'flows'
p93
tp94
F0.015544041450777202
s(S'where'
p95
S'meets'
p96
tp97
F0.0051813471502590676
s(S'joins'
p98
S'with'
p99
tp100
F0.0051813471502590676
s(S'flows'
p101
S'[[con]]'
p102
tp103
F0.02072538860103627
s(S'longest'
p104
S'tributary'
p105
tp106
F0.0051813471502590676
s(S'[[con]]'
p107
S'flows'
p108
tp109
F0.010362694300518135
s(g5
g34
tp110
F0.0051813471502590676
s(S'then'
p111
S'joins'
p112
tp113
F0.0051813471502590676
s(g80
g61
tp114
F0.0051813471502590676
s(S'of'
p115
g31
tp116
F0.010362694300518135
s(S'[[adj]]'
p117
S'river'
p118
tp119
F0.02072538860103627
s(S'flows'
p120
S'into'
p121
tp122
F0.04145077720207254
s(S'to'
p123
g87
tp124
F0.015544041450777202
s(S'[[prp]]'
p125
S'confluence'
p126
tp127
F0.010362694300518135
s(S'[[con]]'
p128
S'joins'
p129
tp130
F0.010362694300518135
s(S'feeds'
p131
S'[[det]]'
p132
tp133
F0.0051813471502590676
s(S'merges'
p134
S'with'
p135
tp136
F0.0051813471502590676
s(g67
S'of'
p137
tp138
F0.09326424870466321
s(S'flows'
p139
S'where'
p140
tp141
F0.0051813471502590676
s(g93
S'to'
p142
tp143
F0.02072538860103627
s(S'[[det]]'
p144
g1
tp145
F0.0051813471502590676
s(S'flows'
p146
S'down'
p147
tp148
F0.0051813471502590676
s(S'joins'
p149
S'to'
p150
tp151
F0.0051813471502590676
s(S'where'
p152
g13
tp153
F0.010362694300518135
s(S'largest'
p154
S'tributary'
p155
tp156
F0.010362694300518135
s(S'river'
p157
S'[[det]]'
p158
tp159
F0.0051813471502590676
s(S'flows'
p160
S'[[det]]'
p161
tp162
F0.0051813471502590676
s(S'enters'
p163
S'into'
p164
tp165
F0.0051813471502590676
s(S'of'
p166
S'which'
p167
tp168
F0.010362694300518135
s(S'enters'
p169
S'[[det]]'
p170
tp171
F0.010362694300518135
s(g96
S'[[det]]'
p172
tp173
F0.0051813471502590676
s(S'river'
p174
S'[[con]]'
p175
tp176
F0.015544041450777202
s(S'flows'
p177
S'south'
p178
tp179
F0.0051813471502590676
s(S'confluence'
p180
S'of'
p181
tp182
F0.0051813471502590676
s(g178
S'to'
p183
tp184
F0.0051813471502590676
s(S'river'
p185
S'on'
p186
tp187
F0.0051813471502590676
s(S'[[con]]'
p188
S'empties'
p189
tp190
F0.0051813471502590676
s(S'[[det]]'
p191
S'form'
p192
tp193
F0.0051813471502590676
s(S'[[adj]]'
p194
g154
tp195
F0.0051813471502590676
s(g118
g84
tp196
F0.025906735751295335
s(S'river'
p197
S'of'
p198
tp199
F0.010362694300518135
s(g2
S'[[det]]'
p200
tp201
F0.010362694300518135
s(S'[[det]]'
p202
S'tributary'
p203
tp204
F0.06217616580310881
s(S'empties'
p205
S'into'
p206
tp207
F0.015544041450777202
s(S'to'
p208
S'[[prp]]'
p209
tp210
F0.0051813471502590676
s(S'[[con]]'
p211
S'[[det]]'
p212
tp213
F0.0051813471502590676
s(S'[[det]]'
p214
g104
tp215
F0.0051813471502590676
s(g175
S'[[adj]]'
p216
tp217
F0.010362694300518135
s(S'feeds'
p218
S'into'
p219
tp220
F0.0051813471502590676
s(S'drains'
p221
S'[[det]]'
p222
tp223
F0.0051813471502590676
s(S'tributary'
p224
S'[[con]]'
p225
tp226
F0.010362694300518135
s(S'merges'
p227
S'into'
p228
tp229
F0.0051813471502590676
s(S'[[con]]'
p230
S'enters'
p231
tp232
F0.0051813471502590676
s(S'where'
p233
S'flows'
p234
tp235
F0.0051813471502590676
s(S'drains'
p236
S'into'
p237
tp238
F0.0051813471502590676
s.