(dp0
(S'television'
p1
S'show'
p2
tp3
F0.0070921985815602835
s(S'[[det]]'
p4
S'episode'
p5
tp6
F0.0070921985815602835
s(S's'
p7
S'series'
p8
tp9
F0.02127659574468085
s(S'television'
p10
S'series'
p11
tp12
F0.014184397163120567
s(S'released'
p13
S'by'
p14
tp15
F0.0070921985815602835
s(S'[[num]]'
p16
S'series'
p17
tp18
F0.014184397163120567
s(S'season'
p19
S'of'
p20
tp21
F0.014184397163120567
s(S'[[adj]]'
p22
S'character'
p23
tp24
F0.04964539007092199
s(S'[[adj]]'
p25
S'released'
p26
tp27
F0.0070921985815602835
s(S'sequel'
p28
S'[[con]]'
p29
tp30
F0.0070921985815602835
s(S'[[adj]]'
p31
S'sequel'
p32
tp33
F0.014184397163120567
s(S'television'
p34
S'anthology'
p35
tp36
F0.0070921985815602835
s(S'game'
p37
S'of'
p38
tp39
F0.014184397163120567
s(S'[[adj]]'
p40
S'series'
p41
tp42
F0.0425531914893617
s(S'was'
p43
S'released'
p44
tp45
F0.0070921985815602835
s(g23
S'in'
p46
tp47
F0.028368794326241134
s(S'character'
p48
S'with'
p49
tp50
F0.0070921985815602835
s(S'game'
p51
S'[[con]]'
p52
tp53
F0.0070921985815602835
s(g35
S'series'
p54
tp55
F0.0070921985815602835
s(S'is'
p56
S'episode'
p57
tp58
F0.0070921985815602835
s(S'series'
p59
S'as'
p60
tp61
F0.0070921985815602835
s(S'[[con]]'
p62
S'released'
p63
tp64
F0.0070921985815602835
s(S'[[adj]]'
p65
g51
tp66
F0.028368794326241134
s(S'series'
p67
S'[[con]]'
p68
tp69
F0.028368794326241134
s(S'game'
p70
S'show'
p71
tp72
F0.0070921985815602835
s(S'[[det]]'
p73
g10
tp74
F0.028368794326241134
s(S'season'
p75
S'[[num]]'
p76
tp77
F0.0070921985815602835
s(S'installment'
p78
S'in'
p79
tp80
F0.0070921985815602835
s(S'on'
p81
S'series'
p82
tp83
F0.0070921985815602835
s(S'season'
p84
S'episode'
p85
tp86
F0.0070921985815602835
s(S'[[det]]'
p87
S'[[adj]]'
p88
tp89
F0.014184397163120567
s(S'series'
p90
S'[[adj]]'
p91
tp92
F0.0425531914893617
s(S'[[num]]'
p93
S'game'
p94
tp95
F0.0070921985815602835
s(S'character'
p96
S'[[det]]'
p97
tp98
F0.0070921985815602835
s(S'[[num]]'
p99
g75
tp100
F0.0070921985815602835
s(g63
S'as'
p101
tp102
F0.014184397163120567
s(S'installment'
p103
S'of'
p104
tp105
F0.0070921985815602835
s(S'episode'
p106
g87
tp107
F0.014184397163120567
s(S'character'
p108
S'on'
p109
tp110
F0.014184397163120567
s(S'[[det]]'
p111
g28
tp112
F0.02127659574468085
s(g26
S'at'
p113
tp114
F0.0070921985815602835
s(S'[[adj]]'
p115
g106
tp116
F0.02127659574468085
s(S'[[det]]'
p117
S'series'
p118
tp119
F0.06382978723404255
s(S'series'
p120
S'of'
p121
tp122
F0.028368794326241134
s(S'series'
p123
S'[[num]]'
p124
tp125
F0.0070921985815602835
s(S'of'
p126
S'series'
p127
tp128
F0.0070921985815602835
s(S'series'
p129
S'by'
p130
tp131
F0.0070921985815602835
s(g88
g19
tp132
F0.02127659574468085
s(S'character'
p133
S'is'
p134
tp135
F0.0070921985815602835
s(S'character'
p136
S'[[con]]'
p137
tp138
F0.0070921985815602835
s(S'[[det]]'
p139
S'character'
p140
tp141
F0.014184397163120567
s(S'character'
p142
S'of'
p143
tp144
F0.0070921985815602835
s(g7
S'character'
p145
tp146
F0.02127659574468085
s(S'game'
p147
S'in'
p148
tp149
F0.0070921985815602835
s(S'[[det]]'
p150
S'game'
p151
tp152
F0.02127659574468085
s(g20
g40
tp153
F0.0070921985815602835
s(S'episode'
p154
S'of'
p155
tp156
F0.02127659574468085
s(S'series'
p157
S'on'
p158
tp159
F0.0070921985815602835
s(S'[[prp]]'
p160
S'sequel'
p161
tp162
F0.0070921985815602835
s(g76
S'[[det]]'
p163
tp164
F0.0070921985815602835
s(g155
g73
tp165
F0.028368794326241134
s(S'in'
p166
S'series'
p167
tp168
F0.014184397163120567
s(S'[[adj]]'
p169
g103
tp170
F0.014184397163120567
s(S'game'
p171
S'by'
p172
tp173
F0.0070921985815602835
s(g145
S'from'
p174
tp175
F0.02127659574468085
s(S'[[pro]]'
p176
S'character'
p177
tp178
F0.0070921985815602835
s(S'sequel'
p179
S'to'
p180
tp181
F0.02127659574468085
s(S'is'
p182
g13
tp183
F0.0070921985815602835
s(g57
g99
tp184
F0.0070921985815602835
s.