(dp0
(S'[[num]]'
p1
S'stations'
p2
tp3
F0.005847953216374269
s(S'be'
p4
S'operated'
p5
tp6
F0.005847953216374269
s(S'[[det]]'
p7
S'operated'
p8
tp9
F0.011695906432748537
s(S'be'
p10
S'served'
p11
tp12
F0.005847953216374269
s(S'[[con]]'
p13
S'is'
p14
tp15
F0.005847953216374269
s(S'stations'
p16
S'on'
p17
tp18
F0.011695906432748537
s(S'in'
p19
S'[[det]]'
p20
tp21
F0.005847953216374269
s(S'station'
p22
S'that'
p23
tp24
F0.005847953216374269
s(S'located'
p25
S'in'
p26
tp27
F0.029239766081871343
s(S'operated'
p28
S'on'
p29
tp30
F0.005847953216374269
s(S'terminus'
p31
S'of'
p32
tp33
F0.011695906432748537
s(S'formerly'
p34
S'operated'
p35
tp36
F0.005847953216374269
s(S'operated'
p37
S'under'
p38
tp39
F0.005847953216374269
s(S'station'
p40
g19
tp41
F0.011695906432748537
s(S'served'
p42
S'only'
p43
tp44
F0.005847953216374269
s(S'[[det]]'
p45
S'railway'
p46
tp47
F0.023391812865497075
s(S'[[adj]]'
p48
g31
tp49
F0.017543859649122806
s(S'serve'
p50
S'[[det]]'
p51
tp52
F0.005847953216374269
s(S'[[con]]'
p53
S'operated'
p54
tp55
F0.005847953216374269
s(S'terminal'
p56
S'station'
p57
tp58
F0.011695906432748537
s(S'of'
p59
g50
tp60
F0.005847953216374269
s(S'located'
p61
S'outside'
p62
tp63
F0.005847953216374269
s(S'[[adj]]'
p64
S'located'
p65
tp66
F0.005847953216374269
s(S'which'
p67
S'served'
p68
tp69
F0.005847953216374269
s(S'station'
p70
S'of'
p71
tp72
F0.029239766081871343
s(S'operated'
p73
S'by'
p74
tp75
F0.07017543859649122
s(S'located'
p76
S'[[det]]'
p77
tp78
F0.011695906432748537
s(S'is'
p79
g76
tp80
F0.023391812865497075
s(S'is'
p81
S'served'
p82
tp83
F0.023391812865497075
s(S'[[adj]]'
p84
S'station'
p85
tp86
F0.029239766081871343
s(S'operated'
p87
S'with'
p88
tp89
F0.023391812865497075
s(S'[[det]]'
p90
g56
tp91
F0.011695906432748537
s(S'be'
p92
S'located'
p93
tp94
F0.005847953216374269
s(S'operated'
p95
S'until'
p96
tp97
F0.005847953216374269
s(S'now'
p98
S'operated'
p99
tp100
F0.005847953216374269
s(S'was'
p101
S'located'
p102
tp103
F0.005847953216374269
s(S'terminus'
p104
S'for'
p105
tp106
F0.011695906432748537
s(S'currently'
p107
S'operated'
p108
tp109
F0.005847953216374269
s(S'station'
p110
S'on'
p111
tp112
F0.04678362573099415
s(g68
S'with'
p113
tp114
F0.005847953216374269
s(S'been'
p115
S'served'
p116
tp117
F0.005847953216374269
s(S'of'
p118
S'stations'
p119
tp120
F0.005847953216374269
s(S'consists'
p121
g59
tp122
F0.005847953216374269
s(S'station'
p123
S'[[det]]'
p124
tp125
F0.005847953216374269
s(S'operated'
p126
S'[[con]]'
p127
tp128
F0.011695906432748537
s(S'station'
p129
S'for'
p130
tp131
F0.005847953216374269
s(g82
S'by'
p132
tp133
F0.05263157894736842
s(S'also'
p134
S'served'
p135
tp136
F0.005847953216374269
s(S'that'
p137
S'served'
p138
tp139
F0.005847953216374269
s(S'[[adj]]'
p140
S'operated'
p141
tp142
F0.005847953216374269
s(S'located'
p143
S'on'
p144
tp145
F0.005847953216374269
s(S'[[det]]'
p146
g104
tp147
F0.011695906432748537
s(S'is'
p148
g87
tp149
F0.029239766081871343
s(S'also'
p150
S'operated'
p151
tp152
F0.005847953216374269
s(g20
S'city'
p153
tp154
F0.011695906432748537
s(g153
S'of'
p155
tp156
F0.005847953216374269
s(S'railway'
p157
S'is'
p158
tp159
F0.005847953216374269
s(S'[[num]]'
p160
S'operated'
p161
tp162
F0.011695906432748537
s(S'station'
p163
S'[[con]]'
p164
tp165
F0.017543859649122806
s(S'now'
p166
S'located'
p167
tp168
F0.005847953216374269
s(S'[[det]]'
p169
S'station'
p170
tp171
F0.04678362573099415
s(S'train'
p172
S'station'
p173
tp174
F0.005847953216374269
s(g51
S'tracks'
p175
tp176
F0.005847953216374269
s(S'[[adj]]'
p177
S'railway'
p178
tp179
F0.005847953216374269
s(S'only'
p180
S'served'
p181
tp182
F0.005847953216374269
s(g167
S'at'
p183
tp184
F0.005847953216374269
s(S'located'
p185
S'is'
p186
tp187
F0.005847953216374269
s(S'was'
p188
S'served'
p189
tp190
F0.005847953216374269
s(S'station'
p191
S'along'
p192
tp193
F0.005847953216374269
s(S'was'
p194
S'operated'
p195
tp196
F0.005847953216374269
s(S'been'
p197
S'operated'
p198
tp199
F0.005847953216374269
s(S'terminus'
p200
S'at'
p201
tp202
F0.005847953216374269
s(S'[[det]]'
p203
S'subway'
p204
tp205
F0.017543859649122806
s(S'in'
p206
S'located'
p207
tp208
F0.005847953216374269
s(S'station'
p209
S'served'
p210
tp211
F0.011695906432748537
s(S'located'
p212
S'of'
p213
tp214
F0.005847953216374269
s(S'[[det]]'
p215
g172
tp216
F0.005847953216374269
s(g23
g81
tp217
F0.005847953216374269
s(g116
S'in'
p218
tp219
F0.011695906432748537
s(g158
S'[[det]]'
p220
tp221
F0.005847953216374269
s(g178
g110
tp222
F0.029239766081871343
s(S'station'
p223
S'after'
p224
tp225
F0.005847953216374269
s(S'are'
p226
S'operated'
p227
tp228
F0.005847953216374269
s(g204
S'station'
p229
tp230
F0.017543859649122806
s.