(dp0
(S'was'
p1
S'returned'
p2
tp3
F0.006493506493506494
s(S'[[det]]'
p4
S'returned'
p5
tp6
F0.006493506493506494
s(S'stayed'
p7
S'behind'
p8
tp9
F0.006493506493506494
s(S'work'
p10
S'[[con]]'
p11
tp12
F0.025974025974025976
s(S'[[prp]]'
p13
S'work'
p14
tp15
F0.032467532467532464
s(S'build'
p16
S'[[det]]'
p17
tp18
F0.012987012987012988
s(S'designed'
p19
S'in'
p20
tp21
F0.012987012987012988
s(S'to'
p22
S'work'
p23
tp24
F0.045454545454545456
s(S'work'
p25
S'[[adj]]'
p26
tp27
F0.012987012987012988
s(S'again'
p28
S'returned'
p29
tp30
F0.006493506493506494
s(S'[[con]]'
p31
S'build'
p32
tp33
F0.006493506493506494
s(S'design'
p34
S'of'
p35
tp36
F0.01948051948051948
s(S'design'
p37
S'for'
p38
tp39
F0.01948051948051948
s(S'work'
p40
S'together'
p41
tp42
F0.006493506493506494
s(S'work'
p43
S'again'
p44
tp45
F0.006493506493506494
s(S'work'
p46
S'as'
p47
tp48
F0.006493506493506494
s(S'designed'
p49
S'for'
p50
tp51
F0.012987012987012988
s(S's'
p52
g37
tp53
F0.012987012987012988
s(S'just'
p54
S'returned'
p55
tp56
F0.006493506493506494
s(S'later'
p57
S'work'
p58
tp59
F0.006493506493506494
s(S'had'
p60
S'designed'
p61
tp62
F0.006493506493506494
s(g14
S'to'
p63
tp64
F0.006493506493506494
s(S'found'
p65
S'work'
p66
tp67
F0.006493506493506494
s(g23
S'[[num]]'
p68
tp69
F0.006493506493506494
s(S'designed'
p70
S'[[adj]]'
p71
tp72
F0.01948051948051948
s(S'[[adj]]'
p73
S'design'
p74
tp75
F0.006493506493506494
s(S'[[mod]]'
p76
S'work'
p77
tp78
F0.01948051948051948
s(g52
S'work'
p79
tp80
F0.03896103896103896
s(g58
S'with'
p81
tp82
F0.006493506493506494
s(S'soon'
p83
S'returned'
p84
tp85
F0.006493506493506494
s(S'to'
p86
S'design'
p87
tp88
F0.012987012987012988
s(S'then'
p89
S'returned'
p90
tp91
F0.006493506493506494
s(S'[[con]]'
p92
S'stayed'
p93
tp94
F0.006493506493506494
s(S'work'
p95
S'on'
p96
tp97
F0.025974025974025976
s(S'[[adj]]'
p98
S'returned'
p99
tp100
F0.006493506493506494
s(S'work'
p101
S'at'
p102
tp103
F0.032467532467532464
s(S'work'
p104
S'among'
p105
tp106
F0.006493506493506494
s(S'[[adj]]'
p107
S'work'
p108
tp109
F0.01948051948051948
s(S'designed'
p110
S'[[con]]'
p111
tp112
F0.012987012987012988
s(S'returned'
p113
S'[[pro]]'
p114
tp115
F0.006493506493506494
s(S'returned'
p116
S'by'
p117
tp118
F0.006493506493506494
s(S'work'
p119
S'for'
p120
tp121
F0.012987012987012988
s(S'continue'
p122
S'designing'
p123
tp124
F0.006493506493506494
s(S'stayed'
p125
S'to'
p126
tp127
F0.006493506493506494
s(S'returned'
p128
S'before'
p129
tp130
F0.006493506493506494
s(S'had'
p131
S'stayed'
p132
tp133
F0.006493506493506494
s(S'build'
p134
S'[[adj]]'
p135
tp136
F0.006493506493506494
s(S'designed'
p137
S'at'
p138
tp139
F0.006493506493506494
s(S'designed'
p140
S'on'
p141
tp142
F0.006493506493506494
s(S'work'
p143
S'of'
p144
tp145
F0.006493506493506494
s(S'work'
p146
S'[[det]]'
p147
tp148
F0.006493506493506494
s(S'which'
p149
S'returned'
p150
tp151
F0.006493506493506494
s(S'design'
p152
S'[[det]]'
p153
tp154
F0.012987012987012988
s(S'also'
p155
g19
tp156
F0.05194805194805195
s(S'returned'
p157
S'once'
p158
tp159
F0.006493506493506494
s(S'designed'
p160
S'[[prp]]'
p161
tp162
F0.006493506493506494
s(S'designed'
p163
S'[[num]]'
p164
tp165
F0.012987012987012988
s(S'[[pro]]'
p166
S'returned'
p167
tp168
F0.006493506493506494
s(g90
S'in'
p169
tp170
F0.025974025974025976
s(g132
S'in'
p171
tp172
F0.01948051948051948
s(S'[[con]]'
p173
S'designed'
p174
tp175
F0.012987012987012988
s(S'[[num]]'
p176
S'work'
p177
tp178
F0.006493506493506494
s(S'to'
p179
S'build'
p180
tp181
F0.025974025974025976
s(g55
S'from'
p182
tp183
F0.006493506493506494
s(S'[[con]]'
p184
S'returned'
p185
tp186
F0.012987012987012988
s(S'[[det]]'
p187
g119
tp188
F0.006493506493506494
s(S'has'
p189
g49
tp190
F0.012987012987012988
s(g123
S'[[det]]'
p191
tp192
F0.006493506493506494
s(g5
S'to'
p193
tp194
F0.07142857142857142
s(S'designed'
p195
S'[[det]]'
p196
tp197
F0.025974025974025976
s(S'[[num]]'
p198
S'returned'
p199
tp200
F0.006493506493506494
s(S'had'
p201
S'returned'
p202
tp203
F0.006493506493506494
s(S'work'
p204
S'in'
p205
tp206
F0.012987012987012988
s(S'[[det]]'
p207
S'design'
p208
tp209
F0.006493506493506494
s(g180
S'[[prp]]'
p210
tp211
F0.006493506493506494
s(S'so'
p212
S'returned'
p213
tp214
F0.006493506493506494
s(S'[[mod]]'
p215
g122
tp216
F0.006493506493506494
s.