(dp0
(S'[[det]]'
p1
S'cluster'
p2
tp3
F0.002967359050445104
s(S'to'
p4
S'affiliate'
p5
tp6
F0.011869436201780416
s(S'with'
p7
S'sister'
p8
tp9
F0.011869436201780416
s(S'seen'
p10
S'[[adj]]'
p11
tp12
F0.002967359050445104
s(S'station'
p13
S'which'
p14
tp15
F0.002967359050445104
s(S'seen'
p16
S'at'
p17
tp18
F0.01483679525222552
s(S'programming'
p19
S'on'
p20
tp21
F0.002967359050445104
s(S'[[con]]'
p22
S'operated'
p23
tp24
F0.002967359050445104
s(S'station'
p25
S'is'
p26
tp27
F0.005934718100890208
s(S'seen'
p28
S'in'
p29
tp30
F0.020771513353115726
s(S'often'
p31
S'seen'
p32
tp33
F0.002967359050445104
s(S'stations'
p34
S'[[con]]'
p35
tp36
F0.01483679525222552
s(S'[[det]]'
p37
S'sister'
p38
tp39
F0.020771513353115726
s(S'channel'
p40
S'to'
p41
tp42
F0.002967359050445104
s(S'also'
p43
g28
tp44
F0.008902077151335312
s(S'that'
p45
S'sold'
p46
tp47
F0.002967359050445104
s(S'claim'
p48
S'that'
p49
tp50
F0.002967359050445104
s(S'station'
p51
S'on'
p52
tp53
F0.005934718100890208
s(S'[[prp]]'
p54
S'sister'
p55
tp56
F0.005934718100890208
s(S'signed'
p57
S'as'
p58
tp59
F0.008902077151335312
s(S'station'
p60
S'was'
p61
tp62
F0.002967359050445104
s(S'[[con]]'
p63
S'sold'
p64
tp65
F0.002967359050445104
s(S'seen'
p66
S'as'
p67
tp68
F0.002967359050445104
s(S'owned'
p69
S'to'
p70
tp71
F0.002967359050445104
s(S'is'
p72
S'signed'
p73
tp74
F0.002967359050445104
s(S'[[adj]]'
p75
S'stations'
p76
tp77
F0.008902077151335312
s(S'deal'
p78
S'had'
p79
tp80
F0.005934718100890208
s(S'[[det]]'
p81
S'stations'
p82
tp83
F0.002967359050445104
s(S'also'
p84
S'owned'
p85
tp86
F0.005934718100890208
s(S'[[num]]'
p87
S'format'
p88
tp89
F0.002967359050445104
s(S'have'
p90
S'seen'
p91
tp92
F0.002967359050445104
s(S'stations'
p93
S'[[adj]]'
p94
tp95
F0.002967359050445104
s(S'be'
p96
S'seen'
p97
tp98
F0.011869436201780416
s(S'of'
p99
S'sister'
p100
tp101
F0.002967359050445104
s(S'station'
p102
S'along'
p103
tp104
F0.005934718100890208
s(S'sold'
p105
S'for'
p106
tp107
F0.002967359050445104
s(S'that'
p108
S'operated'
p109
tp110
F0.002967359050445104
s(S'sold'
p111
S'as'
p112
tp113
F0.011869436201780416
s(S'has'
p114
S'operated'
p115
tp116
F0.002967359050445104
s(S'[[adj]]'
p117
S'sold'
p118
tp119
F0.002967359050445104
s(S'until'
p120
S'signed'
p121
tp122
F0.002967359050445104
s(S'station'
p123
S'between'
p124
tp125
F0.005934718100890208
s(S'owned'
p126
S'[[con]]'
p127
tp128
F0.011869436201780416
s(S'station'
p129
S'[[num]]'
p130
tp131
F0.005934718100890208
s(S'programming'
p132
S'in'
p133
tp134
F0.002967359050445104
s(S'[[num]]'
p135
S'stations'
p136
tp137
F0.008902077151335312
s(S'now'
p138
S'signed'
p139
tp140
F0.002967359050445104
s(S'[[adj]]'
p141
S'affiliate'
p142
tp143
F0.008902077151335312
s(S'first'
p144
S'seen'
p145
tp146
F0.002967359050445104
s(S'owns'
p147
S'[[con]]'
p148
tp149
F0.002967359050445104
s(S'format'
p150
S'as'
p151
tp152
F0.008902077151335312
s(S'station'
p153
S'[[adj]]'
p154
tp155
F0.005934718100890208
s(S'programming'
p156
S'[[con]]'
p157
tp158
F0.002967359050445104
s(S'owned'
p159
S'by'
p160
tp161
F0.01483679525222552
s(S'sister'
p162
S'stations'
p163
tp164
F0.020771513353115726
s(S'sister'
p165
S'station'
p166
tp167
F0.04747774480712166
s(S'is'
p168
S'sold'
p169
tp170
F0.005934718100890208
s(S'was'
p171
S'seen'
p172
tp173
F0.008902077151335312
s(S'[[num]]'
p174
S'sister'
p175
tp176
F0.008902077151335312
s(S'[[det]]'
p177
S'transmitter'
p178
tp179
F0.002967359050445104
s(S'currently'
p180
g159
tp181
F0.002967359050445104
s(g85
S'in'
p182
tp183
F0.002967359050445104
s(g91
S'[[det]]'
p184
tp185
F0.008902077151335312
s(S'[[con]]'
p186
S'station'
p187
tp188
F0.005934718100890208
s(S'to'
p189
S'provide'
p190
tp191
F0.005934718100890208
s(S'seen'
p192
S'to'
p193
tp194
F0.005934718100890208
s(S'operated'
p195
S'for'
p196
tp197
F0.002967359050445104
s(S'struck'
p198
S'[[det]]'
p199
tp200
F0.005934718100890208
s(S'[[det]]'
p201
S'affiliate'
p202
tp203
F0.005934718100890208
s(S'sold'
p204
S'[[con]]'
p205
tp206
F0.002967359050445104
s(S'between'
p207
S'stations'
p208
tp209
F0.002967359050445104
s(S'sister'
p210
S'to'
p211
tp212
F0.002967359050445104
s(S'were'
p213
S'sold'
p214
tp215
F0.002967359050445104
s(S'had'
p216
S'seen'
p217
tp218
F0.002967359050445104
s(S'programming'
p219
S'for'
p220
tp221
F0.002967359050445104
s(S'[[adj]]'
p222
g150
tp223
F0.002967359050445104
s(S'was'
p224
g69
tp225
F0.008902077151335312
s(S'deal'
p226
g189
tp227
F0.005934718100890208
s(S'station'
p228
S'after'
p229
tp230
F0.005934718100890208
s(S'of'
p231
S'programming'
p232
tp233
F0.002967359050445104
s(S'shares'
p234
g177
tp235
F0.002967359050445104
s(g202
S'[[con]]'
p236
tp237
F0.008902077151335312
s(S'[[prp]]'
p238
S'format'
p239
tp240
F0.002967359050445104
s(S'then'
p241
S'operated'
p242
tp243
F0.002967359050445104
s(g109
S'on'
p244
tp245
F0.008902077151335312
s(g166
S'in'
p246
tp247
F0.005934718100890208
s(S'operated'
p248
S'[[num]]'
p249
tp250
F0.002967359050445104
s(g136
S'in'
p251
tp252
F0.002967359050445104
s(S'stations'
p253
S'of'
p254
tp255
F0.002967359050445104
s(S'station'
p256
S'of'
p257
tp258
F0.008902077151335312
s(S'station'
p259
S'with'
p260
tp261
F0.002967359050445104
s(S'owns'
p262
S'[[det]]'
p263
tp264
F0.002967359050445104
s(S'sister'
p265
g40
tp266
F0.002967359050445104
s(S'programming'
p267
S'from'
p268
tp269
F0.002967359050445104
s(g97
S'on'
p270
tp271
F0.005934718100890208
s(S'then'
p272
S'sold'
p273
tp274
F0.002967359050445104
s(S'stations'
p275
S'[[num]]'
p276
tp277
F0.002967359050445104
s(S'[[det]]'
p278
S'format'
p279
tp280
F0.002967359050445104
s(S'seen'
p281
S'[[con]]'
p282
tp283
F0.002967359050445104
s(S'also'
p284
g57
tp285
F0.002967359050445104
s(g46
S'[[det]]'
p286
tp287
F0.002967359050445104
s(S'station'
p288
S'as'
p289
tp290
F0.002967359050445104
s(S'station'
p291
S'[[det]]'
p292
tp293
F0.005934718100890208
s(S'station'
p294
S'for'
p295
tp296
F0.005934718100890208
s(S'signed'
p297
S'off'
p298
tp299
F0.002967359050445104
s(S'station'
p300
S'to'
p301
tp302
F0.011869436201780416
s(S'[[adj]]'
p303
g219
tp304
F0.002967359050445104
s(S'is'
p305
g195
tp306
F0.01483679525222552
s(S'was'
p307
S'signed'
p308
tp309
F0.002967359050445104
s(S'station'
p310
S'[[con]]'
p311
tp312
F0.008902077151335312
s(S'at'
p313
S'stations'
p314
tp315
F0.002967359050445104
s(S'[[det]]'
p316
g78
tp317
F0.011869436201780416
s(S'[[det]]'
p318
g153
tp319
F0.026706231454005934
s(S'is'
p320
g210
tp321
F0.002967359050445104
s(S'station'
p322
S'near'
p323
tp324
F0.002967359050445104
s(S'position'
p325
S'to'
p326
tp327
F0.005934718100890208
s(S'[[adj]]'
p328
S'seen'
p329
tp330
F0.002967359050445104
s(g79
g198
tp331
F0.005934718100890208
s(S'[[adj]]'
p332
S'language'
p333
tp334
F0.002967359050445104
s(S'programming'
p335
S'to'
p336
tp337
F0.002967359050445104
s(S'[[det]]'
p338
g325
tp339
F0.005934718100890208
s(S'by'
p340
S'with'
p341
tp342
F0.002967359050445104
s(S's'
p343
g165
tp344
F0.008902077151335312
s(S'been'
p345
g66
tp346
F0.017804154302670624
s(S'station'
p347
S'from'
p348
tp349
F0.002967359050445104
s(S'is'
p350
g10
tp351
F0.008902077151335312
s(g239
S'to'
p352
tp353
F0.002967359050445104
s(S'operated'
p354
S'until'
p355
tp356
F0.002967359050445104
s(S'[[det]]'
p357
S'programming'
p358
tp359
F0.002967359050445104
s(S'operated'
p360
S'out'
p361
tp362
F0.002967359050445104
s(g23
S'by'
p363
tp364
F0.002967359050445104
s(S'also'
p365
S'sold'
p366
tp367
F0.002967359050445104
s(S'[[det]]'
p368
S'sold'
p369
tp370
F0.002967359050445104
s(S'[[adj]]'
p371
S'station'
p372
tp373
F0.05341246290801187
s(S'affiliate'
p374
S'for'
p375
tp376
F0.002967359050445104
s(g242
S'in'
p377
tp378
F0.011869436201780416
s(S'also'
p379
S'owns'
p380
tp381
F0.01483679525222552
s(S'as'
p382
S'station'
p383
tp384
F0.002967359050445104
s(S'[[con]]'
p385
S'stations'
p386
tp387
F0.002967359050445104
s(S'[[con]]'
p388
S'[[det]]'
p389
tp390
F0.002967359050445104
s(S'operated'
p391
S'along'
p392
tp393
F0.002967359050445104
s(S'also'
p394
S'operated'
p395
tp396
F0.005934718100890208
s(g49
S'[[det]]'
p397
tp398
F0.002967359050445104
s(S'station'
p399
S'at'
p400
tp401
F0.008902077151335312
s(g160
g379
tp402
F0.01483679525222552
s(g326
g316
tp403
F0.005934718100890208
s(S'operated'
p404
S'to'
p405
tp406
F0.002967359050445104
s(S'[[prp]]'
p407
S'programming'
p408
tp409
F0.002967359050445104
s(S'[[adj]]'
p410
S'sister'
p411
tp412
F0.002967359050445104
s(S'is'
p413
S'owned'
p414
tp415
F0.02373887240356083
s(S'station'
p416
S'when'
p417
tp418
F0.002967359050445104
s(S'operated'
p419
S'[[con]]'
p420
tp421
F0.005934718100890208
s(S'was'
p422
g105
tp423
F0.011869436201780416
s(S'operated'
p424
S'[[adj]]'
p425
tp426
F0.002967359050445104
s(S'[[num]]'
p427
S'station'
p428
tp429
F0.002967359050445104
s.