(dp0
(S'rises'
p1
S'in'
p2
tp3
F0.03571428571428571
s(S'from'
p4
S'[[det]]'
p5
tp6
F0.017857142857142856
s(S'begins'
p7
S'at'
p8
tp9
F0.05357142857142857
s(S'in'
p10
S'[[adj]]'
p11
tp12
F0.017857142857142856
s(S'formed'
p13
S'at'
p14
tp15
F0.017857142857142856
s(S'junction'
p16
S'of'
p17
tp18
F0.017857142857142856
s(S'flows'
p19
S'to'
p20
tp21
F0.017857142857142856
s(S'rises'
p22
S'on'
p23
tp24
F0.05357142857142857
s(S'formed'
p25
g4
tp26
F0.017857142857142856
s(S'tributaries'
p27
S'of'
p28
tp29
F0.03571428571428571
s(S'[[det]]'
p30
S'confluence'
p31
tp32
F0.10714285714285714
s(S'flows'
p33
S'from'
p34
tp35
F0.017857142857142856
s(g14
g30
tp36
F0.07142857142857142
s(S'[[adj]]'
p37
S'tributaries'
p38
tp39
F0.03571428571428571
s(S'on'
p40
S'[[det]]'
p41
tp42
F0.017857142857142856
s(S'is'
p43
g13
tp44
F0.07142857142857142
s(S'rises'
p45
S'at'
p46
tp47
F0.017857142857142856
s(S'rises'
p48
S'near'
p49
tp50
F0.017857142857142856
s(S'by'
p51
S'[[det]]'
p52
tp53
F0.03571428571428571
s(S'confluence'
p54
S'[[con]]'
p55
tp56
F0.03571428571428571
s(S'slopes'
p57
S'of'
p58
tp59
F0.05357142857142857
s(g41
S'slopes'
p60
tp61
F0.017857142857142856
s(S'on'
p62
S'[[adj]]'
p63
tp64
F0.017857142857142856
s(S'rises'
p65
S'[[det]]'
p66
tp67
F0.017857142857142856
s(g63
g57
tp68
F0.03571428571428571
s(S'[[det]]'
p69
g16
tp70
F0.017857142857142856
s(S'flows'
p71
S'out'
p72
tp73
F0.017857142857142856
s(g31
S'of'
p74
tp75
F0.07142857142857142
s(S'formed'
p76
g51
tp77
F0.03571428571428571
s.