(dp0
(S'rises'
p1
S'in'
p2
tp3
F0.01020408163265306
s(S'[[adj]]'
p4
S'river'
p5
tp6
F0.04081632653061224
s(S'river'
p7
S'on'
p8
tp9
F0.01020408163265306
s(S'[[adj]]'
p10
S'longest'
p11
tp12
F0.01020408163265306
s(S'dpartement'
p13
S'of'
p14
tp15
F0.01020408163265306
s(S'river'
p16
S'flowing'
p17
tp18
F0.030612244897959183
s(S'border'
p19
S'between'
p20
tp21
F0.02040816326530612
s(S'[[det]]'
p22
g19
tp23
F0.04081632653061224
s(S'river'
p24
S'that'
p25
tp26
F0.01020408163265306
s(S'crosses'
p27
S'[[det]]'
p28
tp29
F0.01020408163265306
s(S'rivers'
p30
S'of'
p31
tp32
F0.01020408163265306
s(S'flows'
p33
S'through'
p34
tp35
F0.04081632653061224
s(g5
S'of'
p36
tp37
F0.02040816326530612
s(S'[[adj]]'
p38
S'largest'
p39
tp40
F0.01020408163265306
s(S'river'
p41
S'in'
p42
tp43
F0.07142857142857142
s(S'parts'
p44
S'of'
p45
tp46
F0.01020408163265306
s(S'part'
p47
S'[[det]]'
p48
tp49
F0.01020408163265306
s(S'[[adj]]'
p50
S'boundary'
p51
tp52
F0.01020408163265306
s(S'border'
p53
S'with'
p54
tp55
F0.02040816326530612
s(S'long'
p56
S'river'
p57
tp58
F0.01020408163265306
s(S'enters'
p59
S'[[adj]]'
p60
tp61
F0.01020408163265306
s(S'[[det]]'
p62
S'river'
p63
tp64
F0.09183673469387756
s(S'[[det]]'
p65
S'[[adj]]'
p66
tp67
F0.02040816326530612
s(S'[[num]]'
p68
S'rivers'
p69
tp70
F0.02040816326530612
s(S'forms'
p71
g47
tp72
F0.01020408163265306
s(S'flows'
p73
S'[[con]]'
p74
tp75
F0.01020408163265306
s(g66
g53
tp76
F0.01020408163265306
s(S'river'
p77
S'between'
p78
tp79
F0.01020408163265306
s(g25
S'flows'
p80
tp81
F0.01020408163265306
s(S'[[num]]'
p82
S'km'
p83
tp84
F0.01020408163265306
s(S'river'
p85
S'flows'
p86
tp87
F0.01020408163265306
s(S'flows'
p88
S'[[det]]'
p89
tp90
F0.01020408163265306
s(g51
S'between'
p91
tp92
F0.02040816326530612
s(S'enters'
p93
S'into'
p94
tp95
F0.01020408163265306
s(g83
g56
tp96
F0.01020408163265306
s(S'[[adj]]'
p97
g30
tp98
F0.02040816326530612
s(S'forms'
p99
g22
tp100
F0.061224489795918366
s(S'[[det]]'
p101
S'longest'
p102
tp103
F0.01020408163265306
s(S'originates'
p104
S'in'
p105
tp106
F0.01020408163265306
s(S'border'
p107
g77
tp108
F0.01020408163265306
s(g39
S'river'
p109
tp110
F0.02040816326530612
s(S'[[det]]'
p111
S'boundary'
p112
tp113
F0.030612244897959183
s(S'rivers'
p114
S'in'
p115
tp116
F0.030612244897959183
s(S'river'
p117
S'[[con]]'
p118
tp119
F0.01020408163265306
s(S'flows'
p120
S'out'
p121
tp122
F0.01020408163265306
s(S'enters'
p123
S'from'
p124
tp125
F0.01020408163265306
s(g63
S'[[det]]'
p126
tp127
F0.01020408163265306
s(S'[[det]]'
p128
S'largest'
p129
tp130
F0.01020408163265306
s(g112
S'with'
p131
tp132
F0.01020408163265306
s(g17
S'through'
p133
tp134
F0.02040816326530612
s(g102
S'river'
p135
tp136
F0.02040816326530612
s(S'through'
p137
g44
tp138
F0.01020408163265306
s(S'[[det]]'
p139
g13
tp140
F0.01020408163265306
s(S'flows'
p141
S'in'
p142
tp143
F0.01020408163265306
s.