(dp0
(S'service'
p1
S'from'
p2
tp3
F0.07142857142857142
s(S'with'
p4
S'service'
p5
tp6
F0.03571428571428571
s(S'routes'
p7
S'in'
p8
tp9
F0.03571428571428571
s(S'service'
p10
S'for'
p11
tp12
F0.03571428571428571
s(S'routes'
p13
S'to'
p14
tp15
F0.03571428571428571
s(S'service'
p16
S'on'
p17
tp18
F0.03571428571428571
s(S'[[adj]]'
p19
S'routes'
p20
tp21
F0.03571428571428571
s(S'service'
p22
S'at'
p23
tp24
F0.03571428571428571
s(g20
S'from'
p25
tp26
F0.07142857142857142
s(S'[[adj]]'
p27
g10
tp28
F0.14285714285714285
s(S's'
p29
S'service'
p30
tp31
F0.03571428571428571
s(S'service'
p32
S'between'
p33
tp34
F0.07142857142857142
s(S'routes'
p35
S'between'
p36
tp37
F0.03571428571428571
s(S'provides'
p38
g1
tp39
F0.07142857142857142
s(S'[[num]]'
p40
S'routes'
p41
tp42
F0.03571428571428571
s(S'service'
p43
S'to'
p44
tp45
F0.17857142857142858
s(S'[[det]]'
p46
g43
tp47
F0.03571428571428571
s.