(dp0
(S'home'
p1
S'[[num]]'
p2
tp3
F0.0041841004184100415
s(S'serves'
p4
S'as'
p5
tp6
F0.012552301255230125
s(S'currently'
p7
S'home'
p8
tp9
F0.0041841004184100415
s(S'[[det]]'
p10
S'home'
p11
tp12
F0.09623430962343096
s(S'ground'
p13
S'of'
p14
tp15
F0.008368200836820083
s(S'for'
p16
S'football'
p17
tp18
F0.0041841004184100415
s(S'[[det]]'
p19
S'used'
p20
tp21
F0.0041841004184100415
s(g5
S'[[det]]'
p22
tp23
F0.012552301255230125
s(S'home'
p24
S'field'
p25
tp26
F0.008368200836820083
s(S'currently'
p27
S'used'
p28
tp29
F0.008368200836820083
s(S'used'
p30
S'at'
p31
tp32
F0.0041841004184100415
s(S'[[num]]'
p33
S'hosted'
p34
tp35
F0.0041841004184100415
s(S'stadium'
p36
S'of'
p37
tp38
F0.0041841004184100415
s(S'also'
p39
S'owned'
p40
tp41
F0.0041841004184100415
s(S'has'
p42
S'hosted'
p43
tp44
F0.0041841004184100415
s(S'[[adj]]'
p45
S'home'
p46
tp47
F0.02510460251046025
s(S'home'
p48
S'when'
p49
tp50
F0.0041841004184100415
s(S'owned'
p51
S'[[con]]'
p52
tp53
F0.0041841004184100415
s(S'now'
p54
S'used'
p55
tp56
F0.0041841004184100415
s(S'name'
p57
S'used'
p58
tp59
F0.0041841004184100415
s(S'primarily'
p60
S'used'
p61
tp62
F0.008368200836820083
s(S'then'
p63
S'used'
p64
tp65
F0.0041841004184100415
s(S'[[con]]'
p66
S'is'
p67
tp68
F0.0041841004184100415
s(S'match'
p69
S'between'
p70
tp71
F0.0041841004184100415
s(S'been'
p72
S'home'
p73
tp74
F0.0041841004184100415
s(S'match'
p75
S'[[con]]'
p76
tp77
F0.0041841004184100415
s(S'[[con]]'
p78
S'owned'
p79
tp80
F0.0041841004184100415
s(S'home'
p81
S'stadium'
p82
tp83
F0.016736401673640166
s(g40
S'by'
p84
tp85
F0.05439330543933055
s(S'formerly'
p86
S'owned'
p87
tp88
F0.0041841004184100415
s(S'shared'
p89
S'by'
p90
tp91
F0.008368200836820083
s(S'still'
p92
S'owned'
p93
tp94
F0.0041841004184100415
s(S'[[det]]'
p95
S'team'
p96
tp97
F0.008368200836820083
s(S'currently'
p98
S'owned'
p99
tp100
F0.0041841004184100415
s(S'was'
p101
S'shared'
p102
tp103
F0.0041841004184100415
s(S'still'
p104
S'used'
p105
tp106
F0.0041841004184100415
s(S'home'
p107
S'arena'
p108
tp109
F0.0041841004184100415
s(S'been'
p110
S'owned'
p111
tp112
F0.0041841004184100415
s(S'been'
p113
S'used'
p114
tp115
F0.012552301255230125
s(g102
S'between'
p116
tp117
F0.0041841004184100415
s(S'as'
p118
S'[[adj]]'
p119
tp120
F0.0041841004184100415
s(S'now'
p121
S'owned'
p122
tp123
F0.008368200836820083
s(g17
S'matches'
p124
tp125
F0.0041841004184100415
s(S'also'
p126
S'used'
p127
tp128
F0.008368200836820083
s(S'was'
p129
S'owned'
p130
tp131
F0.0041841004184100415
s(S'used'
p132
S'by'
p133
tp134
F0.07531380753138076
s(S'be'
p135
g132
tp136
F0.008368200836820083
s(S'developed'
p137
S'jointly'
p138
tp139
F0.0041841004184100415
s(S'later'
p140
S'used'
p141
tp142
F0.0041841004184100415
s(S'became'
p143
S'home'
p144
tp145
F0.0041841004184100415
s(S'used'
p146
S'with'
p147
tp148
F0.0041841004184100415
s(S'automobile'
p149
S'was'
p150
tp151
F0.0041841004184100415
s(g82
S'for'
p152
tp153
F0.008368200836820083
s(S'was'
p154
S'home'
p155
tp156
F0.02092050209205021
s(g155
S'of'
p157
tp158
F0.04184100418410042
s(S'being'
p159
S'used'
p160
tp161
F0.0041841004184100415
s(g124
S'[[con]]'
p162
tp163
F0.0041841004184100415
s(S'was'
p164
S'used'
p165
tp166
F0.02092050209205021
s(S'ground'
p167
S'to'
p168
tp169
F0.0041841004184100415
s(S'also'
p170
S'home'
p171
tp172
F0.0041841004184100415
s(S'used'
p173
S'mostly'
p174
tp175
F0.0041841004184100415
s(S'is'
p176
g60
tp177
F0.0041841004184100415
s(S'only'
p178
S'used'
p179
tp180
F0.0041841004184100415
s(S'used'
p181
S'[[con]]'
p182
tp183
F0.012552301255230125
s(S'opened'
p184
g118
tp185
F0.0041841004184100415
s(g114
S'for'
p186
tp187
F0.0041841004184100415
s(S'also'
p188
S'hosted'
p189
tp190
F0.0041841004184100415
s(S'is'
p191
S'used'
p192
tp193
F0.012552301255230125
s(g25
S'for'
p194
tp195
F0.0041841004184100415
s(S'be'
p196
S'home'
p197
tp198
F0.0041841004184100415
s(S'[[det]]'
p199
g149
tp200
F0.0041841004184100415
s(S'[[num]]'
p201
S'used'
p202
tp203
F0.0041841004184100415
s(S'not'
p204
S'owned'
p205
tp206
F0.0041841004184100415
s(S'mainly'
p207
S'used'
p208
tp209
F0.0041841004184100415
s(S'are'
p210
S'owned'
p211
tp212
F0.0041841004184100415
s(S'home'
p213
g13
tp214
F0.016736401673640166
s(g43
S'[[det]]'
p215
tp216
F0.012552301255230125
s(S'is'
p217
S'shared'
p218
tp219
F0.0041841004184100415
s(S'[[con]]'
p220
S'used'
p221
tp222
F0.0041841004184100415
s(S'[[adj]]'
p223
g75
tp224
F0.0041841004184100415
s(S'used'
p225
S'from'
p226
tp227
F0.0041841004184100415
s(S'owned'
p228
S'[[num]]'
p229
tp230
F0.0041841004184100415
s(g174
g16
tp231
F0.0041841004184100415
s(S'was'
p232
S'primarily'
p233
tp234
F0.0041841004184100415
s(S'used'
p235
S'as'
p236
tp237
F0.0041841004184100415
s(S'home'
p238
S'[[det]]'
p239
tp240
F0.02092050209205021
s(S'home'
p241
S'to'
p242
tp243
F0.0502092050209205
s(S's'
p244
S'home'
p245
tp246
F0.0041841004184100415
s(S'[[con]]'
p247
S'[[det]]'
p248
tp249
F0.016736401673640166
s(g46
S'for'
p250
tp251
F0.008368200836820083
s(S'[[det]]'
p252
S'hosted'
p253
tp254
F0.0041841004184100415
s(g192
S'on'
p255
tp256
F0.012552301255230125
s(g150
g137
tp257
F0.0041841004184100415
s(S'home'
p258
S'[[con]]'
p259
tp260
F0.012552301255230125
s(g138
S'by'
p261
tp262
F0.0041841004184100415
s(S'ground'
p263
S'for'
p264
tp265
F0.0041841004184100415
s(S'field'
p266
S'of'
p267
tp268
F0.0041841004184100415
s(S'to'
p269
g95
tp270
F0.008368200836820083
s(S'now'
p271
S'home'
p272
tp273
F0.0041841004184100415
s(S'is'
p274
S'home'
p275
tp276
F0.02092050209205021
s(S'not'
p277
S'used'
p278
tp279
F0.0041841004184100415
s(S'is'
p280
S'owned'
p281
tp282
F0.016736401673640166
s(S'[[det]]'
p283
S'owned'
p284
tp285
F0.008368200836820083
s(S'once'
p286
S'used'
p287
tp288
F0.0041841004184100415
s(S'opened'
p289
g247
tp290
F0.008368200836820083
s.