(dp0
(S'with'
p1
S'led'
p2
tp3
F0.0007385524372230429
s(S'match'
p4
S'at'
p5
tp6
F0.0007385524372230429
s(S'turned'
p7
S'[[adj]]'
p8
tp9
F0.0007385524372230429
s(S'met'
p10
S'by'
p11
tp12
F0.0022156573116691287
s(S'later'
p13
S'teamed'
p14
tp15
F0.0014771048744460858
s(S'by'
p16
S'defeating'
p17
tp18
F0.0029542097488921715
s(S'son'
p19
S'of'
p20
tp21
F0.008862629246676515
s(S'[[adj]]'
p22
S'win'
p23
tp24
F0.0014771048744460858
s(S'hit'
p25
S'[[pro]]'
p26
tp27
F0.0007385524372230429
s(S'lost'
p28
S'to'
p29
tp30
F0.0103397341211226
s(S'to'
p31
S'dominate'
p32
tp33
F0.0014771048744460858
s(S'before'
p34
S'left'
p35
tp36
F0.0007385524372230429
s(S'left'
p37
S'where'
p38
tp39
F0.0007385524372230429
s(S'have'
p40
S'won'
p41
tp42
F0.0007385524372230429
s(S'take'
p43
S'who'
p44
tp45
F0.0007385524372230429
s(S'[[con]]'
p46
S'mdash'
p47
tp48
F0.0007385524372230429
s(S'with'
p49
S'getting'
p50
tp51
F0.0007385524372230429
s(S'where'
p52
S'defeated'
p53
tp54
F0.0007385524372230429
s(S'off'
p55
S'[[det]]'
p56
tp57
F0.0007385524372230429
s(S'[[num]]'
p58
S'led'
p59
tp60
F0.0014771048744460858
s(S'after'
p61
S'left'
p62
tp63
F0.0007385524372230429
s(S'[[con]]'
p64
S'teamed'
p65
tp66
F0.0022156573116691287
s(S'lost'
p67
S'out'
p68
tp69
F0.0014771048744460858
s(S'son'
p70
S'[[det]]'
p71
tp72
F0.004431314623338257
s(S'that'
p73
S'won'
p74
tp75
F0.0007385524372230429
s(S'had'
p76
S'led'
p77
tp78
F0.0007385524372230429
s(S'turned'
p79
S'to'
p80
tp81
F0.0029542097488921715
s(S'had'
p82
S'taught'
p83
tp84
F0.0007385524372230429
s(S'[[con]]'
p85
S'ahead'
p86
tp87
F0.0007385524372230429
s(S'defeated'
p88
S'[[pro]]'
p89
tp90
F0.0007385524372230429
s(S'hit'
p91
S'by'
p92
tp93
F0.0022156573116691287
s(S'was'
p94
S'hit'
p95
tp96
F0.0029542097488921715
s(S's'
p97
S'son'
p98
tp99
F0.011078286558345642
s(S'lost'
p100
S'again'
p101
tp102
F0.0007385524372230429
s(S'be'
p103
S'defeated'
p104
tp105
F0.0007385524372230429
s(S'worked'
p106
S'where'
p107
tp108
F0.0022156573116691287
s(S'[[con]]'
p109
S'defeating'
p110
tp111
F0.0014771048744460858
s(S'held'
p112
S'up'
p113
tp114
F0.0007385524372230429
s(S'had'
p115
S'trained'
p116
tp117
F0.0007385524372230429
s(S'has'
p118
S'trained'
p119
tp120
F0.0022156573116691287
s(S'met'
p121
S'where'
p122
tp123
F0.0007385524372230429
s(S'left'
p124
S'off'
p125
tp126
F0.0007385524372230429
s(S'that'
p127
S'lost'
p128
tp129
F0.0007385524372230429
s(S'has'
p130
S'lost'
p131
tp132
F0.0014771048744460858
s(S'worked'
p133
S'after'
p134
tp135
F0.0007385524372230429
s(S'met'
p136
S'when'
p137
tp138
F0.0022156573116691287
s(S'[[adj]]'
p139
S'led'
p140
tp141
F0.0014771048744460858
s(S'won'
p142
S'in'
p143
tp144
F0.0007385524372230429
s(S'[[num]]'
p145
S'lost'
p146
tp147
F0.0007385524372230429
s(S'was'
p148
S'followed'
p149
tp150
F0.0007385524372230429
s(S'defeated'
p151
S'before'
p152
tp153
F0.0007385524372230429
s(S'[[prp]]'
p154
S'feud'
p155
tp156
F0.0007385524372230429
s(S'margin'
p157
S'over'
p158
tp159
F0.0014771048744460858
s(S'lead'
p160
S'[[con]]'
p161
tp162
F0.0007385524372230429
s(S'led'
p163
S'as'
p164
tp165
F0.0007385524372230429
s(S'career'
p166
S'ahead'
p167
tp168
F0.0007385524372230429
s(S'led'
p169
S'with'
p170
tp171
F0.0007385524372230429
s(S'[[num]]'
p172
S'left'
p173
tp174
F0.0007385524372230429
s(S'pole'
p175
S'[[prp]]'
p176
tp177
F0.0007385524372230429
s(S'led'
p178
S'from'
p179
tp180
F0.0014771048744460858
s(S'soon'
p181
S'met'
p182
tp183
F0.0014771048744460858
s(S'[[num]]'
p184
S'worked'
p185
tp186
F0.0014771048744460858
s(S'often'
p187
S'worked'
p188
tp189
F0.0014771048744460858
s(S'which'
p190
S'lost'
p191
tp192
F0.0007385524372230429
s(S'left'
p193
S'out'
p194
tp195
F0.0007385524372230429
s(S'led'
p196
S'by'
p197
tp198
F0.003692762186115214
s(S'[[prp]]'
p199
S'hit'
p200
tp201
F0.0014771048744460858
s(S'[[det]]'
p202
S'led'
p203
tp204
F0.0014771048744460858
s(S'that'
p205
S'worked'
p206
tp207
F0.0014771048744460858
s(S'teamed'
p208
S'to'
p209
tp210
F0.0007385524372230429
s(S'held'
p211
S'after'
p212
tp213
F0.0007385524372230429
s(S'when'
p214
S'lost'
p215
tp216
F0.0014771048744460858
s(S'won'
p217
S'against'
p218
tp219
F0.0007385524372230429
s(S'however'
p220
S'lost'
p221
tp222
F0.0007385524372230429
s(S'winter'
p223
S'[[con]]'
p224
tp225
F0.0007385524372230429
s(S'who'
p226
S'won'
p227
tp228
F0.0007385524372230429
s(S'met'
p229
S'from'
p230
tp231
F0.0007385524372230429
s(S'training'
p232
S'from'
p233
tp234
F0.0029542097488921715
s(S'worked'
p235
S'to'
p236
tp237
F0.004431314623338257
s(S'lost'
p238
S'[[det]]'
p239
tp240
F0.0022156573116691287
s(S'met'
p241
S'[[adj]]'
p242
tp243
F0.0029542097488921715
s(S'[[det]]'
p244
S'wrestler'
p245
tp246
F0.0007385524372230429
s(S'as'
p247
S'taught'
p248
tp249
F0.0014771048744460858
s(S'[[det]]'
p250
S'held'
p251
tp252
F0.0007385524372230429
s(S'formerly'
p253
S'worked'
p254
tp255
F0.0007385524372230429
s(S'received'
p256
S'[[adj]]'
p257
tp258
F0.0029542097488921715
s(S'after'
p259
S'lost'
p260
tp261
F0.0007385524372230429
s(S'defeated'
p262
S'[[num]]'
p263
tp264
F0.0029542097488921715
s(S'which'
p265
S'led'
p266
tp267
F0.0014771048744460858
s(S'[[prp]]'
p268
S'[[adj]]'
p269
tp270
F0.0014771048744460858
s(S'face'
p271
S'of'
p272
tp273
F0.0007385524372230429
s(S'away'
p274
S'[[con]]'
p275
tp276
F0.0007385524372230429
s(S'was'
p277
S'taught'
p278
tp279
F0.003692762186115214
s(S'son'
p280
S'to'
p281
tp282
F0.004431314623338257
s(S'hit'
p283
S'from'
p284
tp285
F0.0014771048744460858
s(S'held'
p286
S'before'
p287
tp288
F0.0007385524372230429
s(S'now'
p289
S'led'
p290
tp291
F0.0014771048744460858
s(S'champion'
p292
S'[[adj]]'
p293
tp294
F0.0007385524372230429
s(S'son'
p295
S'became'
p296
tp297
F0.0014771048744460858
s(S'lost'
p298
S'when'
p299
tp300
F0.0007385524372230429
s(S'had'
p301
S'defeated'
p302
tp303
F0.0014771048744460858
s(S'win'
p304
S'back'
p305
tp306
F0.0007385524372230429
s(S'hit'
p307
S'[[det]]'
p308
tp309
F0.0029542097488921715
s(S'taught'
p310
S'that'
p311
tp312
F0.0007385524372230429
s(S'if'
p313
S'won'
p314
tp315
F0.0007385524372230429
s(S'then'
p316
S'lost'
p317
tp318
F0.0014771048744460858
s(S'face'
p319
S'off'
p320
tp321
F0.0022156573116691287
s(S'won'
p322
S'again'
p323
tp324
F0.0007385524372230429
s(S'has'
p325
S'teamed'
p326
tp327
F0.0014771048744460858
s(S'held'
p328
S'[[det]]'
p329
tp330
F0.0022156573116691287
s(S'defeating'
p331
S'[[det]]'
p332
tp333
F0.0007385524372230429
s(S'[[con]]'
p334
S'worked'
p335
tp336
F0.004431314623338257
s(S'turned'
p337
S'by'
p338
tp339
F0.0007385524372230429
s(S'driven'
p340
S'by'
p341
tp342
F0.0007385524372230429
s(S'while'
p343
S'held'
p344
tp345
F0.0007385524372230429
s(S'winning'
p346
S'[[det]]'
p347
tp348
F0.0007385524372230429
s(S'since'
p349
S'worked'
p350
tp351
F0.0014771048744460858
s(S'pole'
p352
S'ahead'
p353
tp354
F0.0022156573116691287
s(S'met'
p355
S'[[con]]'
p356
tp357
F0.0066469719350073855
s(S'turned'
p358
S'[[con]]'
p359
tp360
F0.0007385524372230429
s(S'with'
p361
S'won'
p362
tp363
F0.0007385524372230429
s(S'been'
p364
S'trained'
p365
tp366
F0.0007385524372230429
s(S'to'
p367
S'continue'
p368
tp369
F0.0007385524372230429
s(S'who'
p370
S'led'
p371
tp372
F0.0014771048744460858
s(S'[[adj]]'
p373
S'worked'
p374
tp375
F0.0014771048744460858
s(S'[[adj]]'
p376
S'son'
p377
tp378
F0.011078286558345642
s(S'in'
p379
S'where'
p380
tp381
F0.0007385524372230429
s(S'[[det]]'
p382
S'stage'
p383
tp384
F0.0007385524372230429
s(S'turned'
p385
S'as'
p386
tp387
F0.0007385524372230429
s(S'[[det]]'
p388
S'majority'
p389
tp390
F0.0007385524372230429
s(S'carried'
p391
S'by'
p392
tp393
F0.0007385524372230429
s(S'received'
p394
g232
tp395
F0.0007385524372230429
s(S'started'
p396
S'training'
p397
tp398
F0.0014771048744460858
s(S'while'
p399
S'got'
p400
tp401
F0.0007385524372230429
s(S'again'
p402
S'worked'
p403
tp404
F0.0014771048744460858
s(S'singing'
p405
S'[[con]]'
p406
tp407
F0.0007385524372230429
s(S'were'
p408
S'champions'
p409
tp410
F0.0007385524372230429
s(S'where'
p411
S'lost'
p412
tp413
F0.0014771048744460858
s(S'turned'
p414
S'[[prp]]'
p415
tp416
F0.0007385524372230429
s(S'[[adj]]'
p417
S'lost'
p418
tp419
F0.0014771048744460858
s(S'[[con]]'
p420
S'son'
p421
tp422
F0.0022156573116691287
s(S'train'
p423
S'[[adj]]'
p424
tp425
F0.0007385524372230429
s(S'won'
p426
S'before'
p427
tp428
F0.0007385524372230429
s(S'awards'
p429
S'that'
p430
tp431
F0.0007385524372230429
s(S'while'
p432
S'lost'
p433
tp434
F0.0007385524372230429
s(S'again'
p435
S'lost'
p436
tp437
F0.0007385524372230429
s(S'gave'
p438
S'[[pro]]'
p439
tp440
F0.0007385524372230429
s(S'[[prp]]'
p441
S'studies'
p442
tp443
F0.0007385524372230429
s(S'hit'
p444
S'for'
p445
tp446
F0.0007385524372230429
s(S'followed'
p447
g382
tp448
F0.0007385524372230429
s(S'[[adj]]'
p449
S'face'
p450
tp451
F0.0007385524372230429
s(S'just'
p452
S'ahead'
p453
tp454
F0.0007385524372230429
s(S'worked'
p455
S'under'
p456
tp457
F0.007385524372230428
s(S'first'
p458
S'worked'
p459
tp460
F0.0014771048744460858
s(S'feud'
p461
S'with'
p462
tp463
F0.0029542097488921715
s(S'[[adj]]'
p464
S'turn'
p465
tp466
F0.0007385524372230429
s(S'took'
p467
S'[[det]]'
p468
tp469
F0.0051698670605613
s(S'as'
p470
S'[[det]]'
p471
tp472
F0.0014771048744460858
s(S'win'
p473
S'from'
p474
tp475
F0.0014771048744460858
s(S'that'
p476
S'held'
p477
tp478
F0.0007385524372230429
s(S'[[prp]]'
p479
S'training'
p480
tp481
F0.0022156573116691287
s(S'to'
p482
S'hit'
p483
tp484
F0.0022156573116691287
s(S'son'
p485
S'whom'
p486
tp487
F0.0014771048744460858
s(S'after'
p488
S'hit'
p489
tp490
F0.0007385524372230429
s(S'held'
p491
S'in'
p492
tp493
F0.0007385524372230429
s(S'also'
p494
S'left'
p495
tp496
F0.0007385524372230429
s(S'son'
p497
S'later'
p498
tp499
F0.0014771048744460858
s(S'after'
p500
S'defeated'
p501
tp502
F0.0007385524372230429
s(S'been'
p503
S'defeated'
p504
tp505
F0.0014771048744460858
s(S'carried'
p506
S'[[det]]'
p507
tp508
F0.0007385524372230429
s(g110
S'[[con]]'
p509
tp510
F0.0022156573116691287
s(S'left'
p511
S'before'
p512
tp513
F0.0007385524372230429
s(g176
g166
tp514
F0.0007385524372230429
s(S'left'
p515
S'was'
p516
tp517
F0.0007385524372230429
s(g347
g4
tp518
F0.0007385524372230429
s(S'son'
p519
S'[[pro]]'
p520
tp521
F0.0022156573116691287
s(g248
S'by'
p522
tp523
F0.0029542097488921715
s(S'win'
p524
S'[[pro]]'
p525
tp526
F0.0007385524372230429
s(S'since'
p527
S'left'
p528
tp529
F0.0007385524372230429
s(S'had'
p530
S'lost'
p531
tp532
F0.0022156573116691287
s(S'[[prp]]'
p533
S'face'
p534
tp535
F0.0007385524372230429
s(S'was'
p536
g262
tp537
F0.0051698670605613
s(S'dominate'
p538
S'[[det]]'
p539
tp540
F0.0007385524372230429
s(S'also'
p541
S'won'
p542
tp543
F0.0051698670605613
s(S'is'
p544
S'led'
p545
tp546
F0.0007385524372230429
s(S'held'
p547
S'was'
p548
tp549
F0.0007385524372230429
s(S'won'
p550
S'by'
p551
tp552
F0.0014771048744460858
s(S'turned'
p553
S'up'
p554
tp555
F0.0014771048744460858
s(S'led'
p556
S'off'
p557
tp558
F0.0007385524372230429
s(S'worked'
p559
S'by'
p560
tp561
F0.0022156573116691287
s(S'defeating'
p562
S'[[adj]]'
p563
tp564
F0.0022156573116691287
s(S'[[det]]'
p565
S'met'
p566
tp567
F0.0007385524372230429
s(S'[[mod]]'
p568
S'hit'
p569
tp570
F0.0007385524372230429
s(S'where'
p571
S'led'
p572
tp573
F0.0007385524372230429
s(S'turned'
p574
S'back'
p575
tp576
F0.0007385524372230429
s(S'[[det]]'
p577
S'team'
p578
tp579
F0.0007385524372230429
s(S'was'
p580
S'teamed'
p581
tp582
F0.0022156573116691287
s(S'left'
p583
S'along'
p584
tp585
F0.0007385524372230429
s(S'whose'
p586
S'son'
p587
tp588
F0.0007385524372230429
s(S'left'
p589
S'when'
p590
tp591
F0.0007385524372230429
s(S'met'
p592
S'at'
p593
tp594
F0.0007385524372230429
s(S'hit'
p595
S'[[con]]'
p596
tp597
F0.0022156573116691287
s(S'[[adj]]'
p598
S'champion'
p599
tp600
F0.0014771048744460858
s(S'left'
p601
S'[[con]]'
p602
tp603
F0.003692762186115214
s(S'received'
p604
g388
tp605
F0.0007385524372230429
s(S'[[pro]]'
p606
S'hit'
p607
tp608
F0.0007385524372230429
s(S'worked'
p609
S'along'
p610
tp611
F0.004431314623338257
s(S'that'
p612
S'turned'
p613
tp614
F0.0007385524372230429
s(S'had'
p615
S'worked'
p616
tp617
F0.003692762186115214
s(S'have'
p618
S'worked'
p619
tp620
F0.0022156573116691287
s(S'had'
p621
S'left'
p622
tp623
F0.004431314623338257
s(S'had'
p624
S'hit'
p625
tp626
F0.0007385524372230429
s(S'held'
p627
S'when'
p628
tp629
F0.0007385524372230429
s(S'[[con]]'
p630
S'turned'
p631
tp632
F0.0014771048744460858
s(S'also'
p633
S'lost'
p634
tp635
F0.0022156573116691287
s(S'have'
p636
g256
tp637
F0.0007385524372230429
s(S'held'
p638
S'[[prp]]'
p639
tp640
F0.0007385524372230429
s(S'met'
p641
S'with'
p642
tp643
F0.007385524372230428
s(S'[[con]]'
p644
S'held'
p645
tp646
F0.0022156573116691287
s(S'lost'
p647
S'[[num]]'
p648
tp649
F0.0007385524372230429
s(S'left'
p650
S'[[prp]]'
p651
tp652
F0.0014771048744460858
s(S'where'
p653
S'trained'
p654
tp655
F0.0007385524372230429
s(S'won'
p656
S'[[pro]]'
p657
tp658
F0.0007385524372230429
s(S'then'
p659
S'won'
p660
tp661
F0.0014771048744460858
s(S'championship'
p662
S'by'
p663
tp664
F0.0007385524372230429
s(g119
S'with'
p665
tp666
F0.0029542097488921715
s(S'[[det]]'
p667
S'driver'
p668
tp669
F0.0007385524372230429
s(S'of'
p670
S'home'
p671
tp672
F0.0007385524372230429
s(S'later'
p673
S'met'
p674
tp675
F0.0014771048744460858
s(g383
S'career'
p676
tp677
F0.0007385524372230429
s(S'training'
p678
S'with'
p679
tp680
F0.0029542097488921715
s(g545
S'to'
p681
tp682
F0.0014771048744460858
s(S'son'
p683
S'by'
p684
tp685
F0.004431314623338257
s(S'[[adj]]'
p686
S'hit'
p687
tp688
F0.0029542097488921715
s(S'[[det]]'
p689
g352
tp690
F0.0007385524372230429
s(S'eye'
p691
S'of'
p692
tp693
F0.0007385524372230429
s(S'son'
p694
S'in'
p695
tp696
F0.0014771048744460858
s(S'then'
p697
g553
tp698
F0.0022156573116691287
s(S'[[con]]'
p699
S'met'
p700
tp701
F0.004431314623338257
s(S'defeated'
p702
S'by'
p703
tp704
F0.007385524372230428
s(S'lost'
p705
S'with'
p706
tp707
F0.0022156573116691287
s(S'when'
p708
S'hit'
p709
tp710
F0.0007385524372230429
s(g480
S'under'
p711
tp712
F0.003692762186115214
s(g374
S'for'
p713
tp714
F0.0022156573116691287
s(S'[[adj]]'
p715
S'defeating'
p716
tp717
F0.0014771048744460858
s(S'[[con]]'
p718
S'won'
p719
tp720
F0.0022156573116691287
s(S'worked'
p721
S'until'
p722
tp723
F0.0014771048744460858
s(S'again'
p724
S'defeated'
p725
tp726
F0.0022156573116691287
s(S'son'
p727
S'was'
p728
tp729
F0.0029542097488921715
s(S'train'
p730
S'under'
p731
tp732
F0.0007385524372230429
s(S'also'
p733
S'met'
p734
tp735
F0.0051698670605613
s(S'left'
p736
S'[[det]]'
p737
tp738
F0.0014771048744460858
s(S'[[det]]'
p739
S'hit'
p740
tp741
F0.0014771048744460858
s(S'defeated'
p742
S'in'
p743
tp744
F0.0007385524372230429
s(g578
S'by'
p745
tp746
F0.0007385524372230429
s(S'feud'
p747
S'[[con]]'
p748
tp749
F0.0007385524372230429
s(S'that'
p750
S'led'
p751
tp752
F0.0007385524372230429
s(S'also'
p753
S'trained'
p754
tp755
F0.004431314623338257
s(S'where'
p756
S'taught'
p757
tp758
F0.0007385524372230429
s(S'[[con]]'
p759
S'led'
p760
tp761
F0.0014771048744460858
s(S'which'
p762
S'worked'
p763
tp764
F0.0007385524372230429
s(S'where'
p765
g641
tp766
F0.003692762186115214
s(S'from'
p767
S'son'
p768
tp769
F0.0007385524372230429
s(S'held'
p770
S'under'
p771
tp772
F0.0007385524372230429
s(S'did'
p773
g43
tp774
F0.0007385524372230429
s(S'which'
p775
S'won'
p776
tp777
F0.0007385524372230429
s(S'again'
p778
S'won'
p779
tp780
F0.0007385524372230429
s(S'while'
p781
S'won'
p782
tp783
F0.0007385524372230429
s(S'assistant'
p784
S'to'
p785
tp786
F0.0007385524372230429
s(S'face'
p787
S'[[con]]'
p788
tp789
F0.0022156573116691287
s(S'met'
p790
S'as'
p791
tp792
F0.0007385524372230429
s(S'turned'
p793
S'[[pro]]'
p794
tp795
F0.0007385524372230429
s(S'began'
p796
g479
tp797
F0.0022156573116691287
s(S'won'
p798
S'with'
p799
tp800
F0.0029542097488921715
s(S'hit'
p801
S'[[prp]]'
p802
tp803
F0.0007385524372230429
s(S'mainly'
p804
g455
tp805
F0.0007385524372230429
s(S'was'
p806
S'trained'
p807
tp808
F0.003692762186115214
s(S'in'
p809
S'defeating'
p810
tp811
F0.0007385524372230429
s(S'held'
p812
S'as'
p813
tp814
F0.0007385524372230429
s(S'where'
p815
S'worked'
p816
tp817
F0.005908419497784343
s(S'held'
p818
S'[[adj]]'
p819
tp820
F0.0029542097488921715
s(S'ahead'
p821
S'of'
p822
tp823
F0.008862629246676515
s(S'where'
p824
S'held'
p825
tp826
F0.0007385524372230429
s(S'held'
p827
S'that'
p828
tp829
F0.0007385524372230429
s(g542
S'to'
p830
tp831
F0.0007385524372230429
s(S'[[mod]]'
p832
g524
tp833
F0.0014771048744460858
s(g335
S'[[prp]]'
p834
tp835
F0.0007385524372230429
s(S'being'
p836
S'held'
p837
tp838
F0.0007385524372230429
s(S'later'
p839
S'won'
p840
tp841
F0.0007385524372230429
s(S'worked'
p842
S'first'
p843
tp844
F0.0007385524372230429
s(g392
S'margin'
p845
tp846
F0.0007385524372230429
s(S'worked'
p847
S'together'
p848
tp849
F0.0022156573116691287
s(S'passed'
p850
S'[[con]]'
p851
tp852
F0.0007385524372230429
s(S'left'
p853
S'while'
p854
tp855
F0.0007385524372230429
s(S'trained'
p856
S'to'
p857
tp858
F0.0007385524372230429
s(S'taught'
p859
S'to'
p860
tp861
F0.0007385524372230429
s(S'then'
p862
g702
tp863
F0.0029542097488921715
s(S'where'
p864
S'teamed'
p865
tp866
F0.0007385524372230429
s(S'win'
p867
S'after'
p868
tp869
F0.0014771048744460858
s(S'lost'
p870
S'[[con]]'
p871
tp872
F0.0007385524372230429
s(S'defeated'
p873
S'[[adj]]'
p874
tp875
F0.0029542097488921715
s(S'left'
p876
S'as'
p877
tp878
F0.0007385524372230429
s(S'worked'
p879
S'[[con]]'
p880
tp881
F0.004431314623338257
s(S'won'
p882
S'from'
p883
tp884
F0.0007385524372230429
s(S'has'
p885
g736
tp886
F0.0014771048744460858
s(S'won'
p887
S'[[adj]]'
p888
tp889
F0.0007385524372230429
s(S'hit'
p890
S'on'
p891
tp892
F0.0029542097488921715
s(S'led'
p893
S'where'
p894
tp895
F0.0007385524372230429
s(S'then'
p896
S'teamed'
p897
tp898
F0.0014771048744460858
s(S'[[adj]]'
p899
S'world'
p900
tp901
F0.0014771048744460858
s(S'took'
p902
g55
tp903
F0.0014771048744460858
s(S'until'
p904
S'left'
p905
tp906
F0.0007385524372230429
s(S'taught'
p907
S'from'
p908
tp909
F0.0007385524372230429
s(S'defeated'
p910
S'for'
p911
tp912
F0.0007385524372230429
s(S'son'
p913
S'as'
p914
tp915
F0.0014771048744460858
s(S'turned'
p916
S'over'
p917
tp918
F0.0007385524372230429
s(S'[[det]]'
p919
g7
tp920
F0.0014771048744460858
s(S'also'
p921
S'led'
p922
tp923
F0.0007385524372230429
s(g406
g447
tp924
F0.0007385524372230429
s(S'[[det]]'
p925
g223
tp926
F0.0007385524372230429
s(S'who'
p927
S'hit'
p928
tp929
F0.0014771048744460858
s(S'son'
p930
S'[[mod]]'
p931
tp932
F0.0007385524372230429
s(S'worked'
p933
S'on'
p934
tp935
F0.0014771048744460858
s(g97
S'defeated'
p936
tp937
F0.0014771048744460858
s(S'then'
p938
S'held'
p939
tp940
F0.0007385524372230429
s(S'then'
p941
g307
tp942
F0.0014771048744460858
s(g622
S'to'
p943
tp944
F0.0022156573116691287
s(S'when'
p945
S'left'
p946
tp947
F0.0007385524372230429
s(S'win'
p948
S'to'
p949
tp950
F0.0007385524372230429
s(S'who'
p951
S'defeated'
p952
tp953
F0.0007385524372230429
s(S'taught'
p954
S'[[con]]'
p955
tp956
F0.0007385524372230429
s(S'turned'
p957
S'[[det]]'
p958
tp959
F0.0007385524372230429
s(S'worked'
p960
S'when'
p961
tp962
F0.0007385524372230429
s(S'hit'
p963
S'[[num]]'
p964
tp965
F0.0014771048744460858
s(S'has'
p966
g559
tp967
F0.008862629246676515
s(S'left'
p968
S'by'
p969
tp970
F0.0014771048744460858
s(S'when'
p971
S'defeated'
p972
tp973
F0.0007385524372230429
s(S'teamed'
p974
S'up'
p975
tp976
F0.005908419497784343
s(S'son'
p977
S'de'
p978
tp979
F0.0022156573116691287
s(S'later'
p980
g879
tp981
F0.0051698670605613
s(S'also'
p982
S'teamed'
p983
tp984
F0.0022156573116691287
s(g430
g438
tp985
F0.0007385524372230429
s(g278
S'in'
p986
tp987
F0.0007385524372230429
s(S'won'
p988
S'after'
p989
tp990
F0.0007385524372230429
s(S'[[mod]]'
p991
S'train'
p992
tp993
F0.0007385524372230429
s(S'taking'
p994
S'ahead'
p995
tp996
F0.0007385524372230429
s(S'taught'
p997
S'where'
p998
tp999
F0.0007385524372230429
s(S'then'
p1000
S'met'
p1001
tp1002
F0.0014771048744460858
s(S'[[adj]]'
p1003
S'met'
p1004
tp1005
F0.0022156573116691287
s(S'[[det]]'
p1006
g497
tp1007
F0.011816838995568686
s(S'[[adj]]'
p1008
S'feud'
p1009
tp1010
F0.0014771048744460858
s(S'also'
p1011
g328
tp1012
F0.0014771048744460858
s(S'defeated'
p1013
S'after'
p1014
tp1015
F0.0014771048744460858
s(S'who'
p1016
g491
tp1017
F0.0007385524372230429
s(S'be'
p1018
S'trained'
p1019
tp1020
F0.0007385524372230429
s(S'left'
p1021
S'behind'
p1022
tp1023
F0.0014771048744460858
s(S'only'
p1024
S'son'
p1025
tp1026
F0.0007385524372230429
s(S'[[adj]]'
p1027
S'defeated'
p1028
tp1029
F0.0007385524372230429
s(S'face'
p1030
S'[[adj]]'
p1031
tp1032
F0.0007385524372230429
s(S'worked'
p1033
S'was'
p1034
tp1035
F0.0007385524372230429
s(S'worked'
p1036
S'before'
p1037
tp1038
F0.0022156573116691287
s(S'with'
p1039
S'son'
p1040
tp1041
F0.0014771048744460858
s(S'that'
p1042
S'left'
p1043
tp1044
F0.0007385524372230429
s(S'after'
p1045
S'defeating'
p1046
tp1047
F0.0007385524372230429
s(S'met'
p1048
S'up'
p1049
tp1050
F0.0014771048744460858
s(S'won'
p1051
S'as'
p1052
tp1053
F0.0014771048744460858
s(S'while'
p1054
S'defeated'
p1055
tp1056
F0.0007385524372230429
s(S'teamed'
p1057
S'[[con]]'
p1058
tp1059
F0.0007385524372230429
s(S'defeated'
p1060
S'[[prp]]'
p1061
tp1062
F0.0007385524372230429
s(S'[[det]]'
p1063
S'opportunity'
p1064
tp1065
F0.0007385524372230429
s(S'regained'
p1066
S'[[det]]'
p1067
tp1068
F0.0007385524372230429
s(S'win'
p1069
S'over'
p1070
tp1071
F0.0007385524372230429
s(S'trained'
p1072
S'[[det]]'
p1073
tp1074
F0.0007385524372230429
s(S'[[con]]'
p1075
S'lost'
p1076
tp1077
F0.0051698670605613
s(S'left'
p1078
S'after'
p1079
tp1080
F0.0007385524372230429
s(S'defeated'
p1081
S'to'
p1082
tp1083
F0.0022156573116691287
s(S'also'
p1084
S'taught'
p1085
tp1086
F0.0014771048744460858
s(S'that'
p1087
S'son'
p1088
tp1089
F0.0007385524372230429
s(S'lead'
p1090
g49
tp1091
F0.0014771048744460858
s(S'which'
p1092
S'held'
p1093
tp1094
F0.0007385524372230429
s(S'worked'
p1095
S'mainly'
p1096
tp1097
F0.0014771048744460858
s(S'hit'
p1098
S'[[adj]]'
p1099
tp1100
F0.0014771048744460858
s(S'trained'
p1101
S'as'
p1102
tp1103
F0.0007385524372230429
s(S'defeated'
p1104
S'[[con]]'
p1105
tp1106
F0.007385524372230428
s(g269
S'training'
p1107
tp1108
F0.004431314623338257
s(S'later'
p1109
g28
tp1110
F0.0007385524372230429
s(S'defeated'
p1111
S'with'
p1112
tp1113
F0.0014771048744460858
s(S'left'
p1114
S'that'
p1115
tp1116
F0.0007385524372230429
s(S'world'
p1117
S'champion'
p1118
tp1119
F0.0029542097488921715
s(S'have'
p1120
S'met'
p1121
tp1122
F0.0022156573116691287
s(S'when'
p1123
S'met'
p1124
tp1125
F0.0007385524372230429
s(S'won'
p1126
S'[[con]]'
p1127
tp1128
F0.0014771048744460858
s(S'held'
p1129
S'for'
p1130
tp1131
F0.0007385524372230429
s(S'worked'
p1132
S'mostly'
p1133
tp1134
F0.0007385524372230429
s(S'set'
p1135
S'off'
p1136
tp1137
F0.0007385524372230429
s(S'where'
p1138
S'won'
p1139
tp1140
F0.0007385524372230429
s(S'won'
p1141
S'of'
p1142
tp1143
F0.0007385524372230429
s(S'met'
p1144
S'[[prp]]'
p1145
tp1146
F0.0014771048744460858
s(S'lost'
p1147
S'as'
p1148
tp1149
F0.0007385524372230429
s(S'trained'
p1150
S'under'
p1151
tp1152
F0.003692762186115214
s(S'later'
p1153
S'left'
p1154
tp1155
F0.0007385524372230429
s(S'which'
p1156
S'met'
p1157
tp1158
F0.0007385524372230429
s(S'met'
p1159
S'after'
p1160
tp1161
F0.0007385524372230429
s(g1105
S'win'
p1162
tp1163
F0.0022156573116691287
s(S'turned'
p1164
S'into'
p1165
tp1166
F0.0007385524372230429
s(S'is'
p1167
S'trained'
p1168
tp1169
F0.0007385524372230429
s(S'[[pro]]'
p1170
S'led'
p1171
tp1172
F0.0007385524372230429
s(S'was'
p1173
S'left'
p1174
tp1175
F0.0051698670605613
s(S'[[det]]'
p1176
g691
tp1177
F0.0014771048744460858
s(S'met'
p1178
S'[[det]]'
p1179
tp1180
F0.0051698670605613
s(g98
S'[[adj]]'
p1181
tp1182
F0.0029542097488921715
s(g47
g340
tp1183
F0.0007385524372230429
s(S'son'
p1184
S'is'
p1185
tp1186
F0.0007385524372230429
s(S'defeated'
p1187
S'when'
p1188
tp1189
F0.0007385524372230429
s(S'led'
p1190
S'[[det]]'
p1191
tp1192
F0.0014771048744460858
s(S'had'
p1193
S'held'
p1194
tp1195
F0.0014771048744460858
s(S'has'
p1196
g396
tp1197
F0.0007385524372230429
s(S'[[det]]'
p1198
S'world'
p1199
tp1200
F0.0014771048744460858
s(S'son'
p1201
S'[[con]]'
p1202
tp1203
F0.0066469719350073855
s(S'left'
p1204
g97
tp1205
F0.0007385524372230429
s(S'lost'
p1206
S'after'
p1207
tp1208
F0.0007385524372230429
s(S'left'
p1209
S'[[adj]]'
p1210
tp1211
F0.0014771048744460858
s(S'held'
p1212
S'[[num]]'
p1213
tp1214
F0.0007385524372230429
s(S'met'
p1215
S'[[pro]]'
p1216
tp1217
F0.0007385524372230429
s(S'[[adj]]'
p1218
S'ahead'
p1219
tp1220
F0.0014771048744460858
s(S'won'
p1221
S'when'
p1222
tp1223
F0.0007385524372230429
s(S'again'
p1224
g974
tp1225
F0.0014771048744460858
s(S'lead'
p1226
g821
tp1227
F0.0007385524372230429
s(S'won'
p1228
S'that'
p1229
tp1230
F0.0007385524372230429
s(g471
g784
tp1231
F0.0007385524372230429
s(S'had'
p1232
S'met'
p1233
tp1234
F0.0051698670605613
s(S'is'
p1235
S'left'
p1236
tp1237
F0.0007385524372230429
s(S'[[con]]'
p1238
S'taught'
p1239
tp1240
F0.0007385524372230429
s(S'if'
p1241
S'lost'
p1242
tp1243
F0.0007385524372230429
s(S'win'
p1244
S'against'
p1245
tp1246
F0.0007385524372230429
s(S'turned'
p1247
S'against'
p1248
tp1249
F0.0007385524372230429
s(g97
S'worked'
p1250
tp1251
F0.0014771048744460858
s(S'[[prp]]'
p1252
g683
tp1253
F0.007385524372230428
s(S'took'
p1254
g175
tp1255
F0.0022156573116691287
s(S'of'
p1256
g196
tp1257
F0.0007385524372230429
s(S'[[num]]'
p1258
S'son'
p1259
tp1260
F0.004431314623338257
s(S'started'
p1261
S'[[prp]]'
p1262
tp1263
F0.0007385524372230429
s(S'received'
p1264
g429
tp1265
F0.0007385524372230429
s(S'led'
p1266
S'[[adj]]'
p1267
tp1268
F0.0007385524372230429
s(S'[[num]]'
p1269
S'hit'
p1270
tp1271
F0.0007385524372230429
s(S'[[det]]'
p1272
g461
tp1273
F0.0022156573116691287
s(g97
S'face'
p1274
tp1275
F0.0007385524372230429
s(S'held'
p1276
S'by'
p1277
tp1278
F0.004431314623338257
s(S'lost'
p1279
S'[[adj]]'
p1280
tp1281
F0.0007385524372230429
s(g851
g1135
tp1282
F0.0007385524372230429
s(S'world'
p1283
g598
tp1284
F0.0014771048744460858
s(S'left'
p1285
S'[[pro]]'
p1286
tp1287
F0.0007385524372230429
s(S'train'
p1288
S'[[det]]'
p1289
tp1290
F0.0007385524372230429
s(S'also'
p1291
S'defeated'
p1292
tp1293
F0.0014771048744460858
s(S'lost'
p1294
S'much'
p1295
tp1296
F0.0007385524372230429
s(g507
S'county'
p1297
tp1298
F0.0007385524372230429
s(S'cars'
p1299
g46
tp1300
F0.0007385524372230429
s(g1259
S'who'
p1301
tp1302
F0.004431314623338257
s(S'has'
p1303
S'met'
p1304
tp1305
F0.0022156573116691287
s(S'[[adj]]'
p1306
S'left'
p1307
tp1308
F0.0007385524372230429
s(S'after'
p1309
S'won'
p1310
tp1311
F0.0007385524372230429
s(g65
S'with'
p1312
tp1313
F0.0066469719350073855
s(S'turned'
p1314
S'in'
p1315
tp1316
F0.0007385524372230429
s(S'trained'
p1317
S'[[adj]]'
p1318
tp1319
F0.0014771048744460858
s(S'[[con]]'
p1320
S'hit'
p1321
tp1322
F0.0007385524372230429
s(S'lead'
p1323
S'from'
p1324
tp1325
F0.0007385524372230429
s(S'met'
p1326
S'[[num]]'
p1327
tp1328
F0.0007385524372230429
s(g1082
g867
tp1329
F0.00812407680945347
s(S'as'
p1330
S'son'
p1331
tp1332
F0.0007385524372230429
s(S'hit'
p1333
S'off'
p1334
tp1335
F0.0007385524372230429
s(S'worked'
p1336
S'[[det]]'
p1337
tp1338
F0.0007385524372230429
s(S'[[con]]'
p1339
S'defeated'
p1340
tp1341
F0.0066469719350073855
s(g1168
S'by'
p1342
tp1343
F0.003692762186115214
s(S'won'
p1344
S'over'
p1345
tp1346
F0.003692762186115214
s(S'[[pro]]'
p1347
S'met'
p1348
tp1349
F0.0007385524372230429
s(S'worked'
p1350
g470
tp1351
F0.008862629246676515
s(S'got'
p1352
g274
tp1353
F0.0014771048744460858
s(S'[[pro]]'
p1354
S'taught'
p1355
tp1356
F0.0007385524372230429
s(S'who'
p1357
S'met'
p1358
tp1359
F0.0007385524372230429
s(S'[[adj]]'
p1360
S'won'
p1361
tp1362
F0.0007385524372230429
s(g97
S'hit'
p1363
tp1364
F0.0007385524372230429
s(g1067
g662
tp1365
F0.0007385524372230429
s(S'caught'
p1366
g1176
tp1367
F0.0014771048744460858
s(S'son'
p1368
S'with'
p1369
tp1370
F0.003692762186115214
s(S'trained'
p1371
S'for'
p1372
tp1373
F0.0007385524372230429
s(S'teaming'
p1374
S'up'
p1375
tp1376
F0.0007385524372230429
s(S'began'
p1377
S'training'
p1378
tp1379
F0.0022156573116691287
s(S'[[det]]'
p1380
S'left'
p1381
tp1382
F0.0007385524372230429
s(S'lost'
p1383
S'by'
p1384
tp1385
F0.0007385524372230429
s(S'worked'
p1386
S'[[num]]'
p1387
tp1388
F0.0007385524372230429
s(S'be'
p1389
S'led'
p1390
tp1391
F0.0007385524372230429
s(g459
S'with'
p1392
tp1393
F0.013293943870014771
s(g631
S'on'
p1394
tp1395
F0.0022156573116691287
s(S'away'
p1396
S'followed'
p1397
tp1398
F0.0007385524372230429
s(S'hit'
p1399
S'while'
p1400
tp1401
F0.0007385524372230429
s(S'met'
p1402
S'again'
p1403
tp1404
F0.0007385524372230429
s(S'had'
p1405
S'won'
p1406
tp1407
F0.0014771048744460858
s(S'son'
p1408
S'[[num]]'
p1409
tp1410
F0.003692762186115214
s(S'[[det]]'
p1411
S'face'
p1412
tp1413
F0.0022156573116691287
s(S'is'
p1414
S'defeated'
p1415
tp1416
F0.0022156573116691287
s(S'ahead'
p1417
S'[[con]]'
p1418
tp1419
F0.0007385524372230429
s(S'later'
p1420
S'defeated'
p1421
tp1422
F0.0007385524372230429
s(S'prevented'
p1423
g577
tp1424
F0.0007385524372230429
s(S'while'
p1425
S'left'
p1426
tp1427
F0.0007385524372230429
s(S'worked'
p1428
S'while'
p1429
tp1430
F0.0007385524372230429
s(S'began'
p1431
g405
tp1432
F0.0007385524372230429
s(S'held'
p1433
S'off'
p1434
tp1435
F0.0007385524372230429
s(S'was'
p1436
g1276
tp1437
F0.0014771048744460858
s(S'worked'
p1438
S'again'
p1439
tp1440
F0.0014771048744460858
s(S'ahead'
p1441
S'[[det]]'
p1442
tp1443
F0.0007385524372230429
s(g442
g379
tp1444
F0.0007385524372230429
s(g676
S'where'
p1445
tp1446
F0.0007385524372230429
s(S'is'
p1447
g1201
tp1448
F0.0029542097488921715
s(S'train'
p1449
S'with'
p1450
tp1451
F0.0007385524372230429
s(S'defeated'
p1452
S'win'
p1453
tp1454
F0.0014771048744460858
s(S'lost'
p1455
S'[[prp]]'
p1456
tp1457
F0.0014771048744460858
s(S'to'
p1458
g787
tp1459
F0.0029542097488921715
s(S'worked'
p1460
S'there'
p1461
tp1462
F0.0007385524372230429
s(S'worked'
p1463
S'among'
p1464
tp1465
F0.0022156573116691287
s(S'that'
p1466
S'hit'
p1467
tp1468
F0.0007385524372230429
s(S'win'
p1469
S'[[con]]'
p1470
tp1471
F0.0007385524372230429
s(S'were'
p1472
S'defeated'
p1473
tp1474
F0.0007385524372230429
s(S'[[num]]'
p1475
S'ahead'
p1476
tp1477
F0.0007385524372230429
s(S'lead'
p1478
S'in'
p1479
tp1480
F0.0007385524372230429
s(S'also'
p1481
g963
tp1482
F0.0014771048744460858
s(S'met'
p1483
S'while'
p1484
tp1485
F0.0022156573116691287
s(S'was'
p1486
S'met'
p1487
tp1488
F0.0014771048744460858
s(g840
S'for'
p1489
tp1490
F0.0007385524372230429
s(S'being'
p1491
S'defeated'
p1492
tp1493
F0.0007385524372230429
s(S'off'
p1494
g399
tp1495
F0.0007385524372230429
s(S'hit'
p1496
S'to'
p1497
tp1498
F0.0007385524372230429
s(S'defeated'
p1499
S'while'
p1500
tp1501
F0.0014771048744460858
s(g745
g994
tp1502
F0.0007385524372230429
s(S'win'
p1503
S'by'
p1504
tp1505
F0.0014771048744460858
s(g1233
S'through'
p1506
tp1507
F0.0014771048744460858
s(S'which'
p1508
S'left'
p1509
tp1510
F0.0007385524372230429
s(S'whom'
p1511
S'met'
p1512
tp1513
F0.0007385524372230429
s(S'was'
p1514
S'won'
p1515
tp1516
F0.0007385524372230429
s(S'taught'
p1517
S'before'
p1518
tp1519
F0.0007385524372230429
s(S'after'
p1520
S'met'
p1521
tp1522
F0.0007385524372230429
s(S'held'
p1523
S'with'
p1524
tp1525
F0.0007385524372230429
s(S'win'
p1526
S'with'
p1527
tp1528
F0.0007385524372230429
s(S'first'
p1529
S'met'
p1530
tp1531
F0.004431314623338257
s(S'received'
p1532
S'[[prp]]'
p1533
tp1534
F0.0007385524372230429
s(S'lost'
p1535
S'[[pro]]'
p1536
tp1537
F0.0007385524372230429
s(S'worked'
p1538
S'later'
p1539
tp1540
F0.0014771048744460858
s(S'left'
p1541
S'in'
p1542
tp1543
F0.0014771048744460858
s(S'taught'
p1544
S'[[pro]]'
p1545
tp1546
F0.0007385524372230429
s(S'[[det]]'
p1547
S'worked'
p1548
tp1549
F0.0007385524372230429
s(g468
g1226
tp1550
F0.0051698670605613
s(g465
g1299
tp1551
F0.0007385524372230429
s(S'won'
p1552
S'twice'
p1553
tp1554
F0.0007385524372230429
s(S'teaming'
p1555
S'with'
p1556
tp1557
F0.0007385524372230429
s(S'held'
p1558
S'until'
p1559
tp1560
F0.0007385524372230429
s(S'turned'
p1561
S'down'
p1562
tp1563
F0.0007385524372230429
s(S'who'
p1564
S'lost'
p1565
tp1566
F0.0007385524372230429
s(S'to'
p1567
g1449
tp1568
F0.003692762186115214
s(S'is'
p1569
S'held'
p1570
tp1571
F0.0007385524372230429
s(S'met'
p1572
S'who'
p1573
tp1574
F0.0007385524372230429
s(S'while'
p1575
S'led'
p1576
tp1577
F0.0007385524372230429
s(S'while'
p1578
S'worked'
p1579
tp1580
F0.0007385524372230429
s(S'then'
p1581
g235
tp1582
F0.00812407680945347
s(S'led'
p1583
S'[[con]]'
p1584
tp1585
F0.0014771048744460858
s(S'held'
p1586
S'[[con]]'
p1587
tp1588
F0.0007385524372230429
s(S'[[mod]]'
p1589
g319
tp1590
F0.0014771048744460858
s(S'was'
p1591
g337
tp1592
F0.0007385524372230429
s(S'later'
p1593
S'turned'
p1594
tp1595
F0.0007385524372230429
s(S'was'
p1596
S'lost'
p1597
tp1598
F0.0007385524372230429
s(g439
g1063
tp1599
F0.0007385524372230429
s(S'has'
p1600
S'defeated'
p1601
tp1602
F0.0007385524372230429
s(S'[[con]]'
p1603
S'trained'
p1604
tp1605
F0.0007385524372230429
s(S'worked'
p1606
S'then'
p1607
tp1608
F0.0007385524372230429
s(S'as'
p1609
S'worked'
p1610
tp1611
F0.0007385524372230429
s(S'who'
p1612
S'worked'
p1613
tp1614
F0.0022156573116691287
s(S'also'
p1615
S'worked'
p1616
tp1617
F0.008862629246676515
s(S'turned'
p1618
S'away'
p1619
tp1620
F0.0007385524372230429
s(S'[[pro]]'
p1621
S'defeated'
p1622
tp1623
F0.0014771048744460858
s(S'who'
p1624
S'taught'
p1625
tp1626
F0.0007385524372230429
s(S'led'
p1627
S'after'
p1628
tp1629
F0.0007385524372230429
s(S'left'
p1630
S'on'
p1631
tp1632
F0.0007385524372230429
s(S'won'
p1633
S'more'
p1634
tp1635
F0.0014771048744460858
s(S'[[num]]'
p1636
S'met'
p1637
tp1638
F0.0007385524372230429
s(g785
g925
tp1639
F0.0007385524372230429
s(g50
S'ahead'
p1640
tp1641
F0.0007385524372230429
s(S'on'
p1642
S'hit'
p1643
tp1644
F0.0007385524372230429
s(g368
g441
tp1645
F0.0007385524372230429
s(S'that'
p1646
S'met'
p1647
tp1648
F0.0007385524372230429
s(S'[[pro]]'
p1649
g19
tp1650
F0.0022156573116691287
s(S'to'
p1651
S'son'
p1652
tp1653
F0.0007385524372230429
s(S'[[num]]'
p1654
S'won'
p1655
tp1656
F0.0007385524372230429
s(g1174
S'with'
p1657
tp1658
F0.0022156573116691287
s(g1064
g367
tp1659
F0.0007385524372230429
s(g371
S'for'
p1660
tp1661
F0.0007385524372230429
s(S'of'
p1662
S'son'
p1663
tp1664
F0.0014771048744460858
s(g143
g148
tp1665
F0.0007385524372230429
s(S'has'
p1666
g798
tp1667
F0.0007385524372230429
s(S'was'
p1668
S'son'
p1669
tp1670
F0.003692762186115214
s(g1363
S'with'
p1671
tp1672
F0.0029542097488921715
s(g149
S'by'
p1673
tp1674
F0.0014771048744460858
s(S'defeated'
p1675
S'[[det]]'
p1676
tp1677
F0.0007385524372230429
s(S'[[num]]'
p1678
S'defeating'
p1679
tp1680
F0.0007385524372230429
s(S'[[con]]'
p1681
S'left'
p1682
tp1683
F0.0022156573116691287
s(S'had'
p1684
g79
tp1685
F0.0022156573116691287
s(g1297
g157
tp1686
F0.0007385524372230429
s(S'held'
p1687
S'[[pro]]'
p1688
tp1689
F0.0007385524372230429
s(S'lost'
p1690
S'most'
p1691
tp1692
F0.0007385524372230429
s(g44
S'took'
p1693
tp1694
F0.0007385524372230429
s(S'trained'
p1695
S'[[con]]'
p1696
tp1697
F0.0022156573116691287
s(S'is'
p1698
g10
tp1699
F0.0007385524372230429
s(S'be'
p1700
S'held'
p1701
tp1702
F0.0014771048744460858
s(S'feud'
p1703
S'between'
p1704
tp1705
F0.0007385524372230429
s(S'held'
p1706
S'out'
p1707
tp1708
F0.0014771048744460858
s(S'when'
p1709
S'led'
p1710
tp1711
F0.0007385524372230429
s(S'[[con]]'
p1712
g22
tp1713
F0.0007385524372230429
s(S'teaming'
p1714
S'to'
p1715
tp1716
F0.0007385524372230429
s(S'whom'
p1717
S'worked'
p1718
tp1719
F0.0007385524372230429
s(S'went'
p1720
S'ahead'
p1721
tp1722
F0.0007385524372230429
s(S'lost'
p1723
S'against'
p1724
tp1725
F0.0007385524372230429
s(S'won'
p1726
S'while'
p1727
tp1728
F0.0007385524372230429
s(S'never'
p1729
S'met'
p1730
tp1731
F0.0007385524372230429
s(S'train'
p1732
S'for'
p1733
tp1734
F0.0007385524372230429
s(g1616
S'[[adj]]'
p1735
tp1736
F0.0022156573116691287
s(S'win'
p1737
S'since'
p1738
tp1739
F0.0007385524372230429
s(S'worked'
p1740
S'from'
p1741
tp1742
F0.0022156573116691287
s(g663
g346
tp1743
F0.0007385524372230429
s.