(dp0
(S'received'
p1
S'[[pro]]'
p2
tp3
F0.0017660044150110375
s(S'continued'
p4
S'[[prp]]'
p5
tp6
F0.003532008830022075
s(S'grew'
p7
S'up'
p8
tp9
F0.0004415011037527594
s(S'had'
p10
S'taught'
p11
tp12
F0.0008830022075055188
s(S'later'
p13
S'enrolled'
p14
tp15
F0.0013245033112582781
s(S'later'
p16
S'entered'
p17
tp18
F0.0008830022075055188
s(S'had'
p19
S'studied'
p20
tp21
F0.002207505518763797
s(S'continued'
p22
S'[[adj]]'
p23
tp24
F0.0004415011037527594
s(S'where'
p25
S'entered'
p26
tp27
F0.0004415011037527594
s(S'earned'
p28
S'at'
p29
tp30
F0.0017660044150110375
s(S'met'
p31
S'at'
p32
tp33
F0.0004415011037527594
s(S'is'
p34
S'transferred'
p35
tp36
F0.0004415011037527594
s(S'graduate'
p37
S'[[det]]'
p38
tp39
F0.0008830022075055188
s(S'with'
p40
S'took'
p41
tp42
F0.0004415011037527594
s(S'graduated'
p43
S'[[adj]]'
p44
tp45
F0.0004415011037527594
s(S'later'
p46
S'completed'
p47
tp48
F0.0008830022075055188
s(S'returned'
p49
S'before'
p50
tp51
F0.0004415011037527594
s(S'going'
p52
S'to'
p53
tp54
F0.0004415011037527594
s(S'was'
p55
S'transferred'
p56
tp57
F0.003532008830022075
s(S'transferred'
p58
S'by'
p59
tp60
F0.0004415011037527594
s(S'science'
p61
S'from'
p62
tp63
F0.0008830022075055188
s(S'when'
p64
S'transferred'
p65
tp66
F0.0004415011037527594
s(S'recently'
p67
S'retired'
p68
tp69
F0.0004415011037527594
s(S'[[num]]'
p70
S'attended'
p71
tp72
F0.0004415011037527594
s(S'earned'
p73
S'as'
p74
tp75
F0.0004415011037527594
s(S'professor'
p76
S'emeritus'
p77
tp78
F0.0004415011037527594
s(S'master'
p79
S's'
p80
tp81
F0.024282560706401765
s(S'met'
p82
S'while'
p83
tp84
F0.0004415011037527594
s(S'year'
p85
S'before'
p86
tp87
F0.0004415011037527594
s(S'went'
p88
S'solo'
p89
tp90
F0.0004415011037527594
s(S'received'
p91
S'to'
p92
tp93
F0.0008830022075055188
s(S'pupil'
p94
S'of'
p95
tp96
F0.0013245033112582781
s(S'entered'
p97
S'into'
p98
tp99
F0.0004415011037527594
s(S'is'
p100
S'returned'
p101
tp102
F0.0004415011037527594
s(S'completed'
p103
S'from'
p104
tp105
F0.0026490066225165563
s(S'enrolled'
p106
S'[[det]]'
p107
tp108
F0.0004415011037527594
s(S'studied'
p109
S'briefly'
p110
tp111
F0.0013245033112582781
s(S'[[pro]]'
p112
S'took'
p113
tp114
F0.0004415011037527594
s(S'attended'
p115
S'[[det]]'
p116
tp117
F0.0075055187637969095
s(S'have'
p118
S'studied'
p119
tp120
F0.0017660044150110375
s(S'taught'
p121
S'[[con]]'
p122
tp123
F0.002207505518763797
s(S'degrees'
p124
S'from'
p125
tp126
F0.0026490066225165563
s(S'later'
p127
S'returned'
p128
tp129
F0.0008830022075055188
s(S'studies'
p130
S'[[con]]'
p131
tp132
F0.0004415011037527594
s(S'attended'
p133
g80
tp134
F0.0004415011037527594
s(S'before'
p135
S'took'
p136
tp137
F0.0004415011037527594
s(S'bachelor'
p138
g80
tp139
F0.033112582781456956
s(S'was'
p140
S'entered'
p141
tp142
F0.0004415011037527594
s(S'[[con]]'
p143
S'graduated'
p144
tp145
F0.0008830022075055188
s(S'received'
p146
S'at'
p147
tp148
F0.0026490066225165563
s(S'graduated'
p149
S'as'
p150
tp151
F0.0004415011037527594
s(S'graduated'
p152
S'[[det]]'
p153
tp154
F0.0004415011037527594
s(g80
S'[[prp]]'
p155
tp156
F0.0008830022075055188
s(S'attended'
p157
S'then'
p158
tp159
F0.0004415011037527594
s(S'where'
p160
S'attended'
p161
tp162
F0.0030905077262693157
s(S'transferred'
p163
S'at'
p164
tp165
F0.0004415011037527594
s(S'[[con]]'
p166
S'received'
p167
tp168
F0.017660044150110375
s(S'then'
p169
S'studied'
p170
tp171
F0.0030905077262693157
s(S'took'
p172
S'off'
p173
tp174
F0.0004415011037527594
s(S'was'
p175
S'returned'
p176
tp177
F0.0013245033112582781
s(S'entered'
p178
S'[[adj]]'
p179
tp180
F0.0004415011037527594
s(S'enrolled'
p181
S'[[con]]'
p182
tp183
F0.0004415011037527594
s(S'also'
p184
S'graduated'
p185
tp186
F0.0008830022075055188
s(S'[[det]]'
p187
S'law'
p188
tp189
F0.006622516556291391
s(S'[[num]]'
p190
S'graduated'
p191
tp192
F0.0004415011037527594
s(S'[[con]]'
p193
S'transferred'
p194
tp195
F0.0004415011037527594
s(S'[[adj]]'
p196
S'studies'
p197
tp198
F0.0013245033112582781
s(S'[[det]]'
p199
S'[[prp]]'
p200
tp201
F0.0004415011037527594
s(S'transferred'
p202
S'[[pro]]'
p203
tp204
F0.0004415011037527594
s(S'[[num]]'
p205
S'studied'
p206
tp207
F0.0008830022075055188
s(S'in'
p208
S'[[con]]'
p209
tp210
F0.0004415011037527594
s(g5
g196
tp211
F0.0030905077262693157
s(S'also'
p212
S'enrolled'
p213
tp214
F0.0008830022075055188
s(S'returned'
p215
S'where'
p216
tp217
F0.0008830022075055188
s(S'was'
p218
S'taught'
p219
tp220
F0.0004415011037527594
s(S'taught'
p221
S'at'
p222
tp223
F0.005298013245033113
s(S'returned'
p224
S'[[num]]'
p225
tp226
F0.0004415011037527594
s(S'[[con]]'
p227
S'studied'
p228
tp229
F0.002207505518763797
s(g170
S'[[det]]'
p230
tp231
F0.0017660044150110375
s(S'never'
p232
S'received'
p233
tp234
F0.0004415011037527594
s(S'where'
p235
S'received'
p236
tp237
F0.0008830022075055188
s(S'took'
p238
S'out'
p239
tp240
F0.0004415011037527594
s(g56
S'back'
p241
tp242
F0.0008830022075055188
s(S'first'
p243
S'taught'
p244
tp245
F0.0008830022075055188
s(S'[[det]]'
p246
S'studies'
p247
tp248
F0.0004415011037527594
s(S'graduate'
p249
S'of'
p250
tp251
F0.0017660044150110375
s(S'returned'
p252
S'was'
p253
tp254
F0.0004415011037527594
s(S'later'
p255
S'taught'
p256
tp257
F0.0013245033112582781
s(S'completed'
p258
S'for'
p259
tp260
F0.0004415011037527594
s(S'[[prp]]'
p261
S'pupil'
p262
tp263
F0.0004415011037527594
s(S'later'
p264
S'earned'
p265
tp266
F0.0017660044150110375
s(S'where'
p267
S'studied'
p268
tp269
F0.0030905077262693157
s(S'attended'
p270
S'before'
p271
tp272
F0.0004415011037527594
s(S'studied'
p273
S'[[con]]'
p274
tp275
F0.0026490066225165563
s(S'[[det]]'
p276
S'graduate'
p277
tp278
F0.003973509933774834
s(S'first'
p279
S'took'
p280
tp281
F0.0004415011037527594
s(S'master'
p282
S'from'
p283
tp284
F0.0004415011037527594
s(S'pupil'
p285
S'[[det]]'
p286
tp287
F0.0004415011037527594
s(S'studied'
p288
S'for'
p289
tp290
F0.0004415011037527594
s(S'after'
p291
S'took'
p292
tp293
F0.0004415011037527594
s(S'in'
p294
S'[[adj]]'
p295
tp296
F0.0017660044150110375
s(S'graduate'
p297
S'in'
p298
tp299
F0.0004415011037527594
s(S'in'
p300
S'where'
p301
tp302
F0.0008830022075055188
s(S'received'
p303
S'as'
p304
tp305
F0.0004415011037527594
s(S'[[adj]]'
p306
g61
tp307
F0.0013245033112582781
s(S'[[prp]]'
p308
S'doctorate'
p309
tp310
F0.0008830022075055188
s(S'[[det]]'
p311
S'entered'
p312
tp313
F0.0004415011037527594
s(S'received'
p314
S'more'
p315
tp316
F0.0004415011037527594
s(S'so'
p317
S'took'
p318
tp319
F0.0004415011037527594
s(S'then'
p320
S'transferred'
p321
tp322
F0.0013245033112582781
s(S'attended'
p323
S'later'
p324
tp325
F0.0004415011037527594
s(S'born'
p326
S'[[con]]'
p327
tp328
F0.006622516556291391
s(S'served'
p329
S'in'
p330
tp331
F0.0004415011037527594
s(g8
S'[[con]]'
p332
tp333
F0.0004415011037527594
s(S'degree'
p334
S'with'
p335
tp336
F0.0004415011037527594
s(S'with'
p337
S'[[det]]'
p338
tp339
F0.0004415011037527594
s(S'had'
p340
S'graduated'
p341
tp342
F0.0004415011037527594
s(S'enrolled'
p343
S'at'
p344
tp345
F0.0030905077262693157
s(S'took'
p346
S'while'
p347
tp348
F0.0004415011037527594
s(S'then'
p349
S'earned'
p350
tp351
F0.003973509933774834
s(S'[[prp]]'
p352
S'studies'
p353
tp354
F0.0026490066225165563
s(S'[[det]]'
p355
S'degree'
p356
tp357
F0.012362030905077263
s(S'just'
p358
S'returned'
p359
tp360
F0.0004415011037527594
s(S'study'
p361
S'art'
p362
tp363
F0.0004415011037527594
s(S'[[prp]]'
p364
S'degree'
p365
tp366
F0.005298013245033113
s(S'degree'
p367
S'[[det]]'
p368
tp369
F0.0026490066225165563
s(S'took'
p370
S'[[det]]'
p371
tp372
F0.0017660044150110375
s(S'received'
p373
S'[[num]]'
p374
tp375
F0.0013245033112582781
s(S'earned'
p376
S'[[pro]]'
p377
tp378
F0.0004415011037527594
s(S'then'
p379
S'graduated'
p380
tp381
F0.0008830022075055188
s(S'degree'
p382
S'[[num]]'
p383
tp384
F0.0004415011037527594
s(S'attended'
p385
S'[[con]]'
p386
tp387
F0.011037527593818985
s(S'while'
p388
S'returned'
p389
tp390
F0.0004415011037527594
s(S'who'
p391
S'received'
p392
tp393
F0.0004415011037527594
s(S'doctorate'
p394
S'from'
p395
tp396
F0.0004415011037527594
s(S'attended'
p397
S'for'
p398
tp399
F0.0004415011037527594
s(S'enrolled'
p400
S'as'
p401
tp402
F0.0008830022075055188
s(S'soon'
p403
S'transferred'
p404
tp405
F0.0008830022075055188
s(S'[[adj]]'
p406
S'received'
p407
tp408
F0.0004415011037527594
s(S'entered'
p409
S'after'
p410
tp411
F0.0004415011037527594
s(S'were'
p412
S'transferred'
p413
tp414
F0.0004415011037527594
s(S'first'
p415
S'studied'
p416
tp417
F0.0026490066225165563
s(S'as'
p418
S'took'
p419
tp420
F0.0004415011037527594
s(S'[[con]]'
p421
S'[[prp]]'
p422
tp423
F0.0004415011037527594
s(S'painting'
p424
S'with'
p425
tp426
F0.0013245033112582781
s(S'[[pro]]'
p427
S'studied'
p428
tp429
F0.0004415011037527594
s(S'who'
p430
S'graduated'
p431
tp432
F0.0008830022075055188
s(S'[[pro]]'
p433
S'graduated'
p434
tp435
F0.0004415011037527594
s(S'attended'
p436
S'from'
p437
tp438
F0.0008830022075055188
s(S'had'
p439
S'attended'
p440
tp441
F0.0013245033112582781
s(S'earned'
p442
S'[[adj]]'
p443
tp444
F0.0004415011037527594
s(S'who'
p445
S'studied'
p446
tp447
F0.0008830022075055188
s(S'graduated'
p448
S'now'
p449
tp450
F0.0008830022075055188
s(S'also'
p451
S'studied'
p452
tp453
F0.004415011037527594
s(S'then'
p454
S'received'
p455
tp456
F0.004856512141280353
s(S'earned'
p457
S'from'
p458
tp459
F0.0030905077262693157
s(S'[[con]]'
p460
S'[[det]]'
p461
tp462
F0.003532008830022075
s(S'[[adj]]'
p463
S'studied'
p464
tp465
F0.0008830022075055188
s(S'received'
p466
S'[[det]]'
p467
tp468
F0.033112582781456956
s(g452
S'at'
p469
tp470
F0.00706401766004415
s(S'graduated'
p471
S'then'
p472
tp473
F0.0004415011037527594
s(S'took'
p474
S'away'
p475
tp476
F0.0004415011037527594
s(g80
g124
tp477
F0.004415011037527594
s(S'completed'
p478
S'[[pro]]'
p479
tp480
F0.0004415011037527594
s(S'[[prp]]'
p481
S'bachelor'
p482
tp483
F0.012803532008830023
s(S'received'
p484
S'from'
p485
tp486
F0.005298013245033113
s(S'studied'
p487
S'under'
p488
tp489
F0.004415011037527594
s(S'degree'
p490
S'[[con]]'
p491
tp492
F0.011479028697571744
s(S'received'
p493
S'[[adj]]'
p494
tp495
F0.0008830022075055188
s(S'studying'
p496
S'for'
p497
tp498
F0.0004415011037527594
s(S'later'
p499
S'transferred'
p500
tp501
F0.0008830022075055188
s(S'[[adj]]'
p502
S'degree'
p503
tp504
F0.006622516556291391
s(g77
S'prior'
p505
tp506
F0.0004415011037527594
s(S'when'
p507
S'entered'
p508
tp509
F0.0008830022075055188
s(S'where'
p510
S'enrolled'
p511
tp512
F0.0008830022075055188
s(g295
S'engineering'
p513
tp514
F0.0008830022075055188
s(S'study'
p515
S'[[con]]'
p516
tp517
F0.0004415011037527594
s(S'earned'
p518
S'[[num]]'
p519
tp520
F0.0004415011037527594
s(S'took'
p521
S'on'
p522
tp523
F0.0017660044150110375
s(S'later'
p524
S'met'
p525
tp526
F0.0004415011037527594
s(S'while'
p527
S'attended'
p528
tp529
F0.0004415011037527594
s(S'[[con]]'
p530
S'also'
p531
tp532
F0.0004415011037527594
s(S'attended'
p533
S'[[num]]'
p534
tp535
F0.0004415011037527594
s(S'earned'
p536
S'[[con]]'
p537
tp538
F0.0004415011037527594
s(S'[[con]]'
p539
S'met'
p540
tp541
F0.0004415011037527594
s(S'studied'
p542
S'first'
p543
tp544
F0.0004415011037527594
s(S'bachelor'
p545
S'from'
p546
tp547
F0.0004415011037527594
s(S'took'
p548
S'for'
p549
tp550
F0.0004415011037527594
s(S'be'
p551
S'returned'
p552
tp553
F0.0004415011037527594
s(S'solo'
p554
S'show'
p555
tp556
F0.0008830022075055188
s(S'graduate'
p557
S'from'
p558
tp559
F0.002207505518763797
s(g309
S'degree'
p560
tp561
F0.0008830022075055188
s(S'began'
p562
S'studying'
p563
tp564
F0.0013245033112582781
s(S'was'
p565
S'graduated'
p566
tp567
F0.002207505518763797
s(S'[[mod]]'
p568
S'study'
p569
tp570
F0.0008830022075055188
s(S'[[det]]'
p571
S'study'
p572
tp573
F0.0004415011037527594
s(S'[[con]]'
p574
S'masters'
p575
tp576
F0.0004415011037527594
s(S'attended'
p577
S'at'
p578
tp579
F0.0030905077262693157
s(S'returned'
p580
S'against'
p581
tp582
F0.0004415011037527594
s(S'studied'
p583
S'then'
p584
tp585
F0.0004415011037527594
s(S'completed'
p586
S'[[con]]'
p587
tp588
F0.0008830022075055188
s(S'[[pro]]'
p589
S'returned'
p590
tp591
F0.0004415011037527594
s(S'has'
p592
S'attended'
p593
tp594
F0.0017660044150110375
s(S'to'
p595
S'graduate'
p596
tp597
F0.0004415011037527594
s(S'[[adj]]'
p598
S'doctorate'
p599
tp600
F0.0004415011037527594
s(S'pupil'
p601
S'[[con]]'
p602
tp603
F0.0004415011037527594
s(S'had'
p604
S'returned'
p605
tp606
F0.0004415011037527594
s(S'transferred'
p607
S'with'
p608
tp609
F0.0004415011037527594
s(S'returned'
p610
S'on'
p611
tp612
F0.0008830022075055188
s(S'undergraduate'
p613
S'degree'
p614
tp615
F0.0030905077262693157
s(S'where'
p616
S'taught'
p617
tp618
F0.0008830022075055188
s(S'then'
p619
S'attended'
p620
tp621
F0.0026490066225165563
s(S'[[con]]'
p622
S'holds'
p623
tp624
F0.002207505518763797
s(S'studied'
p625
S'painting'
p626
tp627
F0.002207505518763797
s(S'been'
p628
S'transferred'
p629
tp630
F0.0004415011037527594
s(S'who'
p631
S'attended'
p632
tp633
F0.0008830022075055188
s(S'returned'
p634
S'[[con]]'
p635
tp636
F0.0013245033112582781
s(S'[[adj]]'
p637
S'pupil'
p638
tp639
F0.0008830022075055188
s(S'studied'
p640
S'[[num]]'
p641
tp642
F0.0004415011037527594
s(S'returned'
p643
S'for'
p644
tp645
F0.0008830022075055188
s(S'[[con]]'
p646
g79
tp647
F0.004415011037527594
s(S'then'
p648
S'returned'
p649
tp650
F0.0030905077262693157
s(S'has'
p651
S'met'
p652
tp653
F0.0004415011037527594
s(S'[[adj]]'
p654
S'returned'
p655
tp656
F0.0004415011037527594
s(S'graduated'
p657
S'[[con]]'
p658
tp659
F0.013245033112582781
s(S'also'
p660
S'entered'
p661
tp662
F0.0004415011037527594
s(S'which'
p663
S'received'
p664
tp665
F0.0004415011037527594
s(S'study'
p666
S'of'
p667
tp668
F0.0004415011037527594
s(S'has'
p669
S'received'
p670
tp671
F0.003973509933774834
s(S'transferred'
p672
S'from'
p673
tp674
F0.0013245033112582781
s(S'[[adj]]'
p675
S'took'
p676
tp677
F0.0004415011037527594
s(S'that'
p678
S'took'
p679
tp680
F0.0004415011037527594
s(S'took'
p681
S'part'
p682
tp683
F0.0004415011037527594
s(S'holds'
p684
S'[[det]]'
p685
tp686
F0.007947019867549669
s(S'degree'
p687
S'from'
p688
tp689
F0.05607064017660044
s(S'[[adj]]'
p690
S'law'
p691
tp692
F0.0004415011037527594
s(S'took'
p693
S'[[con]]'
p694
tp695
F0.0013245033112582781
s(S'[[con]]'
p696
S'completed'
p697
tp698
F0.0008830022075055188
s(S'taught'
p699
S'to'
p700
tp701
F0.0008830022075055188
s(S'study'
p702
S'at'
p703
tp704
F0.0017660044150110375
s(S'born'
p705
S'attended'
p706
tp707
F0.0013245033112582781
s(S'[[det]]'
p708
S'solo'
p709
tp710
F0.0008830022075055188
s(S'first'
p711
S'attended'
p712
tp713
F0.0008830022075055188
s(S'where'
p714
S'graduated'
p715
tp716
F0.0004415011037527594
s(S'have'
p717
g115
tp718
F0.0008830022075055188
s(S'[[pro]]'
p719
S'degree'
p720
tp721
F0.0004415011037527594
s(S'was'
p722
g705
tp723
F0.010596026490066225
s(S'when'
p724
S'took'
p725
tp726
F0.0008830022075055188
s(S'later'
p727
S'attended'
p728
tp729
F0.0030905077262693157
s(S'has'
p730
S'studied'
p731
tp732
F0.0026490066225165563
s(S'[[det]]'
p733
S'earned'
p734
tp735
F0.0004415011037527594
s(S'economics'
p736
S'degree'
p737
tp738
F0.0004415011037527594
s(S'was'
p739
S'enrolled'
p740
tp741
F0.0017660044150110375
s(S'taught'
p742
S'from'
p743
tp744
F0.0004415011037527594
s(S'until'
p745
S'returned'
p746
tp747
F0.0004415011037527594
s(S'took'
p748
S'after'
p749
tp750
F0.0004415011037527594
s(S'studied'
p751
S'there'
p752
tp753
F0.0004415011037527594
s(g563
S'at'
p754
tp755
F0.0004415011037527594
s(S'had'
p756
S'earned'
p757
tp758
F0.0013245033112582781
s(S'which'
p759
S'returned'
p760
tp761
F0.0004415011037527594
s(S'[[pro]]'
p762
S'[[adj]]'
p763
tp764
F0.0008830022075055188
s(g697
S'at'
p765
tp766
F0.0026490066225165563
s(S'[[det]]'
p767
S'associate'
p768
tp769
F0.0008830022075055188
s(g359
S'from'
p770
tp771
F0.0004415011037527594
s(S'being'
p772
S'transferred'
p773
tp774
F0.0004415011037527594
s(S'also'
p775
S'took'
p776
tp777
F0.0017660044150110375
s(S'[[prp]]'
p778
S'master'
p779
tp780
F0.0030905077262693157
s(S'[[con]]'
p781
S'entered'
p782
tp783
F0.0008830022075055188
s(S'art'
p784
S'at'
p785
tp786
F0.0017660044150110375
s(S'taught'
p787
S'in'
p788
tp789
F0.0017660044150110375
s(S'returned'
p790
S'[[det]]'
p791
tp792
F0.0004415011037527594
s(S'took'
p793
S'when'
p794
tp795
F0.0004415011037527594
s(S'also'
p796
S'met'
p797
tp798
F0.0004415011037527594
s(S'in'
p799
S'economics'
p800
tp801
F0.0017660044150110375
s(S'[[det]]'
p802
S'[[con]]'
p803
tp804
F0.0004415011037527594
s(S'then'
p805
S'met'
p806
tp807
F0.0004415011037527594
s(S'[[adj]]'
p808
S'met'
p809
tp810
F0.0004415011037527594
s(S'[[con]]'
p811
S'attended'
p812
tp813
F0.004856512141280353
s(S'has'
p814
S'completed'
p815
tp816
F0.0008830022075055188
s(S'then'
p817
S'taught'
p818
tp819
F0.0017660044150110375
s(S'was'
p820
S'received'
p821
tp822
F0.0004415011037527594
s(g821
S'into'
p823
tp824
F0.0004415011037527594
s(S'transferred'
p825
S'to'
p826
tp827
F0.006622516556291391
s(S'taught'
p828
S'as'
p829
tp830
F0.0013245033112582781
s(S'studied'
p831
S'with'
p832
tp833
F0.004856512141280353
s(S'[[det]]'
p834
S'masters'
p835
tp836
F0.0013245033112582781
s(S'[[pro]]'
p837
S'met'
p838
tp839
F0.0004415011037527594
s(S'later'
p840
S'graduated'
p841
tp842
F0.0008830022075055188
s(g803
S'degree'
p843
tp844
F0.0013245033112582781
s(S'attended'
p845
S'to'
p846
tp847
F0.0004415011037527594
s(S'returned'
p848
S'[[pro]]'
p849
tp850
F0.0004415011037527594
s(S'also'
p851
S'received'
p852
tp853
F0.005739514348785872
s(S'transferred'
p854
S'where'
p855
tp856
F0.0004415011037527594
s(S'where'
p857
g681
tp858
F0.0008830022075055188
s(S'graduated'
p859
S'[[num]]'
p860
tp861
F0.0004415011037527594
s(S'later'
p862
S'took'
p863
tp864
F0.0008830022075055188
s(S'also'
p865
S'taught'
p866
tp867
F0.003532008830022075
s(S'before'
p868
S'returned'
p869
tp870
F0.0004415011037527594
s(g575
S'from'
p871
tp872
F0.0004415011037527594
s(S'then'
p873
S'entered'
p874
tp875
F0.0008830022075055188
s(S'[[num]]'
p876
S'received'
p877
tp878
F0.0004415011037527594
s(S'[[con]]'
p879
g876
tp880
F0.0004415011037527594
s(S'studied'
p881
S'from'
p882
tp883
F0.0008830022075055188
s(S'have'
p884
S'met'
p885
tp886
F0.0004415011037527594
s(S'continued'
p887
g246
tp888
F0.0004415011037527594
s(S'first'
p889
S'entered'
p890
tp891
F0.0008830022075055188
s(S'studied'
p892
S'[[adj]]'
p893
tp894
F0.0017660044150110375
s(S'again'
p895
S'returned'
p896
tp897
F0.0008830022075055188
s(S'[[det]]'
p898
S'master'
p899
tp900
F0.017218543046357615
s(S'[[pro]]'
p901
S'attended'
p902
tp903
F0.0004415011037527594
s(S'returned'
p904
S'at'
p905
tp906
F0.0013245033112582781
s(S'has'
p907
S'returned'
p908
tp909
F0.0004415011037527594
s(S'graduate'
p910
S'[[con]]'
p911
tp912
F0.0026490066225165563
s(S'then'
p913
S'enrolled'
p914
tp915
F0.0008830022075055188
s(g110
S'at'
p916
tp917
F0.0013245033112582781
s(g768
g80
tp918
F0.0008830022075055188
s(g341
S'from'
p919
tp920
F0.005298013245033113
s(S'later'
p921
S'received'
p922
tp923
F0.005298013245033113
s(S'took'
p924
S'as'
p925
tp926
F0.0004415011037527594
s(S'then'
p927
g4
tp928
F0.0008830022075055188
s(S'[[det]]'
p929
S'[[adj]]'
p930
tp931
F0.004415011037527594
s(S'[[num]]'
p932
S'transferred'
p933
tp934
F0.0004415011037527594
s(S'attended'
p935
S'now'
p936
tp937
F0.002207505518763797
s(S'met'
p938
S'to'
p939
tp940
F0.0008830022075055188
s(S'also'
p941
S'earned'
p942
tp943
F0.003532008830022075
s(g914
S'in'
p944
tp945
F0.0030905077262693157
s(S'[[adj]]'
p946
S'art'
p947
tp948
F0.0008830022075055188
s(S'transferred'
p949
S'[[det]]'
p950
tp951
F0.0004415011037527594
s(S'[[con]]'
p952
S'returned'
p953
tp954
F0.0017660044150110375
s(S'returned'
p955
S'to'
p956
tp957
F0.008830022075055188
s(S'met'
p958
S'[[pro]]'
p959
tp960
F0.0004415011037527594
s(S'art'
p961
S'[[con]]'
p962
tp963
F0.0004415011037527594
s(S'[[con]]'
p964
S'took'
p965
tp966
F0.003532008830022075
s(S'[[con]]'
p967
S'earned'
p968
tp969
F0.009271523178807948
s(S'degree'
p970
S'as'
p971
tp972
F0.0004415011037527594
s(S'later'
p973
S'studied'
p974
tp975
F0.002207505518763797
s(S'earned'
p976
S'degree'
p977
tp978
F0.0008830022075055188
s(S'had'
p979
g82
tp980
F0.0013245033112582781
s(S'received'
p981
S'of'
p982
tp983
F0.0004415011037527594
s(S'completed'
p984
S'[[adj]]'
p985
tp986
F0.0004415011037527594
s(S'[[con]]'
p987
g787
tp988
F0.0008830022075055188
s(S'received'
p989
S'in'
p990
tp991
F0.003532008830022075
s(S'attended'
p992
S'[[adj]]'
p993
tp994
F0.0004415011037527594
s(S'be'
p995
g825
tp996
F0.0004415011037527594
s(S'returned'
p997
S'again'
p998
tp999
F0.0004415011037527594
s(S'transferred'
p1000
S'into'
p1001
tp1002
F0.0004415011037527594
s(S'born'
p1003
S'where'
p1004
tp1005
F0.0013245033112582781
s(S'then'
p1006
S'took'
p1007
tp1008
F0.0017660044150110375
s(S'entered'
p1009
S'[[det]]'
p1010
tp1011
F0.003532008830022075
s(S'degree'
p1012
S'at'
p1013
tp1014
F0.010154525386313467
s(S'returned'
p1015
S'with'
p1016
tp1017
F0.0008830022075055188
s(g649
S'in'
p1018
tp1019
F0.0017660044150110375
s(g818
S'[[num]]'
p1020
tp1021
F0.0008830022075055188
s(S'took'
p1022
S'[[adj]]'
p1023
tp1024
F0.0004415011037527594
s(S'returned'
p1025
S'once'
p1026
tp1027
F0.0004415011037527594
s(S'taught'
p1028
S'for'
p1029
tp1030
F0.0013245033112582781
s(S'took'
p1031
S'from'
p1032
tp1033
F0.0004415011037527594
s(g513
S'from'
p1034
tp1035
F0.0008830022075055188
s(S'studied'
p1036
S'in'
p1037
tp1038
F0.0004415011037527594
s(S'also'
p1039
S'attended'
p1040
tp1041
F0.0030905077262693157
s(g566
S'in'
p1042
tp1043
F0.0004415011037527594
s(S'study'
p1044
S'[[adj]]'
p1045
tp1046
F0.0008830022075055188
s(S'[[adj]]'
p1047
g577
tp1048
F0.0013245033112582781
s(S'has'
p1049
S'taught'
p1050
tp1051
F0.003532008830022075
s(S'completed'
p1052
S'[[prp]]'
p1053
tp1054
F0.0013245033112582781
s(S'transferred'
p1055
S'[[con]]'
p1056
tp1057
F0.0008830022075055188
s(S'since'
p1058
S'returned'
p1059
tp1060
F0.0004415011037527594
s(S'studied'
p1061
S'where'
p1062
tp1063
F0.0004415011037527594
s(g188
S'degree'
p1064
tp1065
F0.011920529801324504
s(S'transferred'
p1066
S'for'
p1067
tp1068
F0.0004415011037527594
s(S'[[adj]]'
p1069
g702
tp1070
F0.0004415011037527594
s(S'[[prp]]'
p1071
S'law'
p1072
tp1073
F0.004856512141280353
s(g800
S'from'
p1074
tp1075
F0.0017660044150110375
s(S'studied'
p1076
S'as'
p1077
tp1078
F0.0008830022075055188
s(S'when'
p1079
S'attended'
p1080
tp1081
F0.0004415011037527594
s(S'studied'
p1082
g784
tp1083
F0.0008830022075055188
s(S'graduated'
p1084
S'to'
p1085
tp1086
F0.0004415011037527594
s(S'earned'
p1087
S'bachelor'
p1088
tp1089
F0.0008830022075055188
s(S'born'
p1090
g208
tp1091
F0.0017660044150110375
s(S'received'
p1092
S'by'
p1093
tp1094
F0.0004415011037527594
s(S'transferred'
p1095
S'after'
p1096
tp1097
F0.0004415011037527594
s(g80
g646
tp1098
F0.003973509933774834
s(S'graduated'
p1099
g337
tp1100
F0.0004415011037527594
s(S'degrees'
p1101
S'at'
p1102
tp1103
F0.0008830022075055188
s(S'[[con]]'
p1104
S'later'
p1105
tp1106
F0.0008830022075055188
s(S'briefly'
p1107
S'studied'
p1108
tp1109
F0.0004415011037527594
s(S'took'
p1110
S'with'
p1111
tp1112
F0.0004415011037527594
s(S'entered'
p1113
S'for'
p1114
tp1115
F0.0004415011037527594
s(S'[[con]]'
p1116
g329
tp1117
F0.0004415011037527594
s(S'[[det]]'
p1118
g138
tp1119
F0.02207505518763797
s(S'while'
p1120
S'took'
p1121
tp1122
F0.0004415011037527594
s(S'which'
p1123
S'took'
p1124
tp1125
F0.0004415011037527594
s(g86
g52
tp1126
F0.0004415011037527594
s(S'also'
p1127
S'holds'
p1128
tp1129
F0.0013245033112582781
s(S'met'
p1130
S'again'
p1131
tp1132
F0.0004415011037527594
s(S'had'
p1133
S'entered'
p1134
tp1135
F0.0008830022075055188
s(S'who'
p1136
S'took'
p1137
tp1138
F0.0008830022075055188
s(g247
S'in'
p1139
tp1140
F0.0004415011037527594
s(S'[[con]]'
p1141
S'enrolled'
p1142
tp1143
F0.0013245033112582781
s(S'completed'
p1144
S'in'
p1145
tp1146
F0.0008830022075055188
s(g356
S'in'
p1147
tp1148
F0.011920529801324504
s(S'bachelor'
p1149
S'[[con]]'
p1150
tp1151
F0.0008830022075055188
s(S'later'
p1152
S'continued'
p1153
tp1154
F0.0004415011037527594
s(S'soon'
p1155
S'returned'
p1156
tp1157
F0.0004415011037527594
s(S'has'
p1158
S'earned'
p1159
tp1160
F0.0013245033112582781
s(S'received'
p1161
S'degree'
p1162
tp1163
F0.003973509933774834
s(S'then'
p1164
S'completed'
p1165
tp1166
F0.0017660044150110375
s(g431
S'at'
p1167
tp1168
F0.002207505518763797
s(S'completed'
p1169
S'[[det]]'
p1170
tp1171
F0.0017660044150110375
s(S'[[adj]]'
p1172
g554
tp1173
F0.0004415011037527594
s(S'was'
p1174
g31
tp1175
F0.0004415011037527594
s(S'[[con]]'
p1176
S'has'
p1177
tp1178
F0.0004415011037527594
s(S'[[adj]]'
p1179
S'graduate'
p1180
tp1181
F0.0013245033112582781
s(S'[[con]]'
p1182
S'continued'
p1183
tp1184
F0.0004415011037527594
s(S'[[num]]'
p1185
S'returned'
p1186
tp1187
F0.0004415011037527594
s(S'first'
p1188
S'met'
p1189
tp1190
F0.0004415011037527594
s(g852
S'[[prp]]'
p1191
tp1192
F0.022516556291390728
s(S'took'
p1193
S'where'
p1194
tp1195
F0.0004415011037527594
s(g757
S'[[det]]'
p1196
tp1197
F0.022958057395143488
s(S'earned'
p1198
S'by'
p1199
tp1200
F0.0004415011037527594
s(S'science'
p1201
S'degree'
p1202
tp1203
F0.0004415011037527594
s(S'took'
p1204
S'[[pro]]'
p1205
tp1206
F0.0008830022075055188
s(S'earned'
p1207
S'with'
p1208
tp1209
F0.0004415011037527594
s(S'study'
p1210
S'[[det]]'
p1211
tp1212
F0.0004415011037527594
s(S'studied'
p1213
S'to'
p1214
tp1215
F0.0004415011037527594
s(S'took'
p1216
S'up'
p1217
tp1218
F0.0004415011037527594
s(S'also'
p1219
g103
tp1220
F0.0030905077262693157
s(S'[[det]]'
p1221
S'completed'
p1222
tp1223
F0.0004415011037527594
s(S'[[det]]'
p1224
S'attended'
p1225
tp1226
F0.0004415011037527594
s(g866
S'[[adj]]'
p1227
tp1228
F0.0013245033112582781
s(S'degrees'
p1229
S'[[con]]'
p1230
tp1231
F0.0008830022075055188
s(S'took'
p1232
S'back'
p1233
tp1234
F0.0004415011037527594
s(g68
g76
tp1235
F0.0004415011037527594
s(S'study'
p1236
S'for'
p1237
tp1238
F0.0004415011037527594
s(S'took'
p1239
S'[[prp]]'
p1240
tp1241
F0.0008830022075055188
s(g197
S'at'
p1242
tp1243
F0.0030905077262693157
s(S'transferred'
p1244
S'as'
p1245
tp1246
F0.0013245033112582781
s(g942
S'in'
p1247
tp1248
F0.0017660044150110375
s(S'holds'
p1249
S'degree'
p1250
tp1251
F0.0004415011037527594
s(g141
S'at'
p1252
tp1253
F0.0008830022075055188
s(S'[[det]]'
p1254
g736
tp1255
F0.0004415011037527594
s(S'[[det]]'
p1256
g955
tp1257
F0.0004415011037527594
s(S'[[adj]]'
p1258
S'transferred'
p1259
tp1260
F0.0004415011037527594
s(S'entered'
p1261
S'[[con]]'
p1262
tp1263
F0.0004415011037527594
s(g80
S'degree'
p1264
tp1265
F0.045916114790286976
s(S'until'
p1266
S'took'
p1267
tp1268
F0.0004415011037527594
s(g838
S'in'
p1269
tp1270
F0.004856512141280353
s(S'[[num]]'
p1271
S'took'
p1272
tp1273
F0.0004415011037527594
s(g505
S'to'
p1274
tp1275
F0.0004415011037527594
s(S'studied'
p1276
S'later'
p1277
tp1278
F0.0004415011037527594
s(S'studied'
p1279
S'before'
p1280
tp1281
F0.0004415011037527594
s(S'[[det]]'
p1282
g484
tp1283
F0.0008830022075055188
s(S'had'
p1284
S'completed'
p1285
tp1286
F0.0008830022075055188
s(g776
S'over'
p1287
tp1288
F0.0026490066225165563
s(S'has'
p1289
S'graduated'
p1290
tp1291
F0.0004415011037527594
s(S'attended'
p1292
S'of'
p1293
tp1294
F0.0017660044150110375
s(g1274
S'had'
p1295
tp1296
F0.0004415011037527594
s(S'[[prp]]'
p1297
g613
tp1298
F0.0030905077262693157
s(S'returned'
p1299
S'by'
p1300
tp1301
F0.0008830022075055188
s(S'took'
p1302
S'[[num]]'
p1303
tp1304
F0.0008830022075055188
s(S'had'
p1305
g989
tp1306
F0.002207505518763797
s(S'to'
p1307
g1044
tp1308
F0.003532008830022075
s(S'is'
p1309
g221
tp1310
F0.0004415011037527594
s(S'in'
p1311
S'attended'
p1312
tp1313
F0.0004415011037527594
s(S'bachelor'
p1314
S'degree'
p1315
tp1316
F0.002207505518763797
s(S'[[con]]'
p1317
S'[[adj]]'
p1318
tp1319
F0.0004415011037527594
s(g80
S'[[det]]'
p1320
tp1321
F0.002207505518763797
s(S'[[num]]'
p1322
g37
tp1323
F0.0026490066225165563
s(S'earned'
p1324
S'[[prp]]'
p1325
tp1326
F0.010154525386313467
s(g835
S'degree'
p1327
tp1328
F0.0013245033112582781
s(g1050
S'[[det]]'
p1329
tp1330
F0.0013245033112582781
s(S'[[det]]'
p1331
S'studied'
p1332
tp1333
F0.0004415011037527594
s(g455
S'[[con]]'
p1334
tp1335
F0.003973509933774834
s(S'had'
p1336
S'transferred'
p1337
tp1338
F0.0013245033112582781
s(S'[[det]]'
p1339
g285
tp1340
F0.0017660044150110375
s(S'entered'
p1341
S'to'
p1342
tp1343
F0.0004415011037527594
s(S'so'
p1344
S'returned'
p1345
tp1346
F0.0004415011037527594
s.