(dp0
(S'have'
p1
S'attended'
p2
tp3
F0.006944444444444444
s(S'later'
p4
S'attended'
p5
tp6
F0.020833333333333332
s(S'had'
p7
S'graduated'
p8
tp9
F0.003472222222222222
s(S'later'
p10
S'enrolled'
p11
tp12
F0.010416666666666666
s(S'enrolled'
p13
S'at'
p14
tp15
F0.024305555555555556
s(S'has'
p16
S'studied'
p17
tp18
F0.013888888888888888
s(S'had'
p19
S'studied'
p20
tp21
F0.003472222222222222
s(S'studied'
p22
S'from'
p23
tp24
F0.006944444444444444
s(S'when'
p25
S'attended'
p26
tp27
F0.003472222222222222
s(S'graduated'
p28
S'to'
p29
tp30
F0.003472222222222222
s(S'was'
p31
S'enrolled'
p32
tp33
F0.013888888888888888
s(S'enrolled'
p34
S'as'
p35
tp36
F0.006944444444444444
s(S'graduated'
p37
S'[[adj]]'
p38
tp39
F0.003472222222222222
s(S'then'
p40
S'graduated'
p41
tp42
F0.006944444444444444
s(S'attended'
p43
S'[[con]]'
p44
tp45
F0.024305555555555556
s(S'going'
p46
S'to'
p47
tp48
F0.003472222222222222
s(S'enrolled'
p49
S'[[con]]'
p50
tp51
F0.003472222222222222
s(S'have'
p52
S'studied'
p53
tp54
F0.003472222222222222
s(S'attended'
p55
S'for'
p56
tp57
F0.003472222222222222
s(S'is'
p58
S'studying'
p59
tp60
F0.010416666666666666
s(S'studying'
p61
S'for'
p62
tp63
F0.003472222222222222
s(S'before'
p64
S'studying'
p65
tp66
F0.003472222222222222
s(S'before'
p67
g46
tp68
F0.003472222222222222
s(S'[[num]]'
p69
S'attended'
p70
tp71
F0.003472222222222222
s(S'study'
p72
S'of'
p73
tp74
F0.003472222222222222
s(S'[[adj]]'
p75
S'study'
p76
tp77
F0.003472222222222222
s(S'first'
p78
S'studied'
p79
tp80
F0.010416666666666666
s(S'year'
p81
g67
tp82
F0.003472222222222222
s(S'later'
p83
S'studying'
p84
tp85
F0.003472222222222222
s(S'[[pro]]'
p86
S'studied'
p87
tp88
F0.003472222222222222
s(S'[[con]]'
p89
S'enrolled'
p90
tp91
F0.010416666666666666
s(S'[[con]]'
p92
S'attended'
p93
tp94
F0.013888888888888888
s(S'who'
p95
S'graduated'
p96
tp97
F0.006944444444444444
s(S'[[pro]]'
p98
S'graduated'
p99
tp100
F0.003472222222222222
s(S'attended'
p101
S'from'
p102
tp103
F0.006944444444444444
s(S'had'
p104
S'attended'
p105
tp106
F0.010416666666666666
s(S'who'
p107
S'studied'
p108
tp109
F0.003472222222222222
s(S'enrolled'
p110
S'[[det]]'
p111
tp112
F0.003472222222222222
s(S'graduated'
p113
S'now'
p114
tp115
F0.006944444444444444
s(S'also'
p116
S'studied'
p117
tp118
F0.013888888888888888
s(S'[[adj]]'
p119
S'studied'
p120
tp121
F0.003472222222222222
s(g2
S'[[det]]'
p122
tp123
F0.04513888888888889
s(S'while'
p124
S'studying'
p125
tp126
F0.003472222222222222
s(g117
S'at'
p127
tp128
F0.04861111111111111
s(S'later'
p129
S'graduated'
p130
tp131
F0.006944444444444444
s(S'attended'
p132
S'to'
p133
tp134
F0.003472222222222222
s(g96
S'at'
p135
tp136
F0.017361111111111112
s(S'attended'
p137
S's'
p138
tp139
F0.003472222222222222
s(S'graduated'
p140
S'[[num]]'
p141
tp142
F0.003472222222222222
s(S'[[con]]'
p143
S'graduated'
p144
tp145
F0.006944444444444444
s(S'to'
p146
S'read'
p147
tp148
F0.003472222222222222
s(S'attended'
p149
S'[[adj]]'
p150
tp151
F0.003472222222222222
s(S'graduated'
p152
S'as'
p153
tp154
F0.003472222222222222
s(S'graduated'
p155
S'[[det]]'
p156
tp157
F0.003472222222222222
s(S'where'
p158
S'enrolled'
p159
tp160
F0.006944444444444444
s(S'attended'
p161
S'then'
p162
tp163
F0.003472222222222222
s(S'[[det]]'
p164
S'studying'
p165
tp166
F0.003472222222222222
s(S'where'
p167
S'attended'
p168
tp169
F0.006944444444444444
s(S'attended'
p170
S'before'
p171
tp172
F0.003472222222222222
s(S'then'
p173
S'read'
p174
tp175
F0.003472222222222222
s(S'study'
p176
S'[[con]]'
p177
tp178
F0.003472222222222222
s(S'then'
p179
S'studied'
p180
tp181
F0.013888888888888888
s(S'while'
p182
S'attended'
p183
tp184
F0.003472222222222222
s(S'read'
p185
S'at'
p186
tp187
F0.010416666666666666
s(S'attended'
p188
S'[[num]]'
p189
tp190
F0.003472222222222222
s(S'studying'
p191
S'in'
p192
tp193
F0.006944444444444444
s(S'studied'
p194
S'[[adj]]'
p195
tp196
F0.006944444444444444
s(S'also'
p197
S'graduated'
p198
tp199
F0.006944444444444444
s(S'[[pro]]'
p200
S'attended'
p201
tp202
F0.003472222222222222
s(S'[[num]]'
p203
S'graduated'
p204
tp205
F0.003472222222222222
s(S'study'
p206
S'[[det]]'
p207
tp208
F0.003472222222222222
s(S'studied'
p209
S'to'
p210
tp211
F0.003472222222222222
s(S'[[num]]'
p212
S'studied'
p213
tp214
F0.003472222222222222
s(S'then'
p215
S'enrolled'
p216
tp217
F0.006944444444444444
s(S'studied'
p218
S'first'
p219
tp220
F0.003472222222222222
s(S'graduated'
p221
S'then'
p222
tp223
F0.003472222222222222
s(S'[[det]]'
p224
S'attended'
p225
tp226
F0.003472222222222222
s(g8
S'from'
p227
tp228
F0.041666666666666664
s(S'also'
p229
S'enrolled'
p230
tp231
F0.006944444444444444
s(S'[[det]]'
p232
S'study'
p233
tp234
F0.003472222222222222
s(S'attended'
p235
S'now'
p236
tp237
F0.013888888888888888
s(S'was'
p238
S'graduated'
p239
tp240
F0.017361111111111112
s(S'[[mod]]'
p241
S'study'
p242
tp243
F0.006944444444444444
s(S'[[con]]'
p244
S'studied'
p245
tp246
F0.010416666666666666
s(S'currently'
p247
S'studying'
p248
tp249
F0.010416666666666666
s(g180
S'[[det]]'
p250
tp251
F0.006944444444444444
s(g216
S'in'
p252
tp253
F0.024305555555555556
s(S'attended'
p254
S'at'
p255
tp256
F0.020833333333333332
s(S'studied'
p257
S'then'
p258
tp259
F0.003472222222222222
s(S'been'
p260
S'studying'
p261
tp262
F0.006944444444444444
s(S'has'
p263
S'attended'
p264
tp265
F0.010416666666666666
s(S'then'
p266
S'attended'
p267
tp268
F0.020833333333333332
s(S'later'
p269
S'studied'
p270
tp271
F0.010416666666666666
s(S'studied'
p272
S'before'
p273
tp274
F0.003472222222222222
s(S'studying'
p275
S'with'
p276
tp277
F0.003472222222222222
s(S'attended'
p278
S'later'
p279
tp280
F0.003472222222222222
s(S'studied'
p281
S'[[num]]'
p282
tp283
F0.003472222222222222
s(S'where'
p284
S'studied'
p285
tp286
F0.003472222222222222
s(S'has'
p287
S'graduated'
p288
tp289
F0.003472222222222222
s(S'after'
p290
S'studying'
p291
tp292
F0.003472222222222222
s(S'studied'
p293
S'[[con]]'
p294
tp295
F0.020833333333333332
s(S'attended'
p296
S'of'
p297
tp298
F0.010416666666666666
s(S'graduated'
p299
S'[[con]]'
p300
tp301
F0.006944444444444444
s(g291
S'at'
p302
tp303
F0.03125
s(S'studied'
p304
S'for'
p305
tp306
F0.003472222222222222
s(S'study'
p307
S'for'
p308
tp309
F0.003472222222222222
s(S'to'
p310
S'study'
p311
tp312
F0.020833333333333332
s(g311
S'[[adj]]'
p313
tp314
F0.003472222222222222
s(S'[[det]]'
p315
S'studied'
p316
tp317
F0.003472222222222222
s(S'was'
p318
g61
tp319
F0.010416666666666666
s(S'who'
p320
S'attended'
p321
tp322
F0.006944444444444444
s(S'studied'
p323
S'in'
p324
tp325
F0.003472222222222222
s(g76
S'at'
p326
tp327
F0.013888888888888888
s(S'also'
p328
S'attended'
p329
tp330
F0.024305555555555556
s(g239
S'in'
p331
tp332
F0.003472222222222222
s(S'first'
p333
S'attended'
p334
tp335
F0.006944444444444444
s(S'[[adj]]'
p336
g254
tp337
F0.010416666666666666
s(S'where'
p338
S'graduated'
p339
tp340
F0.003472222222222222
s.