(dp0
(S'[[num]]'
p1
S'round'
p2
tp3
F0.0030303030303030303
s(S'only'
p4
S'played'
p5
tp6
F0.015151515151515152
s(S'league'
p7
S'appearances'
p8
tp9
F0.0030303030303030303
s(S'played'
p10
S'was'
p11
tp12
F0.0030303030303030303
s(S'with'
p13
S'played'
p14
tp15
F0.0030303030303030303
s(S'played'
p16
S'between'
p17
tp18
F0.0030303030303030303
s(S'also'
p19
S'played'
p20
tp21
F0.045454545454545456
s(S'drafted'
p22
S'by'
p23
tp24
F0.0030303030303030303
s(S'[[adj]]'
p25
S'played'
p26
tp27
F0.01818181818181818
s(S'played'
p28
S'over'
p29
tp30
F0.006060606060606061
s(S'then'
p31
S'played'
p32
tp33
F0.02727272727272727
s(S'where'
p34
S'played'
p35
tp36
F0.012121212121212121
s(S'[[adj]]'
p37
S'round'
p38
tp39
F0.015151515151515152
s(S'award'
p40
S'[[num]]'
p41
tp42
F0.0030303030303030303
s(S'for'
p43
S'played'
p44
tp45
F0.0030303030303030303
s(S'split'
p46
S'[[adj]]'
p47
tp48
F0.0030303030303030303
s(S'mainly'
p49
S'played'
p50
tp51
F0.006060606060606061
s(S'that'
p52
S'played'
p53
tp54
F0.0030303030303030303
s(S'began'
p55
S'as'
p56
tp57
F0.0030303030303030303
s(S'while'
p58
S'played'
p59
tp60
F0.0030303030303030303
s(S'played'
p61
S'also'
p62
tp63
F0.006060606060606061
s(S'played'
p64
S'where'
p65
tp66
F0.006060606060606061
s(S'[[con]]'
p67
S'played'
p68
tp69
F0.01818181818181818
s(g47
g7
tp70
F0.0030303030303030303
s(S'played'
p71
S'on'
p72
tp73
F0.00909090909090909
s(S'had'
p74
S'played'
p75
tp76
F0.021212121212121213
s(S'drafted'
p77
S'[[adj]]'
p78
tp79
F0.0030303030303030303
s(g38
S'[[det]]'
p80
tp81
F0.0030303030303030303
s(S'played'
p82
S'then'
p83
tp84
F0.0030303030303030303
s(S'played'
p85
S'mainly'
p86
tp87
F0.006060606060606061
s(S'played'
p88
S'for'
p89
tp90
F0.08787878787878788
s(S'in'
p91
g37
tp92
F0.00909090909090909
s(S'already'
p93
S'played'
p94
tp95
F0.006060606060606061
s(S'drafted'
p96
S'[[num]]'
p97
tp98
F0.0030303030303030303
s(S'who'
p99
S'played'
p100
tp101
F0.00909090909090909
s(S'to'
p102
S'played'
p103
tp104
F0.0030303030303030303
s(S'played'
p105
S'well'
p106
tp107
F0.0030303030303030303
s(S'played'
p108
S'just'
p109
tp110
F0.0030303030303030303
s(S'have'
p111
S'played'
p112
tp113
F0.00909090909090909
s(S'[[det]]'
p114
g40
tp115
F0.0030303030303030303
s(g35
S'in'
p116
tp117
F0.051515151515151514
s(S'later'
p118
S'played'
p119
tp120
F0.02727272727272727
s(S'played'
p121
S'[[adj]]'
p122
tp123
F0.0030303030303030303
s(S'once'
p124
S'played'
p125
tp126
F0.006060606060606061
s(S'played'
p127
S'from'
p128
tp129
F0.006060606060606061
s(S'which'
p130
S'played'
p131
tp132
F0.0030303030303030303
s(S'played'
p133
S'[[num]]'
p134
tp135
F0.00909090909090909
s(S'[[pro]]'
p136
S'played'
p137
tp138
F0.006060606060606061
s(g26
S'against'
p139
tp140
F0.03636363636363636
s(S'played'
p141
S'mostly'
p142
tp143
F0.0030303030303030303
s(S'played'
p144
S'again'
p145
tp146
F0.0030303030303030303
s(S'was'
p147
S'drafted'
p148
tp149
F0.01818181818181818
s(g50
S'with'
p150
tp151
F0.051515151515151514
s(S'played'
p152
S'there'
p153
tp154
F0.0030303030303030303
s(S'[[det]]'
p155
S'played'
p156
tp157
F0.006060606060606061
s(g131
S'[[con]]'
p158
tp159
F0.030303030303030304
s(g5
S'twice'
p160
tp161
F0.015151515151515152
s(S'played'
p162
S'[[det]]'
p163
tp164
F0.024242424242424242
s(S'in'
p165
S'played'
p166
tp167
F0.0030303030303030303
s(S'[[num]]'
p168
S'played'
p169
tp170
F0.006060606060606061
s(g148
g91
tp171
F0.012121212121212121
s(S'also'
p172
g22
tp173
F0.0030303030303030303
s(S'[[adj]]'
p174
S'pitcher'
p175
tp176
F0.0030303030303030303
s(S'[[det]]'
p177
S'round'
p178
tp179
F0.0030303030303030303
s(S'played'
p180
S'most'
p181
tp182
F0.006060606060606061
s(g20
S'before'
p183
tp184
F0.006060606060606061
s(g175
S'who'
p185
tp186
F0.0030303030303030303
s(S'played'
p187
S'after'
p188
tp189
F0.0030303030303030303
s(S'played'
p190
S'when'
p191
tp192
F0.0030303030303030303
s(S'in'
p193
g1
tp194
F0.0030303030303030303
s(g8
S'for'
p195
tp196
F0.0030303030303030303
s(S'times'
p197
S'[[det]]'
p198
tp199
F0.0030303030303030303
s(S'played'
p200
S'once'
p201
tp202
F0.006060606060606061
s(S'ever'
p203
S'played'
p204
tp205
F0.0030303030303030303
s(S'played'
p206
S'until'
p207
tp208
F0.0030303030303030303
s(S'played'
p209
S'of'
p210
tp211
F0.006060606060606061
s(S'since'
p212
S'played'
p213
tp214
F0.006060606060606061
s(g185
g55
tp215
F0.0030303030303030303
s(S'played'
p216
S'at'
p217
tp218
F0.024242424242424242
s(S'round'
p219
S'[[adj]]'
p220
tp221
F0.006060606060606061
s(S'has'
p222
g133
tp223
F0.03636363636363636
s(S'again'
p224
S'played'
p225
tp226
F0.006060606060606061
s(g41
g197
tp227
F0.0030303030303030303
s(S'never'
p228
S'played'
p229
tp230
F0.01818181818181818
s(g23
g177
tp231
F0.0030303030303030303
s(S'formerly'
p232
S'played'
p233
tp234
F0.021212121212121213
s(S'not'
p235
S'played'
p236
tp237
F0.00909090909090909
s(S'played'
p238
S'only'
p239
tp240
F0.0030303030303030303
s(g97
S'[[adj]]'
p241
tp242
F0.0030303030303030303
s(S'played'
p243
S'[[prp]]'
p244
tp245
F0.0030303030303030303
s(S'won'
p246
g114
tp247
F0.0030303030303030303
s(S'first'
p248
S'played'
p249
tp250
F0.01818181818181818
s(S'after'
p251
S'played'
p252
tp253
F0.0030303030303030303
s(S'round'
p254
S'of'
p255
tp256
F0.0030303030303030303
s(S'played'
p257
S'as'
p258
tp259
F0.012121212121212121
s(S'played'
p260
S'during'
p261
tp262
F0.0030303030303030303
s(S'played'
p263
S'to'
p264
tp265
F0.00909090909090909
s(g137
S'together'
p266
tp267
F0.006060606060606061
s(S'when'
p268
S'played'
p269
tp270
F0.012121212121212121
s(S'[[mod]]'
p271
g46
tp272
F0.0030303030303030303
s(S'was'
p273
S'played'
p274
tp275
F0.0030303030303030303
s.